ARM GAS  C:\Users\leopi\AppData\Local\Temp\ccNfTY3A.s 			page 1


   1              		.cpu cortex-m4
   2              		.arch armv7e-m
   3              		.fpu fpv4-sp-d16
   4              		.eabi_attribute 27, 1
   5              		.eabi_attribute 28, 1
   6              		.eabi_attribute 20, 1
   7              		.eabi_attribute 21, 1
   8              		.eabi_attribute 23, 3
   9              		.eabi_attribute 24, 1
  10              		.eabi_attribute 25, 1
  11              		.eabi_attribute 26, 1
  12              		.eabi_attribute 30, 1
  13              		.eabi_attribute 34, 1
  14              		.eabi_attribute 18, 4
  15              		.file	"Action.c"
  16              		.text
  17              	.Ltext0:
  18              		.cfi_sections	.debug_frame
  19              		.section	.rodata.getWallState.str1.4,"aMS",%progbits,1
  20              		.align	2
  21              	.LC2:
  22 0000 E382B9E3 		.ascii	"\343\202\271\343\202\277\343\203\203\343\202\257\343"
  22      82BFE383 
  22      83E382AF 
  22      E3
  23 000d 818CE784 		.ascii	"\201\214\347\204\241\343\201\204\015\000"
  23      A1E38184 
  23      0D00
  24 0017 00       		.align	2
  25              	.LC3:
  26 0018 E382B9E3 		.ascii	"\343\202\271\343\202\277\343\203\203\343\202\257\343"
  26      82BFE383 
  26      83E382AF 
  26      E3
  27 0025 818CE4BD 		.ascii	"\201\214\344\275\225\343\201\213\343\201\227\343\202"
  27      95E3818B 
  27      E38197E3 
  27      82
  28 0032 89E38182 		.ascii	"\211\343\201\202\343\202\213\015\000"
  28      E3828B0D 
  28      00
  29 003b 00       		.align	2
  30              	.LC4:
  31 003c E69CAAE8 		.ascii	"\346\234\252\350\250\252\345\225\217\015\000"
  31      A8AAE595 
  31      8F0D00
  32              		.section	.text.getWallState,"ax",%progbits
  33              		.align	1
  34              		.syntax unified
  35              		.thumb
  36              		.thumb_func
  38              	getWallState:
  39              	.LVL0:
  40              	.LFB238:
  41              		.file 1 "Core/Src/Main/Action.c"
   1:Core/Src/Main/Action.c **** /*
   2:Core/Src/Main/Action.c ****  * Action.c
ARM GAS  C:\Users\leopi\AppData\Local\Temp\ccNfTY3A.s 			page 2


   3:Core/Src/Main/Action.c ****  *
   4:Core/Src/Main/Action.c ****  *  Created on: Feb 18, 2022
   5:Core/Src/Main/Action.c ****  *      Author: leopi
   6:Core/Src/Main/Action.c ****  */
   7:Core/Src/Main/Action.c **** 
   8:Core/Src/Main/Action.c **** #include "Action.h"
   9:Core/Src/Main/Action.c **** #include <main.h>
  10:Core/Src/Main/Action.c **** #include <math.h>
  11:Core/Src/Main/Action.c **** #include <stdio.h>
  12:Core/Src/Main/Action.c **** #include <stdlib.h>
  13:Core/Src/Main/Action.c **** #include "Convert.h"
  14:Core/Src/Main/Action.c **** #include "PID_Control.h"
  15:Core/Src/Main/Action.c **** #include "MicroMouse.h"
  16:Core/Src/Main/Action.c **** #include "ICM_20648.h"
  17:Core/Src/Main/Action.c **** #include "UI.h"
  18:Core/Src/Main/Action.c **** #include "Interrupt.h"
  19:Core/Src/Main/Action.c **** #include "Motor_Driver.h"
  20:Core/Src/Main/Action.c **** #include "IR_Emitter.h"
  21:Core/Src/Main/Action.c **** 
  22:Core/Src/Main/Action.c **** #include "MazeLib.h"
  23:Core/Src/Main/Action.c **** #include "dfs.h"
  24:Core/Src/Main/Action.c **** #include "Searching.h"
  25:Core/Src/Main/Action.c **** 
  26:Core/Src/Main/Action.c **** #include <stdbool.h>
  27:Core/Src/Main/Action.c **** const float TO_PULSE = 2/MM_PER_PULSE;
  28:Core/Src/Main/Action.c **** #define WALL_CUT_VAL 34
  29:Core/Src/Main/Action.c **** //const float Wall_Cut_Val = 38;
  30:Core/Src/Main/Action.c **** const float angle_range = 3*M_PI/180;
  31:Core/Src/Main/Action.c **** 
  32:Core/Src/Main/Action.c **** #define SLA_CALIB_FL 180
  33:Core/Src/Main/Action.c **** #define SLA_CALIB_FR	230
  34:Core/Src/Main/Action.c **** 
  35:Core/Src/Main/Action.c **** static void getWallState(profile *mouse, float *photo, maze_node *maze){
  42              		.loc 1 35 72 view -0
  43              		.cfi_startproc
  44              		@ args = 0, pretend = 0, frame = 16
  45              		@ frame_needed = 0, uses_anonymous_args = 0
  46              		.loc 1 35 72 is_stmt 0 view .LVU1
  47 0000 F0B5     		push	{r4, r5, r6, r7, lr}
  48              	.LCFI0:
  49              		.cfi_def_cfa_offset 20
  50              		.cfi_offset 4, -20
  51              		.cfi_offset 5, -16
  52              		.cfi_offset 6, -12
  53              		.cfi_offset 7, -8
  54              		.cfi_offset 14, -4
  55 0002 85B0     		sub	sp, sp, #20
  56              	.LCFI1:
  57              		.cfi_def_cfa_offset 40
  58 0004 0446     		mov	r4, r0
  59 0006 0D46     		mov	r5, r1
  60 0008 1646     		mov	r6, r2
  36:Core/Src/Main/Action.c **** 
  37:Core/Src/Main/Action.c **** 	wall_existence wall_dir; //ãƒ­ãƒœãƒƒãƒˆã®å‰å¾Œå·¦å³ã®å€¤ã¨ã—ã¦å–å¾—
  61              		.loc 1 37 2 is_stmt 1 view .LVU2
  38:Core/Src/Main/Action.c **** 
  39:Core/Src/Main/Action.c **** 	shiftState(mouse); //åŒºç”»é€²å…¥ç›´å‰ãªã®ã§ã€æ›´æ–°äºˆå®šã®æ–¹è§’ã¨åº§æ¨™ãŒNextã«å…¥ã£ã
ARM GAS  C:\Users\leopi\AppData\Local\Temp\ccNfTY3A.s 			page 3


  62              		.loc 1 39 2 view .LVU3
  63 000a FFF7FEFF 		bl	shiftState
  64              	.LVL1:
  40:Core/Src/Main/Action.c **** 	VisitedMass(mouse->now.pos); //è¨ªå•ã—ãŸãƒžã‚¹ã‚’è¨ªå•æ¸ˆã¿é…åˆ—ã«ç™»éŒ²
  65              		.loc 1 40 2 view .LVU4
  66 000e 6068     		ldr	r0, [r4, #4]
  67 0010 FFF7FEFF 		bl	VisitedMass
  68              	.LVL2:
  41:Core/Src/Main/Action.c ****     switch (mouse->now.car%8) //å£ã‚»ãƒ³ã‚µå€¤ã‚’å–å¾—ã€æ–¹è§’æ¯Žã«å£ã®æœ‰ç„¡ã‚’åˆ¤å®š
  69              		.loc 1 41 5 view .LVU5
  70              		.loc 1 41 23 is_stmt 0 view .LVU6
  71 0014 A379     		ldrb	r3, [r4, #6]	@ zero_extendqisi2
  72              		.loc 1 41 5 view .LVU7
  73 0016 03F00703 		and	r3, r3, #7
  74 001a 062B     		cmp	r3, #6
  75 001c 38D8     		bhi	.L2
  76 001e DFE803F0 		tbb	[pc, r3]
  77              	.L4:
  78 0022 04       		.byte	(.L7-.L4)/2
  79 0023 37       		.byte	(.L2-.L4)/2
  80 0024 52       		.byte	(.L6-.L4)/2
  81 0025 37       		.byte	(.L2-.L4)/2
  82 0026 86       		.byte	(.L5-.L4)/2
  83 0027 37       		.byte	(.L2-.L4)/2
  84 0028 BA       		.byte	(.L3-.L4)/2
  85 0029 00       		.p2align 1
  86              	.L7:
  42:Core/Src/Main/Action.c ****     {
  43:Core/Src/Main/Action.c ****     case north:
  44:Core/Src/Main/Action.c ****     	wall_dir.north = ((photo[FL] + photo[FR])*0.5f > FRONT_WALL)  ?   WALL : NOWALL;
  87              		.loc 1 44 6 is_stmt 1 view .LVU8
  88              		.loc 1 44 30 is_stmt 0 view .LVU9
  89 002a D5ED007A 		vldr.32	s15, [r5]
  90              		.loc 1 44 42 view .LVU10
  91 002e 95ED037A 		vldr.32	s14, [r5, #12]
  92              		.loc 1 44 35 view .LVU11
  93 0032 77EE877A 		vadd.f32	s15, s15, s14
  94              		.loc 1 44 47 view .LVU12
  95 0036 B6EE007A 		vmov.f32	s14, #5.0e-1
  96 003a 67EE877A 		vmul.f32	s15, s15, s14
  97              		.loc 1 44 77 view .LVU13
  98 003e 9FED967A 		vldr.32	s14, .L24
  99 0042 F4EEC77A 		vcmpe.f32	s15, s14
 100 0046 F1EE10FA 		vmrs	APSR_nzcv, FPSCR
 101 004a CCBF     		ite	gt
 102 004c 0123     		movgt	r3, #1
 103 004e 0023     		movle	r3, #0
 104              		.loc 1 44 21 view .LVU14
 105 0050 4FF00007 		mov	r7, #0
 106              	.LVL3:
 107              		.loc 1 44 21 view .LVU15
 108 0054 63F30107 		bfi	r7, r3, #0, #2
 109              	.LVL4:
  45:Core/Src/Main/Action.c ****     	wall_dir.east = photo[SIDE_R] > RIGHT_WALL  ?  WALL :  NOWALL;
 110              		.loc 1 45 6 is_stmt 1 view .LVU16
 111              		.loc 1 45 27 is_stmt 0 view .LVU17
 112 0058 95ED017A 		vldr.32	s14, [r5, #4]
ARM GAS  C:\Users\leopi\AppData\Local\Temp\ccNfTY3A.s 			page 4


 113              		.loc 1 45 58 view .LVU18
 114 005c DFED8F7A 		vldr.32	s15, .L24+4
 115 0060 B4EEE77A 		vcmpe.f32	s14, s15
 116 0064 F1EE10FA 		vmrs	APSR_nzcv, FPSCR
 117 0068 CCBF     		ite	gt
 118 006a 0123     		movgt	r3, #1
 119 006c 0023     		movle	r3, #0
 120              		.loc 1 45 20 view .LVU19
 121 006e 63F38307 		bfi	r7, r3, #2, #2
  46:Core/Src/Main/Action.c ****     	wall_dir.south = NOWALL;
 122              		.loc 1 46 6 is_stmt 1 view .LVU20
 123              		.loc 1 46 21 is_stmt 0 view .LVU21
 124 0072 6FF30517 		bfc	r7, #4, #2
  47:Core/Src/Main/Action.c ****     	wall_dir.west = photo[SL] > LEFT_WALL ?  WALL :  NOWALL;
 125              		.loc 1 47 6 is_stmt 1 view .LVU22
 126              		.loc 1 47 27 is_stmt 0 view .LVU23
 127 0076 95ED027A 		vldr.32	s14, [r5, #8]
 128              		.loc 1 47 52 view .LVU24
 129 007a DFED897A 		vldr.32	s15, .L24+8
 130 007e B4EEE77A 		vcmpe.f32	s14, s15
 131 0082 F1EE10FA 		vmrs	APSR_nzcv, FPSCR
 132 0086 CCBF     		ite	gt
 133 0088 0123     		movgt	r3, #1
 134 008a 0023     		movle	r3, #0
 135              		.loc 1 47 20 view .LVU25
 136 008c 63F38717 		bfi	r7, r3, #6, #2
  48:Core/Src/Main/Action.c ****         break;
 137              		.loc 1 48 9 is_stmt 1 view .LVU26
 138              	.L2:
  49:Core/Src/Main/Action.c ****     case east:
  50:Core/Src/Main/Action.c ****     	wall_dir.east = ((photo[FL] + photo[FR])*0.5f > FRONT_WALL)  ?   WALL : NOWALL;	
  51:Core/Src/Main/Action.c ****     	wall_dir.south = photo[SIDE_R] > RIGHT_WALL  ?  WALL :  NOWALL;
  52:Core/Src/Main/Action.c ****     	wall_dir.west = NOWALL;
  53:Core/Src/Main/Action.c ****     	wall_dir.north = photo[SL] > LEFT_WALL ?  WALL :  NOWALL;
  54:Core/Src/Main/Action.c ****         break;
  55:Core/Src/Main/Action.c ****     case south:
  56:Core/Src/Main/Action.c ****     	wall_dir.south = ((photo[FL] + photo[FR])*0.5f > FRONT_WALL)  ?   WALL : NOWALL;
  57:Core/Src/Main/Action.c ****     	wall_dir.west = photo[SIDE_R] > RIGHT_WALL  ?  WALL :  NOWALL;
  58:Core/Src/Main/Action.c ****     	wall_dir.north = NOWALL;
  59:Core/Src/Main/Action.c ****     	wall_dir.east = photo[SL] > LEFT_WALL ?  WALL :  NOWALL;
  60:Core/Src/Main/Action.c ****         break;
  61:Core/Src/Main/Action.c ****     case west:
  62:Core/Src/Main/Action.c ****     	wall_dir.west = ((photo[FL] + photo[FR])*0.5f > FRONT_WALL)  ?   WALL : NOWALL;	
  63:Core/Src/Main/Action.c ****     	wall_dir.north = photo[SIDE_R] > RIGHT_WALL  ?  WALL :  NOWALL;
  64:Core/Src/Main/Action.c ****     	wall_dir.east = NOWALL;
  65:Core/Src/Main/Action.c ****     	wall_dir.south = photo[SL] > LEFT_WALL ?  WALL :  NOWALL;
  66:Core/Src/Main/Action.c ****         break;
  67:Core/Src/Main/Action.c ****     default:
  68:Core/Src/Main/Action.c ****         //ä¸‡ãŒä¸€æ–œã‚ã®æ–¹è§’ã‚’å‘ã„ã¦ã„ã‚‹ã¨ãã«å‘¼ã³å‡ºã—ã¦ã—ã¾ã£ãŸã‚‰ã€
  69:Core/Src/Main/Action.c ****         break;
  70:Core/Src/Main/Action.c ****     }
  71:Core/Src/Main/Action.c **** 	mouse->now.wall = wall_dir; //å„æ–¹è§’ã®å£ã«å£ã®æœ‰ç„¡ã‚’ä»£å…¥
 139              		.loc 1 71 2 view .LVU27
 140              		.loc 1 71 18 is_stmt 0 view .LVU28
 141 0090 2772     		strb	r7, [r4, #8]
  72:Core/Src/Main/Action.c **** 
  73:Core/Src/Main/Action.c **** 	updateNodeThree(maze, &(mouse->now.wall), mouse->now.pos.x, mouse->now.pos.y); // ãƒŽãƒ¼ãƒ‰ã«åæ
ARM GAS  C:\Users\leopi\AppData\Local\Temp\ccNfTY3A.s 			page 5


 142              		.loc 1 73 2 is_stmt 1 view .LVU29
 143 0092 6379     		ldrb	r3, [r4, #5]	@ zero_extendqisi2
 144 0094 2279     		ldrb	r2, [r4, #4]	@ zero_extendqisi2
 145 0096 04F10801 		add	r1, r4, #8
 146 009a 3046     		mov	r0, r6
 147 009c FFF7FEFF 		bl	updateNodeThree
 148              	.LVL5:
  74:Core/Src/Main/Action.c **** 
  75:Core/Src/Main/Action.c **** 	position start_pos = {0,0}; //ã‚´ãƒ¼ãƒ«ã‚¨ãƒªã‚¢ã«ä¸€åº¦å…¥ã£ãŸã‚‰ï¼ˆtarget.posã«åˆ°é”ã—ãŸã
 149              		.loc 1 75 2 view .LVU30
 150              		.loc 1 75 11 is_stmt 0 view .LVU31
 151 00a0 0023     		movs	r3, #0
 152 00a2 8DF80C30 		strb	r3, [sp, #12]
 153 00a6 8DF80D30 		strb	r3, [sp, #13]
  76:Core/Src/Main/Action.c **** 	if(GetStackFlag() == true){
 154              		.loc 1 76 2 is_stmt 1 view .LVU32
 155              		.loc 1 76 5 is_stmt 0 view .LVU33
 156 00aa FFF7FEFF 		bl	GetStackFlag
 157              	.LVL6:
 158              		.loc 1 76 4 view .LVU34
 159 00ae 0028     		cmp	r0, #0
 160 00b0 40F0A580 		bne	.L20
 161              	.LVL7:
 162              	.L8:
  77:Core/Src/Main/Action.c **** 		if(ComparePosition(&(mouse->target_pos), &(mouse->now.pos)) || ComparePosition(&(mouse->target_po
  78:Core/Src/Main/Action.c **** 			position target_size = {1,1};
  79:Core/Src/Main/Action.c **** 			mouse->target_size = target_size;
  80:Core/Src/Main/Action.c **** 			_Bool stacked_one_or_more = StackMass(maze, &(mouse->now)); //ä½•ã‚‚ç©ã‚“ã§ã„ãªã„ã‹ã©ã†ã
  81:Core/Src/Main/Action.c **** 			if(stacked_one_or_more == 0) printf("ã‚¹ã‚¿ãƒƒã‚¯ãŒç„¡ã„\r\n");//ChangeLED(7);
  82:Core/Src/Main/Action.c **** 			else printf("ã‚¹ã‚¿ãƒƒã‚¯ãŒä½•ã‹ã—ã‚‰ã‚ã‚‹\r\n");//ChangeLED(0);
  83:Core/Src/Main/Action.c **** 
  84:Core/Src/Main/Action.c **** 			int n = GetStackNum();
  85:Core/Src/Main/Action.c **** 
  86:Core/Src/Main/Action.c **** 			//0ãªã‚‰
  87:Core/Src/Main/Action.c **** 			if(n == 0){
  88:Core/Src/Main/Action.c **** 				WALL_MASK = 0x01;
  89:Core/Src/Main/Action.c **** 				mouse->target_pos = GetStackMass(); //ã‚«ã‚¦ãƒ³ãƒˆã¯æ¸›ã‚‰ã•ãªã„ n = 0ã®ã¾ã¾
  90:Core/Src/Main/Action.c **** 				SetStackNum(n);
  91:Core/Src/Main/Action.c **** 			}//0ä»¥å¤–ãªã‚‰é€šå¸¸é€šã‚Š
  92:Core/Src/Main/Action.c **** 			else{
  93:Core/Src/Main/Action.c **** 				WALL_MASK = 0x01;
  94:Core/Src/Main/Action.c **** 				position pos;
  95:Core/Src/Main/Action.c **** 				_Bool is_first = false;
  96:Core/Src/Main/Action.c **** 				while( 1 ){
  97:Core/Src/Main/Action.c **** 					pos = GetStackMass();
  98:Core/Src/Main/Action.c **** 					is_first = GetVisited(&(pos)); //0ãªã‚‰æœªè¨ªå•
  99:Core/Src/Main/Action.c **** 					if(n == 0){
 100:Core/Src/Main/Action.c **** 						mouse->target_pos = pos;
 101:Core/Src/Main/Action.c **** 						printf("æœªè¨ªå•\r\n");
 102:Core/Src/Main/Action.c **** 						break;
 103:Core/Src/Main/Action.c **** 					}
 104:Core/Src/Main/Action.c **** 					else if(is_first == false){
 105:Core/Src/Main/Action.c **** 
 106:Core/Src/Main/Action.c **** 						mouse->target_pos =pos;
 107:Core/Src/Main/Action.c **** 						--n;
 108:Core/Src/Main/Action.c **** 						SetStackNum(n);
 109:Core/Src/Main/Action.c **** 						break;
ARM GAS  C:\Users\leopi\AppData\Local\Temp\ccNfTY3A.s 			page 6


 110:Core/Src/Main/Action.c **** 					} //0,0åº§æ¨™ã«ã¶ã¤ã‹ã£ãŸã‚‰ã€trueãªã®ã§æ¬¡ã«è¡Œã£ã¦ã—ã¾ã†. 0ãªã‚‰åˆ¥ãƒ«ãƒ¼ãƒ
 111:Core/Src/Main/Action.c **** 					else if(is_first == true){
 112:Core/Src/Main/Action.c **** 						--n;
 113:Core/Src/Main/Action.c **** 						SetStackNum(n); //0ã«ãªã£ãŸã‚‰
 114:Core/Src/Main/Action.c **** 					}
 115:Core/Src/Main/Action.c **** 					//è¨ªå•æ¸ˆã¿ã§ã‚ã‚Œã°æ›´ã«ä¸‹ã‚’èª­ã‚€
 116:Core/Src/Main/Action.c **** 				}
 117:Core/Src/Main/Action.c **** 			}
 118:Core/Src/Main/Action.c **** 
 119:Core/Src/Main/Action.c **** 		}//åˆ°é”ã—ã¦ã„ãªã‘ã‚Œã°ã€ãã®ã¾ã¾æœ€çŸ­ã§target.posã«å‘ã‹ã†
 120:Core/Src/Main/Action.c **** 	}
 121:Core/Src/Main/Action.c **** 	//å£ã®å­˜åœ¨ã‚’åŸºã«é‡ã¿ãƒžãƒƒãƒ—ã‚’æ›´æ–°
 122:Core/Src/Main/Action.c **** 	updateAllNodeWeight(maze, &(mouse->target_pos), &(mouse->target_size), WALL_MASK);
 163              		.loc 1 122 2 is_stmt 1 view .LVU35
 164 00b4 7B4B     		ldr	r3, .L24+12
 165 00b6 1B68     		ldr	r3, [r3]
 166 00b8 A21C     		adds	r2, r4, #2
 167 00ba 2146     		mov	r1, r4
 168 00bc 3046     		mov	r0, r6
 169 00be FFF7FEFF 		bl	updateAllNodeWeight
 170              	.LVL8:
 123:Core/Src/Main/Action.c **** }
 171              		.loc 1 123 1 is_stmt 0 view .LVU36
 172 00c2 05B0     		add	sp, sp, #20
 173              	.LCFI2:
 174              		.cfi_remember_state
 175              		.cfi_def_cfa_offset 20
 176              		@ sp needed
 177 00c4 F0BD     		pop	{r4, r5, r6, r7, pc}
 178              	.LVL9:
 179              	.L6:
 180              	.LCFI3:
 181              		.cfi_restore_state
  50:Core/Src/Main/Action.c ****     	wall_dir.south = photo[SIDE_R] > RIGHT_WALL  ?  WALL :  NOWALL;
 182              		.loc 1 50 6 is_stmt 1 view .LVU37
  50:Core/Src/Main/Action.c ****     	wall_dir.south = photo[SIDE_R] > RIGHT_WALL  ?  WALL :  NOWALL;
 183              		.loc 1 50 29 is_stmt 0 view .LVU38
 184 00c6 D5ED007A 		vldr.32	s15, [r5]
  50:Core/Src/Main/Action.c ****     	wall_dir.south = photo[SIDE_R] > RIGHT_WALL  ?  WALL :  NOWALL;
 185              		.loc 1 50 41 view .LVU39
 186 00ca 95ED037A 		vldr.32	s14, [r5, #12]
  50:Core/Src/Main/Action.c ****     	wall_dir.south = photo[SIDE_R] > RIGHT_WALL  ?  WALL :  NOWALL;
 187              		.loc 1 50 34 view .LVU40
 188 00ce 77EE877A 		vadd.f32	s15, s15, s14
  50:Core/Src/Main/Action.c ****     	wall_dir.south = photo[SIDE_R] > RIGHT_WALL  ?  WALL :  NOWALL;
 189              		.loc 1 50 46 view .LVU41
 190 00d2 B6EE007A 		vmov.f32	s14, #5.0e-1
 191 00d6 67EE877A 		vmul.f32	s15, s15, s14
  50:Core/Src/Main/Action.c ****     	wall_dir.south = photo[SIDE_R] > RIGHT_WALL  ?  WALL :  NOWALL;
 192              		.loc 1 50 76 view .LVU42
 193 00da 9FED6F7A 		vldr.32	s14, .L24
 194 00de F4EEC77A 		vcmpe.f32	s15, s14
 195 00e2 F1EE10FA 		vmrs	APSR_nzcv, FPSCR
 196 00e6 CCBF     		ite	gt
 197 00e8 0123     		movgt	r3, #1
 198 00ea 0023     		movle	r3, #0
  50:Core/Src/Main/Action.c ****     	wall_dir.south = photo[SIDE_R] > RIGHT_WALL  ?  WALL :  NOWALL;
ARM GAS  C:\Users\leopi\AppData\Local\Temp\ccNfTY3A.s 			page 7


 199              		.loc 1 50 20 view .LVU43
 200 00ec 4FF00007 		mov	r7, #0
  50:Core/Src/Main/Action.c ****     	wall_dir.south = photo[SIDE_R] > RIGHT_WALL  ?  WALL :  NOWALL;
 201              		.loc 1 50 20 view .LVU44
 202 00f0 63F38307 		bfi	r7, r3, #2, #2
 203              	.LVL10:
  51:Core/Src/Main/Action.c ****     	wall_dir.west = NOWALL;
 204              		.loc 1 51 6 is_stmt 1 view .LVU45
  51:Core/Src/Main/Action.c ****     	wall_dir.west = NOWALL;
 205              		.loc 1 51 28 is_stmt 0 view .LVU46
 206 00f4 95ED017A 		vldr.32	s14, [r5, #4]
  51:Core/Src/Main/Action.c ****     	wall_dir.west = NOWALL;
 207              		.loc 1 51 59 view .LVU47
 208 00f8 DFED687A 		vldr.32	s15, .L24+4
 209 00fc B4EEE77A 		vcmpe.f32	s14, s15
 210 0100 F1EE10FA 		vmrs	APSR_nzcv, FPSCR
 211 0104 CCBF     		ite	gt
 212 0106 0123     		movgt	r3, #1
 213 0108 0023     		movle	r3, #0
  51:Core/Src/Main/Action.c ****     	wall_dir.west = NOWALL;
 214              		.loc 1 51 21 view .LVU48
 215 010a 63F30517 		bfi	r7, r3, #4, #2
  52:Core/Src/Main/Action.c ****     	wall_dir.north = photo[SL] > LEFT_WALL ?  WALL :  NOWALL;
 216              		.loc 1 52 6 is_stmt 1 view .LVU49
  52:Core/Src/Main/Action.c ****     	wall_dir.north = photo[SL] > LEFT_WALL ?  WALL :  NOWALL;
 217              		.loc 1 52 20 is_stmt 0 view .LVU50
 218 010e 6FF38717 		bfc	r7, #6, #2
  53:Core/Src/Main/Action.c ****         break;
 219              		.loc 1 53 6 is_stmt 1 view .LVU51
  53:Core/Src/Main/Action.c ****         break;
 220              		.loc 1 53 28 is_stmt 0 view .LVU52
 221 0112 95ED027A 		vldr.32	s14, [r5, #8]
  53:Core/Src/Main/Action.c ****         break;
 222              		.loc 1 53 53 view .LVU53
 223 0116 DFED627A 		vldr.32	s15, .L24+8
 224 011a B4EEE77A 		vcmpe.f32	s14, s15
 225 011e F1EE10FA 		vmrs	APSR_nzcv, FPSCR
 226 0122 CCBF     		ite	gt
 227 0124 0123     		movgt	r3, #1
 228 0126 0023     		movle	r3, #0
  53:Core/Src/Main/Action.c ****         break;
 229              		.loc 1 53 21 view .LVU54
 230 0128 63F30107 		bfi	r7, r3, #0, #2
  54:Core/Src/Main/Action.c ****     case south:
 231              		.loc 1 54 9 is_stmt 1 view .LVU55
 232 012c B0E7     		b	.L2
 233              	.LVL11:
 234              	.L5:
  56:Core/Src/Main/Action.c ****     	wall_dir.west = photo[SIDE_R] > RIGHT_WALL  ?  WALL :  NOWALL;
 235              		.loc 1 56 6 view .LVU56
  56:Core/Src/Main/Action.c ****     	wall_dir.west = photo[SIDE_R] > RIGHT_WALL  ?  WALL :  NOWALL;
 236              		.loc 1 56 30 is_stmt 0 view .LVU57
 237 012e D5ED007A 		vldr.32	s15, [r5]
  56:Core/Src/Main/Action.c ****     	wall_dir.west = photo[SIDE_R] > RIGHT_WALL  ?  WALL :  NOWALL;
 238              		.loc 1 56 42 view .LVU58
 239 0132 95ED037A 		vldr.32	s14, [r5, #12]
  56:Core/Src/Main/Action.c ****     	wall_dir.west = photo[SIDE_R] > RIGHT_WALL  ?  WALL :  NOWALL;
ARM GAS  C:\Users\leopi\AppData\Local\Temp\ccNfTY3A.s 			page 8


 240              		.loc 1 56 35 view .LVU59
 241 0136 77EE877A 		vadd.f32	s15, s15, s14
  56:Core/Src/Main/Action.c ****     	wall_dir.west = photo[SIDE_R] > RIGHT_WALL  ?  WALL :  NOWALL;
 242              		.loc 1 56 47 view .LVU60
 243 013a B6EE007A 		vmov.f32	s14, #5.0e-1
 244 013e 67EE877A 		vmul.f32	s15, s15, s14
  56:Core/Src/Main/Action.c ****     	wall_dir.west = photo[SIDE_R] > RIGHT_WALL  ?  WALL :  NOWALL;
 245              		.loc 1 56 77 view .LVU61
 246 0142 9FED557A 		vldr.32	s14, .L24
 247 0146 F4EEC77A 		vcmpe.f32	s15, s14
 248 014a F1EE10FA 		vmrs	APSR_nzcv, FPSCR
 249 014e CCBF     		ite	gt
 250 0150 0123     		movgt	r3, #1
 251 0152 0023     		movle	r3, #0
  56:Core/Src/Main/Action.c ****     	wall_dir.west = photo[SIDE_R] > RIGHT_WALL  ?  WALL :  NOWALL;
 252              		.loc 1 56 21 view .LVU62
 253 0154 4FF00007 		mov	r7, #0
  56:Core/Src/Main/Action.c ****     	wall_dir.west = photo[SIDE_R] > RIGHT_WALL  ?  WALL :  NOWALL;
 254              		.loc 1 56 21 view .LVU63
 255 0158 63F30517 		bfi	r7, r3, #4, #2
 256              	.LVL12:
  57:Core/Src/Main/Action.c ****     	wall_dir.north = NOWALL;
 257              		.loc 1 57 6 is_stmt 1 view .LVU64
  57:Core/Src/Main/Action.c ****     	wall_dir.north = NOWALL;
 258              		.loc 1 57 27 is_stmt 0 view .LVU65
 259 015c 95ED017A 		vldr.32	s14, [r5, #4]
  57:Core/Src/Main/Action.c ****     	wall_dir.north = NOWALL;
 260              		.loc 1 57 58 view .LVU66
 261 0160 DFED4E7A 		vldr.32	s15, .L24+4
 262 0164 B4EEE77A 		vcmpe.f32	s14, s15
 263 0168 F1EE10FA 		vmrs	APSR_nzcv, FPSCR
 264 016c CCBF     		ite	gt
 265 016e 0123     		movgt	r3, #1
 266 0170 0023     		movle	r3, #0
  57:Core/Src/Main/Action.c ****     	wall_dir.north = NOWALL;
 267              		.loc 1 57 20 view .LVU67
 268 0172 63F38717 		bfi	r7, r3, #6, #2
  58:Core/Src/Main/Action.c ****     	wall_dir.east = photo[SL] > LEFT_WALL ?  WALL :  NOWALL;
 269              		.loc 1 58 6 is_stmt 1 view .LVU68
  58:Core/Src/Main/Action.c ****     	wall_dir.east = photo[SL] > LEFT_WALL ?  WALL :  NOWALL;
 270              		.loc 1 58 21 is_stmt 0 view .LVU69
 271 0176 6FF30107 		bfc	r7, #0, #2
  59:Core/Src/Main/Action.c ****         break;
 272              		.loc 1 59 6 is_stmt 1 view .LVU70
  59:Core/Src/Main/Action.c ****         break;
 273              		.loc 1 59 27 is_stmt 0 view .LVU71
 274 017a 95ED027A 		vldr.32	s14, [r5, #8]
  59:Core/Src/Main/Action.c ****         break;
 275              		.loc 1 59 52 view .LVU72
 276 017e DFED487A 		vldr.32	s15, .L24+8
 277 0182 B4EEE77A 		vcmpe.f32	s14, s15
 278 0186 F1EE10FA 		vmrs	APSR_nzcv, FPSCR
 279 018a CCBF     		ite	gt
 280 018c 0123     		movgt	r3, #1
 281 018e 0023     		movle	r3, #0
  59:Core/Src/Main/Action.c ****         break;
 282              		.loc 1 59 20 view .LVU73
ARM GAS  C:\Users\leopi\AppData\Local\Temp\ccNfTY3A.s 			page 9


 283 0190 63F38307 		bfi	r7, r3, #2, #2
  60:Core/Src/Main/Action.c ****     case west:
 284              		.loc 1 60 9 is_stmt 1 view .LVU74
 285 0194 7CE7     		b	.L2
 286              	.LVL13:
 287              	.L3:
  62:Core/Src/Main/Action.c ****     	wall_dir.north = photo[SIDE_R] > RIGHT_WALL  ?  WALL :  NOWALL;
 288              		.loc 1 62 6 view .LVU75
  62:Core/Src/Main/Action.c ****     	wall_dir.north = photo[SIDE_R] > RIGHT_WALL  ?  WALL :  NOWALL;
 289              		.loc 1 62 29 is_stmt 0 view .LVU76
 290 0196 D5ED007A 		vldr.32	s15, [r5]
  62:Core/Src/Main/Action.c ****     	wall_dir.north = photo[SIDE_R] > RIGHT_WALL  ?  WALL :  NOWALL;
 291              		.loc 1 62 41 view .LVU77
 292 019a 95ED037A 		vldr.32	s14, [r5, #12]
  62:Core/Src/Main/Action.c ****     	wall_dir.north = photo[SIDE_R] > RIGHT_WALL  ?  WALL :  NOWALL;
 293              		.loc 1 62 34 view .LVU78
 294 019e 77EE877A 		vadd.f32	s15, s15, s14
  62:Core/Src/Main/Action.c ****     	wall_dir.north = photo[SIDE_R] > RIGHT_WALL  ?  WALL :  NOWALL;
 295              		.loc 1 62 46 view .LVU79
 296 01a2 B6EE007A 		vmov.f32	s14, #5.0e-1
 297 01a6 67EE877A 		vmul.f32	s15, s15, s14
  62:Core/Src/Main/Action.c ****     	wall_dir.north = photo[SIDE_R] > RIGHT_WALL  ?  WALL :  NOWALL;
 298              		.loc 1 62 76 view .LVU80
 299 01aa 9FED3B7A 		vldr.32	s14, .L24
 300 01ae F4EEC77A 		vcmpe.f32	s15, s14
 301 01b2 F1EE10FA 		vmrs	APSR_nzcv, FPSCR
 302 01b6 CCBF     		ite	gt
 303 01b8 0123     		movgt	r3, #1
 304 01ba 0023     		movle	r3, #0
  62:Core/Src/Main/Action.c ****     	wall_dir.north = photo[SIDE_R] > RIGHT_WALL  ?  WALL :  NOWALL;
 305              		.loc 1 62 20 view .LVU81
 306 01bc 4FF00007 		mov	r7, #0
  62:Core/Src/Main/Action.c ****     	wall_dir.north = photo[SIDE_R] > RIGHT_WALL  ?  WALL :  NOWALL;
 307              		.loc 1 62 20 view .LVU82
 308 01c0 63F38717 		bfi	r7, r3, #6, #2
 309              	.LVL14:
  63:Core/Src/Main/Action.c ****     	wall_dir.east = NOWALL;
 310              		.loc 1 63 6 is_stmt 1 view .LVU83
  63:Core/Src/Main/Action.c ****     	wall_dir.east = NOWALL;
 311              		.loc 1 63 28 is_stmt 0 view .LVU84
 312 01c4 95ED017A 		vldr.32	s14, [r5, #4]
  63:Core/Src/Main/Action.c ****     	wall_dir.east = NOWALL;
 313              		.loc 1 63 59 view .LVU85
 314 01c8 DFED347A 		vldr.32	s15, .L24+4
 315 01cc B4EEE77A 		vcmpe.f32	s14, s15
 316 01d0 F1EE10FA 		vmrs	APSR_nzcv, FPSCR
 317 01d4 CCBF     		ite	gt
 318 01d6 0123     		movgt	r3, #1
 319 01d8 0023     		movle	r3, #0
  63:Core/Src/Main/Action.c ****     	wall_dir.east = NOWALL;
 320              		.loc 1 63 21 view .LVU86
 321 01da 63F30107 		bfi	r7, r3, #0, #2
  64:Core/Src/Main/Action.c ****     	wall_dir.south = photo[SL] > LEFT_WALL ?  WALL :  NOWALL;
 322              		.loc 1 64 6 is_stmt 1 view .LVU87
  64:Core/Src/Main/Action.c ****     	wall_dir.south = photo[SL] > LEFT_WALL ?  WALL :  NOWALL;
 323              		.loc 1 64 20 is_stmt 0 view .LVU88
 324 01de 6FF38307 		bfc	r7, #2, #2
ARM GAS  C:\Users\leopi\AppData\Local\Temp\ccNfTY3A.s 			page 10


  65:Core/Src/Main/Action.c ****         break;
 325              		.loc 1 65 6 is_stmt 1 view .LVU89
  65:Core/Src/Main/Action.c ****         break;
 326              		.loc 1 65 28 is_stmt 0 view .LVU90
 327 01e2 95ED027A 		vldr.32	s14, [r5, #8]
  65:Core/Src/Main/Action.c ****         break;
 328              		.loc 1 65 53 view .LVU91
 329 01e6 DFED2E7A 		vldr.32	s15, .L24+8
 330 01ea B4EEE77A 		vcmpe.f32	s14, s15
 331 01ee F1EE10FA 		vmrs	APSR_nzcv, FPSCR
 332 01f2 CCBF     		ite	gt
 333 01f4 0123     		movgt	r3, #1
 334 01f6 0023     		movle	r3, #0
  65:Core/Src/Main/Action.c ****         break;
 335              		.loc 1 65 21 view .LVU92
 336 01f8 63F30517 		bfi	r7, r3, #4, #2
  66:Core/Src/Main/Action.c ****     default:
 337              		.loc 1 66 9 is_stmt 1 view .LVU93
 338 01fc 48E7     		b	.L2
 339              	.L20:
  77:Core/Src/Main/Action.c **** 			position target_size = {1,1};
 340              		.loc 1 77 3 view .LVU94
  77:Core/Src/Main/Action.c **** 			position target_size = {1,1};
 341              		.loc 1 77 6 is_stmt 0 view .LVU95
 342 01fe 211D     		adds	r1, r4, #4
 343 0200 2046     		mov	r0, r4
 344 0202 FFF7FEFF 		bl	ComparePosition
 345              	.LVL15:
  77:Core/Src/Main/Action.c **** 			position target_size = {1,1};
 346              		.loc 1 77 5 view .LVU96
 347 0206 30B9     		cbnz	r0, .L9
  77:Core/Src/Main/Action.c **** 			position target_size = {1,1};
 348              		.loc 1 77 66 discriminator 1 view .LVU97
 349 0208 03A9     		add	r1, sp, #12
 350 020a 2046     		mov	r0, r4
 351 020c FFF7FEFF 		bl	ComparePosition
 352              	.LVL16:
  77:Core/Src/Main/Action.c **** 			position target_size = {1,1};
 353              		.loc 1 77 63 discriminator 1 view .LVU98
 354 0210 0028     		cmp	r0, #0
 355 0212 3FF44FAF 		beq	.L8
 356              	.L9:
 357              	.LBB2:
  78:Core/Src/Main/Action.c **** 			mouse->target_size = target_size;
 358              		.loc 1 78 4 is_stmt 1 view .LVU99
  78:Core/Src/Main/Action.c **** 			mouse->target_size = target_size;
 359              		.loc 1 78 13 is_stmt 0 view .LVU100
 360 0216 244B     		ldr	r3, .L24+16
 361 0218 1B88     		ldrh	r3, [r3]
 362 021a ADF80430 		strh	r3, [sp, #4]	@ movhi
  79:Core/Src/Main/Action.c **** 			_Bool stacked_one_or_more = StackMass(maze, &(mouse->now)); //ä½•ã‚‚ç©ã‚“ã§ã„ãªã„ã‹ã©ã†ã
 363              		.loc 1 79 4 is_stmt 1 view .LVU101
  79:Core/Src/Main/Action.c **** 			_Bool stacked_one_or_more = StackMass(maze, &(mouse->now)); //ä½•ã‚‚ç©ã‚“ã§ã„ãªã„ã‹ã©ã†ã
 364              		.loc 1 79 23 is_stmt 0 view .LVU102
 365 021e 6380     		strh	r3, [r4, #2]	@ movhi
  80:Core/Src/Main/Action.c **** 			if(stacked_one_or_more == 0) printf("ã‚¹ã‚¿ãƒƒã‚¯ãŒç„¡ã„\r\n");//ChangeLED(7);
 366              		.loc 1 80 4 is_stmt 1 view .LVU103
ARM GAS  C:\Users\leopi\AppData\Local\Temp\ccNfTY3A.s 			page 11


  80:Core/Src/Main/Action.c **** 			if(stacked_one_or_more == 0) printf("ã‚¹ã‚¿ãƒƒã‚¯ãŒç„¡ã„\r\n");//ChangeLED(7);
 367              		.loc 1 80 32 is_stmt 0 view .LVU104
 368 0220 211D     		adds	r1, r4, #4
 369 0222 3046     		mov	r0, r6
 370 0224 FFF7FEFF 		bl	StackMass
 371              	.LVL17:
  81:Core/Src/Main/Action.c **** 			else printf("ã‚¹ã‚¿ãƒƒã‚¯ãŒä½•ã‹ã—ã‚‰ã‚ã‚‹\r\n");//ChangeLED(0);
 372              		.loc 1 81 4 is_stmt 1 view .LVU105
  81:Core/Src/Main/Action.c **** 			else printf("ã‚¹ã‚¿ãƒƒã‚¯ãŒä½•ã‹ã—ã‚‰ã‚ã‚‹\r\n");//ChangeLED(0);
 373              		.loc 1 81 6 is_stmt 0 view .LVU106
 374 0228 C8B9     		cbnz	r0, .L10
  81:Core/Src/Main/Action.c **** 			else printf("ã‚¹ã‚¿ãƒƒã‚¯ãŒä½•ã‹ã—ã‚‰ã‚ã‚‹\r\n");//ChangeLED(0);
 375              		.loc 1 81 33 is_stmt 1 discriminator 1 view .LVU107
 376 022a 2048     		ldr	r0, .L24+20
 377              	.LVL18:
  81:Core/Src/Main/Action.c **** 			else printf("ã‚¹ã‚¿ãƒƒã‚¯ãŒä½•ã‹ã—ã‚‰ã‚ã‚‹\r\n");//ChangeLED(0);
 378              		.loc 1 81 33 is_stmt 0 discriminator 1 view .LVU108
 379 022c FFF7FEFF 		bl	puts
 380              	.LVL19:
 381              	.L11:
  84:Core/Src/Main/Action.c **** 
 382              		.loc 1 84 4 is_stmt 1 view .LVU109
  84:Core/Src/Main/Action.c **** 
 383              		.loc 1 84 12 is_stmt 0 view .LVU110
 384 0230 FFF7FEFF 		bl	GetStackNum
 385              	.LVL20:
  87:Core/Src/Main/Action.c **** 				WALL_MASK = 0x01;
 386              		.loc 1 87 4 is_stmt 1 view .LVU111
  87:Core/Src/Main/Action.c **** 				WALL_MASK = 0x01;
 387              		.loc 1 87 6 is_stmt 0 view .LVU112
 388 0234 0546     		mov	r5, r0
 389              	.LVL21:
  87:Core/Src/Main/Action.c **** 				WALL_MASK = 0x01;
 390              		.loc 1 87 6 view .LVU113
 391 0236 B0B1     		cbz	r0, .L21
 392              	.LBB3:
  93:Core/Src/Main/Action.c **** 				position pos;
 393              		.loc 1 93 5 is_stmt 1 view .LVU114
  93:Core/Src/Main/Action.c **** 				position pos;
 394              		.loc 1 93 15 is_stmt 0 view .LVU115
 395 0238 1A4B     		ldr	r3, .L24+12
 396 023a 0122     		movs	r2, #1
 397 023c 1A60     		str	r2, [r3]
  94:Core/Src/Main/Action.c **** 				_Bool is_first = false;
 398              		.loc 1 94 5 is_stmt 1 view .LVU116
  95:Core/Src/Main/Action.c **** 				while( 1 ){
 399              		.loc 1 95 5 view .LVU117
 400              	.LVL22:
 401              	.L17:
  96:Core/Src/Main/Action.c **** 					pos = GetStackMass();
 402              		.loc 1 96 5 view .LVU118
  97:Core/Src/Main/Action.c **** 					is_first = GetVisited(&(pos)); //0ãªã‚‰æœªè¨ªå•
 403              		.loc 1 97 6 view .LVU119
  97:Core/Src/Main/Action.c **** 					is_first = GetVisited(&(pos)); //0ãªã‚‰æœªè¨ªå•
 404              		.loc 1 97 12 is_stmt 0 view .LVU120
 405 023e FFF7FEFF 		bl	GetStackMass
 406              	.LVL23:
ARM GAS  C:\Users\leopi\AppData\Local\Temp\ccNfTY3A.s 			page 12


 407 0242 ADF80800 		strh	r0, [sp, #8]	@ movhi
  98:Core/Src/Main/Action.c **** 					if(n == 0){
 408              		.loc 1 98 6 is_stmt 1 view .LVU121
  98:Core/Src/Main/Action.c **** 					if(n == 0){
 409              		.loc 1 98 17 is_stmt 0 view .LVU122
 410 0246 02A8     		add	r0, sp, #8
 411 0248 FFF7FEFF 		bl	GetVisited
 412              	.LVL24:
  99:Core/Src/Main/Action.c **** 						mouse->target_pos = pos;
 413              		.loc 1 99 6 is_stmt 1 view .LVU123
  99:Core/Src/Main/Action.c **** 						mouse->target_pos = pos;
 414              		.loc 1 99 8 is_stmt 0 view .LVU124
 415 024c ADB1     		cbz	r5, .L22
 104:Core/Src/Main/Action.c **** 
 416              		.loc 1 104 11 is_stmt 1 view .LVU125
 104:Core/Src/Main/Action.c **** 
 417              		.loc 1 104 13 is_stmt 0 view .LVU126
 418 024e D8B1     		cbz	r0, .L23
 111:Core/Src/Main/Action.c **** 						--n;
 419              		.loc 1 111 11 is_stmt 1 view .LVU127
 111:Core/Src/Main/Action.c **** 						--n;
 420              		.loc 1 111 13 is_stmt 0 view .LVU128
 421 0250 0028     		cmp	r0, #0
 422 0252 F4D0     		beq	.L17
 112:Core/Src/Main/Action.c **** 						SetStackNum(n); //0ã«ãªã£ãŸã‚‰
 423              		.loc 1 112 7 is_stmt 1 view .LVU129
 424 0254 013D     		subs	r5, r5, #1
 425              	.LVL25:
 113:Core/Src/Main/Action.c **** 					}
 426              		.loc 1 113 7 view .LVU130
 427 0256 2846     		mov	r0, r5
 428              	.LVL26:
 113:Core/Src/Main/Action.c **** 					}
 429              		.loc 1 113 7 is_stmt 0 view .LVU131
 430 0258 FFF7FEFF 		bl	SetStackNum
 431              	.LVL27:
 432 025c EFE7     		b	.L17
 433              	.LVL28:
 434              	.L10:
 113:Core/Src/Main/Action.c **** 					}
 435              		.loc 1 113 7 view .LVU132
 436              	.LBE3:
  82:Core/Src/Main/Action.c **** 
 437              		.loc 1 82 9 is_stmt 1 view .LVU133
 438 025e 1448     		ldr	r0, .L24+24
 439              	.LVL29:
  82:Core/Src/Main/Action.c **** 
 440              		.loc 1 82 9 is_stmt 0 view .LVU134
 441 0260 FFF7FEFF 		bl	puts
 442              	.LVL30:
 443 0264 E4E7     		b	.L11
 444              	.LVL31:
 445              	.L21:
  88:Core/Src/Main/Action.c **** 				mouse->target_pos = GetStackMass(); //ã‚«ã‚¦ãƒ³ãƒˆã¯æ¸›ã‚‰ã•ãªã„ n = 0ã®ã¾ã¾
 446              		.loc 1 88 5 is_stmt 1 view .LVU135
  88:Core/Src/Main/Action.c **** 				mouse->target_pos = GetStackMass(); //ã‚«ã‚¦ãƒ³ãƒˆã¯æ¸›ã‚‰ã•ãªã„ n = 0ã®ã¾ã¾
 447              		.loc 1 88 15 is_stmt 0 view .LVU136
ARM GAS  C:\Users\leopi\AppData\Local\Temp\ccNfTY3A.s 			page 13


 448 0266 0F4B     		ldr	r3, .L24+12
 449 0268 0122     		movs	r2, #1
 450 026a 1A60     		str	r2, [r3]
  89:Core/Src/Main/Action.c **** 				SetStackNum(n);
 451              		.loc 1 89 5 is_stmt 1 view .LVU137
  89:Core/Src/Main/Action.c **** 				SetStackNum(n);
 452              		.loc 1 89 25 is_stmt 0 view .LVU138
 453 026c FFF7FEFF 		bl	GetStackMass
 454              	.LVL32:
  89:Core/Src/Main/Action.c **** 				SetStackNum(n);
 455              		.loc 1 89 25 view .LVU139
 456 0270 2080     		strh	r0, [r4]	@ movhi
  90:Core/Src/Main/Action.c **** 			}//0ä»¥å¤–ãªã‚‰é€šå¸¸é€šã‚Š
 457              		.loc 1 90 5 is_stmt 1 view .LVU140
 458 0272 2846     		mov	r0, r5
 459 0274 FFF7FEFF 		bl	SetStackNum
 460              	.LVL33:
 461 0278 1CE7     		b	.L8
 462              	.LVL34:
 463              	.L22:
 464              	.LBB4:
 100:Core/Src/Main/Action.c **** 						printf("æœªè¨ªå•\r\n");
 465              		.loc 1 100 7 view .LVU141
 100:Core/Src/Main/Action.c **** 						printf("æœªè¨ªå•\r\n");
 466              		.loc 1 100 25 is_stmt 0 view .LVU142
 467 027a BDF80830 		ldrh	r3, [sp, #8]
 468 027e 2380     		strh	r3, [r4]	@ movhi
 101:Core/Src/Main/Action.c **** 						break;
 469              		.loc 1 101 7 is_stmt 1 view .LVU143
 470 0280 0C48     		ldr	r0, .L24+28
 471              	.LVL35:
 101:Core/Src/Main/Action.c **** 						break;
 472              		.loc 1 101 7 is_stmt 0 view .LVU144
 473 0282 FFF7FEFF 		bl	puts
 474              	.LVL36:
 102:Core/Src/Main/Action.c **** 					}
 475              		.loc 1 102 7 is_stmt 1 view .LVU145
 476 0286 15E7     		b	.L8
 477              	.LVL37:
 478              	.L23:
 106:Core/Src/Main/Action.c **** 						--n;
 479              		.loc 1 106 7 view .LVU146
 106:Core/Src/Main/Action.c **** 						--n;
 480              		.loc 1 106 25 is_stmt 0 view .LVU147
 481 0288 BDF80830 		ldrh	r3, [sp, #8]
 482 028c 2380     		strh	r3, [r4]	@ movhi
 107:Core/Src/Main/Action.c **** 						SetStackNum(n);
 483              		.loc 1 107 7 is_stmt 1 view .LVU148
 484              	.LVL38:
 108:Core/Src/Main/Action.c **** 						break;
 485              		.loc 1 108 7 view .LVU149
 486 028e 681E     		subs	r0, r5, #1
 487              	.LVL39:
 108:Core/Src/Main/Action.c **** 						break;
 488              		.loc 1 108 7 is_stmt 0 view .LVU150
 489 0290 FFF7FEFF 		bl	SetStackNum
 490              	.LVL40:
ARM GAS  C:\Users\leopi\AppData\Local\Temp\ccNfTY3A.s 			page 14


 109:Core/Src/Main/Action.c **** 					} //0,0åº§æ¨™ã«ã¶ã¤ã‹ã£ãŸã‚‰ã€trueãªã®ã§æ¬¡ã«è¡Œã£ã¦ã—ã¾ã†. 0ãªã‚‰åˆ¥ãƒ«ãƒ¼ãƒ
 491              		.loc 1 109 7 is_stmt 1 view .LVU151
 492 0294 0EE7     		b	.L8
 493              	.L25:
 494 0296 00BF     		.align	2
 495              	.L24:
 496 0298 00004842 		.word	1112014848
 497 029c 0000B442 		.word	1119092736
 498 02a0 0000C842 		.word	1120403456
 499 02a4 00000000 		.word	WALL_MASK
 500 02a8 00000000 		.word	.LANCHOR0
 501 02ac 00000000 		.word	.LC2
 502 02b0 18000000 		.word	.LC3
 503 02b4 3C000000 		.word	.LC4
 504              	.LBE4:
 505              	.LBE2:
 506              		.cfi_endproc
 507              	.LFE238:
 509              		.section	.text.GetWallCtrlDirection,"ax",%progbits
 510              		.align	1
 511              		.global	GetWallCtrlDirection
 512              		.syntax unified
 513              		.thumb
 514              		.thumb_func
 516              	GetWallCtrlDirection:
 517              	.LVL41:
 518              	.LFB240:
 124:Core/Src/Main/Action.c **** #if 1
 125:Core/Src/Main/Action.c **** 
 126:Core/Src/Main/Action.c **** void readActionCommand(maze_node *maze, profile *Mouse, char turn_mode, int mask){
 127:Core/Src/Main/Action.c **** 	//æ—¢çŸ¥åŒºé–“åŠ é€Ÿã“ã®switchæ–‡ä¸­ã§æ›¸ã
 128:Core/Src/Main/Action.c **** 	AddVelocity = 0;
 129:Core/Src/Main/Action.c **** 	
 130:Core/Src/Main/Action.c **** 	_Bool accel_or_not = false;
 131:Core/Src/Main/Action.c **** 	int accel_or_decel = 0;
 132:Core/Src/Main/Action.c **** 	switch(Mouse->now.dir%8) //æ¬¡ã®é€²è¡Œæ–¹å‘ã‹ã‚‰ã‚¢ã‚¯ã‚·ãƒ§ãƒ³ã‚’é¸æŠž
 133:Core/Src/Main/Action.c **** 	{
 134:Core/Src/Main/Action.c **** 	case front:
 135:Core/Src/Main/Action.c **** 		//ç›´é€²å¾Œã®é¸æŠžè‚¢ã‚‚è¦‹ã¦ãŠã
 136:Core/Src/Main/Action.c **** 		accel_or_not = judgeAccelorNot(maze, Mouse->next.car, Mouse->next.node);
 137:Core/Src/Main/Action.c **** 
 138:Core/Src/Main/Action.c **** 		//æ¬¡ã®ãƒŽãƒ¼ãƒ‰ã‚’ç¾åœ¨ãƒŽãƒ¼ãƒ‰ã¨ã—ã¦ã€ãƒŽãƒ¼ãƒ‰ã®å€™è£œãŒã™ã¹ã¦æ—¢çŸ¥ã‹ã©ã†ã‹.ã
 139:Core/Src/Main/Action.c **** 		if(accel_or_not == true) //æ—¢çŸ¥ã§.ç›´é€²
 140:Core/Src/Main/Action.c **** 		{
 141:Core/Src/Main/Action.c **** 			//åŠ é€Ÿã‹ãã®ã¾ã¾.
 142:Core/Src/Main/Action.c **** 			//ç¾åœ¨é€Ÿåº¦ãŒãƒžãƒƒã‚¯ã‚¹ã‹ã©ã†ã‹
 143:Core/Src/Main/Action.c **** 			if(VelocityMax == true)
 144:Core/Src/Main/Action.c **** 			{
 145:Core/Src/Main/Action.c **** 				accel_or_decel = 0; //ãã®ã¾ã¾
 146:Core/Src/Main/Action.c **** 				AddVelocity = ExploreVelocity*1.5f;
 147:Core/Src/Main/Action.c **** //				ChangeLED(0);
 148:Core/Src/Main/Action.c **** 			}
 149:Core/Src/Main/Action.c **** 			else
 150:Core/Src/Main/Action.c **** 			{
 151:Core/Src/Main/Action.c **** 				accel_or_decel = 1; //åŠ é€Ÿ
 152:Core/Src/Main/Action.c **** 				AddVelocity = ExploreVelocity*1.5f;
 153:Core/Src/Main/Action.c **** //				ChangeLED(7);
ARM GAS  C:\Users\leopi\AppData\Local\Temp\ccNfTY3A.s 			page 15


 154:Core/Src/Main/Action.c **** 			}
 155:Core/Src/Main/Action.c **** 		}
 156:Core/Src/Main/Action.c **** 		else
 157:Core/Src/Main/Action.c **** 		{
 158:Core/Src/Main/Action.c **** 			//æœªçŸ¥ã‚‚ã—ãã¯ã€æ—¢çŸ¥ã§ã‚‚ç›´é€²ã§ç„¡ã‘ã‚Œã°.æ¸›é€Ÿã‹ãã®ã¾ã¾
 159:Core/Src/Main/Action.c **** 			//ç¾åœ¨é€Ÿåº¦ãŒãƒžãƒƒã‚¯ã‚¹ã‹ã©ã†ã‹
 160:Core/Src/Main/Action.c **** 			if(VelocityMax == true)
 161:Core/Src/Main/Action.c **** 			{
 162:Core/Src/Main/Action.c **** 				accel_or_decel = -1; //æ¸›é€Ÿ
 163:Core/Src/Main/Action.c **** 				static int cnt = 1;
 164:Core/Src/Main/Action.c **** //				ChangeLED(cnt);
 165:Core/Src/Main/Action.c **** 				cnt += 2;
 166:Core/Src/Main/Action.c **** 				AddVelocity = 0;
 167:Core/Src/Main/Action.c **** 			}
 168:Core/Src/Main/Action.c **** 			else //ãƒžãƒƒã‚¯ã‚¹ã§ãªã„
 169:Core/Src/Main/Action.c **** 			{
 170:Core/Src/Main/Action.c **** 				accel_or_decel = 0; //ãã®ã¾ã¾
 171:Core/Src/Main/Action.c **** 				AddVelocity = 0;
 172:Core/Src/Main/Action.c **** //				ChangeLED(2);
 173:Core/Src/Main/Action.c **** 			}
 174:Core/Src/Main/Action.c **** 		}
 175:Core/Src/Main/Action.c **** 		Calc = SearchOrFast;
 176:Core/Src/Main/Action.c **** 		GoStraight(90, ExploreVelocity +AddVelocity , accel_or_decel, maze, Mouse);
 177:Core/Src/Main/Action.c **** 		break;
 178:Core/Src/Main/Action.c **** 	case right:
 179:Core/Src/Main/Action.c **** 		Calc = SearchOrFast;
 180:Core/Src/Main/Action.c **** 
 181:Core/Src/Main/Action.c **** 		TurnRight(turn_mode, maze, Mouse);
 182:Core/Src/Main/Action.c **** 		break;
 183:Core/Src/Main/Action.c **** 	case backright:
 184:Core/Src/Main/Action.c **** 		//Uã‚¿ãƒ¼ãƒ³ã—ã¦å³æ—‹å›ž
 185:Core/Src/Main/Action.c **** 		//å£ã®æ›´æ–°ã®å‡¦ç†ã‚’å‘¼ã°ãªã„
 186:Core/Src/Main/Action.c **** //		SearchOrFast = 1;
 187:Core/Src/Main/Action.c **** 		Calc = 1;//ãƒžãƒƒãƒ—æ›´æ–°ã—ãŸããªã„ã¨ãã¯1ã‚’ä»£å…¥ã€‚
 188:Core/Src/Main/Action.c **** 		
 189:Core/Src/Main/Action.c **** 		GoBack(maze, Mouse); 
 190:Core/Src/Main/Action.c **** 		Calc = SearchOrFast;
 191:Core/Src/Main/Action.c **** 		TurnRight(turn_mode, maze, Mouse);
 192:Core/Src/Main/Action.c **** 		break;
 193:Core/Src/Main/Action.c **** 	case back:
 194:Core/Src/Main/Action.c **** 		//Uã‚¿ãƒ¼ãƒ³ã—ã¦ç›´é€².åŠ é€Ÿ
 195:Core/Src/Main/Action.c **** 		Calc = 1;//ãƒžãƒƒãƒ—æ›´æ–°ã—ãŸããªã„ã¨ãã¯1ã‚’ä»£å…¥ã€‚
 196:Core/Src/Main/Action.c **** 		GoBack(maze, Mouse);
 197:Core/Src/Main/Action.c **** 		//ç›´é€²å¾Œã®é¸æŠžè‚¢ã‚‚è¦‹ã¦ãŠã
 198:Core/Src/Main/Action.c **** 				accel_or_not = judgeAccelorNot(maze, Mouse->next.car, Mouse->next.node);
 199:Core/Src/Main/Action.c **** 
 200:Core/Src/Main/Action.c **** 				//æ¬¡ã®ãƒŽãƒ¼ãƒ‰ã‚’ç¾åœ¨ãƒŽãƒ¼ãƒ‰ã¨ã—ã¦ã€ãƒŽãƒ¼ãƒ‰ã®å€™è£œãŒã™ã¹ã¦æ—¢çŸ¥ã‹ã©ã†ã‹
 201:Core/Src/Main/Action.c **** 				if(accel_or_not == true) //æ—¢çŸ¥ã§.ç›´é€²
 202:Core/Src/Main/Action.c **** 				{
 203:Core/Src/Main/Action.c **** 					//åŠ é€Ÿã‹ãã®ã¾ã¾.
 204:Core/Src/Main/Action.c **** 					//ç¾åœ¨é€Ÿåº¦ãŒãƒžãƒƒã‚¯ã‚¹ã‹ã©ã†ã‹
 205:Core/Src/Main/Action.c **** 					if(VelocityMax == true)
 206:Core/Src/Main/Action.c **** 					{
 207:Core/Src/Main/Action.c **** 						accel_or_decel = 0; //ãã®ã¾ã¾
 208:Core/Src/Main/Action.c **** 						AddVelocity = 245;
 209:Core/Src/Main/Action.c **** //						ChangeLED(0);
 210:Core/Src/Main/Action.c **** 					}
ARM GAS  C:\Users\leopi\AppData\Local\Temp\ccNfTY3A.s 			page 16


 211:Core/Src/Main/Action.c **** 					else
 212:Core/Src/Main/Action.c **** 					{
 213:Core/Src/Main/Action.c **** 						accel_or_decel = 1; //åŠ é€Ÿ
 214:Core/Src/Main/Action.c **** 						AddVelocity = 245;
 215:Core/Src/Main/Action.c **** //						ChangeLED(7);
 216:Core/Src/Main/Action.c **** 					}
 217:Core/Src/Main/Action.c **** 				}
 218:Core/Src/Main/Action.c **** 				else
 219:Core/Src/Main/Action.c **** 				{
 220:Core/Src/Main/Action.c **** 					//æœªçŸ¥ã‚‚ã—ãã¯ã€æ—¢çŸ¥ã§ã‚‚ç›´é€²ã§ç„¡ã‘ã‚Œã°.æ¸›é€Ÿã‹ãã®ã¾ã¾
 221:Core/Src/Main/Action.c **** 					//ç¾åœ¨é€Ÿåº¦ãŒãƒžãƒƒã‚¯ã‚¹ã‹ã©ã†ã‹
 222:Core/Src/Main/Action.c **** 					if(VelocityMax == true)
 223:Core/Src/Main/Action.c **** 					{
 224:Core/Src/Main/Action.c **** 						accel_or_decel = -1; //æ¸›é€Ÿ
 225:Core/Src/Main/Action.c **** 						static int cnt = 1;
 226:Core/Src/Main/Action.c **** //						ChangeLED(cnt);
 227:Core/Src/Main/Action.c **** 						cnt += 2;
 228:Core/Src/Main/Action.c **** 						AddVelocity = 0;
 229:Core/Src/Main/Action.c **** 					}
 230:Core/Src/Main/Action.c **** 					else //ãƒžãƒƒã‚¯ã‚¹ã§ãªã„
 231:Core/Src/Main/Action.c **** 					{
 232:Core/Src/Main/Action.c **** 						accel_or_decel = 0; //ãã®ã¾ã¾
 233:Core/Src/Main/Action.c **** 						AddVelocity = 0;
 234:Core/Src/Main/Action.c **** //						ChangeLED(2);
 235:Core/Src/Main/Action.c **** 					}
 236:Core/Src/Main/Action.c **** 				}
 237:Core/Src/Main/Action.c **** 				//å£ã¨åº§æ¨™ã®æ›´æ–°ãŒè¦ã‚Šãã†
 238:Core/Src/Main/Action.c **** 		Calc = SearchOrFast;
 239:Core/Src/Main/Action.c **** 		GoStraight(90, ExploreVelocity +AddVelocity, accel_or_decel, maze, Mouse);
 240:Core/Src/Main/Action.c **** 		break;
 241:Core/Src/Main/Action.c **** 	case backleft:
 242:Core/Src/Main/Action.c **** 		//Uã‚¿ãƒ¼ãƒ³ã—ã¦å·¦æ—‹å›ž
 243:Core/Src/Main/Action.c **** 		Calc = 1;//ãƒžãƒƒãƒ—æ›´æ–°ã—ãŸããªã„ã¨ãã¯1ã‚’ä»£å…¥ã€‚
 244:Core/Src/Main/Action.c **** 		GoBack(maze, Mouse);
 245:Core/Src/Main/Action.c **** 		Calc = SearchOrFast;
 246:Core/Src/Main/Action.c **** 		TurnLeft(turn_mode, maze, Mouse);
 247:Core/Src/Main/Action.c **** 		break;
 248:Core/Src/Main/Action.c **** 	case left:
 249:Core/Src/Main/Action.c **** 		//å·¦æ—‹å›ž
 250:Core/Src/Main/Action.c **** 		Calc = SearchOrFast;
 251:Core/Src/Main/Action.c **** 		TurnLeft(turn_mode, maze, Mouse);
 252:Core/Src/Main/Action.c **** 		break;
 253:Core/Src/Main/Action.c **** 	}
 254:Core/Src/Main/Action.c **** }
 255:Core/Src/Main/Action.c **** #endif
 256:Core/Src/Main/Action.c **** 
 257:Core/Src/Main/Action.c **** 
 258:Core/Src/Main/Action.c **** int GetWallCtrlDirection(profile *mouse)
 259:Core/Src/Main/Action.c **** {
 519              		.loc 1 259 1 view -0
 520              		.cfi_startproc
 521              		@ args = 0, pretend = 0, frame = 0
 522              		@ frame_needed = 0, uses_anonymous_args = 0
 523              		@ link register save eliminated.
 260:Core/Src/Main/Action.c **** 		switch(mouse->now.car%8)
 524              		.loc 1 260 3 view .LVU153
 525              		.loc 1 260 20 is_stmt 0 view .LVU154
ARM GAS  C:\Users\leopi\AppData\Local\Temp\ccNfTY3A.s 			page 17


 526 0000 8379     		ldrb	r3, [r0, #6]	@ zero_extendqisi2
 527              		.loc 1 260 3 view .LVU155
 528 0002 03F00703 		and	r3, r3, #7
 529 0006 062B     		cmp	r3, #6
 530 0008 59D8     		bhi	.L33
 531 000a DFE803F0 		tbb	[pc, r3]
 532              	.L29:
 533 000e 04       		.byte	(.L32-.L29)/2
 534 000f 58       		.byte	(.L33-.L29)/2
 535 0010 19       		.byte	(.L31-.L29)/2
 536 0011 58       		.byte	(.L33-.L29)/2
 537 0012 2E       		.byte	(.L30-.L29)/2
 538 0013 58       		.byte	(.L33-.L29)/2
 539 0014 43       		.byte	(.L28-.L29)/2
 540 0015 00       		.p2align 1
 541              	.L32:
 261:Core/Src/Main/Action.c **** 		{
 262:Core/Src/Main/Action.c **** 		case north:
 263:Core/Src/Main/Action.c **** 			if(mouse->now.wall.north == WALL) //ç¾åœ¨ã®æ–¹è§’ã¨ã€åº§æ¨™ã‹ã‚‰ã€å£ã®å­˜åœ¨ã‚’ç¢ºèªã™
 542              		.loc 1 263 4 is_stmt 1 view .LVU156
 543              		.loc 1 263 29 is_stmt 0 view .LVU157
 544 0016 037A     		ldrb	r3, [r0, #8]	@ zero_extendqisi2
 545 0018 03F00302 		and	r2, r3, #3
 546              		.loc 1 263 6 view .LVU158
 547 001c 012A     		cmp	r2, #1
 548 001e 50D0     		beq	.L34
 264:Core/Src/Main/Action.c **** 			{
 265:Core/Src/Main/Action.c **** 				return F_WALL_PID;
 266:Core/Src/Main/Action.c **** 			}
 267:Core/Src/Main/Action.c **** 			else if(mouse->now.wall.east == WALL && mouse->now.wall.west == WALL)
 549              		.loc 1 267 9 is_stmt 1 view .LVU159
 550              		.loc 1 267 41 is_stmt 0 view .LVU160
 551 0020 03F0CC02 		and	r2, r3, #204
 552              		.loc 1 267 11 view .LVU161
 553 0024 442A     		cmp	r2, #68
 554 0026 4ED0     		beq	.L35
 268:Core/Src/Main/Action.c **** 			{
 269:Core/Src/Main/Action.c **** 				return D_WALL_PID;
 270:Core/Src/Main/Action.c **** 			}
 271:Core/Src/Main/Action.c **** 			else if(mouse->now.wall.east == WALL)
 555              		.loc 1 271 9 is_stmt 1 view .LVU162
 556              		.loc 1 271 33 is_stmt 0 view .LVU163
 557 0028 03F00C02 		and	r2, r3, #12
 558              		.loc 1 271 11 view .LVU164
 559 002c 042A     		cmp	r2, #4
 560 002e 4CD0     		beq	.L36
 272:Core/Src/Main/Action.c **** 			{
 273:Core/Src/Main/Action.c **** 				return R_WALL_PID;
 274:Core/Src/Main/Action.c **** 			}
 275:Core/Src/Main/Action.c **** 			else if(mouse->now.wall.west == WALL)
 561              		.loc 1 275 9 is_stmt 1 view .LVU165
 562              		.loc 1 275 33 is_stmt 0 view .LVU166
 563 0030 03F0C003 		and	r3, r3, #192
 564              		.loc 1 275 11 view .LVU167
 565 0034 402B     		cmp	r3, #64
 566 0036 01D0     		beq	.L50
 276:Core/Src/Main/Action.c **** 			{
ARM GAS  C:\Users\leopi\AppData\Local\Temp\ccNfTY3A.s 			page 18


 277:Core/Src/Main/Action.c **** 				return L_WALL_PID;
 278:Core/Src/Main/Action.c **** 			}
 279:Core/Src/Main/Action.c **** 			else
 280:Core/Src/Main/Action.c **** 			{
 281:Core/Src/Main/Action.c **** 				return N_WALL_PID;
 567              		.loc 1 281 12 view .LVU168
 568 0038 0620     		movs	r0, #6
 569              	.LVL42:
 570              		.loc 1 281 12 view .LVU169
 571 003a 7047     		bx	lr
 572              	.LVL43:
 573              	.L50:
 277:Core/Src/Main/Action.c **** 			}
 574              		.loc 1 277 12 view .LVU170
 575 003c 0220     		movs	r0, #2
 576              	.LVL44:
 277:Core/Src/Main/Action.c **** 			}
 577              		.loc 1 277 12 view .LVU171
 578 003e 7047     		bx	lr
 579              	.LVL45:
 580              	.L31:
 282:Core/Src/Main/Action.c **** 			}
 283:Core/Src/Main/Action.c **** 			break;
 581              		.loc 1 283 4 is_stmt 1 view .LVU172
 284:Core/Src/Main/Action.c **** 
 285:Core/Src/Main/Action.c **** 		case east:
 286:Core/Src/Main/Action.c **** 			if(mouse->now.wall.east == WALL)
 582              		.loc 1 286 4 view .LVU173
 583              		.loc 1 286 28 is_stmt 0 view .LVU174
 584 0040 037A     		ldrb	r3, [r0, #8]	@ zero_extendqisi2
 585 0042 03F00C02 		and	r2, r3, #12
 586              		.loc 1 286 6 view .LVU175
 587 0046 042A     		cmp	r2, #4
 588 0048 41D0     		beq	.L38
 287:Core/Src/Main/Action.c **** 			{
 288:Core/Src/Main/Action.c **** 				return F_WALL_PID;
 289:Core/Src/Main/Action.c **** 			}
 290:Core/Src/Main/Action.c **** 			else if(mouse->now.wall.north == WALL && mouse->now.wall.south == WALL)//south)
 589              		.loc 1 290 9 is_stmt 1 view .LVU176
 590              		.loc 1 290 42 is_stmt 0 view .LVU177
 591 004a 03F03302 		and	r2, r3, #51
 592              		.loc 1 290 11 view .LVU178
 593 004e 112A     		cmp	r2, #17
 594 0050 3FD0     		beq	.L39
 291:Core/Src/Main/Action.c **** 			{
 292:Core/Src/Main/Action.c **** 				return D_WALL_PID;
 293:Core/Src/Main/Action.c **** 			}
 294:Core/Src/Main/Action.c **** 			else if(mouse->now.wall.north == WALL)
 595              		.loc 1 294 9 is_stmt 1 view .LVU179
 596              		.loc 1 294 34 is_stmt 0 view .LVU180
 597 0052 03F00302 		and	r2, r3, #3
 598              		.loc 1 294 11 view .LVU181
 599 0056 012A     		cmp	r2, #1
 600 0058 3DD0     		beq	.L40
 295:Core/Src/Main/Action.c **** 			{
 296:Core/Src/Main/Action.c **** 				return L_WALL_PID;
 297:Core/Src/Main/Action.c **** 			}
ARM GAS  C:\Users\leopi\AppData\Local\Temp\ccNfTY3A.s 			page 19


 298:Core/Src/Main/Action.c **** 			else if(mouse->now.wall.south == WALL)
 601              		.loc 1 298 9 is_stmt 1 view .LVU182
 602              		.loc 1 298 34 is_stmt 0 view .LVU183
 603 005a 03F03003 		and	r3, r3, #48
 604              		.loc 1 298 11 view .LVU184
 605 005e 102B     		cmp	r3, #16
 606 0060 01D0     		beq	.L51
 299:Core/Src/Main/Action.c **** 			{
 300:Core/Src/Main/Action.c **** 				return R_WALL_PID;
 301:Core/Src/Main/Action.c **** 			}
 302:Core/Src/Main/Action.c **** 			else
 303:Core/Src/Main/Action.c **** 			{
 304:Core/Src/Main/Action.c **** 				return N_WALL_PID;
 607              		.loc 1 304 12 view .LVU185
 608 0062 0620     		movs	r0, #6
 609              	.LVL46:
 610              		.loc 1 304 12 view .LVU186
 611 0064 7047     		bx	lr
 612              	.LVL47:
 613              	.L51:
 300:Core/Src/Main/Action.c **** 			}
 614              		.loc 1 300 12 view .LVU187
 615 0066 0320     		movs	r0, #3
 616              	.LVL48:
 300:Core/Src/Main/Action.c **** 			}
 617              		.loc 1 300 12 view .LVU188
 618 0068 7047     		bx	lr
 619              	.LVL49:
 620              	.L30:
 305:Core/Src/Main/Action.c **** 			}
 306:Core/Src/Main/Action.c **** 			break;
 621              		.loc 1 306 4 is_stmt 1 view .LVU189
 307:Core/Src/Main/Action.c **** 		case south:
 308:Core/Src/Main/Action.c **** 			if(mouse->now.wall.south == WALL)
 622              		.loc 1 308 4 view .LVU190
 623              		.loc 1 308 29 is_stmt 0 view .LVU191
 624 006a 037A     		ldrb	r3, [r0, #8]	@ zero_extendqisi2
 625 006c 03F03002 		and	r2, r3, #48
 626              		.loc 1 308 6 view .LVU192
 627 0070 102A     		cmp	r2, #16
 628 0072 32D0     		beq	.L42
 309:Core/Src/Main/Action.c **** 			{
 310:Core/Src/Main/Action.c **** 				return F_WALL_PID;
 311:Core/Src/Main/Action.c **** 			}
 312:Core/Src/Main/Action.c **** 			else if(mouse->now.wall.east == WALL && mouse->now.wall.west == WALL)
 629              		.loc 1 312 9 is_stmt 1 view .LVU193
 630              		.loc 1 312 41 is_stmt 0 view .LVU194
 631 0074 03F0CC02 		and	r2, r3, #204
 632              		.loc 1 312 11 view .LVU195
 633 0078 442A     		cmp	r2, #68
 634 007a 30D0     		beq	.L43
 313:Core/Src/Main/Action.c **** 			{
 314:Core/Src/Main/Action.c **** 				return D_WALL_PID;
 315:Core/Src/Main/Action.c **** 			}
 316:Core/Src/Main/Action.c **** 			else if(mouse->now.wall.east == WALL)
 635              		.loc 1 316 9 is_stmt 1 view .LVU196
 636              		.loc 1 316 33 is_stmt 0 view .LVU197
ARM GAS  C:\Users\leopi\AppData\Local\Temp\ccNfTY3A.s 			page 20


 637 007c 03F00C02 		and	r2, r3, #12
 638              		.loc 1 316 11 view .LVU198
 639 0080 042A     		cmp	r2, #4
 640 0082 2ED0     		beq	.L44
 317:Core/Src/Main/Action.c **** 			{
 318:Core/Src/Main/Action.c **** 				return L_WALL_PID;
 319:Core/Src/Main/Action.c **** 			}
 320:Core/Src/Main/Action.c **** 			else if(mouse->now.wall.west == WALL)
 641              		.loc 1 320 9 is_stmt 1 view .LVU199
 642              		.loc 1 320 33 is_stmt 0 view .LVU200
 643 0084 03F0C003 		and	r3, r3, #192
 644              		.loc 1 320 11 view .LVU201
 645 0088 402B     		cmp	r3, #64
 646 008a 01D0     		beq	.L52
 321:Core/Src/Main/Action.c **** 			{
 322:Core/Src/Main/Action.c **** 				return R_WALL_PID;
 323:Core/Src/Main/Action.c **** 			}
 324:Core/Src/Main/Action.c **** 			else
 325:Core/Src/Main/Action.c **** 			{
 326:Core/Src/Main/Action.c **** 				return N_WALL_PID;
 647              		.loc 1 326 12 view .LVU202
 648 008c 0620     		movs	r0, #6
 649              	.LVL50:
 650              		.loc 1 326 12 view .LVU203
 651 008e 7047     		bx	lr
 652              	.LVL51:
 653              	.L52:
 322:Core/Src/Main/Action.c **** 			}
 654              		.loc 1 322 12 view .LVU204
 655 0090 0320     		movs	r0, #3
 656              	.LVL52:
 322:Core/Src/Main/Action.c **** 			}
 657              		.loc 1 322 12 view .LVU205
 658 0092 7047     		bx	lr
 659              	.LVL53:
 660              	.L28:
 327:Core/Src/Main/Action.c **** 			}
 328:Core/Src/Main/Action.c **** 			break;
 661              		.loc 1 328 4 is_stmt 1 view .LVU206
 329:Core/Src/Main/Action.c **** 		case west:
 330:Core/Src/Main/Action.c **** 			if(mouse->now.wall.west == WALL)
 662              		.loc 1 330 4 view .LVU207
 663              		.loc 1 330 28 is_stmt 0 view .LVU208
 664 0094 037A     		ldrb	r3, [r0, #8]	@ zero_extendqisi2
 665 0096 03F0C002 		and	r2, r3, #192
 666              		.loc 1 330 6 view .LVU209
 667 009a 402A     		cmp	r2, #64
 668 009c 23D0     		beq	.L46
 331:Core/Src/Main/Action.c **** 			{
 332:Core/Src/Main/Action.c **** 				return F_WALL_PID;
 333:Core/Src/Main/Action.c **** 			}
 334:Core/Src/Main/Action.c **** 			else if ( mouse->now.wall.north == WALL && mouse->now.wall.south == WALL)//.westã«ãªã£ã¦ãŸã
 669              		.loc 1 334 9 is_stmt 1 view .LVU210
 670              		.loc 1 334 44 is_stmt 0 view .LVU211
 671 009e 03F03302 		and	r2, r3, #51
 672              		.loc 1 334 12 view .LVU212
 673 00a2 112A     		cmp	r2, #17
ARM GAS  C:\Users\leopi\AppData\Local\Temp\ccNfTY3A.s 			page 21


 674 00a4 21D0     		beq	.L47
 335:Core/Src/Main/Action.c **** 			{
 336:Core/Src/Main/Action.c **** 				return D_WALL_PID;
 337:Core/Src/Main/Action.c **** 			}
 338:Core/Src/Main/Action.c **** 			else if ( mouse->now.wall.north == WALL )
 675              		.loc 1 338 9 is_stmt 1 view .LVU213
 676              		.loc 1 338 36 is_stmt 0 view .LVU214
 677 00a6 03F00302 		and	r2, r3, #3
 678              		.loc 1 338 12 view .LVU215
 679 00aa 012A     		cmp	r2, #1
 680 00ac 1FD0     		beq	.L48
 339:Core/Src/Main/Action.c **** 			{
 340:Core/Src/Main/Action.c **** 				return R_WALL_PID;
 341:Core/Src/Main/Action.c **** 			}
 342:Core/Src/Main/Action.c **** 			else if ( mouse->now.wall.south == WALL )
 681              		.loc 1 342 9 is_stmt 1 view .LVU216
 682              		.loc 1 342 36 is_stmt 0 view .LVU217
 683 00ae 03F03003 		and	r3, r3, #48
 684              		.loc 1 342 12 view .LVU218
 685 00b2 102B     		cmp	r3, #16
 686 00b4 01D0     		beq	.L53
 343:Core/Src/Main/Action.c **** 			{
 344:Core/Src/Main/Action.c **** 				return L_WALL_PID;
 345:Core/Src/Main/Action.c **** 			}
 346:Core/Src/Main/Action.c **** 			else
 347:Core/Src/Main/Action.c **** 			{
 348:Core/Src/Main/Action.c **** 				return N_WALL_PID;
 687              		.loc 1 348 12 view .LVU219
 688 00b6 0620     		movs	r0, #6
 689              	.LVL54:
 349:Core/Src/Main/Action.c **** 			}
 350:Core/Src/Main/Action.c **** 			break;
 351:Core/Src/Main/Action.c **** 
 352:Core/Src/Main/Action.c **** 		default:
 353:Core/Src/Main/Action.c **** 			//æ–œã‚æ–¹å‘
 354:Core/Src/Main/Action.c **** 			return N_WALL_PID;
 355:Core/Src/Main/Action.c **** 			break;
 690              		.loc 1 355 4 is_stmt 1 view .LVU220
 356:Core/Src/Main/Action.c **** 		}
 357:Core/Src/Main/Action.c **** 
 358:Core/Src/Main/Action.c **** }
 691              		.loc 1 358 1 is_stmt 0 view .LVU221
 692 00b8 7047     		bx	lr
 693              	.LVL55:
 694              	.L53:
 344:Core/Src/Main/Action.c **** 			}
 695              		.loc 1 344 12 view .LVU222
 696 00ba 0220     		movs	r0, #2
 697              	.LVL56:
 344:Core/Src/Main/Action.c **** 			}
 698              		.loc 1 344 12 view .LVU223
 699 00bc 7047     		bx	lr
 700              	.LVL57:
 701              	.L33:
 260:Core/Src/Main/Action.c **** 		{
 702              		.loc 1 260 3 view .LVU224
 703 00be 0620     		movs	r0, #6
ARM GAS  C:\Users\leopi\AppData\Local\Temp\ccNfTY3A.s 			page 22


 704              	.LVL58:
 260:Core/Src/Main/Action.c **** 		{
 705              		.loc 1 260 3 view .LVU225
 706 00c0 7047     		bx	lr
 707              	.LVL59:
 708              	.L34:
 265:Core/Src/Main/Action.c **** 			}
 709              		.loc 1 265 12 view .LVU226
 710 00c2 0820     		movs	r0, #8
 711              	.LVL60:
 265:Core/Src/Main/Action.c **** 			}
 712              		.loc 1 265 12 view .LVU227
 713 00c4 7047     		bx	lr
 714              	.LVL61:
 715              	.L35:
 269:Core/Src/Main/Action.c **** 			}
 716              		.loc 1 269 12 view .LVU228
 717 00c6 0120     		movs	r0, #1
 718              	.LVL62:
 269:Core/Src/Main/Action.c **** 			}
 719              		.loc 1 269 12 view .LVU229
 720 00c8 7047     		bx	lr
 721              	.LVL63:
 722              	.L36:
 273:Core/Src/Main/Action.c **** 			}
 723              		.loc 1 273 12 view .LVU230
 724 00ca 0320     		movs	r0, #3
 725              	.LVL64:
 273:Core/Src/Main/Action.c **** 			}
 726              		.loc 1 273 12 view .LVU231
 727 00cc 7047     		bx	lr
 728              	.LVL65:
 729              	.L38:
 288:Core/Src/Main/Action.c **** 			}
 730              		.loc 1 288 12 view .LVU232
 731 00ce 0820     		movs	r0, #8
 732              	.LVL66:
 288:Core/Src/Main/Action.c **** 			}
 733              		.loc 1 288 12 view .LVU233
 734 00d0 7047     		bx	lr
 735              	.LVL67:
 736              	.L39:
 292:Core/Src/Main/Action.c **** 			}
 737              		.loc 1 292 12 view .LVU234
 738 00d2 0120     		movs	r0, #1
 739              	.LVL68:
 292:Core/Src/Main/Action.c **** 			}
 740              		.loc 1 292 12 view .LVU235
 741 00d4 7047     		bx	lr
 742              	.LVL69:
 743              	.L40:
 296:Core/Src/Main/Action.c **** 			}
 744              		.loc 1 296 12 view .LVU236
 745 00d6 0220     		movs	r0, #2
 746              	.LVL70:
 296:Core/Src/Main/Action.c **** 			}
 747              		.loc 1 296 12 view .LVU237
ARM GAS  C:\Users\leopi\AppData\Local\Temp\ccNfTY3A.s 			page 23


 748 00d8 7047     		bx	lr
 749              	.LVL71:
 750              	.L42:
 310:Core/Src/Main/Action.c **** 			}
 751              		.loc 1 310 12 view .LVU238
 752 00da 0820     		movs	r0, #8
 753              	.LVL72:
 310:Core/Src/Main/Action.c **** 			}
 754              		.loc 1 310 12 view .LVU239
 755 00dc 7047     		bx	lr
 756              	.LVL73:
 757              	.L43:
 314:Core/Src/Main/Action.c **** 			}
 758              		.loc 1 314 12 view .LVU240
 759 00de 0120     		movs	r0, #1
 760              	.LVL74:
 314:Core/Src/Main/Action.c **** 			}
 761              		.loc 1 314 12 view .LVU241
 762 00e0 7047     		bx	lr
 763              	.LVL75:
 764              	.L44:
 318:Core/Src/Main/Action.c **** 			}
 765              		.loc 1 318 12 view .LVU242
 766 00e2 0220     		movs	r0, #2
 767              	.LVL76:
 318:Core/Src/Main/Action.c **** 			}
 768              		.loc 1 318 12 view .LVU243
 769 00e4 7047     		bx	lr
 770              	.LVL77:
 771              	.L46:
 332:Core/Src/Main/Action.c **** 			}
 772              		.loc 1 332 12 view .LVU244
 773 00e6 0820     		movs	r0, #8
 774              	.LVL78:
 332:Core/Src/Main/Action.c **** 			}
 775              		.loc 1 332 12 view .LVU245
 776 00e8 7047     		bx	lr
 777              	.LVL79:
 778              	.L47:
 336:Core/Src/Main/Action.c **** 			}
 779              		.loc 1 336 12 view .LVU246
 780 00ea 0120     		movs	r0, #1
 781              	.LVL80:
 336:Core/Src/Main/Action.c **** 			}
 782              		.loc 1 336 12 view .LVU247
 783 00ec 7047     		bx	lr
 784              	.LVL81:
 785              	.L48:
 340:Core/Src/Main/Action.c **** 			}
 786              		.loc 1 340 12 view .LVU248
 787 00ee 0320     		movs	r0, #3
 788              	.LVL82:
 340:Core/Src/Main/Action.c **** 			}
 789              		.loc 1 340 12 view .LVU249
 790 00f0 7047     		bx	lr
 791              		.cfi_endproc
 792              	.LFE240:
ARM GAS  C:\Users\leopi\AppData\Local\Temp\ccNfTY3A.s 			page 24


 794              		.section	.text.WaitStopAndReset,"ax",%progbits
 795              		.align	1
 796              		.global	WaitStopAndReset
 797              		.syntax unified
 798              		.thumb
 799              		.thumb_func
 801              	WaitStopAndReset:
 802              	.LFB241:
 359:Core/Src/Main/Action.c **** 
 360:Core/Src/Main/Action.c **** void WaitStopAndReset()
 361:Core/Src/Main/Action.c **** {
 803              		.loc 1 361 1 is_stmt 1 view -0
 804              		.cfi_startproc
 805              		@ args = 0, pretend = 0, frame = 0
 806              		@ frame_needed = 0, uses_anonymous_args = 0
 807 0000 08B5     		push	{r3, lr}
 808              	.LCFI4:
 809              		.cfi_def_cfa_offset 8
 810              		.cfi_offset 3, -8
 811              		.cfi_offset 14, -4
 812              	.L55:
 362:Core/Src/Main/Action.c **** 	do
 813              		.loc 1 362 2 discriminator 1 view .LVU251
 363:Core/Src/Main/Action.c **** 	{
 364:Core/Src/Main/Action.c **** 		TargetVelocity[BODY] = 0;
 814              		.loc 1 364 3 discriminator 1 view .LVU252
 815              		.loc 1 364 24 is_stmt 0 discriminator 1 view .LVU253
 816 0002 0023     		movs	r3, #0
 817 0004 0E4A     		ldr	r2, .L57
 818 0006 9360     		str	r3, [r2, #8]	@ float
 365:Core/Src/Main/Action.c **** 		Acceleration = 0;
 819              		.loc 1 365 3 is_stmt 1 discriminator 1 view .LVU254
 820              		.loc 1 365 16 is_stmt 0 discriminator 1 view .LVU255
 821 0008 0E4A     		ldr	r2, .L57+4
 822 000a 1360     		str	r3, [r2]	@ float
 366:Core/Src/Main/Action.c **** 		TargetAngularV = 0;
 823              		.loc 1 366 3 is_stmt 1 discriminator 1 view .LVU256
 824              		.loc 1 366 18 is_stmt 0 discriminator 1 view .LVU257
 825 000c 0E4A     		ldr	r2, .L57+8
 826 000e 1360     		str	r3, [r2]	@ float
 367:Core/Src/Main/Action.c **** 		AngularAcceleration = 0;
 827              		.loc 1 367 3 is_stmt 1 discriminator 1 view .LVU258
 828              		.loc 1 367 23 is_stmt 0 discriminator 1 view .LVU259
 829 0010 0E4A     		ldr	r2, .L57+12
 830 0012 1360     		str	r3, [r2]	@ float
 368:Core/Src/Main/Action.c **** 		PIDReset(L_VELO_PID);
 831              		.loc 1 368 3 is_stmt 1 discriminator 1 view .LVU260
 832 0014 0420     		movs	r0, #4
 833 0016 FFF7FEFF 		bl	PIDReset
 834              	.LVL83:
 369:Core/Src/Main/Action.c **** 		PIDReset(R_VELO_PID);
 835              		.loc 1 369 3 discriminator 1 view .LVU261
 836 001a 0520     		movs	r0, #5
 837 001c FFF7FEFF 		bl	PIDReset
 838              	.LVL84:
 370:Core/Src/Main/Action.c **** 		PIDReset(A_VELO_PID);
 839              		.loc 1 370 3 discriminator 1 view .LVU262
ARM GAS  C:\Users\leopi\AppData\Local\Temp\ccNfTY3A.s 			page 25


 840 0020 0020     		movs	r0, #0
 841 0022 FFF7FEFF 		bl	PIDReset
 842              	.LVL85:
 371:Core/Src/Main/Action.c **** 
 372:Core/Src/Main/Action.c **** 	}while(CurrentVelocity[BODY] != 0);
 843              		.loc 1 372 8 discriminator 1 view .LVU263
 844              		.loc 1 372 24 is_stmt 0 discriminator 1 view .LVU264
 845 0026 0A4B     		ldr	r3, .L57+16
 846 0028 D3ED027A 		vldr.32	s15, [r3, #8]
 847              		.loc 1 372 2 discriminator 1 view .LVU265
 848 002c F5EE407A 		vcmp.f32	s15, #0
 849 0030 F1EE10FA 		vmrs	APSR_nzcv, FPSCR
 850 0034 E5D1     		bne	.L55
 373:Core/Src/Main/Action.c **** 	HAL_Delay(100);
 851              		.loc 1 373 2 is_stmt 1 view .LVU266
 852 0036 6420     		movs	r0, #100
 853 0038 FFF7FEFF 		bl	HAL_Delay
 854              	.LVL86:
 374:Core/Src/Main/Action.c **** }
 855              		.loc 1 374 1 is_stmt 0 view .LVU267
 856 003c 08BD     		pop	{r3, pc}
 857              	.L58:
 858 003e 00BF     		.align	2
 859              	.L57:
 860 0040 00000000 		.word	TargetVelocity
 861 0044 00000000 		.word	Acceleration
 862 0048 00000000 		.word	TargetAngularV
 863 004c 00000000 		.word	AngularAcceleration
 864 0050 00000000 		.word	CurrentVelocity
 865              		.cfi_endproc
 866              	.LFE241:
 868              		.global	__aeabi_f2d
 869              		.global	__aeabi_dmul
 870              		.global	__aeabi_ddiv
 871              		.global	__aeabi_d2f
 872              		.global	__aeabi_d2iz
 873              		.section	.text.Rotate,"ax",%progbits
 874              		.align	1
 875              		.global	Rotate
 876              		.syntax unified
 877              		.thumb
 878              		.thumb_func
 880              	Rotate:
 881              	.LVL87:
 882              	.LFB242:
 375:Core/Src/Main/Action.c **** void Rotate(float deg, float ang_v)
 376:Core/Src/Main/Action.c **** {
 883              		.loc 1 376 1 is_stmt 1 view -0
 884              		.cfi_startproc
 885              		@ args = 0, pretend = 0, frame = 24
 886              		@ frame_needed = 0, uses_anonymous_args = 0
 887              		.loc 1 376 1 is_stmt 0 view .LVU269
 888 0000 00B5     		push	{lr}
 889              	.LCFI5:
 890              		.cfi_def_cfa_offset 4
 891              		.cfi_offset 14, -4
 892 0002 2DED048B 		vpush.64	{d8, d9}
ARM GAS  C:\Users\leopi\AppData\Local\Temp\ccNfTY3A.s 			page 26


 893              	.LCFI6:
 894              		.cfi_def_cfa_offset 20
 895              		.cfi_offset 80, -20
 896              		.cfi_offset 81, -16
 897              		.cfi_offset 82, -12
 898              		.cfi_offset 83, -8
 899 0006 87B0     		sub	sp, sp, #28
 900              	.LCFI7:
 901              		.cfi_def_cfa_offset 48
 902 0008 B0EE409A 		vmov.f32	s18, s0
 903 000c F0EE608A 		vmov.f32	s17, s1
 377:Core/Src/Main/Action.c **** 	TargetAngularV = 0;
 904              		.loc 1 377 2 is_stmt 1 view .LVU270
 905              		.loc 1 377 17 is_stmt 0 view .LVU271
 906 0010 0023     		movs	r3, #0
 907 0012 8B4A     		ldr	r2, .L88+16
 908 0014 1360     		str	r3, [r2]	@ float
 378:Core/Src/Main/Action.c **** 	Pid[A_VELO_PID].flag = 0;
 909              		.loc 1 378 2 is_stmt 1 view .LVU272
 910              		.loc 1 378 23 is_stmt 0 view .LVU273
 911 0016 8B4A     		ldr	r2, .L88+20
 912 0018 0021     		movs	r1, #0
 913 001a 9162     		str	r1, [r2, #40]
 379:Core/Src/Main/Action.c **** 
 380:Core/Src/Main/Action.c **** 	float accel_deg = deg*30/90;
 914              		.loc 1 380 2 is_stmt 1 view .LVU274
 915              		.loc 1 380 23 is_stmt 0 view .LVU275
 916 001c F3EE0E7A 		vmov.f32	s15, #3.0e+1
 917 0020 60EE277A 		vmul.f32	s15, s0, s15
 918              		.loc 1 380 8 view .LVU276
 919 0024 DFED886A 		vldr.32	s13, .L88+24
 920 0028 87EEA67A 		vdiv.f32	s14, s15, s13
 921              	.LVL88:
 381:Core/Src/Main/Action.c **** 	float const_deg = deg*30/90;
 922              		.loc 1 381 2 is_stmt 1 view .LVU277
 382:Core/Src/Main/Action.c **** 	float decel_deg = deg*30/90;
 923              		.loc 1 382 2 view .LVU278
 383:Core/Src/Main/Action.c **** 	float angular_acceleration[3] = {
 924              		.loc 1 383 2 view .LVU279
 384:Core/Src/Main/Action.c **** 			64*T1*ang_v*ang_v / (2*accel_deg),
 925              		.loc 1 384 9 is_stmt 0 view .LVU280
 926 002c DFED877A 		vldr.32	s15, .L88+28
 927 0030 60EEA77A 		vmul.f32	s15, s1, s15
 928              		.loc 1 384 15 view .LVU281
 929 0034 67EEA07A 		vmul.f32	s15, s15, s1
 930              		.loc 1 384 26 view .LVU282
 931 0038 77EE076A 		vadd.f32	s13, s14, s14
 932              		.loc 1 384 22 view .LVU283
 933 003c 87EEA68A 		vdiv.f32	s16, s15, s13
 383:Core/Src/Main/Action.c **** 	float angular_acceleration[3] = {
 934              		.loc 1 383 8 view .LVU284
 935 0040 8DED038A 		vstr.32	s16, [sp, #12]
 936 0044 0493     		str	r3, [sp, #16]	@ float
 937 0046 8DED058A 		vstr.32	s16, [sp, #20]
 385:Core/Src/Main/Action.c **** 			0,
 386:Core/Src/Main/Action.c **** 			64*T1*ang_v*ang_v / (2*decel_deg)
 387:Core/Src/Main/Action.c **** 	};
ARM GAS  C:\Users\leopi\AppData\Local\Temp\ccNfTY3A.s 			page 27


 388:Core/Src/Main/Action.c **** 	float move_angle[3] = {
 938              		.loc 1 388 2 is_stmt 1 view .LVU285
 389:Core/Src/Main/Action.c **** 			accel_deg * M_PI/ 180, //ãƒ©ã‚¸ã‚¢ãƒ³ã«
 939              		.loc 1 389 14 is_stmt 0 view .LVU286
 940 004a 17EE100A 		vmov	r0, s14
 941 004e FFF7FEFF 		bl	__aeabi_f2d
 942              	.LVL89:
 943              		.loc 1 389 14 view .LVU287
 944 0052 77A3     		adr	r3, .L88
 945 0054 D3E90023 		ldrd	r2, [r3]
 946 0058 FFF7FEFF 		bl	__aeabi_dmul
 947              	.LVL90:
 948              		.loc 1 389 20 view .LVU288
 949 005c 0022     		movs	r2, #0
 950 005e 7C4B     		ldr	r3, .L88+32
 951 0060 FFF7FEFF 		bl	__aeabi_ddiv
 952              	.LVL91:
 953 0064 FFF7FEFF 		bl	__aeabi_d2f
 954              	.LVL92:
 955 0068 06EE900A 		vmov	s13, r0
 388:Core/Src/Main/Action.c **** 			accel_deg * M_PI/ 180, //ãƒ©ã‚¸ã‚¢ãƒ³ã«
 956              		.loc 1 388 8 view .LVU289
 957 006c 0090     		str	r0, [sp]	@ float
 958 006e 0190     		str	r0, [sp, #4]	@ float
 959 0070 0290     		str	r0, [sp, #8]	@ float
 390:Core/Src/Main/Action.c **** 			const_deg * M_PI/ 180,
 391:Core/Src/Main/Action.c **** 			decel_deg * M_PI/ 180,
 392:Core/Src/Main/Action.c **** 	};
 393:Core/Src/Main/Action.c **** 
 394:Core/Src/Main/Action.c **** 	if( ang_v > 0)	//å³å›žè»¢
 960              		.loc 1 394 2 is_stmt 1 view .LVU290
 961              		.loc 1 394 4 is_stmt 0 view .LVU291
 962 0072 F5EEC08A 		vcmpe.f32	s17, #0
 963 0076 F1EE10FA 		vmrs	APSR_nzcv, FPSCR
 964 007a 74DD     		ble	.L84
 395:Core/Src/Main/Action.c **** 	{
 396:Core/Src/Main/Action.c **** 		TargetAngle += move_angle[0];
 965              		.loc 1 396 3 is_stmt 1 view .LVU292
 966              		.loc 1 396 15 is_stmt 0 view .LVU293
 967 007c 754B     		ldr	r3, .L88+36
 968 007e D3ED007A 		vldr.32	s15, [r3]
 969 0082 76EEA77A 		vadd.f32	s15, s13, s15
 970 0086 C3ED007A 		vstr.32	s15, [r3]
 397:Core/Src/Main/Action.c **** 		while( (TargetAngle > Angle) /*&& (( ( keep_pulse[LEFT]+move_pulse ) > ( TotalPulse[LEFT] ) ) && 
 971              		.loc 1 397 3 is_stmt 1 view .LVU294
 972              		.loc 1 397 8 is_stmt 0 view .LVU295
 973 008a 02E0     		b	.L62
 974              	.L63:
 398:Core/Src/Main/Action.c **** 		{
 399:Core/Src/Main/Action.c **** 			AngularAcceleration = angular_acceleration[0];
 975              		.loc 1 399 4 is_stmt 1 view .LVU296
 976              		.loc 1 399 24 is_stmt 0 view .LVU297
 977 008c 724B     		ldr	r3, .L88+40
 978 008e 83ED008A 		vstr.32	s16, [r3]
 979              	.L62:
 397:Core/Src/Main/Action.c **** 		while( (TargetAngle > Angle) /*&& (( ( keep_pulse[LEFT]+move_pulse ) > ( TotalPulse[LEFT] ) ) && 
 980              		.loc 1 397 8 is_stmt 1 view .LVU298
ARM GAS  C:\Users\leopi\AppData\Local\Temp\ccNfTY3A.s 			page 28


 397:Core/Src/Main/Action.c **** 		while( (TargetAngle > Angle) /*&& (( ( keep_pulse[LEFT]+move_pulse ) > ( TotalPulse[LEFT] ) ) && 
 981              		.loc 1 397 23 is_stmt 0 view .LVU299
 982 0092 704B     		ldr	r3, .L88+36
 983 0094 93ED007A 		vldr.32	s14, [r3]
 984 0098 704B     		ldr	r3, .L88+44
 985 009a D3ED007A 		vldr.32	s15, [r3]
 397:Core/Src/Main/Action.c **** 		while( (TargetAngle > Angle) /*&& (( ( keep_pulse[LEFT]+move_pulse ) > ( TotalPulse[LEFT] ) ) && 
 986              		.loc 1 397 8 view .LVU300
 987 009e B4EEE77A 		vcmpe.f32	s14, s15
 988 00a2 F1EE10FA 		vmrs	APSR_nzcv, FPSCR
 989 00a6 F1DC     		bgt	.L63
 400:Core/Src/Main/Action.c **** 		}
 401:Core/Src/Main/Action.c **** 		TargetAngle += move_angle[1];
 990              		.loc 1 401 3 is_stmt 1 view .LVU301
 991              		.loc 1 401 15 is_stmt 0 view .LVU302
 992 00a8 6A4B     		ldr	r3, .L88+36
 993 00aa D3ED007A 		vldr.32	s15, [r3]
 994 00ae 76EEA77A 		vadd.f32	s15, s13, s15
 995 00b2 C3ED007A 		vstr.32	s15, [r3]
 402:Core/Src/Main/Action.c **** 		while(TargetAngle > Angle)
 996              		.loc 1 402 3 is_stmt 1 view .LVU303
 997              		.loc 1 402 8 is_stmt 0 view .LVU304
 998 00b6 02E0     		b	.L64
 999              	.L65:
 403:Core/Src/Main/Action.c **** 		{
 404:Core/Src/Main/Action.c **** 			AngularAcceleration = angular_acceleration[1];
 1000              		.loc 1 404 4 is_stmt 1 view .LVU305
 1001              		.loc 1 404 24 is_stmt 0 view .LVU306
 1002 00b8 674B     		ldr	r3, .L88+40
 1003 00ba 0022     		movs	r2, #0
 1004 00bc 1A60     		str	r2, [r3]	@ float
 1005              	.L64:
 402:Core/Src/Main/Action.c **** 		while(TargetAngle > Angle)
 1006              		.loc 1 402 8 is_stmt 1 view .LVU307
 402:Core/Src/Main/Action.c **** 		while(TargetAngle > Angle)
 1007              		.loc 1 402 21 is_stmt 0 view .LVU308
 1008 00be 654B     		ldr	r3, .L88+36
 1009 00c0 93ED007A 		vldr.32	s14, [r3]
 1010 00c4 654B     		ldr	r3, .L88+44
 1011 00c6 D3ED007A 		vldr.32	s15, [r3]
 402:Core/Src/Main/Action.c **** 		while(TargetAngle > Angle)
 1012              		.loc 1 402 8 view .LVU309
 1013 00ca B4EEE77A 		vcmpe.f32	s14, s15
 1014 00ce F1EE10FA 		vmrs	APSR_nzcv, FPSCR
 1015 00d2 F1DC     		bgt	.L65
 405:Core/Src/Main/Action.c **** 		}
 406:Core/Src/Main/Action.c **** 		TargetAngle += move_angle[2];
 1016              		.loc 1 406 3 is_stmt 1 view .LVU310
 1017              		.loc 1 406 15 is_stmt 0 view .LVU311
 1018 00d4 5F4B     		ldr	r3, .L88+36
 1019 00d6 D3ED007A 		vldr.32	s15, [r3]
 1020 00da 76EEA76A 		vadd.f32	s13, s13, s15
 1021 00de C3ED006A 		vstr.32	s13, [r3]
 407:Core/Src/Main/Action.c **** 		while(TargetAngle > Angle)
 1022              		.loc 1 407 3 is_stmt 1 view .LVU312
 1023              	.L66:
 1024              		.loc 1 407 8 view .LVU313
ARM GAS  C:\Users\leopi\AppData\Local\Temp\ccNfTY3A.s 			page 29


 1025              		.loc 1 407 21 is_stmt 0 view .LVU314
 1026 00e2 5C4B     		ldr	r3, .L88+36
 1027 00e4 93ED007A 		vldr.32	s14, [r3]
 1028 00e8 5C4B     		ldr	r3, .L88+44
 1029 00ea D3ED007A 		vldr.32	s15, [r3]
 1030              		.loc 1 407 8 view .LVU315
 1031 00ee B4EEE77A 		vcmpe.f32	s14, s15
 1032 00f2 F1EE10FA 		vmrs	APSR_nzcv, FPSCR
 1033 00f6 0CDD     		ble	.L67
 408:Core/Src/Main/Action.c **** 		{
 409:Core/Src/Main/Action.c **** 			 AngularAcceleration = -angular_acceleration[2];
 1034              		.loc 1 409 5 is_stmt 1 view .LVU316
 1035              		.loc 1 409 27 is_stmt 0 view .LVU317
 1036 00f8 F1EE487A 		vneg.f32	s15, s16
 1037              		.loc 1 409 25 view .LVU318
 1038 00fc 564B     		ldr	r3, .L88+40
 1039 00fe C3ED007A 		vstr.32	s15, [r3]
 410:Core/Src/Main/Action.c **** 			 if( AngularV <= 0)
 1040              		.loc 1 410 5 is_stmt 1 view .LVU319
 1041              		.loc 1 410 18 is_stmt 0 view .LVU320
 1042 0102 574B     		ldr	r3, .L88+48
 1043 0104 D3ED007A 		vldr.32	s15, [r3]
 1044              		.loc 1 410 7 view .LVU321
 1045 0108 F5EEC07A 		vcmpe.f32	s15, #0
 1046 010c F1EE10FA 		vmrs	APSR_nzcv, FPSCR
 1047 0110 E7D8     		bhi	.L66
 1048              	.L67:
 411:Core/Src/Main/Action.c **** 			 {
 412:Core/Src/Main/Action.c **** 				 break;
 413:Core/Src/Main/Action.c **** 			 }
 414:Core/Src/Main/Action.c **** 		}
 415:Core/Src/Main/Action.c **** 
 416:Core/Src/Main/Action.c **** 	}
 417:Core/Src/Main/Action.c **** 	else if( ang_v < 0)
 418:Core/Src/Main/Action.c **** 	{
 419:Core/Src/Main/Action.c **** 		TargetAngle -= move_angle[0];
 420:Core/Src/Main/Action.c **** 		while( (TargetAngle < Angle) )
 421:Core/Src/Main/Action.c **** 		{
 422:Core/Src/Main/Action.c **** 			AngularAcceleration = -angular_acceleration[0]; //ã“ã“ã¾ã§
 423:Core/Src/Main/Action.c **** 		}
 424:Core/Src/Main/Action.c **** 		TargetAngle -= move_angle[1];
 425:Core/Src/Main/Action.c **** 		while(TargetAngle < Angle)
 426:Core/Src/Main/Action.c **** 		{
 427:Core/Src/Main/Action.c **** 			AngularAcceleration = angular_acceleration[1];//0
 428:Core/Src/Main/Action.c **** 		}
 429:Core/Src/Main/Action.c **** 		TargetAngle -= move_angle[2];
 430:Core/Src/Main/Action.c **** 		while(TargetAngle < Angle)
 431:Core/Src/Main/Action.c **** 		{
 432:Core/Src/Main/Action.c **** 			 AngularAcceleration = angular_acceleration[2];
 433:Core/Src/Main/Action.c **** 			 if( AngularV >= 0)
 434:Core/Src/Main/Action.c **** 			 {
 435:Core/Src/Main/Action.c **** 			 		break;
 436:Core/Src/Main/Action.c **** 			 }
 437:Core/Src/Main/Action.c **** 		}
 438:Core/Src/Main/Action.c **** 
 439:Core/Src/Main/Action.c **** 	}
 440:Core/Src/Main/Action.c **** 	AngularAcceleration = 0;
ARM GAS  C:\Users\leopi\AppData\Local\Temp\ccNfTY3A.s 			page 30


 1049              		.loc 1 440 2 is_stmt 1 view .LVU322
 1050              		.loc 1 440 22 is_stmt 0 view .LVU323
 1051 0112 514B     		ldr	r3, .L88+40
 1052 0114 0022     		movs	r2, #0
 1053 0116 1A60     		str	r2, [r3]	@ float
 441:Core/Src/Main/Action.c **** 	WaitStopAndReset();
 1054              		.loc 1 441 2 is_stmt 1 view .LVU324
 1055 0118 FFF7FEFF 		bl	WaitStopAndReset
 1056              	.LVL93:
 442:Core/Src/Main/Action.c **** 	int target_pulse = (int)( (deg/360) * ROTATE_PULSE);
 1057              		.loc 1 442 2 view .LVU325
 1058              		.loc 1 442 32 is_stmt 0 view .LVU326
 1059 011c DFED517A 		vldr.32	s15, .L88+52
 1060 0120 C9EE277A 		vdiv.f32	s15, s18, s15
 1061 0124 17EE900A 		vmov	r0, s15
 1062 0128 FFF7FEFF 		bl	__aeabi_f2d
 1063              	.LVL94:
 1064              		.loc 1 442 38 view .LVU327
 1065 012c 42A3     		adr	r3, .L88+8
 1066 012e D3E90023 		ldrd	r2, [r3]
 1067 0132 FFF7FEFF 		bl	__aeabi_dmul
 1068              	.LVL95:
 1069              		.loc 1 442 6 view .LVU328
 1070 0136 FFF7FEFF 		bl	__aeabi_d2iz
 1071              	.LVL96:
 443:Core/Src/Main/Action.c **** 	if(ang_v < 0)
 1072              		.loc 1 443 2 is_stmt 1 view .LVU329
 1073              		.loc 1 443 4 is_stmt 0 view .LVU330
 1074 013a F5EEC08A 		vcmpe.f32	s17, #0
 1075 013e F1EE10FA 		vmrs	APSR_nzcv, FPSCR
 1076 0142 61D4     		bmi	.L87
 444:Core/Src/Main/Action.c **** 	{
 445:Core/Src/Main/Action.c **** 		KeepPulse[LEFT] -= target_pulse/2;
 446:Core/Src/Main/Action.c **** 		KeepPulse[RIGHT] += target_pulse/2;
 447:Core/Src/Main/Action.c **** 	}
 448:Core/Src/Main/Action.c **** 	else 	if(ang_v > 0)
 1077              		.loc 1 448 8 is_stmt 1 view .LVU331
 1078              		.loc 1 448 10 is_stmt 0 view .LVU332
 1079 0144 F5EEC08A 		vcmpe.f32	s17, #0
 1080 0148 F1EE10FA 		vmrs	APSR_nzcv, FPSCR
 1081 014c 67DD     		ble	.L78
 449:Core/Src/Main/Action.c **** 	{
 450:Core/Src/Main/Action.c **** 		KeepPulse[LEFT] += target_pulse/2;
 1082              		.loc 1 450 3 is_stmt 1 view .LVU333
 1083              		.loc 1 450 19 is_stmt 0 view .LVU334
 1084 014e 464B     		ldr	r3, .L88+56
 1085 0150 1A68     		ldr	r2, [r3]
 1086              		.loc 1 450 34 view .LVU335
 1087 0152 00EBD070 		add	r0, r0, r0, lsr #31
 1088              	.LVL97:
 1089              		.loc 1 450 19 view .LVU336
 1090 0156 02EB6002 		add	r2, r2, r0, asr #1
 1091 015a 1A60     		str	r2, [r3]
 451:Core/Src/Main/Action.c **** 		KeepPulse[RIGHT] -= target_pulse/2;
 1092              		.loc 1 451 3 is_stmt 1 view .LVU337
 1093              		.loc 1 451 20 is_stmt 0 view .LVU338
 1094 015c 5A68     		ldr	r2, [r3, #4]
ARM GAS  C:\Users\leopi\AppData\Local\Temp\ccNfTY3A.s 			page 31


 1095 015e A2EB6000 		sub	r0, r2, r0, asr #1
 1096 0162 5860     		str	r0, [r3, #4]
 1097 0164 5BE0     		b	.L78
 1098              	.L84:
 417:Core/Src/Main/Action.c **** 	{
 1099              		.loc 1 417 7 is_stmt 1 view .LVU339
 417:Core/Src/Main/Action.c **** 	{
 1100              		.loc 1 417 9 is_stmt 0 view .LVU340
 1101 0166 F5EEC08A 		vcmpe.f32	s17, #0
 1102 016a F1EE10FA 		vmrs	APSR_nzcv, FPSCR
 1103 016e D0D5     		bpl	.L67
 419:Core/Src/Main/Action.c **** 		while( (TargetAngle < Angle) )
 1104              		.loc 1 419 3 is_stmt 1 view .LVU341
 419:Core/Src/Main/Action.c **** 		while( (TargetAngle < Angle) )
 1105              		.loc 1 419 15 is_stmt 0 view .LVU342
 1106 0170 384B     		ldr	r3, .L88+36
 1107 0172 D3ED007A 		vldr.32	s15, [r3]
 1108 0176 77EEE67A 		vsub.f32	s15, s15, s13
 1109 017a C3ED007A 		vstr.32	s15, [r3]
 420:Core/Src/Main/Action.c **** 		{
 1110              		.loc 1 420 3 is_stmt 1 view .LVU343
 420:Core/Src/Main/Action.c **** 		{
 1111              		.loc 1 420 8 is_stmt 0 view .LVU344
 1112 017e 04E0     		b	.L70
 1113              	.L71:
 422:Core/Src/Main/Action.c **** 		}
 1114              		.loc 1 422 4 is_stmt 1 view .LVU345
 422:Core/Src/Main/Action.c **** 		}
 1115              		.loc 1 422 26 is_stmt 0 view .LVU346
 1116 0180 F1EE487A 		vneg.f32	s15, s16
 422:Core/Src/Main/Action.c **** 		}
 1117              		.loc 1 422 24 view .LVU347
 1118 0184 344B     		ldr	r3, .L88+40
 1119 0186 C3ED007A 		vstr.32	s15, [r3]
 1120              	.L70:
 420:Core/Src/Main/Action.c **** 		{
 1121              		.loc 1 420 8 is_stmt 1 view .LVU348
 420:Core/Src/Main/Action.c **** 		{
 1122              		.loc 1 420 23 is_stmt 0 view .LVU349
 1123 018a 324B     		ldr	r3, .L88+36
 1124 018c 93ED007A 		vldr.32	s14, [r3]
 1125 0190 324B     		ldr	r3, .L88+44
 1126 0192 D3ED007A 		vldr.32	s15, [r3]
 420:Core/Src/Main/Action.c **** 		{
 1127              		.loc 1 420 8 view .LVU350
 1128 0196 B4EEE77A 		vcmpe.f32	s14, s15
 1129 019a F1EE10FA 		vmrs	APSR_nzcv, FPSCR
 1130 019e EFD4     		bmi	.L71
 424:Core/Src/Main/Action.c **** 		while(TargetAngle < Angle)
 1131              		.loc 1 424 3 is_stmt 1 view .LVU351
 424:Core/Src/Main/Action.c **** 		while(TargetAngle < Angle)
 1132              		.loc 1 424 15 is_stmt 0 view .LVU352
 1133 01a0 2C4B     		ldr	r3, .L88+36
 1134 01a2 D3ED007A 		vldr.32	s15, [r3]
 1135 01a6 77EEE67A 		vsub.f32	s15, s15, s13
 1136 01aa C3ED007A 		vstr.32	s15, [r3]
 425:Core/Src/Main/Action.c **** 		{
ARM GAS  C:\Users\leopi\AppData\Local\Temp\ccNfTY3A.s 			page 32


 1137              		.loc 1 425 3 is_stmt 1 view .LVU353
 425:Core/Src/Main/Action.c **** 		{
 1138              		.loc 1 425 8 is_stmt 0 view .LVU354
 1139 01ae 02E0     		b	.L72
 1140              	.L73:
 427:Core/Src/Main/Action.c **** 		}
 1141              		.loc 1 427 4 is_stmt 1 view .LVU355
 427:Core/Src/Main/Action.c **** 		}
 1142              		.loc 1 427 24 is_stmt 0 view .LVU356
 1143 01b0 294B     		ldr	r3, .L88+40
 1144 01b2 0022     		movs	r2, #0
 1145 01b4 1A60     		str	r2, [r3]	@ float
 1146              	.L72:
 425:Core/Src/Main/Action.c **** 		{
 1147              		.loc 1 425 8 is_stmt 1 view .LVU357
 425:Core/Src/Main/Action.c **** 		{
 1148              		.loc 1 425 21 is_stmt 0 view .LVU358
 1149 01b6 274B     		ldr	r3, .L88+36
 1150 01b8 93ED007A 		vldr.32	s14, [r3]
 1151 01bc 274B     		ldr	r3, .L88+44
 1152 01be D3ED007A 		vldr.32	s15, [r3]
 425:Core/Src/Main/Action.c **** 		{
 1153              		.loc 1 425 8 view .LVU359
 1154 01c2 B4EEE77A 		vcmpe.f32	s14, s15
 1155 01c6 F1EE10FA 		vmrs	APSR_nzcv, FPSCR
 1156 01ca F1D4     		bmi	.L73
 429:Core/Src/Main/Action.c **** 		while(TargetAngle < Angle)
 1157              		.loc 1 429 3 is_stmt 1 view .LVU360
 429:Core/Src/Main/Action.c **** 		while(TargetAngle < Angle)
 1158              		.loc 1 429 15 is_stmt 0 view .LVU361
 1159 01cc 214B     		ldr	r3, .L88+36
 1160 01ce D3ED007A 		vldr.32	s15, [r3]
 1161 01d2 77EEE66A 		vsub.f32	s13, s15, s13
 1162 01d6 C3ED006A 		vstr.32	s13, [r3]
 430:Core/Src/Main/Action.c **** 		{
 1163              		.loc 1 430 3 is_stmt 1 view .LVU362
 1164              	.L74:
 430:Core/Src/Main/Action.c **** 		{
 1165              		.loc 1 430 8 view .LVU363
 430:Core/Src/Main/Action.c **** 		{
 1166              		.loc 1 430 21 is_stmt 0 view .LVU364
 1167 01da 1E4B     		ldr	r3, .L88+36
 1168 01dc 93ED007A 		vldr.32	s14, [r3]
 1169 01e0 1E4B     		ldr	r3, .L88+44
 1170 01e2 D3ED007A 		vldr.32	s15, [r3]
 430:Core/Src/Main/Action.c **** 		{
 1171              		.loc 1 430 8 view .LVU365
 1172 01e6 B4EEE77A 		vcmpe.f32	s14, s15
 1173 01ea F1EE10FA 		vmrs	APSR_nzcv, FPSCR
 1174 01ee 90D5     		bpl	.L67
 432:Core/Src/Main/Action.c **** 			 if( AngularV >= 0)
 1175              		.loc 1 432 5 is_stmt 1 view .LVU366
 432:Core/Src/Main/Action.c **** 			 if( AngularV >= 0)
 1176              		.loc 1 432 25 is_stmt 0 view .LVU367
 1177 01f0 194B     		ldr	r3, .L88+40
 1178 01f2 83ED008A 		vstr.32	s16, [r3]
 433:Core/Src/Main/Action.c **** 			 {
ARM GAS  C:\Users\leopi\AppData\Local\Temp\ccNfTY3A.s 			page 33


 1179              		.loc 1 433 5 is_stmt 1 view .LVU368
 433:Core/Src/Main/Action.c **** 			 {
 1180              		.loc 1 433 18 is_stmt 0 view .LVU369
 1181 01f6 1A4B     		ldr	r3, .L88+48
 1182 01f8 D3ED007A 		vldr.32	s15, [r3]
 433:Core/Src/Main/Action.c **** 			 {
 1183              		.loc 1 433 7 view .LVU370
 1184 01fc F5EEC07A 		vcmpe.f32	s15, #0
 1185 0200 F1EE10FA 		vmrs	APSR_nzcv, FPSCR
 1186 0204 E9DB     		blt	.L74
 1187 0206 84E7     		b	.L67
 1188              	.LVL98:
 1189              	.L87:
 445:Core/Src/Main/Action.c **** 		KeepPulse[RIGHT] += target_pulse/2;
 1190              		.loc 1 445 3 is_stmt 1 view .LVU371
 445:Core/Src/Main/Action.c **** 		KeepPulse[RIGHT] += target_pulse/2;
 1191              		.loc 1 445 19 is_stmt 0 view .LVU372
 1192 0208 174B     		ldr	r3, .L88+56
 1193 020a 1A68     		ldr	r2, [r3]
 445:Core/Src/Main/Action.c **** 		KeepPulse[RIGHT] += target_pulse/2;
 1194              		.loc 1 445 34 view .LVU373
 1195 020c 00EBD070 		add	r0, r0, r0, lsr #31
 1196              	.LVL99:
 445:Core/Src/Main/Action.c **** 		KeepPulse[RIGHT] += target_pulse/2;
 1197              		.loc 1 445 19 view .LVU374
 1198 0210 A2EB6002 		sub	r2, r2, r0, asr #1
 1199 0214 1A60     		str	r2, [r3]
 446:Core/Src/Main/Action.c **** 	}
 1200              		.loc 1 446 3 is_stmt 1 view .LVU375
 446:Core/Src/Main/Action.c **** 	}
 1201              		.loc 1 446 20 is_stmt 0 view .LVU376
 1202 0216 5A68     		ldr	r2, [r3, #4]
 1203 0218 02EB6000 		add	r0, r2, r0, asr #1
 1204 021c 5860     		str	r0, [r3, #4]
 1205              	.L78:
 452:Core/Src/Main/Action.c **** 	}
 453:Core/Src/Main/Action.c **** 	KeepPulse[BODY] = KeepPulse[BODY];
 1206              		.loc 1 453 2 is_stmt 1 view .LVU377
 1207              		.loc 1 453 29 is_stmt 0 view .LVU378
 1208 021e 124B     		ldr	r3, .L88+56
 1209 0220 9A68     		ldr	r2, [r3, #8]
 1210              		.loc 1 453 18 view .LVU379
 1211 0222 9A60     		str	r2, [r3, #8]
 454:Core/Src/Main/Action.c **** 
 455:Core/Src/Main/Action.c **** }
 1212              		.loc 1 455 1 view .LVU380
 1213 0224 07B0     		add	sp, sp, #28
 1214              	.LCFI8:
 1215              		.cfi_def_cfa_offset 20
 1216              		@ sp needed
 1217 0226 BDEC048B 		vldm	sp!, {d8-d9}
 1218              	.LCFI9:
 1219              		.cfi_restore 82
 1220              		.cfi_restore 83
 1221              		.cfi_restore 80
 1222              		.cfi_restore 81
 1223              		.cfi_def_cfa_offset 4
ARM GAS  C:\Users\leopi\AppData\Local\Temp\ccNfTY3A.s 			page 34


 1224              	.LVL100:
 1225              		.loc 1 455 1 view .LVU381
 1226 022a 5DF804FB 		ldr	pc, [sp], #4
 1227              	.L89:
 1228 022e 00BF     		.align	3
 1229              	.L88:
 1230 0230 182D4454 		.word	1413754136
 1231 0234 FB210940 		.word	1074340347
 1232 0238 496632CB 		.word	-885889463
 1233 023c D615FA40 		.word	1090131414
 1234 0240 00000000 		.word	TargetAngularV
 1235 0244 00000000 		.word	Pid
 1236 0248 0000B442 		.word	1119092736
 1237 024c 6F12833D 		.word	1032000111
 1238 0250 00806640 		.word	1080459264
 1239 0254 00000000 		.word	TargetAngle
 1240 0258 00000000 		.word	AngularAcceleration
 1241 025c 00000000 		.word	Angle
 1242 0260 00000000 		.word	AngularV
 1243 0264 0000B443 		.word	1135869952
 1244 0268 00000000 		.word	KeepPulse
 1245              		.cfi_endproc
 1246              	.LFE242:
 1248              		.section	.text.getFrontWall,"ax",%progbits
 1249              		.align	1
 1250              		.global	getFrontWall
 1251              		.syntax unified
 1252              		.thumb
 1253              		.thumb_func
 1255              	getFrontWall:
 1256              	.LVL101:
 1257              	.LFB243:
 456:Core/Src/Main/Action.c **** 
 457:Core/Src/Main/Action.c **** 
 458:Core/Src/Main/Action.c **** int getFrontWall(profile *mouse)
 459:Core/Src/Main/Action.c **** {
 1258              		.loc 1 459 1 is_stmt 1 view -0
 1259              		.cfi_startproc
 1260              		@ args = 0, pretend = 0, frame = 0
 1261              		@ frame_needed = 0, uses_anonymous_args = 0
 1262              		@ link register save eliminated.
 460:Core/Src/Main/Action.c **** 
 461:Core/Src/Main/Action.c **** 	switch(mouse->now.car%8)
 1263              		.loc 1 461 2 view .LVU383
 1264              		.loc 1 461 19 is_stmt 0 view .LVU384
 1265 0000 8379     		ldrb	r3, [r0, #6]	@ zero_extendqisi2
 1266              		.loc 1 461 2 view .LVU385
 1267 0002 03F00703 		and	r3, r3, #7
 1268 0006 062B     		cmp	r3, #6
 1269 0008 14D8     		bhi	.L97
 1270 000a DFE803F0 		tbb	[pc, r3]
 1271              	.L93:
 1272 000e 04       		.byte	(.L96-.L93)/2
 1273 000f 13       		.byte	(.L97-.L93)/2
 1274 0010 08       		.byte	(.L95-.L93)/2
 1275 0011 13       		.byte	(.L97-.L93)/2
 1276 0012 0C       		.byte	(.L94-.L93)/2
ARM GAS  C:\Users\leopi\AppData\Local\Temp\ccNfTY3A.s 			page 35


 1277 0013 13       		.byte	(.L97-.L93)/2
 1278 0014 10       		.byte	(.L92-.L93)/2
 1279 0015 00       		.p2align 1
 1280              	.L96:
 462:Core/Src/Main/Action.c **** 	{
 463:Core/Src/Main/Action.c **** 
 464:Core/Src/Main/Action.c **** 	case north:
 465:Core/Src/Main/Action.c **** 
 466:Core/Src/Main/Action.c **** 	return mouse->now.wall.north;
 1281              		.loc 1 466 2 is_stmt 1 view .LVU386
 1282              		.loc 1 466 24 is_stmt 0 view .LVU387
 1283 0016 007A     		ldrb	r0, [r0, #8]	@ zero_extendqisi2
 1284              	.LVL102:
 1285              		.loc 1 466 24 view .LVU388
 1286 0018 00F00300 		and	r0, r0, #3
 1287 001c 7047     		bx	lr
 1288              	.LVL103:
 1289              	.L95:
 467:Core/Src/Main/Action.c **** 
 468:Core/Src/Main/Action.c **** 	break;
 1290              		.loc 1 468 2 is_stmt 1 view .LVU389
 469:Core/Src/Main/Action.c **** 
 470:Core/Src/Main/Action.c **** 	case east:
 471:Core/Src/Main/Action.c **** 
 472:Core/Src/Main/Action.c **** 	return mouse->now.wall.east;
 1291              		.loc 1 472 2 view .LVU390
 1292              		.loc 1 472 24 is_stmt 0 view .LVU391
 1293 001e 007A     		ldrb	r0, [r0, #8]	@ zero_extendqisi2
 1294              	.LVL104:
 1295              		.loc 1 472 24 view .LVU392
 1296 0020 C0F38100 		ubfx	r0, r0, #2, #2
 1297 0024 7047     		bx	lr
 1298              	.LVL105:
 1299              	.L94:
 473:Core/Src/Main/Action.c **** 
 474:Core/Src/Main/Action.c **** 	break;
 1300              		.loc 1 474 2 is_stmt 1 view .LVU393
 475:Core/Src/Main/Action.c **** 
 476:Core/Src/Main/Action.c **** 	case south:
 477:Core/Src/Main/Action.c **** 
 478:Core/Src/Main/Action.c **** 	return mouse->now.wall.south;
 1301              		.loc 1 478 2 view .LVU394
 1302              		.loc 1 478 24 is_stmt 0 view .LVU395
 1303 0026 007A     		ldrb	r0, [r0, #8]	@ zero_extendqisi2
 1304              	.LVL106:
 1305              		.loc 1 478 24 view .LVU396
 1306 0028 C0F30110 		ubfx	r0, r0, #4, #2
 1307 002c 7047     		bx	lr
 1308              	.LVL107:
 1309              	.L92:
 479:Core/Src/Main/Action.c **** 
 480:Core/Src/Main/Action.c **** 	break;
 1310              		.loc 1 480 2 is_stmt 1 view .LVU397
 481:Core/Src/Main/Action.c **** 
 482:Core/Src/Main/Action.c **** 	case west:
 483:Core/Src/Main/Action.c **** 
 484:Core/Src/Main/Action.c **** 	return mouse->now.wall.west;
ARM GAS  C:\Users\leopi\AppData\Local\Temp\ccNfTY3A.s 			page 36


 1311              		.loc 1 484 2 view .LVU398
 1312              		.loc 1 484 24 is_stmt 0 view .LVU399
 1313 002e 007A     		ldrb	r0, [r0, #8]	@ zero_extendqisi2
 1314              	.LVL108:
 1315              		.loc 1 484 24 view .LVU400
 1316 0030 8009     		lsrs	r0, r0, #6
 1317 0032 7047     		bx	lr
 1318              	.LVL109:
 1319              	.L97:
 461:Core/Src/Main/Action.c **** 	{
 1320              		.loc 1 461 2 view .LVU401
 1321 0034 40F2E730 		movw	r0, #999
 1322              	.LVL110:
 485:Core/Src/Main/Action.c **** 
 486:Core/Src/Main/Action.c **** 	break;
 487:Core/Src/Main/Action.c **** 
 488:Core/Src/Main/Action.c **** 	default:
 489:Core/Src/Main/Action.c **** 		return 999;
 490:Core/Src/Main/Action.c **** 	break;
 1323              		.loc 1 490 2 is_stmt 1 view .LVU402
 491:Core/Src/Main/Action.c **** 
 492:Core/Src/Main/Action.c **** 	}
 493:Core/Src/Main/Action.c **** 
 494:Core/Src/Main/Action.c **** }
 1324              		.loc 1 494 1 is_stmt 0 view .LVU403
 1325 0038 7047     		bx	lr
 1326              		.cfi_endproc
 1327              	.LFE243:
 1329              		.global	__aeabi_dadd
 1330              		.section	.text.SlalomRight,"ax",%progbits
 1331              		.align	1
 1332              		.global	SlalomRight
 1333              		.syntax unified
 1334              		.thumb
 1335              		.thumb_func
 1337              	SlalomRight:
 1338              	.LVL111:
 1339              	.LFB244:
 495:Core/Src/Main/Action.c **** 
 496:Core/Src/Main/Action.c **** void SlalomRight(maze_node *maze, profile *mouse)	//ç¾åœ¨ã®é€Ÿåº¦ã‹ã‚‰ã€æœ€é©ãªè§’åŠ é€Ÿåº¦ã
 497:Core/Src/Main/Action.c **** {
 1340              		.loc 1 497 1 is_stmt 1 view -0
 1341              		.cfi_startproc
 1342              		@ args = 0, pretend = 0, frame = 0
 1343              		@ frame_needed = 0, uses_anonymous_args = 0
 1344              		.loc 1 497 1 is_stmt 0 view .LVU405
 1345 0000 38B5     		push	{r3, r4, r5, lr}
 1346              	.LCFI10:
 1347              		.cfi_def_cfa_offset 16
 1348              		.cfi_offset 3, -16
 1349              		.cfi_offset 4, -12
 1350              		.cfi_offset 5, -8
 1351              		.cfi_offset 14, -4
 1352 0002 2DED028B 		vpush.64	{d8}
 1353              	.LCFI11:
 1354              		.cfi_def_cfa_offset 24
 1355              		.cfi_offset 80, -24
ARM GAS  C:\Users\leopi\AppData\Local\Temp\ccNfTY3A.s 			page 37


 1356              		.cfi_offset 81, -20
 1357 0006 0446     		mov	r4, r0
 1358 0008 0D46     		mov	r5, r1
 498:Core/Src/Main/Action.c **** 	Pid[A_VELO_PID].flag = 1;
 1359              		.loc 1 498 2 is_stmt 1 view .LVU406
 1360              		.loc 1 498 23 is_stmt 0 view .LVU407
 1361 000a 694B     		ldr	r3, .L118+8
 1362 000c 0122     		movs	r2, #1
 1363 000e 9A62     		str	r2, [r3, #40]
 499:Core/Src/Main/Action.c **** 	int now_pulse;
 1364              		.loc 1 499 2 is_stmt 1 view .LVU408
 500:Core/Src/Main/Action.c **** 
 501:Core/Src/Main/Action.c **** 	now_pulse = TotalPulse[LEFT] + TotalPulse[RIGHT];
 1365              		.loc 1 501 2 view .LVU409
 1366              		.loc 1 501 24 is_stmt 0 view .LVU410
 1367 0010 684A     		ldr	r2, .L118+12
 1368 0012 1368     		ldr	r3, [r2]
 1369              		.loc 1 501 43 view .LVU411
 1370 0014 5268     		ldr	r2, [r2, #4]
 1371              		.loc 1 501 12 view .LVU412
 1372 0016 1344     		add	r3, r3, r2
 1373 0018 06EE903A 		vmov	s13, r3	@ int
 1374              	.LVL112:
 502:Core/Src/Main/Action.c **** 	if (0)//getFrontWall(mouse) == WALL /*å‰ã«å£ãŒã‚ã‚Œã°ã€*/) 
 1375              		.loc 1 502 2 is_stmt 1 view .LVU413
 503:Core/Src/Main/Action.c **** 	{
 504:Core/Src/Main/Action.c **** 		while(Photo[FL] < SLA_CALIB_FL || Photo[FR] < SLA_CALIB_FR)//Photo[FL] < 200 || Photo[FR] < 250/*
 505:Core/Src/Main/Action.c **** 		{
 506:Core/Src/Main/Action.c **** 			TargetAngularV = 0;
 507:Core/Src/Main/Action.c **** 			AngularLeapsity = 0;
 508:Core/Src/Main/Action.c **** 			AngularAcceleration = 0;
 509:Core/Src/Main/Action.c **** 			TargetVelocity[BODY] = ExploreVelocity;
 510:Core/Src/Main/Action.c **** 		}
 511:Core/Src/Main/Action.c **** 
 512:Core/Src/Main/Action.c **** 	}
 513:Core/Src/Main/Action.c **** 	else//ãªã‘ã‚Œã°
 514:Core/Src/Main/Action.c **** 	{
 515:Core/Src/Main/Action.c **** 		while( now_pulse + Sla.Pre > (TotalPulse[LEFT] + TotalPulse[RIGHT]) ) //ç§»å‹•é‡ã‚’æ¡ä»¶ã«ç›´é
 1376              		.loc 1 515 3 view .LVU414
 1377              		.loc 1 515 8 is_stmt 0 view .LVU415
 1378 001c 0AE0     		b	.L99
 1379              	.LVL113:
 1380              	.L100:
 516:Core/Src/Main/Action.c **** 		{
 517:Core/Src/Main/Action.c **** 				TargetAngularV = 0;
 1381              		.loc 1 517 5 is_stmt 1 view .LVU416
 1382              		.loc 1 517 20 is_stmt 0 view .LVU417
 1383 001e 0023     		movs	r3, #0
 1384 0020 654A     		ldr	r2, .L118+16
 1385 0022 1360     		str	r3, [r2]	@ float
 518:Core/Src/Main/Action.c **** 				AngularLeapsity = 0;
 1386              		.loc 1 518 5 is_stmt 1 view .LVU418
 1387              		.loc 1 518 21 is_stmt 0 view .LVU419
 1388 0024 654A     		ldr	r2, .L118+20
 1389 0026 1360     		str	r3, [r2]	@ float
 519:Core/Src/Main/Action.c **** 				AngularAcceleration = 0;
 1390              		.loc 1 519 5 is_stmt 1 view .LVU420
ARM GAS  C:\Users\leopi\AppData\Local\Temp\ccNfTY3A.s 			page 38


 1391              		.loc 1 519 25 is_stmt 0 view .LVU421
 1392 0028 654A     		ldr	r2, .L118+24
 1393 002a 1360     		str	r3, [r2]	@ float
 520:Core/Src/Main/Action.c **** 				TargetVelocity[BODY] = ExploreVelocity;
 1394              		.loc 1 520 5 is_stmt 1 view .LVU422
 1395              		.loc 1 520 26 is_stmt 0 view .LVU423
 1396 002c 654B     		ldr	r3, .L118+28
 1397 002e 1A68     		ldr	r2, [r3]	@ float
 1398 0030 654B     		ldr	r3, .L118+32
 1399 0032 9A60     		str	r2, [r3, #8]	@ float
 1400              	.L99:
 515:Core/Src/Main/Action.c **** 		{
 1401              		.loc 1 515 8 is_stmt 1 view .LVU424
 515:Core/Src/Main/Action.c **** 		{
 1402              		.loc 1 515 25 is_stmt 0 view .LVU425
 1403 0034 654B     		ldr	r3, .L118+36
 1404 0036 D3ED007A 		vldr.32	s15, [r3]
 515:Core/Src/Main/Action.c **** 		{
 1405              		.loc 1 515 20 view .LVU426
 1406 003a B8EEE67A 		vcvt.f32.s32	s14, s13
 1407 003e 37EE277A 		vadd.f32	s14, s14, s15
 515:Core/Src/Main/Action.c **** 		{
 1408              		.loc 1 515 43 view .LVU427
 1409 0042 5C4A     		ldr	r2, .L118+12
 1410 0044 1368     		ldr	r3, [r2]
 515:Core/Src/Main/Action.c **** 		{
 1411              		.loc 1 515 62 view .LVU428
 1412 0046 5268     		ldr	r2, [r2, #4]
 515:Core/Src/Main/Action.c **** 		{
 1413              		.loc 1 515 50 view .LVU429
 1414 0048 1344     		add	r3, r3, r2
 515:Core/Src/Main/Action.c **** 		{
 1415              		.loc 1 515 30 view .LVU430
 1416 004a 07EE903A 		vmov	s15, r3	@ int
 1417 004e F8EEE77A 		vcvt.f32.s32	s15, s15
 515:Core/Src/Main/Action.c **** 		{
 1418              		.loc 1 515 8 view .LVU431
 1419 0052 B4EEE77A 		vcmpe.f32	s14, s15
 1420 0056 F1EE10FA 		vmrs	APSR_nzcv, FPSCR
 1421 005a E0DC     		bgt	.L100
 521:Core/Src/Main/Action.c **** 		}
 522:Core/Src/Main/Action.c **** 	}
 523:Core/Src/Main/Action.c **** 	float start_angle = Angle;
 1422              		.loc 1 523 2 is_stmt 1 view .LVU432
 1423              		.loc 1 523 8 is_stmt 0 view .LVU433
 1424 005c 5C4B     		ldr	r3, .L118+40
 1425 005e 93ED007A 		vldr.32	s14, [r3]
 1426              	.LVL114:
 524:Core/Src/Main/Action.c **** 	Pid[A_VELO_PID].flag = 0;
 1427              		.loc 1 524 2 is_stmt 1 view .LVU434
 1428              		.loc 1 524 23 is_stmt 0 view .LVU435
 1429 0062 534B     		ldr	r3, .L118+8
 1430 0064 0022     		movs	r2, #0
 1431 0066 9A62     		str	r2, [r3, #40]
 525:Core/Src/Main/Action.c **** 	while(start_angle + Sla.Theta1 > Angle)
 1432              		.loc 1 525 2 is_stmt 1 view .LVU436
 1433              		.loc 1 525 7 is_stmt 0 view .LVU437
ARM GAS  C:\Users\leopi\AppData\Local\Temp\ccNfTY3A.s 			page 39


 1434 0068 07E0     		b	.L101
 1435              	.LVL115:
 1436              	.L102:
 526:Core/Src/Main/Action.c **** 	{
 527:Core/Src/Main/Action.c **** 			AngularAcceleration = Sla.Alpha;
 1437              		.loc 1 527 4 is_stmt 1 view .LVU438
 1438              		.loc 1 527 29 is_stmt 0 view .LVU439
 1439 006a 584B     		ldr	r3, .L118+36
 1440 006c 9A68     		ldr	r2, [r3, #8]	@ float
 1441              		.loc 1 527 24 view .LVU440
 1442 006e 544B     		ldr	r3, .L118+24
 1443 0070 1A60     		str	r2, [r3]	@ float
 528:Core/Src/Main/Action.c **** 			TargetVelocity[BODY] = ExploreVelocity;
 1444              		.loc 1 528 4 is_stmt 1 view .LVU441
 1445              		.loc 1 528 25 is_stmt 0 view .LVU442
 1446 0072 544B     		ldr	r3, .L118+28
 1447 0074 1A68     		ldr	r2, [r3]	@ float
 1448 0076 544B     		ldr	r3, .L118+32
 1449 0078 9A60     		str	r2, [r3, #8]	@ float
 1450              	.L101:
 525:Core/Src/Main/Action.c **** 	while(start_angle + Sla.Theta1 > Angle)
 1451              		.loc 1 525 7 is_stmt 1 view .LVU443
 525:Core/Src/Main/Action.c **** 	while(start_angle + Sla.Theta1 > Angle)
 1452              		.loc 1 525 25 is_stmt 0 view .LVU444
 1453 007a 544B     		ldr	r3, .L118+36
 1454 007c D3ED047A 		vldr.32	s15, [r3, #16]
 525:Core/Src/Main/Action.c **** 	while(start_angle + Sla.Theta1 > Angle)
 1455              		.loc 1 525 20 view .LVU445
 1456 0080 77EE877A 		vadd.f32	s15, s15, s14
 525:Core/Src/Main/Action.c **** 	while(start_angle + Sla.Theta1 > Angle)
 1457              		.loc 1 525 33 view .LVU446
 1458 0084 524B     		ldr	r3, .L118+40
 1459 0086 D3ED006A 		vldr.32	s13, [r3]
 525:Core/Src/Main/Action.c **** 	while(start_angle + Sla.Theta1 > Angle)
 1460              		.loc 1 525 7 view .LVU447
 1461 008a F4EEE67A 		vcmpe.f32	s15, s13
 1462 008e F1EE10FA 		vmrs	APSR_nzcv, FPSCR
 1463 0092 EADC     		bgt	.L102
 529:Core/Src/Main/Action.c **** 
 530:Core/Src/Main/Action.c **** 	}
 531:Core/Src/Main/Action.c **** 	AngularAcceleration = 0;
 1464              		.loc 1 531 2 is_stmt 1 view .LVU448
 1465              		.loc 1 531 22 is_stmt 0 view .LVU449
 1466 0094 0023     		movs	r3, #0
 1467 0096 4A4A     		ldr	r2, .L118+24
 1468 0098 1360     		str	r3, [r2]	@ float
 532:Core/Src/Main/Action.c **** 	AngularLeapsity = 0;
 1469              		.loc 1 532 2 is_stmt 1 view .LVU450
 1470              		.loc 1 532 18 is_stmt 0 view .LVU451
 1471 009a 484A     		ldr	r2, .L118+20
 1472 009c 1360     		str	r3, [r2]	@ float
 533:Core/Src/Main/Action.c **** 
 534:Core/Src/Main/Action.c **** 	while(start_angle + Sla.Theta2 > Angle)
 1473              		.loc 1 534 2 is_stmt 1 view .LVU452
 1474              		.loc 1 534 7 is_stmt 0 view .LVU453
 1475 009e 06E0     		b	.L103
 1476              	.L104:
ARM GAS  C:\Users\leopi\AppData\Local\Temp\ccNfTY3A.s 			page 40


 535:Core/Src/Main/Action.c **** 	{
 536:Core/Src/Main/Action.c **** 			TargetAngularV = TargetAngularV;
 1477              		.loc 1 536 4 is_stmt 1 view .LVU454
 1478              		.loc 1 536 19 is_stmt 0 view .LVU455
 1479 00a0 454B     		ldr	r3, .L118+16
 1480 00a2 1A68     		ldr	r2, [r3]	@ float
 1481 00a4 1A60     		str	r2, [r3]	@ float
 537:Core/Src/Main/Action.c **** 			TargetVelocity[BODY] = ExploreVelocity;
 1482              		.loc 1 537 4 is_stmt 1 view .LVU456
 1483              		.loc 1 537 25 is_stmt 0 view .LVU457
 1484 00a6 474B     		ldr	r3, .L118+28
 1485 00a8 1A68     		ldr	r2, [r3]	@ float
 1486 00aa 474B     		ldr	r3, .L118+32
 1487 00ac 9A60     		str	r2, [r3, #8]	@ float
 1488              	.L103:
 534:Core/Src/Main/Action.c **** 	{
 1489              		.loc 1 534 7 is_stmt 1 view .LVU458
 534:Core/Src/Main/Action.c **** 	{
 1490              		.loc 1 534 25 is_stmt 0 view .LVU459
 1491 00ae 474B     		ldr	r3, .L118+36
 1492 00b0 D3ED057A 		vldr.32	s15, [r3, #20]
 534:Core/Src/Main/Action.c **** 	{
 1493              		.loc 1 534 20 view .LVU460
 1494 00b4 77EE877A 		vadd.f32	s15, s15, s14
 534:Core/Src/Main/Action.c **** 	{
 1495              		.loc 1 534 33 view .LVU461
 1496 00b8 454B     		ldr	r3, .L118+40
 1497 00ba D3ED006A 		vldr.32	s13, [r3]
 534:Core/Src/Main/Action.c **** 	{
 1498              		.loc 1 534 7 view .LVU462
 1499 00be F4EEE67A 		vcmpe.f32	s15, s13
 1500 00c2 F1EE10FA 		vmrs	APSR_nzcv, FPSCR
 1501 00c6 EBDC     		bgt	.L104
 1502              	.L105:
 538:Core/Src/Main/Action.c **** 	}
 539:Core/Src/Main/Action.c **** 
 540:Core/Src/Main/Action.c **** 	while( start_angle + Sla.Theta3 > Angle)
 1503              		.loc 1 540 7 is_stmt 1 view .LVU463
 1504              		.loc 1 540 26 is_stmt 0 view .LVU464
 1505 00c8 404B     		ldr	r3, .L118+36
 1506 00ca D3ED067A 		vldr.32	s15, [r3, #24]
 1507              		.loc 1 540 21 view .LVU465
 1508 00ce 77EE877A 		vadd.f32	s15, s15, s14
 1509              		.loc 1 540 34 view .LVU466
 1510 00d2 3F4B     		ldr	r3, .L118+40
 1511 00d4 D3ED006A 		vldr.32	s13, [r3]
 1512              		.loc 1 540 7 view .LVU467
 1513 00d8 F4EEE67A 		vcmpe.f32	s15, s13
 1514 00dc F1EE10FA 		vmrs	APSR_nzcv, FPSCR
 1515 00e0 16DD     		ble	.L108
 541:Core/Src/Main/Action.c **** 	{
 542:Core/Src/Main/Action.c **** 			AngularAcceleration = -Sla.Alpha;
 1516              		.loc 1 542 4 is_stmt 1 view .LVU468
 1517              		.loc 1 542 30 is_stmt 0 view .LVU469
 1518 00e2 3A4B     		ldr	r3, .L118+36
 1519 00e4 D3ED027A 		vldr.32	s15, [r3, #8]
 1520              		.loc 1 542 26 view .LVU470
ARM GAS  C:\Users\leopi\AppData\Local\Temp\ccNfTY3A.s 			page 41


 1521 00e8 F1EE677A 		vneg.f32	s15, s15
 1522              		.loc 1 542 24 view .LVU471
 1523 00ec 344B     		ldr	r3, .L118+24
 1524 00ee C3ED007A 		vstr.32	s15, [r3]
 543:Core/Src/Main/Action.c **** 			if(TargetAngularV < 0)
 1525              		.loc 1 543 4 is_stmt 1 view .LVU472
 1526              		.loc 1 543 22 is_stmt 0 view .LVU473
 1527 00f2 314B     		ldr	r3, .L118+16
 1528 00f4 D3ED007A 		vldr.32	s15, [r3]
 1529              		.loc 1 543 6 view .LVU474
 1530 00f8 F5EEC07A 		vcmpe.f32	s15, #0
 1531 00fc F1EE10FA 		vmrs	APSR_nzcv, FPSCR
 1532 0100 04D4     		bmi	.L116
 544:Core/Src/Main/Action.c **** 			{
 545:Core/Src/Main/Action.c **** 				TargetAngularV = 0;
 546:Core/Src/Main/Action.c **** 				break;
 547:Core/Src/Main/Action.c **** 			}
 548:Core/Src/Main/Action.c **** 			TargetVelocity[BODY] = ExploreVelocity;
 1533              		.loc 1 548 4 is_stmt 1 view .LVU475
 1534              		.loc 1 548 25 is_stmt 0 view .LVU476
 1535 0102 304B     		ldr	r3, .L118+28
 1536 0104 1A68     		ldr	r2, [r3]	@ float
 1537 0106 304B     		ldr	r3, .L118+32
 1538 0108 9A60     		str	r2, [r3, #8]	@ float
 1539 010a DDE7     		b	.L105
 1540              	.L116:
 545:Core/Src/Main/Action.c **** 				break;
 1541              		.loc 1 545 5 is_stmt 1 view .LVU477
 545:Core/Src/Main/Action.c **** 				break;
 1542              		.loc 1 545 20 is_stmt 0 view .LVU478
 1543 010c 0022     		movs	r2, #0
 1544 010e 1A60     		str	r2, [r3]	@ float
 546:Core/Src/Main/Action.c **** 			}
 1545              		.loc 1 546 5 is_stmt 1 view .LVU479
 1546              	.L108:
 549:Core/Src/Main/Action.c **** 	}
 550:Core/Src/Main/Action.c **** 	AngularAcceleration = 0;
 1547              		.loc 1 550 2 view .LVU480
 1548              		.loc 1 550 22 is_stmt 0 view .LVU481
 1549 0110 0023     		movs	r3, #0
 1550 0112 2B4A     		ldr	r2, .L118+24
 1551 0114 1360     		str	r3, [r2]	@ float
 551:Core/Src/Main/Action.c **** 	AngularLeapsity = 0;
 1552              		.loc 1 551 2 is_stmt 1 view .LVU482
 552:Core/Src/Main/Action.c **** 	TargetAngularV = 0;
 1553              		.loc 1 552 2 view .LVU483
 1554              		.loc 1 552 17 is_stmt 0 view .LVU484
 1555 0116 284A     		ldr	r2, .L118+16
 1556 0118 1360     		str	r3, [r2]	@ float
 553:Core/Src/Main/Action.c **** 	now_pulse = TotalPulse[LEFT] + TotalPulse[RIGHT];
 1557              		.loc 1 553 2 is_stmt 1 view .LVU485
 1558              		.loc 1 553 24 is_stmt 0 view .LVU486
 1559 011a 264A     		ldr	r2, .L118+12
 1560 011c 1368     		ldr	r3, [r2]
 1561              		.loc 1 553 43 view .LVU487
 1562 011e 5268     		ldr	r2, [r2, #4]
 1563              		.loc 1 553 12 view .LVU488
ARM GAS  C:\Users\leopi\AppData\Local\Temp\ccNfTY3A.s 			page 42


 1564 0120 1344     		add	r3, r3, r2
 1565 0122 08EE103A 		vmov	s16, r3	@ int
 1566              	.LVL116:
 554:Core/Src/Main/Action.c **** 	while( now_pulse + Sla.Fol > (TotalPulse[LEFT] + TotalPulse[RIGHT]) )
 1567              		.loc 1 554 2 is_stmt 1 view .LVU489
 1568              	.L111:
 1569              		.loc 1 554 7 view .LVU490
 1570              		.loc 1 554 24 is_stmt 0 view .LVU491
 1571 0126 294B     		ldr	r3, .L118+36
 1572 0128 D3ED017A 		vldr.32	s15, [r3, #4]
 1573              		.loc 1 554 19 view .LVU492
 1574 012c B8EEC87A 		vcvt.f32.s32	s14, s16
 1575 0130 37EE277A 		vadd.f32	s14, s14, s15
 1576              		.loc 1 554 42 view .LVU493
 1577 0134 1F4A     		ldr	r2, .L118+12
 1578 0136 1368     		ldr	r3, [r2]
 1579              		.loc 1 554 61 view .LVU494
 1580 0138 5268     		ldr	r2, [r2, #4]
 1581              		.loc 1 554 49 view .LVU495
 1582 013a 1344     		add	r3, r3, r2
 1583              		.loc 1 554 29 view .LVU496
 1584 013c 07EE903A 		vmov	s15, r3	@ int
 1585 0140 F8EEE77A 		vcvt.f32.s32	s15, s15
 1586              		.loc 1 554 7 view .LVU497
 1587 0144 B4EEE77A 		vcmpe.f32	s14, s15
 1588 0148 F1EE10FA 		vmrs	APSR_nzcv, FPSCR
 1589 014c 13DD     		ble	.L117
 555:Core/Src/Main/Action.c **** 	{
 556:Core/Src/Main/Action.c **** 			TargetAngularV = 0;
 1590              		.loc 1 556 4 is_stmt 1 view .LVU498
 1591              		.loc 1 556 19 is_stmt 0 view .LVU499
 1592 014e 1A4B     		ldr	r3, .L118+16
 1593 0150 0022     		movs	r2, #0
 1594 0152 1A60     		str	r2, [r3]	@ float
 557:Core/Src/Main/Action.c **** 			TargetVelocity[BODY] = ExploreVelocity;
 1595              		.loc 1 557 4 is_stmt 1 view .LVU500
 1596              		.loc 1 557 25 is_stmt 0 view .LVU501
 1597 0154 1B4B     		ldr	r3, .L118+28
 1598 0156 1A68     		ldr	r2, [r3]	@ float
 1599 0158 1B4B     		ldr	r3, .L118+32
 1600 015a 9A60     		str	r2, [r3, #8]	@ float
 558:Core/Src/Main/Action.c **** 			if(Calc == 0)
 1601              		.loc 1 558 4 is_stmt 1 view .LVU502
 1602              		.loc 1 558 12 is_stmt 0 view .LVU503
 1603 015c 1D4B     		ldr	r3, .L118+44
 1604 015e 1B68     		ldr	r3, [r3]
 1605              		.loc 1 558 6 view .LVU504
 1606 0160 002B     		cmp	r3, #0
 1607 0162 E0D1     		bne	.L111
 559:Core/Src/Main/Action.c **** 			{
 560:Core/Src/Main/Action.c **** 				getWallState(mouse, &Photo[0], maze);
 1608              		.loc 1 560 5 is_stmt 1 view .LVU505
 1609 0164 2246     		mov	r2, r4
 1610 0166 1C49     		ldr	r1, .L118+48
 1611 0168 2846     		mov	r0, r5
 1612 016a FFF7FEFF 		bl	getWallState
 1613              	.LVL117:
ARM GAS  C:\Users\leopi\AppData\Local\Temp\ccNfTY3A.s 			page 43


 561:Core/Src/Main/Action.c **** 				Calc = 1;
 1614              		.loc 1 561 5 view .LVU506
 1615              		.loc 1 561 10 is_stmt 0 view .LVU507
 1616 016e 194B     		ldr	r3, .L118+44
 1617 0170 0122     		movs	r2, #1
 1618 0172 1A60     		str	r2, [r3]
 1619 0174 D7E7     		b	.L111
 1620              	.L117:
 562:Core/Src/Main/Action.c **** 			}
 563:Core/Src/Main/Action.c **** 	}
 564:Core/Src/Main/Action.c **** 	TargetAngle += 0.5f*M_PI;//90*M_PI/180;
 1621              		.loc 1 564 2 is_stmt 1 view .LVU508
 1622              		.loc 1 564 14 is_stmt 0 view .LVU509
 1623 0176 194C     		ldr	r4, .L118+52
 1624              	.LVL118:
 1625              		.loc 1 564 14 view .LVU510
 1626 0178 2068     		ldr	r0, [r4]	@ float
 1627 017a FFF7FEFF 		bl	__aeabi_f2d
 1628              	.LVL119:
 1629 017e 0AA3     		adr	r3, .L118
 1630 0180 D3E90023 		ldrd	r2, [r3]
 1631 0184 FFF7FEFF 		bl	__aeabi_dadd
 1632              	.LVL120:
 1633 0188 FFF7FEFF 		bl	__aeabi_d2f
 1634              	.LVL121:
 1635 018c 2060     		str	r0, [r4]	@ float
 565:Core/Src/Main/Action.c **** 	KeepPulse[BODY] += TotalPulse[BODY] - KeepPulse[BODY];
 1636              		.loc 1 565 2 is_stmt 1 view .LVU511
 1637              		.loc 1 565 31 is_stmt 0 view .LVU512
 1638 018e 094B     		ldr	r3, .L118+12
 1639 0190 9A68     		ldr	r2, [r3, #8]
 1640              		.loc 1 565 49 view .LVU513
 1641 0192 134B     		ldr	r3, .L118+56
 1642 0194 9968     		ldr	r1, [r3, #8]
 1643              		.loc 1 565 38 view .LVU514
 1644 0196 511A     		subs	r1, r2, r1
 1645              		.loc 1 565 18 view .LVU515
 1646 0198 9A68     		ldr	r2, [r3, #8]
 1647 019a 0A44     		add	r2, r2, r1
 1648 019c 9A60     		str	r2, [r3, #8]
 566:Core/Src/Main/Action.c **** 
 567:Core/Src/Main/Action.c **** }
 1649              		.loc 1 567 1 view .LVU516
 1650 019e BDEC028B 		vldm	sp!, {d8}
 1651              	.LCFI12:
 1652              		.cfi_restore 80
 1653              		.cfi_restore 81
 1654              		.cfi_def_cfa_offset 16
 1655              	.LVL122:
 1656              		.loc 1 567 1 view .LVU517
 1657 01a2 38BD     		pop	{r3, r4, r5, pc}
 1658              	.LVL123:
 1659              	.L119:
 1660              		.loc 1 567 1 view .LVU518
 1661 01a4 AFF30080 		.align	3
 1662              	.L118:
 1663 01a8 182D4454 		.word	1413754136
ARM GAS  C:\Users\leopi\AppData\Local\Temp\ccNfTY3A.s 			page 44


 1664 01ac FB21F93F 		.word	1073291771
 1665 01b0 00000000 		.word	Pid
 1666 01b4 00000000 		.word	TotalPulse
 1667 01b8 00000000 		.word	TargetAngularV
 1668 01bc 00000000 		.word	AngularLeapsity
 1669 01c0 00000000 		.word	AngularAcceleration
 1670 01c4 00000000 		.word	ExploreVelocity
 1671 01c8 00000000 		.word	TargetVelocity
 1672 01cc 00000000 		.word	Sla
 1673 01d0 00000000 		.word	Angle
 1674 01d4 00000000 		.word	Calc
 1675 01d8 00000000 		.word	Photo
 1676 01dc 00000000 		.word	TargetAngle
 1677 01e0 00000000 		.word	KeepPulse
 1678              		.cfi_endproc
 1679              	.LFE244:
 1681              		.global	__aeabi_dsub
 1682              		.section	.text.SlalomLeft,"ax",%progbits
 1683              		.align	1
 1684              		.global	SlalomLeft
 1685              		.syntax unified
 1686              		.thumb
 1687              		.thumb_func
 1689              	SlalomLeft:
 1690              	.LVL124:
 1691              	.LFB245:
 568:Core/Src/Main/Action.c **** void SlalomLeft(maze_node *maze, profile *mouse)	//ç¾åœ¨ã®é€Ÿåº¦ã‹ã‚‰ã€æœ€é©ãªè§’åŠ é€Ÿåº¦ã¨
 569:Core/Src/Main/Action.c **** {
 1692              		.loc 1 569 1 is_stmt 1 view -0
 1693              		.cfi_startproc
 1694              		@ args = 0, pretend = 0, frame = 0
 1695              		@ frame_needed = 0, uses_anonymous_args = 0
 1696              		.loc 1 569 1 is_stmt 0 view .LVU520
 1697 0000 38B5     		push	{r3, r4, r5, lr}
 1698              	.LCFI13:
 1699              		.cfi_def_cfa_offset 16
 1700              		.cfi_offset 3, -16
 1701              		.cfi_offset 4, -12
 1702              		.cfi_offset 5, -8
 1703              		.cfi_offset 14, -4
 1704 0002 2DED028B 		vpush.64	{d8}
 1705              	.LCFI14:
 1706              		.cfi_def_cfa_offset 24
 1707              		.cfi_offset 80, -24
 1708              		.cfi_offset 81, -20
 1709 0006 0546     		mov	r5, r0
 1710 0008 0C46     		mov	r4, r1
 570:Core/Src/Main/Action.c **** 	Pid[A_VELO_PID].flag = 1;
 1711              		.loc 1 570 2 is_stmt 1 view .LVU521
 1712              		.loc 1 570 23 is_stmt 0 view .LVU522
 1713 000a 794B     		ldr	r3, .L143+8
 1714 000c 0122     		movs	r2, #1
 1715 000e 9A62     		str	r2, [r3, #40]
 571:Core/Src/Main/Action.c **** 
 572:Core/Src/Main/Action.c **** 	int now_pulse;
 1716              		.loc 1 572 2 is_stmt 1 view .LVU523
 573:Core/Src/Main/Action.c **** 
ARM GAS  C:\Users\leopi\AppData\Local\Temp\ccNfTY3A.s 			page 45


 574:Core/Src/Main/Action.c **** 	now_pulse = TotalPulse[LEFT] + TotalPulse[RIGHT];	//æ±Žç”¨çš„ã«æ›¸ã„ã¦ãŠã
 1717              		.loc 1 574 2 view .LVU524
 1718              		.loc 1 574 24 is_stmt 0 view .LVU525
 1719 0010 784A     		ldr	r2, .L143+12
 1720 0012 1368     		ldr	r3, [r2]
 1721              		.loc 1 574 43 view .LVU526
 1722 0014 5268     		ldr	r2, [r2, #4]
 1723              		.loc 1 574 12 view .LVU527
 1724 0016 1344     		add	r3, r3, r2
 1725 0018 08EE103A 		vmov	s16, r3	@ int
 1726              	.LVL125:
 575:Core/Src/Main/Action.c **** 	if (getFrontWall(mouse) == WALL /*å‰ã«å£ãŒã‚ã‚Œã°ã€*/)
 1727              		.loc 1 575 2 is_stmt 1 view .LVU528
 1728              		.loc 1 575 6 is_stmt 0 view .LVU529
 1729 001c 0846     		mov	r0, r1
 1730              	.LVL126:
 1731              		.loc 1 575 6 view .LVU530
 1732 001e FFF7FEFF 		bl	getFrontWall
 1733              	.LVL127:
 1734              		.loc 1 575 5 view .LVU531
 1735 0022 0128     		cmp	r0, #1
 1736 0024 28D1     		bne	.L122
 1737 0026 0AE0     		b	.L121
 1738              	.L123:
 576:Core/Src/Main/Action.c **** 	{
 577:Core/Src/Main/Action.c **** 		while(Photo[FL] < SLA_CALIB_FL || Photo[FR] < SLA_CALIB_FR)//Photo[FL] < 200 || Photo[FR] < 250/*
 578:Core/Src/Main/Action.c **** 		{
 579:Core/Src/Main/Action.c **** 			TargetAngularV = 0;
 1739              		.loc 1 579 4 is_stmt 1 view .LVU532
 1740              		.loc 1 579 19 is_stmt 0 view .LVU533
 1741 0028 0023     		movs	r3, #0
 1742 002a 734A     		ldr	r2, .L143+16
 1743 002c 1360     		str	r3, [r2]	@ float
 580:Core/Src/Main/Action.c **** 			AngularLeapsity = 0;
 1744              		.loc 1 580 4 is_stmt 1 view .LVU534
 1745              		.loc 1 580 20 is_stmt 0 view .LVU535
 1746 002e 734A     		ldr	r2, .L143+20
 1747 0030 1360     		str	r3, [r2]	@ float
 581:Core/Src/Main/Action.c **** 			AngularAcceleration = 0;
 1748              		.loc 1 581 4 is_stmt 1 view .LVU536
 1749              		.loc 1 581 24 is_stmt 0 view .LVU537
 1750 0032 734A     		ldr	r2, .L143+24
 1751 0034 1360     		str	r3, [r2]	@ float
 582:Core/Src/Main/Action.c **** 			TargetVelocity[BODY] = ExploreVelocity;
 1752              		.loc 1 582 4 is_stmt 1 view .LVU538
 1753              		.loc 1 582 25 is_stmt 0 view .LVU539
 1754 0036 734B     		ldr	r3, .L143+28
 1755 0038 1A68     		ldr	r2, [r3]	@ float
 1756 003a 734B     		ldr	r3, .L143+32
 1757 003c 9A60     		str	r2, [r3, #8]	@ float
 1758              	.L121:
 577:Core/Src/Main/Action.c **** 		{
 1759              		.loc 1 577 8 is_stmt 1 view .LVU540
 577:Core/Src/Main/Action.c **** 		{
 1760              		.loc 1 577 14 is_stmt 0 view .LVU541
 1761 003e 734B     		ldr	r3, .L143+36
 1762 0040 93ED007A 		vldr.32	s14, [r3]
ARM GAS  C:\Users\leopi\AppData\Local\Temp\ccNfTY3A.s 			page 46


 577:Core/Src/Main/Action.c **** 		{
 1763              		.loc 1 577 8 view .LVU542
 1764 0044 DFED727A 		vldr.32	s15, .L143+40
 1765 0048 B4EEE77A 		vcmpe.f32	s14, s15
 1766 004c F1EE10FA 		vmrs	APSR_nzcv, FPSCR
 1767 0050 EAD4     		bmi	.L123
 577:Core/Src/Main/Action.c **** 		{
 1768              		.loc 1 577 42 discriminator 1 view .LVU543
 1769 0052 93ED037A 		vldr.32	s14, [r3, #12]
 577:Core/Src/Main/Action.c **** 		{
 1770              		.loc 1 577 34 discriminator 1 view .LVU544
 1771 0056 DFED6F7A 		vldr.32	s15, .L143+44
 1772 005a B4EEE77A 		vcmpe.f32	s14, s15
 1773 005e F1EE10FA 		vmrs	APSR_nzcv, FPSCR
 1774 0062 E1D4     		bmi	.L123
 1775 0064 1CE0     		b	.L124
 1776              	.L125:
 583:Core/Src/Main/Action.c **** 		}
 584:Core/Src/Main/Action.c **** 
 585:Core/Src/Main/Action.c **** 
 586:Core/Src/Main/Action.c **** 	}
 587:Core/Src/Main/Action.c **** 	else//ãªã‘ã‚Œã°
 588:Core/Src/Main/Action.c **** 	{
 589:Core/Src/Main/Action.c **** 		while( now_pulse + Sla.Pre  > (TotalPulse[LEFT] + TotalPulse[RIGHT]) ) //ç§»å‹•é‡ã‚’æ¡ä»¶ã«ç›´
 590:Core/Src/Main/Action.c **** 		{
 591:Core/Src/Main/Action.c **** 				TargetAngularV = 0;
 1777              		.loc 1 591 5 is_stmt 1 view .LVU545
 1778              		.loc 1 591 20 is_stmt 0 view .LVU546
 1779 0066 0023     		movs	r3, #0
 1780 0068 634A     		ldr	r2, .L143+16
 1781 006a 1360     		str	r3, [r2]	@ float
 592:Core/Src/Main/Action.c **** 				AngularAcceleration = 0;
 1782              		.loc 1 592 5 is_stmt 1 view .LVU547
 1783              		.loc 1 592 25 is_stmt 0 view .LVU548
 1784 006c 644A     		ldr	r2, .L143+24
 1785 006e 1360     		str	r3, [r2]	@ float
 593:Core/Src/Main/Action.c **** 				TargetVelocity[BODY] = ExploreVelocity;
 1786              		.loc 1 593 5 is_stmt 1 view .LVU549
 1787              		.loc 1 593 26 is_stmt 0 view .LVU550
 1788 0070 644B     		ldr	r3, .L143+28
 1789 0072 1A68     		ldr	r2, [r3]	@ float
 1790 0074 644B     		ldr	r3, .L143+32
 1791 0076 9A60     		str	r2, [r3, #8]	@ float
 1792              	.L122:
 589:Core/Src/Main/Action.c **** 		{
 1793              		.loc 1 589 8 is_stmt 1 view .LVU551
 589:Core/Src/Main/Action.c **** 		{
 1794              		.loc 1 589 25 is_stmt 0 view .LVU552
 1795 0078 674B     		ldr	r3, .L143+48
 1796 007a D3ED007A 		vldr.32	s15, [r3]
 589:Core/Src/Main/Action.c **** 		{
 1797              		.loc 1 589 20 view .LVU553
 1798 007e B8EEC87A 		vcvt.f32.s32	s14, s16
 1799 0082 37EE277A 		vadd.f32	s14, s14, s15
 589:Core/Src/Main/Action.c **** 		{
 1800              		.loc 1 589 44 view .LVU554
 1801 0086 5B4A     		ldr	r2, .L143+12
ARM GAS  C:\Users\leopi\AppData\Local\Temp\ccNfTY3A.s 			page 47


 1802 0088 1368     		ldr	r3, [r2]
 589:Core/Src/Main/Action.c **** 		{
 1803              		.loc 1 589 63 view .LVU555
 1804 008a 5268     		ldr	r2, [r2, #4]
 589:Core/Src/Main/Action.c **** 		{
 1805              		.loc 1 589 51 view .LVU556
 1806 008c 1344     		add	r3, r3, r2
 589:Core/Src/Main/Action.c **** 		{
 1807              		.loc 1 589 31 view .LVU557
 1808 008e 07EE903A 		vmov	s15, r3	@ int
 1809 0092 F8EEE77A 		vcvt.f32.s32	s15, s15
 589:Core/Src/Main/Action.c **** 		{
 1810              		.loc 1 589 8 view .LVU558
 1811 0096 B4EEE77A 		vcmpe.f32	s14, s15
 1812 009a F1EE10FA 		vmrs	APSR_nzcv, FPSCR
 1813 009e E2DC     		bgt	.L125
 1814              	.L124:
 594:Core/Src/Main/Action.c **** 		}
 595:Core/Src/Main/Action.c **** 	}
 596:Core/Src/Main/Action.c **** 	Pid[A_VELO_PID].flag = 0;
 1815              		.loc 1 596 2 is_stmt 1 view .LVU559
 1816              		.loc 1 596 23 is_stmt 0 view .LVU560
 1817 00a0 534B     		ldr	r3, .L143+8
 1818 00a2 0022     		movs	r2, #0
 1819 00a4 9A62     		str	r2, [r3, #40]
 597:Core/Src/Main/Action.c **** 	float start_angle = Angle;
 1820              		.loc 1 597 2 is_stmt 1 view .LVU561
 1821              		.loc 1 597 8 is_stmt 0 view .LVU562
 1822 00a6 5D4B     		ldr	r3, .L143+52
 1823 00a8 93ED007A 		vldr.32	s14, [r3]
 1824              	.LVL128:
 598:Core/Src/Main/Action.c **** 	while(start_angle - Sla.Theta1 < Angle)
 1825              		.loc 1 598 2 is_stmt 1 view .LVU563
 1826              		.loc 1 598 7 is_stmt 0 view .LVU564
 1827 00ac 0BE0     		b	.L126
 1828              	.L127:
 599:Core/Src/Main/Action.c **** 	{
 600:Core/Src/Main/Action.c **** 			AngularAcceleration = -Sla.Alpha;
 1829              		.loc 1 600 4 is_stmt 1 view .LVU565
 1830              		.loc 1 600 30 is_stmt 0 view .LVU566
 1831 00ae 5A4B     		ldr	r3, .L143+48
 1832 00b0 D3ED027A 		vldr.32	s15, [r3, #8]
 1833              		.loc 1 600 26 view .LVU567
 1834 00b4 F1EE677A 		vneg.f32	s15, s15
 1835              		.loc 1 600 24 view .LVU568
 1836 00b8 514B     		ldr	r3, .L143+24
 1837 00ba C3ED007A 		vstr.32	s15, [r3]
 601:Core/Src/Main/Action.c **** 			TargetVelocity[BODY] = ExploreVelocity;
 1838              		.loc 1 601 4 is_stmt 1 view .LVU569
 1839              		.loc 1 601 25 is_stmt 0 view .LVU570
 1840 00be 514B     		ldr	r3, .L143+28
 1841 00c0 1A68     		ldr	r2, [r3]	@ float
 1842 00c2 514B     		ldr	r3, .L143+32
 1843 00c4 9A60     		str	r2, [r3, #8]	@ float
 1844              	.L126:
 598:Core/Src/Main/Action.c **** 	while(start_angle - Sla.Theta1 < Angle)
 1845              		.loc 1 598 7 is_stmt 1 view .LVU571
ARM GAS  C:\Users\leopi\AppData\Local\Temp\ccNfTY3A.s 			page 48


 598:Core/Src/Main/Action.c **** 	while(start_angle - Sla.Theta1 < Angle)
 1846              		.loc 1 598 25 is_stmt 0 view .LVU572
 1847 00c6 544B     		ldr	r3, .L143+48
 1848 00c8 D3ED047A 		vldr.32	s15, [r3, #16]
 598:Core/Src/Main/Action.c **** 	while(start_angle - Sla.Theta1 < Angle)
 1849              		.loc 1 598 20 view .LVU573
 1850 00cc 77EE677A 		vsub.f32	s15, s14, s15
 598:Core/Src/Main/Action.c **** 	while(start_angle - Sla.Theta1 < Angle)
 1851              		.loc 1 598 33 view .LVU574
 1852 00d0 524B     		ldr	r3, .L143+52
 1853 00d2 D3ED006A 		vldr.32	s13, [r3]
 598:Core/Src/Main/Action.c **** 	while(start_angle - Sla.Theta1 < Angle)
 1854              		.loc 1 598 7 view .LVU575
 1855 00d6 F4EEE67A 		vcmpe.f32	s15, s13
 1856 00da F1EE10FA 		vmrs	APSR_nzcv, FPSCR
 1857 00de E6D4     		bmi	.L127
 602:Core/Src/Main/Action.c **** 	}
 603:Core/Src/Main/Action.c **** 	AngularAcceleration = 0;
 1858              		.loc 1 603 2 is_stmt 1 view .LVU576
 1859              		.loc 1 603 22 is_stmt 0 view .LVU577
 1860 00e0 0023     		movs	r3, #0
 1861 00e2 474A     		ldr	r2, .L143+24
 1862 00e4 1360     		str	r3, [r2]	@ float
 604:Core/Src/Main/Action.c **** 	AngularLeapsity = 0;
 1863              		.loc 1 604 2 is_stmt 1 view .LVU578
 1864              		.loc 1 604 18 is_stmt 0 view .LVU579
 1865 00e6 454A     		ldr	r2, .L143+20
 1866 00e8 1360     		str	r3, [r2]	@ float
 605:Core/Src/Main/Action.c **** 	while(start_angle - Sla.Theta2 < Angle)
 1867              		.loc 1 605 2 is_stmt 1 view .LVU580
 1868              		.loc 1 605 7 is_stmt 0 view .LVU581
 1869 00ea 06E0     		b	.L128
 1870              	.L129:
 606:Core/Src/Main/Action.c **** 	{
 607:Core/Src/Main/Action.c **** 			TargetAngularV = TargetAngularV;
 1871              		.loc 1 607 4 is_stmt 1 view .LVU582
 1872              		.loc 1 607 19 is_stmt 0 view .LVU583
 1873 00ec 424B     		ldr	r3, .L143+16
 1874 00ee 1A68     		ldr	r2, [r3]	@ float
 1875 00f0 1A60     		str	r2, [r3]	@ float
 608:Core/Src/Main/Action.c **** 			TargetVelocity[BODY] = ExploreVelocity;
 1876              		.loc 1 608 4 is_stmt 1 view .LVU584
 1877              		.loc 1 608 25 is_stmt 0 view .LVU585
 1878 00f2 444B     		ldr	r3, .L143+28
 1879 00f4 1A68     		ldr	r2, [r3]	@ float
 1880 00f6 444B     		ldr	r3, .L143+32
 1881 00f8 9A60     		str	r2, [r3, #8]	@ float
 1882              	.L128:
 605:Core/Src/Main/Action.c **** 	while(start_angle - Sla.Theta2 < Angle)
 1883              		.loc 1 605 7 is_stmt 1 view .LVU586
 605:Core/Src/Main/Action.c **** 	while(start_angle - Sla.Theta2 < Angle)
 1884              		.loc 1 605 25 is_stmt 0 view .LVU587
 1885 00fa 474B     		ldr	r3, .L143+48
 1886 00fc D3ED057A 		vldr.32	s15, [r3, #20]
 605:Core/Src/Main/Action.c **** 	while(start_angle - Sla.Theta2 < Angle)
 1887              		.loc 1 605 20 view .LVU588
 1888 0100 77EE677A 		vsub.f32	s15, s14, s15
ARM GAS  C:\Users\leopi\AppData\Local\Temp\ccNfTY3A.s 			page 49


 605:Core/Src/Main/Action.c **** 	while(start_angle - Sla.Theta2 < Angle)
 1889              		.loc 1 605 33 view .LVU589
 1890 0104 454B     		ldr	r3, .L143+52
 1891 0106 D3ED006A 		vldr.32	s13, [r3]
 605:Core/Src/Main/Action.c **** 	while(start_angle - Sla.Theta2 < Angle)
 1892              		.loc 1 605 7 view .LVU590
 1893 010a F4EEE67A 		vcmpe.f32	s15, s13
 1894 010e F1EE10FA 		vmrs	APSR_nzcv, FPSCR
 1895 0112 EBD4     		bmi	.L129
 1896              	.L130:
 609:Core/Src/Main/Action.c **** 	}
 610:Core/Src/Main/Action.c **** 
 611:Core/Src/Main/Action.c **** 	while( start_angle - Sla.Theta3 < Angle)
 1897              		.loc 1 611 7 is_stmt 1 view .LVU591
 1898              		.loc 1 611 26 is_stmt 0 view .LVU592
 1899 0114 404B     		ldr	r3, .L143+48
 1900 0116 D3ED067A 		vldr.32	s15, [r3, #24]
 1901              		.loc 1 611 21 view .LVU593
 1902 011a 77EE677A 		vsub.f32	s15, s14, s15
 1903              		.loc 1 611 34 view .LVU594
 1904 011e 3F4B     		ldr	r3, .L143+52
 1905 0120 D3ED006A 		vldr.32	s13, [r3]
 1906              		.loc 1 611 7 view .LVU595
 1907 0124 F4EEE67A 		vcmpe.f32	s15, s13
 1908 0128 F1EE10FA 		vmrs	APSR_nzcv, FPSCR
 1909 012c 12D5     		bpl	.L133
 612:Core/Src/Main/Action.c **** 	{
 613:Core/Src/Main/Action.c **** 			AngularAcceleration = Sla.Alpha;
 1910              		.loc 1 613 4 is_stmt 1 view .LVU596
 1911              		.loc 1 613 29 is_stmt 0 view .LVU597
 1912 012e 3A4B     		ldr	r3, .L143+48
 1913 0130 9A68     		ldr	r2, [r3, #8]	@ float
 1914              		.loc 1 613 24 view .LVU598
 1915 0132 334B     		ldr	r3, .L143+24
 1916 0134 1A60     		str	r2, [r3]	@ float
 614:Core/Src/Main/Action.c **** 			if(TargetAngularV > 0)
 1917              		.loc 1 614 4 is_stmt 1 view .LVU599
 1918              		.loc 1 614 22 is_stmt 0 view .LVU600
 1919 0136 304B     		ldr	r3, .L143+16
 1920 0138 D3ED007A 		vldr.32	s15, [r3]
 1921              		.loc 1 614 6 view .LVU601
 1922 013c F5EEC07A 		vcmpe.f32	s15, #0
 1923 0140 F1EE10FA 		vmrs	APSR_nzcv, FPSCR
 1924 0144 04DC     		bgt	.L141
 615:Core/Src/Main/Action.c **** 			{
 616:Core/Src/Main/Action.c **** 				TargetAngularV = 0;
 617:Core/Src/Main/Action.c **** 				break;
 618:Core/Src/Main/Action.c **** 			}
 619:Core/Src/Main/Action.c **** 			TargetVelocity[BODY] = ExploreVelocity;
 1925              		.loc 1 619 4 is_stmt 1 view .LVU602
 1926              		.loc 1 619 25 is_stmt 0 view .LVU603
 1927 0146 2F4B     		ldr	r3, .L143+28
 1928 0148 1A68     		ldr	r2, [r3]	@ float
 1929 014a 2F4B     		ldr	r3, .L143+32
 1930 014c 9A60     		str	r2, [r3, #8]	@ float
 1931 014e E1E7     		b	.L130
 1932              	.L141:
ARM GAS  C:\Users\leopi\AppData\Local\Temp\ccNfTY3A.s 			page 50


 616:Core/Src/Main/Action.c **** 				break;
 1933              		.loc 1 616 5 is_stmt 1 view .LVU604
 616:Core/Src/Main/Action.c **** 				break;
 1934              		.loc 1 616 20 is_stmt 0 view .LVU605
 1935 0150 0022     		movs	r2, #0
 1936 0152 1A60     		str	r2, [r3]	@ float
 617:Core/Src/Main/Action.c **** 			}
 1937              		.loc 1 617 5 is_stmt 1 view .LVU606
 1938              	.L133:
 620:Core/Src/Main/Action.c **** 	}
 621:Core/Src/Main/Action.c **** 	AngularAcceleration = 0;
 1939              		.loc 1 621 2 view .LVU607
 1940              		.loc 1 621 22 is_stmt 0 view .LVU608
 1941 0154 0023     		movs	r3, #0
 1942 0156 2A4A     		ldr	r2, .L143+24
 1943 0158 1360     		str	r3, [r2]	@ float
 622:Core/Src/Main/Action.c **** 	AngularLeapsity = 0;
 1944              		.loc 1 622 2 is_stmt 1 view .LVU609
 623:Core/Src/Main/Action.c **** 	TargetAngularV = 0;
 1945              		.loc 1 623 2 view .LVU610
 1946              		.loc 1 623 17 is_stmt 0 view .LVU611
 1947 015a 274A     		ldr	r2, .L143+16
 1948 015c 1360     		str	r3, [r2]	@ float
 624:Core/Src/Main/Action.c **** 
 625:Core/Src/Main/Action.c **** 	now_pulse = TotalPulse[LEFT] + TotalPulse[RIGHT];
 1949              		.loc 1 625 2 is_stmt 1 view .LVU612
 1950              		.loc 1 625 24 is_stmt 0 view .LVU613
 1951 015e 254A     		ldr	r2, .L143+12
 1952 0160 1368     		ldr	r3, [r2]
 1953              		.loc 1 625 43 view .LVU614
 1954 0162 5268     		ldr	r2, [r2, #4]
 1955              		.loc 1 625 12 view .LVU615
 1956 0164 1344     		add	r3, r3, r2
 1957 0166 08EE103A 		vmov	s16, r3	@ int
 1958              	.LVL129:
 626:Core/Src/Main/Action.c **** 	while( now_pulse + Sla.Fol > (TotalPulse[LEFT] + TotalPulse[RIGHT]) )
 1959              		.loc 1 626 2 is_stmt 1 view .LVU616
 1960              	.L136:
 1961              		.loc 1 626 7 view .LVU617
 1962              		.loc 1 626 24 is_stmt 0 view .LVU618
 1963 016a 2B4B     		ldr	r3, .L143+48
 1964 016c D3ED017A 		vldr.32	s15, [r3, #4]
 1965              		.loc 1 626 19 view .LVU619
 1966 0170 B8EEC87A 		vcvt.f32.s32	s14, s16
 1967 0174 37EE277A 		vadd.f32	s14, s14, s15
 1968              		.loc 1 626 42 view .LVU620
 1969 0178 1E4A     		ldr	r2, .L143+12
 1970 017a 1368     		ldr	r3, [r2]
 1971              		.loc 1 626 61 view .LVU621
 1972 017c 5268     		ldr	r2, [r2, #4]
 1973              		.loc 1 626 49 view .LVU622
 1974 017e 1344     		add	r3, r3, r2
 1975              		.loc 1 626 29 view .LVU623
 1976 0180 07EE903A 		vmov	s15, r3	@ int
 1977 0184 F8EEE77A 		vcvt.f32.s32	s15, s15
 1978              		.loc 1 626 7 view .LVU624
 1979 0188 B4EEE77A 		vcmpe.f32	s14, s15
ARM GAS  C:\Users\leopi\AppData\Local\Temp\ccNfTY3A.s 			page 51


 1980 018c F1EE10FA 		vmrs	APSR_nzcv, FPSCR
 1981 0190 13DD     		ble	.L142
 627:Core/Src/Main/Action.c **** 	{
 628:Core/Src/Main/Action.c **** 			TargetAngularV = 0;
 1982              		.loc 1 628 4 is_stmt 1 view .LVU625
 1983              		.loc 1 628 19 is_stmt 0 view .LVU626
 1984 0192 194B     		ldr	r3, .L143+16
 1985 0194 0022     		movs	r2, #0
 1986 0196 1A60     		str	r2, [r3]	@ float
 629:Core/Src/Main/Action.c **** 			TargetVelocity[BODY] = ExploreVelocity;
 1987              		.loc 1 629 4 is_stmt 1 view .LVU627
 1988              		.loc 1 629 25 is_stmt 0 view .LVU628
 1989 0198 1A4B     		ldr	r3, .L143+28
 1990 019a 1A68     		ldr	r2, [r3]	@ float
 1991 019c 1A4B     		ldr	r3, .L143+32
 1992 019e 9A60     		str	r2, [r3, #8]	@ float
 630:Core/Src/Main/Action.c **** 			if(Calc == 0)
 1993              		.loc 1 630 4 is_stmt 1 view .LVU629
 1994              		.loc 1 630 12 is_stmt 0 view .LVU630
 1995 01a0 1F4B     		ldr	r3, .L143+56
 1996 01a2 1B68     		ldr	r3, [r3]
 1997              		.loc 1 630 6 view .LVU631
 1998 01a4 002B     		cmp	r3, #0
 1999 01a6 E0D1     		bne	.L136
 631:Core/Src/Main/Action.c **** 			{
 632:Core/Src/Main/Action.c **** 				getWallState(mouse, &Photo[0], maze);
 2000              		.loc 1 632 5 is_stmt 1 view .LVU632
 2001 01a8 2A46     		mov	r2, r5
 2002 01aa 1849     		ldr	r1, .L143+36
 2003 01ac 2046     		mov	r0, r4
 2004 01ae FFF7FEFF 		bl	getWallState
 2005              	.LVL130:
 633:Core/Src/Main/Action.c **** 				Calc = 1;
 2006              		.loc 1 633 5 view .LVU633
 2007              		.loc 1 633 10 is_stmt 0 view .LVU634
 2008 01b2 1B4B     		ldr	r3, .L143+56
 2009 01b4 0122     		movs	r2, #1
 2010 01b6 1A60     		str	r2, [r3]
 2011 01b8 D7E7     		b	.L136
 2012              	.L142:
 634:Core/Src/Main/Action.c **** 			}
 635:Core/Src/Main/Action.c **** 	}
 636:Core/Src/Main/Action.c **** 	TargetAngle += -0.5f*M_PI;//-90*M_PI/180;
 2013              		.loc 1 636 2 is_stmt 1 view .LVU635
 2014              		.loc 1 636 14 is_stmt 0 view .LVU636
 2015 01ba 1A4C     		ldr	r4, .L143+60
 2016              	.LVL131:
 2017              		.loc 1 636 14 view .LVU637
 2018 01bc 2068     		ldr	r0, [r4]	@ float
 2019 01be FFF7FEFF 		bl	__aeabi_f2d
 2020              	.LVL132:
 2021 01c2 09A3     		adr	r3, .L143
 2022 01c4 D3E90023 		ldrd	r2, [r3]
 2023 01c8 FFF7FEFF 		bl	__aeabi_dsub
 2024              	.LVL133:
 2025 01cc FFF7FEFF 		bl	__aeabi_d2f
 2026              	.LVL134:
ARM GAS  C:\Users\leopi\AppData\Local\Temp\ccNfTY3A.s 			page 52


 2027 01d0 2060     		str	r0, [r4]	@ float
 637:Core/Src/Main/Action.c **** 	KeepPulse[BODY] += TotalPulse[BODY] - KeepPulse[BODY];
 2028              		.loc 1 637 2 is_stmt 1 view .LVU638
 2029              		.loc 1 637 31 is_stmt 0 view .LVU639
 2030 01d2 084B     		ldr	r3, .L143+12
 2031 01d4 9A68     		ldr	r2, [r3, #8]
 2032              		.loc 1 637 49 view .LVU640
 2033 01d6 144B     		ldr	r3, .L143+64
 2034 01d8 9968     		ldr	r1, [r3, #8]
 2035              		.loc 1 637 38 view .LVU641
 2036 01da 511A     		subs	r1, r2, r1
 2037              		.loc 1 637 18 view .LVU642
 2038 01dc 9A68     		ldr	r2, [r3, #8]
 2039 01de 0A44     		add	r2, r2, r1
 2040 01e0 9A60     		str	r2, [r3, #8]
 638:Core/Src/Main/Action.c **** }
 2041              		.loc 1 638 1 view .LVU643
 2042 01e2 BDEC028B 		vldm	sp!, {d8}
 2043              	.LCFI15:
 2044              		.cfi_restore 80
 2045              		.cfi_restore 81
 2046              		.cfi_def_cfa_offset 16
 2047              	.LVL135:
 2048              		.loc 1 638 1 view .LVU644
 2049 01e6 38BD     		pop	{r3, r4, r5, pc}
 2050              	.LVL136:
 2051              	.L144:
 2052              		.loc 1 638 1 view .LVU645
 2053              		.align	3
 2054              	.L143:
 2055 01e8 182D4454 		.word	1413754136
 2056 01ec FB21F93F 		.word	1073291771
 2057 01f0 00000000 		.word	Pid
 2058 01f4 00000000 		.word	TotalPulse
 2059 01f8 00000000 		.word	TargetAngularV
 2060 01fc 00000000 		.word	AngularLeapsity
 2061 0200 00000000 		.word	AngularAcceleration
 2062 0204 00000000 		.word	ExploreVelocity
 2063 0208 00000000 		.word	TargetVelocity
 2064 020c 00000000 		.word	Photo
 2065 0210 00003443 		.word	1127481344
 2066 0214 00006643 		.word	1130758144
 2067 0218 00000000 		.word	Sla
 2068 021c 00000000 		.word	Angle
 2069 0220 00000000 		.word	Calc
 2070 0224 00000000 		.word	TargetAngle
 2071 0228 00000000 		.word	KeepPulse
 2072              		.cfi_endproc
 2073              	.LFE245:
 2075              		.section	.text.SlalomFastRight,"ax",%progbits
 2076              		.align	1
 2077              		.global	SlalomFastRight
 2078              		.syntax unified
 2079              		.thumb
 2080              		.thumb_func
 2082              	SlalomFastRight:
 2083              	.LVL137:
ARM GAS  C:\Users\leopi\AppData\Local\Temp\ccNfTY3A.s 			page 53


 2084              	.LFB246:
 639:Core/Src/Main/Action.c **** void SlalomFastRight(slalom_parameter *param)	//ç¾åœ¨ã®é€Ÿåº¦ã‹ã‚‰ã€æœ€é©ãªè§’åŠ é€Ÿåº¦ã¨ã€
 640:Core/Src/Main/Action.c **** {
 2085              		.loc 1 640 1 is_stmt 1 view -0
 2086              		.cfi_startproc
 2087              		@ args = 0, pretend = 0, frame = 0
 2088              		@ frame_needed = 0, uses_anonymous_args = 0
 2089              		@ link register save eliminated.
 641:Core/Src/Main/Action.c **** 	Pid[A_VELO_PID].flag = 1;
 2090              		.loc 1 641 2 view .LVU647
 2091              		.loc 1 641 23 is_stmt 0 view .LVU648
 2092 0000 594B     		ldr	r3, .L162
 2093 0002 0122     		movs	r2, #1
 2094 0004 9A62     		str	r2, [r3, #40]
 642:Core/Src/Main/Action.c **** 	int now_pulse;
 2095              		.loc 1 642 2 is_stmt 1 view .LVU649
 643:Core/Src/Main/Action.c **** 
 644:Core/Src/Main/Action.c **** 	now_pulse = TotalPulse[LEFT] + TotalPulse[RIGHT];
 2096              		.loc 1 644 2 view .LVU650
 2097              		.loc 1 644 24 is_stmt 0 view .LVU651
 2098 0006 594A     		ldr	r2, .L162+4
 2099 0008 1368     		ldr	r3, [r2]
 2100              		.loc 1 644 43 view .LVU652
 2101 000a 5268     		ldr	r2, [r2, #4]
 2102              		.loc 1 644 12 view .LVU653
 2103 000c 1344     		add	r3, r3, r2
 2104 000e 06EE903A 		vmov	s13, r3	@ int
 2105              	.LVL138:
 645:Core/Src/Main/Action.c **** 	while( now_pulse + param->Pre > (TotalPulse[LEFT] + TotalPulse[RIGHT]) ) //ç§»å‹•é‡ã‚’æ¡ä»¶ã«ç›
 2106              		.loc 1 645 2 is_stmt 1 view .LVU654
 2107              		.loc 1 645 7 is_stmt 0 view .LVU655
 2108 0012 0AE0     		b	.L146
 2109              	.LVL139:
 2110              	.L147:
 646:Core/Src/Main/Action.c **** 	{
 647:Core/Src/Main/Action.c **** 			TargetAngularV = 0;
 2111              		.loc 1 647 4 is_stmt 1 view .LVU656
 2112              		.loc 1 647 19 is_stmt 0 view .LVU657
 2113 0014 0023     		movs	r3, #0
 2114 0016 564A     		ldr	r2, .L162+8
 2115 0018 1360     		str	r3, [r2]	@ float
 648:Core/Src/Main/Action.c **** 			AngularLeapsity = 0;
 2116              		.loc 1 648 4 is_stmt 1 view .LVU658
 2117              		.loc 1 648 20 is_stmt 0 view .LVU659
 2118 001a 564A     		ldr	r2, .L162+12
 2119 001c 1360     		str	r3, [r2]	@ float
 649:Core/Src/Main/Action.c **** 			AngularAcceleration = 0;
 2120              		.loc 1 649 4 is_stmt 1 view .LVU660
 2121              		.loc 1 649 24 is_stmt 0 view .LVU661
 2122 001e 564A     		ldr	r2, .L162+16
 2123 0020 1360     		str	r3, [r2]	@ float
 650:Core/Src/Main/Action.c **** 			TargetVelocity[BODY] = ExploreVelocity;
 2124              		.loc 1 650 4 is_stmt 1 view .LVU662
 2125              		.loc 1 650 25 is_stmt 0 view .LVU663
 2126 0022 564B     		ldr	r3, .L162+20
 2127 0024 1A68     		ldr	r2, [r3]	@ float
 2128 0026 564B     		ldr	r3, .L162+24
ARM GAS  C:\Users\leopi\AppData\Local\Temp\ccNfTY3A.s 			page 54


 2129 0028 9A60     		str	r2, [r3, #8]	@ float
 2130              	.L146:
 645:Core/Src/Main/Action.c **** 	{
 2131              		.loc 1 645 7 is_stmt 1 view .LVU664
 645:Core/Src/Main/Action.c **** 	{
 2132              		.loc 1 645 26 is_stmt 0 view .LVU665
 2133 002a D0ED007A 		vldr.32	s15, [r0]
 645:Core/Src/Main/Action.c **** 	{
 2134              		.loc 1 645 19 view .LVU666
 2135 002e B8EEE67A 		vcvt.f32.s32	s14, s13
 2136 0032 37EE277A 		vadd.f32	s14, s14, s15
 645:Core/Src/Main/Action.c **** 	{
 2137              		.loc 1 645 45 view .LVU667
 2138 0036 4D4A     		ldr	r2, .L162+4
 2139 0038 1368     		ldr	r3, [r2]
 645:Core/Src/Main/Action.c **** 	{
 2140              		.loc 1 645 64 view .LVU668
 2141 003a 5268     		ldr	r2, [r2, #4]
 645:Core/Src/Main/Action.c **** 	{
 2142              		.loc 1 645 52 view .LVU669
 2143 003c 1344     		add	r3, r3, r2
 645:Core/Src/Main/Action.c **** 	{
 2144              		.loc 1 645 32 view .LVU670
 2145 003e 07EE903A 		vmov	s15, r3	@ int
 2146 0042 F8EEE77A 		vcvt.f32.s32	s15, s15
 645:Core/Src/Main/Action.c **** 	{
 2147              		.loc 1 645 7 view .LVU671
 2148 0046 B4EEE77A 		vcmpe.f32	s14, s15
 2149 004a F1EE10FA 		vmrs	APSR_nzcv, FPSCR
 2150 004e E1DC     		bgt	.L147
 651:Core/Src/Main/Action.c **** 	}
 652:Core/Src/Main/Action.c **** 	float start_angle = Angle;
 2151              		.loc 1 652 2 is_stmt 1 view .LVU672
 2152              		.loc 1 652 8 is_stmt 0 view .LVU673
 2153 0050 4C4B     		ldr	r3, .L162+28
 2154 0052 93ED007A 		vldr.32	s14, [r3]
 2155              	.LVL140:
 653:Core/Src/Main/Action.c **** 	Pid[A_VELO_PID].flag = 0;
 2156              		.loc 1 653 2 is_stmt 1 view .LVU674
 2157              		.loc 1 653 23 is_stmt 0 view .LVU675
 2158 0056 444B     		ldr	r3, .L162
 2159 0058 0022     		movs	r2, #0
 2160 005a 9A62     		str	r2, [r3, #40]
 654:Core/Src/Main/Action.c **** 	while(start_angle + param->Theta1 > Angle)
 2161              		.loc 1 654 2 is_stmt 1 view .LVU676
 2162              		.loc 1 654 7 is_stmt 0 view .LVU677
 2163 005c 06E0     		b	.L148
 2164              	.LVL141:
 2165              	.L149:
 655:Core/Src/Main/Action.c **** 	{
 656:Core/Src/Main/Action.c **** 			AngularAcceleration = param->Alpha;
 2166              		.loc 1 656 4 is_stmt 1 view .LVU678
 2167              		.loc 1 656 31 is_stmt 0 view .LVU679
 2168 005e 8268     		ldr	r2, [r0, #8]	@ float
 2169              		.loc 1 656 24 view .LVU680
 2170 0060 454B     		ldr	r3, .L162+16
 2171 0062 1A60     		str	r2, [r3]	@ float
ARM GAS  C:\Users\leopi\AppData\Local\Temp\ccNfTY3A.s 			page 55


 657:Core/Src/Main/Action.c **** 			TargetVelocity[BODY] = ExploreVelocity;
 2172              		.loc 1 657 4 is_stmt 1 view .LVU681
 2173              		.loc 1 657 25 is_stmt 0 view .LVU682
 2174 0064 454B     		ldr	r3, .L162+20
 2175 0066 1A68     		ldr	r2, [r3]	@ float
 2176 0068 454B     		ldr	r3, .L162+24
 2177 006a 9A60     		str	r2, [r3, #8]	@ float
 2178              	.L148:
 654:Core/Src/Main/Action.c **** 	while(start_angle + param->Theta1 > Angle)
 2179              		.loc 1 654 7 is_stmt 1 view .LVU683
 654:Core/Src/Main/Action.c **** 	while(start_angle + param->Theta1 > Angle)
 2180              		.loc 1 654 27 is_stmt 0 view .LVU684
 2181 006c D0ED047A 		vldr.32	s15, [r0, #16]
 654:Core/Src/Main/Action.c **** 	while(start_angle + param->Theta1 > Angle)
 2182              		.loc 1 654 20 view .LVU685
 2183 0070 77EE877A 		vadd.f32	s15, s15, s14
 654:Core/Src/Main/Action.c **** 	while(start_angle + param->Theta1 > Angle)
 2184              		.loc 1 654 36 view .LVU686
 2185 0074 434B     		ldr	r3, .L162+28
 2186 0076 D3ED006A 		vldr.32	s13, [r3]
 654:Core/Src/Main/Action.c **** 	while(start_angle + param->Theta1 > Angle)
 2187              		.loc 1 654 7 view .LVU687
 2188 007a F4EEE67A 		vcmpe.f32	s15, s13
 2189 007e F1EE10FA 		vmrs	APSR_nzcv, FPSCR
 2190 0082 ECDC     		bgt	.L149
 658:Core/Src/Main/Action.c **** 
 659:Core/Src/Main/Action.c **** 	}
 660:Core/Src/Main/Action.c **** 	AngularAcceleration = 0;
 2191              		.loc 1 660 2 is_stmt 1 view .LVU688
 2192              		.loc 1 660 22 is_stmt 0 view .LVU689
 2193 0084 0023     		movs	r3, #0
 2194 0086 3C4A     		ldr	r2, .L162+16
 2195 0088 1360     		str	r3, [r2]	@ float
 661:Core/Src/Main/Action.c **** 	AngularLeapsity = 0;
 2196              		.loc 1 661 2 is_stmt 1 view .LVU690
 2197              		.loc 1 661 18 is_stmt 0 view .LVU691
 2198 008a 3A4A     		ldr	r2, .L162+12
 2199 008c 1360     		str	r3, [r2]	@ float
 662:Core/Src/Main/Action.c **** 	while(start_angle + param->Theta2 > Angle)
 2200              		.loc 1 662 2 is_stmt 1 view .LVU692
 2201              		.loc 1 662 7 is_stmt 0 view .LVU693
 2202 008e 06E0     		b	.L150
 2203              	.L151:
 663:Core/Src/Main/Action.c **** 	{
 664:Core/Src/Main/Action.c **** 			TargetAngularV = TargetAngularV;
 2204              		.loc 1 664 4 is_stmt 1 view .LVU694
 2205              		.loc 1 664 19 is_stmt 0 view .LVU695
 2206 0090 374B     		ldr	r3, .L162+8
 2207 0092 1A68     		ldr	r2, [r3]	@ float
 2208 0094 1A60     		str	r2, [r3]	@ float
 665:Core/Src/Main/Action.c **** 			TargetVelocity[BODY] = ExploreVelocity;
 2209              		.loc 1 665 4 is_stmt 1 view .LVU696
 2210              		.loc 1 665 25 is_stmt 0 view .LVU697
 2211 0096 394B     		ldr	r3, .L162+20
 2212 0098 1A68     		ldr	r2, [r3]	@ float
 2213 009a 394B     		ldr	r3, .L162+24
 2214 009c 9A60     		str	r2, [r3, #8]	@ float
ARM GAS  C:\Users\leopi\AppData\Local\Temp\ccNfTY3A.s 			page 56


 2215              	.L150:
 662:Core/Src/Main/Action.c **** 	while(start_angle + param->Theta2 > Angle)
 2216              		.loc 1 662 7 is_stmt 1 view .LVU698
 662:Core/Src/Main/Action.c **** 	while(start_angle + param->Theta2 > Angle)
 2217              		.loc 1 662 27 is_stmt 0 view .LVU699
 2218 009e D0ED057A 		vldr.32	s15, [r0, #20]
 662:Core/Src/Main/Action.c **** 	while(start_angle + param->Theta2 > Angle)
 2219              		.loc 1 662 20 view .LVU700
 2220 00a2 77EE877A 		vadd.f32	s15, s15, s14
 662:Core/Src/Main/Action.c **** 	while(start_angle + param->Theta2 > Angle)
 2221              		.loc 1 662 36 view .LVU701
 2222 00a6 374B     		ldr	r3, .L162+28
 2223 00a8 D3ED006A 		vldr.32	s13, [r3]
 662:Core/Src/Main/Action.c **** 	while(start_angle + param->Theta2 > Angle)
 2224              		.loc 1 662 7 view .LVU702
 2225 00ac F4EEE67A 		vcmpe.f32	s15, s13
 2226 00b0 F1EE10FA 		vmrs	APSR_nzcv, FPSCR
 2227 00b4 ECDC     		bgt	.L151
 2228 00b6 03E0     		b	.L152
 2229              	.L160:
 666:Core/Src/Main/Action.c **** 	}
 667:Core/Src/Main/Action.c **** 	while( start_angle + param->Theta3 > Angle)
 668:Core/Src/Main/Action.c **** 	{
 669:Core/Src/Main/Action.c **** 			AngularAcceleration = -param->Alpha;
 670:Core/Src/Main/Action.c **** 			if(TargetAngularV < 0)
 671:Core/Src/Main/Action.c **** 			{
 672:Core/Src/Main/Action.c **** 				TargetAngularV = 0;
 673:Core/Src/Main/Action.c **** 				break;
 674:Core/Src/Main/Action.c **** 			}
 675:Core/Src/Main/Action.c **** 			TargetVelocity[BODY] = ExploreVelocity;
 2230              		.loc 1 675 4 is_stmt 1 view .LVU703
 2231              		.loc 1 675 25 is_stmt 0 view .LVU704
 2232 00b8 304B     		ldr	r3, .L162+20
 2233 00ba 1A68     		ldr	r2, [r3]	@ float
 2234 00bc 304B     		ldr	r3, .L162+24
 2235 00be 9A60     		str	r2, [r3, #8]	@ float
 2236              	.L152:
 667:Core/Src/Main/Action.c **** 	{
 2237              		.loc 1 667 7 is_stmt 1 view .LVU705
 667:Core/Src/Main/Action.c **** 	{
 2238              		.loc 1 667 28 is_stmt 0 view .LVU706
 2239 00c0 D0ED066A 		vldr.32	s13, [r0, #24]
 667:Core/Src/Main/Action.c **** 	{
 2240              		.loc 1 667 21 view .LVU707
 2241 00c4 36EE876A 		vadd.f32	s12, s13, s14
 667:Core/Src/Main/Action.c **** 	{
 2242              		.loc 1 667 37 view .LVU708
 2243 00c8 2E4B     		ldr	r3, .L162+28
 2244 00ca D3ED007A 		vldr.32	s15, [r3]
 667:Core/Src/Main/Action.c **** 	{
 2245              		.loc 1 667 7 view .LVU709
 2246 00ce B4EEE76A 		vcmpe.f32	s12, s15
 2247 00d2 F1EE10FA 		vmrs	APSR_nzcv, FPSCR
 2248 00d6 10DD     		ble	.L155
 669:Core/Src/Main/Action.c **** 			if(TargetAngularV < 0)
 2249              		.loc 1 669 4 is_stmt 1 view .LVU710
 669:Core/Src/Main/Action.c **** 			if(TargetAngularV < 0)
ARM GAS  C:\Users\leopi\AppData\Local\Temp\ccNfTY3A.s 			page 57


 2250              		.loc 1 669 32 is_stmt 0 view .LVU711
 2251 00d8 D0ED027A 		vldr.32	s15, [r0, #8]
 669:Core/Src/Main/Action.c **** 			if(TargetAngularV < 0)
 2252              		.loc 1 669 26 view .LVU712
 2253 00dc F1EE677A 		vneg.f32	s15, s15
 669:Core/Src/Main/Action.c **** 			if(TargetAngularV < 0)
 2254              		.loc 1 669 24 view .LVU713
 2255 00e0 254B     		ldr	r3, .L162+16
 2256 00e2 C3ED007A 		vstr.32	s15, [r3]
 670:Core/Src/Main/Action.c **** 			{
 2257              		.loc 1 670 4 is_stmt 1 view .LVU714
 670:Core/Src/Main/Action.c **** 			{
 2258              		.loc 1 670 22 is_stmt 0 view .LVU715
 2259 00e6 224B     		ldr	r3, .L162+8
 2260 00e8 D3ED007A 		vldr.32	s15, [r3]
 670:Core/Src/Main/Action.c **** 			{
 2261              		.loc 1 670 6 view .LVU716
 2262 00ec F5EEC07A 		vcmpe.f32	s15, #0
 2263 00f0 F1EE10FA 		vmrs	APSR_nzcv, FPSCR
 2264 00f4 E0D5     		bpl	.L160
 672:Core/Src/Main/Action.c **** 				break;
 2265              		.loc 1 672 5 is_stmt 1 view .LVU717
 672:Core/Src/Main/Action.c **** 				break;
 2266              		.loc 1 672 20 is_stmt 0 view .LVU718
 2267 00f6 0022     		movs	r2, #0
 2268 00f8 1A60     		str	r2, [r3]	@ float
 673:Core/Src/Main/Action.c **** 			}
 2269              		.loc 1 673 5 is_stmt 1 view .LVU719
 2270              	.L155:
 676:Core/Src/Main/Action.c **** 	}
 677:Core/Src/Main/Action.c **** 	AngularAcceleration = 0;
 2271              		.loc 1 677 2 view .LVU720
 2272              		.loc 1 677 22 is_stmt 0 view .LVU721
 2273 00fa 0023     		movs	r3, #0
 2274 00fc 1E4A     		ldr	r2, .L162+16
 2275 00fe 1360     		str	r3, [r2]	@ float
 678:Core/Src/Main/Action.c **** 	AngularLeapsity = 0;
 2276              		.loc 1 678 2 is_stmt 1 view .LVU722
 679:Core/Src/Main/Action.c **** 	TargetAngularV = 0;
 2277              		.loc 1 679 2 view .LVU723
 2278              		.loc 1 679 17 is_stmt 0 view .LVU724
 2279 0100 1B4A     		ldr	r2, .L162+8
 2280 0102 1360     		str	r3, [r2]	@ float
 680:Core/Src/Main/Action.c **** 	now_pulse = TotalPulse[LEFT] + TotalPulse[RIGHT];
 2281              		.loc 1 680 2 is_stmt 1 view .LVU725
 2282              		.loc 1 680 24 is_stmt 0 view .LVU726
 2283 0104 194A     		ldr	r2, .L162+4
 2284 0106 1368     		ldr	r3, [r2]
 2285              		.loc 1 680 43 view .LVU727
 2286 0108 5268     		ldr	r2, [r2, #4]
 2287              		.loc 1 680 12 view .LVU728
 2288 010a 1344     		add	r3, r3, r2
 2289 010c 06EE103A 		vmov	s12, r3	@ int
 2290              	.LVL142:
 681:Core/Src/Main/Action.c **** 	while( now_pulse + param->Fol > (TotalPulse[LEFT] + TotalPulse[RIGHT]) )
 2291              		.loc 1 681 2 is_stmt 1 view .LVU729
 2292              	.L157:
ARM GAS  C:\Users\leopi\AppData\Local\Temp\ccNfTY3A.s 			page 58


 2293              		.loc 1 681 7 view .LVU730
 2294              		.loc 1 681 26 is_stmt 0 view .LVU731
 2295 0110 D0ED017A 		vldr.32	s15, [r0, #4]
 2296              		.loc 1 681 19 view .LVU732
 2297 0114 B8EEC67A 		vcvt.f32.s32	s14, s12
 2298 0118 37EE277A 		vadd.f32	s14, s14, s15
 2299              		.loc 1 681 45 view .LVU733
 2300 011c 134A     		ldr	r2, .L162+4
 2301 011e 1368     		ldr	r3, [r2]
 2302              		.loc 1 681 64 view .LVU734
 2303 0120 5268     		ldr	r2, [r2, #4]
 2304              		.loc 1 681 52 view .LVU735
 2305 0122 1344     		add	r3, r3, r2
 2306              		.loc 1 681 32 view .LVU736
 2307 0124 07EE903A 		vmov	s15, r3	@ int
 2308 0128 F8EEE77A 		vcvt.f32.s32	s15, s15
 2309              		.loc 1 681 7 view .LVU737
 2310 012c B4EEE77A 		vcmpe.f32	s14, s15
 2311 0130 F1EE10FA 		vmrs	APSR_nzcv, FPSCR
 2312 0134 07DD     		ble	.L161
 682:Core/Src/Main/Action.c **** 	{
 683:Core/Src/Main/Action.c **** 			TargetAngularV = 0;
 2313              		.loc 1 683 4 is_stmt 1 view .LVU738
 2314              		.loc 1 683 19 is_stmt 0 view .LVU739
 2315 0136 0E4B     		ldr	r3, .L162+8
 2316 0138 0022     		movs	r2, #0
 2317 013a 1A60     		str	r2, [r3]	@ float
 684:Core/Src/Main/Action.c **** 			TargetVelocity[BODY] = ExploreVelocity;
 2318              		.loc 1 684 4 is_stmt 1 view .LVU740
 2319              		.loc 1 684 25 is_stmt 0 view .LVU741
 2320 013c 0F4B     		ldr	r3, .L162+20
 2321 013e 1A68     		ldr	r2, [r3]	@ float
 2322 0140 0F4B     		ldr	r3, .L162+24
 2323 0142 9A60     		str	r2, [r3, #8]	@ float
 2324 0144 E4E7     		b	.L157
 2325              	.L161:
 685:Core/Src/Main/Action.c **** 	}
 686:Core/Src/Main/Action.c **** 	TargetAngle += param->Theta3;//90*M_PI/180; rad
 2326              		.loc 1 686 2 is_stmt 1 view .LVU742
 2327              		.loc 1 686 14 is_stmt 0 view .LVU743
 2328 0146 104B     		ldr	r3, .L162+32
 2329 0148 D3ED007A 		vldr.32	s15, [r3]
 2330 014c 76EEA76A 		vadd.f32	s13, s13, s15
 2331 0150 C3ED006A 		vstr.32	s13, [r3]
 687:Core/Src/Main/Action.c **** 	KeepPulse[BODY] += TotalPulse[BODY] - KeepPulse[BODY];
 2332              		.loc 1 687 2 is_stmt 1 view .LVU744
 2333              		.loc 1 687 31 is_stmt 0 view .LVU745
 2334 0154 054B     		ldr	r3, .L162+4
 2335 0156 9A68     		ldr	r2, [r3, #8]
 2336              		.loc 1 687 49 view .LVU746
 2337 0158 0C4B     		ldr	r3, .L162+36
 2338 015a 9968     		ldr	r1, [r3, #8]
 2339              		.loc 1 687 38 view .LVU747
 2340 015c 511A     		subs	r1, r2, r1
 2341              		.loc 1 687 18 view .LVU748
 2342 015e 9A68     		ldr	r2, [r3, #8]
 2343 0160 0A44     		add	r2, r2, r1
ARM GAS  C:\Users\leopi\AppData\Local\Temp\ccNfTY3A.s 			page 59


 2344 0162 9A60     		str	r2, [r3, #8]
 688:Core/Src/Main/Action.c **** 
 689:Core/Src/Main/Action.c **** }
 2345              		.loc 1 689 1 view .LVU749
 2346 0164 7047     		bx	lr
 2347              	.L163:
 2348 0166 00BF     		.align	2
 2349              	.L162:
 2350 0168 00000000 		.word	Pid
 2351 016c 00000000 		.word	TotalPulse
 2352 0170 00000000 		.word	TargetAngularV
 2353 0174 00000000 		.word	AngularLeapsity
 2354 0178 00000000 		.word	AngularAcceleration
 2355 017c 00000000 		.word	ExploreVelocity
 2356 0180 00000000 		.word	TargetVelocity
 2357 0184 00000000 		.word	Angle
 2358 0188 00000000 		.word	TargetAngle
 2359 018c 00000000 		.word	KeepPulse
 2360              		.cfi_endproc
 2361              	.LFE246:
 2363              		.section	.text.SlalomFastLeft,"ax",%progbits
 2364              		.align	1
 2365              		.global	SlalomFastLeft
 2366              		.syntax unified
 2367              		.thumb
 2368              		.thumb_func
 2370              	SlalomFastLeft:
 2371              	.LVL143:
 2372              	.LFB247:
 690:Core/Src/Main/Action.c **** void SlalomFastLeft(slalom_parameter *param)	//ç¾åœ¨ã®é€Ÿåº¦ã‹ã‚‰ã€æœ€é©ãªè§’åŠ é€Ÿåº¦ã¨ã€ç
 691:Core/Src/Main/Action.c **** {
 2373              		.loc 1 691 1 is_stmt 1 view -0
 2374              		.cfi_startproc
 2375              		@ args = 0, pretend = 0, frame = 0
 2376              		@ frame_needed = 0, uses_anonymous_args = 0
 2377              		@ link register save eliminated.
 692:Core/Src/Main/Action.c **** 	Pid[A_VELO_PID].flag = 1;
 2378              		.loc 1 692 2 view .LVU751
 2379              		.loc 1 692 23 is_stmt 0 view .LVU752
 2380 0000 584B     		ldr	r3, .L181
 2381 0002 0122     		movs	r2, #1
 2382 0004 9A62     		str	r2, [r3, #40]
 693:Core/Src/Main/Action.c **** 	//ä¸€æ—¦å‰å£è£œæ­£ãªã—ã§
 694:Core/Src/Main/Action.c **** 	int now_pulse;
 2383              		.loc 1 694 2 is_stmt 1 view .LVU753
 695:Core/Src/Main/Action.c **** 
 696:Core/Src/Main/Action.c **** 	now_pulse = TotalPulse[LEFT] + TotalPulse[RIGHT];
 2384              		.loc 1 696 2 view .LVU754
 2385              		.loc 1 696 24 is_stmt 0 view .LVU755
 2386 0006 584A     		ldr	r2, .L181+4
 2387 0008 1368     		ldr	r3, [r2]
 2388              		.loc 1 696 43 view .LVU756
 2389 000a 5268     		ldr	r2, [r2, #4]
 2390              		.loc 1 696 12 view .LVU757
 2391 000c 1344     		add	r3, r3, r2
 2392 000e 06EE903A 		vmov	s13, r3	@ int
 2393              	.LVL144:
ARM GAS  C:\Users\leopi\AppData\Local\Temp\ccNfTY3A.s 			page 60


 697:Core/Src/Main/Action.c **** 		while( now_pulse + param->Pre  > (TotalPulse[LEFT] + TotalPulse[RIGHT]) ) //ç§»å‹•é‡ã‚’æ¡ä»¶ã«
 2394              		.loc 1 697 3 is_stmt 1 view .LVU758
 2395              		.loc 1 697 8 is_stmt 0 view .LVU759
 2396 0012 08E0     		b	.L165
 2397              	.LVL145:
 2398              	.L166:
 698:Core/Src/Main/Action.c **** 		{
 699:Core/Src/Main/Action.c **** 				TargetAngularV = 0;
 2399              		.loc 1 699 5 is_stmt 1 view .LVU760
 2400              		.loc 1 699 20 is_stmt 0 view .LVU761
 2401 0014 0023     		movs	r3, #0
 2402 0016 554A     		ldr	r2, .L181+8
 2403 0018 1360     		str	r3, [r2]	@ float
 700:Core/Src/Main/Action.c **** 				AngularAcceleration = 0;
 2404              		.loc 1 700 5 is_stmt 1 view .LVU762
 2405              		.loc 1 700 25 is_stmt 0 view .LVU763
 2406 001a 554A     		ldr	r2, .L181+12
 2407 001c 1360     		str	r3, [r2]	@ float
 701:Core/Src/Main/Action.c **** 				TargetVelocity[BODY] = ExploreVelocity;
 2408              		.loc 1 701 5 is_stmt 1 view .LVU764
 2409              		.loc 1 701 26 is_stmt 0 view .LVU765
 2410 001e 554B     		ldr	r3, .L181+16
 2411 0020 1A68     		ldr	r2, [r3]	@ float
 2412 0022 554B     		ldr	r3, .L181+20
 2413 0024 9A60     		str	r2, [r3, #8]	@ float
 2414              	.L165:
 697:Core/Src/Main/Action.c **** 		{
 2415              		.loc 1 697 8 is_stmt 1 view .LVU766
 697:Core/Src/Main/Action.c **** 		{
 2416              		.loc 1 697 27 is_stmt 0 view .LVU767
 2417 0026 D0ED007A 		vldr.32	s15, [r0]
 697:Core/Src/Main/Action.c **** 		{
 2418              		.loc 1 697 20 view .LVU768
 2419 002a B8EEE67A 		vcvt.f32.s32	s14, s13
 2420 002e 37EE277A 		vadd.f32	s14, s14, s15
 697:Core/Src/Main/Action.c **** 		{
 2421              		.loc 1 697 47 view .LVU769
 2422 0032 4D4A     		ldr	r2, .L181+4
 2423 0034 1368     		ldr	r3, [r2]
 697:Core/Src/Main/Action.c **** 		{
 2424              		.loc 1 697 66 view .LVU770
 2425 0036 5268     		ldr	r2, [r2, #4]
 697:Core/Src/Main/Action.c **** 		{
 2426              		.loc 1 697 54 view .LVU771
 2427 0038 1344     		add	r3, r3, r2
 697:Core/Src/Main/Action.c **** 		{
 2428              		.loc 1 697 34 view .LVU772
 2429 003a 07EE903A 		vmov	s15, r3	@ int
 2430 003e F8EEE77A 		vcvt.f32.s32	s15, s15
 697:Core/Src/Main/Action.c **** 		{
 2431              		.loc 1 697 8 view .LVU773
 2432 0042 B4EEE77A 		vcmpe.f32	s14, s15
 2433 0046 F1EE10FA 		vmrs	APSR_nzcv, FPSCR
 2434 004a E3DC     		bgt	.L166
 702:Core/Src/Main/Action.c **** 		}
 703:Core/Src/Main/Action.c **** 	Pid[A_VELO_PID].flag = 0;
 2435              		.loc 1 703 2 is_stmt 1 view .LVU774
ARM GAS  C:\Users\leopi\AppData\Local\Temp\ccNfTY3A.s 			page 61


 2436              		.loc 1 703 23 is_stmt 0 view .LVU775
 2437 004c 454B     		ldr	r3, .L181
 2438 004e 0022     		movs	r2, #0
 2439 0050 9A62     		str	r2, [r3, #40]
 704:Core/Src/Main/Action.c **** 	float start_angle = Angle;
 2440              		.loc 1 704 2 is_stmt 1 view .LVU776
 2441              		.loc 1 704 8 is_stmt 0 view .LVU777
 2442 0052 4A4B     		ldr	r3, .L181+24
 2443 0054 93ED007A 		vldr.32	s14, [r3]
 2444              	.LVL146:
 705:Core/Src/Main/Action.c **** 	while(start_angle - param->Theta1 < Angle)
 2445              		.loc 1 705 2 is_stmt 1 view .LVU778
 2446              		.loc 1 705 7 is_stmt 0 view .LVU779
 2447 0058 0AE0     		b	.L167
 2448              	.LVL147:
 2449              	.L168:
 706:Core/Src/Main/Action.c **** 	{
 707:Core/Src/Main/Action.c **** 			AngularAcceleration = -param->Alpha;
 2450              		.loc 1 707 4 is_stmt 1 view .LVU780
 2451              		.loc 1 707 32 is_stmt 0 view .LVU781
 2452 005a D0ED027A 		vldr.32	s15, [r0, #8]
 2453              		.loc 1 707 26 view .LVU782
 2454 005e F1EE677A 		vneg.f32	s15, s15
 2455              		.loc 1 707 24 view .LVU783
 2456 0062 434B     		ldr	r3, .L181+12
 2457 0064 C3ED007A 		vstr.32	s15, [r3]
 708:Core/Src/Main/Action.c **** 			TargetVelocity[BODY] = ExploreVelocity;
 2458              		.loc 1 708 4 is_stmt 1 view .LVU784
 2459              		.loc 1 708 25 is_stmt 0 view .LVU785
 2460 0068 424B     		ldr	r3, .L181+16
 2461 006a 1A68     		ldr	r2, [r3]	@ float
 2462 006c 424B     		ldr	r3, .L181+20
 2463 006e 9A60     		str	r2, [r3, #8]	@ float
 2464              	.L167:
 705:Core/Src/Main/Action.c **** 	while(start_angle - param->Theta1 < Angle)
 2465              		.loc 1 705 7 is_stmt 1 view .LVU786
 705:Core/Src/Main/Action.c **** 	while(start_angle - param->Theta1 < Angle)
 2466              		.loc 1 705 27 is_stmt 0 view .LVU787
 2467 0070 D0ED047A 		vldr.32	s15, [r0, #16]
 705:Core/Src/Main/Action.c **** 	while(start_angle - param->Theta1 < Angle)
 2468              		.loc 1 705 20 view .LVU788
 2469 0074 77EE677A 		vsub.f32	s15, s14, s15
 705:Core/Src/Main/Action.c **** 	while(start_angle - param->Theta1 < Angle)
 2470              		.loc 1 705 36 view .LVU789
 2471 0078 404B     		ldr	r3, .L181+24
 2472 007a D3ED006A 		vldr.32	s13, [r3]
 705:Core/Src/Main/Action.c **** 	while(start_angle - param->Theta1 < Angle)
 2473              		.loc 1 705 7 view .LVU790
 2474 007e F4EEE67A 		vcmpe.f32	s15, s13
 2475 0082 F1EE10FA 		vmrs	APSR_nzcv, FPSCR
 2476 0086 E8D4     		bmi	.L168
 709:Core/Src/Main/Action.c **** 	}
 710:Core/Src/Main/Action.c **** 	AngularAcceleration = 0;
 2477              		.loc 1 710 2 is_stmt 1 view .LVU791
 2478              		.loc 1 710 22 is_stmt 0 view .LVU792
 2479 0088 0023     		movs	r3, #0
 2480 008a 394A     		ldr	r2, .L181+12
ARM GAS  C:\Users\leopi\AppData\Local\Temp\ccNfTY3A.s 			page 62


 2481 008c 1360     		str	r3, [r2]	@ float
 711:Core/Src/Main/Action.c **** 	AngularLeapsity = 0;
 2482              		.loc 1 711 2 is_stmt 1 view .LVU793
 2483              		.loc 1 711 18 is_stmt 0 view .LVU794
 2484 008e 3C4A     		ldr	r2, .L181+28
 2485 0090 1360     		str	r3, [r2]	@ float
 712:Core/Src/Main/Action.c **** 	while(start_angle - param->Theta2 < Angle)
 2486              		.loc 1 712 2 is_stmt 1 view .LVU795
 2487              		.loc 1 712 7 is_stmt 0 view .LVU796
 2488 0092 06E0     		b	.L169
 2489              	.L170:
 713:Core/Src/Main/Action.c **** 	{
 714:Core/Src/Main/Action.c **** 			TargetAngularV = TargetAngularV;
 2490              		.loc 1 714 4 is_stmt 1 view .LVU797
 2491              		.loc 1 714 19 is_stmt 0 view .LVU798
 2492 0094 354B     		ldr	r3, .L181+8
 2493 0096 1A68     		ldr	r2, [r3]	@ float
 2494 0098 1A60     		str	r2, [r3]	@ float
 715:Core/Src/Main/Action.c **** 			TargetVelocity[BODY] = ExploreVelocity;
 2495              		.loc 1 715 4 is_stmt 1 view .LVU799
 2496              		.loc 1 715 25 is_stmt 0 view .LVU800
 2497 009a 364B     		ldr	r3, .L181+16
 2498 009c 1A68     		ldr	r2, [r3]	@ float
 2499 009e 364B     		ldr	r3, .L181+20
 2500 00a0 9A60     		str	r2, [r3, #8]	@ float
 2501              	.L169:
 712:Core/Src/Main/Action.c **** 	while(start_angle - param->Theta2 < Angle)
 2502              		.loc 1 712 7 is_stmt 1 view .LVU801
 712:Core/Src/Main/Action.c **** 	while(start_angle - param->Theta2 < Angle)
 2503              		.loc 1 712 27 is_stmt 0 view .LVU802
 2504 00a2 D0ED057A 		vldr.32	s15, [r0, #20]
 712:Core/Src/Main/Action.c **** 	while(start_angle - param->Theta2 < Angle)
 2505              		.loc 1 712 20 view .LVU803
 2506 00a6 77EE677A 		vsub.f32	s15, s14, s15
 712:Core/Src/Main/Action.c **** 	while(start_angle - param->Theta2 < Angle)
 2507              		.loc 1 712 36 view .LVU804
 2508 00aa 344B     		ldr	r3, .L181+24
 2509 00ac D3ED006A 		vldr.32	s13, [r3]
 712:Core/Src/Main/Action.c **** 	while(start_angle - param->Theta2 < Angle)
 2510              		.loc 1 712 7 view .LVU805
 2511 00b0 F4EEE67A 		vcmpe.f32	s15, s13
 2512 00b4 F1EE10FA 		vmrs	APSR_nzcv, FPSCR
 2513 00b8 ECD4     		bmi	.L170
 2514 00ba 03E0     		b	.L171
 2515              	.L179:
 716:Core/Src/Main/Action.c **** 	}
 717:Core/Src/Main/Action.c **** 
 718:Core/Src/Main/Action.c **** 	while( start_angle - param->Theta3 < Angle)
 719:Core/Src/Main/Action.c **** 	{
 720:Core/Src/Main/Action.c **** 			AngularAcceleration = param->Alpha;
 721:Core/Src/Main/Action.c **** 			if(TargetAngularV > 0)
 722:Core/Src/Main/Action.c **** 			{
 723:Core/Src/Main/Action.c **** 				TargetAngularV = 0;
 724:Core/Src/Main/Action.c **** 				break;
 725:Core/Src/Main/Action.c **** 			}
 726:Core/Src/Main/Action.c **** 			TargetVelocity[BODY] = ExploreVelocity;
 2516              		.loc 1 726 4 is_stmt 1 view .LVU806
ARM GAS  C:\Users\leopi\AppData\Local\Temp\ccNfTY3A.s 			page 63


 2517              		.loc 1 726 25 is_stmt 0 view .LVU807
 2518 00bc 2D4B     		ldr	r3, .L181+16
 2519 00be 1A68     		ldr	r2, [r3]	@ float
 2520 00c0 2D4B     		ldr	r3, .L181+20
 2521 00c2 9A60     		str	r2, [r3, #8]	@ float
 2522              	.L171:
 718:Core/Src/Main/Action.c **** 	{
 2523              		.loc 1 718 7 is_stmt 1 view .LVU808
 718:Core/Src/Main/Action.c **** 	{
 2524              		.loc 1 718 28 is_stmt 0 view .LVU809
 2525 00c4 D0ED066A 		vldr.32	s13, [r0, #24]
 718:Core/Src/Main/Action.c **** 	{
 2526              		.loc 1 718 21 view .LVU810
 2527 00c8 37EE666A 		vsub.f32	s12, s14, s13
 718:Core/Src/Main/Action.c **** 	{
 2528              		.loc 1 718 37 view .LVU811
 2529 00cc 2B4B     		ldr	r3, .L181+24
 2530 00ce D3ED007A 		vldr.32	s15, [r3]
 718:Core/Src/Main/Action.c **** 	{
 2531              		.loc 1 718 7 view .LVU812
 2532 00d2 B4EEE76A 		vcmpe.f32	s12, s15
 2533 00d6 F1EE10FA 		vmrs	APSR_nzcv, FPSCR
 2534 00da 0CD5     		bpl	.L174
 720:Core/Src/Main/Action.c **** 			if(TargetAngularV > 0)
 2535              		.loc 1 720 4 is_stmt 1 view .LVU813
 720:Core/Src/Main/Action.c **** 			if(TargetAngularV > 0)
 2536              		.loc 1 720 31 is_stmt 0 view .LVU814
 2537 00dc 8268     		ldr	r2, [r0, #8]	@ float
 720:Core/Src/Main/Action.c **** 			if(TargetAngularV > 0)
 2538              		.loc 1 720 24 view .LVU815
 2539 00de 244B     		ldr	r3, .L181+12
 2540 00e0 1A60     		str	r2, [r3]	@ float
 721:Core/Src/Main/Action.c **** 			{
 2541              		.loc 1 721 4 is_stmt 1 view .LVU816
 721:Core/Src/Main/Action.c **** 			{
 2542              		.loc 1 721 22 is_stmt 0 view .LVU817
 2543 00e2 224B     		ldr	r3, .L181+8
 2544 00e4 D3ED007A 		vldr.32	s15, [r3]
 721:Core/Src/Main/Action.c **** 			{
 2545              		.loc 1 721 6 view .LVU818
 2546 00e8 F5EEC07A 		vcmpe.f32	s15, #0
 2547 00ec F1EE10FA 		vmrs	APSR_nzcv, FPSCR
 2548 00f0 E4DD     		ble	.L179
 723:Core/Src/Main/Action.c **** 				break;
 2549              		.loc 1 723 5 is_stmt 1 view .LVU819
 723:Core/Src/Main/Action.c **** 				break;
 2550              		.loc 1 723 20 is_stmt 0 view .LVU820
 2551 00f2 0022     		movs	r2, #0
 2552 00f4 1A60     		str	r2, [r3]	@ float
 724:Core/Src/Main/Action.c **** 			}
 2553              		.loc 1 724 5 is_stmt 1 view .LVU821
 2554              	.L174:
 727:Core/Src/Main/Action.c **** 	}
 728:Core/Src/Main/Action.c **** 	AngularAcceleration = 0;
 2555              		.loc 1 728 2 view .LVU822
 2556              		.loc 1 728 22 is_stmt 0 view .LVU823
 2557 00f6 0023     		movs	r3, #0
ARM GAS  C:\Users\leopi\AppData\Local\Temp\ccNfTY3A.s 			page 64


 2558 00f8 1D4A     		ldr	r2, .L181+12
 2559 00fa 1360     		str	r3, [r2]	@ float
 729:Core/Src/Main/Action.c **** 	AngularLeapsity = 0;
 2560              		.loc 1 729 2 is_stmt 1 view .LVU824
 730:Core/Src/Main/Action.c **** 	TargetAngularV = 0;
 2561              		.loc 1 730 2 view .LVU825
 2562              		.loc 1 730 17 is_stmt 0 view .LVU826
 2563 00fc 1B4A     		ldr	r2, .L181+8
 2564 00fe 1360     		str	r3, [r2]	@ float
 731:Core/Src/Main/Action.c **** 
 732:Core/Src/Main/Action.c **** 	now_pulse = TotalPulse[LEFT] + TotalPulse[RIGHT];
 2565              		.loc 1 732 2 is_stmt 1 view .LVU827
 2566              		.loc 1 732 24 is_stmt 0 view .LVU828
 2567 0100 194A     		ldr	r2, .L181+4
 2568 0102 1368     		ldr	r3, [r2]
 2569              		.loc 1 732 43 view .LVU829
 2570 0104 5268     		ldr	r2, [r2, #4]
 2571              		.loc 1 732 12 view .LVU830
 2572 0106 1344     		add	r3, r3, r2
 2573 0108 06EE103A 		vmov	s12, r3	@ int
 2574              	.LVL148:
 733:Core/Src/Main/Action.c **** 	while( now_pulse + param->Fol > (TotalPulse[LEFT] + TotalPulse[RIGHT]) )
 2575              		.loc 1 733 2 is_stmt 1 view .LVU831
 2576              	.L176:
 2577              		.loc 1 733 7 view .LVU832
 2578              		.loc 1 733 26 is_stmt 0 view .LVU833
 2579 010c D0ED017A 		vldr.32	s15, [r0, #4]
 2580              		.loc 1 733 19 view .LVU834
 2581 0110 B8EEC67A 		vcvt.f32.s32	s14, s12
 2582 0114 37EE277A 		vadd.f32	s14, s14, s15
 2583              		.loc 1 733 45 view .LVU835
 2584 0118 134A     		ldr	r2, .L181+4
 2585 011a 1368     		ldr	r3, [r2]
 2586              		.loc 1 733 64 view .LVU836
 2587 011c 5268     		ldr	r2, [r2, #4]
 2588              		.loc 1 733 52 view .LVU837
 2589 011e 1344     		add	r3, r3, r2
 2590              		.loc 1 733 32 view .LVU838
 2591 0120 07EE903A 		vmov	s15, r3	@ int
 2592 0124 F8EEE77A 		vcvt.f32.s32	s15, s15
 2593              		.loc 1 733 7 view .LVU839
 2594 0128 B4EEE77A 		vcmpe.f32	s14, s15
 2595 012c F1EE10FA 		vmrs	APSR_nzcv, FPSCR
 2596 0130 07DD     		ble	.L180
 734:Core/Src/Main/Action.c **** 	{
 735:Core/Src/Main/Action.c **** 			TargetAngularV = 0;
 2597              		.loc 1 735 4 is_stmt 1 view .LVU840
 2598              		.loc 1 735 19 is_stmt 0 view .LVU841
 2599 0132 0E4B     		ldr	r3, .L181+8
 2600 0134 0022     		movs	r2, #0
 2601 0136 1A60     		str	r2, [r3]	@ float
 736:Core/Src/Main/Action.c **** 			TargetVelocity[BODY] = ExploreVelocity;
 2602              		.loc 1 736 4 is_stmt 1 view .LVU842
 2603              		.loc 1 736 25 is_stmt 0 view .LVU843
 2604 0138 0E4B     		ldr	r3, .L181+16
 2605 013a 1A68     		ldr	r2, [r3]	@ float
 2606 013c 0E4B     		ldr	r3, .L181+20
ARM GAS  C:\Users\leopi\AppData\Local\Temp\ccNfTY3A.s 			page 65


 2607 013e 9A60     		str	r2, [r3, #8]	@ float
 2608 0140 E4E7     		b	.L176
 2609              	.L180:
 737:Core/Src/Main/Action.c **** 	}
 738:Core/Src/Main/Action.c **** 	TargetAngle += -param->Theta3;//-90*M_PI/180;
 2610              		.loc 1 738 2 is_stmt 1 view .LVU844
 2611              		.loc 1 738 14 is_stmt 0 view .LVU845
 2612 0142 104B     		ldr	r3, .L181+32
 2613 0144 D3ED007A 		vldr.32	s15, [r3]
 2614 0148 77EEE66A 		vsub.f32	s13, s15, s13
 2615 014c C3ED006A 		vstr.32	s13, [r3]
 739:Core/Src/Main/Action.c **** 	KeepPulse[BODY] += TotalPulse[BODY] - KeepPulse[BODY];
 2616              		.loc 1 739 2 is_stmt 1 view .LVU846
 2617              		.loc 1 739 31 is_stmt 0 view .LVU847
 2618 0150 054B     		ldr	r3, .L181+4
 2619 0152 9A68     		ldr	r2, [r3, #8]
 2620              		.loc 1 739 49 view .LVU848
 2621 0154 0C4B     		ldr	r3, .L181+36
 2622 0156 9968     		ldr	r1, [r3, #8]
 2623              		.loc 1 739 38 view .LVU849
 2624 0158 511A     		subs	r1, r2, r1
 2625              		.loc 1 739 18 view .LVU850
 2626 015a 9A68     		ldr	r2, [r3, #8]
 2627 015c 0A44     		add	r2, r2, r1
 2628 015e 9A60     		str	r2, [r3, #8]
 740:Core/Src/Main/Action.c **** }
 2629              		.loc 1 740 1 view .LVU851
 2630 0160 7047     		bx	lr
 2631              	.L182:
 2632 0162 00BF     		.align	2
 2633              	.L181:
 2634 0164 00000000 		.word	Pid
 2635 0168 00000000 		.word	TotalPulse
 2636 016c 00000000 		.word	TargetAngularV
 2637 0170 00000000 		.word	AngularAcceleration
 2638 0174 00000000 		.word	ExploreVelocity
 2639 0178 00000000 		.word	TargetVelocity
 2640 017c 00000000 		.word	Angle
 2641 0180 00000000 		.word	AngularLeapsity
 2642 0184 00000000 		.word	TargetAngle
 2643 0188 00000000 		.word	KeepPulse
 2644              		.cfi_endproc
 2645              	.LFE247:
 2647              		.global	__aeabi_i2d
 2648              		.global	__aeabi_dcmplt
 2649              		.section	.text.Accel,"ax",%progbits
 2650              		.align	1
 2651              		.global	Accel
 2652              		.syntax unified
 2653              		.thumb
 2654              		.thumb_func
 2656              	Accel:
 2657              	.LVL149:
 2658              	.LFB248:
 741:Core/Src/Main/Action.c **** void Accel(float add_distance, float explore_speed, maze_node *maze, profile *mouse)
 742:Core/Src/Main/Action.c **** {
 2659              		.loc 1 742 1 is_stmt 1 view -0
ARM GAS  C:\Users\leopi\AppData\Local\Temp\ccNfTY3A.s 			page 66


 2660              		.cfi_startproc
 2661              		@ args = 0, pretend = 0, frame = 0
 2662              		@ frame_needed = 0, uses_anonymous_args = 0
 2663              		.loc 1 742 1 is_stmt 0 view .LVU853
 2664 0000 2DE9F843 		push	{r3, r4, r5, r6, r7, r8, r9, lr}
 2665              	.LCFI16:
 2666              		.cfi_def_cfa_offset 32
 2667              		.cfi_offset 3, -32
 2668              		.cfi_offset 4, -28
 2669              		.cfi_offset 5, -24
 2670              		.cfi_offset 6, -20
 2671              		.cfi_offset 7, -16
 2672              		.cfi_offset 8, -12
 2673              		.cfi_offset 9, -8
 2674              		.cfi_offset 14, -4
 2675 0004 2DED028B 		vpush.64	{d8}
 2676              	.LCFI17:
 2677              		.cfi_def_cfa_offset 40
 2678              		.cfi_offset 80, -40
 2679              		.cfi_offset 81, -36
 2680 0008 B0EE608A 		vmov.f32	s16, s1
 2681 000c 8046     		mov	r8, r0
 2682 000e 8946     		mov	r9, r1
 743:Core/Src/Main/Action.c **** 	TargetAngularV = 0;
 2683              		.loc 1 743 2 is_stmt 1 view .LVU854
 2684              		.loc 1 743 17 is_stmt 0 view .LVU855
 2685 0010 414B     		ldr	r3, .L195+8
 2686 0012 0022     		movs	r2, #0
 2687 0014 1A60     		str	r2, [r3]	@ float
 744:Core/Src/Main/Action.c **** #if 0
 745:Core/Src/Main/Action.c **** 	float additional_speed=0;
 746:Core/Src/Main/Action.c **** 	additional_speed = explore_speed - CurrentVelocity[BODY];
 747:Core/Src/Main/Action.c **** 
 748:Core/Src/Main/Action.c **** 	Acceleration = T1*additional_speed*additional_speed / (2*add_distance);
 749:Core/Src/Main/Action.c **** #else
 750:Core/Src/Main/Action.c **** 	Acceleration = 2.89000f;
 2688              		.loc 1 750 2 is_stmt 1 view .LVU856
 2689              		.loc 1 750 15 is_stmt 0 view .LVU857
 2690 0016 414B     		ldr	r3, .L195+12
 2691 0018 414A     		ldr	r2, .L195+16
 2692 001a 1A60     		str	r2, [r3]	@ float
 751:Core/Src/Main/Action.c **** #endif
 752:Core/Src/Main/Action.c **** 	int target_pulse = (int)(add_distance*TO_PULSE);
 2693              		.loc 1 752 2 is_stmt 1 view .LVU858
 2694              		.loc 1 752 39 is_stmt 0 view .LVU859
 2695 001c DFED417A 		vldr.32	s15, .L195+20
 2696 0020 20EE270A 		vmul.f32	s0, s0, s15
 2697              	.LVL150:
 2698              		.loc 1 752 6 view .LVU860
 2699 0024 FDEEC07A 		vcvt.s32.f32	s15, s0
 2700 0028 17EE906A 		vmov	r6, s15	@ int
 2701              	.LVL151:
 753:Core/Src/Main/Action.c **** 
 754:Core/Src/Main/Action.c **** 	_Bool wall_cut = false;
 2702              		.loc 1 754 2 is_stmt 1 view .LVU861
 755:Core/Src/Main/Action.c **** 	Pid[A_VELO_PID].flag = 1;
 2703              		.loc 1 755 2 view .LVU862
ARM GAS  C:\Users\leopi\AppData\Local\Temp\ccNfTY3A.s 			page 67


 2704              		.loc 1 755 23 is_stmt 0 view .LVU863
 2705 002c 3E4B     		ldr	r3, .L195+24
 2706 002e 0122     		movs	r2, #1
 2707 0030 9A62     		str	r2, [r3, #40]
 756:Core/Src/Main/Action.c **** 	while( ( KeepPulse[BODY] + target_pulse) > ( TotalPulse[BODY] ) )
 2708              		.loc 1 756 2 is_stmt 1 view .LVU864
 2709              		.loc 1 756 7 is_stmt 0 view .LVU865
 2710 0032 07E0     		b	.L187
 2711              	.LVL152:
 2712              	.L185:
 757:Core/Src/Main/Action.c **** 	{
 758:Core/Src/Main/Action.c **** 		if(KeepPulse[BODY] + (target_pulse*0.80) < TotalPulse[BODY] && Calc == 0)
 759:Core/Src/Main/Action.c **** 		{
 760:Core/Src/Main/Action.c **** 			getWallState(mouse, &Photo[0], maze);
 761:Core/Src/Main/Action.c **** 			Calc = 1;
 762:Core/Src/Main/Action.c **** 		}
 763:Core/Src/Main/Action.c **** 		if(TargetVelocity[BODY] > explore_speed)
 2713              		.loc 1 763 3 is_stmt 1 view .LVU866
 2714              		.loc 1 763 20 is_stmt 0 view .LVU867
 2715 0034 3D4B     		ldr	r3, .L195+28
 2716 0036 D3ED027A 		vldr.32	s15, [r3, #8]
 2717              		.loc 1 763 5 view .LVU868
 2718 003a F4EEC87A 		vcmpe.f32	s15, s16
 2719 003e F1EE10FA 		vmrs	APSR_nzcv, FPSCR
 2720 0042 34DC     		bgt	.L193
 2721              	.L187:
 756:Core/Src/Main/Action.c **** 	while( ( KeepPulse[BODY] + target_pulse) > ( TotalPulse[BODY] ) )
 2722              		.loc 1 756 7 is_stmt 1 view .LVU869
 756:Core/Src/Main/Action.c **** 	while( ( KeepPulse[BODY] + target_pulse) > ( TotalPulse[BODY] ) )
 2723              		.loc 1 756 20 is_stmt 0 view .LVU870
 2724 0044 3A4B     		ldr	r3, .L195+32
 2725 0046 9B68     		ldr	r3, [r3, #8]
 756:Core/Src/Main/Action.c **** 	while( ( KeepPulse[BODY] + target_pulse) > ( TotalPulse[BODY] ) )
 2726              		.loc 1 756 27 view .LVU871
 2727 0048 3344     		add	r3, r3, r6
 756:Core/Src/Main/Action.c **** 	while( ( KeepPulse[BODY] + target_pulse) > ( TotalPulse[BODY] ) )
 2728              		.loc 1 756 57 view .LVU872
 2729 004a 3A4A     		ldr	r2, .L195+36
 2730 004c 9268     		ldr	r2, [r2, #8]
 756:Core/Src/Main/Action.c **** 	while( ( KeepPulse[BODY] + target_pulse) > ( TotalPulse[BODY] ) )
 2731              		.loc 1 756 7 view .LVU873
 2732 004e 9342     		cmp	r3, r2
 2733 0050 34DD     		ble	.L194
 758:Core/Src/Main/Action.c **** 		{
 2734              		.loc 1 758 3 is_stmt 1 view .LVU874
 758:Core/Src/Main/Action.c **** 		{
 2735              		.loc 1 758 15 is_stmt 0 view .LVU875
 2736 0052 374B     		ldr	r3, .L195+32
 2737 0054 9F68     		ldr	r7, [r3, #8]
 758:Core/Src/Main/Action.c **** 		{
 2738              		.loc 1 758 37 view .LVU876
 2739 0056 3046     		mov	r0, r6
 2740 0058 FFF7FEFF 		bl	__aeabi_i2d
 2741              	.LVL153:
 2742 005c 2CA3     		adr	r3, .L195
 2743 005e D3E90023 		ldrd	r2, [r3]
 2744 0062 FFF7FEFF 		bl	__aeabi_dmul
ARM GAS  C:\Users\leopi\AppData\Local\Temp\ccNfTY3A.s 			page 68


 2745              	.LVL154:
 2746 0066 0446     		mov	r4, r0
 2747 0068 0D46     		mov	r5, r1
 758:Core/Src/Main/Action.c **** 		{
 2748              		.loc 1 758 22 view .LVU877
 2749 006a 3846     		mov	r0, r7
 2750 006c FFF7FEFF 		bl	__aeabi_i2d
 2751              	.LVL155:
 2752 0070 2246     		mov	r2, r4
 2753 0072 2B46     		mov	r3, r5
 2754 0074 FFF7FEFF 		bl	__aeabi_dadd
 2755              	.LVL156:
 2756 0078 0446     		mov	r4, r0
 2757 007a 0D46     		mov	r5, r1
 758:Core/Src/Main/Action.c **** 		{
 2758              		.loc 1 758 56 view .LVU878
 2759 007c 2D4B     		ldr	r3, .L195+36
 2760 007e 9868     		ldr	r0, [r3, #8]
 758:Core/Src/Main/Action.c **** 		{
 2761              		.loc 1 758 44 view .LVU879
 2762 0080 FFF7FEFF 		bl	__aeabi_i2d
 2763              	.LVL157:
 2764 0084 0246     		mov	r2, r0
 2765 0086 0B46     		mov	r3, r1
 758:Core/Src/Main/Action.c **** 		{
 2766              		.loc 1 758 5 view .LVU880
 2767 0088 2046     		mov	r0, r4
 2768 008a 2946     		mov	r1, r5
 2769 008c FFF7FEFF 		bl	__aeabi_dcmplt
 2770              	.LVL158:
 2771 0090 0028     		cmp	r0, #0
 2772 0092 CFD0     		beq	.L185
 758:Core/Src/Main/Action.c **** 		{
 2773              		.loc 1 758 71 discriminator 1 view .LVU881
 2774 0094 284B     		ldr	r3, .L195+40
 2775 0096 1B68     		ldr	r3, [r3]
 758:Core/Src/Main/Action.c **** 		{
 2776              		.loc 1 758 63 discriminator 1 view .LVU882
 2777 0098 002B     		cmp	r3, #0
 2778 009a CBD1     		bne	.L185
 760:Core/Src/Main/Action.c **** 			Calc = 1;
 2779              		.loc 1 760 4 is_stmt 1 view .LVU883
 2780 009c 4246     		mov	r2, r8
 2781 009e 2749     		ldr	r1, .L195+44
 2782 00a0 4846     		mov	r0, r9
 2783 00a2 FFF7FEFF 		bl	getWallState
 2784              	.LVL159:
 761:Core/Src/Main/Action.c **** 		}
 2785              		.loc 1 761 4 view .LVU884
 761:Core/Src/Main/Action.c **** 		}
 2786              		.loc 1 761 9 is_stmt 0 view .LVU885
 2787 00a6 244B     		ldr	r3, .L195+40
 2788 00a8 0122     		movs	r2, #1
 2789 00aa 1A60     		str	r2, [r3]
 2790 00ac C2E7     		b	.L185
 2791              	.L193:
 764:Core/Src/Main/Action.c **** 		{
ARM GAS  C:\Users\leopi\AppData\Local\Temp\ccNfTY3A.s 			page 69


 765:Core/Src/Main/Action.c **** 			Acceleration = 0;
 2792              		.loc 1 765 4 is_stmt 1 view .LVU886
 2793              		.loc 1 765 17 is_stmt 0 view .LVU887
 2794 00ae 1B4B     		ldr	r3, .L195+12
 2795 00b0 0022     		movs	r2, #0
 2796 00b2 1A60     		str	r2, [r3]	@ float
 766:Core/Src/Main/Action.c **** 			TargetVelocity[BODY] = explore_speed;
 2797              		.loc 1 766 4 is_stmt 1 view .LVU888
 2798              		.loc 1 766 25 is_stmt 0 view .LVU889
 2799 00b4 1D4B     		ldr	r3, .L195+28
 2800 00b6 83ED028A 		vstr.32	s16, [r3, #8]
 2801 00ba C3E7     		b	.L187
 2802              	.L194:
 767:Core/Src/Main/Action.c **** 		}
 768:Core/Src/Main/Action.c **** 		//å£åˆ‡ã‚Œä¸€æ—¦ãªã—
 769:Core/Src/Main/Action.c **** //		if(wall_cut == false && ((50/*LEFT_WALL*0.5f*/ > Photo[SL]) || (50/*RIGHT_WALL*0.5f*/ > Photo[S
 770:Core/Src/Main/Action.c **** //		{
 771:Core/Src/Main/Action.c **** //			TotalPulse[BODY] = KeepPulse[BODY] + (target_pulse-(WALL_CUT_VAL*TO_PULSE));
 772:Core/Src/Main/Action.c **** //			//target_pulse = TotalPulse[BODY] -KeepPulse[BODY] + Wall_Cut_Val;
 773:Core/Src/Main/Action.c **** //			wall_cut = true;
 774:Core/Src/Main/Action.c **** //			ChangeLED(3);
 775:Core/Src/Main/Action.c **** //		}
 776:Core/Src/Main/Action.c **** 
 777:Core/Src/Main/Action.c **** 	}
 778:Core/Src/Main/Action.c **** 
 779:Core/Src/Main/Action.c **** 	Acceleration = 0;
 2803              		.loc 1 779 2 is_stmt 1 view .LVU890
 2804              		.loc 1 779 15 is_stmt 0 view .LVU891
 2805 00bc 174B     		ldr	r3, .L195+12
 2806 00be 0022     		movs	r2, #0
 2807 00c0 1A60     		str	r2, [r3]	@ float
 780:Core/Src/Main/Action.c **** //	wall_cut = false;
 781:Core/Src/Main/Action.c **** 	KeepPulse[BODY] += target_pulse;
 2808              		.loc 1 781 2 is_stmt 1 view .LVU892
 2809              		.loc 1 781 18 is_stmt 0 view .LVU893
 2810 00c2 1B4B     		ldr	r3, .L195+32
 2811 00c4 9A68     		ldr	r2, [r3, #8]
 2812 00c6 3244     		add	r2, r2, r6
 2813 00c8 9A60     		str	r2, [r3, #8]
 782:Core/Src/Main/Action.c **** 	KeepPulse[LEFT] += target_pulse*0.5f;
 2814              		.loc 1 782 2 is_stmt 1 view .LVU894
 2815              		.loc 1 782 18 is_stmt 0 view .LVU895
 2816 00ca 93ED007A 		vldr.32	s14, [r3]	@ int
 2817              		.loc 1 782 33 view .LVU896
 2818 00ce 07EE906A 		vmov	s15, r6	@ int
 2819 00d2 F8EEE77A 		vcvt.f32.s32	s15, s15
 2820 00d6 F6EE006A 		vmov.f32	s13, #5.0e-1
 2821 00da 67EEA67A 		vmul.f32	s15, s15, s13
 2822              		.loc 1 782 18 view .LVU897
 2823 00de B8EEC77A 		vcvt.f32.s32	s14, s14
 2824 00e2 37EE277A 		vadd.f32	s14, s14, s15
 2825 00e6 BDEEC77A 		vcvt.s32.f32	s14, s14
 2826 00ea 83ED007A 		vstr.32	s14, [r3]	@ int
 783:Core/Src/Main/Action.c **** 	KeepPulse[RIGHT] += target_pulse*0.5f;
 2827              		.loc 1 783 2 is_stmt 1 view .LVU898
 2828              		.loc 1 783 19 is_stmt 0 view .LVU899
 2829 00ee 93ED017A 		vldr.32	s14, [r3, #4]	@ int
ARM GAS  C:\Users\leopi\AppData\Local\Temp\ccNfTY3A.s 			page 70


 2830 00f2 B8EEC77A 		vcvt.f32.s32	s14, s14
 2831 00f6 77EE277A 		vadd.f32	s15, s14, s15
 2832 00fa FDEEE77A 		vcvt.s32.f32	s15, s15
 2833 00fe C3ED017A 		vstr.32	s15, [r3, #4]	@ int
 784:Core/Src/Main/Action.c **** }
 2834              		.loc 1 784 1 view .LVU900
 2835 0102 BDEC028B 		vldm	sp!, {d8}
 2836              	.LCFI18:
 2837              		.cfi_restore 80
 2838              		.cfi_restore 81
 2839              		.cfi_def_cfa_offset 32
 2840              	.LVL160:
 2841              		.loc 1 784 1 view .LVU901
 2842 0106 BDE8F883 		pop	{r3, r4, r5, r6, r7, r8, r9, pc}
 2843              	.LVL161:
 2844              	.L196:
 2845              		.loc 1 784 1 view .LVU902
 2846 010a 00BFAFF3 		.align	3
 2846      0080
 2847              	.L195:
 2848 0110 9A999999 		.word	-1717986918
 2849 0114 9999E93F 		.word	1072273817
 2850 0118 00000000 		.word	TargetAngularV
 2851 011c 00000000 		.word	Acceleration
 2852 0120 C3F53840 		.word	1077474755
 2853 0124 552AF744 		.word	1157048917
 2854 0128 00000000 		.word	Pid
 2855 012c 00000000 		.word	TargetVelocity
 2856 0130 00000000 		.word	KeepPulse
 2857 0134 00000000 		.word	TotalPulse
 2858 0138 00000000 		.word	Calc
 2859 013c 00000000 		.word	Photo
 2860              		.cfi_endproc
 2861              	.LFE248:
 2863              		.section	.text.Decel,"ax",%progbits
 2864              		.align	1
 2865              		.global	Decel
 2866              		.syntax unified
 2867              		.thumb
 2868              		.thumb_func
 2870              	Decel:
 2871              	.LVL162:
 2872              	.LFB249:
 785:Core/Src/Main/Action.c **** void Decel(float dec_distance, float end_speed)
 786:Core/Src/Main/Action.c **** {
 2873              		.loc 1 786 1 is_stmt 1 view -0
 2874              		.cfi_startproc
 2875              		@ args = 0, pretend = 0, frame = 0
 2876              		@ frame_needed = 0, uses_anonymous_args = 0
 2877              		.loc 1 786 1 is_stmt 0 view .LVU904
 2878 0000 F8B5     		push	{r3, r4, r5, r6, r7, lr}
 2879              	.LCFI19:
 2880              		.cfi_def_cfa_offset 24
 2881              		.cfi_offset 3, -24
 2882              		.cfi_offset 4, -20
 2883              		.cfi_offset 5, -16
 2884              		.cfi_offset 6, -12
ARM GAS  C:\Users\leopi\AppData\Local\Temp\ccNfTY3A.s 			page 71


 2885              		.cfi_offset 7, -8
 2886              		.cfi_offset 14, -4
 2887 0002 2DED028B 		vpush.64	{d8}
 2888              	.LCFI20:
 2889              		.cfi_def_cfa_offset 32
 2890              		.cfi_offset 80, -32
 2891              		.cfi_offset 81, -28
 2892 0006 B0EE608A 		vmov.f32	s16, s1
 787:Core/Src/Main/Action.c **** 	float down_speed=0;
 2893              		.loc 1 787 2 is_stmt 1 view .LVU905
 2894              	.LVL163:
 788:Core/Src/Main/Action.c **** #if 0
 789:Core/Src/Main/Action.c **** 	down_speed = CurrentVelocity[BODY] - end_speed; //end_speedãŒ0ã‹ãã†ã§ãªã„ã‹
 790:Core/Src/Main/Action.c **** 	//é€Ÿåº¦æ¸›åˆ† = åˆ°é”ã—ãŸã„æŽ¢ç´¢é€Ÿåº¦ - ç¾åœ¨ã®é€Ÿåº¦
 791:Core/Src/Main/Action.c **** 	//ã“ã‚Œãªã‚‰ç¾åœ¨é€Ÿåº¦ãŒæŽ¢ç´¢é€Ÿåº¦ã«è¿½ã„ã¤ã„ã¦ã„ã‚‹ã¨ãã¯åŠ é€Ÿåº¦0ã«ã§ãã‚‹ã€
 792:Core/Src/Main/Action.c **** 	Acceleration = -1 * (T1*down_speed*down_speed / (2*dec_distance) );
 793:Core/Src/Main/Action.c **** 
 794:Core/Src/Main/Action.c **** #else
 795:Core/Src/Main/Action.c **** 	Acceleration = -2.89;
 2895              		.loc 1 795 2 view .LVU906
 2896              		.loc 1 795 15 is_stmt 0 view .LVU907
 2897 000a 534B     		ldr	r3, .L213+8
 2898 000c 534A     		ldr	r2, .L213+12
 2899 000e 1A60     		str	r2, [r3]	@ float
 796:Core/Src/Main/Action.c **** #endif
 797:Core/Src/Main/Action.c **** 	int target_pulse = (int)(dec_distance*TO_PULSE);
 2900              		.loc 1 797 2 is_stmt 1 view .LVU908
 2901              		.loc 1 797 39 is_stmt 0 view .LVU909
 2902 0010 DFED537A 		vldr.32	s15, .L213+16
 2903 0014 20EE270A 		vmul.f32	s0, s0, s15
 2904              	.LVL164:
 2905              		.loc 1 797 6 view .LVU910
 2906 0018 FDEEC07A 		vcvt.s32.f32	s15, s0
 2907 001c 17EE906A 		vmov	r6, s15	@ int
 2908              	.LVL165:
 798:Core/Src/Main/Action.c **** 
 799:Core/Src/Main/Action.c **** 	while( (	(Photo[FR]+Photo[FL]) < 2500) && ( KeepPulse[BODY] + target_pulse) > ( TotalPulse[BODY]) 
 2909              		.loc 1 799 2 is_stmt 1 view .LVU911
 2910              		.loc 1 799 7 is_stmt 0 view .LVU912
 2911 0020 15E0     		b	.L198
 2912              	.LVL166:
 2913              	.L201:
 800:Core/Src/Main/Action.c **** 	{
 801:Core/Src/Main/Action.c **** 		if(KeepPulse[BODY] + (target_pulse*0.65) < TotalPulse[BODY] ) //è·é›¢ã§åˆ¶å¾¡ã‚’åˆ‡ã‚Šæ›¿ãˆã‚‹
 802:Core/Src/Main/Action.c **** 		{
 803:Core/Src/Main/Action.c **** 			Pid[A_VELO_PID].flag = 1;
 804:Core/Src/Main/Action.c **** 		}
 805:Core/Src/Main/Action.c **** 		if(end_speed == 0){
 806:Core/Src/Main/Action.c **** 			if(TargetVelocity[BODY] <= 90){
 807:Core/Src/Main/Action.c **** 				TargetVelocity[BODY] = 90;//end_speed;
 808:Core/Src/Main/Action.c **** 				Acceleration = 0;
 809:Core/Src/Main/Action.c **** 				TargetAngularV = 0;
 810:Core/Src/Main/Action.c **** 				AngularAcceleration = 0;
 811:Core/Src/Main/Action.c **** 			}
 812:Core/Src/Main/Action.c **** 		}
 813:Core/Src/Main/Action.c **** 		else if(end_speed != 0){
 2914              		.loc 1 813 8 is_stmt 1 view .LVU913
ARM GAS  C:\Users\leopi\AppData\Local\Temp\ccNfTY3A.s 			page 72


 2915              		.loc 1 813 10 is_stmt 0 view .LVU914
 2916 0022 B5EE408A 		vcmp.f32	s16, #0
 2917 0026 F1EE10FA 		vmrs	APSR_nzcv, FPSCR
 2918 002a 10D0     		beq	.L198
 814:Core/Src/Main/Action.c **** 			if(TargetVelocity[BODY] <= end_speed){
 2919              		.loc 1 814 4 is_stmt 1 view .LVU915
 2920              		.loc 1 814 21 is_stmt 0 view .LVU916
 2921 002c 4D4B     		ldr	r3, .L213+20
 2922 002e D3ED027A 		vldr.32	s15, [r3, #8]
 2923              		.loc 1 814 6 view .LVU917
 2924 0032 F4EEC87A 		vcmpe.f32	s15, s16
 2925 0036 F1EE10FA 		vmrs	APSR_nzcv, FPSCR
 2926 003a 08D8     		bhi	.L198
 815:Core/Src/Main/Action.c **** 				TargetVelocity[BODY] = end_speed;//90;//end_speed;
 2927              		.loc 1 815 5 is_stmt 1 view .LVU918
 2928              		.loc 1 815 26 is_stmt 0 view .LVU919
 2929 003c 83ED028A 		vstr.32	s16, [r3, #8]
 816:Core/Src/Main/Action.c **** 				Acceleration = 0;
 2930              		.loc 1 816 5 is_stmt 1 view .LVU920
 2931              		.loc 1 816 18 is_stmt 0 view .LVU921
 2932 0040 0023     		movs	r3, #0
 2933 0042 454A     		ldr	r2, .L213+8
 2934 0044 1360     		str	r3, [r2]	@ float
 817:Core/Src/Main/Action.c **** 				TargetAngularV = 0;
 2935              		.loc 1 817 5 is_stmt 1 view .LVU922
 2936              		.loc 1 817 20 is_stmt 0 view .LVU923
 2937 0046 484A     		ldr	r2, .L213+24
 2938 0048 1360     		str	r3, [r2]	@ float
 818:Core/Src/Main/Action.c **** 				AngularAcceleration = 0;
 2939              		.loc 1 818 5 is_stmt 1 view .LVU924
 2940              		.loc 1 818 25 is_stmt 0 view .LVU925
 2941 004a 484A     		ldr	r2, .L213+28
 2942 004c 1360     		str	r3, [r2]	@ float
 2943              	.L198:
 799:Core/Src/Main/Action.c **** 	{
 2944              		.loc 1 799 7 is_stmt 1 view .LVU926
 799:Core/Src/Main/Action.c **** 	{
 2945              		.loc 1 799 17 is_stmt 0 view .LVU927
 2946 004e 484B     		ldr	r3, .L213+32
 2947 0050 D3ED037A 		vldr.32	s15, [r3, #12]
 799:Core/Src/Main/Action.c **** 	{
 2948              		.loc 1 799 27 view .LVU928
 2949 0054 93ED007A 		vldr.32	s14, [r3]
 799:Core/Src/Main/Action.c **** 	{
 2950              		.loc 1 799 21 view .LVU929
 2951 0058 77EE877A 		vadd.f32	s15, s15, s14
 799:Core/Src/Main/Action.c **** 	{
 2952              		.loc 1 799 7 view .LVU930
 2953 005c 9FED457A 		vldr.32	s14, .L213+36
 2954 0060 F4EEC77A 		vcmpe.f32	s15, s14
 2955 0064 F1EE10FA 		vmrs	APSR_nzcv, FPSCR
 2956 0068 42D5     		bpl	.L205
 799:Core/Src/Main/Action.c **** 	{
 2957              		.loc 1 799 55 discriminator 1 view .LVU931
 2958 006a 434B     		ldr	r3, .L213+40
 2959 006c 9B68     		ldr	r3, [r3, #8]
 799:Core/Src/Main/Action.c **** 	{
ARM GAS  C:\Users\leopi\AppData\Local\Temp\ccNfTY3A.s 			page 73


 2960              		.loc 1 799 62 discriminator 1 view .LVU932
 2961 006e 3344     		add	r3, r3, r6
 799:Core/Src/Main/Action.c **** 	{
 2962              		.loc 1 799 92 discriminator 1 view .LVU933
 2963 0070 424A     		ldr	r2, .L213+44
 2964 0072 9268     		ldr	r2, [r2, #8]
 799:Core/Src/Main/Action.c **** 	{
 2965              		.loc 1 799 41 discriminator 1 view .LVU934
 2966 0074 9342     		cmp	r3, r2
 2967 0076 3BDD     		ble	.L205
 801:Core/Src/Main/Action.c **** 		{
 2968              		.loc 1 801 3 is_stmt 1 view .LVU935
 801:Core/Src/Main/Action.c **** 		{
 2969              		.loc 1 801 15 is_stmt 0 view .LVU936
 2970 0078 3F4B     		ldr	r3, .L213+40
 2971 007a 9F68     		ldr	r7, [r3, #8]
 801:Core/Src/Main/Action.c **** 		{
 2972              		.loc 1 801 37 view .LVU937
 2973 007c 3046     		mov	r0, r6
 2974 007e FFF7FEFF 		bl	__aeabi_i2d
 2975              	.LVL167:
 2976 0082 33A3     		adr	r3, .L213
 2977 0084 D3E90023 		ldrd	r2, [r3]
 2978 0088 FFF7FEFF 		bl	__aeabi_dmul
 2979              	.LVL168:
 2980 008c 0446     		mov	r4, r0
 2981 008e 0D46     		mov	r5, r1
 801:Core/Src/Main/Action.c **** 		{
 2982              		.loc 1 801 22 view .LVU938
 2983 0090 3846     		mov	r0, r7
 2984 0092 FFF7FEFF 		bl	__aeabi_i2d
 2985              	.LVL169:
 2986 0096 2246     		mov	r2, r4
 2987 0098 2B46     		mov	r3, r5
 2988 009a FFF7FEFF 		bl	__aeabi_dadd
 2989              	.LVL170:
 2990 009e 0446     		mov	r4, r0
 2991 00a0 0D46     		mov	r5, r1
 801:Core/Src/Main/Action.c **** 		{
 2992              		.loc 1 801 56 view .LVU939
 2993 00a2 364B     		ldr	r3, .L213+44
 2994 00a4 9868     		ldr	r0, [r3, #8]
 801:Core/Src/Main/Action.c **** 		{
 2995              		.loc 1 801 44 view .LVU940
 2996 00a6 FFF7FEFF 		bl	__aeabi_i2d
 2997              	.LVL171:
 2998 00aa 0246     		mov	r2, r0
 2999 00ac 0B46     		mov	r3, r1
 801:Core/Src/Main/Action.c **** 		{
 3000              		.loc 1 801 5 view .LVU941
 3001 00ae 2046     		mov	r0, r4
 3002 00b0 2946     		mov	r1, r5
 3003 00b2 FFF7FEFF 		bl	__aeabi_dcmplt
 3004              	.LVL172:
 3005 00b6 10B1     		cbz	r0, .L199
 803:Core/Src/Main/Action.c **** 		}
 3006              		.loc 1 803 4 is_stmt 1 view .LVU942
ARM GAS  C:\Users\leopi\AppData\Local\Temp\ccNfTY3A.s 			page 74


 803:Core/Src/Main/Action.c **** 		}
 3007              		.loc 1 803 25 is_stmt 0 view .LVU943
 3008 00b8 314B     		ldr	r3, .L213+48
 3009 00ba 0122     		movs	r2, #1
 3010 00bc 9A62     		str	r2, [r3, #40]
 3011              	.L199:
 805:Core/Src/Main/Action.c **** 			if(TargetVelocity[BODY] <= 90){
 3012              		.loc 1 805 3 is_stmt 1 view .LVU944
 805:Core/Src/Main/Action.c **** 			if(TargetVelocity[BODY] <= 90){
 3013              		.loc 1 805 5 is_stmt 0 view .LVU945
 3014 00be B5EE408A 		vcmp.f32	s16, #0
 3015 00c2 F1EE10FA 		vmrs	APSR_nzcv, FPSCR
 3016 00c6 ACD1     		bne	.L201
 806:Core/Src/Main/Action.c **** 				TargetVelocity[BODY] = 90;//end_speed;
 3017              		.loc 1 806 4 is_stmt 1 view .LVU946
 806:Core/Src/Main/Action.c **** 				TargetVelocity[BODY] = 90;//end_speed;
 3018              		.loc 1 806 21 is_stmt 0 view .LVU947
 3019 00c8 264B     		ldr	r3, .L213+20
 3020 00ca 93ED027A 		vldr.32	s14, [r3, #8]
 806:Core/Src/Main/Action.c **** 				TargetVelocity[BODY] = 90;//end_speed;
 3021              		.loc 1 806 6 view .LVU948
 3022 00ce DFED2D7A 		vldr.32	s15, .L213+52
 3023 00d2 B4EEE77A 		vcmpe.f32	s14, s15
 3024 00d6 F1EE10FA 		vmrs	APSR_nzcv, FPSCR
 3025 00da B8D8     		bhi	.L198
 807:Core/Src/Main/Action.c **** 				Acceleration = 0;
 3026              		.loc 1 807 5 is_stmt 1 view .LVU949
 807:Core/Src/Main/Action.c **** 				Acceleration = 0;
 3027              		.loc 1 807 26 is_stmt 0 view .LVU950
 3028 00dc C3ED027A 		vstr.32	s15, [r3, #8]
 808:Core/Src/Main/Action.c **** 				TargetAngularV = 0;
 3029              		.loc 1 808 5 is_stmt 1 view .LVU951
 808:Core/Src/Main/Action.c **** 				TargetAngularV = 0;
 3030              		.loc 1 808 18 is_stmt 0 view .LVU952
 3031 00e0 0023     		movs	r3, #0
 3032 00e2 1D4A     		ldr	r2, .L213+8
 3033 00e4 1360     		str	r3, [r2]	@ float
 809:Core/Src/Main/Action.c **** 				AngularAcceleration = 0;
 3034              		.loc 1 809 5 is_stmt 1 view .LVU953
 809:Core/Src/Main/Action.c **** 				AngularAcceleration = 0;
 3035              		.loc 1 809 20 is_stmt 0 view .LVU954
 3036 00e6 204A     		ldr	r2, .L213+24
 3037 00e8 1360     		str	r3, [r2]	@ float
 810:Core/Src/Main/Action.c **** 			}
 3038              		.loc 1 810 5 is_stmt 1 view .LVU955
 810:Core/Src/Main/Action.c **** 			}
 3039              		.loc 1 810 25 is_stmt 0 view .LVU956
 3040 00ea 204A     		ldr	r2, .L213+28
 3041 00ec 1360     		str	r3, [r2]	@ float
 3042 00ee AEE7     		b	.L198
 3043              	.L205:
 819:Core/Src/Main/Action.c **** 			}
 820:Core/Src/Main/Action.c **** 		}
 821:Core/Src/Main/Action.c **** 
 822:Core/Src/Main/Action.c **** 	}
 823:Core/Src/Main/Action.c **** 	TargetVelocity[BODY] = end_speed;
 3044              		.loc 1 823 2 is_stmt 1 view .LVU957
ARM GAS  C:\Users\leopi\AppData\Local\Temp\ccNfTY3A.s 			page 75


 3045              		.loc 1 823 23 is_stmt 0 view .LVU958
 3046 00f0 1C4B     		ldr	r3, .L213+20
 3047 00f2 83ED028A 		vstr.32	s16, [r3, #8]
 824:Core/Src/Main/Action.c **** 	Acceleration = 0;
 3048              		.loc 1 824 2 is_stmt 1 view .LVU959
 3049              		.loc 1 824 15 is_stmt 0 view .LVU960
 3050 00f6 0023     		movs	r3, #0
 3051 00f8 174A     		ldr	r2, .L213+8
 3052 00fa 1360     		str	r3, [r2]	@ float
 825:Core/Src/Main/Action.c **** 	TargetAngularV = 0;
 3053              		.loc 1 825 2 is_stmt 1 view .LVU961
 3054              		.loc 1 825 17 is_stmt 0 view .LVU962
 3055 00fc 1A4A     		ldr	r2, .L213+24
 3056 00fe 1360     		str	r3, [r2]	@ float
 826:Core/Src/Main/Action.c **** 	AngularAcceleration = 0;
 3057              		.loc 1 826 2 is_stmt 1 view .LVU963
 3058              		.loc 1 826 22 is_stmt 0 view .LVU964
 3059 0100 1A4A     		ldr	r2, .L213+28
 3060 0102 1360     		str	r3, [r2]	@ float
 827:Core/Src/Main/Action.c **** 	//ChangeLED(2);
 828:Core/Src/Main/Action.c **** 	KeepPulse[BODY] += target_pulse;
 3061              		.loc 1 828 2 is_stmt 1 view .LVU965
 3062              		.loc 1 828 18 is_stmt 0 view .LVU966
 3063 0104 1C4B     		ldr	r3, .L213+40
 3064 0106 9A68     		ldr	r2, [r3, #8]
 3065 0108 3244     		add	r2, r2, r6
 3066 010a 9A60     		str	r2, [r3, #8]
 829:Core/Src/Main/Action.c **** 	KeepPulse[LEFT] += target_pulse*0.5f;
 3067              		.loc 1 829 2 is_stmt 1 view .LVU967
 3068              		.loc 1 829 18 is_stmt 0 view .LVU968
 3069 010c 93ED007A 		vldr.32	s14, [r3]	@ int
 3070              		.loc 1 829 33 view .LVU969
 3071 0110 07EE906A 		vmov	s15, r6	@ int
 3072 0114 F8EEE77A 		vcvt.f32.s32	s15, s15
 3073 0118 F6EE006A 		vmov.f32	s13, #5.0e-1
 3074 011c 67EEA67A 		vmul.f32	s15, s15, s13
 3075              		.loc 1 829 18 view .LVU970
 3076 0120 B8EEC77A 		vcvt.f32.s32	s14, s14
 3077 0124 37EE277A 		vadd.f32	s14, s14, s15
 3078 0128 BDEEC77A 		vcvt.s32.f32	s14, s14
 3079 012c 83ED007A 		vstr.32	s14, [r3]	@ int
 830:Core/Src/Main/Action.c **** 	KeepPulse[RIGHT] += target_pulse*0.5f;
 3080              		.loc 1 830 2 is_stmt 1 view .LVU971
 3081              		.loc 1 830 19 is_stmt 0 view .LVU972
 3082 0130 93ED017A 		vldr.32	s14, [r3, #4]	@ int
 3083 0134 B8EEC77A 		vcvt.f32.s32	s14, s14
 3084 0138 77EE277A 		vadd.f32	s15, s14, s15
 3085 013c FDEEE77A 		vcvt.s32.f32	s15, s15
 3086 0140 C3ED017A 		vstr.32	s15, [r3, #4]	@ int
 831:Core/Src/Main/Action.c **** 
 832:Core/Src/Main/Action.c **** 
 833:Core/Src/Main/Action.c **** }
 3087              		.loc 1 833 1 view .LVU973
 3088 0144 BDEC028B 		vldm	sp!, {d8}
 3089              	.LCFI21:
 3090              		.cfi_restore 80
 3091              		.cfi_restore 81
ARM GAS  C:\Users\leopi\AppData\Local\Temp\ccNfTY3A.s 			page 76


 3092              		.cfi_def_cfa_offset 24
 3093              	.LVL173:
 3094              		.loc 1 833 1 view .LVU974
 3095 0148 F8BD     		pop	{r3, r4, r5, r6, r7, pc}
 3096              	.LVL174:
 3097              	.L214:
 3098              		.loc 1 833 1 view .LVU975
 3099 014a 00BFAFF3 		.align	3
 3099      0080
 3100              	.L213:
 3101 0150 CDCCCCCC 		.word	-858993459
 3102 0154 CCCCE43F 		.word	1071959244
 3103 0158 00000000 		.word	Acceleration
 3104 015c C3F538C0 		.word	-1070008893
 3105 0160 552AF744 		.word	1157048917
 3106 0164 00000000 		.word	TargetVelocity
 3107 0168 00000000 		.word	TargetAngularV
 3108 016c 00000000 		.word	AngularAcceleration
 3109 0170 00000000 		.word	Photo
 3110 0174 00401C45 		.word	1159479296
 3111 0178 00000000 		.word	KeepPulse
 3112 017c 00000000 		.word	TotalPulse
 3113 0180 00000000 		.word	Pid
 3114 0184 0000B442 		.word	1119092736
 3115              		.cfi_endproc
 3116              	.LFE249:
 3118              		.section	.text.Calib,"ax",%progbits
 3119              		.align	1
 3120              		.global	Calib
 3121              		.syntax unified
 3122              		.thumb
 3123              		.thumb_func
 3125              	Calib:
 3126              	.LVL175:
 3127              	.LFB250:
 834:Core/Src/Main/Action.c **** 
 835:Core/Src/Main/Action.c **** void Calib(int distance)
 836:Core/Src/Main/Action.c **** {
 3128              		.loc 1 836 1 is_stmt 1 view -0
 3129              		.cfi_startproc
 3130              		@ args = 0, pretend = 0, frame = 0
 3131              		@ frame_needed = 0, uses_anonymous_args = 0
 3132              		@ link register save eliminated.
 3133              		.loc 1 836 1 is_stmt 0 view .LVU977
 3134 0000 07EE900A 		vmov	s15, r0	@ int
 837:Core/Src/Main/Action.c **** 	int target_pulse = (int)(distance*TO_PULSE);
 3135              		.loc 1 837 2 is_stmt 1 view .LVU978
 3136              		.loc 1 837 35 is_stmt 0 view .LVU979
 3137 0004 F8EEE77A 		vcvt.f32.s32	s15, s15
 3138 0008 9FED1A7A 		vldr.32	s14, .L222
 3139 000c 67EE877A 		vmul.f32	s15, s15, s14
 3140              		.loc 1 837 6 view .LVU980
 3141 0010 FDEEE77A 		vcvt.s32.f32	s15, s15
 3142 0014 17EE902A 		vmov	r2, s15	@ int
 3143              	.LVL176:
 838:Core/Src/Main/Action.c **** 	if(target_pulse > 0)
 3144              		.loc 1 838 2 is_stmt 1 view .LVU981
ARM GAS  C:\Users\leopi\AppData\Local\Temp\ccNfTY3A.s 			page 77


 3145              		.loc 1 838 4 is_stmt 0 view .LVU982
 3146 0018 002A     		cmp	r2, #0
 3147 001a 06DC     		bgt	.L216
 3148 001c 10E0     		b	.L217
 3149              	.L218:
 839:Core/Src/Main/Action.c **** 	{
 840:Core/Src/Main/Action.c **** 		while( KeepPulse[BODY] + target_pulse > TotalPulse[BODY] )
 841:Core/Src/Main/Action.c **** 		{
 842:Core/Src/Main/Action.c **** 			Acceleration = 0;
 3150              		.loc 1 842 4 is_stmt 1 view .LVU983
 3151              		.loc 1 842 17 is_stmt 0 view .LVU984
 3152 001e 164B     		ldr	r3, .L222+4
 3153 0020 0021     		movs	r1, #0
 3154 0022 1960     		str	r1, [r3]	@ float
 843:Core/Src/Main/Action.c **** 			TargetVelocity[BODY] = 45;
 3155              		.loc 1 843 4 is_stmt 1 view .LVU985
 3156              		.loc 1 843 25 is_stmt 0 view .LVU986
 3157 0024 154B     		ldr	r3, .L222+8
 3158 0026 1649     		ldr	r1, .L222+12
 3159 0028 9960     		str	r1, [r3, #8]	@ float
 3160              	.L216:
 840:Core/Src/Main/Action.c **** 		{
 3161              		.loc 1 840 8 is_stmt 1 view .LVU987
 840:Core/Src/Main/Action.c **** 		{
 3162              		.loc 1 840 19 is_stmt 0 view .LVU988
 3163 002a 164B     		ldr	r3, .L222+16
 3164 002c 9B68     		ldr	r3, [r3, #8]
 840:Core/Src/Main/Action.c **** 		{
 3165              		.loc 1 840 26 view .LVU989
 3166 002e 1344     		add	r3, r3, r2
 840:Core/Src/Main/Action.c **** 		{
 3167              		.loc 1 840 53 view .LVU990
 3168 0030 1549     		ldr	r1, .L222+20
 3169 0032 8968     		ldr	r1, [r1, #8]
 840:Core/Src/Main/Action.c **** 		{
 3170              		.loc 1 840 8 view .LVU991
 3171 0034 8B42     		cmp	r3, r1
 3172 0036 F2DC     		bgt	.L218
 844:Core/Src/Main/Action.c **** 		}
 845:Core/Src/Main/Action.c **** 		KeepPulse[BODY] += target_pulse;
 3173              		.loc 1 845 3 is_stmt 1 view .LVU992
 3174              		.loc 1 845 19 is_stmt 0 view .LVU993
 3175 0038 1249     		ldr	r1, .L222+16
 3176 003a 8B68     		ldr	r3, [r1, #8]
 3177 003c 1344     		add	r3, r3, r2
 3178 003e 8B60     		str	r3, [r1, #8]
 3179              	.L217:
 846:Core/Src/Main/Action.c **** 
 847:Core/Src/Main/Action.c **** 	}
 848:Core/Src/Main/Action.c **** 	if(target_pulse < 0 )
 3180              		.loc 1 848 2 is_stmt 1 view .LVU994
 3181              		.loc 1 848 4 is_stmt 0 view .LVU995
 3182 0040 002A     		cmp	r2, #0
 3183 0042 0BDB     		blt	.L219
 3184              	.LVL177:
 3185              	.L220:
 849:Core/Src/Main/Action.c **** 	{
ARM GAS  C:\Users\leopi\AppData\Local\Temp\ccNfTY3A.s 			page 78


 850:Core/Src/Main/Action.c **** 		while( KeepPulse[BODY] + target_pulse < TotalPulse[BODY] )
 851:Core/Src/Main/Action.c **** 		{
 852:Core/Src/Main/Action.c **** 			Acceleration = 0;
 853:Core/Src/Main/Action.c **** 			TargetVelocity[BODY] = -45;
 854:Core/Src/Main/Action.c **** 		}
 855:Core/Src/Main/Action.c **** 		KeepPulse[BODY] += target_pulse;
 856:Core/Src/Main/Action.c **** 	}
 857:Core/Src/Main/Action.c **** 	TargetVelocity[BODY] = 0;
 3186              		.loc 1 857 2 is_stmt 1 view .LVU996
 3187              		.loc 1 857 23 is_stmt 0 view .LVU997
 3188 0044 0023     		movs	r3, #0
 3189 0046 0D4A     		ldr	r2, .L222+8
 3190 0048 9360     		str	r3, [r2, #8]	@ float
 858:Core/Src/Main/Action.c **** 	Acceleration = 0;
 3191              		.loc 1 858 2 is_stmt 1 view .LVU998
 3192              		.loc 1 858 15 is_stmt 0 view .LVU999
 3193 004a 0B4A     		ldr	r2, .L222+4
 3194 004c 1360     		str	r3, [r2]	@ float
 859:Core/Src/Main/Action.c **** }
 3195              		.loc 1 859 1 view .LVU1000
 3196 004e 7047     		bx	lr
 3197              	.LVL178:
 3198              	.L221:
 852:Core/Src/Main/Action.c **** 			TargetVelocity[BODY] = -45;
 3199              		.loc 1 852 4 is_stmt 1 view .LVU1001
 852:Core/Src/Main/Action.c **** 			TargetVelocity[BODY] = -45;
 3200              		.loc 1 852 17 is_stmt 0 view .LVU1002
 3201 0050 094B     		ldr	r3, .L222+4
 3202 0052 0021     		movs	r1, #0
 3203 0054 1960     		str	r1, [r3]	@ float
 853:Core/Src/Main/Action.c **** 		}
 3204              		.loc 1 853 4 is_stmt 1 view .LVU1003
 853:Core/Src/Main/Action.c **** 		}
 3205              		.loc 1 853 25 is_stmt 0 view .LVU1004
 3206 0056 094B     		ldr	r3, .L222+8
 3207 0058 0C49     		ldr	r1, .L222+24
 3208 005a 9960     		str	r1, [r3, #8]	@ float
 3209              	.L219:
 850:Core/Src/Main/Action.c **** 		{
 3210              		.loc 1 850 8 is_stmt 1 view .LVU1005
 850:Core/Src/Main/Action.c **** 		{
 3211              		.loc 1 850 19 is_stmt 0 view .LVU1006
 3212 005c 094B     		ldr	r3, .L222+16
 3213 005e 9B68     		ldr	r3, [r3, #8]
 850:Core/Src/Main/Action.c **** 		{
 3214              		.loc 1 850 26 view .LVU1007
 3215 0060 1344     		add	r3, r3, r2
 850:Core/Src/Main/Action.c **** 		{
 3216              		.loc 1 850 53 view .LVU1008
 3217 0062 0949     		ldr	r1, .L222+20
 3218 0064 8968     		ldr	r1, [r1, #8]
 850:Core/Src/Main/Action.c **** 		{
 3219              		.loc 1 850 8 view .LVU1009
 3220 0066 8B42     		cmp	r3, r1
 3221 0068 F2DB     		blt	.L221
 855:Core/Src/Main/Action.c **** 	}
 3222              		.loc 1 855 3 is_stmt 1 view .LVU1010
ARM GAS  C:\Users\leopi\AppData\Local\Temp\ccNfTY3A.s 			page 79


 855:Core/Src/Main/Action.c **** 	}
 3223              		.loc 1 855 19 is_stmt 0 view .LVU1011
 3224 006a 0649     		ldr	r1, .L222+16
 3225 006c 8B68     		ldr	r3, [r1, #8]
 3226 006e 1A44     		add	r2, r2, r3
 3227              	.LVL179:
 855:Core/Src/Main/Action.c **** 	}
 3228              		.loc 1 855 19 view .LVU1012
 3229 0070 8A60     		str	r2, [r1, #8]
 3230 0072 E7E7     		b	.L220
 3231              	.L223:
 3232              		.align	2
 3233              	.L222:
 3234 0074 552AF744 		.word	1157048917
 3235 0078 00000000 		.word	Acceleration
 3236 007c 00000000 		.word	TargetVelocity
 3237 0080 00003442 		.word	1110704128
 3238 0084 00000000 		.word	KeepPulse
 3239 0088 00000000 		.word	TotalPulse
 3240 008c 000034C2 		.word	-1036779520
 3241              		.cfi_endproc
 3242              	.LFE250:
 3244              		.section	.text.Compensate,"ax",%progbits
 3245              		.align	1
 3246              		.global	Compensate
 3247              		.syntax unified
 3248              		.thumb
 3249              		.thumb_func
 3251              	Compensate:
 3252              	.LFB251:
 860:Core/Src/Main/Action.c **** void Compensate()
 861:Core/Src/Main/Action.c **** {
 3253              		.loc 1 861 1 is_stmt 1 view -0
 3254              		.cfi_startproc
 3255              		@ args = 0, pretend = 0, frame = 0
 3256              		@ frame_needed = 0, uses_anonymous_args = 0
 3257 0000 08B5     		push	{r3, lr}
 3258              	.LCFI22:
 3259              		.cfi_def_cfa_offset 8
 3260              		.cfi_offset 3, -8
 3261              		.cfi_offset 14, -4
 862:Core/Src/Main/Action.c **** 	//èª¤å·®è£œæ­£
 863:Core/Src/Main/Action.c **** #if 0
 864:Core/Src/Main/Action.c **** 	//å‰å£è£œæ­£
 865:Core/Src/Main/Action.c **** 	TargetPhoto[FL];
 866:Core/Src/Main/Action.c **** 
 867:Core/Src/Main/Action.c **** #else
 868:Core/Src/Main/Action.c **** 	//ãƒãƒƒã‚¯
 869:Core/Src/Main/Action.c **** 	PIDChangeFlag(A_VELO_PID, 1);
 3262              		.loc 1 869 2 view .LVU1014
 3263 0002 0121     		movs	r1, #1
 3264 0004 0020     		movs	r0, #0
 3265 0006 FFF7FEFF 		bl	PIDChangeFlag
 3266              	.LVL180:
 870:Core/Src/Main/Action.c **** 	Calib(-25);
 3267              		.loc 1 870 2 view .LVU1015
 3268 000a 6FF01800 		mvn	r0, #24
ARM GAS  C:\Users\leopi\AppData\Local\Temp\ccNfTY3A.s 			page 80


 3269 000e FFF7FEFF 		bl	Calib
 3270              	.LVL181:
 871:Core/Src/Main/Action.c **** 	PIDChangeFlag(A_VELO_PID, 0);
 3271              		.loc 1 871 2 view .LVU1016
 3272 0012 0021     		movs	r1, #0
 3273 0014 0846     		mov	r0, r1
 3274 0016 FFF7FEFF 		bl	PIDChangeFlag
 3275              	.LVL182:
 872:Core/Src/Main/Action.c **** #endif
 873:Core/Src/Main/Action.c **** 
 874:Core/Src/Main/Action.c **** }
 3276              		.loc 1 874 1 is_stmt 0 view .LVU1017
 3277 001a 08BD     		pop	{r3, pc}
 3278              		.cfi_endproc
 3279              	.LFE251:
 3281              		.section	.text.AjustCenter,"ax",%progbits
 3282              		.align	1
 3283              		.global	AjustCenter
 3284              		.syntax unified
 3285              		.thumb
 3286              		.thumb_func
 3288              	AjustCenter:
 3289              	.LVL183:
 3290              	.LFB252:
 875:Core/Src/Main/Action.c **** float AjustCenter(profile *mouse){
 3291              		.loc 1 875 34 is_stmt 1 view -0
 3292              		.cfi_startproc
 3293              		@ args = 0, pretend = 0, frame = 8
 3294              		@ frame_needed = 0, uses_anonymous_args = 0
 3295              		.loc 1 875 34 is_stmt 0 view .LVU1019
 3296 0000 30B5     		push	{r4, r5, lr}
 3297              	.LCFI23:
 3298              		.cfi_def_cfa_offset 12
 3299              		.cfi_offset 4, -12
 3300              		.cfi_offset 5, -8
 3301              		.cfi_offset 14, -4
 3302 0002 83B0     		sub	sp, sp, #12
 3303              	.LCFI24:
 3304              		.cfi_def_cfa_offset 24
 3305 0004 0446     		mov	r4, r0
 876:Core/Src/Main/Action.c **** 	PIDChangeFlag(L_WALL_PID, 0);
 3306              		.loc 1 876 2 is_stmt 1 view .LVU1020
 3307 0006 0021     		movs	r1, #0
 3308 0008 0220     		movs	r0, #2
 3309              	.LVL184:
 3310              		.loc 1 876 2 is_stmt 0 view .LVU1021
 3311 000a FFF7FEFF 		bl	PIDChangeFlag
 3312              	.LVL185:
 877:Core/Src/Main/Action.c **** 	PIDChangeFlag(R_WALL_PID, 0);
 3313              		.loc 1 877 2 is_stmt 1 view .LVU1022
 3314 000e 0021     		movs	r1, #0
 3315 0010 0320     		movs	r0, #3
 3316 0012 FFF7FEFF 		bl	PIDChangeFlag
 3317              	.LVL186:
 878:Core/Src/Main/Action.c **** 	PIDChangeFlag(D_WALL_PID, 0);
 3318              		.loc 1 878 2 view .LVU1023
 3319 0016 0021     		movs	r1, #0
ARM GAS  C:\Users\leopi\AppData\Local\Temp\ccNfTY3A.s 			page 81


 3320 0018 0120     		movs	r0, #1
 3321 001a FFF7FEFF 		bl	PIDChangeFlag
 3322              	.LVL187:
 879:Core/Src/Main/Action.c **** 	PIDChangeFlag( A_VELO_PID, 0);
 3323              		.loc 1 879 2 view .LVU1024
 3324 001e 0021     		movs	r1, #0
 3325 0020 0846     		mov	r0, r1
 3326 0022 FFF7FEFF 		bl	PIDChangeFlag
 3327              	.LVL188:
 880:Core/Src/Main/Action.c **** 	int wall_ctrl = GetWallCtrlDirection(mouse);
 3328              		.loc 1 880 2 view .LVU1025
 3329              		.loc 1 880 18 is_stmt 0 view .LVU1026
 3330 0026 2046     		mov	r0, r4
 3331 0028 FFF7FEFF 		bl	GetWallCtrlDirection
 3332              	.LVL189:
 3333 002c 0546     		mov	r5, r0
 3334              	.LVL190:
 881:Core/Src/Main/Action.c **** 	float photo_threshold[2]=
 3335              		.loc 1 881 2 is_stmt 1 view .LVU1027
 3336              		.loc 1 881 8 is_stmt 0 view .LVU1028
 3337 002e 8A4B     		ldr	r3, .L260
 3338 0030 93E80300 		ldm	r3, {r0, r1}
 3339              	.LVL191:
 3340              		.loc 1 881 8 view .LVU1029
 3341 0034 02AB     		add	r3, sp, #8
 3342 0036 03E90300 		stmdb	r3, {r0, r1}
 882:Core/Src/Main/Action.c **** 	{
 883:Core/Src/Main/Action.c **** 			3600,
 884:Core/Src/Main/Action.c **** 			4000
 885:Core/Src/Main/Action.c **** 			//3300,
 886:Core/Src/Main/Action.c **** 			//4500
 887:Core/Src/Main/Action.c **** 	}; //è©¦èµ°ä¼šã§èª¿æ•´. åºƒã’ã‚‹ã¨ä½ç½®ã¯ã‚„ã‚„ã°ã‚‰ã¤ããŒå…‰é‡ã®å½±éŸ¿ãŒã‚„ã‚„å°ã•ã
 888:Core/Src/Main/Action.c **** 	switch(mouse->now.car%8)
 3343              		.loc 1 888 2 is_stmt 1 view .LVU1030
 3344              		.loc 1 888 19 is_stmt 0 view .LVU1031
 3345 003a A379     		ldrb	r3, [r4, #6]	@ zero_extendqisi2
 3346              		.loc 1 888 2 view .LVU1032
 3347 003c 03F00703 		and	r3, r3, #7
 3348 0040 062B     		cmp	r3, #6
 3349 0042 0ED8     		bhi	.L227
 3350 0044 DFE803F0 		tbb	[pc, r3]
 3351              	.L229:
 3352 0048 04       		.byte	(.L232-.L229)/2
 3353 0049 0D       		.byte	(.L227-.L229)/2
 3354 004a 4E       		.byte	(.L231-.L229)/2
 3355 004b 0D       		.byte	(.L227-.L229)/2
 3356 004c 8B       		.byte	(.L230-.L229)/2
 3357 004d 0D       		.byte	(.L227-.L229)/2
 3358 004e C9       		.byte	(.L228-.L229)/2
 3359 004f 00       		.p2align 1
 3360              	.L232:
 889:Core/Src/Main/Action.c **** 	{
 890:Core/Src/Main/Action.c **** 	case north: //use west or north wall
 891:Core/Src/Main/Action.c **** 			if (mouse->now.wall.north == WALL) //å‰ã«å£ãŒã‚ã‚Œã°å‰ã§èª¿æ•´
 3361              		.loc 1 891 4 is_stmt 1 view .LVU1033
 3362              		.loc 1 891 30 is_stmt 0 view .LVU1034
 3363 0050 237A     		ldrb	r3, [r4, #8]	@ zero_extendqisi2
ARM GAS  C:\Users\leopi\AppData\Local\Temp\ccNfTY3A.s 			page 82


 3364 0052 03F00302 		and	r2, r3, #3
 3365              		.loc 1 891 7 view .LVU1035
 3366 0056 012A     		cmp	r2, #1
 3367 0058 10D0     		beq	.L255
 892:Core/Src/Main/Action.c **** 			{
 893:Core/Src/Main/Action.c **** 				//å‰å£èª¿æ•´
 894:Core/Src/Main/Action.c **** 				Calib(-5);
 895:Core/Src/Main/Action.c **** 				PIDChangeFlag(wall_ctrl, 1);
 896:Core/Src/Main/Action.c **** 				while( !( (photo_threshold[0] < Photo[FL] + Photo[FR]) && (Photo[FL] + Photo[FR] < photo_thresh
 897:Core/Src/Main/Action.c **** 				{
 898:Core/Src/Main/Action.c **** 				}
 899:Core/Src/Main/Action.c **** 					//å‰å£ã¨ã®è·é›¢ã¨å‰äºŒã¤ã®å·®åˆ†ã€å·¦å³ã®å£ã¨ã®ãƒãƒ©ãƒ³ã‚¹ãŒå®‰å®šã™ã‚‹ã¾ã
 900:Core/Src/Main/Action.c **** 			}
 901:Core/Src/Main/Action.c **** 			else if (mouse->now.wall.south == WALL) //å¾Œã‚ã«å£ãŒã‚ã‚‹ã¨ãã¯ãƒãƒƒã‚¯
 3368              		.loc 1 901 9 is_stmt 1 view .LVU1036
 3369              		.loc 1 901 35 is_stmt 0 view .LVU1037
 3370 005a 03F03003 		and	r3, r3, #48
 3371              		.loc 1 901 12 view .LVU1038
 3372 005e 102B     		cmp	r3, #16
 3373 0060 2AD0     		beq	.L256
 3374              	.L227:
 902:Core/Src/Main/Action.c **** 			{
 903:Core/Src/Main/Action.c **** 				PIDChangeFlag(wall_ctrl, 1);
 904:Core/Src/Main/Action.c **** 				Compensate();	//å¾Œã‚å£èª¿æ•´
 905:Core/Src/Main/Action.c **** 
 906:Core/Src/Main/Action.c **** 				Pid[wall_ctrl].flag = 0;
 907:Core/Src/Main/Action.c **** 				TargetAngularV = 0;
 908:Core/Src/Main/Action.c **** 				Angle = TargetAngle;
 909:Core/Src/Main/Action.c **** 				return 61.5;
 910:Core/Src/Main/Action.c **** 			}
 911:Core/Src/Main/Action.c **** 		break;
 912:Core/Src/Main/Action.c **** 	case east:
 913:Core/Src/Main/Action.c **** 			if (mouse->now.wall.east == WALL) //å‰ã«å£ãŒã‚ã‚Œã°å‰ã§èª¿æ•´
 914:Core/Src/Main/Action.c **** 			{
 915:Core/Src/Main/Action.c **** 				//å‰å£èª¿æ•´
 916:Core/Src/Main/Action.c **** 				Calib(-5);
 917:Core/Src/Main/Action.c **** 				PIDChangeFlag(wall_ctrl, 1);
 918:Core/Src/Main/Action.c **** 				while( !(( (photo_threshold[0] < Photo[FL] + Photo[FR]) && (Photo[FL] + Photo[FR] < photo_thres
 919:Core/Src/Main/Action.c **** 					{
 920:Core/Src/Main/Action.c **** 					}
 921:Core/Src/Main/Action.c **** 			}
 922:Core/Src/Main/Action.c **** 			else if (mouse->now.wall.west == WALL) //å¾Œã‚ã«å£ãŒã‚ã‚‹ã¨ãã¯ãƒãƒƒã‚¯
 923:Core/Src/Main/Action.c **** 			{
 924:Core/Src/Main/Action.c **** 				PIDChangeFlag(wall_ctrl, 1);
 925:Core/Src/Main/Action.c **** 				Compensate();//å¾Œã‚å£èª¿æ•´
 926:Core/Src/Main/Action.c **** 				Pid[wall_ctrl].flag = 0;
 927:Core/Src/Main/Action.c **** 				TargetAngularV = 0;
 928:Core/Src/Main/Action.c **** 				Angle = TargetAngle;
 929:Core/Src/Main/Action.c **** 				return 61.5;
 930:Core/Src/Main/Action.c **** 			}
 931:Core/Src/Main/Action.c **** 		break;
 932:Core/Src/Main/Action.c **** 	case south:
 933:Core/Src/Main/Action.c **** 			if (mouse->now.wall.south == WALL) //å‰ã«å£ãŒã‚ã‚Œã°å‰ã§èª¿æ•´
 934:Core/Src/Main/Action.c **** 			{
 935:Core/Src/Main/Action.c **** 				//å‰å£èª¿æ•´
 936:Core/Src/Main/Action.c **** 				Calib(-5);
 937:Core/Src/Main/Action.c **** 				PIDChangeFlag(wall_ctrl, 1);
ARM GAS  C:\Users\leopi\AppData\Local\Temp\ccNfTY3A.s 			page 83


 938:Core/Src/Main/Action.c **** 				while( !((photo_threshold[0]< Photo[FL] + Photo[FR]) && (Photo[FL] + Photo[FR] < photo_threshol
 939:Core/Src/Main/Action.c **** 					{
 940:Core/Src/Main/Action.c **** 					}
 941:Core/Src/Main/Action.c **** 			}
 942:Core/Src/Main/Action.c **** 			else if (mouse->now.wall.north == WALL) //å¾Œã‚ã«å£ãŒã‚ã‚‹ã¨ãã¯ãƒãƒƒã‚¯
 943:Core/Src/Main/Action.c **** 			{
 944:Core/Src/Main/Action.c **** 				PIDChangeFlag(wall_ctrl, 1);
 945:Core/Src/Main/Action.c **** 				Compensate();//å¾Œã‚å£èª¿æ•´
 946:Core/Src/Main/Action.c **** 				Pid[wall_ctrl].flag = 0;
 947:Core/Src/Main/Action.c **** 				TargetAngularV = 0;
 948:Core/Src/Main/Action.c **** 				Angle = TargetAngle;
 949:Core/Src/Main/Action.c **** 				return 61.5;
 950:Core/Src/Main/Action.c **** 			}
 951:Core/Src/Main/Action.c **** 		break;
 952:Core/Src/Main/Action.c **** 	case west:
 953:Core/Src/Main/Action.c **** 			if (mouse->now.wall.west == WALL) //å‰ã«å£ãŒã‚ã‚Œã°å‰ã§èª¿æ•´
 954:Core/Src/Main/Action.c **** 			{
 955:Core/Src/Main/Action.c **** 				//å‰å£èª¿æ•´
 956:Core/Src/Main/Action.c **** 				Calib(-5);
 957:Core/Src/Main/Action.c **** 				PIDChangeFlag(wall_ctrl, 1);
 958:Core/Src/Main/Action.c **** 				while( !((photo_threshold[0] < Photo[FL] + Photo[FR]) && (Photo[FL] + Photo[FR] < photo_thresho
 959:Core/Src/Main/Action.c **** 					{
 960:Core/Src/Main/Action.c **** 					}
 961:Core/Src/Main/Action.c **** 			}
 962:Core/Src/Main/Action.c **** 			else if (mouse->now.wall.east == WALL) //å¾Œã‚ã«å£ãŒã‚ã‚‹ã¨ãã¯ãƒãƒƒã‚¯
 963:Core/Src/Main/Action.c **** 			{
 964:Core/Src/Main/Action.c **** 				PIDChangeFlag(wall_ctrl, 1);
 965:Core/Src/Main/Action.c **** 				Compensate();//å¾Œã‚å£èª¿æ•´
 966:Core/Src/Main/Action.c **** 				Pid[wall_ctrl].flag = 0;
 967:Core/Src/Main/Action.c **** 				TargetAngularV = 0;
 968:Core/Src/Main/Action.c **** 				Angle = TargetAngle;
 969:Core/Src/Main/Action.c **** 				return 61.5;
 970:Core/Src/Main/Action.c **** 			}
 971:Core/Src/Main/Action.c **** 	default:
 972:Core/Src/Main/Action.c **** 		break;
 973:Core/Src/Main/Action.c **** 	}
 974:Core/Src/Main/Action.c **** 	Pid[wall_ctrl].flag = 0;
 3375              		.loc 1 974 2 is_stmt 1 view .LVU1039
 3376              		.loc 1 974 22 is_stmt 0 view .LVU1040
 3377 0062 7E48     		ldr	r0, .L260+4
 3378 0064 2C23     		movs	r3, #44
 3379 0066 03FB0505 		mla	r5, r3, r5, r0
 3380              	.LVL192:
 3381              		.loc 1 974 22 view .LVU1041
 3382 006a 0023     		movs	r3, #0
 3383 006c AB62     		str	r3, [r5, #40]
 975:Core/Src/Main/Action.c **** 	TargetAngularV = 0;
 3384              		.loc 1 975 2 is_stmt 1 view .LVU1042
 3385              		.loc 1 975 17 is_stmt 0 view .LVU1043
 3386 006e 7C4B     		ldr	r3, .L260+8
 3387 0070 0022     		movs	r2, #0
 3388 0072 1A60     		str	r2, [r3]	@ float
 976:Core/Src/Main/Action.c **** 	return 45;
 3389              		.loc 1 976 2 is_stmt 1 view .LVU1044
 3390              		.loc 1 976 9 is_stmt 0 view .LVU1045
 3391 0074 9FED7B0A 		vldr.32	s0, .L260+12
 3392              	.L226:
ARM GAS  C:\Users\leopi\AppData\Local\Temp\ccNfTY3A.s 			page 84


 977:Core/Src/Main/Action.c **** }
 3393              		.loc 1 977 1 view .LVU1046
 3394 0078 03B0     		add	sp, sp, #12
 3395              	.LCFI25:
 3396              		.cfi_remember_state
 3397              		.cfi_def_cfa_offset 12
 3398              		@ sp needed
 3399 007a 30BD     		pop	{r4, r5, pc}
 3400              	.LVL193:
 3401              	.L255:
 3402              	.LCFI26:
 3403              		.cfi_restore_state
 894:Core/Src/Main/Action.c **** 				PIDChangeFlag(wall_ctrl, 1);
 3404              		.loc 1 894 5 is_stmt 1 view .LVU1047
 3405 007c 6FF00400 		mvn	r0, #4
 3406 0080 FFF7FEFF 		bl	Calib
 3407              	.LVL194:
 895:Core/Src/Main/Action.c **** 				while( !( (photo_threshold[0] < Photo[FL] + Photo[FR]) && (Photo[FL] + Photo[FR] < photo_thresh
 3408              		.loc 1 895 5 view .LVU1048
 3409 0084 0121     		movs	r1, #1
 3410 0086 2846     		mov	r0, r5
 3411 0088 FFF7FEFF 		bl	PIDChangeFlag
 3412              	.LVL195:
 896:Core/Src/Main/Action.c **** 				{
 3413              		.loc 1 896 5 view .LVU1049
 3414              	.L234:
 898:Core/Src/Main/Action.c **** 					//å‰å£ã¨ã®è·é›¢ã¨å‰äºŒã¤ã®å·®åˆ†ã€å·¦å³ã®å£ã¨ã®ãƒãƒ©ãƒ³ã‚¹ãŒå®‰å®šã™ã‚‹ã¾ã
 3415              		.loc 1 898 5 discriminator 3 view .LVU1050
 896:Core/Src/Main/Action.c **** 				{
 3416              		.loc 1 896 10 discriminator 3 view .LVU1051
 896:Core/Src/Main/Action.c **** 				{
 3417              		.loc 1 896 42 is_stmt 0 discriminator 3 view .LVU1052
 3418 008c 764B     		ldr	r3, .L260+16
 3419 008e D3ED007A 		vldr.32	s15, [r3]
 896:Core/Src/Main/Action.c **** 				{
 3420              		.loc 1 896 54 discriminator 3 view .LVU1053
 3421 0092 93ED037A 		vldr.32	s14, [r3, #12]
 896:Core/Src/Main/Action.c **** 				{
 3422              		.loc 1 896 47 discriminator 3 view .LVU1054
 3423 0096 77EE877A 		vadd.f32	s15, s15, s14
 896:Core/Src/Main/Action.c **** 				{
 3424              		.loc 1 896 10 discriminator 3 view .LVU1055
 3425 009a 9FED747A 		vldr.32	s14, .L260+20
 3426 009e F4EEC77A 		vcmpe.f32	s15, s14
 3427 00a2 F1EE10FA 		vmrs	APSR_nzcv, FPSCR
 3428 00a6 F1DD     		ble	.L234
 896:Core/Src/Main/Action.c **** 				{
 3429              		.loc 1 896 12 discriminator 2 view .LVU1056
 3430 00a8 9FED717A 		vldr.32	s14, .L260+24
 3431 00ac F4EEC77A 		vcmpe.f32	s15, s14
 3432 00b0 F1EE10FA 		vmrs	APSR_nzcv, FPSCR
 3433 00b4 EAD5     		bpl	.L234
 3434 00b6 D4E7     		b	.L227
 3435              	.L256:
 903:Core/Src/Main/Action.c **** 				Compensate();	//å¾Œã‚å£èª¿æ•´
 3436              		.loc 1 903 5 is_stmt 1 view .LVU1057
 3437 00b8 0121     		movs	r1, #1
ARM GAS  C:\Users\leopi\AppData\Local\Temp\ccNfTY3A.s 			page 85


 3438 00ba 2846     		mov	r0, r5
 3439 00bc FFF7FEFF 		bl	PIDChangeFlag
 3440              	.LVL196:
 904:Core/Src/Main/Action.c **** 
 3441              		.loc 1 904 5 view .LVU1058
 3442 00c0 FFF7FEFF 		bl	Compensate
 3443              	.LVL197:
 906:Core/Src/Main/Action.c **** 				TargetAngularV = 0;
 3444              		.loc 1 906 5 view .LVU1059
 906:Core/Src/Main/Action.c **** 				TargetAngularV = 0;
 3445              		.loc 1 906 25 is_stmt 0 view .LVU1060
 3446 00c4 654B     		ldr	r3, .L260+4
 3447 00c6 2C22     		movs	r2, #44
 3448 00c8 02FB0535 		mla	r5, r2, r5, r3
 3449              	.LVL198:
 906:Core/Src/Main/Action.c **** 				TargetAngularV = 0;
 3450              		.loc 1 906 25 view .LVU1061
 3451 00cc 0023     		movs	r3, #0
 3452 00ce AB62     		str	r3, [r5, #40]
 907:Core/Src/Main/Action.c **** 				Angle = TargetAngle;
 3453              		.loc 1 907 5 is_stmt 1 view .LVU1062
 907:Core/Src/Main/Action.c **** 				Angle = TargetAngle;
 3454              		.loc 1 907 20 is_stmt 0 view .LVU1063
 3455 00d0 634B     		ldr	r3, .L260+8
 3456 00d2 0022     		movs	r2, #0
 3457 00d4 1A60     		str	r2, [r3]	@ float
 908:Core/Src/Main/Action.c **** 				return 61.5;
 3458              		.loc 1 908 5 is_stmt 1 view .LVU1064
 908:Core/Src/Main/Action.c **** 				return 61.5;
 3459              		.loc 1 908 11 is_stmt 0 view .LVU1065
 3460 00d6 674B     		ldr	r3, .L260+28
 3461 00d8 1A68     		ldr	r2, [r3]	@ float
 3462 00da 674B     		ldr	r3, .L260+32
 3463 00dc 1A60     		str	r2, [r3]	@ float
 909:Core/Src/Main/Action.c **** 			}
 3464              		.loc 1 909 5 is_stmt 1 view .LVU1066
 909:Core/Src/Main/Action.c **** 			}
 3465              		.loc 1 909 12 is_stmt 0 view .LVU1067
 3466 00de 9FED670A 		vldr.32	s0, .L260+36
 3467 00e2 C9E7     		b	.L226
 3468              	.LVL199:
 3469              	.L231:
 913:Core/Src/Main/Action.c **** 			{
 3470              		.loc 1 913 4 is_stmt 1 view .LVU1068
 913:Core/Src/Main/Action.c **** 			{
 3471              		.loc 1 913 29 is_stmt 0 view .LVU1069
 3472 00e4 237A     		ldrb	r3, [r4, #8]	@ zero_extendqisi2
 3473 00e6 03F00C02 		and	r2, r3, #12
 913:Core/Src/Main/Action.c **** 			{
 3474              		.loc 1 913 7 view .LVU1070
 3475 00ea 042A     		cmp	r2, #4
 3476 00ec 19D0     		beq	.L257
 922:Core/Src/Main/Action.c **** 			{
 3477              		.loc 1 922 9 is_stmt 1 view .LVU1071
 922:Core/Src/Main/Action.c **** 			{
 3478              		.loc 1 922 34 is_stmt 0 view .LVU1072
 3479 00ee 03F0C003 		and	r3, r3, #192
ARM GAS  C:\Users\leopi\AppData\Local\Temp\ccNfTY3A.s 			page 86


 922:Core/Src/Main/Action.c **** 			{
 3480              		.loc 1 922 12 view .LVU1073
 3481 00f2 402B     		cmp	r3, #64
 3482 00f4 B5D1     		bne	.L227
 924:Core/Src/Main/Action.c **** 				Compensate();//å¾Œã‚å£èª¿æ•´
 3483              		.loc 1 924 5 is_stmt 1 view .LVU1074
 3484 00f6 0121     		movs	r1, #1
 3485 00f8 2846     		mov	r0, r5
 3486 00fa FFF7FEFF 		bl	PIDChangeFlag
 3487              	.LVL200:
 925:Core/Src/Main/Action.c **** 				Pid[wall_ctrl].flag = 0;
 3488              		.loc 1 925 5 view .LVU1075
 3489 00fe FFF7FEFF 		bl	Compensate
 3490              	.LVL201:
 926:Core/Src/Main/Action.c **** 				TargetAngularV = 0;
 3491              		.loc 1 926 5 view .LVU1076
 926:Core/Src/Main/Action.c **** 				TargetAngularV = 0;
 3492              		.loc 1 926 25 is_stmt 0 view .LVU1077
 3493 0102 564B     		ldr	r3, .L260+4
 3494 0104 2C22     		movs	r2, #44
 3495 0106 02FB0535 		mla	r5, r2, r5, r3
 3496              	.LVL202:
 926:Core/Src/Main/Action.c **** 				TargetAngularV = 0;
 3497              		.loc 1 926 25 view .LVU1078
 3498 010a 0023     		movs	r3, #0
 3499 010c AB62     		str	r3, [r5, #40]
 927:Core/Src/Main/Action.c **** 				Angle = TargetAngle;
 3500              		.loc 1 927 5 is_stmt 1 view .LVU1079
 927:Core/Src/Main/Action.c **** 				Angle = TargetAngle;
 3501              		.loc 1 927 20 is_stmt 0 view .LVU1080
 3502 010e 544B     		ldr	r3, .L260+8
 3503 0110 0022     		movs	r2, #0
 3504 0112 1A60     		str	r2, [r3]	@ float
 928:Core/Src/Main/Action.c **** 				return 61.5;
 3505              		.loc 1 928 5 is_stmt 1 view .LVU1081
 928:Core/Src/Main/Action.c **** 				return 61.5;
 3506              		.loc 1 928 11 is_stmt 0 view .LVU1082
 3507 0114 574B     		ldr	r3, .L260+28
 3508 0116 1A68     		ldr	r2, [r3]	@ float
 3509 0118 574B     		ldr	r3, .L260+32
 3510 011a 1A60     		str	r2, [r3]	@ float
 929:Core/Src/Main/Action.c **** 			}
 3511              		.loc 1 929 5 is_stmt 1 view .LVU1083
 929:Core/Src/Main/Action.c **** 			}
 3512              		.loc 1 929 12 is_stmt 0 view .LVU1084
 3513 011c 9FED570A 		vldr.32	s0, .L260+36
 3514 0120 AAE7     		b	.L226
 3515              	.LVL203:
 3516              	.L257:
 916:Core/Src/Main/Action.c **** 				PIDChangeFlag(wall_ctrl, 1);
 3517              		.loc 1 916 5 is_stmt 1 view .LVU1085
 3518 0122 6FF00400 		mvn	r0, #4
 3519 0126 FFF7FEFF 		bl	Calib
 3520              	.LVL204:
 917:Core/Src/Main/Action.c **** 				while( !(( (photo_threshold[0] < Photo[FL] + Photo[FR]) && (Photo[FL] + Photo[FR] < photo_thres
 3521              		.loc 1 917 5 view .LVU1086
 3522 012a 0121     		movs	r1, #1
ARM GAS  C:\Users\leopi\AppData\Local\Temp\ccNfTY3A.s 			page 87


 3523 012c 2846     		mov	r0, r5
 3524 012e FFF7FEFF 		bl	PIDChangeFlag
 3525              	.LVL205:
 918:Core/Src/Main/Action.c **** 					{
 3526              		.loc 1 918 5 view .LVU1087
 3527              	.L239:
 920:Core/Src/Main/Action.c **** 			}
 3528              		.loc 1 920 6 discriminator 3 view .LVU1088
 918:Core/Src/Main/Action.c **** 					{
 3529              		.loc 1 918 10 discriminator 3 view .LVU1089
 918:Core/Src/Main/Action.c **** 					{
 3530              		.loc 1 918 43 is_stmt 0 discriminator 3 view .LVU1090
 3531 0132 4D4B     		ldr	r3, .L260+16
 3532 0134 D3ED007A 		vldr.32	s15, [r3]
 918:Core/Src/Main/Action.c **** 					{
 3533              		.loc 1 918 55 discriminator 3 view .LVU1091
 3534 0138 93ED037A 		vldr.32	s14, [r3, #12]
 918:Core/Src/Main/Action.c **** 					{
 3535              		.loc 1 918 48 discriminator 3 view .LVU1092
 3536 013c 77EE877A 		vadd.f32	s15, s15, s14
 918:Core/Src/Main/Action.c **** 					{
 3537              		.loc 1 918 10 discriminator 3 view .LVU1093
 3538 0140 9FED4A7A 		vldr.32	s14, .L260+20
 3539 0144 F4EEC77A 		vcmpe.f32	s15, s14
 3540 0148 F1EE10FA 		vmrs	APSR_nzcv, FPSCR
 3541 014c F1DD     		ble	.L239
 918:Core/Src/Main/Action.c **** 					{
 3542              		.loc 1 918 12 discriminator 2 view .LVU1094
 3543 014e 9FED487A 		vldr.32	s14, .L260+24
 3544 0152 F4EEC77A 		vcmpe.f32	s15, s14
 3545 0156 F1EE10FA 		vmrs	APSR_nzcv, FPSCR
 3546 015a EAD5     		bpl	.L239
 3547 015c 81E7     		b	.L227
 3548              	.L230:
 933:Core/Src/Main/Action.c **** 			{
 3549              		.loc 1 933 4 is_stmt 1 view .LVU1095
 933:Core/Src/Main/Action.c **** 			{
 3550              		.loc 1 933 30 is_stmt 0 view .LVU1096
 3551 015e 237A     		ldrb	r3, [r4, #8]	@ zero_extendqisi2
 3552 0160 03F03002 		and	r2, r3, #48
 933:Core/Src/Main/Action.c **** 			{
 3553              		.loc 1 933 7 view .LVU1097
 3554 0164 102A     		cmp	r2, #16
 3555 0166 1AD0     		beq	.L258
 942:Core/Src/Main/Action.c **** 			{
 3556              		.loc 1 942 9 is_stmt 1 view .LVU1098
 942:Core/Src/Main/Action.c **** 			{
 3557              		.loc 1 942 35 is_stmt 0 view .LVU1099
 3558 0168 03F00303 		and	r3, r3, #3
 942:Core/Src/Main/Action.c **** 			{
 3559              		.loc 1 942 12 view .LVU1100
 3560 016c 012B     		cmp	r3, #1
 3561 016e 7FF478AF 		bne	.L227
 944:Core/Src/Main/Action.c **** 				Compensate();//å¾Œã‚å£èª¿æ•´
 3562              		.loc 1 944 5 is_stmt 1 view .LVU1101
 3563 0172 0121     		movs	r1, #1
 3564 0174 2846     		mov	r0, r5
ARM GAS  C:\Users\leopi\AppData\Local\Temp\ccNfTY3A.s 			page 88


 3565 0176 FFF7FEFF 		bl	PIDChangeFlag
 3566              	.LVL206:
 945:Core/Src/Main/Action.c **** 				Pid[wall_ctrl].flag = 0;
 3567              		.loc 1 945 5 view .LVU1102
 3568 017a FFF7FEFF 		bl	Compensate
 3569              	.LVL207:
 946:Core/Src/Main/Action.c **** 				TargetAngularV = 0;
 3570              		.loc 1 946 5 view .LVU1103
 946:Core/Src/Main/Action.c **** 				TargetAngularV = 0;
 3571              		.loc 1 946 25 is_stmt 0 view .LVU1104
 3572 017e 374B     		ldr	r3, .L260+4
 3573 0180 2C22     		movs	r2, #44
 3574 0182 02FB0535 		mla	r5, r2, r5, r3
 3575              	.LVL208:
 946:Core/Src/Main/Action.c **** 				TargetAngularV = 0;
 3576              		.loc 1 946 25 view .LVU1105
 3577 0186 0023     		movs	r3, #0
 3578 0188 AB62     		str	r3, [r5, #40]
 947:Core/Src/Main/Action.c **** 				Angle = TargetAngle;
 3579              		.loc 1 947 5 is_stmt 1 view .LVU1106
 947:Core/Src/Main/Action.c **** 				Angle = TargetAngle;
 3580              		.loc 1 947 20 is_stmt 0 view .LVU1107
 3581 018a 354B     		ldr	r3, .L260+8
 3582 018c 0022     		movs	r2, #0
 3583 018e 1A60     		str	r2, [r3]	@ float
 948:Core/Src/Main/Action.c **** 				return 61.5;
 3584              		.loc 1 948 5 is_stmt 1 view .LVU1108
 948:Core/Src/Main/Action.c **** 				return 61.5;
 3585              		.loc 1 948 11 is_stmt 0 view .LVU1109
 3586 0190 384B     		ldr	r3, .L260+28
 3587 0192 1A68     		ldr	r2, [r3]	@ float
 3588 0194 384B     		ldr	r3, .L260+32
 3589 0196 1A60     		str	r2, [r3]	@ float
 949:Core/Src/Main/Action.c **** 			}
 3590              		.loc 1 949 5 is_stmt 1 view .LVU1110
 949:Core/Src/Main/Action.c **** 			}
 3591              		.loc 1 949 12 is_stmt 0 view .LVU1111
 3592 0198 9FED380A 		vldr.32	s0, .L260+36
 3593 019c 6CE7     		b	.L226
 3594              	.LVL209:
 3595              	.L258:
 936:Core/Src/Main/Action.c **** 				PIDChangeFlag(wall_ctrl, 1);
 3596              		.loc 1 936 5 is_stmt 1 view .LVU1112
 3597 019e 6FF00400 		mvn	r0, #4
 3598 01a2 FFF7FEFF 		bl	Calib
 3599              	.LVL210:
 937:Core/Src/Main/Action.c **** 				while( !((photo_threshold[0]< Photo[FL] + Photo[FR]) && (Photo[FL] + Photo[FR] < photo_threshol
 3600              		.loc 1 937 5 view .LVU1113
 3601 01a6 0121     		movs	r1, #1
 3602 01a8 2846     		mov	r0, r5
 3603 01aa FFF7FEFF 		bl	PIDChangeFlag
 3604              	.LVL211:
 938:Core/Src/Main/Action.c **** 					{
 3605              		.loc 1 938 5 view .LVU1114
 3606              	.L243:
 940:Core/Src/Main/Action.c **** 			}
 3607              		.loc 1 940 6 discriminator 3 view .LVU1115
ARM GAS  C:\Users\leopi\AppData\Local\Temp\ccNfTY3A.s 			page 89


 938:Core/Src/Main/Action.c **** 					{
 3608              		.loc 1 938 10 discriminator 3 view .LVU1116
 938:Core/Src/Main/Action.c **** 					{
 3609              		.loc 1 938 40 is_stmt 0 discriminator 3 view .LVU1117
 3610 01ae 2E4B     		ldr	r3, .L260+16
 3611 01b0 D3ED007A 		vldr.32	s15, [r3]
 938:Core/Src/Main/Action.c **** 					{
 3612              		.loc 1 938 52 discriminator 3 view .LVU1118
 3613 01b4 93ED037A 		vldr.32	s14, [r3, #12]
 938:Core/Src/Main/Action.c **** 					{
 3614              		.loc 1 938 45 discriminator 3 view .LVU1119
 3615 01b8 77EE877A 		vadd.f32	s15, s15, s14
 938:Core/Src/Main/Action.c **** 					{
 3616              		.loc 1 938 10 discriminator 3 view .LVU1120
 3617 01bc 9FED2B7A 		vldr.32	s14, .L260+20
 3618 01c0 F4EEC77A 		vcmpe.f32	s15, s14
 3619 01c4 F1EE10FA 		vmrs	APSR_nzcv, FPSCR
 3620 01c8 F1DD     		ble	.L243
 938:Core/Src/Main/Action.c **** 					{
 3621              		.loc 1 938 12 discriminator 2 view .LVU1121
 3622 01ca 9FED297A 		vldr.32	s14, .L260+24
 3623 01ce F4EEC77A 		vcmpe.f32	s15, s14
 3624 01d2 F1EE10FA 		vmrs	APSR_nzcv, FPSCR
 3625 01d6 EAD5     		bpl	.L243
 3626 01d8 43E7     		b	.L227
 3627              	.L228:
 953:Core/Src/Main/Action.c **** 			{
 3628              		.loc 1 953 4 is_stmt 1 view .LVU1122
 953:Core/Src/Main/Action.c **** 			{
 3629              		.loc 1 953 29 is_stmt 0 view .LVU1123
 3630 01da 237A     		ldrb	r3, [r4, #8]	@ zero_extendqisi2
 3631 01dc 03F0C002 		and	r2, r3, #192
 953:Core/Src/Main/Action.c **** 			{
 3632              		.loc 1 953 7 view .LVU1124
 3633 01e0 402A     		cmp	r2, #64
 3634 01e2 1AD0     		beq	.L259
 962:Core/Src/Main/Action.c **** 			{
 3635              		.loc 1 962 9 is_stmt 1 view .LVU1125
 962:Core/Src/Main/Action.c **** 			{
 3636              		.loc 1 962 34 is_stmt 0 view .LVU1126
 3637 01e4 03F00C03 		and	r3, r3, #12
 962:Core/Src/Main/Action.c **** 			{
 3638              		.loc 1 962 12 view .LVU1127
 3639 01e8 042B     		cmp	r3, #4
 3640 01ea 7FF43AAF 		bne	.L227
 964:Core/Src/Main/Action.c **** 				Compensate();//å¾Œã‚å£èª¿æ•´
 3641              		.loc 1 964 5 is_stmt 1 view .LVU1128
 3642 01ee 0121     		movs	r1, #1
 3643 01f0 2846     		mov	r0, r5
 3644 01f2 FFF7FEFF 		bl	PIDChangeFlag
 3645              	.LVL212:
 965:Core/Src/Main/Action.c **** 				Pid[wall_ctrl].flag = 0;
 3646              		.loc 1 965 5 view .LVU1129
 3647 01f6 FFF7FEFF 		bl	Compensate
 3648              	.LVL213:
 966:Core/Src/Main/Action.c **** 				TargetAngularV = 0;
 3649              		.loc 1 966 5 view .LVU1130
ARM GAS  C:\Users\leopi\AppData\Local\Temp\ccNfTY3A.s 			page 90


 966:Core/Src/Main/Action.c **** 				TargetAngularV = 0;
 3650              		.loc 1 966 25 is_stmt 0 view .LVU1131
 3651 01fa 184B     		ldr	r3, .L260+4
 3652 01fc 2C22     		movs	r2, #44
 3653 01fe 02FB0535 		mla	r5, r2, r5, r3
 3654              	.LVL214:
 966:Core/Src/Main/Action.c **** 				TargetAngularV = 0;
 3655              		.loc 1 966 25 view .LVU1132
 3656 0202 0023     		movs	r3, #0
 3657 0204 AB62     		str	r3, [r5, #40]
 967:Core/Src/Main/Action.c **** 				Angle = TargetAngle;
 3658              		.loc 1 967 5 is_stmt 1 view .LVU1133
 967:Core/Src/Main/Action.c **** 				Angle = TargetAngle;
 3659              		.loc 1 967 20 is_stmt 0 view .LVU1134
 3660 0206 164B     		ldr	r3, .L260+8
 3661 0208 0022     		movs	r2, #0
 3662 020a 1A60     		str	r2, [r3]	@ float
 968:Core/Src/Main/Action.c **** 				return 61.5;
 3663              		.loc 1 968 5 is_stmt 1 view .LVU1135
 968:Core/Src/Main/Action.c **** 				return 61.5;
 3664              		.loc 1 968 11 is_stmt 0 view .LVU1136
 3665 020c 194B     		ldr	r3, .L260+28
 3666 020e 1A68     		ldr	r2, [r3]	@ float
 3667 0210 194B     		ldr	r3, .L260+32
 3668 0212 1A60     		str	r2, [r3]	@ float
 969:Core/Src/Main/Action.c **** 			}
 3669              		.loc 1 969 5 is_stmt 1 view .LVU1137
 969:Core/Src/Main/Action.c **** 			}
 3670              		.loc 1 969 12 is_stmt 0 view .LVU1138
 3671 0214 9FED190A 		vldr.32	s0, .L260+36
 3672 0218 2EE7     		b	.L226
 3673              	.LVL215:
 3674              	.L259:
 956:Core/Src/Main/Action.c **** 				PIDChangeFlag(wall_ctrl, 1);
 3675              		.loc 1 956 5 is_stmt 1 view .LVU1139
 3676 021a 6FF00400 		mvn	r0, #4
 3677 021e FFF7FEFF 		bl	Calib
 3678              	.LVL216:
 957:Core/Src/Main/Action.c **** 				while( !((photo_threshold[0] < Photo[FL] + Photo[FR]) && (Photo[FL] + Photo[FR] < photo_thresho
 3679              		.loc 1 957 5 view .LVU1140
 3680 0222 0121     		movs	r1, #1
 3681 0224 2846     		mov	r0, r5
 3682 0226 FFF7FEFF 		bl	PIDChangeFlag
 3683              	.LVL217:
 958:Core/Src/Main/Action.c **** 					{
 3684              		.loc 1 958 5 view .LVU1141
 3685              	.L247:
 960:Core/Src/Main/Action.c **** 			}
 3686              		.loc 1 960 6 discriminator 3 view .LVU1142
 958:Core/Src/Main/Action.c **** 					{
 3687              		.loc 1 958 10 discriminator 3 view .LVU1143
 958:Core/Src/Main/Action.c **** 					{
 3688              		.loc 1 958 41 is_stmt 0 discriminator 3 view .LVU1144
 3689 022a 0F4B     		ldr	r3, .L260+16
 3690 022c D3ED007A 		vldr.32	s15, [r3]
 958:Core/Src/Main/Action.c **** 					{
 3691              		.loc 1 958 53 discriminator 3 view .LVU1145
ARM GAS  C:\Users\leopi\AppData\Local\Temp\ccNfTY3A.s 			page 91


 3692 0230 93ED037A 		vldr.32	s14, [r3, #12]
 958:Core/Src/Main/Action.c **** 					{
 3693              		.loc 1 958 46 discriminator 3 view .LVU1146
 3694 0234 77EE877A 		vadd.f32	s15, s15, s14
 958:Core/Src/Main/Action.c **** 					{
 3695              		.loc 1 958 10 discriminator 3 view .LVU1147
 3696 0238 9FED0C7A 		vldr.32	s14, .L260+20
 3697 023c F4EEC77A 		vcmpe.f32	s15, s14
 3698 0240 F1EE10FA 		vmrs	APSR_nzcv, FPSCR
 3699 0244 F1DD     		ble	.L247
 958:Core/Src/Main/Action.c **** 					{
 3700              		.loc 1 958 12 discriminator 2 view .LVU1148
 3701 0246 9FED0A7A 		vldr.32	s14, .L260+24
 3702 024a F4EEC77A 		vcmpe.f32	s15, s14
 3703 024e F1EE10FA 		vmrs	APSR_nzcv, FPSCR
 3704 0252 EAD5     		bpl	.L247
 3705 0254 05E7     		b	.L227
 3706              	.L261:
 3707 0256 00BF     		.align	2
 3708              	.L260:
 3709 0258 04000000 		.word	.LANCHOR0+4
 3710 025c 00000000 		.word	Pid
 3711 0260 00000000 		.word	TargetAngularV
 3712 0264 00003442 		.word	1110704128
 3713 0268 00000000 		.word	Photo
 3714 026c 00006145 		.word	1163984896
 3715 0270 00007A45 		.word	1165623296
 3716 0274 00000000 		.word	TargetAngle
 3717 0278 00000000 		.word	Angle
 3718 027c 00007642 		.word	1115029504
 3719              		.cfi_endproc
 3720              	.LFE252:
 3722              		.section	.text.GetWallCompensateDir,"ax",%progbits
 3723              		.align	1
 3724              		.global	GetWallCompensateDir
 3725              		.syntax unified
 3726              		.thumb
 3727              		.thumb_func
 3729              	GetWallCompensateDir:
 3730              	.LVL218:
 3731              	.LFB253:
 978:Core/Src/Main/Action.c **** int GetWallCompensateDir(profile *mouse)
 979:Core/Src/Main/Action.c **** {
 3732              		.loc 1 979 1 is_stmt 1 view -0
 3733              		.cfi_startproc
 3734              		@ args = 0, pretend = 0, frame = 0
 3735              		@ frame_needed = 0, uses_anonymous_args = 0
 3736              		@ link register save eliminated.
 980:Core/Src/Main/Action.c **** 	switch(mouse->now.car%8)
 3737              		.loc 1 980 2 view .LVU1150
 3738              		.loc 1 980 19 is_stmt 0 view .LVU1151
 3739 0000 8379     		ldrb	r3, [r0, #6]	@ zero_extendqisi2
 3740              		.loc 1 980 2 view .LVU1152
 3741 0002 03F00703 		and	r3, r3, #7
 3742 0006 062B     		cmp	r3, #6
 3743 0008 31D8     		bhi	.L269
 3744 000a DFE803F0 		tbb	[pc, r3]
ARM GAS  C:\Users\leopi\AppData\Local\Temp\ccNfTY3A.s 			page 92


 3745              	.L265:
 3746 000e 04       		.byte	(.L268-.L265)/2
 3747 000f 30       		.byte	(.L269-.L265)/2
 3748 0010 0F       		.byte	(.L267-.L265)/2
 3749 0011 30       		.byte	(.L269-.L265)/2
 3750 0012 1A       		.byte	(.L266-.L265)/2
 3751 0013 30       		.byte	(.L269-.L265)/2
 3752 0014 25       		.byte	(.L264-.L265)/2
 3753 0015 00       		.p2align 1
 3754              	.L268:
 981:Core/Src/Main/Action.c **** 			{
 982:Core/Src/Main/Action.c **** 			case north:
 983:Core/Src/Main/Action.c **** 
 984:Core/Src/Main/Action.c **** 				if(mouse->now.wall.east == WALL)
 3755              		.loc 1 984 5 is_stmt 1 view .LVU1153
 3756              		.loc 1 984 29 is_stmt 0 view .LVU1154
 3757 0016 037A     		ldrb	r3, [r0, #8]	@ zero_extendqisi2
 3758 0018 03F00C02 		and	r2, r3, #12
 3759              		.loc 1 984 7 view .LVU1155
 3760 001c 042A     		cmp	r2, #4
 3761 001e 28D0     		beq	.L270
 985:Core/Src/Main/Action.c **** 				{
 986:Core/Src/Main/Action.c **** 					return R_WALL_PID;
 987:Core/Src/Main/Action.c **** 				}
 988:Core/Src/Main/Action.c **** 				else if(mouse->now.wall.west == WALL)
 3762              		.loc 1 988 10 is_stmt 1 view .LVU1156
 3763              		.loc 1 988 34 is_stmt 0 view .LVU1157
 3764 0020 03F0C003 		and	r3, r3, #192
 3765              		.loc 1 988 12 view .LVU1158
 3766 0024 402B     		cmp	r3, #64
 3767 0026 26D0     		beq	.L271
 989:Core/Src/Main/Action.c **** 				{
 990:Core/Src/Main/Action.c **** 					return L_WALL_PID;
 991:Core/Src/Main/Action.c **** 				}
 992:Core/Src/Main/Action.c **** 				break;
 993:Core/Src/Main/Action.c **** 
 994:Core/Src/Main/Action.c **** 			case east:
 995:Core/Src/Main/Action.c **** 				if(mouse->now.wall.north == WALL)
 996:Core/Src/Main/Action.c **** 				{
 997:Core/Src/Main/Action.c **** 					return L_WALL_PID;
 998:Core/Src/Main/Action.c **** 				}
 999:Core/Src/Main/Action.c **** 				else if(mouse->now.wall.south == WALL)
1000:Core/Src/Main/Action.c **** 				{
1001:Core/Src/Main/Action.c **** 					return R_WALL_PID;
1002:Core/Src/Main/Action.c **** 				}
1003:Core/Src/Main/Action.c **** 				break;
1004:Core/Src/Main/Action.c **** 			case south:
1005:Core/Src/Main/Action.c **** 				if(mouse->now.wall.east == WALL)
1006:Core/Src/Main/Action.c **** 				{
1007:Core/Src/Main/Action.c **** 					return L_WALL_PID;
1008:Core/Src/Main/Action.c **** 				}
1009:Core/Src/Main/Action.c **** 				else if(mouse->now.wall.west == WALL)
1010:Core/Src/Main/Action.c **** 				{
1011:Core/Src/Main/Action.c **** 					return R_WALL_PID;
1012:Core/Src/Main/Action.c **** 				}
1013:Core/Src/Main/Action.c **** 				break;
1014:Core/Src/Main/Action.c **** 			case west:
ARM GAS  C:\Users\leopi\AppData\Local\Temp\ccNfTY3A.s 			page 93


1015:Core/Src/Main/Action.c **** 				if ( mouse->now.wall.north == WALL )
1016:Core/Src/Main/Action.c **** 				{
1017:Core/Src/Main/Action.c **** 					return R_WALL_PID;
1018:Core/Src/Main/Action.c **** 				}
1019:Core/Src/Main/Action.c **** 				else if ( mouse->now.wall.south == WALL )
1020:Core/Src/Main/Action.c **** 				{
1021:Core/Src/Main/Action.c **** 					return L_WALL_PID;
1022:Core/Src/Main/Action.c **** 				}
1023:Core/Src/Main/Action.c **** 				break;
1024:Core/Src/Main/Action.c **** 
1025:Core/Src/Main/Action.c **** 			default:
1026:Core/Src/Main/Action.c **** 				//æ–œã‚æ–¹å‘
1027:Core/Src/Main/Action.c **** 				return N_WALL_PID;
1028:Core/Src/Main/Action.c **** 				break;
1029:Core/Src/Main/Action.c **** 			}
1030:Core/Src/Main/Action.c **** 	return N_WALL_PID;
 3768              		.loc 1 1030 9 view .LVU1159
 3769 0028 0620     		movs	r0, #6
 3770              	.LVL219:
 3771              		.loc 1 1030 9 view .LVU1160
 3772 002a 7047     		bx	lr
 3773              	.LVL220:
 3774              	.L267:
 995:Core/Src/Main/Action.c **** 				{
 3775              		.loc 1 995 5 is_stmt 1 view .LVU1161
 995:Core/Src/Main/Action.c **** 				{
 3776              		.loc 1 995 30 is_stmt 0 view .LVU1162
 3777 002c 037A     		ldrb	r3, [r0, #8]	@ zero_extendqisi2
 3778 002e 03F00302 		and	r2, r3, #3
 995:Core/Src/Main/Action.c **** 				{
 3779              		.loc 1 995 7 view .LVU1163
 3780 0032 012A     		cmp	r2, #1
 3781 0034 21D0     		beq	.L272
 999:Core/Src/Main/Action.c **** 				{
 3782              		.loc 1 999 10 is_stmt 1 view .LVU1164
 999:Core/Src/Main/Action.c **** 				{
 3783              		.loc 1 999 35 is_stmt 0 view .LVU1165
 3784 0036 03F03003 		and	r3, r3, #48
 999:Core/Src/Main/Action.c **** 				{
 3785              		.loc 1 999 12 view .LVU1166
 3786 003a 102B     		cmp	r3, #16
 3787 003c 1FD0     		beq	.L273
 3788              		.loc 1 1030 9 view .LVU1167
 3789 003e 0620     		movs	r0, #6
 3790              	.LVL221:
 3791              		.loc 1 1030 9 view .LVU1168
 3792 0040 7047     		bx	lr
 3793              	.LVL222:
 3794              	.L266:
1005:Core/Src/Main/Action.c **** 				{
 3795              		.loc 1 1005 5 is_stmt 1 view .LVU1169
1005:Core/Src/Main/Action.c **** 				{
 3796              		.loc 1 1005 29 is_stmt 0 view .LVU1170
 3797 0042 037A     		ldrb	r3, [r0, #8]	@ zero_extendqisi2
 3798 0044 03F00C02 		and	r2, r3, #12
1005:Core/Src/Main/Action.c **** 				{
 3799              		.loc 1 1005 7 view .LVU1171
ARM GAS  C:\Users\leopi\AppData\Local\Temp\ccNfTY3A.s 			page 94


 3800 0048 042A     		cmp	r2, #4
 3801 004a 1AD0     		beq	.L274
1009:Core/Src/Main/Action.c **** 				{
 3802              		.loc 1 1009 10 is_stmt 1 view .LVU1172
1009:Core/Src/Main/Action.c **** 				{
 3803              		.loc 1 1009 34 is_stmt 0 view .LVU1173
 3804 004c 03F0C003 		and	r3, r3, #192
1009:Core/Src/Main/Action.c **** 				{
 3805              		.loc 1 1009 12 view .LVU1174
 3806 0050 402B     		cmp	r3, #64
 3807 0052 18D0     		beq	.L275
 3808              		.loc 1 1030 9 view .LVU1175
 3809 0054 0620     		movs	r0, #6
 3810              	.LVL223:
 3811              		.loc 1 1030 9 view .LVU1176
 3812 0056 7047     		bx	lr
 3813              	.LVL224:
 3814              	.L264:
1015:Core/Src/Main/Action.c **** 				{
 3815              		.loc 1 1015 5 is_stmt 1 view .LVU1177
1015:Core/Src/Main/Action.c **** 				{
 3816              		.loc 1 1015 32 is_stmt 0 view .LVU1178
 3817 0058 037A     		ldrb	r3, [r0, #8]	@ zero_extendqisi2
 3818 005a 03F00302 		and	r2, r3, #3
1015:Core/Src/Main/Action.c **** 				{
 3819              		.loc 1 1015 8 view .LVU1179
 3820 005e 012A     		cmp	r2, #1
 3821 0060 13D0     		beq	.L276
1019:Core/Src/Main/Action.c **** 				{
 3822              		.loc 1 1019 10 is_stmt 1 view .LVU1180
1019:Core/Src/Main/Action.c **** 				{
 3823              		.loc 1 1019 37 is_stmt 0 view .LVU1181
 3824 0062 03F03003 		and	r3, r3, #48
1019:Core/Src/Main/Action.c **** 				{
 3825              		.loc 1 1019 13 view .LVU1182
 3826 0066 102B     		cmp	r3, #16
 3827 0068 11D0     		beq	.L277
 3828              		.loc 1 1030 9 view .LVU1183
 3829 006a 0620     		movs	r0, #6
 3830              	.LVL225:
 3831              		.loc 1 1030 9 view .LVU1184
 3832 006c 7047     		bx	lr
 3833              	.LVL226:
 3834              	.L269:
 980:Core/Src/Main/Action.c **** 			{
 3835              		.loc 1 980 2 view .LVU1185
 3836 006e 0620     		movs	r0, #6
 3837              	.LVL227:
 980:Core/Src/Main/Action.c **** 			{
 3838              		.loc 1 980 2 view .LVU1186
 3839 0070 7047     		bx	lr
 3840              	.LVL228:
 3841              	.L270:
 986:Core/Src/Main/Action.c **** 				}
 3842              		.loc 1 986 13 view .LVU1187
 3843 0072 0320     		movs	r0, #3
 3844              	.LVL229:
ARM GAS  C:\Users\leopi\AppData\Local\Temp\ccNfTY3A.s 			page 95


 986:Core/Src/Main/Action.c **** 				}
 3845              		.loc 1 986 13 view .LVU1188
 3846 0074 7047     		bx	lr
 3847              	.LVL230:
 3848              	.L271:
 990:Core/Src/Main/Action.c **** 				}
 3849              		.loc 1 990 13 view .LVU1189
 3850 0076 0220     		movs	r0, #2
 3851              	.LVL231:
 990:Core/Src/Main/Action.c **** 				}
 3852              		.loc 1 990 13 view .LVU1190
 3853 0078 7047     		bx	lr
 3854              	.LVL232:
 3855              	.L272:
 997:Core/Src/Main/Action.c **** 				}
 3856              		.loc 1 997 13 view .LVU1191
 3857 007a 0220     		movs	r0, #2
 3858              	.LVL233:
 997:Core/Src/Main/Action.c **** 				}
 3859              		.loc 1 997 13 view .LVU1192
 3860 007c 7047     		bx	lr
 3861              	.LVL234:
 3862              	.L273:
1001:Core/Src/Main/Action.c **** 				}
 3863              		.loc 1 1001 13 view .LVU1193
 3864 007e 0320     		movs	r0, #3
 3865              	.LVL235:
1001:Core/Src/Main/Action.c **** 				}
 3866              		.loc 1 1001 13 view .LVU1194
 3867 0080 7047     		bx	lr
 3868              	.LVL236:
 3869              	.L274:
1007:Core/Src/Main/Action.c **** 				}
 3870              		.loc 1 1007 13 view .LVU1195
 3871 0082 0220     		movs	r0, #2
 3872              	.LVL237:
1007:Core/Src/Main/Action.c **** 				}
 3873              		.loc 1 1007 13 view .LVU1196
 3874 0084 7047     		bx	lr
 3875              	.LVL238:
 3876              	.L275:
1011:Core/Src/Main/Action.c **** 				}
 3877              		.loc 1 1011 13 view .LVU1197
 3878 0086 0320     		movs	r0, #3
 3879              	.LVL239:
1011:Core/Src/Main/Action.c **** 				}
 3880              		.loc 1 1011 13 view .LVU1198
 3881 0088 7047     		bx	lr
 3882              	.LVL240:
 3883              	.L276:
1017:Core/Src/Main/Action.c **** 				}
 3884              		.loc 1 1017 13 view .LVU1199
 3885 008a 0320     		movs	r0, #3
 3886              	.LVL241:
1017:Core/Src/Main/Action.c **** 				}
 3887              		.loc 1 1017 13 view .LVU1200
 3888 008c 7047     		bx	lr
ARM GAS  C:\Users\leopi\AppData\Local\Temp\ccNfTY3A.s 			page 96


 3889              	.LVL242:
 3890              	.L277:
1021:Core/Src/Main/Action.c **** 				}
 3891              		.loc 1 1021 13 view .LVU1201
 3892 008e 0220     		movs	r0, #2
 3893              	.LVL243:
1031:Core/Src/Main/Action.c **** }
 3894              		.loc 1 1031 1 view .LVU1202
 3895 0090 7047     		bx	lr
 3896              		.cfi_endproc
 3897              	.LFE253:
 3899              		.section	.text.GoStraight,"ax",%progbits
 3900              		.align	1
 3901              		.global	GoStraight
 3902              		.syntax unified
 3903              		.thumb
 3904              		.thumb_func
 3906              	GoStraight:
 3907              	.LVL244:
 3908              	.LFB254:
1032:Core/Src/Main/Action.c **** void GoStraight(float move_distance,  float explore_speed, int accel_or_decel, maze_node *maze, pro
1033:Core/Src/Main/Action.c **** {
 3909              		.loc 1 1033 1 is_stmt 1 view -0
 3910              		.cfi_startproc
 3911              		@ args = 0, pretend = 0, frame = 8
 3912              		@ frame_needed = 0, uses_anonymous_args = 0
 3913              		.loc 1 1033 1 is_stmt 0 view .LVU1204
 3914 0000 2DE9F04F 		push	{r4, r5, r6, r7, r8, r9, r10, fp, lr}
 3915              	.LCFI27:
 3916              		.cfi_def_cfa_offset 36
 3917              		.cfi_offset 4, -36
 3918              		.cfi_offset 5, -32
 3919              		.cfi_offset 6, -28
 3920              		.cfi_offset 7, -24
 3921              		.cfi_offset 8, -20
 3922              		.cfi_offset 9, -16
 3923              		.cfi_offset 10, -12
 3924              		.cfi_offset 11, -8
 3925              		.cfi_offset 14, -4
 3926 0004 83B0     		sub	sp, sp, #12
 3927              	.LCFI28:
 3928              		.cfi_def_cfa_offset 48
 3929 0006 0191     		str	r1, [sp, #4]
 3930 0008 9246     		mov	r10, r2
1034:Core/Src/Main/Action.c **** 	//æ–œã‚èµ°è¡Œæ™‚ã®ç›´é€²ã¯åˆ¥ã§ä½œã‚‹
1035:Core/Src/Main/Action.c **** 
1036:Core/Src/Main/Action.c **** 	Pid[A_VELO_PID].flag = 1;
 3931              		.loc 1 1036 2 is_stmt 1 view .LVU1205
 3932              		.loc 1 1036 23 is_stmt 0 view .LVU1206
 3933 000a 914B     		ldr	r3, .L305+16
 3934 000c 0122     		movs	r2, #1
 3935              	.LVL245:
 3936              		.loc 1 1036 23 view .LVU1207
 3937 000e 9A62     		str	r2, [r3, #40]
1037:Core/Src/Main/Action.c **** 	int target_pulse = (int)(move_distance*TO_PULSE);
 3938              		.loc 1 1037 2 is_stmt 1 view .LVU1208
 3939              		.loc 1 1037 40 is_stmt 0 view .LVU1209
ARM GAS  C:\Users\leopi\AppData\Local\Temp\ccNfTY3A.s 			page 97


 3940 0010 DFED907A 		vldr.32	s15, .L305+20
 3941 0014 60EE277A 		vmul.f32	s15, s0, s15
 3942              	.LVL246:
1038:Core/Src/Main/Action.c **** 	if(accel_or_decel == 1) //åŠ é€Ÿã™ã‚‹ã¨ã
 3943              		.loc 1 1038 2 is_stmt 1 view .LVU1210
 3944              		.loc 1 1038 4 is_stmt 0 view .LVU1211
 3945 0018 9042     		cmp	r0, r2
 3946 001a 1AD0     		beq	.L301
 3947 001c FDEEE77A 		vcvt.s32.f32	s15, s15
 3948              	.LVL247:
 3949              		.loc 1 1038 4 view .LVU1212
 3950 0020 17EE904A 		vmov	r4, s15	@ int
1039:Core/Src/Main/Action.c **** 	{
1040:Core/Src/Main/Action.c **** 		VelocityMax = true;
1041:Core/Src/Main/Action.c **** 		Accel( move_distance , explore_speed, maze, mouse);
1042:Core/Src/Main/Action.c **** 	}
1043:Core/Src/Main/Action.c **** 	else if(accel_or_decel == -1) //æŽ¢ç´¢é€Ÿåº¦ã¾ã§ã®æ¸›é€Ÿ. ã‚¿ãƒ¼ãƒ³é€Ÿåº¦ã¾ã§ã®æ¸›é€Ÿã‚‚å¾Œã
 3951              		.loc 1 1043 7 is_stmt 1 view .LVU1213
 3952              		.loc 1 1043 9 is_stmt 0 view .LVU1214
 3953 0024 B0F1FF3F 		cmp	r0, #-1
 3954 0028 1AD0     		beq	.L302
 3955              	.LBB5:
1044:Core/Src/Main/Action.c **** 	{
1045:Core/Src/Main/Action.c **** 		VelocityMax = false;
1046:Core/Src/Main/Action.c **** 		Decel( move_distance*0.75f, explore_speed); //0.8ã§æ¸›é€Ÿ
1047:Core/Src/Main/Action.c **** 		while( ( KeepPulse[BODY] +(target_pulse*0.25f)) > ( TotalPulse[BODY]) ) //æ®‹ã‚Š0.2ã§ãƒžãƒƒãƒ—ã
1048:Core/Src/Main/Action.c **** 		{
1049:Core/Src/Main/Action.c **** 			if(Calc == 0)//æ¸›é€Ÿçµ‚äº†å¾Œç›´ãã«ãƒžãƒƒãƒ—æ›´æ–°
1050:Core/Src/Main/Action.c **** 			{
1051:Core/Src/Main/Action.c **** 				getWallState(mouse, &Photo[0], maze);
1052:Core/Src/Main/Action.c **** 				Calc = 1;
1053:Core/Src/Main/Action.c **** 			}
1054:Core/Src/Main/Action.c **** 		}
1055:Core/Src/Main/Action.c **** 		KeepPulse[BODY] += target_pulse*0.25f;
1056:Core/Src/Main/Action.c **** 		KeepPulse[LEFT] += target_pulse*0.125f;
1057:Core/Src/Main/Action.c **** 		KeepPulse[RIGHT] += target_pulse*0.125f;
1058:Core/Src/Main/Action.c **** 	}
1059:Core/Src/Main/Action.c **** 
1060:Core/Src/Main/Action.c **** 	else
1061:Core/Src/Main/Action.c **** 	{
1062:Core/Src/Main/Action.c **** 		//å³
1063:Core/Src/Main/Action.c **** 		_Bool wall_cut=false;	//å£åˆ‡ã‚Œç”¨
 3956              		.loc 1 1063 3 is_stmt 1 view .LVU1215
 3957              	.LVL248:
1064:Core/Src/Main/Action.c **** 		_Bool face_check  = false; //ä¸€åº¦ã§ã‚‚æ­£é¢é ˜åŸŸã«åŽã¾ã£ãŸã‹
 3958              		.loc 1 1064 3 view .LVU1216
1065:Core/Src/Main/Action.c **** 
1066:Core/Src/Main/Action.c **** 		int ctrl_mode=A_VELO_PID;
 3959              		.loc 1 1066 3 view .LVU1217
1067:Core/Src/Main/Action.c **** 		direction dir = mouse->now.dir;
 3960              		.loc 1 1067 3 view .LVU1218
 3961              		.loc 1 1067 13 is_stmt 0 view .LVU1219
 3962 002a 9AF80730 		ldrb	r3, [r10, #7]	@ zero_extendqisi2
 3963              	.LVL249:
1068:Core/Src/Main/Action.c **** 		if(!(dir%8 == backright || dir%8 == backleft || dir%8 == back)){
 3964              		.loc 1 1068 3 is_stmt 1 view .LVU1220
 3965              		.loc 1 1068 14 is_stmt 0 view .LVU1221
ARM GAS  C:\Users\leopi\AppData\Local\Temp\ccNfTY3A.s 			page 98


 3966 002e 03F00703 		and	r3, r3, #7
 3967              	.LVL250:
 3968              		.loc 1 1068 5 view .LVU1222
 3969 0032 032B     		cmp	r3, #3
 3970 0034 70D0     		beq	.L293
 3971              		.loc 1 1068 27 discriminator 1 view .LVU1223
 3972 0036 052B     		cmp	r3, #5
 3973 0038 00F0D080 		beq	.L294
 3974              		.loc 1 1068 6 discriminator 2 view .LVU1224
 3975 003c 042B     		cmp	r3, #4
 3976 003e 00F0CF80 		beq	.L295
1069:Core/Src/Main/Action.c **** 			ctrl_mode = GetWallCtrlDirection(mouse);
 3977              		.loc 1 1069 4 is_stmt 1 view .LVU1225
 3978              		.loc 1 1069 16 is_stmt 0 view .LVU1226
 3979 0042 5046     		mov	r0, r10
 3980              	.LVL251:
 3981              		.loc 1 1069 16 view .LVU1227
 3982 0044 FFF7FEFF 		bl	GetWallCtrlDirection
 3983              	.LVL252:
 3984              		.loc 1 1069 16 view .LVU1228
 3985 0048 0546     		mov	r5, r0
 3986              	.LVL253:
1070:Core/Src/Main/Action.c **** 		}
1071:Core/Src/Main/Action.c **** 		if (ctrl_mode == N_WALL_PID )//|| ctrl_mode == F_WALL_PID)
 3987              		.loc 1 1071 3 is_stmt 1 view .LVU1229
 3988              		.loc 1 1071 6 is_stmt 0 view .LVU1230
 3989 004a 0628     		cmp	r0, #6
 3990 004c 65D1     		bne	.L291
1072:Core/Src/Main/Action.c **** 			ctrl_mode = A_VELO_PID;
 3991              		.loc 1 1072 14 view .LVU1231
 3992 004e 0025     		movs	r5, #0
 3993              	.LVL254:
 3994              		.loc 1 1072 14 view .LVU1232
 3995 0050 63E0     		b	.L291
 3996              	.LVL255:
 3997              	.L301:
 3998              		.loc 1 1072 14 view .LVU1233
 3999              	.LBE5:
1040:Core/Src/Main/Action.c **** 		Accel( move_distance , explore_speed, maze, mouse);
 4000              		.loc 1 1040 3 is_stmt 1 view .LVU1234
1040:Core/Src/Main/Action.c **** 		Accel( move_distance , explore_speed, maze, mouse);
 4001              		.loc 1 1040 15 is_stmt 0 view .LVU1235
 4002 0052 814B     		ldr	r3, .L305+24
 4003 0054 1A70     		strb	r2, [r3]
1041:Core/Src/Main/Action.c **** 	}
 4004              		.loc 1 1041 3 is_stmt 1 view .LVU1236
 4005 0056 5146     		mov	r1, r10
 4006              	.LVL256:
1041:Core/Src/Main/Action.c **** 	}
 4007              		.loc 1 1041 3 is_stmt 0 view .LVU1237
 4008 0058 0198     		ldr	r0, [sp, #4]
 4009              	.LVL257:
1041:Core/Src/Main/Action.c **** 	}
 4010              		.loc 1 1041 3 view .LVU1238
 4011 005a FFF7FEFF 		bl	Accel
 4012              	.LVL258:
1041:Core/Src/Main/Action.c **** 	}
ARM GAS  C:\Users\leopi\AppData\Local\Temp\ccNfTY3A.s 			page 99


 4013              		.loc 1 1041 3 view .LVU1239
 4014 005e ECE0     		b	.L278
 4015              	.LVL259:
 4016              	.L302:
1045:Core/Src/Main/Action.c **** 		Decel( move_distance*0.75f, explore_speed); //0.8ã§æ¸›é€Ÿ
 4017              		.loc 1 1045 3 is_stmt 1 view .LVU1240
1045:Core/Src/Main/Action.c **** 		Decel( move_distance*0.75f, explore_speed); //0.8ã§æ¸›é€Ÿ
 4018              		.loc 1 1045 15 is_stmt 0 view .LVU1241
 4019 0060 7D4B     		ldr	r3, .L305+24
 4020 0062 0022     		movs	r2, #0
 4021 0064 1A70     		strb	r2, [r3]
1046:Core/Src/Main/Action.c **** 		while( ( KeepPulse[BODY] +(target_pulse*0.25f)) > ( TotalPulse[BODY]) ) //æ®‹ã‚Š0.2ã§ãƒžãƒƒãƒ—ã
 4022              		.loc 1 1046 3 is_stmt 1 view .LVU1242
 4023 0066 F6EE087A 		vmov.f32	s15, #7.5e-1
 4024 006a 20EE270A 		vmul.f32	s0, s0, s15
 4025              	.LVL260:
1046:Core/Src/Main/Action.c **** 		while( ( KeepPulse[BODY] +(target_pulse*0.25f)) > ( TotalPulse[BODY]) ) //æ®‹ã‚Š0.2ã§ãƒžãƒƒãƒ—ã
 4026              		.loc 1 1046 3 is_stmt 0 view .LVU1243
 4027 006e FFF7FEFF 		bl	Decel
 4028              	.LVL261:
1047:Core/Src/Main/Action.c **** 		{
 4029              		.loc 1 1047 3 is_stmt 1 view .LVU1244
 4030              	.L283:
1047:Core/Src/Main/Action.c **** 		{
 4031              		.loc 1 1047 8 view .LVU1245
1047:Core/Src/Main/Action.c **** 		{
 4032              		.loc 1 1047 21 is_stmt 0 view .LVU1246
 4033 0072 7A4B     		ldr	r3, .L305+28
 4034 0074 D3ED027A 		vldr.32	s15, [r3, #8]	@ int
1047:Core/Src/Main/Action.c **** 		{
 4035              		.loc 1 1047 42 view .LVU1247
 4036 0078 07EE104A 		vmov	s14, r4	@ int
 4037 007c B8EEC76A 		vcvt.f32.s32	s12, s14
 4038 0080 B5EE007A 		vmov.f32	s14, #2.5e-1
 4039 0084 26EE077A 		vmul.f32	s14, s12, s14
1047:Core/Src/Main/Action.c **** 		{
 4040              		.loc 1 1047 28 view .LVU1248
 4041 0088 F8EEE77A 		vcvt.f32.s32	s15, s15
 4042 008c 77EE877A 		vadd.f32	s15, s15, s14
1047:Core/Src/Main/Action.c **** 		{
 4043              		.loc 1 1047 65 view .LVU1249
 4044 0090 734B     		ldr	r3, .L305+32
 4045 0092 D3ED026A 		vldr.32	s13, [r3, #8]	@ int
1047:Core/Src/Main/Action.c **** 		{
 4046              		.loc 1 1047 51 view .LVU1250
 4047 0096 F8EEE66A 		vcvt.f32.s32	s13, s13
1047:Core/Src/Main/Action.c **** 		{
 4048              		.loc 1 1047 8 view .LVU1251
 4049 009a F4EEE67A 		vcmpe.f32	s15, s13
 4050 009e F1EE10FA 		vmrs	APSR_nzcv, FPSCR
 4051 00a2 0CDD     		ble	.L303
1049:Core/Src/Main/Action.c **** 			{
 4052              		.loc 1 1049 4 is_stmt 1 view .LVU1252
1049:Core/Src/Main/Action.c **** 			{
 4053              		.loc 1 1049 12 is_stmt 0 view .LVU1253
 4054 00a4 6F4B     		ldr	r3, .L305+36
 4055 00a6 1B68     		ldr	r3, [r3]
ARM GAS  C:\Users\leopi\AppData\Local\Temp\ccNfTY3A.s 			page 100


1049:Core/Src/Main/Action.c **** 			{
 4056              		.loc 1 1049 6 view .LVU1254
 4057 00a8 002B     		cmp	r3, #0
 4058 00aa E2D1     		bne	.L283
1051:Core/Src/Main/Action.c **** 				Calc = 1;
 4059              		.loc 1 1051 5 is_stmt 1 view .LVU1255
 4060 00ac 019A     		ldr	r2, [sp, #4]
 4061 00ae 6E49     		ldr	r1, .L305+40
 4062 00b0 5046     		mov	r0, r10
 4063 00b2 FFF7FEFF 		bl	getWallState
 4064              	.LVL262:
1052:Core/Src/Main/Action.c **** 			}
 4065              		.loc 1 1052 5 view .LVU1256
1052:Core/Src/Main/Action.c **** 			}
 4066              		.loc 1 1052 10 is_stmt 0 view .LVU1257
 4067 00b6 6B4B     		ldr	r3, .L305+36
 4068 00b8 0122     		movs	r2, #1
 4069 00ba 1A60     		str	r2, [r3]
 4070 00bc D9E7     		b	.L283
 4071              	.L303:
1055:Core/Src/Main/Action.c **** 		KeepPulse[LEFT] += target_pulse*0.125f;
 4072              		.loc 1 1055 3 is_stmt 1 view .LVU1258
1055:Core/Src/Main/Action.c **** 		KeepPulse[LEFT] += target_pulse*0.125f;
 4073              		.loc 1 1055 19 is_stmt 0 view .LVU1259
 4074 00be 674B     		ldr	r3, .L305+28
 4075 00c0 D3ED027A 		vldr.32	s15, [r3, #8]	@ int
 4076 00c4 F8EEE77A 		vcvt.f32.s32	s15, s15
 4077 00c8 37EE877A 		vadd.f32	s14, s15, s14
 4078 00cc BDEEC77A 		vcvt.s32.f32	s14, s14
 4079 00d0 83ED027A 		vstr.32	s14, [r3, #8]	@ int
1056:Core/Src/Main/Action.c **** 		KeepPulse[RIGHT] += target_pulse*0.125f;
 4080              		.loc 1 1056 3 is_stmt 1 view .LVU1260
1056:Core/Src/Main/Action.c **** 		KeepPulse[RIGHT] += target_pulse*0.125f;
 4081              		.loc 1 1056 19 is_stmt 0 view .LVU1261
 4082 00d4 D3ED007A 		vldr.32	s15, [r3]	@ int
1056:Core/Src/Main/Action.c **** 		KeepPulse[RIGHT] += target_pulse*0.125f;
 4083              		.loc 1 1056 34 view .LVU1262
 4084 00d8 B4EE007A 		vmov.f32	s14, #1.25e-1
 4085 00dc 26EE076A 		vmul.f32	s12, s12, s14
1056:Core/Src/Main/Action.c **** 		KeepPulse[RIGHT] += target_pulse*0.125f;
 4086              		.loc 1 1056 19 view .LVU1263
 4087 00e0 F8EEE77A 		vcvt.f32.s32	s15, s15
 4088 00e4 77EE867A 		vadd.f32	s15, s15, s12
 4089 00e8 FDEEE77A 		vcvt.s32.f32	s15, s15
 4090 00ec C3ED007A 		vstr.32	s15, [r3]	@ int
1057:Core/Src/Main/Action.c **** 	}
 4091              		.loc 1 1057 3 is_stmt 1 view .LVU1264
1057:Core/Src/Main/Action.c **** 	}
 4092              		.loc 1 1057 20 is_stmt 0 view .LVU1265
 4093 00f0 D3ED017A 		vldr.32	s15, [r3, #4]	@ int
 4094 00f4 F8EEE77A 		vcvt.f32.s32	s15, s15
 4095 00f8 37EE866A 		vadd.f32	s12, s15, s12
 4096 00fc BDEEC66A 		vcvt.s32.f32	s12, s12
 4097 0100 83ED016A 		vstr.32	s12, [r3, #4]	@ int
 4098 0104 99E0     		b	.L278
 4099              	.LVL263:
 4100              	.L299:
ARM GAS  C:\Users\leopi\AppData\Local\Temp\ccNfTY3A.s 			page 101


 4101              	.LBB6:
1073:Core/Src/Main/Action.c **** 		while( ( KeepPulse[BODY] +(target_pulse)) > ( TotalPulse[BODY]) )
1074:Core/Src/Main/Action.c **** 		{
1075:Core/Src/Main/Action.c **** 			if(KeepPulse[BODY] + (target_pulse*0.4) < TotalPulse[BODY] ){
1076:Core/Src/Main/Action.c **** 				Pid[A_VELO_PID].flag = 1;
1077:Core/Src/Main/Action.c **** 				Pid[ctrl_mode].flag = 0;
1078:Core/Src/Main/Action.c **** 			}
1079:Core/Src/Main/Action.c **** 			else {
1080:Core/Src/Main/Action.c **** 				Pid[A_VELO_PID].flag = 0;
 4102              		.loc 1 1080 5 is_stmt 1 view .LVU1266
 4103              		.loc 1 1080 26 is_stmt 0 view .LVU1267
 4104 0106 524B     		ldr	r3, .L305+16
 4105 0108 0022     		movs	r2, #0
 4106 010a 9A62     		str	r2, [r3, #40]
1081:Core/Src/Main/Action.c **** 				Pid[ctrl_mode].flag = 1;//å£è¦‹ã‚‹
 4107              		.loc 1 1081 5 is_stmt 1 view .LVU1268
 4108              		.loc 1 1081 25 is_stmt 0 view .LVU1269
 4109 010c 2C22     		movs	r2, #44
 4110 010e 02FB0533 		mla	r3, r2, r5, r3
 4111 0112 0122     		movs	r2, #1
 4112 0114 9A62     		str	r2, [r3, #40]
 4113 0116 33E0     		b	.L288
 4114              	.LVL264:
 4115              	.L293:
1066:Core/Src/Main/Action.c **** 		direction dir = mouse->now.dir;
 4116              		.loc 1 1066 7 view .LVU1270
 4117 0118 0025     		movs	r5, #0
 4118              	.LVL265:
 4119              	.L291:
1073:Core/Src/Main/Action.c **** 		while( ( KeepPulse[BODY] +(target_pulse)) > ( TotalPulse[BODY]) )
 4120              		.loc 1 1073 8 is_stmt 1 view .LVU1271
1073:Core/Src/Main/Action.c **** 		while( ( KeepPulse[BODY] +(target_pulse)) > ( TotalPulse[BODY]) )
 4121              		.loc 1 1073 21 is_stmt 0 view .LVU1272
 4122 011a 504B     		ldr	r3, .L305+28
 4123 011c 9B68     		ldr	r3, [r3, #8]
1073:Core/Src/Main/Action.c **** 		while( ( KeepPulse[BODY] +(target_pulse)) > ( TotalPulse[BODY]) )
 4124              		.loc 1 1073 28 view .LVU1273
 4125 011e 2344     		add	r3, r3, r4
1073:Core/Src/Main/Action.c **** 		while( ( KeepPulse[BODY] +(target_pulse)) > ( TotalPulse[BODY]) )
 4126              		.loc 1 1073 59 view .LVU1274
 4127 0120 4F4A     		ldr	r2, .L305+32
 4128 0122 9268     		ldr	r2, [r2, #8]
1073:Core/Src/Main/Action.c **** 		while( ( KeepPulse[BODY] +(target_pulse)) > ( TotalPulse[BODY]) )
 4129              		.loc 1 1073 8 view .LVU1275
 4130 0124 9342     		cmp	r3, r2
 4131 0126 5DDD     		ble	.L304
1075:Core/Src/Main/Action.c **** 				Pid[A_VELO_PID].flag = 1;
 4132              		.loc 1 1075 4 is_stmt 1 view .LVU1276
1075:Core/Src/Main/Action.c **** 				Pid[A_VELO_PID].flag = 1;
 4133              		.loc 1 1075 16 is_stmt 0 view .LVU1277
 4134 0128 4C4B     		ldr	r3, .L305+28
 4135 012a D3F808B0 		ldr	fp, [r3, #8]
1075:Core/Src/Main/Action.c **** 				Pid[A_VELO_PID].flag = 1;
 4136              		.loc 1 1075 38 view .LVU1278
 4137 012e 2046     		mov	r0, r4
 4138 0130 FFF7FEFF 		bl	__aeabi_i2d
 4139              	.LVL266:
ARM GAS  C:\Users\leopi\AppData\Local\Temp\ccNfTY3A.s 			page 102


 4140 0134 0646     		mov	r6, r0
 4141 0136 0F46     		mov	r7, r1
 4142 0138 41A3     		adr	r3, .L305
 4143 013a D3E90023 		ldrd	r2, [r3]
 4144 013e FFF7FEFF 		bl	__aeabi_dmul
 4145              	.LVL267:
 4146 0142 8046     		mov	r8, r0
 4147 0144 8946     		mov	r9, r1
1075:Core/Src/Main/Action.c **** 				Pid[A_VELO_PID].flag = 1;
 4148              		.loc 1 1075 23 view .LVU1279
 4149 0146 5846     		mov	r0, fp
 4150 0148 FFF7FEFF 		bl	__aeabi_i2d
 4151              	.LVL268:
 4152 014c 4246     		mov	r2, r8
 4153 014e 4B46     		mov	r3, r9
 4154 0150 FFF7FEFF 		bl	__aeabi_dadd
 4155              	.LVL269:
 4156 0154 8046     		mov	r8, r0
 4157 0156 8946     		mov	r9, r1
1075:Core/Src/Main/Action.c **** 				Pid[A_VELO_PID].flag = 1;
 4158              		.loc 1 1075 56 view .LVU1280
 4159 0158 414B     		ldr	r3, .L305+32
 4160 015a 9868     		ldr	r0, [r3, #8]
1075:Core/Src/Main/Action.c **** 				Pid[A_VELO_PID].flag = 1;
 4161              		.loc 1 1075 44 view .LVU1281
 4162 015c FFF7FEFF 		bl	__aeabi_i2d
 4163              	.LVL270:
 4164 0160 0246     		mov	r2, r0
 4165 0162 0B46     		mov	r3, r1
1075:Core/Src/Main/Action.c **** 				Pid[A_VELO_PID].flag = 1;
 4166              		.loc 1 1075 6 view .LVU1282
 4167 0164 4046     		mov	r0, r8
 4168 0166 4946     		mov	r1, r9
 4169 0168 FFF7FEFF 		bl	__aeabi_dcmplt
 4170              	.LVL271:
 4171 016c 0028     		cmp	r0, #0
 4172 016e CAD0     		beq	.L299
1076:Core/Src/Main/Action.c **** 				Pid[ctrl_mode].flag = 0;
 4173              		.loc 1 1076 5 is_stmt 1 view .LVU1283
1076:Core/Src/Main/Action.c **** 				Pid[ctrl_mode].flag = 0;
 4174              		.loc 1 1076 26 is_stmt 0 view .LVU1284
 4175 0170 374B     		ldr	r3, .L305+16
 4176 0172 0122     		movs	r2, #1
 4177 0174 9A62     		str	r2, [r3, #40]
1077:Core/Src/Main/Action.c **** 			}
 4178              		.loc 1 1077 5 is_stmt 1 view .LVU1285
1077:Core/Src/Main/Action.c **** 			}
 4179              		.loc 1 1077 25 is_stmt 0 view .LVU1286
 4180 0176 2C22     		movs	r2, #44
 4181 0178 02FB0533 		mla	r3, r2, r5, r3
 4182 017c 0022     		movs	r2, #0
 4183 017e 9A62     		str	r2, [r3, #40]
 4184              	.L288:
1082:Core/Src/Main/Action.c **** 			}
1083:Core/Src/Main/Action.c **** 			if(KeepPulse[BODY] + (target_pulse*0.80) < TotalPulse[BODY] && Calc == 0)
 4185              		.loc 1 1083 4 is_stmt 1 view .LVU1287
 4186              		.loc 1 1083 16 is_stmt 0 view .LVU1288
ARM GAS  C:\Users\leopi\AppData\Local\Temp\ccNfTY3A.s 			page 103


 4187 0180 364B     		ldr	r3, .L305+28
 4188 0182 D3F80880 		ldr	r8, [r3, #8]
 4189              		.loc 1 1083 38 view .LVU1289
 4190 0186 30A3     		adr	r3, .L305+8
 4191 0188 D3E90023 		ldrd	r2, [r3]
 4192 018c 3046     		mov	r0, r6
 4193 018e 3946     		mov	r1, r7
 4194 0190 FFF7FEFF 		bl	__aeabi_dmul
 4195              	.LVL272:
 4196 0194 0646     		mov	r6, r0
 4197 0196 0F46     		mov	r7, r1
 4198              		.loc 1 1083 23 view .LVU1290
 4199 0198 4046     		mov	r0, r8
 4200 019a FFF7FEFF 		bl	__aeabi_i2d
 4201              	.LVL273:
 4202 019e 3246     		mov	r2, r6
 4203 01a0 3B46     		mov	r3, r7
 4204 01a2 FFF7FEFF 		bl	__aeabi_dadd
 4205              	.LVL274:
 4206 01a6 0646     		mov	r6, r0
 4207 01a8 0F46     		mov	r7, r1
 4208              		.loc 1 1083 57 view .LVU1291
 4209 01aa 2D4B     		ldr	r3, .L305+32
 4210 01ac 9868     		ldr	r0, [r3, #8]
 4211              		.loc 1 1083 45 view .LVU1292
 4212 01ae FFF7FEFF 		bl	__aeabi_i2d
 4213              	.LVL275:
 4214 01b2 0246     		mov	r2, r0
 4215 01b4 0B46     		mov	r3, r1
 4216              		.loc 1 1083 6 view .LVU1293
 4217 01b6 3046     		mov	r0, r6
 4218 01b8 3946     		mov	r1, r7
 4219 01ba FFF7FEFF 		bl	__aeabi_dcmplt
 4220              	.LVL276:
 4221 01be 0028     		cmp	r0, #0
 4222 01c0 ABD0     		beq	.L291
 4223              		.loc 1 1083 72 discriminator 1 view .LVU1294
 4224 01c2 284B     		ldr	r3, .L305+36
 4225 01c4 1B68     		ldr	r3, [r3]
 4226              		.loc 1 1083 64 discriminator 1 view .LVU1295
 4227 01c6 002B     		cmp	r3, #0
 4228 01c8 A7D1     		bne	.L291
1084:Core/Src/Main/Action.c **** 			{
1085:Core/Src/Main/Action.c **** 				getWallState(mouse, &Photo[0], maze);
 4229              		.loc 1 1085 5 is_stmt 1 view .LVU1296
 4230 01ca 019A     		ldr	r2, [sp, #4]
 4231 01cc 2649     		ldr	r1, .L305+40
 4232 01ce 5046     		mov	r0, r10
 4233 01d0 FFF7FEFF 		bl	getWallState
 4234              	.LVL277:
1086:Core/Src/Main/Action.c **** 				Calc = 1;
 4235              		.loc 1 1086 5 view .LVU1297
 4236              		.loc 1 1086 10 is_stmt 0 view .LVU1298
 4237 01d4 234B     		ldr	r3, .L305+36
 4238 01d6 0122     		movs	r2, #1
 4239 01d8 1A60     		str	r2, [r3]
 4240 01da 9EE7     		b	.L291
ARM GAS  C:\Users\leopi\AppData\Local\Temp\ccNfTY3A.s 			page 104


 4241              	.LVL278:
 4242              	.L294:
1066:Core/Src/Main/Action.c **** 		direction dir = mouse->now.dir;
 4243              		.loc 1 1066 7 view .LVU1299
 4244 01dc 0025     		movs	r5, #0
 4245 01de 9CE7     		b	.L291
 4246              	.L295:
 4247 01e0 0025     		movs	r5, #0
 4248 01e2 9AE7     		b	.L291
 4249              	.LVL279:
 4250              	.L304:
1087:Core/Src/Main/Action.c **** 			}
1088:Core/Src/Main/Action.c **** 			//å£åˆ‡ã‚Œè£œæ­£
1089:Core/Src/Main/Action.c **** //			if(wall_cut == false && ((50/*LEFT_WALL*0.7f*/ > Photo[SL]) || (50/*RIGHT_WALL*0.7f*/ > Photo[
1090:Core/Src/Main/Action.c **** //			{//
1091:Core/Src/Main/Action.c **** //				TotalPulse[BODY] = KeepPulse[BODY] + (target_pulse-(WALL_CUT_VAL*TO_PULSE));
1092:Core/Src/Main/Action.c **** //				//target_pulse = TotalPulse[BODY] -KeepPulse[BODY] + Wall_Cut_Val;
1093:Core/Src/Main/Action.c **** //				wall_cut = true;
1094:Core/Src/Main/Action.c **** //				ChangeLED(2);
1095:Core/Src/Main/Action.c **** //			}
1096:Core/Src/Main/Action.c **** 
1097:Core/Src/Main/Action.c **** 	//		if( ( keep_pulse + (target_pulse/2) )  <= ( TotalPulse[BODY]) )	//ç§»å‹•é‡ã«å¿œã˜ã¦å‡¦ç†ã
1098:Core/Src/Main/Action.c **** 	//		{
1099:Core/Src/Main/Action.c **** 	//			Acceleration = 0;
1100:Core/Src/Main/Action.c **** 	//		}
1101:Core/Src/Main/Action.c **** 		}
1102:Core/Src/Main/Action.c **** 		Pid[A_VELO_PID].flag = 1;
 4251              		.loc 1 1102 3 is_stmt 1 view .LVU1300
 4252              		.loc 1 1102 24 is_stmt 0 view .LVU1301
 4253 01e4 1A4B     		ldr	r3, .L305+16
 4254 01e6 0122     		movs	r2, #1
 4255 01e8 9A62     		str	r2, [r3, #40]
1103:Core/Src/Main/Action.c **** 		Pid[ctrl_mode].flag = 0;//å£è¦‹ã‚‹
 4256              		.loc 1 1103 3 is_stmt 1 view .LVU1302
 4257              		.loc 1 1103 23 is_stmt 0 view .LVU1303
 4258 01ea 2C20     		movs	r0, #44
 4259 01ec 00FB0533 		mla	r3, r0, r5, r3
 4260 01f0 0022     		movs	r2, #0
 4261 01f2 9A62     		str	r2, [r3, #40]
1104:Core/Src/Main/Action.c **** 		wall_cut = false;
 4262              		.loc 1 1104 3 is_stmt 1 view .LVU1304
1105:Core/Src/Main/Action.c **** 		Acceleration = 0;
 4263              		.loc 1 1105 3 view .LVU1305
 4264              		.loc 1 1105 16 is_stmt 0 view .LVU1306
 4265 01f4 1D4B     		ldr	r3, .L305+44
 4266 01f6 0022     		movs	r2, #0
 4267 01f8 1A60     		str	r2, [r3]	@ float
1106:Core/Src/Main/Action.c **** 		KeepPulse[BODY] += target_pulse;
 4268              		.loc 1 1106 3 is_stmt 1 view .LVU1307
 4269              		.loc 1 1106 19 is_stmt 0 view .LVU1308
 4270 01fa 184B     		ldr	r3, .L305+28
 4271 01fc 9A68     		ldr	r2, [r3, #8]
 4272 01fe 2244     		add	r2, r2, r4
 4273 0200 9A60     		str	r2, [r3, #8]
1107:Core/Src/Main/Action.c **** 		KeepPulse[LEFT] += target_pulse*0.5f;
 4274              		.loc 1 1107 3 is_stmt 1 view .LVU1309
 4275              		.loc 1 1107 19 is_stmt 0 view .LVU1310
ARM GAS  C:\Users\leopi\AppData\Local\Temp\ccNfTY3A.s 			page 105


 4276 0202 93ED007A 		vldr.32	s14, [r3]	@ int
 4277              		.loc 1 1107 34 view .LVU1311
 4278 0206 07EE904A 		vmov	s15, r4	@ int
 4279 020a F8EEE77A 		vcvt.f32.s32	s15, s15
 4280 020e F6EE006A 		vmov.f32	s13, #5.0e-1
 4281 0212 67EEA67A 		vmul.f32	s15, s15, s13
 4282              		.loc 1 1107 19 view .LVU1312
 4283 0216 B8EEC77A 		vcvt.f32.s32	s14, s14
 4284 021a 37EE277A 		vadd.f32	s14, s14, s15
 4285 021e BDEEC77A 		vcvt.s32.f32	s14, s14
 4286 0222 83ED007A 		vstr.32	s14, [r3]	@ int
1108:Core/Src/Main/Action.c **** 		KeepPulse[RIGHT] += target_pulse*0.5f;
 4287              		.loc 1 1108 3 is_stmt 1 view .LVU1313
 4288              		.loc 1 1108 20 is_stmt 0 view .LVU1314
 4289 0226 93ED017A 		vldr.32	s14, [r3, #4]	@ int
 4290 022a B8EEC77A 		vcvt.f32.s32	s14, s14
 4291 022e 77EE277A 		vadd.f32	s15, s14, s15
 4292 0232 FDEEE77A 		vcvt.s32.f32	s15, s15
 4293 0236 C3ED017A 		vstr.32	s15, [r3, #4]	@ int
 4294              	.LVL280:
 4295              	.L278:
 4296              		.loc 1 1108 20 view .LVU1315
 4297              	.LBE6:
1109:Core/Src/Main/Action.c **** 
1110:Core/Src/Main/Action.c **** 	}
1111:Core/Src/Main/Action.c **** }
 4298              		.loc 1 1111 1 view .LVU1316
 4299 023a 03B0     		add	sp, sp, #12
 4300              	.LCFI29:
 4301              		.cfi_def_cfa_offset 36
 4302              		@ sp needed
 4303 023c BDE8F08F 		pop	{r4, r5, r6, r7, r8, r9, r10, fp, pc}
 4304              	.LVL281:
 4305              	.L306:
 4306              		.loc 1 1111 1 view .LVU1317
 4307              		.align	3
 4308              	.L305:
 4309 0240 9A999999 		.word	-1717986918
 4310 0244 9999D93F 		.word	1071225241
 4311 0248 9A999999 		.word	-1717986918
 4312 024c 9999E93F 		.word	1072273817
 4313 0250 00000000 		.word	Pid
 4314 0254 552AF744 		.word	1157048917
 4315 0258 00000000 		.word	VelocityMax
 4316 025c 00000000 		.word	KeepPulse
 4317 0260 00000000 		.word	TotalPulse
 4318 0264 00000000 		.word	Calc
 4319 0268 00000000 		.word	Photo
 4320 026c 00000000 		.word	Acceleration
 4321              		.cfi_endproc
 4322              	.LFE254:
 4324              		.section	.text.TurnRight,"ax",%progbits
 4325              		.align	1
 4326              		.global	TurnRight
 4327              		.syntax unified
 4328              		.thumb
 4329              		.thumb_func
ARM GAS  C:\Users\leopi\AppData\Local\Temp\ccNfTY3A.s 			page 106


 4331              	TurnRight:
 4332              	.LVL282:
 4333              	.LFB255:
1112:Core/Src/Main/Action.c **** void TurnRight(char mode, maze_node *maze, profile *mouse)
1113:Core/Src/Main/Action.c **** {
 4334              		.loc 1 1113 1 is_stmt 1 view -0
 4335              		.cfi_startproc
 4336              		@ args = 0, pretend = 0, frame = 0
 4337              		@ frame_needed = 0, uses_anonymous_args = 0
 4338              		.loc 1 1113 1 is_stmt 0 view .LVU1319
 4339 0000 70B5     		push	{r4, r5, r6, lr}
 4340              	.LCFI30:
 4341              		.cfi_def_cfa_offset 16
 4342              		.cfi_offset 4, -16
 4343              		.cfi_offset 5, -12
 4344              		.cfi_offset 6, -8
 4345              		.cfi_offset 14, -4
 4346 0002 2DED028B 		vpush.64	{d8}
 4347              	.LCFI31:
 4348              		.cfi_def_cfa_offset 24
 4349              		.cfi_offset 80, -24
 4350              		.cfi_offset 81, -20
 4351 0006 0D46     		mov	r5, r1
 4352 0008 1446     		mov	r4, r2
1114:Core/Src/Main/Action.c **** 	switch( mode )
 4353              		.loc 1 1114 2 is_stmt 1 view .LVU1320
 4354 000a 5328     		cmp	r0, #83
 4355 000c 2CD0     		beq	.L308
 4356 000e 5428     		cmp	r0, #84
 4357 0010 27D1     		bne	.L307
1115:Core/Src/Main/Action.c **** 	{
1116:Core/Src/Main/Action.c **** 	case 'T' :
1117:Core/Src/Main/Action.c **** 		Decel(45, 0);
 4358              		.loc 1 1117 3 view .LVU1321
 4359 0012 9FED188A 		vldr.32	s16, .L311
 4360 0016 DFED180A 		vldr.32	s1, .L311+4
 4361 001a B0EE480A 		vmov.f32	s0, s16
 4362 001e FFF7FEFF 		bl	Decel
 4363              	.LVL283:
1118:Core/Src/Main/Action.c **** 		WaitStopAndReset();
 4364              		.loc 1 1118 3 view .LVU1322
 4365 0022 FFF7FEFF 		bl	WaitStopAndReset
 4366              	.LVL284:
1119:Core/Src/Main/Action.c **** 		EmitterOFF();
 4367              		.loc 1 1119 3 view .LVU1323
 4368 0026 FFF7FEFF 		bl	EmitterOFF
 4369              	.LVL285:
1120:Core/Src/Main/Action.c **** 		Pid[A_VELO_PID].flag = 0;
 4370              		.loc 1 1120 3 view .LVU1324
 4371              		.loc 1 1120 24 is_stmt 0 view .LVU1325
 4372 002a 144E     		ldr	r6, .L311+8
 4373 002c 0023     		movs	r3, #0
 4374 002e B362     		str	r3, [r6, #40]
1121:Core/Src/Main/Action.c **** 		Rotate( 90 , 2*M_PI);//1.5
 4375              		.loc 1 1121 3 is_stmt 1 view .LVU1326
 4376 0030 DFED130A 		vldr.32	s1, .L311+12
 4377 0034 9FED130A 		vldr.32	s0, .L311+16
ARM GAS  C:\Users\leopi\AppData\Local\Temp\ccNfTY3A.s 			page 107


 4378 0038 FFF7FEFF 		bl	Rotate
 4379              	.LVL286:
1122:Core/Src/Main/Action.c **** 		mouse->now.car += 2;
 4380              		.loc 1 1122 3 view .LVU1327
 4381              		.loc 1 1122 18 is_stmt 0 view .LVU1328
 4382 003c A379     		ldrb	r3, [r4, #6]	@ zero_extendqisi2
 4383 003e 0233     		adds	r3, r3, #2
 4384 0040 A371     		strb	r3, [r4, #6]
1123:Core/Src/Main/Action.c **** 		EmitterON();
 4385              		.loc 1 1123 3 is_stmt 1 view .LVU1329
 4386 0042 FFF7FEFF 		bl	EmitterON
 4387              	.LVL287:
1124:Core/Src/Main/Action.c **** 		HAL_Delay(100);
 4388              		.loc 1 1124 3 view .LVU1330
 4389 0046 6420     		movs	r0, #100
 4390 0048 FFF7FEFF 		bl	HAL_Delay
 4391              	.LVL288:
1125:Core/Src/Main/Action.c **** 		Pid[A_VELO_PID].flag = 1;
 4392              		.loc 1 1125 3 view .LVU1331
 4393              		.loc 1 1125 24 is_stmt 0 view .LVU1332
 4394 004c 0123     		movs	r3, #1
 4395 004e B362     		str	r3, [r6, #40]
1126:Core/Src/Main/Action.c **** 		Accel(45, ExploreVelocity, maze, mouse);
 4396              		.loc 1 1126 3 is_stmt 1 view .LVU1333
 4397 0050 2146     		mov	r1, r4
 4398 0052 2846     		mov	r0, r5
 4399 0054 0C4B     		ldr	r3, .L311+20
 4400 0056 D3ED000A 		vldr.32	s1, [r3]
 4401 005a B0EE480A 		vmov.f32	s0, s16
 4402 005e FFF7FEFF 		bl	Accel
 4403              	.LVL289:
1127:Core/Src/Main/Action.c **** 		break;
 4404              		.loc 1 1127 3 view .LVU1334
 4405              	.L307:
1128:Core/Src/Main/Action.c **** 	case 'S':
1129:Core/Src/Main/Action.c **** 		//ã‚¹ãƒ©ãƒ­ãƒ¼ãƒ 
1130:Core/Src/Main/Action.c **** 		SlalomRight(maze, mouse);
1131:Core/Src/Main/Action.c **** 		break;
1132:Core/Src/Main/Action.c **** 	default :
1133:Core/Src/Main/Action.c **** 		break;
1134:Core/Src/Main/Action.c **** 	}
1135:Core/Src/Main/Action.c **** }
 4406              		.loc 1 1135 1 is_stmt 0 view .LVU1335
 4407 0062 BDEC028B 		vldm	sp!, {d8}
 4408              	.LCFI32:
 4409              		.cfi_remember_state
 4410              		.cfi_restore 80
 4411              		.cfi_restore 81
 4412              		.cfi_def_cfa_offset 16
 4413 0066 70BD     		pop	{r4, r5, r6, pc}
 4414              	.LVL290:
 4415              	.L308:
 4416              	.LCFI33:
 4417              		.cfi_restore_state
1130:Core/Src/Main/Action.c **** 		break;
 4418              		.loc 1 1130 3 is_stmt 1 view .LVU1336
 4419 0068 1146     		mov	r1, r2
ARM GAS  C:\Users\leopi\AppData\Local\Temp\ccNfTY3A.s 			page 108


 4420              	.LVL291:
1130:Core/Src/Main/Action.c **** 		break;
 4421              		.loc 1 1130 3 is_stmt 0 view .LVU1337
 4422 006a 2846     		mov	r0, r5
 4423              	.LVL292:
1130:Core/Src/Main/Action.c **** 		break;
 4424              		.loc 1 1130 3 view .LVU1338
 4425 006c FFF7FEFF 		bl	SlalomRight
 4426              	.LVL293:
1131:Core/Src/Main/Action.c **** 	default :
 4427              		.loc 1 1131 3 is_stmt 1 view .LVU1339
 4428              		.loc 1 1135 1 is_stmt 0 view .LVU1340
 4429 0070 F7E7     		b	.L307
 4430              	.L312:
 4431 0072 00BF     		.align	2
 4432              	.L311:
 4433 0074 00003442 		.word	1110704128
 4434 0078 00000000 		.word	0
 4435 007c 00000000 		.word	Pid
 4436 0080 DB0FC940 		.word	1086918619
 4437 0084 0000B442 		.word	1119092736
 4438 0088 00000000 		.word	ExploreVelocity
 4439              		.cfi_endproc
 4440              	.LFE255:
 4442              		.section	.text.TurnLeft,"ax",%progbits
 4443              		.align	1
 4444              		.global	TurnLeft
 4445              		.syntax unified
 4446              		.thumb
 4447              		.thumb_func
 4449              	TurnLeft:
 4450              	.LVL294:
 4451              	.LFB256:
1136:Core/Src/Main/Action.c **** void TurnLeft(char mode, maze_node *maze, profile *mouse)
1137:Core/Src/Main/Action.c **** {
 4452              		.loc 1 1137 1 is_stmt 1 view -0
 4453              		.cfi_startproc
 4454              		@ args = 0, pretend = 0, frame = 0
 4455              		@ frame_needed = 0, uses_anonymous_args = 0
 4456              		.loc 1 1137 1 is_stmt 0 view .LVU1342
 4457 0000 70B5     		push	{r4, r5, r6, lr}
 4458              	.LCFI34:
 4459              		.cfi_def_cfa_offset 16
 4460              		.cfi_offset 4, -16
 4461              		.cfi_offset 5, -12
 4462              		.cfi_offset 6, -8
 4463              		.cfi_offset 14, -4
 4464 0002 2DED028B 		vpush.64	{d8}
 4465              	.LCFI35:
 4466              		.cfi_def_cfa_offset 24
 4467              		.cfi_offset 80, -24
 4468              		.cfi_offset 81, -20
 4469 0006 0D46     		mov	r5, r1
 4470 0008 1446     		mov	r4, r2
1138:Core/Src/Main/Action.c **** 	switch( mode )
 4471              		.loc 1 1138 2 is_stmt 1 view .LVU1343
 4472 000a 5328     		cmp	r0, #83
ARM GAS  C:\Users\leopi\AppData\Local\Temp\ccNfTY3A.s 			page 109


 4473 000c 2CD0     		beq	.L314
 4474 000e 5428     		cmp	r0, #84
 4475 0010 27D1     		bne	.L313
1139:Core/Src/Main/Action.c **** 	{
1140:Core/Src/Main/Action.c **** 	case 'T' :
1141:Core/Src/Main/Action.c **** 		//è¶…ä¿¡åœ°æ—‹å›ž
1142:Core/Src/Main/Action.c **** 		Decel(45, 0);
 4476              		.loc 1 1142 3 view .LVU1344
 4477 0012 9FED188A 		vldr.32	s16, .L317
 4478 0016 DFED180A 		vldr.32	s1, .L317+4
 4479 001a B0EE480A 		vmov.f32	s0, s16
 4480 001e FFF7FEFF 		bl	Decel
 4481              	.LVL295:
1143:Core/Src/Main/Action.c **** 		WaitStopAndReset();
 4482              		.loc 1 1143 3 view .LVU1345
 4483 0022 FFF7FEFF 		bl	WaitStopAndReset
 4484              	.LVL296:
1144:Core/Src/Main/Action.c **** 		EmitterOFF();
 4485              		.loc 1 1144 3 view .LVU1346
 4486 0026 FFF7FEFF 		bl	EmitterOFF
 4487              	.LVL297:
1145:Core/Src/Main/Action.c **** 		Pid[A_VELO_PID].flag = 0;
 4488              		.loc 1 1145 3 view .LVU1347
 4489              		.loc 1 1145 24 is_stmt 0 view .LVU1348
 4490 002a 144E     		ldr	r6, .L317+8
 4491 002c 0023     		movs	r3, #0
 4492 002e B362     		str	r3, [r6, #40]
1146:Core/Src/Main/Action.c **** 		Rotate( 90 , -2*M_PI);//-1.5
 4493              		.loc 1 1146 3 is_stmt 1 view .LVU1349
 4494 0030 DFED130A 		vldr.32	s1, .L317+12
 4495 0034 9FED130A 		vldr.32	s0, .L317+16
 4496 0038 FFF7FEFF 		bl	Rotate
 4497              	.LVL298:
1147:Core/Src/Main/Action.c **** 		mouse->now.car -= 2;
 4498              		.loc 1 1147 3 view .LVU1350
 4499              		.loc 1 1147 18 is_stmt 0 view .LVU1351
 4500 003c A379     		ldrb	r3, [r4, #6]	@ zero_extendqisi2
 4501 003e 023B     		subs	r3, r3, #2
 4502 0040 A371     		strb	r3, [r4, #6]
1148:Core/Src/Main/Action.c **** 		EmitterON();
 4503              		.loc 1 1148 3 is_stmt 1 view .LVU1352
 4504 0042 FFF7FEFF 		bl	EmitterON
 4505              	.LVL299:
1149:Core/Src/Main/Action.c **** 		HAL_Delay(100);
 4506              		.loc 1 1149 3 view .LVU1353
 4507 0046 6420     		movs	r0, #100
 4508 0048 FFF7FEFF 		bl	HAL_Delay
 4509              	.LVL300:
1150:Core/Src/Main/Action.c **** 		Pid[A_VELO_PID].flag = 1;
 4510              		.loc 1 1150 3 view .LVU1354
 4511              		.loc 1 1150 24 is_stmt 0 view .LVU1355
 4512 004c 0123     		movs	r3, #1
 4513 004e B362     		str	r3, [r6, #40]
1151:Core/Src/Main/Action.c **** 		Accel(45, ExploreVelocity, maze, mouse);
 4514              		.loc 1 1151 3 is_stmt 1 view .LVU1356
 4515 0050 2146     		mov	r1, r4
 4516 0052 2846     		mov	r0, r5
ARM GAS  C:\Users\leopi\AppData\Local\Temp\ccNfTY3A.s 			page 110


 4517 0054 0C4B     		ldr	r3, .L317+20
 4518 0056 D3ED000A 		vldr.32	s1, [r3]
 4519 005a B0EE480A 		vmov.f32	s0, s16
 4520 005e FFF7FEFF 		bl	Accel
 4521              	.LVL301:
1152:Core/Src/Main/Action.c **** 		break;
 4522              		.loc 1 1152 3 view .LVU1357
 4523              	.L313:
1153:Core/Src/Main/Action.c **** 	case 'S':
1154:Core/Src/Main/Action.c **** 		//ã‚¹ãƒ©ãƒ­ãƒ¼ãƒ 
1155:Core/Src/Main/Action.c **** 		SlalomLeft(maze, mouse);
1156:Core/Src/Main/Action.c **** 		break;
1157:Core/Src/Main/Action.c **** 	default :
1158:Core/Src/Main/Action.c **** 		break;
1159:Core/Src/Main/Action.c **** 	}
1160:Core/Src/Main/Action.c **** 
1161:Core/Src/Main/Action.c **** }
 4524              		.loc 1 1161 1 is_stmt 0 view .LVU1358
 4525 0062 BDEC028B 		vldm	sp!, {d8}
 4526              	.LCFI36:
 4527              		.cfi_remember_state
 4528              		.cfi_restore 80
 4529              		.cfi_restore 81
 4530              		.cfi_def_cfa_offset 16
 4531 0066 70BD     		pop	{r4, r5, r6, pc}
 4532              	.LVL302:
 4533              	.L314:
 4534              	.LCFI37:
 4535              		.cfi_restore_state
1155:Core/Src/Main/Action.c **** 		break;
 4536              		.loc 1 1155 3 is_stmt 1 view .LVU1359
 4537 0068 1146     		mov	r1, r2
 4538              	.LVL303:
1155:Core/Src/Main/Action.c **** 		break;
 4539              		.loc 1 1155 3 is_stmt 0 view .LVU1360
 4540 006a 2846     		mov	r0, r5
 4541              	.LVL304:
1155:Core/Src/Main/Action.c **** 		break;
 4542              		.loc 1 1155 3 view .LVU1361
 4543 006c FFF7FEFF 		bl	SlalomLeft
 4544              	.LVL305:
1156:Core/Src/Main/Action.c **** 	default :
 4545              		.loc 1 1156 3 is_stmt 1 view .LVU1362
 4546              		.loc 1 1161 1 is_stmt 0 view .LVU1363
 4547 0070 F7E7     		b	.L313
 4548              	.L318:
 4549 0072 00BF     		.align	2
 4550              	.L317:
 4551 0074 00003442 		.word	1110704128
 4552 0078 00000000 		.word	0
 4553 007c 00000000 		.word	Pid
 4554 0080 DB0FC9C0 		.word	-1060565029
 4555 0084 0000B442 		.word	1119092736
 4556 0088 00000000 		.word	ExploreVelocity
 4557              		.cfi_endproc
 4558              	.LFE256:
 4560              		.section	.text.GoBack,"ax",%progbits
ARM GAS  C:\Users\leopi\AppData\Local\Temp\ccNfTY3A.s 			page 111


 4561              		.align	1
 4562              		.global	GoBack
 4563              		.syntax unified
 4564              		.thumb
 4565              		.thumb_func
 4567              	GoBack:
 4568              	.LVL306:
 4569              	.LFB257:
1162:Core/Src/Main/Action.c **** void GoBack(maze_node *maze, profile *mouse)
1163:Core/Src/Main/Action.c **** {
 4570              		.loc 1 1163 1 is_stmt 1 view -0
 4571              		.cfi_startproc
 4572              		@ args = 0, pretend = 0, frame = 0
 4573              		@ frame_needed = 0, uses_anonymous_args = 0
 4574              		.loc 1 1163 1 is_stmt 0 view .LVU1365
 4575 0000 38B5     		push	{r3, r4, r5, lr}
 4576              	.LCFI38:
 4577              		.cfi_def_cfa_offset 16
 4578              		.cfi_offset 3, -16
 4579              		.cfi_offset 4, -12
 4580              		.cfi_offset 5, -8
 4581              		.cfi_offset 14, -4
 4582 0002 2DED028B 		vpush.64	{d8}
 4583              	.LCFI39:
 4584              		.cfi_def_cfa_offset 24
 4585              		.cfi_offset 80, -24
 4586              		.cfi_offset 81, -20
 4587 0006 0546     		mov	r5, r0
 4588 0008 0C46     		mov	r4, r1
1164:Core/Src/Main/Action.c **** 	//æ¸›é€Ÿã—ã¦
1165:Core/Src/Main/Action.c **** 	Decel(45, 0);
 4589              		.loc 1 1165 2 is_stmt 1 view .LVU1366
 4590 000a DFED550A 		vldr.32	s1, .L333
 4591 000e 9FED550A 		vldr.32	s0, .L333+4
 4592 0012 FFF7FEFF 		bl	Decel
 4593              	.LVL307:
1166:Core/Src/Main/Action.c **** 	float acc = AjustCenter(mouse);
 4594              		.loc 1 1166 2 view .LVU1367
 4595              		.loc 1 1166 14 is_stmt 0 view .LVU1368
 4596 0016 2046     		mov	r0, r4
 4597 0018 FFF7FEFF 		bl	AjustCenter
 4598              	.LVL308:
1167:Core/Src/Main/Action.c **** 	WaitStopAndReset();
 4599              		.loc 1 1167 2 is_stmt 1 view .LVU1369
 4600 001c FFF7FEFF 		bl	WaitStopAndReset
 4601              	.LVL309:
1168:Core/Src/Main/Action.c **** 
1169:Core/Src/Main/Action.c **** 	int wall_comp = GetWallCompensateDir(mouse);
 4602              		.loc 1 1169 2 view .LVU1370
 4603              		.loc 1 1169 18 is_stmt 0 view .LVU1371
 4604 0020 2046     		mov	r0, r4
 4605 0022 FFF7FEFF 		bl	GetWallCompensateDir
 4606              	.LVL310:
1170:Core/Src/Main/Action.c **** 		//å³ã‹å·¦ã‹ãã‚Œä»¥å¤–ã‹
1171:Core/Src/Main/Action.c **** 		if(wall_comp == L_WALL_PID)
 4607              		.loc 1 1171 3 is_stmt 1 view .LVU1372
 4608              		.loc 1 1171 5 is_stmt 0 view .LVU1373
ARM GAS  C:\Users\leopi\AppData\Local\Temp\ccNfTY3A.s 			page 112


 4609 0026 0228     		cmp	r0, #2
 4610 0028 21D0     		beq	.L330
1172:Core/Src/Main/Action.c **** 		{
1173:Core/Src/Main/Action.c **** 			Rotate(90, -2*M_PI);
1174:Core/Src/Main/Action.c **** 			mouse->now.car = (mouse->now.car - 2) %8;
1175:Core/Src/Main/Action.c **** 			acc = AjustCenter(mouse);
1176:Core/Src/Main/Action.c **** 			WaitStopAndReset();
1177:Core/Src/Main/Action.c **** 			Rotate(90, -2*M_PI);
1178:Core/Src/Main/Action.c **** 			mouse->now.car = (mouse->now.car - 2) %8;
1179:Core/Src/Main/Action.c **** 		}
1180:Core/Src/Main/Action.c **** 		else if(wall_comp == R_WALL_PID)
 4611              		.loc 1 1180 8 is_stmt 1 view .LVU1374
 4612              		.loc 1 1180 10 is_stmt 0 view .LVU1375
 4613 002a 0328     		cmp	r0, #3
 4614 002c 49D0     		beq	.L331
1181:Core/Src/Main/Action.c **** 		{
1182:Core/Src/Main/Action.c **** 			Rotate(90, 2*M_PI);
1183:Core/Src/Main/Action.c **** 			mouse->now.car = (mouse->now.car + 2) %8;
1184:Core/Src/Main/Action.c **** 			acc = AjustCenter(mouse);
1185:Core/Src/Main/Action.c **** 			WaitStopAndReset();
1186:Core/Src/Main/Action.c **** 			Rotate(90, 2*M_PI);
1187:Core/Src/Main/Action.c **** 			mouse->now.car = (mouse->now.car + 2) %8;
1188:Core/Src/Main/Action.c **** 		}
1189:Core/Src/Main/Action.c **** 		else if(wall_comp == N_WALL_PID)
 4615              		.loc 1 1189 8 is_stmt 1 view .LVU1376
 4616              		.loc 1 1189 10 is_stmt 0 view .LVU1377
 4617 002e 0628     		cmp	r0, #6
 4618 0030 71D0     		beq	.L332
 4619              	.LVL311:
 4620              	.L321:
1190:Core/Src/Main/Action.c **** 		{
1191:Core/Src/Main/Action.c **** 			Rotate(180, 2*M_PI);
1192:Core/Src/Main/Action.c **** 			mouse->now.car = (mouse->now.car + 2) %8;
1193:Core/Src/Main/Action.c **** 			WaitStopAndReset();
1194:Core/Src/Main/Action.c **** 		}
1195:Core/Src/Main/Action.c **** 
1196:Core/Src/Main/Action.c **** 	acc = AjustCenter(mouse);
 4621              		.loc 1 1196 2 is_stmt 1 view .LVU1378
 4622              		.loc 1 1196 8 is_stmt 0 view .LVU1379
 4623 0032 2046     		mov	r0, r4
 4624 0034 FFF7FEFF 		bl	AjustCenter
 4625              	.LVL312:
 4626 0038 B0EE408A 		vmov.f32	s16, s0
 4627              	.LVL313:
1197:Core/Src/Main/Action.c **** 
1198:Core/Src/Main/Action.c **** 	WaitStopAndReset();
 4628              		.loc 1 1198 2 is_stmt 1 view .LVU1380
 4629 003c FFF7FEFF 		bl	WaitStopAndReset
 4630              	.LVL314:
1199:Core/Src/Main/Action.c **** 	//ãƒžãƒƒãƒ—ã®ä¸è¦ãƒžã‚¹ã‚’ã¤ã¶ã™
1200:Core/Src/Main/Action.c **** 	FindUnwantedSquares(maze);
 4631              		.loc 1 1200 2 view .LVU1381
 4632 0040 2846     		mov	r0, r5
 4633 0042 FFF7FEFF 		bl	FindUnwantedSquares
 4634              	.LVL315:
1201:Core/Src/Main/Action.c **** 	Accel(acc, ExploreVelocity, maze, mouse);
 4635              		.loc 1 1201 2 view .LVU1382
ARM GAS  C:\Users\leopi\AppData\Local\Temp\ccNfTY3A.s 			page 113


 4636 0046 2146     		mov	r1, r4
 4637 0048 2846     		mov	r0, r5
 4638 004a 474B     		ldr	r3, .L333+8
 4639 004c D3ED000A 		vldr.32	s1, [r3]
 4640 0050 B0EE480A 		vmov.f32	s0, s16
 4641 0054 FFF7FEFF 		bl	Accel
 4642              	.LVL316:
1202:Core/Src/Main/Action.c **** 	//æ–¹è§’ã«åˆã‚ã›ã¦xyã©ã¡ã‚‰ã‹ã«Â±1
1203:Core/Src/Main/Action.c **** 	switch(mouse->now.car%8)
 4643              		.loc 1 1203 2 view .LVU1383
 4644              		.loc 1 1203 19 is_stmt 0 view .LVU1384
 4645 0058 A379     		ldrb	r3, [r4, #6]	@ zero_extendqisi2
 4646              		.loc 1 1203 2 view .LVU1385
 4647 005a 03F00703 		and	r3, r3, #7
 4648 005e 062B     		cmp	r3, #6
 4649 0060 6FD8     		bhi	.L319
 4650 0062 DFE803F0 		tbb	[pc, r3]
 4651              	.L325:
 4652 0066 6B       		.byte	(.L328-.L325)/2
 4653 0067 6E       		.byte	(.L319-.L325)/2
 4654 0068 71       		.byte	(.L327-.L325)/2
 4655 0069 6E       		.byte	(.L319-.L325)/2
 4656 006a 75       		.byte	(.L326-.L325)/2
 4657 006b 6E       		.byte	(.L319-.L325)/2
 4658 006c 79       		.byte	(.L324-.L325)/2
 4659              	.LVL317:
 4660 006d 00       		.p2align 1
 4661              	.L330:
1173:Core/Src/Main/Action.c **** 			mouse->now.car = (mouse->now.car - 2) %8;
 4662              		.loc 1 1173 4 is_stmt 1 view .LVU1386
 4663 006e DFED3F8A 		vldr.32	s17, .L333+12
 4664 0072 9FED3F8A 		vldr.32	s16, .L333+16
 4665 0076 F0EE680A 		vmov.f32	s1, s17
 4666 007a B0EE480A 		vmov.f32	s0, s16
 4667 007e FFF7FEFF 		bl	Rotate
 4668              	.LVL318:
1174:Core/Src/Main/Action.c **** 			acc = AjustCenter(mouse);
 4669              		.loc 1 1174 4 view .LVU1387
1174:Core/Src/Main/Action.c **** 			acc = AjustCenter(mouse);
 4670              		.loc 1 1174 32 is_stmt 0 view .LVU1388
 4671 0082 A379     		ldrb	r3, [r4, #6]	@ zero_extendqisi2
1174:Core/Src/Main/Action.c **** 			acc = AjustCenter(mouse);
 4672              		.loc 1 1174 37 view .LVU1389
 4673 0084 023B     		subs	r3, r3, #2
1174:Core/Src/Main/Action.c **** 			acc = AjustCenter(mouse);
 4674              		.loc 1 1174 42 view .LVU1390
 4675 0086 5A42     		rsbs	r2, r3, #0
 4676 0088 03F00703 		and	r3, r3, #7
 4677 008c 02F00702 		and	r2, r2, #7
 4678 0090 58BF     		it	pl
 4679 0092 5342     		rsbpl	r3, r2, #0
1174:Core/Src/Main/Action.c **** 			acc = AjustCenter(mouse);
 4680              		.loc 1 1174 19 view .LVU1391
 4681 0094 A371     		strb	r3, [r4, #6]
1175:Core/Src/Main/Action.c **** 			WaitStopAndReset();
 4682              		.loc 1 1175 4 is_stmt 1 view .LVU1392
1175:Core/Src/Main/Action.c **** 			WaitStopAndReset();
ARM GAS  C:\Users\leopi\AppData\Local\Temp\ccNfTY3A.s 			page 114


 4683              		.loc 1 1175 10 is_stmt 0 view .LVU1393
 4684 0096 2046     		mov	r0, r4
 4685 0098 FFF7FEFF 		bl	AjustCenter
 4686              	.LVL319:
1176:Core/Src/Main/Action.c **** 			Rotate(90, -2*M_PI);
 4687              		.loc 1 1176 4 is_stmt 1 view .LVU1394
 4688 009c FFF7FEFF 		bl	WaitStopAndReset
 4689              	.LVL320:
1177:Core/Src/Main/Action.c **** 			mouse->now.car = (mouse->now.car - 2) %8;
 4690              		.loc 1 1177 4 view .LVU1395
 4691 00a0 F0EE680A 		vmov.f32	s1, s17
 4692 00a4 B0EE480A 		vmov.f32	s0, s16
 4693 00a8 FFF7FEFF 		bl	Rotate
 4694              	.LVL321:
1178:Core/Src/Main/Action.c **** 		}
 4695              		.loc 1 1178 4 view .LVU1396
1178:Core/Src/Main/Action.c **** 		}
 4696              		.loc 1 1178 32 is_stmt 0 view .LVU1397
 4697 00ac A379     		ldrb	r3, [r4, #6]	@ zero_extendqisi2
1178:Core/Src/Main/Action.c **** 		}
 4698              		.loc 1 1178 37 view .LVU1398
 4699 00ae 023B     		subs	r3, r3, #2
1178:Core/Src/Main/Action.c **** 		}
 4700              		.loc 1 1178 42 view .LVU1399
 4701 00b0 5A42     		rsbs	r2, r3, #0
 4702 00b2 03F00703 		and	r3, r3, #7
 4703 00b6 02F00702 		and	r2, r2, #7
 4704 00ba 58BF     		it	pl
 4705 00bc 5342     		rsbpl	r3, r2, #0
1178:Core/Src/Main/Action.c **** 		}
 4706              		.loc 1 1178 19 view .LVU1400
 4707 00be A371     		strb	r3, [r4, #6]
 4708 00c0 B7E7     		b	.L321
 4709              	.LVL322:
 4710              	.L331:
1182:Core/Src/Main/Action.c **** 			mouse->now.car = (mouse->now.car + 2) %8;
 4711              		.loc 1 1182 4 is_stmt 1 view .LVU1401
 4712 00c2 DFED2C8A 		vldr.32	s17, .L333+20
 4713 00c6 9FED2A8A 		vldr.32	s16, .L333+16
 4714 00ca F0EE680A 		vmov.f32	s1, s17
 4715 00ce B0EE480A 		vmov.f32	s0, s16
 4716 00d2 FFF7FEFF 		bl	Rotate
 4717              	.LVL323:
1183:Core/Src/Main/Action.c **** 			acc = AjustCenter(mouse);
 4718              		.loc 1 1183 4 view .LVU1402
1183:Core/Src/Main/Action.c **** 			acc = AjustCenter(mouse);
 4719              		.loc 1 1183 32 is_stmt 0 view .LVU1403
 4720 00d6 A379     		ldrb	r3, [r4, #6]	@ zero_extendqisi2
1183:Core/Src/Main/Action.c **** 			acc = AjustCenter(mouse);
 4721              		.loc 1 1183 37 view .LVU1404
 4722 00d8 0233     		adds	r3, r3, #2
1183:Core/Src/Main/Action.c **** 			acc = AjustCenter(mouse);
 4723              		.loc 1 1183 42 view .LVU1405
 4724 00da 5A42     		rsbs	r2, r3, #0
 4725 00dc 03F00703 		and	r3, r3, #7
 4726 00e0 02F00702 		and	r2, r2, #7
 4727 00e4 58BF     		it	pl
ARM GAS  C:\Users\leopi\AppData\Local\Temp\ccNfTY3A.s 			page 115


 4728 00e6 5342     		rsbpl	r3, r2, #0
1183:Core/Src/Main/Action.c **** 			acc = AjustCenter(mouse);
 4729              		.loc 1 1183 19 view .LVU1406
 4730 00e8 A371     		strb	r3, [r4, #6]
1184:Core/Src/Main/Action.c **** 			WaitStopAndReset();
 4731              		.loc 1 1184 4 is_stmt 1 view .LVU1407
1184:Core/Src/Main/Action.c **** 			WaitStopAndReset();
 4732              		.loc 1 1184 10 is_stmt 0 view .LVU1408
 4733 00ea 2046     		mov	r0, r4
 4734 00ec FFF7FEFF 		bl	AjustCenter
 4735              	.LVL324:
1185:Core/Src/Main/Action.c **** 			Rotate(90, 2*M_PI);
 4736              		.loc 1 1185 4 is_stmt 1 view .LVU1409
 4737 00f0 FFF7FEFF 		bl	WaitStopAndReset
 4738              	.LVL325:
1186:Core/Src/Main/Action.c **** 			mouse->now.car = (mouse->now.car + 2) %8;
 4739              		.loc 1 1186 4 view .LVU1410
 4740 00f4 F0EE680A 		vmov.f32	s1, s17
 4741 00f8 B0EE480A 		vmov.f32	s0, s16
 4742 00fc FFF7FEFF 		bl	Rotate
 4743              	.LVL326:
1187:Core/Src/Main/Action.c **** 		}
 4744              		.loc 1 1187 4 view .LVU1411
1187:Core/Src/Main/Action.c **** 		}
 4745              		.loc 1 1187 32 is_stmt 0 view .LVU1412
 4746 0100 A379     		ldrb	r3, [r4, #6]	@ zero_extendqisi2
1187:Core/Src/Main/Action.c **** 		}
 4747              		.loc 1 1187 37 view .LVU1413
 4748 0102 0233     		adds	r3, r3, #2
1187:Core/Src/Main/Action.c **** 		}
 4749              		.loc 1 1187 42 view .LVU1414
 4750 0104 5A42     		rsbs	r2, r3, #0
 4751 0106 03F00703 		and	r3, r3, #7
 4752 010a 02F00702 		and	r2, r2, #7
 4753 010e 58BF     		it	pl
 4754 0110 5342     		rsbpl	r3, r2, #0
1187:Core/Src/Main/Action.c **** 		}
 4755              		.loc 1 1187 19 view .LVU1415
 4756 0112 A371     		strb	r3, [r4, #6]
 4757 0114 8DE7     		b	.L321
 4758              	.LVL327:
 4759              	.L332:
1191:Core/Src/Main/Action.c **** 			mouse->now.car = (mouse->now.car + 2) %8;
 4760              		.loc 1 1191 4 is_stmt 1 view .LVU1416
 4761 0116 DFED170A 		vldr.32	s1, .L333+20
 4762 011a 9FED170A 		vldr.32	s0, .L333+24
 4763 011e FFF7FEFF 		bl	Rotate
 4764              	.LVL328:
1192:Core/Src/Main/Action.c **** 			WaitStopAndReset();
 4765              		.loc 1 1192 4 view .LVU1417
1192:Core/Src/Main/Action.c **** 			WaitStopAndReset();
 4766              		.loc 1 1192 32 is_stmt 0 view .LVU1418
 4767 0122 A379     		ldrb	r3, [r4, #6]	@ zero_extendqisi2
1192:Core/Src/Main/Action.c **** 			WaitStopAndReset();
 4768              		.loc 1 1192 37 view .LVU1419
 4769 0124 0233     		adds	r3, r3, #2
1192:Core/Src/Main/Action.c **** 			WaitStopAndReset();
ARM GAS  C:\Users\leopi\AppData\Local\Temp\ccNfTY3A.s 			page 116


 4770              		.loc 1 1192 42 view .LVU1420
 4771 0126 5A42     		rsbs	r2, r3, #0
 4772 0128 03F00703 		and	r3, r3, #7
 4773 012c 02F00702 		and	r2, r2, #7
 4774 0130 58BF     		it	pl
 4775 0132 5342     		rsbpl	r3, r2, #0
1192:Core/Src/Main/Action.c **** 			WaitStopAndReset();
 4776              		.loc 1 1192 19 view .LVU1421
 4777 0134 A371     		strb	r3, [r4, #6]
1193:Core/Src/Main/Action.c **** 		}
 4778              		.loc 1 1193 4 is_stmt 1 view .LVU1422
 4779 0136 FFF7FEFF 		bl	WaitStopAndReset
 4780              	.LVL329:
 4781 013a 7AE7     		b	.L321
 4782              	.LVL330:
 4783              	.L328:
1204:Core/Src/Main/Action.c **** 	{
1205:Core/Src/Main/Action.c **** 	case north:
1206:Core/Src/Main/Action.c **** 		mouse->now.pos.y ++;
 4784              		.loc 1 1206 3 view .LVU1423
 4785              		.loc 1 1206 17 is_stmt 0 view .LVU1424
 4786 013c 6379     		ldrb	r3, [r4, #5]	@ zero_extendqisi2
 4787              		.loc 1 1206 20 view .LVU1425
 4788 013e 0133     		adds	r3, r3, #1
 4789 0140 6371     		strb	r3, [r4, #5]
1207:Core/Src/Main/Action.c **** 		break;
 4790              		.loc 1 1207 3 is_stmt 1 view .LVU1426
 4791              	.L319:
1208:Core/Src/Main/Action.c **** 	case east:
1209:Core/Src/Main/Action.c **** 		mouse->now.pos.x ++;
1210:Core/Src/Main/Action.c **** 		break;
1211:Core/Src/Main/Action.c **** 	case south:
1212:Core/Src/Main/Action.c **** 		mouse->now.pos.y --;
1213:Core/Src/Main/Action.c **** 		break;
1214:Core/Src/Main/Action.c **** 	case west:
1215:Core/Src/Main/Action.c **** 		mouse->now.pos.x --;
1216:Core/Src/Main/Action.c **** 		break;
1217:Core/Src/Main/Action.c **** 	default:
1218:Core/Src/Main/Action.c **** 		break;
1219:Core/Src/Main/Action.c **** 	}
1220:Core/Src/Main/Action.c **** 
1221:Core/Src/Main/Action.c **** }
 4792              		.loc 1 1221 1 is_stmt 0 view .LVU1427
 4793 0142 BDEC028B 		vldm	sp!, {d8}
 4794              	.LCFI40:
 4795              		.cfi_remember_state
 4796              		.cfi_restore 80
 4797              		.cfi_restore 81
 4798              		.cfi_def_cfa_offset 16
 4799              	.LVL331:
 4800              		.loc 1 1221 1 view .LVU1428
 4801 0146 38BD     		pop	{r3, r4, r5, pc}
 4802              	.LVL332:
 4803              	.L327:
 4804              	.LCFI41:
 4805              		.cfi_restore_state
1209:Core/Src/Main/Action.c **** 		break;
ARM GAS  C:\Users\leopi\AppData\Local\Temp\ccNfTY3A.s 			page 117


 4806              		.loc 1 1209 3 is_stmt 1 view .LVU1429
1209:Core/Src/Main/Action.c **** 		break;
 4807              		.loc 1 1209 17 is_stmt 0 view .LVU1430
 4808 0148 2379     		ldrb	r3, [r4, #4]	@ zero_extendqisi2
1209:Core/Src/Main/Action.c **** 		break;
 4809              		.loc 1 1209 20 view .LVU1431
 4810 014a 0133     		adds	r3, r3, #1
 4811 014c 2371     		strb	r3, [r4, #4]
1210:Core/Src/Main/Action.c **** 	case south:
 4812              		.loc 1 1210 3 is_stmt 1 view .LVU1432
 4813 014e F8E7     		b	.L319
 4814              	.L326:
1212:Core/Src/Main/Action.c **** 		break;
 4815              		.loc 1 1212 3 view .LVU1433
1212:Core/Src/Main/Action.c **** 		break;
 4816              		.loc 1 1212 17 is_stmt 0 view .LVU1434
 4817 0150 6379     		ldrb	r3, [r4, #5]	@ zero_extendqisi2
1212:Core/Src/Main/Action.c **** 		break;
 4818              		.loc 1 1212 20 view .LVU1435
 4819 0152 013B     		subs	r3, r3, #1
 4820 0154 6371     		strb	r3, [r4, #5]
1213:Core/Src/Main/Action.c **** 	case west:
 4821              		.loc 1 1213 3 is_stmt 1 view .LVU1436
 4822 0156 F4E7     		b	.L319
 4823              	.L324:
1215:Core/Src/Main/Action.c **** 		break;
 4824              		.loc 1 1215 3 view .LVU1437
1215:Core/Src/Main/Action.c **** 		break;
 4825              		.loc 1 1215 17 is_stmt 0 view .LVU1438
 4826 0158 2379     		ldrb	r3, [r4, #4]	@ zero_extendqisi2
1215:Core/Src/Main/Action.c **** 		break;
 4827              		.loc 1 1215 20 view .LVU1439
 4828 015a 013B     		subs	r3, r3, #1
 4829 015c 2371     		strb	r3, [r4, #4]
1216:Core/Src/Main/Action.c **** 	default:
 4830              		.loc 1 1216 3 is_stmt 1 view .LVU1440
 4831              		.loc 1 1221 1 is_stmt 0 view .LVU1441
 4832 015e F0E7     		b	.L319
 4833              	.L334:
 4834              		.align	2
 4835              	.L333:
 4836 0160 00000000 		.word	0
 4837 0164 00003442 		.word	1110704128
 4838 0168 00000000 		.word	ExploreVelocity
 4839 016c DB0FC9C0 		.word	-1060565029
 4840 0170 0000B442 		.word	1119092736
 4841 0174 DB0FC940 		.word	1086918619
 4842 0178 00003443 		.word	1127481344
 4843              		.cfi_endproc
 4844              	.LFE257:
 4846              		.section	.text.readActionCommand,"ax",%progbits
 4847              		.align	1
 4848              		.global	readActionCommand
 4849              		.syntax unified
 4850              		.thumb
 4851              		.thumb_func
 4853              	readActionCommand:
ARM GAS  C:\Users\leopi\AppData\Local\Temp\ccNfTY3A.s 			page 118


 4854              	.LVL333:
 4855              	.LFB239:
 126:Core/Src/Main/Action.c **** 	//æ—¢çŸ¥åŒºé–“åŠ é€Ÿã“ã®switchæ–‡ä¸­ã§æ›¸ã
 4856              		.loc 1 126 82 is_stmt 1 view -0
 4857              		.cfi_startproc
 4858              		@ args = 0, pretend = 0, frame = 0
 4859              		@ frame_needed = 0, uses_anonymous_args = 0
 126:Core/Src/Main/Action.c **** 	//æ—¢çŸ¥åŒºé–“åŠ é€Ÿã“ã®switchæ–‡ä¸­ã§æ›¸ã
 4860              		.loc 1 126 82 is_stmt 0 view .LVU1443
 4861 0000 F8B5     		push	{r3, r4, r5, r6, r7, lr}
 4862              	.LCFI42:
 4863              		.cfi_def_cfa_offset 24
 4864              		.cfi_offset 3, -24
 4865              		.cfi_offset 4, -20
 4866              		.cfi_offset 5, -16
 4867              		.cfi_offset 6, -12
 4868              		.cfi_offset 7, -8
 4869              		.cfi_offset 14, -4
 4870 0002 0546     		mov	r5, r0
 4871 0004 0C46     		mov	r4, r1
 4872 0006 1646     		mov	r6, r2
 128:Core/Src/Main/Action.c **** 	
 4873              		.loc 1 128 2 is_stmt 1 view .LVU1444
 128:Core/Src/Main/Action.c **** 	
 4874              		.loc 1 128 14 is_stmt 0 view .LVU1445
 4875 0008 604B     		ldr	r3, .L353
 4876              	.LVL334:
 128:Core/Src/Main/Action.c **** 	
 4877              		.loc 1 128 14 view .LVU1446
 4878 000a 0021     		movs	r1, #0
 4879              	.LVL335:
 128:Core/Src/Main/Action.c **** 	
 4880              		.loc 1 128 14 view .LVU1447
 4881 000c 1960     		str	r1, [r3]	@ float
 130:Core/Src/Main/Action.c **** 	int accel_or_decel = 0;
 4882              		.loc 1 130 2 is_stmt 1 view .LVU1448
 4883              	.LVL336:
 131:Core/Src/Main/Action.c **** 	switch(Mouse->now.dir%8) //æ¬¡ã®é€²è¡Œæ–¹å‘ã‹ã‚‰ã‚¢ã‚¯ã‚·ãƒ§ãƒ³ã‚’é¸æŠž
 4884              		.loc 1 131 2 view .LVU1449
 132:Core/Src/Main/Action.c **** 	{
 4885              		.loc 1 132 2 view .LVU1450
 132:Core/Src/Main/Action.c **** 	{
 4886              		.loc 1 132 19 is_stmt 0 view .LVU1451
 4887 000e E379     		ldrb	r3, [r4, #7]	@ zero_extendqisi2
 132:Core/Src/Main/Action.c **** 	{
 4888              		.loc 1 132 2 view .LVU1452
 4889 0010 03F00703 		and	r3, r3, #7
 4890 0014 062B     		cmp	r3, #6
 4891 0016 2AD8     		bhi	.L335
 4892 0018 DFE803F0 		tbb	[pc, r3]
 4893              	.LVL337:
 4894              	.L338:
 4895 001c 04       		.byte	(.L343-.L338)/2
 4896 001d 29       		.byte	(.L335-.L338)/2
 4897 001e 48       		.byte	(.L342-.L338)/2
 4898 001f 52       		.byte	(.L341-.L338)/2
 4899 0020 61       		.byte	(.L340-.L338)/2
ARM GAS  C:\Users\leopi\AppData\Local\Temp\ccNfTY3A.s 			page 119


 4900 0021 9E       		.byte	(.L339-.L338)/2
 4901 0022 AD       		.byte	(.L337-.L338)/2
 4902 0023 00       		.p2align 1
 4903              	.L343:
 136:Core/Src/Main/Action.c **** 
 4904              		.loc 1 136 3 is_stmt 1 view .LVU1453
 136:Core/Src/Main/Action.c **** 
 4905              		.loc 1 136 18 is_stmt 0 view .LVU1454
 4906 0024 A269     		ldr	r2, [r4, #24]
 4907 0026 A17C     		ldrb	r1, [r4, #18]	@ zero_extendqisi2
 4908 0028 FFF7FEFF 		bl	judgeAccelorNot
 4909              	.LVL338:
 139:Core/Src/Main/Action.c **** 		{
 4910              		.loc 1 139 3 is_stmt 1 view .LVU1455
 139:Core/Src/Main/Action.c **** 		{
 4911              		.loc 1 139 5 is_stmt 0 view .LVU1456
 4912 002c 60B3     		cbz	r0, .L344
 143:Core/Src/Main/Action.c **** 			{
 4913              		.loc 1 143 4 is_stmt 1 view .LVU1457
 143:Core/Src/Main/Action.c **** 			{
 4914              		.loc 1 143 19 is_stmt 0 view .LVU1458
 4915 002e 584B     		ldr	r3, .L353+4
 4916 0030 1B78     		ldrb	r3, [r3]	@ zero_extendqisi2
 143:Core/Src/Main/Action.c **** 			{
 4917              		.loc 1 143 6 view .LVU1459
 4918 0032 EBB1     		cbz	r3, .L345
 145:Core/Src/Main/Action.c **** 				AddVelocity = ExploreVelocity*1.5f;
 4919              		.loc 1 145 5 is_stmt 1 view .LVU1460
 146:Core/Src/Main/Action.c **** //				ChangeLED(0);
 4920              		.loc 1 146 5 view .LVU1461
 146:Core/Src/Main/Action.c **** //				ChangeLED(0);
 4921              		.loc 1 146 34 is_stmt 0 view .LVU1462
 4922 0034 574B     		ldr	r3, .L353+8
 4923 0036 D3ED007A 		vldr.32	s15, [r3]
 4924 003a B7EE087A 		vmov.f32	s14, #1.5e+0
 4925 003e 67EE877A 		vmul.f32	s15, s15, s14
 146:Core/Src/Main/Action.c **** //				ChangeLED(0);
 4926              		.loc 1 146 17 view .LVU1463
 4927 0042 524B     		ldr	r3, .L353
 4928 0044 C3ED007A 		vstr.32	s15, [r3]
 145:Core/Src/Main/Action.c **** 				AddVelocity = ExploreVelocity*1.5f;
 4929              		.loc 1 145 20 view .LVU1464
 4930 0048 0020     		movs	r0, #0
 4931              	.LVL339:
 4932              	.L346:
 175:Core/Src/Main/Action.c **** 		GoStraight(90, ExploreVelocity +AddVelocity , accel_or_decel, maze, Mouse);
 4933              		.loc 1 175 3 is_stmt 1 view .LVU1465
 175:Core/Src/Main/Action.c **** 		GoStraight(90, ExploreVelocity +AddVelocity , accel_or_decel, maze, Mouse);
 4934              		.loc 1 175 8 is_stmt 0 view .LVU1466
 4935 004a 534B     		ldr	r3, .L353+12
 4936 004c 1A68     		ldr	r2, [r3]
 4937 004e 534B     		ldr	r3, .L353+16
 4938 0050 1A60     		str	r2, [r3]
 176:Core/Src/Main/Action.c **** 		break;
 4939              		.loc 1 176 3 is_stmt 1 view .LVU1467
 4940 0052 504B     		ldr	r3, .L353+8
 4941 0054 D3ED000A 		vldr.32	s1, [r3]
ARM GAS  C:\Users\leopi\AppData\Local\Temp\ccNfTY3A.s 			page 120


 4942 0058 4C4B     		ldr	r3, .L353
 4943 005a D3ED007A 		vldr.32	s15, [r3]
 4944 005e 2246     		mov	r2, r4
 4945 0060 2946     		mov	r1, r5
 4946 0062 70EEA70A 		vadd.f32	s1, s1, s15
 4947 0066 9FED4E0A 		vldr.32	s0, .L353+20
 4948 006a FFF7FEFF 		bl	GoStraight
 4949              	.LVL340:
 177:Core/Src/Main/Action.c **** 	case right:
 4950              		.loc 1 177 3 view .LVU1468
 4951              	.L335:
 254:Core/Src/Main/Action.c **** #endif
 4952              		.loc 1 254 1 is_stmt 0 view .LVU1469
 4953 006e F8BD     		pop	{r3, r4, r5, r6, r7, pc}
 4954              	.LVL341:
 4955              	.L345:
 151:Core/Src/Main/Action.c **** 				AddVelocity = ExploreVelocity*1.5f;
 4956              		.loc 1 151 5 is_stmt 1 view .LVU1470
 152:Core/Src/Main/Action.c **** //				ChangeLED(7);
 4957              		.loc 1 152 5 view .LVU1471
 152:Core/Src/Main/Action.c **** //				ChangeLED(7);
 4958              		.loc 1 152 34 is_stmt 0 view .LVU1472
 4959 0070 484B     		ldr	r3, .L353+8
 4960 0072 D3ED007A 		vldr.32	s15, [r3]
 4961 0076 B7EE087A 		vmov.f32	s14, #1.5e+0
 4962 007a 67EE877A 		vmul.f32	s15, s15, s14
 152:Core/Src/Main/Action.c **** //				ChangeLED(7);
 4963              		.loc 1 152 17 view .LVU1473
 4964 007e 434B     		ldr	r3, .L353
 4965 0080 C3ED007A 		vstr.32	s15, [r3]
 151:Core/Src/Main/Action.c **** 				AddVelocity = ExploreVelocity*1.5f;
 4966              		.loc 1 151 20 view .LVU1474
 4967 0084 0120     		movs	r0, #1
 4968              	.LVL342:
 151:Core/Src/Main/Action.c **** 				AddVelocity = ExploreVelocity*1.5f;
 4969              		.loc 1 151 20 view .LVU1475
 4970 0086 E0E7     		b	.L346
 4971              	.LVL343:
 4972              	.L344:
 160:Core/Src/Main/Action.c **** 			{
 4973              		.loc 1 160 4 is_stmt 1 view .LVU1476
 160:Core/Src/Main/Action.c **** 			{
 4974              		.loc 1 160 19 is_stmt 0 view .LVU1477
 4975 0088 414B     		ldr	r3, .L353+4
 4976 008a 1B78     		ldrb	r3, [r3]	@ zero_extendqisi2
 160:Core/Src/Main/Action.c **** 			{
 4977              		.loc 1 160 6 view .LVU1478
 4978 008c 4BB1     		cbz	r3, .L347
 4979              	.LBB7:
 162:Core/Src/Main/Action.c **** 				static int cnt = 1;
 4980              		.loc 1 162 5 is_stmt 1 view .LVU1479
 4981              	.LVL344:
 163:Core/Src/Main/Action.c **** //				ChangeLED(cnt);
 4982              		.loc 1 163 5 view .LVU1480
 165:Core/Src/Main/Action.c **** 				AddVelocity = 0;
 4983              		.loc 1 165 5 view .LVU1481
 165:Core/Src/Main/Action.c **** 				AddVelocity = 0;
ARM GAS  C:\Users\leopi\AppData\Local\Temp\ccNfTY3A.s 			page 121


 4984              		.loc 1 165 9 is_stmt 0 view .LVU1482
 4985 008e 454A     		ldr	r2, .L353+24
 4986 0090 1368     		ldr	r3, [r2]
 4987 0092 0233     		adds	r3, r3, #2
 4988 0094 1360     		str	r3, [r2]
 166:Core/Src/Main/Action.c **** 			}
 4989              		.loc 1 166 5 is_stmt 1 view .LVU1483
 166:Core/Src/Main/Action.c **** 			}
 4990              		.loc 1 166 17 is_stmt 0 view .LVU1484
 4991 0096 3D4B     		ldr	r3, .L353
 4992 0098 0022     		movs	r2, #0
 4993 009a 1A60     		str	r2, [r3]	@ float
 162:Core/Src/Main/Action.c **** 				static int cnt = 1;
 4994              		.loc 1 162 20 view .LVU1485
 4995 009c 4FF0FF30 		mov	r0, #-1
 4996              	.LVL345:
 162:Core/Src/Main/Action.c **** 				static int cnt = 1;
 4997              		.loc 1 162 20 view .LVU1486
 4998              	.LBE7:
 4999 00a0 D3E7     		b	.L346
 5000              	.LVL346:
 5001              	.L347:
 170:Core/Src/Main/Action.c **** 				AddVelocity = 0;
 5002              		.loc 1 170 5 is_stmt 1 view .LVU1487
 171:Core/Src/Main/Action.c **** //				ChangeLED(2);
 5003              		.loc 1 171 5 view .LVU1488
 171:Core/Src/Main/Action.c **** //				ChangeLED(2);
 5004              		.loc 1 171 17 is_stmt 0 view .LVU1489
 5005 00a2 3A4B     		ldr	r3, .L353
 5006 00a4 0022     		movs	r2, #0
 5007 00a6 1A60     		str	r2, [r3]	@ float
 170:Core/Src/Main/Action.c **** 				AddVelocity = 0;
 5008              		.loc 1 170 20 view .LVU1490
 5009 00a8 0020     		movs	r0, #0
 5010              	.LVL347:
 170:Core/Src/Main/Action.c **** 				AddVelocity = 0;
 5011              		.loc 1 170 20 view .LVU1491
 5012 00aa CEE7     		b	.L346
 5013              	.LVL348:
 5014              	.L342:
 179:Core/Src/Main/Action.c **** 
 5015              		.loc 1 179 3 is_stmt 1 view .LVU1492
 179:Core/Src/Main/Action.c **** 
 5016              		.loc 1 179 8 is_stmt 0 view .LVU1493
 5017 00ac 3A4B     		ldr	r3, .L353+12
 5018 00ae 1A68     		ldr	r2, [r3]
 5019 00b0 3A4B     		ldr	r3, .L353+16
 5020 00b2 1A60     		str	r2, [r3]
 181:Core/Src/Main/Action.c **** 		break;
 5021              		.loc 1 181 3 is_stmt 1 view .LVU1494
 5022 00b4 2246     		mov	r2, r4
 5023 00b6 0146     		mov	r1, r0
 5024 00b8 3046     		mov	r0, r6
 5025              	.LVL349:
 181:Core/Src/Main/Action.c **** 		break;
 5026              		.loc 1 181 3 is_stmt 0 view .LVU1495
 5027 00ba FFF7FEFF 		bl	TurnRight
ARM GAS  C:\Users\leopi\AppData\Local\Temp\ccNfTY3A.s 			page 122


 5028              	.LVL350:
 182:Core/Src/Main/Action.c **** 	case backright:
 5029              		.loc 1 182 3 is_stmt 1 view .LVU1496
 5030 00be D6E7     		b	.L335
 5031              	.LVL351:
 5032              	.L341:
 187:Core/Src/Main/Action.c **** 		
 5033              		.loc 1 187 3 view .LVU1497
 187:Core/Src/Main/Action.c **** 		
 5034              		.loc 1 187 8 is_stmt 0 view .LVU1498
 5035 00c0 364F     		ldr	r7, .L353+16
 5036 00c2 0123     		movs	r3, #1
 5037 00c4 3B60     		str	r3, [r7]
 189:Core/Src/Main/Action.c **** 		Calc = SearchOrFast;
 5038              		.loc 1 189 3 is_stmt 1 view .LVU1499
 5039 00c6 2146     		mov	r1, r4
 5040 00c8 FFF7FEFF 		bl	GoBack
 5041              	.LVL352:
 190:Core/Src/Main/Action.c **** 		TurnRight(turn_mode, maze, Mouse);
 5042              		.loc 1 190 3 view .LVU1500
 190:Core/Src/Main/Action.c **** 		TurnRight(turn_mode, maze, Mouse);
 5043              		.loc 1 190 8 is_stmt 0 view .LVU1501
 5044 00cc 324B     		ldr	r3, .L353+12
 5045 00ce 1B68     		ldr	r3, [r3]
 5046 00d0 3B60     		str	r3, [r7]
 191:Core/Src/Main/Action.c **** 		break;
 5047              		.loc 1 191 3 is_stmt 1 view .LVU1502
 5048 00d2 2246     		mov	r2, r4
 5049 00d4 2946     		mov	r1, r5
 5050 00d6 3046     		mov	r0, r6
 5051 00d8 FFF7FEFF 		bl	TurnRight
 5052              	.LVL353:
 192:Core/Src/Main/Action.c **** 	case back:
 5053              		.loc 1 192 3 view .LVU1503
 5054 00dc C7E7     		b	.L335
 5055              	.LVL354:
 5056              	.L340:
 195:Core/Src/Main/Action.c **** 		GoBack(maze, Mouse);
 5057              		.loc 1 195 3 view .LVU1504
 195:Core/Src/Main/Action.c **** 		GoBack(maze, Mouse);
 5058              		.loc 1 195 8 is_stmt 0 view .LVU1505
 5059 00de 2F4B     		ldr	r3, .L353+16
 5060 00e0 0122     		movs	r2, #1
 5061 00e2 1A60     		str	r2, [r3]
 196:Core/Src/Main/Action.c **** 		//ç›´é€²å¾Œã®é¸æŠžè‚¢ã‚‚è¦‹ã¦ãŠã
 5062              		.loc 1 196 3 is_stmt 1 view .LVU1506
 5063 00e4 2146     		mov	r1, r4
 5064 00e6 FFF7FEFF 		bl	GoBack
 5065              	.LVL355:
 198:Core/Src/Main/Action.c **** 
 5066              		.loc 1 198 5 view .LVU1507
 198:Core/Src/Main/Action.c **** 
 5067              		.loc 1 198 20 is_stmt 0 view .LVU1508
 5068 00ea A269     		ldr	r2, [r4, #24]
 5069 00ec A17C     		ldrb	r1, [r4, #18]	@ zero_extendqisi2
 5070 00ee 2846     		mov	r0, r5
 5071 00f0 FFF7FEFF 		bl	judgeAccelorNot
ARM GAS  C:\Users\leopi\AppData\Local\Temp\ccNfTY3A.s 			page 123


 5072              	.LVL356:
 201:Core/Src/Main/Action.c **** 				{
 5073              		.loc 1 201 5 is_stmt 1 view .LVU1509
 201:Core/Src/Main/Action.c **** 				{
 5074              		.loc 1 201 7 is_stmt 0 view .LVU1510
 5075 00f4 F0B1     		cbz	r0, .L348
 205:Core/Src/Main/Action.c **** 					{
 5076              		.loc 1 205 6 is_stmt 1 view .LVU1511
 205:Core/Src/Main/Action.c **** 					{
 5077              		.loc 1 205 21 is_stmt 0 view .LVU1512
 5078 00f6 264B     		ldr	r3, .L353+4
 5079 00f8 1B78     		ldrb	r3, [r3]	@ zero_extendqisi2
 205:Core/Src/Main/Action.c **** 					{
 5080              		.loc 1 205 8 view .LVU1513
 5081 00fa B3B1     		cbz	r3, .L349
 207:Core/Src/Main/Action.c **** 						AddVelocity = 245;
 5082              		.loc 1 207 7 is_stmt 1 view .LVU1514
 208:Core/Src/Main/Action.c **** //						ChangeLED(0);
 5083              		.loc 1 208 7 view .LVU1515
 208:Core/Src/Main/Action.c **** //						ChangeLED(0);
 5084              		.loc 1 208 19 is_stmt 0 view .LVU1516
 5085 00fc 234B     		ldr	r3, .L353
 5086 00fe 2A4A     		ldr	r2, .L353+28
 5087 0100 1A60     		str	r2, [r3]	@ float
 207:Core/Src/Main/Action.c **** 						AddVelocity = 245;
 5088              		.loc 1 207 22 view .LVU1517
 5089 0102 0020     		movs	r0, #0
 5090              	.LVL357:
 5091              	.L350:
 238:Core/Src/Main/Action.c **** 		GoStraight(90, ExploreVelocity +AddVelocity, accel_or_decel, maze, Mouse);
 5092              		.loc 1 238 3 is_stmt 1 view .LVU1518
 238:Core/Src/Main/Action.c **** 		GoStraight(90, ExploreVelocity +AddVelocity, accel_or_decel, maze, Mouse);
 5093              		.loc 1 238 8 is_stmt 0 view .LVU1519
 5094 0104 244B     		ldr	r3, .L353+12
 5095 0106 1A68     		ldr	r2, [r3]
 5096 0108 244B     		ldr	r3, .L353+16
 5097 010a 1A60     		str	r2, [r3]
 239:Core/Src/Main/Action.c **** 		break;
 5098              		.loc 1 239 3 is_stmt 1 view .LVU1520
 5099 010c 214B     		ldr	r3, .L353+8
 5100 010e D3ED000A 		vldr.32	s1, [r3]
 5101 0112 1E4B     		ldr	r3, .L353
 5102 0114 D3ED007A 		vldr.32	s15, [r3]
 5103 0118 2246     		mov	r2, r4
 5104 011a 2946     		mov	r1, r5
 5105 011c 70EEA70A 		vadd.f32	s1, s1, s15
 5106 0120 9FED1F0A 		vldr.32	s0, .L353+20
 5107 0124 FFF7FEFF 		bl	GoStraight
 5108              	.LVL358:
 240:Core/Src/Main/Action.c **** 	case backleft:
 5109              		.loc 1 240 3 view .LVU1521
 5110 0128 A1E7     		b	.L335
 5111              	.LVL359:
 5112              	.L349:
 213:Core/Src/Main/Action.c **** 						AddVelocity = 245;
 5113              		.loc 1 213 7 view .LVU1522
 214:Core/Src/Main/Action.c **** //						ChangeLED(7);
ARM GAS  C:\Users\leopi\AppData\Local\Temp\ccNfTY3A.s 			page 124


 5114              		.loc 1 214 7 view .LVU1523
 214:Core/Src/Main/Action.c **** //						ChangeLED(7);
 5115              		.loc 1 214 19 is_stmt 0 view .LVU1524
 5116 012a 184B     		ldr	r3, .L353
 5117 012c 1E4A     		ldr	r2, .L353+28
 5118 012e 1A60     		str	r2, [r3]	@ float
 213:Core/Src/Main/Action.c **** 						AddVelocity = 245;
 5119              		.loc 1 213 22 view .LVU1525
 5120 0130 0120     		movs	r0, #1
 5121              	.LVL360:
 213:Core/Src/Main/Action.c **** 						AddVelocity = 245;
 5122              		.loc 1 213 22 view .LVU1526
 5123 0132 E7E7     		b	.L350
 5124              	.LVL361:
 5125              	.L348:
 222:Core/Src/Main/Action.c **** 					{
 5126              		.loc 1 222 6 is_stmt 1 view .LVU1527
 222:Core/Src/Main/Action.c **** 					{
 5127              		.loc 1 222 21 is_stmt 0 view .LVU1528
 5128 0134 164B     		ldr	r3, .L353+4
 5129 0136 1B78     		ldrb	r3, [r3]	@ zero_extendqisi2
 222:Core/Src/Main/Action.c **** 					{
 5130              		.loc 1 222 8 view .LVU1529
 5131 0138 4BB1     		cbz	r3, .L351
 5132              	.LBB8:
 224:Core/Src/Main/Action.c **** 						static int cnt = 1;
 5133              		.loc 1 224 7 is_stmt 1 view .LVU1530
 5134              	.LVL362:
 225:Core/Src/Main/Action.c **** //						ChangeLED(cnt);
 5135              		.loc 1 225 7 view .LVU1531
 227:Core/Src/Main/Action.c **** 						AddVelocity = 0;
 5136              		.loc 1 227 7 view .LVU1532
 227:Core/Src/Main/Action.c **** 						AddVelocity = 0;
 5137              		.loc 1 227 11 is_stmt 0 view .LVU1533
 5138 013a 1C4A     		ldr	r2, .L353+32
 5139 013c 1368     		ldr	r3, [r2]
 5140 013e 0233     		adds	r3, r3, #2
 5141 0140 1360     		str	r3, [r2]
 228:Core/Src/Main/Action.c **** 					}
 5142              		.loc 1 228 7 is_stmt 1 view .LVU1534
 228:Core/Src/Main/Action.c **** 					}
 5143              		.loc 1 228 19 is_stmt 0 view .LVU1535
 5144 0142 124B     		ldr	r3, .L353
 5145 0144 0022     		movs	r2, #0
 5146 0146 1A60     		str	r2, [r3]	@ float
 224:Core/Src/Main/Action.c **** 						static int cnt = 1;
 5147              		.loc 1 224 22 view .LVU1536
 5148 0148 4FF0FF30 		mov	r0, #-1
 5149              	.LVL363:
 224:Core/Src/Main/Action.c **** 						static int cnt = 1;
 5150              		.loc 1 224 22 view .LVU1537
 5151              	.LBE8:
 5152 014c DAE7     		b	.L350
 5153              	.LVL364:
 5154              	.L351:
 232:Core/Src/Main/Action.c **** 						AddVelocity = 0;
 5155              		.loc 1 232 7 is_stmt 1 view .LVU1538
ARM GAS  C:\Users\leopi\AppData\Local\Temp\ccNfTY3A.s 			page 125


 233:Core/Src/Main/Action.c **** //						ChangeLED(2);
 5156              		.loc 1 233 7 view .LVU1539
 233:Core/Src/Main/Action.c **** //						ChangeLED(2);
 5157              		.loc 1 233 19 is_stmt 0 view .LVU1540
 5158 014e 0F4B     		ldr	r3, .L353
 5159 0150 0022     		movs	r2, #0
 5160 0152 1A60     		str	r2, [r3]	@ float
 232:Core/Src/Main/Action.c **** 						AddVelocity = 0;
 5161              		.loc 1 232 22 view .LVU1541
 5162 0154 0020     		movs	r0, #0
 5163              	.LVL365:
 232:Core/Src/Main/Action.c **** 						AddVelocity = 0;
 5164              		.loc 1 232 22 view .LVU1542
 5165 0156 D5E7     		b	.L350
 5166              	.LVL366:
 5167              	.L339:
 243:Core/Src/Main/Action.c **** 		GoBack(maze, Mouse);
 5168              		.loc 1 243 3 is_stmt 1 view .LVU1543
 243:Core/Src/Main/Action.c **** 		GoBack(maze, Mouse);
 5169              		.loc 1 243 8 is_stmt 0 view .LVU1544
 5170 0158 104F     		ldr	r7, .L353+16
 5171 015a 0123     		movs	r3, #1
 5172 015c 3B60     		str	r3, [r7]
 244:Core/Src/Main/Action.c **** 		Calc = SearchOrFast;
 5173              		.loc 1 244 3 is_stmt 1 view .LVU1545
 5174 015e 2146     		mov	r1, r4
 5175 0160 FFF7FEFF 		bl	GoBack
 5176              	.LVL367:
 245:Core/Src/Main/Action.c **** 		TurnLeft(turn_mode, maze, Mouse);
 5177              		.loc 1 245 3 view .LVU1546
 245:Core/Src/Main/Action.c **** 		TurnLeft(turn_mode, maze, Mouse);
 5178              		.loc 1 245 8 is_stmt 0 view .LVU1547
 5179 0164 0C4B     		ldr	r3, .L353+12
 5180 0166 1B68     		ldr	r3, [r3]
 5181 0168 3B60     		str	r3, [r7]
 246:Core/Src/Main/Action.c **** 		break;
 5182              		.loc 1 246 3 is_stmt 1 view .LVU1548
 5183 016a 2246     		mov	r2, r4
 5184 016c 2946     		mov	r1, r5
 5185 016e 3046     		mov	r0, r6
 5186 0170 FFF7FEFF 		bl	TurnLeft
 5187              	.LVL368:
 247:Core/Src/Main/Action.c **** 	case left:
 5188              		.loc 1 247 3 view .LVU1549
 5189 0174 7BE7     		b	.L335
 5190              	.LVL369:
 5191              	.L337:
 250:Core/Src/Main/Action.c **** 		TurnLeft(turn_mode, maze, Mouse);
 5192              		.loc 1 250 3 view .LVU1550
 250:Core/Src/Main/Action.c **** 		TurnLeft(turn_mode, maze, Mouse);
 5193              		.loc 1 250 8 is_stmt 0 view .LVU1551
 5194 0176 084B     		ldr	r3, .L353+12
 5195 0178 1A68     		ldr	r2, [r3]
 5196 017a 084B     		ldr	r3, .L353+16
 5197 017c 1A60     		str	r2, [r3]
 251:Core/Src/Main/Action.c **** 		break;
 5198              		.loc 1 251 3 is_stmt 1 view .LVU1552
ARM GAS  C:\Users\leopi\AppData\Local\Temp\ccNfTY3A.s 			page 126


 5199 017e 2246     		mov	r2, r4
 5200 0180 0146     		mov	r1, r0
 5201 0182 3046     		mov	r0, r6
 5202              	.LVL370:
 251:Core/Src/Main/Action.c **** 		break;
 5203              		.loc 1 251 3 is_stmt 0 view .LVU1553
 5204 0184 FFF7FEFF 		bl	TurnLeft
 5205              	.LVL371:
 252:Core/Src/Main/Action.c **** 	}
 5206              		.loc 1 252 3 is_stmt 1 view .LVU1554
 254:Core/Src/Main/Action.c **** #endif
 5207              		.loc 1 254 1 is_stmt 0 view .LVU1555
 5208 0188 71E7     		b	.L335
 5209              	.L354:
 5210 018a 00BF     		.align	2
 5211              	.L353:
 5212 018c 00000000 		.word	AddVelocity
 5213 0190 00000000 		.word	VelocityMax
 5214 0194 00000000 		.word	ExploreVelocity
 5215 0198 00000000 		.word	SearchOrFast
 5216 019c 00000000 		.word	Calc
 5217 01a0 0000B442 		.word	1119092736
 5218 01a4 00000000 		.word	.LANCHOR1
 5219 01a8 00007543 		.word	1131741184
 5220 01ac 00000000 		.word	.LANCHOR2
 5221              		.cfi_endproc
 5222              	.LFE239:
 5224              		.global	angle_range
 5225              		.global	TO_PULSE
 5226              		.section	.rodata
 5227              		.align	2
 5228              		.set	.LANCHOR0,. + 0
 5229              	.LC0:
 5230 0000 01       		.byte	1
 5231 0001 01       		.byte	1
 5232 0002 0000     		.space	2
 5233              	.LC1:
 5234 0004 00006145 		.word	1163984896
 5235 0008 00007A45 		.word	1165623296
 5236              		.section	.data.cnt.0,"aw"
 5237              		.align	2
 5238              		.set	.LANCHOR2,. + 0
 5241              	cnt.0:
 5242 0000 01000000 		.word	1
 5243              		.section	.data.cnt.1,"aw"
 5244              		.align	2
 5245              		.set	.LANCHOR1,. + 0
 5248              	cnt.1:
 5249 0000 01000000 		.word	1
 5250              		.section	.rodata.TO_PULSE,"a"
 5251              		.align	2
 5254              	TO_PULSE:
 5255 0000 552AF744 		.word	1157048917
 5256              		.section	.rodata.angle_range,"a"
 5257              		.align	2
 5260              	angle_range:
 5261 0000 5077563D 		.word	1029076816
ARM GAS  C:\Users\leopi\AppData\Local\Temp\ccNfTY3A.s 			page 127


 5262              		.text
 5263              	.Letext0:
 5264              		.file 2 "c:\\tools\\gcc-arm-none-eabi-10_2021.10\\lib\\gcc\\arm-none-eabi\\10.3.1\\include\\stdint
 5265              		.file 3 "/Users/leopi/Documents/vs/S-Reo/MazeLibrary/MazeLib.h"
 5266              		.file 4 "/Users/leopi/Documents/vs/S-Reo/MazeLibrary/Searching.h"
 5267              		.file 5 "Core/Inc/Main/MicroMouse.h"
 5268              		.file 6 "Core/Inc/Tools/PID_Control.h"
 5269              		.file 7 "Core/Inc/HardWare/IR_Emitter.h"
 5270              		.file 8 "Drivers/STM32F4xx_HAL_Driver/Inc/stm32f4xx_hal.h"
 5271              		.file 9 "/Users/leopi/Documents/vs/S-Reo/MazeLibrary/dfs.h"
 5272              		.file 10 "<built-in>"
ARM GAS  C:\Users\leopi\AppData\Local\Temp\ccNfTY3A.s 			page 128


DEFINED SYMBOLS
                            *ABS*:00000000 Action.c
C:\Users\leopi\AppData\Local\Temp\ccNfTY3A.s:20     .rodata.getWallState.str1.4:00000000 $d
C:\Users\leopi\AppData\Local\Temp\ccNfTY3A.s:33     .text.getWallState:00000000 $t
C:\Users\leopi\AppData\Local\Temp\ccNfTY3A.s:38     .text.getWallState:00000000 getWallState
C:\Users\leopi\AppData\Local\Temp\ccNfTY3A.s:78     .text.getWallState:00000022 $d
C:\Users\leopi\AppData\Local\Temp\ccNfTY3A.s:496    .text.getWallState:00000298 $d
C:\Users\leopi\AppData\Local\Temp\ccNfTY3A.s:510    .text.GetWallCtrlDirection:00000000 $t
C:\Users\leopi\AppData\Local\Temp\ccNfTY3A.s:516    .text.GetWallCtrlDirection:00000000 GetWallCtrlDirection
C:\Users\leopi\AppData\Local\Temp\ccNfTY3A.s:533    .text.GetWallCtrlDirection:0000000e $d
C:\Users\leopi\AppData\Local\Temp\ccNfTY3A.s:795    .text.WaitStopAndReset:00000000 $t
C:\Users\leopi\AppData\Local\Temp\ccNfTY3A.s:801    .text.WaitStopAndReset:00000000 WaitStopAndReset
C:\Users\leopi\AppData\Local\Temp\ccNfTY3A.s:860    .text.WaitStopAndReset:00000040 $d
C:\Users\leopi\AppData\Local\Temp\ccNfTY3A.s:874    .text.Rotate:00000000 $t
C:\Users\leopi\AppData\Local\Temp\ccNfTY3A.s:880    .text.Rotate:00000000 Rotate
C:\Users\leopi\AppData\Local\Temp\ccNfTY3A.s:1230   .text.Rotate:00000230 $d
C:\Users\leopi\AppData\Local\Temp\ccNfTY3A.s:1249   .text.getFrontWall:00000000 $t
C:\Users\leopi\AppData\Local\Temp\ccNfTY3A.s:1255   .text.getFrontWall:00000000 getFrontWall
C:\Users\leopi\AppData\Local\Temp\ccNfTY3A.s:1272   .text.getFrontWall:0000000e $d
C:\Users\leopi\AppData\Local\Temp\ccNfTY3A.s:1331   .text.SlalomRight:00000000 $t
C:\Users\leopi\AppData\Local\Temp\ccNfTY3A.s:1337   .text.SlalomRight:00000000 SlalomRight
C:\Users\leopi\AppData\Local\Temp\ccNfTY3A.s:1663   .text.SlalomRight:000001a8 $d
C:\Users\leopi\AppData\Local\Temp\ccNfTY3A.s:1683   .text.SlalomLeft:00000000 $t
C:\Users\leopi\AppData\Local\Temp\ccNfTY3A.s:1689   .text.SlalomLeft:00000000 SlalomLeft
C:\Users\leopi\AppData\Local\Temp\ccNfTY3A.s:2055   .text.SlalomLeft:000001e8 $d
C:\Users\leopi\AppData\Local\Temp\ccNfTY3A.s:2076   .text.SlalomFastRight:00000000 $t
C:\Users\leopi\AppData\Local\Temp\ccNfTY3A.s:2082   .text.SlalomFastRight:00000000 SlalomFastRight
C:\Users\leopi\AppData\Local\Temp\ccNfTY3A.s:2350   .text.SlalomFastRight:00000168 $d
C:\Users\leopi\AppData\Local\Temp\ccNfTY3A.s:2364   .text.SlalomFastLeft:00000000 $t
C:\Users\leopi\AppData\Local\Temp\ccNfTY3A.s:2370   .text.SlalomFastLeft:00000000 SlalomFastLeft
C:\Users\leopi\AppData\Local\Temp\ccNfTY3A.s:2634   .text.SlalomFastLeft:00000164 $d
C:\Users\leopi\AppData\Local\Temp\ccNfTY3A.s:2650   .text.Accel:00000000 $t
C:\Users\leopi\AppData\Local\Temp\ccNfTY3A.s:2656   .text.Accel:00000000 Accel
C:\Users\leopi\AppData\Local\Temp\ccNfTY3A.s:2848   .text.Accel:00000110 $d
C:\Users\leopi\AppData\Local\Temp\ccNfTY3A.s:2864   .text.Decel:00000000 $t
C:\Users\leopi\AppData\Local\Temp\ccNfTY3A.s:2870   .text.Decel:00000000 Decel
C:\Users\leopi\AppData\Local\Temp\ccNfTY3A.s:3101   .text.Decel:00000150 $d
C:\Users\leopi\AppData\Local\Temp\ccNfTY3A.s:3119   .text.Calib:00000000 $t
C:\Users\leopi\AppData\Local\Temp\ccNfTY3A.s:3125   .text.Calib:00000000 Calib
C:\Users\leopi\AppData\Local\Temp\ccNfTY3A.s:3234   .text.Calib:00000074 $d
C:\Users\leopi\AppData\Local\Temp\ccNfTY3A.s:3245   .text.Compensate:00000000 $t
C:\Users\leopi\AppData\Local\Temp\ccNfTY3A.s:3251   .text.Compensate:00000000 Compensate
C:\Users\leopi\AppData\Local\Temp\ccNfTY3A.s:3282   .text.AjustCenter:00000000 $t
C:\Users\leopi\AppData\Local\Temp\ccNfTY3A.s:3288   .text.AjustCenter:00000000 AjustCenter
C:\Users\leopi\AppData\Local\Temp\ccNfTY3A.s:3352   .text.AjustCenter:00000048 $d
C:\Users\leopi\AppData\Local\Temp\ccNfTY3A.s:3709   .text.AjustCenter:00000258 $d
C:\Users\leopi\AppData\Local\Temp\ccNfTY3A.s:3723   .text.GetWallCompensateDir:00000000 $t
C:\Users\leopi\AppData\Local\Temp\ccNfTY3A.s:3729   .text.GetWallCompensateDir:00000000 GetWallCompensateDir
C:\Users\leopi\AppData\Local\Temp\ccNfTY3A.s:3746   .text.GetWallCompensateDir:0000000e $d
C:\Users\leopi\AppData\Local\Temp\ccNfTY3A.s:3900   .text.GoStraight:00000000 $t
C:\Users\leopi\AppData\Local\Temp\ccNfTY3A.s:3906   .text.GoStraight:00000000 GoStraight
C:\Users\leopi\AppData\Local\Temp\ccNfTY3A.s:4309   .text.GoStraight:00000240 $d
C:\Users\leopi\AppData\Local\Temp\ccNfTY3A.s:4325   .text.TurnRight:00000000 $t
C:\Users\leopi\AppData\Local\Temp\ccNfTY3A.s:4331   .text.TurnRight:00000000 TurnRight
C:\Users\leopi\AppData\Local\Temp\ccNfTY3A.s:4433   .text.TurnRight:00000074 $d
C:\Users\leopi\AppData\Local\Temp\ccNfTY3A.s:4443   .text.TurnLeft:00000000 $t
C:\Users\leopi\AppData\Local\Temp\ccNfTY3A.s:4449   .text.TurnLeft:00000000 TurnLeft
ARM GAS  C:\Users\leopi\AppData\Local\Temp\ccNfTY3A.s 			page 129


C:\Users\leopi\AppData\Local\Temp\ccNfTY3A.s:4551   .text.TurnLeft:00000074 $d
C:\Users\leopi\AppData\Local\Temp\ccNfTY3A.s:4561   .text.GoBack:00000000 $t
C:\Users\leopi\AppData\Local\Temp\ccNfTY3A.s:4567   .text.GoBack:00000000 GoBack
C:\Users\leopi\AppData\Local\Temp\ccNfTY3A.s:4652   .text.GoBack:00000066 $d
C:\Users\leopi\AppData\Local\Temp\ccNfTY3A.s:4836   .text.GoBack:00000160 $d
C:\Users\leopi\AppData\Local\Temp\ccNfTY3A.s:4847   .text.readActionCommand:00000000 $t
C:\Users\leopi\AppData\Local\Temp\ccNfTY3A.s:4853   .text.readActionCommand:00000000 readActionCommand
C:\Users\leopi\AppData\Local\Temp\ccNfTY3A.s:4895   .text.readActionCommand:0000001c $d
C:\Users\leopi\AppData\Local\Temp\ccNfTY3A.s:5212   .text.readActionCommand:0000018c $d
C:\Users\leopi\AppData\Local\Temp\ccNfTY3A.s:5260   .rodata.angle_range:00000000 angle_range
C:\Users\leopi\AppData\Local\Temp\ccNfTY3A.s:5254   .rodata.TO_PULSE:00000000 TO_PULSE
C:\Users\leopi\AppData\Local\Temp\ccNfTY3A.s:5227   .rodata:00000000 $d
C:\Users\leopi\AppData\Local\Temp\ccNfTY3A.s:5237   .data.cnt.0:00000000 $d
C:\Users\leopi\AppData\Local\Temp\ccNfTY3A.s:5241   .data.cnt.0:00000000 cnt.0
C:\Users\leopi\AppData\Local\Temp\ccNfTY3A.s:5244   .data.cnt.1:00000000 $d
C:\Users\leopi\AppData\Local\Temp\ccNfTY3A.s:5248   .data.cnt.1:00000000 cnt.1
C:\Users\leopi\AppData\Local\Temp\ccNfTY3A.s:5251   .rodata.TO_PULSE:00000000 $d
C:\Users\leopi\AppData\Local\Temp\ccNfTY3A.s:5257   .rodata.angle_range:00000000 $d
C:\Users\leopi\AppData\Local\Temp\ccNfTY3A.s:85     .text.getWallState:00000029 $d
C:\Users\leopi\AppData\Local\Temp\ccNfTY3A.s:85     .text.getWallState:0000002a $t
C:\Users\leopi\AppData\Local\Temp\ccNfTY3A.s:540    .text.GetWallCtrlDirection:00000015 $d
C:\Users\leopi\AppData\Local\Temp\ccNfTY3A.s:540    .text.GetWallCtrlDirection:00000016 $t
C:\Users\leopi\AppData\Local\Temp\ccNfTY3A.s:1279   .text.getFrontWall:00000015 $d
C:\Users\leopi\AppData\Local\Temp\ccNfTY3A.s:1279   .text.getFrontWall:00000016 $t
C:\Users\leopi\AppData\Local\Temp\ccNfTY3A.s:3359   .text.AjustCenter:0000004f $d
C:\Users\leopi\AppData\Local\Temp\ccNfTY3A.s:3359   .text.AjustCenter:00000050 $t
C:\Users\leopi\AppData\Local\Temp\ccNfTY3A.s:3753   .text.GetWallCompensateDir:00000015 $d
C:\Users\leopi\AppData\Local\Temp\ccNfTY3A.s:3753   .text.GetWallCompensateDir:00000016 $t
C:\Users\leopi\AppData\Local\Temp\ccNfTY3A.s:4660   .text.GoBack:0000006d $d
C:\Users\leopi\AppData\Local\Temp\ccNfTY3A.s:4660   .text.GoBack:0000006e $t
C:\Users\leopi\AppData\Local\Temp\ccNfTY3A.s:4902   .text.readActionCommand:00000023 $d
C:\Users\leopi\AppData\Local\Temp\ccNfTY3A.s:4902   .text.readActionCommand:00000024 $t

UNDEFINED SYMBOLS
shiftState
VisitedMass
updateNodeThree
GetStackFlag
updateAllNodeWeight
ComparePosition
StackMass
puts
GetStackNum
GetStackMass
GetVisited
SetStackNum
WALL_MASK
PIDReset
HAL_Delay
TargetVelocity
Acceleration
TargetAngularV
AngularAcceleration
CurrentVelocity
__aeabi_f2d
__aeabi_dmul
__aeabi_ddiv
ARM GAS  C:\Users\leopi\AppData\Local\Temp\ccNfTY3A.s 			page 130


__aeabi_d2f
__aeabi_d2iz
Pid
TargetAngle
Angle
AngularV
KeepPulse
__aeabi_dadd
TotalPulse
AngularLeapsity
ExploreVelocity
Sla
Calc
Photo
__aeabi_dsub
__aeabi_i2d
__aeabi_dcmplt
PIDChangeFlag
VelocityMax
EmitterOFF
EmitterON
FindUnwantedSquares
judgeAccelorNot
AddVelocity
SearchOrFast
