ARM GAS  C:\Users\leopi\AppData\Local\Temp\ccntyKxi.s 			page 1


   1              		.cpu cortex-m4
   2              		.arch armv7e-m
   3              		.fpu fpv4-sp-d16
   4              		.eabi_attribute 27, 1
   5              		.eabi_attribute 28, 1
   6              		.eabi_attribute 20, 1
   7              		.eabi_attribute 21, 1
   8              		.eabi_attribute 23, 3
   9              		.eabi_attribute 24, 1
  10              		.eabi_attribute 25, 1
  11              		.eabi_attribute 26, 1
  12              		.eabi_attribute 30, 1
  13              		.eabi_attribute 34, 1
  14              		.eabi_attribute 18, 4
  15              		.file	"Action.c"
  16              		.text
  17              	.Ltext0:
  18              		.cfi_sections	.debug_frame
  19              		.section	.text.getWallState,"ax",%progbits
  20              		.align	1
  21              		.syntax unified
  22              		.thumb
  23              		.thumb_func
  25              	getWallState:
  26              	.LVL0:
  27              	.LFB238:
  28              		.file 1 "Core/Src/Main/Action.c"
   1:Core/Src/Main/Action.c **** /*
   2:Core/Src/Main/Action.c ****  * Action.c
   3:Core/Src/Main/Action.c ****  *
   4:Core/Src/Main/Action.c ****  *  Created on: Feb 18, 2022
   5:Core/Src/Main/Action.c ****  *      Author: leopi
   6:Core/Src/Main/Action.c ****  */
   7:Core/Src/Main/Action.c **** 
   8:Core/Src/Main/Action.c **** #include "Action.h"
   9:Core/Src/Main/Action.c **** #include <main.h>
  10:Core/Src/Main/Action.c **** #include <math.h>
  11:Core/Src/Main/Action.c **** #include <stdio.h>
  12:Core/Src/Main/Action.c **** #include <stdlib.h>
  13:Core/Src/Main/Action.c **** #include "Convert.h"
  14:Core/Src/Main/Action.c **** #include "PID_Control.h"
  15:Core/Src/Main/Action.c **** #include "MicroMouse.h"
  16:Core/Src/Main/Action.c **** #include "ICM_20648.h"
  17:Core/Src/Main/Action.c **** #include "UI.h"
  18:Core/Src/Main/Action.c **** #include "Interrupt.h"
  19:Core/Src/Main/Action.c **** #include "Motor_Driver.h"
  20:Core/Src/Main/Action.c **** #include "IR_Emitter.h"
  21:Core/Src/Main/Action.c **** #include "LED_Driver.h"
  22:Core/Src/Main/Action.c **** 
  23:Core/Src/Main/Action.c **** #include "MazeLib.h"
  24:Core/Src/Main/Action.c **** #include "dfs.h"
  25:Core/Src/Main/Action.c **** #include "Searching.h"
  26:Core/Src/Main/Action.c **** 
  27:Core/Src/Main/Action.c **** #include <stdbool.h>
  28:Core/Src/Main/Action.c **** const float TO_PULSE = 2/MM_PER_PULSE;
  29:Core/Src/Main/Action.c **** #define WALL_CUT_VAL 34
  30:Core/Src/Main/Action.c **** //const float Wall_Cut_Val = 38;
ARM GAS  C:\Users\leopi\AppData\Local\Temp\ccntyKxi.s 			page 2


  31:Core/Src/Main/Action.c **** const float angle_range = 3*M_PI/180;
  32:Core/Src/Main/Action.c **** 
  33:Core/Src/Main/Action.c **** #define SLA_CALIB_FL 220 //180
  34:Core/Src/Main/Action.c **** #define SLA_CALIB_FR 270	//230
  35:Core/Src/Main/Action.c **** 
  36:Core/Src/Main/Action.c **** static void getWallState(profile *mouse, float *photo, maze_node *maze){
  29              		.loc 1 36 72 view -0
  30              		.cfi_startproc
  31              		@ args = 0, pretend = 0, frame = 16
  32              		@ frame_needed = 0, uses_anonymous_args = 0
  33              		.loc 1 36 72 is_stmt 0 view .LVU1
  34 0000 F0B5     		push	{r4, r5, r6, r7, lr}
  35              	.LCFI0:
  36              		.cfi_def_cfa_offset 20
  37              		.cfi_offset 4, -20
  38              		.cfi_offset 5, -16
  39              		.cfi_offset 6, -12
  40              		.cfi_offset 7, -8
  41              		.cfi_offset 14, -4
  42 0002 85B0     		sub	sp, sp, #20
  43              	.LCFI1:
  44              		.cfi_def_cfa_offset 40
  45 0004 0446     		mov	r4, r0
  46 0006 0D46     		mov	r5, r1
  47 0008 1646     		mov	r6, r2
  37:Core/Src/Main/Action.c **** 
  38:Core/Src/Main/Action.c **** 	wall_existence wall_dir; //ãƒ­ãƒœãƒƒãƒˆã®å‰å¾Œå·¦å³ã®å€¤ã¨ã—ã¦å–å¾—
  48              		.loc 1 38 2 is_stmt 1 view .LVU2
  39:Core/Src/Main/Action.c **** 
  40:Core/Src/Main/Action.c **** 	shiftState(mouse); //åŒºç”»é€²å…¥ç›´å‰ãªã®ã§ã€æ›´æ–°äºˆå®šã®æ–¹è§’ã¨åº§æ¨™ãŒNextã«å…¥ã£ã
  49              		.loc 1 40 2 view .LVU3
  50 000a FFF7FEFF 		bl	shiftState
  51              	.LVL1:
  41:Core/Src/Main/Action.c **** 	VisitedMass(mouse->now.pos); //è¨ªå•ã—ãŸãƒžã‚¹ã‚’è¨ªå•æ¸ˆã¿é…åˆ—ã«ç™»éŒ²
  52              		.loc 1 41 2 view .LVU4
  53 000e 6068     		ldr	r0, [r4, #4]
  54 0010 FFF7FEFF 		bl	VisitedMass
  55              	.LVL2:
  42:Core/Src/Main/Action.c ****     switch (mouse->now.car%8) //å£ã‚»ãƒ³ã‚µå€¤ã‚’å–å¾—ã€æ–¹è§’æ¯Žã«å£ã®æœ‰ç„¡ã‚’åˆ¤å®š
  56              		.loc 1 42 5 view .LVU5
  57              		.loc 1 42 23 is_stmt 0 view .LVU6
  58 0014 A379     		ldrb	r3, [r4, #6]	@ zero_extendqisi2
  59              		.loc 1 42 5 view .LVU7
  60 0016 03F00703 		and	r3, r3, #7
  61 001a 062B     		cmp	r3, #6
  62 001c 38D8     		bhi	.L2
  63 001e DFE803F0 		tbb	[pc, r3]
  64              	.L4:
  65 0022 04       		.byte	(.L7-.L4)/2
  66 0023 37       		.byte	(.L2-.L4)/2
  67 0024 58       		.byte	(.L6-.L4)/2
  68 0025 37       		.byte	(.L2-.L4)/2
  69 0026 8C       		.byte	(.L5-.L4)/2
  70 0027 37       		.byte	(.L2-.L4)/2
  71 0028 C0       		.byte	(.L3-.L4)/2
  72 0029 00       		.p2align 1
  73              	.L7:
ARM GAS  C:\Users\leopi\AppData\Local\Temp\ccntyKxi.s 			page 3


  43:Core/Src/Main/Action.c ****     {
  44:Core/Src/Main/Action.c ****     case north:
  45:Core/Src/Main/Action.c ****     	wall_dir.north = ((photo[FL] + photo[FR])*0.5f > FRONT_WALL)  ?   WALL : NOWALL;
  74              		.loc 1 45 6 is_stmt 1 view .LVU8
  75              		.loc 1 45 30 is_stmt 0 view .LVU9
  76 002a D5ED007A 		vldr.32	s15, [r5]
  77              		.loc 1 45 42 view .LVU10
  78 002e 95ED037A 		vldr.32	s14, [r5, #12]
  79              		.loc 1 45 35 view .LVU11
  80 0032 77EE877A 		vadd.f32	s15, s15, s14
  81              		.loc 1 45 47 view .LVU12
  82 0036 B6EE007A 		vmov.f32	s14, #5.0e-1
  83 003a 67EE877A 		vmul.f32	s15, s15, s14
  84              		.loc 1 45 77 view .LVU13
  85 003e 9FED997A 		vldr.32	s14, .L25
  86 0042 F4EEC77A 		vcmpe.f32	s15, s14
  87 0046 F1EE10FA 		vmrs	APSR_nzcv, FPSCR
  88 004a CCBF     		ite	gt
  89 004c 0123     		movgt	r3, #1
  90 004e 0023     		movle	r3, #0
  91              		.loc 1 45 21 view .LVU14
  92 0050 4FF00007 		mov	r7, #0
  93              	.LVL3:
  94              		.loc 1 45 21 view .LVU15
  95 0054 63F30107 		bfi	r7, r3, #0, #2
  96              	.LVL4:
  46:Core/Src/Main/Action.c ****     	wall_dir.east = photo[SIDE_R] > RIGHT_WALL  ?  WALL :  NOWALL;
  97              		.loc 1 46 6 is_stmt 1 view .LVU16
  98              		.loc 1 46 27 is_stmt 0 view .LVU17
  99 0058 95ED017A 		vldr.32	s14, [r5, #4]
 100              		.loc 1 46 58 view .LVU18
 101 005c DFED927A 		vldr.32	s15, .L25+4
 102 0060 B4EEE77A 		vcmpe.f32	s14, s15
 103 0064 F1EE10FA 		vmrs	APSR_nzcv, FPSCR
 104 0068 CCBF     		ite	gt
 105 006a 0123     		movgt	r3, #1
 106 006c 0023     		movle	r3, #0
 107              		.loc 1 46 20 view .LVU19
 108 006e 63F38307 		bfi	r7, r3, #2, #2
  47:Core/Src/Main/Action.c ****     	wall_dir.south = NOWALL;
 109              		.loc 1 47 6 is_stmt 1 view .LVU20
 110              		.loc 1 47 21 is_stmt 0 view .LVU21
 111 0072 6FF30517 		bfc	r7, #4, #2
  48:Core/Src/Main/Action.c ****     	wall_dir.west = photo[SL] > LEFT_WALL ?  WALL :  NOWALL;
 112              		.loc 1 48 6 is_stmt 1 view .LVU22
 113              		.loc 1 48 27 is_stmt 0 view .LVU23
 114 0076 95ED027A 		vldr.32	s14, [r5, #8]
 115              		.loc 1 48 52 view .LVU24
 116 007a DFED8C7A 		vldr.32	s15, .L25+8
 117 007e B4EEE77A 		vcmpe.f32	s14, s15
 118 0082 F1EE10FA 		vmrs	APSR_nzcv, FPSCR
 119 0086 CCBF     		ite	gt
 120 0088 0123     		movgt	r3, #1
 121 008a 0023     		movle	r3, #0
 122              		.loc 1 48 20 view .LVU25
 123 008c 63F38717 		bfi	r7, r3, #6, #2
  49:Core/Src/Main/Action.c ****         break;
ARM GAS  C:\Users\leopi\AppData\Local\Temp\ccntyKxi.s 			page 4


 124              		.loc 1 49 9 is_stmt 1 view .LVU26
 125              	.L2:
  50:Core/Src/Main/Action.c ****     case east:
  51:Core/Src/Main/Action.c ****     	wall_dir.east = ((photo[FL] + photo[FR])*0.5f > FRONT_WALL)  ?   WALL : NOWALL;	
  52:Core/Src/Main/Action.c ****     	wall_dir.south = photo[SIDE_R] > RIGHT_WALL  ?  WALL :  NOWALL;
  53:Core/Src/Main/Action.c ****     	wall_dir.west = NOWALL;
  54:Core/Src/Main/Action.c ****     	wall_dir.north = photo[SL] > LEFT_WALL ?  WALL :  NOWALL;
  55:Core/Src/Main/Action.c ****         break;
  56:Core/Src/Main/Action.c ****     case south:
  57:Core/Src/Main/Action.c ****     	wall_dir.south = ((photo[FL] + photo[FR])*0.5f > FRONT_WALL)  ?   WALL : NOWALL;
  58:Core/Src/Main/Action.c ****     	wall_dir.west = photo[SIDE_R] > RIGHT_WALL  ?  WALL :  NOWALL;
  59:Core/Src/Main/Action.c ****     	wall_dir.north = NOWALL;
  60:Core/Src/Main/Action.c ****     	wall_dir.east = photo[SL] > LEFT_WALL ?  WALL :  NOWALL;
  61:Core/Src/Main/Action.c ****         break;
  62:Core/Src/Main/Action.c ****     case west:
  63:Core/Src/Main/Action.c ****     	wall_dir.west = ((photo[FL] + photo[FR])*0.5f > FRONT_WALL)  ?   WALL : NOWALL;	
  64:Core/Src/Main/Action.c ****     	wall_dir.north = photo[SIDE_R] > RIGHT_WALL  ?  WALL :  NOWALL;
  65:Core/Src/Main/Action.c ****     	wall_dir.east = NOWALL;
  66:Core/Src/Main/Action.c ****     	wall_dir.south = photo[SL] > LEFT_WALL ?  WALL :  NOWALL;
  67:Core/Src/Main/Action.c ****         break;
  68:Core/Src/Main/Action.c ****     default:
  69:Core/Src/Main/Action.c ****         //ä¸‡ãŒä¸€æ–œã‚ã®æ–¹è§’ã‚’å‘ã„ã¦ã„ã‚‹ã¨ãã«å‘¼ã³å‡ºã—ã¦ã—ã¾ã£ãŸã‚‰ã€
  70:Core/Src/Main/Action.c ****         break;
  71:Core/Src/Main/Action.c ****     }
  72:Core/Src/Main/Action.c **** 	mouse->now.wall = wall_dir; //å„æ–¹è§’ã®å£ã«å£ã®æœ‰ç„¡ã‚’ä»£å…¥
 126              		.loc 1 72 2 view .LVU27
 127              		.loc 1 72 18 is_stmt 0 view .LVU28
 128 0090 2772     		strb	r7, [r4, #8]
  73:Core/Src/Main/Action.c **** 
  74:Core/Src/Main/Action.c **** 	updateNodeThree(maze, &(mouse->now.wall), mouse->now.pos.x, mouse->now.pos.y); // ãƒŽãƒ¼ãƒ‰ã«åæ
 129              		.loc 1 74 2 is_stmt 1 view .LVU29
 130 0092 6379     		ldrb	r3, [r4, #5]	@ zero_extendqisi2
 131 0094 2279     		ldrb	r2, [r4, #4]	@ zero_extendqisi2
 132 0096 04F10801 		add	r1, r4, #8
 133 009a 3046     		mov	r0, r6
 134 009c FFF7FEFF 		bl	updateNodeThree
 135              	.LVL5:
  75:Core/Src/Main/Action.c **** 
  76:Core/Src/Main/Action.c **** 	if(IS_GOAL(mouse->now.pos.x, mouse->now.pos.y) == true) {
 136              		.loc 1 76 2 view .LVU30
 137              		.loc 1 76 5 is_stmt 0 view .LVU31
 138 00a0 2379     		ldrb	r3, [r4, #4]	@ zero_extendqisi2
 139 00a2 073B     		subs	r3, r3, #7
 140 00a4 DBB2     		uxtb	r3, r3
 141 00a6 012B     		cmp	r3, #1
 142 00a8 40F2AF80 		bls	.L19
 143              	.L8:
  77:Core/Src/Main/Action.c **** 		HighDFSFlag();
  78:Core/Src/Main/Action.c **** 		// HighStackFlag();	
  79:Core/Src/Main/Action.c **** 	}
  80:Core/Src/Main/Action.c **** 	position start_pos = {0,0}; //ã‚´ãƒ¼ãƒ«ã‚¨ãƒªã‚¢ã«ä¸€åº¦å…¥ã£ãŸã‚‰ï¼ˆtarget.posã«åˆ°é”ã—ãŸã
 144              		.loc 1 80 2 is_stmt 1 view .LVU32
 145              		.loc 1 80 11 is_stmt 0 view .LVU33
 146 00ac 0023     		movs	r3, #0
 147 00ae 8DF80C30 		strb	r3, [sp, #12]
 148 00b2 8DF80D30 		strb	r3, [sp, #13]
  81:Core/Src/Main/Action.c **** 	if( (GetStackFlag() == true) ) {//ComparePosition(&(mouse->target_pos), &(mouse->now.pos)) || Comp
ARM GAS  C:\Users\leopi\AppData\Local\Temp\ccntyKxi.s 			page 5


 149              		.loc 1 81 2 is_stmt 1 view .LVU34
 150              		.loc 1 81 7 is_stmt 0 view .LVU35
 151 00b6 FFF7FEFF 		bl	GetStackFlag
 152              	.LVL6:
 153              		.loc 1 81 4 view .LVU36
 154 00ba 0028     		cmp	r0, #0
 155 00bc 40F0AE80 		bne	.L20
 156              	.LVL7:
 157              	.L9:
  82:Core/Src/Main/Action.c ****             // HighStackFlag();
  83:Core/Src/Main/Action.c **** 		position target_size = {1,1};
  84:Core/Src/Main/Action.c **** 		mouse->target_size = target_size;
  85:Core/Src/Main/Action.c **** 		int n = GetStackNum();
  86:Core/Src/Main/Action.c **** 		if(!(mouse->now.pos.x == mouse->target_pos.x && mouse->now.pos.y == mouse->target_pos.y) ){ //å–
  87:Core/Src/Main/Action.c **** 			n++;
  88:Core/Src/Main/Action.c **** 			SetStackNum(n);
  89:Core/Src/Main/Action.c **** 		}
  90:Core/Src/Main/Action.c **** 		_Bool stacked_one_or_more = StackMass(maze, &(mouse->now)); //ä½•ã‚‚ç©ã‚“ã§ã„ãªã„ã‹ã©ã†ã
  91:Core/Src/Main/Action.c **** 		// if(stacked_one_or_more == 0) printf("ã‚¹ã‚¿ãƒƒã‚¯ãŒç„¡ã„\r\n");//ChangeLED(7);
  92:Core/Src/Main/Action.c **** 		// else printf("ã‚¹ã‚¿ãƒƒã‚¯ãŒä½•ã‹ã—ã‚‰ã‚ã‚‹\r\n");//ChangeLED(0);
  93:Core/Src/Main/Action.c **** 
  94:Core/Src/Main/Action.c **** 		n = GetStackNum();
  95:Core/Src/Main/Action.c **** 		
  96:Core/Src/Main/Action.c **** 		// _sleep(500);
  97:Core/Src/Main/Action.c **** 		//0ãªã‚‰
  98:Core/Src/Main/Action.c **** 		if(GetDFSFlag() == true){
  99:Core/Src/Main/Action.c **** 			
 100:Core/Src/Main/Action.c **** 			if(n == 0){
 101:Core/Src/Main/Action.c **** 				WALL_MASK = 0x01;
 102:Core/Src/Main/Action.c **** 				mouse->target_pos = GetStackMass(); //ã‚«ã‚¦ãƒ³ãƒˆã¯æ¸›ã‚‰ã•ãªã„ n = 0ã®ã¾ã¾
 103:Core/Src/Main/Action.c **** 				SetStackNum(n);
 104:Core/Src/Main/Action.c **** 			}//0ä»¥å¤–ãªã‚‰é€šå¸¸é€šã‚Š
 105:Core/Src/Main/Action.c **** 			else{
 106:Core/Src/Main/Action.c **** 				WALL_MASK = 0x01;
 107:Core/Src/Main/Action.c **** 				position pos;
 108:Core/Src/Main/Action.c **** 				_Bool is_first = false;
 109:Core/Src/Main/Action.c **** 				while( 1 ){
 110:Core/Src/Main/Action.c **** 					pos = GetStackMass();
 111:Core/Src/Main/Action.c **** 					is_first = GetVisited(&(pos)); //0ãªã‚‰æœªè¨ªå•
 112:Core/Src/Main/Action.c **** 					if(n == 0){
 113:Core/Src/Main/Action.c **** 						mouse->target_pos = pos;
 114:Core/Src/Main/Action.c **** 						// printf("æœªè¨ªå•\r\n"); //ã‚³ãƒ¼ãƒ‰èª­ã‚€æ°—ãŒå¤±ã›ã‚‹ã€‚ä½•ã‚„ã£ã¦ã‚‹ã‹ã‚ã‹ã‚‰ãª
 115:Core/Src/Main/Action.c **** 						//ChangeLED(7);
 116:Core/Src/Main/Action.c **** 						break;
 117:Core/Src/Main/Action.c **** 					}
 118:Core/Src/Main/Action.c **** 					else if(is_first == false){
 119:Core/Src/Main/Action.c **** 
 120:Core/Src/Main/Action.c **** 						mouse->target_pos =pos;
 121:Core/Src/Main/Action.c **** 						--n;
 122:Core/Src/Main/Action.c **** 						SetStackNum(n);
 123:Core/Src/Main/Action.c **** 						break;
 124:Core/Src/Main/Action.c **** 					} //0,0åº§æ¨™ã«ã¶ã¤ã‹ã£ãŸã‚‰ã€trueãªã®ã§æ¬¡ã«è¡Œã£ã¦ã—ã¾ã†. 0ãªã‚‰åˆ¥ãƒ«ãƒ¼ãƒ
 125:Core/Src/Main/Action.c **** 					else if(is_first == true){
 126:Core/Src/Main/Action.c **** 						--n;
 127:Core/Src/Main/Action.c **** 						SetStackNum(n); //0ã«ãªã£ãŸã‚‰
 128:Core/Src/Main/Action.c **** 					}
 129:Core/Src/Main/Action.c **** 					//è¨ªå•æ¸ˆã¿ã§ã‚ã‚Œã°æ›´ã«ä¸‹ã‚’èª­ã‚€
ARM GAS  C:\Users\leopi\AppData\Local\Temp\ccntyKxi.s 			page 6


 130:Core/Src/Main/Action.c **** 				}
 131:Core/Src/Main/Action.c **** 			}
 132:Core/Src/Main/Action.c **** 		}
 133:Core/Src/Main/Action.c **** 
 134:Core/Src/Main/Action.c **** 	}//åˆ°é”ã—ã¦ã„ãªã‘ã‚Œã°ã€ãã®ã¾ã¾æœ€çŸ­ã§target.posã«å‘ã‹ã†
 135:Core/Src/Main/Action.c **** 	//å£ã®å­˜åœ¨ã‚’åŸºã«é‡ã¿ãƒžãƒƒãƒ—ã‚’æ›´æ–°
 136:Core/Src/Main/Action.c **** 	updateAllNodeWeight(maze, &(mouse->target_pos), &(mouse->target_size), WALL_MASK);
 158              		.loc 1 136 2 is_stmt 1 view .LVU37
 159 00c0 7B4B     		ldr	r3, .L25+12
 160 00c2 1B68     		ldr	r3, [r3]
 161 00c4 A21C     		adds	r2, r4, #2
 162 00c6 2146     		mov	r1, r4
 163 00c8 3046     		mov	r0, r6
 164 00ca FFF7FEFF 		bl	updateAllNodeWeight
 165              	.LVL8:
 137:Core/Src/Main/Action.c **** }
 166              		.loc 1 137 1 is_stmt 0 view .LVU38
 167 00ce 05B0     		add	sp, sp, #20
 168              	.LCFI2:
 169              		.cfi_remember_state
 170              		.cfi_def_cfa_offset 20
 171              		@ sp needed
 172 00d0 F0BD     		pop	{r4, r5, r6, r7, pc}
 173              	.LVL9:
 174              	.L6:
 175              	.LCFI3:
 176              		.cfi_restore_state
  51:Core/Src/Main/Action.c ****     	wall_dir.south = photo[SIDE_R] > RIGHT_WALL  ?  WALL :  NOWALL;
 177              		.loc 1 51 6 is_stmt 1 view .LVU39
  51:Core/Src/Main/Action.c ****     	wall_dir.south = photo[SIDE_R] > RIGHT_WALL  ?  WALL :  NOWALL;
 178              		.loc 1 51 29 is_stmt 0 view .LVU40
 179 00d2 D5ED007A 		vldr.32	s15, [r5]
  51:Core/Src/Main/Action.c ****     	wall_dir.south = photo[SIDE_R] > RIGHT_WALL  ?  WALL :  NOWALL;
 180              		.loc 1 51 41 view .LVU41
 181 00d6 95ED037A 		vldr.32	s14, [r5, #12]
  51:Core/Src/Main/Action.c ****     	wall_dir.south = photo[SIDE_R] > RIGHT_WALL  ?  WALL :  NOWALL;
 182              		.loc 1 51 34 view .LVU42
 183 00da 77EE877A 		vadd.f32	s15, s15, s14
  51:Core/Src/Main/Action.c ****     	wall_dir.south = photo[SIDE_R] > RIGHT_WALL  ?  WALL :  NOWALL;
 184              		.loc 1 51 46 view .LVU43
 185 00de B6EE007A 		vmov.f32	s14, #5.0e-1
 186 00e2 67EE877A 		vmul.f32	s15, s15, s14
  51:Core/Src/Main/Action.c ****     	wall_dir.south = photo[SIDE_R] > RIGHT_WALL  ?  WALL :  NOWALL;
 187              		.loc 1 51 76 view .LVU44
 188 00e6 9FED6F7A 		vldr.32	s14, .L25
 189 00ea F4EEC77A 		vcmpe.f32	s15, s14
 190 00ee F1EE10FA 		vmrs	APSR_nzcv, FPSCR
 191 00f2 CCBF     		ite	gt
 192 00f4 0123     		movgt	r3, #1
 193 00f6 0023     		movle	r3, #0
  51:Core/Src/Main/Action.c ****     	wall_dir.south = photo[SIDE_R] > RIGHT_WALL  ?  WALL :  NOWALL;
 194              		.loc 1 51 20 view .LVU45
 195 00f8 4FF00007 		mov	r7, #0
  51:Core/Src/Main/Action.c ****     	wall_dir.south = photo[SIDE_R] > RIGHT_WALL  ?  WALL :  NOWALL;
 196              		.loc 1 51 20 view .LVU46
 197 00fc 63F38307 		bfi	r7, r3, #2, #2
 198              	.LVL10:
ARM GAS  C:\Users\leopi\AppData\Local\Temp\ccntyKxi.s 			page 7


  52:Core/Src/Main/Action.c ****     	wall_dir.west = NOWALL;
 199              		.loc 1 52 6 is_stmt 1 view .LVU47
  52:Core/Src/Main/Action.c ****     	wall_dir.west = NOWALL;
 200              		.loc 1 52 28 is_stmt 0 view .LVU48
 201 0100 95ED017A 		vldr.32	s14, [r5, #4]
  52:Core/Src/Main/Action.c ****     	wall_dir.west = NOWALL;
 202              		.loc 1 52 59 view .LVU49
 203 0104 DFED687A 		vldr.32	s15, .L25+4
 204 0108 B4EEE77A 		vcmpe.f32	s14, s15
 205 010c F1EE10FA 		vmrs	APSR_nzcv, FPSCR
 206 0110 CCBF     		ite	gt
 207 0112 0123     		movgt	r3, #1
 208 0114 0023     		movle	r3, #0
  52:Core/Src/Main/Action.c ****     	wall_dir.west = NOWALL;
 209              		.loc 1 52 21 view .LVU50
 210 0116 63F30517 		bfi	r7, r3, #4, #2
  53:Core/Src/Main/Action.c ****     	wall_dir.north = photo[SL] > LEFT_WALL ?  WALL :  NOWALL;
 211              		.loc 1 53 6 is_stmt 1 view .LVU51
  53:Core/Src/Main/Action.c ****     	wall_dir.north = photo[SL] > LEFT_WALL ?  WALL :  NOWALL;
 212              		.loc 1 53 20 is_stmt 0 view .LVU52
 213 011a 6FF38717 		bfc	r7, #6, #2
  54:Core/Src/Main/Action.c ****         break;
 214              		.loc 1 54 6 is_stmt 1 view .LVU53
  54:Core/Src/Main/Action.c ****         break;
 215              		.loc 1 54 28 is_stmt 0 view .LVU54
 216 011e 95ED027A 		vldr.32	s14, [r5, #8]
  54:Core/Src/Main/Action.c ****         break;
 217              		.loc 1 54 53 view .LVU55
 218 0122 DFED627A 		vldr.32	s15, .L25+8
 219 0126 B4EEE77A 		vcmpe.f32	s14, s15
 220 012a F1EE10FA 		vmrs	APSR_nzcv, FPSCR
 221 012e CCBF     		ite	gt
 222 0130 0123     		movgt	r3, #1
 223 0132 0023     		movle	r3, #0
  54:Core/Src/Main/Action.c ****         break;
 224              		.loc 1 54 21 view .LVU56
 225 0134 63F30107 		bfi	r7, r3, #0, #2
  55:Core/Src/Main/Action.c ****     case south:
 226              		.loc 1 55 9 is_stmt 1 view .LVU57
 227 0138 AAE7     		b	.L2
 228              	.LVL11:
 229              	.L5:
  57:Core/Src/Main/Action.c ****     	wall_dir.west = photo[SIDE_R] > RIGHT_WALL  ?  WALL :  NOWALL;
 230              		.loc 1 57 6 view .LVU58
  57:Core/Src/Main/Action.c ****     	wall_dir.west = photo[SIDE_R] > RIGHT_WALL  ?  WALL :  NOWALL;
 231              		.loc 1 57 30 is_stmt 0 view .LVU59
 232 013a D5ED007A 		vldr.32	s15, [r5]
  57:Core/Src/Main/Action.c ****     	wall_dir.west = photo[SIDE_R] > RIGHT_WALL  ?  WALL :  NOWALL;
 233              		.loc 1 57 42 view .LVU60
 234 013e 95ED037A 		vldr.32	s14, [r5, #12]
  57:Core/Src/Main/Action.c ****     	wall_dir.west = photo[SIDE_R] > RIGHT_WALL  ?  WALL :  NOWALL;
 235              		.loc 1 57 35 view .LVU61
 236 0142 77EE877A 		vadd.f32	s15, s15, s14
  57:Core/Src/Main/Action.c ****     	wall_dir.west = photo[SIDE_R] > RIGHT_WALL  ?  WALL :  NOWALL;
 237              		.loc 1 57 47 view .LVU62
 238 0146 B6EE007A 		vmov.f32	s14, #5.0e-1
 239 014a 67EE877A 		vmul.f32	s15, s15, s14
ARM GAS  C:\Users\leopi\AppData\Local\Temp\ccntyKxi.s 			page 8


  57:Core/Src/Main/Action.c ****     	wall_dir.west = photo[SIDE_R] > RIGHT_WALL  ?  WALL :  NOWALL;
 240              		.loc 1 57 77 view .LVU63
 241 014e 9FED557A 		vldr.32	s14, .L25
 242 0152 F4EEC77A 		vcmpe.f32	s15, s14
 243 0156 F1EE10FA 		vmrs	APSR_nzcv, FPSCR
 244 015a CCBF     		ite	gt
 245 015c 0123     		movgt	r3, #1
 246 015e 0023     		movle	r3, #0
  57:Core/Src/Main/Action.c ****     	wall_dir.west = photo[SIDE_R] > RIGHT_WALL  ?  WALL :  NOWALL;
 247              		.loc 1 57 21 view .LVU64
 248 0160 4FF00007 		mov	r7, #0
  57:Core/Src/Main/Action.c ****     	wall_dir.west = photo[SIDE_R] > RIGHT_WALL  ?  WALL :  NOWALL;
 249              		.loc 1 57 21 view .LVU65
 250 0164 63F30517 		bfi	r7, r3, #4, #2
 251              	.LVL12:
  58:Core/Src/Main/Action.c ****     	wall_dir.north = NOWALL;
 252              		.loc 1 58 6 is_stmt 1 view .LVU66
  58:Core/Src/Main/Action.c ****     	wall_dir.north = NOWALL;
 253              		.loc 1 58 27 is_stmt 0 view .LVU67
 254 0168 95ED017A 		vldr.32	s14, [r5, #4]
  58:Core/Src/Main/Action.c ****     	wall_dir.north = NOWALL;
 255              		.loc 1 58 58 view .LVU68
 256 016c DFED4E7A 		vldr.32	s15, .L25+4
 257 0170 B4EEE77A 		vcmpe.f32	s14, s15
 258 0174 F1EE10FA 		vmrs	APSR_nzcv, FPSCR
 259 0178 CCBF     		ite	gt
 260 017a 0123     		movgt	r3, #1
 261 017c 0023     		movle	r3, #0
  58:Core/Src/Main/Action.c ****     	wall_dir.north = NOWALL;
 262              		.loc 1 58 20 view .LVU69
 263 017e 63F38717 		bfi	r7, r3, #6, #2
  59:Core/Src/Main/Action.c ****     	wall_dir.east = photo[SL] > LEFT_WALL ?  WALL :  NOWALL;
 264              		.loc 1 59 6 is_stmt 1 view .LVU70
  59:Core/Src/Main/Action.c ****     	wall_dir.east = photo[SL] > LEFT_WALL ?  WALL :  NOWALL;
 265              		.loc 1 59 21 is_stmt 0 view .LVU71
 266 0182 6FF30107 		bfc	r7, #0, #2
  60:Core/Src/Main/Action.c ****         break;
 267              		.loc 1 60 6 is_stmt 1 view .LVU72
  60:Core/Src/Main/Action.c ****         break;
 268              		.loc 1 60 27 is_stmt 0 view .LVU73
 269 0186 95ED027A 		vldr.32	s14, [r5, #8]
  60:Core/Src/Main/Action.c ****         break;
 270              		.loc 1 60 52 view .LVU74
 271 018a DFED487A 		vldr.32	s15, .L25+8
 272 018e B4EEE77A 		vcmpe.f32	s14, s15
 273 0192 F1EE10FA 		vmrs	APSR_nzcv, FPSCR
 274 0196 CCBF     		ite	gt
 275 0198 0123     		movgt	r3, #1
 276 019a 0023     		movle	r3, #0
  60:Core/Src/Main/Action.c ****         break;
 277              		.loc 1 60 20 view .LVU75
 278 019c 63F38307 		bfi	r7, r3, #2, #2
  61:Core/Src/Main/Action.c ****     case west:
 279              		.loc 1 61 9 is_stmt 1 view .LVU76
 280 01a0 76E7     		b	.L2
 281              	.LVL13:
 282              	.L3:
ARM GAS  C:\Users\leopi\AppData\Local\Temp\ccntyKxi.s 			page 9


  63:Core/Src/Main/Action.c ****     	wall_dir.north = photo[SIDE_R] > RIGHT_WALL  ?  WALL :  NOWALL;
 283              		.loc 1 63 6 view .LVU77
  63:Core/Src/Main/Action.c ****     	wall_dir.north = photo[SIDE_R] > RIGHT_WALL  ?  WALL :  NOWALL;
 284              		.loc 1 63 29 is_stmt 0 view .LVU78
 285 01a2 D5ED007A 		vldr.32	s15, [r5]
  63:Core/Src/Main/Action.c ****     	wall_dir.north = photo[SIDE_R] > RIGHT_WALL  ?  WALL :  NOWALL;
 286              		.loc 1 63 41 view .LVU79
 287 01a6 95ED037A 		vldr.32	s14, [r5, #12]
  63:Core/Src/Main/Action.c ****     	wall_dir.north = photo[SIDE_R] > RIGHT_WALL  ?  WALL :  NOWALL;
 288              		.loc 1 63 34 view .LVU80
 289 01aa 77EE877A 		vadd.f32	s15, s15, s14
  63:Core/Src/Main/Action.c ****     	wall_dir.north = photo[SIDE_R] > RIGHT_WALL  ?  WALL :  NOWALL;
 290              		.loc 1 63 46 view .LVU81
 291 01ae B6EE007A 		vmov.f32	s14, #5.0e-1
 292 01b2 67EE877A 		vmul.f32	s15, s15, s14
  63:Core/Src/Main/Action.c ****     	wall_dir.north = photo[SIDE_R] > RIGHT_WALL  ?  WALL :  NOWALL;
 293              		.loc 1 63 76 view .LVU82
 294 01b6 9FED3B7A 		vldr.32	s14, .L25
 295 01ba F4EEC77A 		vcmpe.f32	s15, s14
 296 01be F1EE10FA 		vmrs	APSR_nzcv, FPSCR
 297 01c2 CCBF     		ite	gt
 298 01c4 0123     		movgt	r3, #1
 299 01c6 0023     		movle	r3, #0
  63:Core/Src/Main/Action.c ****     	wall_dir.north = photo[SIDE_R] > RIGHT_WALL  ?  WALL :  NOWALL;
 300              		.loc 1 63 20 view .LVU83
 301 01c8 4FF00007 		mov	r7, #0
  63:Core/Src/Main/Action.c ****     	wall_dir.north = photo[SIDE_R] > RIGHT_WALL  ?  WALL :  NOWALL;
 302              		.loc 1 63 20 view .LVU84
 303 01cc 63F38717 		bfi	r7, r3, #6, #2
 304              	.LVL14:
  64:Core/Src/Main/Action.c ****     	wall_dir.east = NOWALL;
 305              		.loc 1 64 6 is_stmt 1 view .LVU85
  64:Core/Src/Main/Action.c ****     	wall_dir.east = NOWALL;
 306              		.loc 1 64 28 is_stmt 0 view .LVU86
 307 01d0 95ED017A 		vldr.32	s14, [r5, #4]
  64:Core/Src/Main/Action.c ****     	wall_dir.east = NOWALL;
 308              		.loc 1 64 59 view .LVU87
 309 01d4 DFED347A 		vldr.32	s15, .L25+4
 310 01d8 B4EEE77A 		vcmpe.f32	s14, s15
 311 01dc F1EE10FA 		vmrs	APSR_nzcv, FPSCR
 312 01e0 CCBF     		ite	gt
 313 01e2 0123     		movgt	r3, #1
 314 01e4 0023     		movle	r3, #0
  64:Core/Src/Main/Action.c ****     	wall_dir.east = NOWALL;
 315              		.loc 1 64 21 view .LVU88
 316 01e6 63F30107 		bfi	r7, r3, #0, #2
  65:Core/Src/Main/Action.c ****     	wall_dir.south = photo[SL] > LEFT_WALL ?  WALL :  NOWALL;
 317              		.loc 1 65 6 is_stmt 1 view .LVU89
  65:Core/Src/Main/Action.c ****     	wall_dir.south = photo[SL] > LEFT_WALL ?  WALL :  NOWALL;
 318              		.loc 1 65 20 is_stmt 0 view .LVU90
 319 01ea 6FF38307 		bfc	r7, #2, #2
  66:Core/Src/Main/Action.c ****         break;
 320              		.loc 1 66 6 is_stmt 1 view .LVU91
  66:Core/Src/Main/Action.c ****         break;
 321              		.loc 1 66 28 is_stmt 0 view .LVU92
 322 01ee 95ED027A 		vldr.32	s14, [r5, #8]
  66:Core/Src/Main/Action.c ****         break;
ARM GAS  C:\Users\leopi\AppData\Local\Temp\ccntyKxi.s 			page 10


 323              		.loc 1 66 53 view .LVU93
 324 01f2 DFED2E7A 		vldr.32	s15, .L25+8
 325 01f6 B4EEE77A 		vcmpe.f32	s14, s15
 326 01fa F1EE10FA 		vmrs	APSR_nzcv, FPSCR
 327 01fe CCBF     		ite	gt
 328 0200 0123     		movgt	r3, #1
 329 0202 0023     		movle	r3, #0
  66:Core/Src/Main/Action.c ****         break;
 330              		.loc 1 66 21 view .LVU94
 331 0204 63F30517 		bfi	r7, r3, #4, #2
  67:Core/Src/Main/Action.c ****     default:
 332              		.loc 1 67 9 is_stmt 1 view .LVU95
 333 0208 42E7     		b	.L2
 334              	.L19:
  76:Core/Src/Main/Action.c **** 		HighDFSFlag();
 335              		.loc 1 76 5 is_stmt 0 discriminator 1 view .LVU96
 336 020a 6379     		ldrb	r3, [r4, #5]	@ zero_extendqisi2
 337 020c 073B     		subs	r3, r3, #7
 338 020e DBB2     		uxtb	r3, r3
 339 0210 012B     		cmp	r3, #1
 340 0212 3FF64BAF 		bhi	.L8
  77:Core/Src/Main/Action.c **** 		// HighStackFlag();	
 341              		.loc 1 77 3 is_stmt 1 view .LVU97
 342 0216 FFF7FEFF 		bl	HighDFSFlag
 343              	.LVL15:
 344 021a 47E7     		b	.L8
 345              	.L20:
 346              	.LBB2:
  83:Core/Src/Main/Action.c **** 		mouse->target_size = target_size;
 347              		.loc 1 83 3 view .LVU98
  83:Core/Src/Main/Action.c **** 		mouse->target_size = target_size;
 348              		.loc 1 83 12 is_stmt 0 view .LVU99
 349 021c 254B     		ldr	r3, .L25+16
 350 021e 1B88     		ldrh	r3, [r3]
 351 0220 ADF80430 		strh	r3, [sp, #4]	@ movhi
  84:Core/Src/Main/Action.c **** 		int n = GetStackNum();
 352              		.loc 1 84 3 is_stmt 1 view .LVU100
  84:Core/Src/Main/Action.c **** 		int n = GetStackNum();
 353              		.loc 1 84 22 is_stmt 0 view .LVU101
 354 0224 6380     		strh	r3, [r4, #2]	@ movhi
  85:Core/Src/Main/Action.c **** 		if(!(mouse->now.pos.x == mouse->target_pos.x && mouse->now.pos.y == mouse->target_pos.y) ){ //å–
 355              		.loc 1 85 3 is_stmt 1 view .LVU102
  85:Core/Src/Main/Action.c **** 		if(!(mouse->now.pos.x == mouse->target_pos.x && mouse->now.pos.y == mouse->target_pos.y) ){ //å–
 356              		.loc 1 85 11 is_stmt 0 view .LVU103
 357 0226 FFF7FEFF 		bl	GetStackNum
 358              	.LVL16:
  86:Core/Src/Main/Action.c **** 			n++;
 359              		.loc 1 86 3 is_stmt 1 view .LVU104
  86:Core/Src/Main/Action.c **** 			n++;
 360              		.loc 1 86 6 is_stmt 0 view .LVU105
 361 022a A288     		ldrh	r2, [r4, #4]	@ unaligned
 362 022c 2388     		ldrh	r3, [r4]	@ unaligned
  86:Core/Src/Main/Action.c **** 			n++;
 363              		.loc 1 86 5 view .LVU106
 364 022e 9A42     		cmp	r2, r3
 365 0230 1FD1     		bne	.L21
 366              	.LVL17:
ARM GAS  C:\Users\leopi\AppData\Local\Temp\ccntyKxi.s 			page 11


 367              	.L10:
  90:Core/Src/Main/Action.c **** 		// if(stacked_one_or_more == 0) printf("ã‚¹ã‚¿ãƒƒã‚¯ãŒç„¡ã„\r\n");//ChangeLED(7);
 368              		.loc 1 90 3 is_stmt 1 view .LVU107
  90:Core/Src/Main/Action.c **** 		// if(stacked_one_or_more == 0) printf("ã‚¹ã‚¿ãƒƒã‚¯ãŒç„¡ã„\r\n");//ChangeLED(7);
 369              		.loc 1 90 31 is_stmt 0 view .LVU108
 370 0232 211D     		adds	r1, r4, #4
 371 0234 3046     		mov	r0, r6
 372 0236 FFF7FEFF 		bl	StackMass
 373              	.LVL18:
  94:Core/Src/Main/Action.c **** 		
 374              		.loc 1 94 3 is_stmt 1 view .LVU109
  94:Core/Src/Main/Action.c **** 		
 375              		.loc 1 94 7 is_stmt 0 view .LVU110
 376 023a FFF7FEFF 		bl	GetStackNum
 377              	.LVL19:
 378 023e 0546     		mov	r5, r0
 379              	.LVL20:
  98:Core/Src/Main/Action.c **** 			
 380              		.loc 1 98 3 is_stmt 1 view .LVU111
  98:Core/Src/Main/Action.c **** 			
 381              		.loc 1 98 6 is_stmt 0 view .LVU112
 382 0240 FFF7FEFF 		bl	GetDFSFlag
 383              	.LVL21:
  98:Core/Src/Main/Action.c **** 			
 384              		.loc 1 98 5 view .LVU113
 385 0244 0028     		cmp	r0, #0
 386 0246 3FF43BAF 		beq	.L9
 100:Core/Src/Main/Action.c **** 				WALL_MASK = 0x01;
 387              		.loc 1 100 4 is_stmt 1 view .LVU114
 100:Core/Src/Main/Action.c **** 				WALL_MASK = 0x01;
 388              		.loc 1 100 6 is_stmt 0 view .LVU115
 389 024a B5B1     		cbz	r5, .L22
 390              	.LBB3:
 106:Core/Src/Main/Action.c **** 				position pos;
 391              		.loc 1 106 5 is_stmt 1 view .LVU116
 106:Core/Src/Main/Action.c **** 				position pos;
 392              		.loc 1 106 15 is_stmt 0 view .LVU117
 393 024c 184B     		ldr	r3, .L25+12
 394 024e 0122     		movs	r2, #1
 395 0250 1A60     		str	r2, [r3]
 107:Core/Src/Main/Action.c **** 				_Bool is_first = false;
 396              		.loc 1 107 5 is_stmt 1 view .LVU118
 108:Core/Src/Main/Action.c **** 				while( 1 ){
 397              		.loc 1 108 5 view .LVU119
 398              	.LVL22:
 399              	.L16:
 109:Core/Src/Main/Action.c **** 					pos = GetStackMass();
 400              		.loc 1 109 5 view .LVU120
 110:Core/Src/Main/Action.c **** 					is_first = GetVisited(&(pos)); //0ãªã‚‰æœªè¨ªå•
 401              		.loc 1 110 6 view .LVU121
 110:Core/Src/Main/Action.c **** 					is_first = GetVisited(&(pos)); //0ãªã‚‰æœªè¨ªå•
 402              		.loc 1 110 12 is_stmt 0 view .LVU122
 403 0252 FFF7FEFF 		bl	GetStackMass
 404              	.LVL23:
 405 0256 ADF80800 		strh	r0, [sp, #8]	@ movhi
 111:Core/Src/Main/Action.c **** 					if(n == 0){
 406              		.loc 1 111 6 is_stmt 1 view .LVU123
ARM GAS  C:\Users\leopi\AppData\Local\Temp\ccntyKxi.s 			page 12


 111:Core/Src/Main/Action.c **** 					if(n == 0){
 407              		.loc 1 111 17 is_stmt 0 view .LVU124
 408 025a 02A8     		add	r0, sp, #8
 409 025c FFF7FEFF 		bl	GetVisited
 410              	.LVL24:
 112:Core/Src/Main/Action.c **** 						mouse->target_pos = pos;
 411              		.loc 1 112 6 is_stmt 1 view .LVU125
 112:Core/Src/Main/Action.c **** 						mouse->target_pos = pos;
 412              		.loc 1 112 8 is_stmt 0 view .LVU126
 413 0260 ADB1     		cbz	r5, .L23
 118:Core/Src/Main/Action.c **** 
 414              		.loc 1 118 11 is_stmt 1 view .LVU127
 118:Core/Src/Main/Action.c **** 
 415              		.loc 1 118 13 is_stmt 0 view .LVU128
 416 0262 C0B1     		cbz	r0, .L24
 125:Core/Src/Main/Action.c **** 						--n;
 417              		.loc 1 125 11 is_stmt 1 view .LVU129
 125:Core/Src/Main/Action.c **** 						--n;
 418              		.loc 1 125 13 is_stmt 0 view .LVU130
 419 0264 0028     		cmp	r0, #0
 420 0266 F4D0     		beq	.L16
 126:Core/Src/Main/Action.c **** 						SetStackNum(n); //0ã«ãªã£ãŸã‚‰
 421              		.loc 1 126 7 is_stmt 1 view .LVU131
 422 0268 013D     		subs	r5, r5, #1
 423              	.LVL25:
 127:Core/Src/Main/Action.c **** 					}
 424              		.loc 1 127 7 view .LVU132
 425 026a 2846     		mov	r0, r5
 426              	.LVL26:
 127:Core/Src/Main/Action.c **** 					}
 427              		.loc 1 127 7 is_stmt 0 view .LVU133
 428 026c FFF7FEFF 		bl	SetStackNum
 429              	.LVL27:
 430 0270 EFE7     		b	.L16
 431              	.LVL28:
 432              	.L21:
 127:Core/Src/Main/Action.c **** 					}
 433              		.loc 1 127 7 view .LVU134
 434              	.LBE3:
  87:Core/Src/Main/Action.c **** 			SetStackNum(n);
 435              		.loc 1 87 4 is_stmt 1 view .LVU135
  88:Core/Src/Main/Action.c **** 		}
 436              		.loc 1 88 4 view .LVU136
 437 0272 0130     		adds	r0, r0, #1
 438              	.LVL29:
  88:Core/Src/Main/Action.c **** 		}
 439              		.loc 1 88 4 is_stmt 0 view .LVU137
 440 0274 FFF7FEFF 		bl	SetStackNum
 441              	.LVL30:
  88:Core/Src/Main/Action.c **** 		}
 442              		.loc 1 88 4 view .LVU138
 443 0278 DBE7     		b	.L10
 444              	.LVL31:
 445              	.L22:
 101:Core/Src/Main/Action.c **** 				mouse->target_pos = GetStackMass(); //ã‚«ã‚¦ãƒ³ãƒˆã¯æ¸›ã‚‰ã•ãªã„ n = 0ã®ã¾ã¾
 446              		.loc 1 101 5 is_stmt 1 view .LVU139
 101:Core/Src/Main/Action.c **** 				mouse->target_pos = GetStackMass(); //ã‚«ã‚¦ãƒ³ãƒˆã¯æ¸›ã‚‰ã•ãªã„ n = 0ã®ã¾ã¾
ARM GAS  C:\Users\leopi\AppData\Local\Temp\ccntyKxi.s 			page 13


 447              		.loc 1 101 15 is_stmt 0 view .LVU140
 448 027a 0D4B     		ldr	r3, .L25+12
 449 027c 0122     		movs	r2, #1
 450 027e 1A60     		str	r2, [r3]
 102:Core/Src/Main/Action.c **** 				SetStackNum(n);
 451              		.loc 1 102 5 is_stmt 1 view .LVU141
 102:Core/Src/Main/Action.c **** 				SetStackNum(n);
 452              		.loc 1 102 25 is_stmt 0 view .LVU142
 453 0280 FFF7FEFF 		bl	GetStackMass
 454              	.LVL32:
 455 0284 2080     		strh	r0, [r4]	@ movhi
 103:Core/Src/Main/Action.c **** 			}//0ä»¥å¤–ãªã‚‰é€šå¸¸é€šã‚Š
 456              		.loc 1 103 5 is_stmt 1 view .LVU143
 457 0286 2846     		mov	r0, r5
 458 0288 FFF7FEFF 		bl	SetStackNum
 459              	.LVL33:
 460 028c 18E7     		b	.L9
 461              	.LVL34:
 462              	.L23:
 463              	.LBB4:
 113:Core/Src/Main/Action.c **** 						// printf("æœªè¨ªå•\r\n"); //ã‚³ãƒ¼ãƒ‰èª­ã‚€æ°—ãŒå¤±ã›ã‚‹ã€‚ä½•ã‚„ã£ã¦ã‚‹ã‹ã‚ã‹ã‚‰ãª
 464              		.loc 1 113 7 view .LVU144
 113:Core/Src/Main/Action.c **** 						// printf("æœªè¨ªå•\r\n"); //ã‚³ãƒ¼ãƒ‰èª­ã‚€æ°—ãŒå¤±ã›ã‚‹ã€‚ä½•ã‚„ã£ã¦ã‚‹ã‹ã‚ã‹ã‚‰ãª
 465              		.loc 1 113 25 is_stmt 0 view .LVU145
 466 028e BDF80830 		ldrh	r3, [sp, #8]
 467 0292 2380     		strh	r3, [r4]	@ movhi
 116:Core/Src/Main/Action.c **** 					}
 468              		.loc 1 116 7 is_stmt 1 view .LVU146
 469 0294 14E7     		b	.L9
 470              	.L24:
 120:Core/Src/Main/Action.c **** 						--n;
 471              		.loc 1 120 7 view .LVU147
 120:Core/Src/Main/Action.c **** 						--n;
 472              		.loc 1 120 25 is_stmt 0 view .LVU148
 473 0296 BDF80830 		ldrh	r3, [sp, #8]
 474 029a 2380     		strh	r3, [r4]	@ movhi
 121:Core/Src/Main/Action.c **** 						SetStackNum(n);
 475              		.loc 1 121 7 is_stmt 1 view .LVU149
 476              	.LVL35:
 122:Core/Src/Main/Action.c **** 						break;
 477              		.loc 1 122 7 view .LVU150
 478 029c 681E     		subs	r0, r5, #1
 479              	.LVL36:
 122:Core/Src/Main/Action.c **** 						break;
 480              		.loc 1 122 7 is_stmt 0 view .LVU151
 481 029e FFF7FEFF 		bl	SetStackNum
 482              	.LVL37:
 123:Core/Src/Main/Action.c **** 					} //0,0åº§æ¨™ã«ã¶ã¤ã‹ã£ãŸã‚‰ã€trueãªã®ã§æ¬¡ã«è¡Œã£ã¦ã—ã¾ã†. 0ãªã‚‰åˆ¥ãƒ«ãƒ¼ãƒ
 483              		.loc 1 123 7 is_stmt 1 view .LVU152
 484 02a2 0DE7     		b	.L9
 485              	.L26:
 486              		.align	2
 487              	.L25:
 488 02a4 00004842 		.word	1112014848
 489 02a8 0000B442 		.word	1119092736
 490 02ac 0000C842 		.word	1120403456
 491 02b0 00000000 		.word	WALL_MASK
ARM GAS  C:\Users\leopi\AppData\Local\Temp\ccntyKxi.s 			page 14


 492 02b4 00000000 		.word	.LANCHOR0
 493              	.LBE4:
 494              	.LBE2:
 495              		.cfi_endproc
 496              	.LFE238:
 498              		.section	.text.GetWallCtrlDirection,"ax",%progbits
 499              		.align	1
 500              		.global	GetWallCtrlDirection
 501              		.syntax unified
 502              		.thumb
 503              		.thumb_func
 505              	GetWallCtrlDirection:
 506              	.LVL38:
 507              	.LFB240:
 138:Core/Src/Main/Action.c **** #if 1
 139:Core/Src/Main/Action.c **** 
 140:Core/Src/Main/Action.c **** void readActionCommand(maze_node *maze, profile *Mouse, char turn_mode, int mask){
 141:Core/Src/Main/Action.c **** 	//æ—¢çŸ¥åŒºé–“åŠ é€Ÿã“ã®switchæ–‡ä¸­ã§æ›¸ã
 142:Core/Src/Main/Action.c **** 	AddVelocity = 0;
 143:Core/Src/Main/Action.c **** 	
 144:Core/Src/Main/Action.c **** 	_Bool accel_or_not = false;
 145:Core/Src/Main/Action.c **** 	int accel_or_decel = 0;
 146:Core/Src/Main/Action.c **** 	switch(Mouse->now.dir%8) //æ¬¡ã®é€²è¡Œæ–¹å‘ã‹ã‚‰ã‚¢ã‚¯ã‚·ãƒ§ãƒ³ã‚’é¸æŠž
 147:Core/Src/Main/Action.c **** 	{
 148:Core/Src/Main/Action.c **** 	case front:
 149:Core/Src/Main/Action.c **** 		//ç›´é€²å¾Œã®é¸æŠžè‚¢ã‚‚è¦‹ã¦ãŠã
 150:Core/Src/Main/Action.c **** 		accel_or_not = judgeAccelorNot(maze, Mouse->next.car, Mouse->next.node);
 151:Core/Src/Main/Action.c **** 
 152:Core/Src/Main/Action.c **** 		//æ¬¡ã®ãƒŽãƒ¼ãƒ‰ã‚’ç¾åœ¨ãƒŽãƒ¼ãƒ‰ã¨ã—ã¦ã€ãƒŽãƒ¼ãƒ‰ã®å€™è£œãŒã™ã¹ã¦æ—¢çŸ¥ã‹ã©ã†ã‹.ã
 153:Core/Src/Main/Action.c **** 		if(accel_or_not == true) //æ—¢çŸ¥ã§.ç›´é€²
 154:Core/Src/Main/Action.c **** 		{
 155:Core/Src/Main/Action.c **** 			//åŠ é€Ÿã‹ãã®ã¾ã¾.
 156:Core/Src/Main/Action.c **** 			//ç¾åœ¨é€Ÿåº¦ãŒãƒžãƒƒã‚¯ã‚¹ã‹ã©ã†ã‹
 157:Core/Src/Main/Action.c **** 			if(VelocityMax == true)
 158:Core/Src/Main/Action.c **** 			{
 159:Core/Src/Main/Action.c **** 				accel_or_decel = 0; //ãã®ã¾ã¾
 160:Core/Src/Main/Action.c **** 				AddVelocity = ExploreVelocity*1.5f;
 161:Core/Src/Main/Action.c **** //				ChangeLED(0);
 162:Core/Src/Main/Action.c **** 			}
 163:Core/Src/Main/Action.c **** 			else
 164:Core/Src/Main/Action.c **** 			{
 165:Core/Src/Main/Action.c **** 				accel_or_decel = 1; //åŠ é€Ÿ
 166:Core/Src/Main/Action.c **** 				AddVelocity = ExploreVelocity*1.5f;
 167:Core/Src/Main/Action.c **** //				ChangeLED(7);
 168:Core/Src/Main/Action.c **** 			}
 169:Core/Src/Main/Action.c **** 		}
 170:Core/Src/Main/Action.c **** 		else
 171:Core/Src/Main/Action.c **** 		{
 172:Core/Src/Main/Action.c **** 			//æœªçŸ¥ã‚‚ã—ãã¯ã€æ—¢çŸ¥ã§ã‚‚ç›´é€²ã§ç„¡ã‘ã‚Œã°.æ¸›é€Ÿã‹ãã®ã¾ã¾
 173:Core/Src/Main/Action.c **** 			//ç¾åœ¨é€Ÿåº¦ãŒãƒžãƒƒã‚¯ã‚¹ã‹ã©ã†ã‹
 174:Core/Src/Main/Action.c **** 			if(VelocityMax == true)
 175:Core/Src/Main/Action.c **** 			{
 176:Core/Src/Main/Action.c **** 				accel_or_decel = -1; //æ¸›é€Ÿ
 177:Core/Src/Main/Action.c **** 				static int cnt = 1;
 178:Core/Src/Main/Action.c **** //				ChangeLED(cnt);
 179:Core/Src/Main/Action.c **** 				cnt += 2;
 180:Core/Src/Main/Action.c **** 				AddVelocity = 0;
ARM GAS  C:\Users\leopi\AppData\Local\Temp\ccntyKxi.s 			page 15


 181:Core/Src/Main/Action.c **** 			}
 182:Core/Src/Main/Action.c **** 			else //ãƒžãƒƒã‚¯ã‚¹ã§ãªã„
 183:Core/Src/Main/Action.c **** 			{
 184:Core/Src/Main/Action.c **** 				accel_or_decel = 0; //ãã®ã¾ã¾
 185:Core/Src/Main/Action.c **** 				AddVelocity = 0;
 186:Core/Src/Main/Action.c **** //				ChangeLED(2);
 187:Core/Src/Main/Action.c **** 			}
 188:Core/Src/Main/Action.c **** 		}
 189:Core/Src/Main/Action.c **** 		Calc = SearchOrFast;
 190:Core/Src/Main/Action.c **** 		GoStraight(90, ExploreVelocity +AddVelocity , accel_or_decel, maze, Mouse);
 191:Core/Src/Main/Action.c **** 		break;
 192:Core/Src/Main/Action.c **** 	case right:
 193:Core/Src/Main/Action.c **** 		Calc = SearchOrFast;
 194:Core/Src/Main/Action.c **** 
 195:Core/Src/Main/Action.c **** 		TurnRight(turn_mode, maze, Mouse);
 196:Core/Src/Main/Action.c **** 		break;
 197:Core/Src/Main/Action.c **** 	case backright:
 198:Core/Src/Main/Action.c **** 		//Uã‚¿ãƒ¼ãƒ³ã—ã¦å³æ—‹å›ž
 199:Core/Src/Main/Action.c **** 		//å£ã®æ›´æ–°ã®å‡¦ç†ã‚’å‘¼ã°ãªã„
 200:Core/Src/Main/Action.c **** //		SearchOrFast = 1;
 201:Core/Src/Main/Action.c **** 		Calc = 1;//ãƒžãƒƒãƒ—æ›´æ–°ã—ãŸããªã„ã¨ãã¯1ã‚’ä»£å…¥ã€‚
 202:Core/Src/Main/Action.c **** 		
 203:Core/Src/Main/Action.c **** 		GoBack(maze, Mouse); 
 204:Core/Src/Main/Action.c **** 		Calc = SearchOrFast;
 205:Core/Src/Main/Action.c **** 		TurnRight(turn_mode, maze, Mouse);
 206:Core/Src/Main/Action.c **** 		break;
 207:Core/Src/Main/Action.c **** 	case back:
 208:Core/Src/Main/Action.c **** 		//Uã‚¿ãƒ¼ãƒ³ã—ã¦ç›´é€².åŠ é€Ÿ
 209:Core/Src/Main/Action.c **** 		Calc = 1;//ãƒžãƒƒãƒ—æ›´æ–°ã—ãŸããªã„ã¨ãã¯1ã‚’ä»£å…¥ã€‚
 210:Core/Src/Main/Action.c **** 		GoBack(maze, Mouse);
 211:Core/Src/Main/Action.c **** 		//ç›´é€²å¾Œã®é¸æŠžè‚¢ã‚‚è¦‹ã¦ãŠã
 212:Core/Src/Main/Action.c **** 				accel_or_not = judgeAccelorNot(maze, Mouse->next.car, Mouse->next.node);
 213:Core/Src/Main/Action.c **** 
 214:Core/Src/Main/Action.c **** 				//æ¬¡ã®ãƒŽãƒ¼ãƒ‰ã‚’ç¾åœ¨ãƒŽãƒ¼ãƒ‰ã¨ã—ã¦ã€ãƒŽãƒ¼ãƒ‰ã®å€™è£œãŒã™ã¹ã¦æ—¢çŸ¥ã‹ã©ã†ã‹
 215:Core/Src/Main/Action.c **** 				if(accel_or_not == true) //æ—¢çŸ¥ã§.ç›´é€²
 216:Core/Src/Main/Action.c **** 				{
 217:Core/Src/Main/Action.c **** 					//åŠ é€Ÿã‹ãã®ã¾ã¾.
 218:Core/Src/Main/Action.c **** 					//ç¾åœ¨é€Ÿåº¦ãŒãƒžãƒƒã‚¯ã‚¹ã‹ã©ã†ã‹
 219:Core/Src/Main/Action.c **** 					if(VelocityMax == true)
 220:Core/Src/Main/Action.c **** 					{
 221:Core/Src/Main/Action.c **** 						accel_or_decel = 0; //ãã®ã¾ã¾
 222:Core/Src/Main/Action.c **** 						AddVelocity = 245;
 223:Core/Src/Main/Action.c **** //						ChangeLED(0);
 224:Core/Src/Main/Action.c **** 					}
 225:Core/Src/Main/Action.c **** 					else
 226:Core/Src/Main/Action.c **** 					{
 227:Core/Src/Main/Action.c **** 						accel_or_decel = 1; //åŠ é€Ÿ
 228:Core/Src/Main/Action.c **** 						AddVelocity = 245;
 229:Core/Src/Main/Action.c **** //						ChangeLED(7);
 230:Core/Src/Main/Action.c **** 					}
 231:Core/Src/Main/Action.c **** 				}
 232:Core/Src/Main/Action.c **** 				else
 233:Core/Src/Main/Action.c **** 				{
 234:Core/Src/Main/Action.c **** 					//æœªçŸ¥ã‚‚ã—ãã¯ã€æ—¢çŸ¥ã§ã‚‚ç›´é€²ã§ç„¡ã‘ã‚Œã°.æ¸›é€Ÿã‹ãã®ã¾ã¾
 235:Core/Src/Main/Action.c **** 					//ç¾åœ¨é€Ÿåº¦ãŒãƒžãƒƒã‚¯ã‚¹ã‹ã©ã†ã‹
 236:Core/Src/Main/Action.c **** 					if(VelocityMax == true)
 237:Core/Src/Main/Action.c **** 					{
ARM GAS  C:\Users\leopi\AppData\Local\Temp\ccntyKxi.s 			page 16


 238:Core/Src/Main/Action.c **** 						accel_or_decel = -1; //æ¸›é€Ÿ
 239:Core/Src/Main/Action.c **** 						static int cnt = 1;
 240:Core/Src/Main/Action.c **** //						ChangeLED(cnt);
 241:Core/Src/Main/Action.c **** 						cnt += 2;
 242:Core/Src/Main/Action.c **** 						AddVelocity = 0;
 243:Core/Src/Main/Action.c **** 					}
 244:Core/Src/Main/Action.c **** 					else //ãƒžãƒƒã‚¯ã‚¹ã§ãªã„
 245:Core/Src/Main/Action.c **** 					{
 246:Core/Src/Main/Action.c **** 						accel_or_decel = 0; //ãã®ã¾ã¾
 247:Core/Src/Main/Action.c **** 						AddVelocity = 0;
 248:Core/Src/Main/Action.c **** //						ChangeLED(2);
 249:Core/Src/Main/Action.c **** 					}
 250:Core/Src/Main/Action.c **** 				}
 251:Core/Src/Main/Action.c **** 				//å£ã¨åº§æ¨™ã®æ›´æ–°ãŒè¦ã‚Šãã†
 252:Core/Src/Main/Action.c **** 		Calc = SearchOrFast;
 253:Core/Src/Main/Action.c **** 		GoStraight(90, ExploreVelocity +AddVelocity, accel_or_decel, maze, Mouse);
 254:Core/Src/Main/Action.c **** 		break;
 255:Core/Src/Main/Action.c **** 	case backleft:
 256:Core/Src/Main/Action.c **** 		//Uã‚¿ãƒ¼ãƒ³ã—ã¦å·¦æ—‹å›ž
 257:Core/Src/Main/Action.c **** 		Calc = 1;//ãƒžãƒƒãƒ—æ›´æ–°ã—ãŸããªã„ã¨ãã¯1ã‚’ä»£å…¥ã€‚
 258:Core/Src/Main/Action.c **** 		GoBack(maze, Mouse);
 259:Core/Src/Main/Action.c **** 		Calc = SearchOrFast;
 260:Core/Src/Main/Action.c **** 		TurnLeft(turn_mode, maze, Mouse);
 261:Core/Src/Main/Action.c **** 		break;
 262:Core/Src/Main/Action.c **** 	case left:
 263:Core/Src/Main/Action.c **** 		//å·¦æ—‹å›ž
 264:Core/Src/Main/Action.c **** 		Calc = SearchOrFast;
 265:Core/Src/Main/Action.c **** 		TurnLeft(turn_mode, maze, Mouse);
 266:Core/Src/Main/Action.c **** 		break;
 267:Core/Src/Main/Action.c **** 	}
 268:Core/Src/Main/Action.c **** }
 269:Core/Src/Main/Action.c **** #endif
 270:Core/Src/Main/Action.c **** 
 271:Core/Src/Main/Action.c **** 
 272:Core/Src/Main/Action.c **** int GetWallCtrlDirection(profile *mouse)
 273:Core/Src/Main/Action.c **** {
 508              		.loc 1 273 1 view -0
 509              		.cfi_startproc
 510              		@ args = 0, pretend = 0, frame = 0
 511              		@ frame_needed = 0, uses_anonymous_args = 0
 512              		@ link register save eliminated.
 274:Core/Src/Main/Action.c **** 		switch(mouse->now.car%8)
 513              		.loc 1 274 3 view .LVU154
 514              		.loc 1 274 20 is_stmt 0 view .LVU155
 515 0000 8379     		ldrb	r3, [r0, #6]	@ zero_extendqisi2
 516              		.loc 1 274 3 view .LVU156
 517 0002 03F00703 		and	r3, r3, #7
 518 0006 062B     		cmp	r3, #6
 519 0008 59D8     		bhi	.L34
 520 000a DFE803F0 		tbb	[pc, r3]
 521              	.L30:
 522 000e 04       		.byte	(.L33-.L30)/2
 523 000f 58       		.byte	(.L34-.L30)/2
 524 0010 19       		.byte	(.L32-.L30)/2
 525 0011 58       		.byte	(.L34-.L30)/2
 526 0012 2E       		.byte	(.L31-.L30)/2
 527 0013 58       		.byte	(.L34-.L30)/2
ARM GAS  C:\Users\leopi\AppData\Local\Temp\ccntyKxi.s 			page 17


 528 0014 43       		.byte	(.L29-.L30)/2
 529 0015 00       		.p2align 1
 530              	.L33:
 275:Core/Src/Main/Action.c **** 		{
 276:Core/Src/Main/Action.c **** 		case north:
 277:Core/Src/Main/Action.c **** 			if(mouse->now.wall.north == WALL) //ç¾åœ¨ã®æ–¹è§’ã¨ã€åº§æ¨™ã‹ã‚‰ã€å£ã®å­˜åœ¨ã‚’ç¢ºèªã™
 531              		.loc 1 277 4 is_stmt 1 view .LVU157
 532              		.loc 1 277 29 is_stmt 0 view .LVU158
 533 0016 037A     		ldrb	r3, [r0, #8]	@ zero_extendqisi2
 534 0018 03F00302 		and	r2, r3, #3
 535              		.loc 1 277 6 view .LVU159
 536 001c 012A     		cmp	r2, #1
 537 001e 50D0     		beq	.L35
 278:Core/Src/Main/Action.c **** 			{
 279:Core/Src/Main/Action.c **** 				return F_WALL_PID;
 280:Core/Src/Main/Action.c **** 			}
 281:Core/Src/Main/Action.c **** 			else if(mouse->now.wall.east == WALL && mouse->now.wall.west == WALL)
 538              		.loc 1 281 9 is_stmt 1 view .LVU160
 539              		.loc 1 281 41 is_stmt 0 view .LVU161
 540 0020 03F0CC02 		and	r2, r3, #204
 541              		.loc 1 281 11 view .LVU162
 542 0024 442A     		cmp	r2, #68
 543 0026 4ED0     		beq	.L36
 282:Core/Src/Main/Action.c **** 			{
 283:Core/Src/Main/Action.c **** 				return D_WALL_PID;
 284:Core/Src/Main/Action.c **** 			}
 285:Core/Src/Main/Action.c **** 			else if(mouse->now.wall.east == WALL)
 544              		.loc 1 285 9 is_stmt 1 view .LVU163
 545              		.loc 1 285 33 is_stmt 0 view .LVU164
 546 0028 03F00C02 		and	r2, r3, #12
 547              		.loc 1 285 11 view .LVU165
 548 002c 042A     		cmp	r2, #4
 549 002e 4CD0     		beq	.L37
 286:Core/Src/Main/Action.c **** 			{
 287:Core/Src/Main/Action.c **** 				return R_WALL_PID;
 288:Core/Src/Main/Action.c **** 			}
 289:Core/Src/Main/Action.c **** 			else if(mouse->now.wall.west == WALL)
 550              		.loc 1 289 9 is_stmt 1 view .LVU166
 551              		.loc 1 289 33 is_stmt 0 view .LVU167
 552 0030 03F0C003 		and	r3, r3, #192
 553              		.loc 1 289 11 view .LVU168
 554 0034 402B     		cmp	r3, #64
 555 0036 01D0     		beq	.L51
 290:Core/Src/Main/Action.c **** 			{
 291:Core/Src/Main/Action.c **** 				return L_WALL_PID;
 292:Core/Src/Main/Action.c **** 			}
 293:Core/Src/Main/Action.c **** 			else
 294:Core/Src/Main/Action.c **** 			{
 295:Core/Src/Main/Action.c **** 				return N_WALL_PID;
 556              		.loc 1 295 12 view .LVU169
 557 0038 0620     		movs	r0, #6
 558              	.LVL39:
 559              		.loc 1 295 12 view .LVU170
 560 003a 7047     		bx	lr
 561              	.LVL40:
 562              	.L51:
 291:Core/Src/Main/Action.c **** 			}
ARM GAS  C:\Users\leopi\AppData\Local\Temp\ccntyKxi.s 			page 18


 563              		.loc 1 291 12 view .LVU171
 564 003c 0220     		movs	r0, #2
 565              	.LVL41:
 291:Core/Src/Main/Action.c **** 			}
 566              		.loc 1 291 12 view .LVU172
 567 003e 7047     		bx	lr
 568              	.LVL42:
 569              	.L32:
 296:Core/Src/Main/Action.c **** 			}
 297:Core/Src/Main/Action.c **** 			break;
 570              		.loc 1 297 4 is_stmt 1 view .LVU173
 298:Core/Src/Main/Action.c **** 
 299:Core/Src/Main/Action.c **** 		case east:
 300:Core/Src/Main/Action.c **** 			if(mouse->now.wall.east == WALL)
 571              		.loc 1 300 4 view .LVU174
 572              		.loc 1 300 28 is_stmt 0 view .LVU175
 573 0040 037A     		ldrb	r3, [r0, #8]	@ zero_extendqisi2
 574 0042 03F00C02 		and	r2, r3, #12
 575              		.loc 1 300 6 view .LVU176
 576 0046 042A     		cmp	r2, #4
 577 0048 41D0     		beq	.L39
 301:Core/Src/Main/Action.c **** 			{
 302:Core/Src/Main/Action.c **** 				return F_WALL_PID;
 303:Core/Src/Main/Action.c **** 			}
 304:Core/Src/Main/Action.c **** 			else if(mouse->now.wall.north == WALL && mouse->now.wall.south == WALL)//south)
 578              		.loc 1 304 9 is_stmt 1 view .LVU177
 579              		.loc 1 304 42 is_stmt 0 view .LVU178
 580 004a 03F03302 		and	r2, r3, #51
 581              		.loc 1 304 11 view .LVU179
 582 004e 112A     		cmp	r2, #17
 583 0050 3FD0     		beq	.L40
 305:Core/Src/Main/Action.c **** 			{
 306:Core/Src/Main/Action.c **** 				return D_WALL_PID;
 307:Core/Src/Main/Action.c **** 			}
 308:Core/Src/Main/Action.c **** 			else if(mouse->now.wall.north == WALL)
 584              		.loc 1 308 9 is_stmt 1 view .LVU180
 585              		.loc 1 308 34 is_stmt 0 view .LVU181
 586 0052 03F00302 		and	r2, r3, #3
 587              		.loc 1 308 11 view .LVU182
 588 0056 012A     		cmp	r2, #1
 589 0058 3DD0     		beq	.L41
 309:Core/Src/Main/Action.c **** 			{
 310:Core/Src/Main/Action.c **** 				return L_WALL_PID;
 311:Core/Src/Main/Action.c **** 			}
 312:Core/Src/Main/Action.c **** 			else if(mouse->now.wall.south == WALL)
 590              		.loc 1 312 9 is_stmt 1 view .LVU183
 591              		.loc 1 312 34 is_stmt 0 view .LVU184
 592 005a 03F03003 		and	r3, r3, #48
 593              		.loc 1 312 11 view .LVU185
 594 005e 102B     		cmp	r3, #16
 595 0060 01D0     		beq	.L52
 313:Core/Src/Main/Action.c **** 			{
 314:Core/Src/Main/Action.c **** 				return R_WALL_PID;
 315:Core/Src/Main/Action.c **** 			}
 316:Core/Src/Main/Action.c **** 			else
 317:Core/Src/Main/Action.c **** 			{
 318:Core/Src/Main/Action.c **** 				return N_WALL_PID;
ARM GAS  C:\Users\leopi\AppData\Local\Temp\ccntyKxi.s 			page 19


 596              		.loc 1 318 12 view .LVU186
 597 0062 0620     		movs	r0, #6
 598              	.LVL43:
 599              		.loc 1 318 12 view .LVU187
 600 0064 7047     		bx	lr
 601              	.LVL44:
 602              	.L52:
 314:Core/Src/Main/Action.c **** 			}
 603              		.loc 1 314 12 view .LVU188
 604 0066 0320     		movs	r0, #3
 605              	.LVL45:
 314:Core/Src/Main/Action.c **** 			}
 606              		.loc 1 314 12 view .LVU189
 607 0068 7047     		bx	lr
 608              	.LVL46:
 609              	.L31:
 319:Core/Src/Main/Action.c **** 			}
 320:Core/Src/Main/Action.c **** 			break;
 610              		.loc 1 320 4 is_stmt 1 view .LVU190
 321:Core/Src/Main/Action.c **** 		case south:
 322:Core/Src/Main/Action.c **** 			if(mouse->now.wall.south == WALL)
 611              		.loc 1 322 4 view .LVU191
 612              		.loc 1 322 29 is_stmt 0 view .LVU192
 613 006a 037A     		ldrb	r3, [r0, #8]	@ zero_extendqisi2
 614 006c 03F03002 		and	r2, r3, #48
 615              		.loc 1 322 6 view .LVU193
 616 0070 102A     		cmp	r2, #16
 617 0072 32D0     		beq	.L43
 323:Core/Src/Main/Action.c **** 			{
 324:Core/Src/Main/Action.c **** 				return F_WALL_PID;
 325:Core/Src/Main/Action.c **** 			}
 326:Core/Src/Main/Action.c **** 			else if(mouse->now.wall.east == WALL && mouse->now.wall.west == WALL)
 618              		.loc 1 326 9 is_stmt 1 view .LVU194
 619              		.loc 1 326 41 is_stmt 0 view .LVU195
 620 0074 03F0CC02 		and	r2, r3, #204
 621              		.loc 1 326 11 view .LVU196
 622 0078 442A     		cmp	r2, #68
 623 007a 30D0     		beq	.L44
 327:Core/Src/Main/Action.c **** 			{
 328:Core/Src/Main/Action.c **** 				return D_WALL_PID;
 329:Core/Src/Main/Action.c **** 			}
 330:Core/Src/Main/Action.c **** 			else if(mouse->now.wall.east == WALL)
 624              		.loc 1 330 9 is_stmt 1 view .LVU197
 625              		.loc 1 330 33 is_stmt 0 view .LVU198
 626 007c 03F00C02 		and	r2, r3, #12
 627              		.loc 1 330 11 view .LVU199
 628 0080 042A     		cmp	r2, #4
 629 0082 2ED0     		beq	.L45
 331:Core/Src/Main/Action.c **** 			{
 332:Core/Src/Main/Action.c **** 				return L_WALL_PID;
 333:Core/Src/Main/Action.c **** 			}
 334:Core/Src/Main/Action.c **** 			else if(mouse->now.wall.west == WALL)
 630              		.loc 1 334 9 is_stmt 1 view .LVU200
 631              		.loc 1 334 33 is_stmt 0 view .LVU201
 632 0084 03F0C003 		and	r3, r3, #192
 633              		.loc 1 334 11 view .LVU202
 634 0088 402B     		cmp	r3, #64
ARM GAS  C:\Users\leopi\AppData\Local\Temp\ccntyKxi.s 			page 20


 635 008a 01D0     		beq	.L53
 335:Core/Src/Main/Action.c **** 			{
 336:Core/Src/Main/Action.c **** 				return R_WALL_PID;
 337:Core/Src/Main/Action.c **** 			}
 338:Core/Src/Main/Action.c **** 			else
 339:Core/Src/Main/Action.c **** 			{
 340:Core/Src/Main/Action.c **** 				return N_WALL_PID;
 636              		.loc 1 340 12 view .LVU203
 637 008c 0620     		movs	r0, #6
 638              	.LVL47:
 639              		.loc 1 340 12 view .LVU204
 640 008e 7047     		bx	lr
 641              	.LVL48:
 642              	.L53:
 336:Core/Src/Main/Action.c **** 			}
 643              		.loc 1 336 12 view .LVU205
 644 0090 0320     		movs	r0, #3
 645              	.LVL49:
 336:Core/Src/Main/Action.c **** 			}
 646              		.loc 1 336 12 view .LVU206
 647 0092 7047     		bx	lr
 648              	.LVL50:
 649              	.L29:
 341:Core/Src/Main/Action.c **** 			}
 342:Core/Src/Main/Action.c **** 			break;
 650              		.loc 1 342 4 is_stmt 1 view .LVU207
 343:Core/Src/Main/Action.c **** 		case west:
 344:Core/Src/Main/Action.c **** 			if(mouse->now.wall.west == WALL)
 651              		.loc 1 344 4 view .LVU208
 652              		.loc 1 344 28 is_stmt 0 view .LVU209
 653 0094 037A     		ldrb	r3, [r0, #8]	@ zero_extendqisi2
 654 0096 03F0C002 		and	r2, r3, #192
 655              		.loc 1 344 6 view .LVU210
 656 009a 402A     		cmp	r2, #64
 657 009c 23D0     		beq	.L47
 345:Core/Src/Main/Action.c **** 			{
 346:Core/Src/Main/Action.c **** 				return F_WALL_PID;
 347:Core/Src/Main/Action.c **** 			}
 348:Core/Src/Main/Action.c **** 			else if ( mouse->now.wall.north == WALL && mouse->now.wall.south == WALL)//.westã«ãªã£ã¦ãŸã
 658              		.loc 1 348 9 is_stmt 1 view .LVU211
 659              		.loc 1 348 44 is_stmt 0 view .LVU212
 660 009e 03F03302 		and	r2, r3, #51
 661              		.loc 1 348 12 view .LVU213
 662 00a2 112A     		cmp	r2, #17
 663 00a4 21D0     		beq	.L48
 349:Core/Src/Main/Action.c **** 			{
 350:Core/Src/Main/Action.c **** 				return D_WALL_PID;
 351:Core/Src/Main/Action.c **** 			}
 352:Core/Src/Main/Action.c **** 			else if ( mouse->now.wall.north == WALL )
 664              		.loc 1 352 9 is_stmt 1 view .LVU214
 665              		.loc 1 352 36 is_stmt 0 view .LVU215
 666 00a6 03F00302 		and	r2, r3, #3
 667              		.loc 1 352 12 view .LVU216
 668 00aa 012A     		cmp	r2, #1
 669 00ac 1FD0     		beq	.L49
 353:Core/Src/Main/Action.c **** 			{
 354:Core/Src/Main/Action.c **** 				return R_WALL_PID;
ARM GAS  C:\Users\leopi\AppData\Local\Temp\ccntyKxi.s 			page 21


 355:Core/Src/Main/Action.c **** 			}
 356:Core/Src/Main/Action.c **** 			else if ( mouse->now.wall.south == WALL )
 670              		.loc 1 356 9 is_stmt 1 view .LVU217
 671              		.loc 1 356 36 is_stmt 0 view .LVU218
 672 00ae 03F03003 		and	r3, r3, #48
 673              		.loc 1 356 12 view .LVU219
 674 00b2 102B     		cmp	r3, #16
 675 00b4 01D0     		beq	.L54
 357:Core/Src/Main/Action.c **** 			{
 358:Core/Src/Main/Action.c **** 				return L_WALL_PID;
 359:Core/Src/Main/Action.c **** 			}
 360:Core/Src/Main/Action.c **** 			else
 361:Core/Src/Main/Action.c **** 			{
 362:Core/Src/Main/Action.c **** 				return N_WALL_PID;
 676              		.loc 1 362 12 view .LVU220
 677 00b6 0620     		movs	r0, #6
 678              	.LVL51:
 363:Core/Src/Main/Action.c **** 			}
 364:Core/Src/Main/Action.c **** 			break;
 365:Core/Src/Main/Action.c **** 
 366:Core/Src/Main/Action.c **** 		default:
 367:Core/Src/Main/Action.c **** 			//æ–œã‚æ–¹å‘
 368:Core/Src/Main/Action.c **** 			return N_WALL_PID;
 369:Core/Src/Main/Action.c **** 			break;
 679              		.loc 1 369 4 is_stmt 1 view .LVU221
 370:Core/Src/Main/Action.c **** 		}
 371:Core/Src/Main/Action.c **** 
 372:Core/Src/Main/Action.c **** }
 680              		.loc 1 372 1 is_stmt 0 view .LVU222
 681 00b8 7047     		bx	lr
 682              	.LVL52:
 683              	.L54:
 358:Core/Src/Main/Action.c **** 			}
 684              		.loc 1 358 12 view .LVU223
 685 00ba 0220     		movs	r0, #2
 686              	.LVL53:
 358:Core/Src/Main/Action.c **** 			}
 687              		.loc 1 358 12 view .LVU224
 688 00bc 7047     		bx	lr
 689              	.LVL54:
 690              	.L34:
 274:Core/Src/Main/Action.c **** 		{
 691              		.loc 1 274 3 view .LVU225
 692 00be 0620     		movs	r0, #6
 693              	.LVL55:
 274:Core/Src/Main/Action.c **** 		{
 694              		.loc 1 274 3 view .LVU226
 695 00c0 7047     		bx	lr
 696              	.LVL56:
 697              	.L35:
 279:Core/Src/Main/Action.c **** 			}
 698              		.loc 1 279 12 view .LVU227
 699 00c2 0820     		movs	r0, #8
 700              	.LVL57:
 279:Core/Src/Main/Action.c **** 			}
 701              		.loc 1 279 12 view .LVU228
 702 00c4 7047     		bx	lr
ARM GAS  C:\Users\leopi\AppData\Local\Temp\ccntyKxi.s 			page 22


 703              	.LVL58:
 704              	.L36:
 283:Core/Src/Main/Action.c **** 			}
 705              		.loc 1 283 12 view .LVU229
 706 00c6 0120     		movs	r0, #1
 707              	.LVL59:
 283:Core/Src/Main/Action.c **** 			}
 708              		.loc 1 283 12 view .LVU230
 709 00c8 7047     		bx	lr
 710              	.LVL60:
 711              	.L37:
 287:Core/Src/Main/Action.c **** 			}
 712              		.loc 1 287 12 view .LVU231
 713 00ca 0320     		movs	r0, #3
 714              	.LVL61:
 287:Core/Src/Main/Action.c **** 			}
 715              		.loc 1 287 12 view .LVU232
 716 00cc 7047     		bx	lr
 717              	.LVL62:
 718              	.L39:
 302:Core/Src/Main/Action.c **** 			}
 719              		.loc 1 302 12 view .LVU233
 720 00ce 0820     		movs	r0, #8
 721              	.LVL63:
 302:Core/Src/Main/Action.c **** 			}
 722              		.loc 1 302 12 view .LVU234
 723 00d0 7047     		bx	lr
 724              	.LVL64:
 725              	.L40:
 306:Core/Src/Main/Action.c **** 			}
 726              		.loc 1 306 12 view .LVU235
 727 00d2 0120     		movs	r0, #1
 728              	.LVL65:
 306:Core/Src/Main/Action.c **** 			}
 729              		.loc 1 306 12 view .LVU236
 730 00d4 7047     		bx	lr
 731              	.LVL66:
 732              	.L41:
 310:Core/Src/Main/Action.c **** 			}
 733              		.loc 1 310 12 view .LVU237
 734 00d6 0220     		movs	r0, #2
 735              	.LVL67:
 310:Core/Src/Main/Action.c **** 			}
 736              		.loc 1 310 12 view .LVU238
 737 00d8 7047     		bx	lr
 738              	.LVL68:
 739              	.L43:
 324:Core/Src/Main/Action.c **** 			}
 740              		.loc 1 324 12 view .LVU239
 741 00da 0820     		movs	r0, #8
 742              	.LVL69:
 324:Core/Src/Main/Action.c **** 			}
 743              		.loc 1 324 12 view .LVU240
 744 00dc 7047     		bx	lr
 745              	.LVL70:
 746              	.L44:
 328:Core/Src/Main/Action.c **** 			}
ARM GAS  C:\Users\leopi\AppData\Local\Temp\ccntyKxi.s 			page 23


 747              		.loc 1 328 12 view .LVU241
 748 00de 0120     		movs	r0, #1
 749              	.LVL71:
 328:Core/Src/Main/Action.c **** 			}
 750              		.loc 1 328 12 view .LVU242
 751 00e0 7047     		bx	lr
 752              	.LVL72:
 753              	.L45:
 332:Core/Src/Main/Action.c **** 			}
 754              		.loc 1 332 12 view .LVU243
 755 00e2 0220     		movs	r0, #2
 756              	.LVL73:
 332:Core/Src/Main/Action.c **** 			}
 757              		.loc 1 332 12 view .LVU244
 758 00e4 7047     		bx	lr
 759              	.LVL74:
 760              	.L47:
 346:Core/Src/Main/Action.c **** 			}
 761              		.loc 1 346 12 view .LVU245
 762 00e6 0820     		movs	r0, #8
 763              	.LVL75:
 346:Core/Src/Main/Action.c **** 			}
 764              		.loc 1 346 12 view .LVU246
 765 00e8 7047     		bx	lr
 766              	.LVL76:
 767              	.L48:
 350:Core/Src/Main/Action.c **** 			}
 768              		.loc 1 350 12 view .LVU247
 769 00ea 0120     		movs	r0, #1
 770              	.LVL77:
 350:Core/Src/Main/Action.c **** 			}
 771              		.loc 1 350 12 view .LVU248
 772 00ec 7047     		bx	lr
 773              	.LVL78:
 774              	.L49:
 354:Core/Src/Main/Action.c **** 			}
 775              		.loc 1 354 12 view .LVU249
 776 00ee 0320     		movs	r0, #3
 777              	.LVL79:
 354:Core/Src/Main/Action.c **** 			}
 778              		.loc 1 354 12 view .LVU250
 779 00f0 7047     		bx	lr
 780              		.cfi_endproc
 781              	.LFE240:
 783              		.section	.text.WaitStopAndReset,"ax",%progbits
 784              		.align	1
 785              		.global	WaitStopAndReset
 786              		.syntax unified
 787              		.thumb
 788              		.thumb_func
 790              	WaitStopAndReset:
 791              	.LFB241:
 373:Core/Src/Main/Action.c **** 
 374:Core/Src/Main/Action.c **** void WaitStopAndReset()
 375:Core/Src/Main/Action.c **** {
 792              		.loc 1 375 1 is_stmt 1 view -0
 793              		.cfi_startproc
ARM GAS  C:\Users\leopi\AppData\Local\Temp\ccntyKxi.s 			page 24


 794              		@ args = 0, pretend = 0, frame = 0
 795              		@ frame_needed = 0, uses_anonymous_args = 0
 796 0000 08B5     		push	{r3, lr}
 797              	.LCFI4:
 798              		.cfi_def_cfa_offset 8
 799              		.cfi_offset 3, -8
 800              		.cfi_offset 14, -4
 801              	.L56:
 376:Core/Src/Main/Action.c **** 	do
 802              		.loc 1 376 2 discriminator 1 view .LVU252
 377:Core/Src/Main/Action.c **** 	{
 378:Core/Src/Main/Action.c **** 		TargetVelocity[BODY] = 0;
 803              		.loc 1 378 3 discriminator 1 view .LVU253
 804              		.loc 1 378 24 is_stmt 0 discriminator 1 view .LVU254
 805 0002 0023     		movs	r3, #0
 806 0004 0E4A     		ldr	r2, .L58
 807 0006 9360     		str	r3, [r2, #8]	@ float
 379:Core/Src/Main/Action.c **** 		Acceleration = 0;
 808              		.loc 1 379 3 is_stmt 1 discriminator 1 view .LVU255
 809              		.loc 1 379 16 is_stmt 0 discriminator 1 view .LVU256
 810 0008 0E4A     		ldr	r2, .L58+4
 811 000a 1360     		str	r3, [r2]	@ float
 380:Core/Src/Main/Action.c **** 		TargetAngularV = 0;
 812              		.loc 1 380 3 is_stmt 1 discriminator 1 view .LVU257
 813              		.loc 1 380 18 is_stmt 0 discriminator 1 view .LVU258
 814 000c 0E4A     		ldr	r2, .L58+8
 815 000e 1360     		str	r3, [r2]	@ float
 381:Core/Src/Main/Action.c **** 		AngularAcceleration = 0;
 816              		.loc 1 381 3 is_stmt 1 discriminator 1 view .LVU259
 817              		.loc 1 381 23 is_stmt 0 discriminator 1 view .LVU260
 818 0010 0E4A     		ldr	r2, .L58+12
 819 0012 1360     		str	r3, [r2]	@ float
 382:Core/Src/Main/Action.c **** 		PIDReset(L_VELO_PID);
 820              		.loc 1 382 3 is_stmt 1 discriminator 1 view .LVU261
 821 0014 0420     		movs	r0, #4
 822 0016 FFF7FEFF 		bl	PIDReset
 823              	.LVL80:
 383:Core/Src/Main/Action.c **** 		PIDReset(R_VELO_PID);
 824              		.loc 1 383 3 discriminator 1 view .LVU262
 825 001a 0520     		movs	r0, #5
 826 001c FFF7FEFF 		bl	PIDReset
 827              	.LVL81:
 384:Core/Src/Main/Action.c **** 		PIDReset(A_VELO_PID);
 828              		.loc 1 384 3 discriminator 1 view .LVU263
 829 0020 0020     		movs	r0, #0
 830 0022 FFF7FEFF 		bl	PIDReset
 831              	.LVL82:
 385:Core/Src/Main/Action.c **** 
 386:Core/Src/Main/Action.c **** 	}while(CurrentVelocity[BODY] != 0);
 832              		.loc 1 386 8 discriminator 1 view .LVU264
 833              		.loc 1 386 24 is_stmt 0 discriminator 1 view .LVU265
 834 0026 0A4B     		ldr	r3, .L58+16
 835 0028 D3ED027A 		vldr.32	s15, [r3, #8]
 836              		.loc 1 386 2 discriminator 1 view .LVU266
 837 002c F5EE407A 		vcmp.f32	s15, #0
 838 0030 F1EE10FA 		vmrs	APSR_nzcv, FPSCR
 839 0034 E5D1     		bne	.L56
ARM GAS  C:\Users\leopi\AppData\Local\Temp\ccntyKxi.s 			page 25


 387:Core/Src/Main/Action.c **** 	HAL_Delay(100);
 840              		.loc 1 387 2 is_stmt 1 view .LVU267
 841 0036 6420     		movs	r0, #100
 842 0038 FFF7FEFF 		bl	HAL_Delay
 843              	.LVL83:
 388:Core/Src/Main/Action.c **** }
 844              		.loc 1 388 1 is_stmt 0 view .LVU268
 845 003c 08BD     		pop	{r3, pc}
 846              	.L59:
 847 003e 00BF     		.align	2
 848              	.L58:
 849 0040 00000000 		.word	TargetVelocity
 850 0044 00000000 		.word	Acceleration
 851 0048 00000000 		.word	TargetAngularV
 852 004c 00000000 		.word	AngularAcceleration
 853 0050 00000000 		.word	CurrentVelocity
 854              		.cfi_endproc
 855              	.LFE241:
 857              		.global	__aeabi_f2d
 858              		.global	__aeabi_dmul
 859              		.global	__aeabi_ddiv
 860              		.global	__aeabi_d2f
 861              		.global	__aeabi_d2iz
 862              		.section	.text.Rotate,"ax",%progbits
 863              		.align	1
 864              		.global	Rotate
 865              		.syntax unified
 866              		.thumb
 867              		.thumb_func
 869              	Rotate:
 870              	.LVL84:
 871              	.LFB242:
 389:Core/Src/Main/Action.c **** void Rotate(float deg, float ang_v)
 390:Core/Src/Main/Action.c **** {
 872              		.loc 1 390 1 is_stmt 1 view -0
 873              		.cfi_startproc
 874              		@ args = 0, pretend = 0, frame = 24
 875              		@ frame_needed = 0, uses_anonymous_args = 0
 876              		.loc 1 390 1 is_stmt 0 view .LVU270
 877 0000 00B5     		push	{lr}
 878              	.LCFI5:
 879              		.cfi_def_cfa_offset 4
 880              		.cfi_offset 14, -4
 881 0002 2DED048B 		vpush.64	{d8, d9}
 882              	.LCFI6:
 883              		.cfi_def_cfa_offset 20
 884              		.cfi_offset 80, -20
 885              		.cfi_offset 81, -16
 886              		.cfi_offset 82, -12
 887              		.cfi_offset 83, -8
 888 0006 87B0     		sub	sp, sp, #28
 889              	.LCFI7:
 890              		.cfi_def_cfa_offset 48
 891 0008 B0EE409A 		vmov.f32	s18, s0
 892 000c F0EE608A 		vmov.f32	s17, s1
 391:Core/Src/Main/Action.c **** 	TargetAngularV = 0;
 893              		.loc 1 391 2 is_stmt 1 view .LVU271
ARM GAS  C:\Users\leopi\AppData\Local\Temp\ccntyKxi.s 			page 26


 894              		.loc 1 391 17 is_stmt 0 view .LVU272
 895 0010 0023     		movs	r3, #0
 896 0012 8B4A     		ldr	r2, .L89+16
 897 0014 1360     		str	r3, [r2]	@ float
 392:Core/Src/Main/Action.c **** 	Pid[A_VELO_PID].flag = 0;
 898              		.loc 1 392 2 is_stmt 1 view .LVU273
 899              		.loc 1 392 23 is_stmt 0 view .LVU274
 900 0016 8B4A     		ldr	r2, .L89+20
 901 0018 0021     		movs	r1, #0
 902 001a 9162     		str	r1, [r2, #40]
 393:Core/Src/Main/Action.c **** 
 394:Core/Src/Main/Action.c **** 	float accel_deg = deg*30/90;
 903              		.loc 1 394 2 is_stmt 1 view .LVU275
 904              		.loc 1 394 23 is_stmt 0 view .LVU276
 905 001c F3EE0E7A 		vmov.f32	s15, #3.0e+1
 906 0020 60EE277A 		vmul.f32	s15, s0, s15
 907              		.loc 1 394 8 view .LVU277
 908 0024 DFED886A 		vldr.32	s13, .L89+24
 909 0028 87EEA67A 		vdiv.f32	s14, s15, s13
 910              	.LVL85:
 395:Core/Src/Main/Action.c **** 	float const_deg = deg*30/90;
 911              		.loc 1 395 2 is_stmt 1 view .LVU278
 396:Core/Src/Main/Action.c **** 	float decel_deg = deg*30/90;
 912              		.loc 1 396 2 view .LVU279
 397:Core/Src/Main/Action.c **** 	float angular_acceleration[3] = {
 913              		.loc 1 397 2 view .LVU280
 398:Core/Src/Main/Action.c **** 			64*T1*ang_v*ang_v / (2*accel_deg),
 914              		.loc 1 398 9 is_stmt 0 view .LVU281
 915 002c DFED877A 		vldr.32	s15, .L89+28
 916 0030 60EEA77A 		vmul.f32	s15, s1, s15
 917              		.loc 1 398 15 view .LVU282
 918 0034 67EEA07A 		vmul.f32	s15, s15, s1
 919              		.loc 1 398 26 view .LVU283
 920 0038 77EE076A 		vadd.f32	s13, s14, s14
 921              		.loc 1 398 22 view .LVU284
 922 003c 87EEA68A 		vdiv.f32	s16, s15, s13
 397:Core/Src/Main/Action.c **** 	float angular_acceleration[3] = {
 923              		.loc 1 397 8 view .LVU285
 924 0040 8DED038A 		vstr.32	s16, [sp, #12]
 925 0044 0493     		str	r3, [sp, #16]	@ float
 926 0046 8DED058A 		vstr.32	s16, [sp, #20]
 399:Core/Src/Main/Action.c **** 			0,
 400:Core/Src/Main/Action.c **** 			64*T1*ang_v*ang_v / (2*decel_deg)
 401:Core/Src/Main/Action.c **** 	};
 402:Core/Src/Main/Action.c **** 	float move_angle[3] = {
 927              		.loc 1 402 2 is_stmt 1 view .LVU286
 403:Core/Src/Main/Action.c **** 			accel_deg * M_PI/ 180, //ãƒ©ã‚¸ã‚¢ãƒ³ã«
 928              		.loc 1 403 14 is_stmt 0 view .LVU287
 929 004a 17EE100A 		vmov	r0, s14
 930 004e FFF7FEFF 		bl	__aeabi_f2d
 931              	.LVL86:
 932              		.loc 1 403 14 view .LVU288
 933 0052 77A3     		adr	r3, .L89
 934 0054 D3E90023 		ldrd	r2, [r3]
 935 0058 FFF7FEFF 		bl	__aeabi_dmul
 936              	.LVL87:
 937              		.loc 1 403 20 view .LVU289
ARM GAS  C:\Users\leopi\AppData\Local\Temp\ccntyKxi.s 			page 27


 938 005c 0022     		movs	r2, #0
 939 005e 7C4B     		ldr	r3, .L89+32
 940 0060 FFF7FEFF 		bl	__aeabi_ddiv
 941              	.LVL88:
 942 0064 FFF7FEFF 		bl	__aeabi_d2f
 943              	.LVL89:
 944 0068 06EE900A 		vmov	s13, r0
 402:Core/Src/Main/Action.c **** 			accel_deg * M_PI/ 180, //ãƒ©ã‚¸ã‚¢ãƒ³ã«
 945              		.loc 1 402 8 view .LVU290
 946 006c 0090     		str	r0, [sp]	@ float
 947 006e 0190     		str	r0, [sp, #4]	@ float
 948 0070 0290     		str	r0, [sp, #8]	@ float
 404:Core/Src/Main/Action.c **** 			const_deg * M_PI/ 180,
 405:Core/Src/Main/Action.c **** 			decel_deg * M_PI/ 180,
 406:Core/Src/Main/Action.c **** 	};
 407:Core/Src/Main/Action.c **** 
 408:Core/Src/Main/Action.c **** 	if( ang_v > 0)	//å³å›žè»¢
 949              		.loc 1 408 2 is_stmt 1 view .LVU291
 950              		.loc 1 408 4 is_stmt 0 view .LVU292
 951 0072 F5EEC08A 		vcmpe.f32	s17, #0
 952 0076 F1EE10FA 		vmrs	APSR_nzcv, FPSCR
 953 007a 74DD     		ble	.L85
 409:Core/Src/Main/Action.c **** 	{
 410:Core/Src/Main/Action.c **** 		TargetAngle += move_angle[0];
 954              		.loc 1 410 3 is_stmt 1 view .LVU293
 955              		.loc 1 410 15 is_stmt 0 view .LVU294
 956 007c 754B     		ldr	r3, .L89+36
 957 007e D3ED007A 		vldr.32	s15, [r3]
 958 0082 76EEA77A 		vadd.f32	s15, s13, s15
 959 0086 C3ED007A 		vstr.32	s15, [r3]
 411:Core/Src/Main/Action.c **** 		while( (TargetAngle > Angle) /*&& (( ( keep_pulse[LEFT]+move_pulse ) > ( TotalPulse[LEFT] ) ) && 
 960              		.loc 1 411 3 is_stmt 1 view .LVU295
 961              		.loc 1 411 8 is_stmt 0 view .LVU296
 962 008a 02E0     		b	.L63
 963              	.L64:
 412:Core/Src/Main/Action.c **** 		{
 413:Core/Src/Main/Action.c **** 			AngularAcceleration = angular_acceleration[0];
 964              		.loc 1 413 4 is_stmt 1 view .LVU297
 965              		.loc 1 413 24 is_stmt 0 view .LVU298
 966 008c 724B     		ldr	r3, .L89+40
 967 008e 83ED008A 		vstr.32	s16, [r3]
 968              	.L63:
 411:Core/Src/Main/Action.c **** 		while( (TargetAngle > Angle) /*&& (( ( keep_pulse[LEFT]+move_pulse ) > ( TotalPulse[LEFT] ) ) && 
 969              		.loc 1 411 8 is_stmt 1 view .LVU299
 411:Core/Src/Main/Action.c **** 		while( (TargetAngle > Angle) /*&& (( ( keep_pulse[LEFT]+move_pulse ) > ( TotalPulse[LEFT] ) ) && 
 970              		.loc 1 411 23 is_stmt 0 view .LVU300
 971 0092 704B     		ldr	r3, .L89+36
 972 0094 93ED007A 		vldr.32	s14, [r3]
 973 0098 704B     		ldr	r3, .L89+44
 974 009a D3ED007A 		vldr.32	s15, [r3]
 411:Core/Src/Main/Action.c **** 		while( (TargetAngle > Angle) /*&& (( ( keep_pulse[LEFT]+move_pulse ) > ( TotalPulse[LEFT] ) ) && 
 975              		.loc 1 411 8 view .LVU301
 976 009e B4EEE77A 		vcmpe.f32	s14, s15
 977 00a2 F1EE10FA 		vmrs	APSR_nzcv, FPSCR
 978 00a6 F1DC     		bgt	.L64
 414:Core/Src/Main/Action.c **** 		}
 415:Core/Src/Main/Action.c **** 		TargetAngle += move_angle[1];
ARM GAS  C:\Users\leopi\AppData\Local\Temp\ccntyKxi.s 			page 28


 979              		.loc 1 415 3 is_stmt 1 view .LVU302
 980              		.loc 1 415 15 is_stmt 0 view .LVU303
 981 00a8 6A4B     		ldr	r3, .L89+36
 982 00aa D3ED007A 		vldr.32	s15, [r3]
 983 00ae 76EEA77A 		vadd.f32	s15, s13, s15
 984 00b2 C3ED007A 		vstr.32	s15, [r3]
 416:Core/Src/Main/Action.c **** 		while(TargetAngle > Angle)
 985              		.loc 1 416 3 is_stmt 1 view .LVU304
 986              		.loc 1 416 8 is_stmt 0 view .LVU305
 987 00b6 02E0     		b	.L65
 988              	.L66:
 417:Core/Src/Main/Action.c **** 		{
 418:Core/Src/Main/Action.c **** 			AngularAcceleration = angular_acceleration[1];
 989              		.loc 1 418 4 is_stmt 1 view .LVU306
 990              		.loc 1 418 24 is_stmt 0 view .LVU307
 991 00b8 674B     		ldr	r3, .L89+40
 992 00ba 0022     		movs	r2, #0
 993 00bc 1A60     		str	r2, [r3]	@ float
 994              	.L65:
 416:Core/Src/Main/Action.c **** 		while(TargetAngle > Angle)
 995              		.loc 1 416 8 is_stmt 1 view .LVU308
 416:Core/Src/Main/Action.c **** 		while(TargetAngle > Angle)
 996              		.loc 1 416 21 is_stmt 0 view .LVU309
 997 00be 654B     		ldr	r3, .L89+36
 998 00c0 93ED007A 		vldr.32	s14, [r3]
 999 00c4 654B     		ldr	r3, .L89+44
 1000 00c6 D3ED007A 		vldr.32	s15, [r3]
 416:Core/Src/Main/Action.c **** 		while(TargetAngle > Angle)
 1001              		.loc 1 416 8 view .LVU310
 1002 00ca B4EEE77A 		vcmpe.f32	s14, s15
 1003 00ce F1EE10FA 		vmrs	APSR_nzcv, FPSCR
 1004 00d2 F1DC     		bgt	.L66
 419:Core/Src/Main/Action.c **** 		}
 420:Core/Src/Main/Action.c **** 		TargetAngle += move_angle[2];
 1005              		.loc 1 420 3 is_stmt 1 view .LVU311
 1006              		.loc 1 420 15 is_stmt 0 view .LVU312
 1007 00d4 5F4B     		ldr	r3, .L89+36
 1008 00d6 D3ED007A 		vldr.32	s15, [r3]
 1009 00da 76EEA76A 		vadd.f32	s13, s13, s15
 1010 00de C3ED006A 		vstr.32	s13, [r3]
 421:Core/Src/Main/Action.c **** 		while(TargetAngle > Angle)
 1011              		.loc 1 421 3 is_stmt 1 view .LVU313
 1012              	.L67:
 1013              		.loc 1 421 8 view .LVU314
 1014              		.loc 1 421 21 is_stmt 0 view .LVU315
 1015 00e2 5C4B     		ldr	r3, .L89+36
 1016 00e4 93ED007A 		vldr.32	s14, [r3]
 1017 00e8 5C4B     		ldr	r3, .L89+44
 1018 00ea D3ED007A 		vldr.32	s15, [r3]
 1019              		.loc 1 421 8 view .LVU316
 1020 00ee B4EEE77A 		vcmpe.f32	s14, s15
 1021 00f2 F1EE10FA 		vmrs	APSR_nzcv, FPSCR
 1022 00f6 0CDD     		ble	.L68
 422:Core/Src/Main/Action.c **** 		{
 423:Core/Src/Main/Action.c **** 			 AngularAcceleration = -angular_acceleration[2];
 1023              		.loc 1 423 5 is_stmt 1 view .LVU317
 1024              		.loc 1 423 27 is_stmt 0 view .LVU318
ARM GAS  C:\Users\leopi\AppData\Local\Temp\ccntyKxi.s 			page 29


 1025 00f8 F1EE487A 		vneg.f32	s15, s16
 1026              		.loc 1 423 25 view .LVU319
 1027 00fc 564B     		ldr	r3, .L89+40
 1028 00fe C3ED007A 		vstr.32	s15, [r3]
 424:Core/Src/Main/Action.c **** 			 if( AngularV <= 0)
 1029              		.loc 1 424 5 is_stmt 1 view .LVU320
 1030              		.loc 1 424 18 is_stmt 0 view .LVU321
 1031 0102 574B     		ldr	r3, .L89+48
 1032 0104 D3ED007A 		vldr.32	s15, [r3]
 1033              		.loc 1 424 7 view .LVU322
 1034 0108 F5EEC07A 		vcmpe.f32	s15, #0
 1035 010c F1EE10FA 		vmrs	APSR_nzcv, FPSCR
 1036 0110 E7D8     		bhi	.L67
 1037              	.L68:
 425:Core/Src/Main/Action.c **** 			 {
 426:Core/Src/Main/Action.c **** 				 break;
 427:Core/Src/Main/Action.c **** 			 }
 428:Core/Src/Main/Action.c **** 		}
 429:Core/Src/Main/Action.c **** 
 430:Core/Src/Main/Action.c **** 	}
 431:Core/Src/Main/Action.c **** 	else if( ang_v < 0)
 432:Core/Src/Main/Action.c **** 	{
 433:Core/Src/Main/Action.c **** 		TargetAngle -= move_angle[0];
 434:Core/Src/Main/Action.c **** 		while( (TargetAngle < Angle) )
 435:Core/Src/Main/Action.c **** 		{
 436:Core/Src/Main/Action.c **** 			AngularAcceleration = -angular_acceleration[0]; //ã“ã“ã¾ã§
 437:Core/Src/Main/Action.c **** 		}
 438:Core/Src/Main/Action.c **** 		TargetAngle -= move_angle[1];
 439:Core/Src/Main/Action.c **** 		while(TargetAngle < Angle)
 440:Core/Src/Main/Action.c **** 		{
 441:Core/Src/Main/Action.c **** 			AngularAcceleration = angular_acceleration[1];//0
 442:Core/Src/Main/Action.c **** 		}
 443:Core/Src/Main/Action.c **** 		TargetAngle -= move_angle[2];
 444:Core/Src/Main/Action.c **** 		while(TargetAngle < Angle)
 445:Core/Src/Main/Action.c **** 		{
 446:Core/Src/Main/Action.c **** 			 AngularAcceleration = angular_acceleration[2];
 447:Core/Src/Main/Action.c **** 			 if( AngularV >= 0)
 448:Core/Src/Main/Action.c **** 			 {
 449:Core/Src/Main/Action.c **** 			 		break;
 450:Core/Src/Main/Action.c **** 			 }
 451:Core/Src/Main/Action.c **** 		}
 452:Core/Src/Main/Action.c **** 
 453:Core/Src/Main/Action.c **** 	}
 454:Core/Src/Main/Action.c **** 	AngularAcceleration = 0;
 1038              		.loc 1 454 2 is_stmt 1 view .LVU323
 1039              		.loc 1 454 22 is_stmt 0 view .LVU324
 1040 0112 514B     		ldr	r3, .L89+40
 1041 0114 0022     		movs	r2, #0
 1042 0116 1A60     		str	r2, [r3]	@ float
 455:Core/Src/Main/Action.c **** 	WaitStopAndReset();
 1043              		.loc 1 455 2 is_stmt 1 view .LVU325
 1044 0118 FFF7FEFF 		bl	WaitStopAndReset
 1045              	.LVL90:
 456:Core/Src/Main/Action.c **** 	int target_pulse = (int)( (deg/360) * ROTATE_PULSE);
 1046              		.loc 1 456 2 view .LVU326
 1047              		.loc 1 456 32 is_stmt 0 view .LVU327
 1048 011c DFED517A 		vldr.32	s15, .L89+52
ARM GAS  C:\Users\leopi\AppData\Local\Temp\ccntyKxi.s 			page 30


 1049 0120 C9EE277A 		vdiv.f32	s15, s18, s15
 1050 0124 17EE900A 		vmov	r0, s15
 1051 0128 FFF7FEFF 		bl	__aeabi_f2d
 1052              	.LVL91:
 1053              		.loc 1 456 38 view .LVU328
 1054 012c 42A3     		adr	r3, .L89+8
 1055 012e D3E90023 		ldrd	r2, [r3]
 1056 0132 FFF7FEFF 		bl	__aeabi_dmul
 1057              	.LVL92:
 1058              		.loc 1 456 6 view .LVU329
 1059 0136 FFF7FEFF 		bl	__aeabi_d2iz
 1060              	.LVL93:
 457:Core/Src/Main/Action.c **** 	if(ang_v < 0)
 1061              		.loc 1 457 2 is_stmt 1 view .LVU330
 1062              		.loc 1 457 4 is_stmt 0 view .LVU331
 1063 013a F5EEC08A 		vcmpe.f32	s17, #0
 1064 013e F1EE10FA 		vmrs	APSR_nzcv, FPSCR
 1065 0142 61D4     		bmi	.L88
 458:Core/Src/Main/Action.c **** 	{
 459:Core/Src/Main/Action.c **** 		KeepPulse[LEFT] -= target_pulse/2;
 460:Core/Src/Main/Action.c **** 		KeepPulse[RIGHT] += target_pulse/2;
 461:Core/Src/Main/Action.c **** 	}
 462:Core/Src/Main/Action.c **** 	else 	if(ang_v > 0)
 1066              		.loc 1 462 8 is_stmt 1 view .LVU332
 1067              		.loc 1 462 10 is_stmt 0 view .LVU333
 1068 0144 F5EEC08A 		vcmpe.f32	s17, #0
 1069 0148 F1EE10FA 		vmrs	APSR_nzcv, FPSCR
 1070 014c 67DD     		ble	.L79
 463:Core/Src/Main/Action.c **** 	{
 464:Core/Src/Main/Action.c **** 		KeepPulse[LEFT] += target_pulse/2;
 1071              		.loc 1 464 3 is_stmt 1 view .LVU334
 1072              		.loc 1 464 19 is_stmt 0 view .LVU335
 1073 014e 464B     		ldr	r3, .L89+56
 1074 0150 1A68     		ldr	r2, [r3]
 1075              		.loc 1 464 34 view .LVU336
 1076 0152 00EBD070 		add	r0, r0, r0, lsr #31
 1077              	.LVL94:
 1078              		.loc 1 464 19 view .LVU337
 1079 0156 02EB6002 		add	r2, r2, r0, asr #1
 1080 015a 1A60     		str	r2, [r3]
 465:Core/Src/Main/Action.c **** 		KeepPulse[RIGHT] -= target_pulse/2;
 1081              		.loc 1 465 3 is_stmt 1 view .LVU338
 1082              		.loc 1 465 20 is_stmt 0 view .LVU339
 1083 015c 5A68     		ldr	r2, [r3, #4]
 1084 015e A2EB6000 		sub	r0, r2, r0, asr #1
 1085 0162 5860     		str	r0, [r3, #4]
 1086 0164 5BE0     		b	.L79
 1087              	.L85:
 431:Core/Src/Main/Action.c **** 	{
 1088              		.loc 1 431 7 is_stmt 1 view .LVU340
 431:Core/Src/Main/Action.c **** 	{
 1089              		.loc 1 431 9 is_stmt 0 view .LVU341
 1090 0166 F5EEC08A 		vcmpe.f32	s17, #0
 1091 016a F1EE10FA 		vmrs	APSR_nzcv, FPSCR
 1092 016e D0D5     		bpl	.L68
 433:Core/Src/Main/Action.c **** 		while( (TargetAngle < Angle) )
 1093              		.loc 1 433 3 is_stmt 1 view .LVU342
ARM GAS  C:\Users\leopi\AppData\Local\Temp\ccntyKxi.s 			page 31


 433:Core/Src/Main/Action.c **** 		while( (TargetAngle < Angle) )
 1094              		.loc 1 433 15 is_stmt 0 view .LVU343
 1095 0170 384B     		ldr	r3, .L89+36
 1096 0172 D3ED007A 		vldr.32	s15, [r3]
 1097 0176 77EEE67A 		vsub.f32	s15, s15, s13
 1098 017a C3ED007A 		vstr.32	s15, [r3]
 434:Core/Src/Main/Action.c **** 		{
 1099              		.loc 1 434 3 is_stmt 1 view .LVU344
 434:Core/Src/Main/Action.c **** 		{
 1100              		.loc 1 434 8 is_stmt 0 view .LVU345
 1101 017e 04E0     		b	.L71
 1102              	.L72:
 436:Core/Src/Main/Action.c **** 		}
 1103              		.loc 1 436 4 is_stmt 1 view .LVU346
 436:Core/Src/Main/Action.c **** 		}
 1104              		.loc 1 436 26 is_stmt 0 view .LVU347
 1105 0180 F1EE487A 		vneg.f32	s15, s16
 436:Core/Src/Main/Action.c **** 		}
 1106              		.loc 1 436 24 view .LVU348
 1107 0184 344B     		ldr	r3, .L89+40
 1108 0186 C3ED007A 		vstr.32	s15, [r3]
 1109              	.L71:
 434:Core/Src/Main/Action.c **** 		{
 1110              		.loc 1 434 8 is_stmt 1 view .LVU349
 434:Core/Src/Main/Action.c **** 		{
 1111              		.loc 1 434 23 is_stmt 0 view .LVU350
 1112 018a 324B     		ldr	r3, .L89+36
 1113 018c 93ED007A 		vldr.32	s14, [r3]
 1114 0190 324B     		ldr	r3, .L89+44
 1115 0192 D3ED007A 		vldr.32	s15, [r3]
 434:Core/Src/Main/Action.c **** 		{
 1116              		.loc 1 434 8 view .LVU351
 1117 0196 B4EEE77A 		vcmpe.f32	s14, s15
 1118 019a F1EE10FA 		vmrs	APSR_nzcv, FPSCR
 1119 019e EFD4     		bmi	.L72
 438:Core/Src/Main/Action.c **** 		while(TargetAngle < Angle)
 1120              		.loc 1 438 3 is_stmt 1 view .LVU352
 438:Core/Src/Main/Action.c **** 		while(TargetAngle < Angle)
 1121              		.loc 1 438 15 is_stmt 0 view .LVU353
 1122 01a0 2C4B     		ldr	r3, .L89+36
 1123 01a2 D3ED007A 		vldr.32	s15, [r3]
 1124 01a6 77EEE67A 		vsub.f32	s15, s15, s13
 1125 01aa C3ED007A 		vstr.32	s15, [r3]
 439:Core/Src/Main/Action.c **** 		{
 1126              		.loc 1 439 3 is_stmt 1 view .LVU354
 439:Core/Src/Main/Action.c **** 		{
 1127              		.loc 1 439 8 is_stmt 0 view .LVU355
 1128 01ae 02E0     		b	.L73
 1129              	.L74:
 441:Core/Src/Main/Action.c **** 		}
 1130              		.loc 1 441 4 is_stmt 1 view .LVU356
 441:Core/Src/Main/Action.c **** 		}
 1131              		.loc 1 441 24 is_stmt 0 view .LVU357
 1132 01b0 294B     		ldr	r3, .L89+40
 1133 01b2 0022     		movs	r2, #0
 1134 01b4 1A60     		str	r2, [r3]	@ float
 1135              	.L73:
ARM GAS  C:\Users\leopi\AppData\Local\Temp\ccntyKxi.s 			page 32


 439:Core/Src/Main/Action.c **** 		{
 1136              		.loc 1 439 8 is_stmt 1 view .LVU358
 439:Core/Src/Main/Action.c **** 		{
 1137              		.loc 1 439 21 is_stmt 0 view .LVU359
 1138 01b6 274B     		ldr	r3, .L89+36
 1139 01b8 93ED007A 		vldr.32	s14, [r3]
 1140 01bc 274B     		ldr	r3, .L89+44
 1141 01be D3ED007A 		vldr.32	s15, [r3]
 439:Core/Src/Main/Action.c **** 		{
 1142              		.loc 1 439 8 view .LVU360
 1143 01c2 B4EEE77A 		vcmpe.f32	s14, s15
 1144 01c6 F1EE10FA 		vmrs	APSR_nzcv, FPSCR
 1145 01ca F1D4     		bmi	.L74
 443:Core/Src/Main/Action.c **** 		while(TargetAngle < Angle)
 1146              		.loc 1 443 3 is_stmt 1 view .LVU361
 443:Core/Src/Main/Action.c **** 		while(TargetAngle < Angle)
 1147              		.loc 1 443 15 is_stmt 0 view .LVU362
 1148 01cc 214B     		ldr	r3, .L89+36
 1149 01ce D3ED007A 		vldr.32	s15, [r3]
 1150 01d2 77EEE66A 		vsub.f32	s13, s15, s13
 1151 01d6 C3ED006A 		vstr.32	s13, [r3]
 444:Core/Src/Main/Action.c **** 		{
 1152              		.loc 1 444 3 is_stmt 1 view .LVU363
 1153              	.L75:
 444:Core/Src/Main/Action.c **** 		{
 1154              		.loc 1 444 8 view .LVU364
 444:Core/Src/Main/Action.c **** 		{
 1155              		.loc 1 444 21 is_stmt 0 view .LVU365
 1156 01da 1E4B     		ldr	r3, .L89+36
 1157 01dc 93ED007A 		vldr.32	s14, [r3]
 1158 01e0 1E4B     		ldr	r3, .L89+44
 1159 01e2 D3ED007A 		vldr.32	s15, [r3]
 444:Core/Src/Main/Action.c **** 		{
 1160              		.loc 1 444 8 view .LVU366
 1161 01e6 B4EEE77A 		vcmpe.f32	s14, s15
 1162 01ea F1EE10FA 		vmrs	APSR_nzcv, FPSCR
 1163 01ee 90D5     		bpl	.L68
 446:Core/Src/Main/Action.c **** 			 if( AngularV >= 0)
 1164              		.loc 1 446 5 is_stmt 1 view .LVU367
 446:Core/Src/Main/Action.c **** 			 if( AngularV >= 0)
 1165              		.loc 1 446 25 is_stmt 0 view .LVU368
 1166 01f0 194B     		ldr	r3, .L89+40
 1167 01f2 83ED008A 		vstr.32	s16, [r3]
 447:Core/Src/Main/Action.c **** 			 {
 1168              		.loc 1 447 5 is_stmt 1 view .LVU369
 447:Core/Src/Main/Action.c **** 			 {
 1169              		.loc 1 447 18 is_stmt 0 view .LVU370
 1170 01f6 1A4B     		ldr	r3, .L89+48
 1171 01f8 D3ED007A 		vldr.32	s15, [r3]
 447:Core/Src/Main/Action.c **** 			 {
 1172              		.loc 1 447 7 view .LVU371
 1173 01fc F5EEC07A 		vcmpe.f32	s15, #0
 1174 0200 F1EE10FA 		vmrs	APSR_nzcv, FPSCR
 1175 0204 E9DB     		blt	.L75
 1176 0206 84E7     		b	.L68
 1177              	.LVL95:
 1178              	.L88:
ARM GAS  C:\Users\leopi\AppData\Local\Temp\ccntyKxi.s 			page 33


 459:Core/Src/Main/Action.c **** 		KeepPulse[RIGHT] += target_pulse/2;
 1179              		.loc 1 459 3 is_stmt 1 view .LVU372
 459:Core/Src/Main/Action.c **** 		KeepPulse[RIGHT] += target_pulse/2;
 1180              		.loc 1 459 19 is_stmt 0 view .LVU373
 1181 0208 174B     		ldr	r3, .L89+56
 1182 020a 1A68     		ldr	r2, [r3]
 459:Core/Src/Main/Action.c **** 		KeepPulse[RIGHT] += target_pulse/2;
 1183              		.loc 1 459 34 view .LVU374
 1184 020c 00EBD070 		add	r0, r0, r0, lsr #31
 1185              	.LVL96:
 459:Core/Src/Main/Action.c **** 		KeepPulse[RIGHT] += target_pulse/2;
 1186              		.loc 1 459 19 view .LVU375
 1187 0210 A2EB6002 		sub	r2, r2, r0, asr #1
 1188 0214 1A60     		str	r2, [r3]
 460:Core/Src/Main/Action.c **** 	}
 1189              		.loc 1 460 3 is_stmt 1 view .LVU376
 460:Core/Src/Main/Action.c **** 	}
 1190              		.loc 1 460 20 is_stmt 0 view .LVU377
 1191 0216 5A68     		ldr	r2, [r3, #4]
 1192 0218 02EB6000 		add	r0, r2, r0, asr #1
 1193 021c 5860     		str	r0, [r3, #4]
 1194              	.L79:
 466:Core/Src/Main/Action.c **** 	}
 467:Core/Src/Main/Action.c **** 	KeepPulse[BODY] = KeepPulse[BODY];
 1195              		.loc 1 467 2 is_stmt 1 view .LVU378
 1196              		.loc 1 467 29 is_stmt 0 view .LVU379
 1197 021e 124B     		ldr	r3, .L89+56
 1198 0220 9A68     		ldr	r2, [r3, #8]
 1199              		.loc 1 467 18 view .LVU380
 1200 0222 9A60     		str	r2, [r3, #8]
 468:Core/Src/Main/Action.c **** 
 469:Core/Src/Main/Action.c **** }
 1201              		.loc 1 469 1 view .LVU381
 1202 0224 07B0     		add	sp, sp, #28
 1203              	.LCFI8:
 1204              		.cfi_def_cfa_offset 20
 1205              		@ sp needed
 1206 0226 BDEC048B 		vldm	sp!, {d8-d9}
 1207              	.LCFI9:
 1208              		.cfi_restore 82
 1209              		.cfi_restore 83
 1210              		.cfi_restore 80
 1211              		.cfi_restore 81
 1212              		.cfi_def_cfa_offset 4
 1213              	.LVL97:
 1214              		.loc 1 469 1 view .LVU382
 1215 022a 5DF804FB 		ldr	pc, [sp], #4
 1216              	.L90:
 1217 022e 00BF     		.align	3
 1218              	.L89:
 1219 0230 182D4454 		.word	1413754136
 1220 0234 FB210940 		.word	1074340347
 1221 0238 496632CB 		.word	-885889463
 1222 023c D615FA40 		.word	1090131414
 1223 0240 00000000 		.word	TargetAngularV
 1224 0244 00000000 		.word	Pid
 1225 0248 0000B442 		.word	1119092736
ARM GAS  C:\Users\leopi\AppData\Local\Temp\ccntyKxi.s 			page 34


 1226 024c 6F12833D 		.word	1032000111
 1227 0250 00806640 		.word	1080459264
 1228 0254 00000000 		.word	TargetAngle
 1229 0258 00000000 		.word	AngularAcceleration
 1230 025c 00000000 		.word	Angle
 1231 0260 00000000 		.word	AngularV
 1232 0264 0000B443 		.word	1135869952
 1233 0268 00000000 		.word	KeepPulse
 1234              		.cfi_endproc
 1235              	.LFE242:
 1237              		.section	.text.getFrontWall,"ax",%progbits
 1238              		.align	1
 1239              		.global	getFrontWall
 1240              		.syntax unified
 1241              		.thumb
 1242              		.thumb_func
 1244              	getFrontWall:
 1245              	.LVL98:
 1246              	.LFB243:
 470:Core/Src/Main/Action.c **** 
 471:Core/Src/Main/Action.c **** 
 472:Core/Src/Main/Action.c **** int getFrontWall(profile *mouse)
 473:Core/Src/Main/Action.c **** {
 1247              		.loc 1 473 1 is_stmt 1 view -0
 1248              		.cfi_startproc
 1249              		@ args = 0, pretend = 0, frame = 0
 1250              		@ frame_needed = 0, uses_anonymous_args = 0
 1251              		@ link register save eliminated.
 474:Core/Src/Main/Action.c **** 
 475:Core/Src/Main/Action.c **** 	switch(mouse->now.car%8)
 1252              		.loc 1 475 2 view .LVU384
 1253              		.loc 1 475 19 is_stmt 0 view .LVU385
 1254 0000 8379     		ldrb	r3, [r0, #6]	@ zero_extendqisi2
 1255              		.loc 1 475 2 view .LVU386
 1256 0002 03F00703 		and	r3, r3, #7
 1257 0006 062B     		cmp	r3, #6
 1258 0008 14D8     		bhi	.L98
 1259 000a DFE803F0 		tbb	[pc, r3]
 1260              	.L94:
 1261 000e 04       		.byte	(.L97-.L94)/2
 1262 000f 13       		.byte	(.L98-.L94)/2
 1263 0010 08       		.byte	(.L96-.L94)/2
 1264 0011 13       		.byte	(.L98-.L94)/2
 1265 0012 0C       		.byte	(.L95-.L94)/2
 1266 0013 13       		.byte	(.L98-.L94)/2
 1267 0014 10       		.byte	(.L93-.L94)/2
 1268 0015 00       		.p2align 1
 1269              	.L97:
 476:Core/Src/Main/Action.c **** 	{
 477:Core/Src/Main/Action.c **** 
 478:Core/Src/Main/Action.c **** 	case north:
 479:Core/Src/Main/Action.c **** 
 480:Core/Src/Main/Action.c **** 	return mouse->now.wall.north;
 1270              		.loc 1 480 2 is_stmt 1 view .LVU387
 1271              		.loc 1 480 24 is_stmt 0 view .LVU388
 1272 0016 007A     		ldrb	r0, [r0, #8]	@ zero_extendqisi2
 1273              	.LVL99:
ARM GAS  C:\Users\leopi\AppData\Local\Temp\ccntyKxi.s 			page 35


 1274              		.loc 1 480 24 view .LVU389
 1275 0018 00F00300 		and	r0, r0, #3
 1276 001c 7047     		bx	lr
 1277              	.LVL100:
 1278              	.L96:
 481:Core/Src/Main/Action.c **** 
 482:Core/Src/Main/Action.c **** 	break;
 1279              		.loc 1 482 2 is_stmt 1 view .LVU390
 483:Core/Src/Main/Action.c **** 
 484:Core/Src/Main/Action.c **** 	case east:
 485:Core/Src/Main/Action.c **** 
 486:Core/Src/Main/Action.c **** 	return mouse->now.wall.east;
 1280              		.loc 1 486 2 view .LVU391
 1281              		.loc 1 486 24 is_stmt 0 view .LVU392
 1282 001e 007A     		ldrb	r0, [r0, #8]	@ zero_extendqisi2
 1283              	.LVL101:
 1284              		.loc 1 486 24 view .LVU393
 1285 0020 C0F38100 		ubfx	r0, r0, #2, #2
 1286 0024 7047     		bx	lr
 1287              	.LVL102:
 1288              	.L95:
 487:Core/Src/Main/Action.c **** 
 488:Core/Src/Main/Action.c **** 	break;
 1289              		.loc 1 488 2 is_stmt 1 view .LVU394
 489:Core/Src/Main/Action.c **** 
 490:Core/Src/Main/Action.c **** 	case south:
 491:Core/Src/Main/Action.c **** 
 492:Core/Src/Main/Action.c **** 	return mouse->now.wall.south;
 1290              		.loc 1 492 2 view .LVU395
 1291              		.loc 1 492 24 is_stmt 0 view .LVU396
 1292 0026 007A     		ldrb	r0, [r0, #8]	@ zero_extendqisi2
 1293              	.LVL103:
 1294              		.loc 1 492 24 view .LVU397
 1295 0028 C0F30110 		ubfx	r0, r0, #4, #2
 1296 002c 7047     		bx	lr
 1297              	.LVL104:
 1298              	.L93:
 493:Core/Src/Main/Action.c **** 
 494:Core/Src/Main/Action.c **** 	break;
 1299              		.loc 1 494 2 is_stmt 1 view .LVU398
 495:Core/Src/Main/Action.c **** 
 496:Core/Src/Main/Action.c **** 	case west:
 497:Core/Src/Main/Action.c **** 
 498:Core/Src/Main/Action.c **** 	return mouse->now.wall.west;
 1300              		.loc 1 498 2 view .LVU399
 1301              		.loc 1 498 24 is_stmt 0 view .LVU400
 1302 002e 007A     		ldrb	r0, [r0, #8]	@ zero_extendqisi2
 1303              	.LVL105:
 1304              		.loc 1 498 24 view .LVU401
 1305 0030 8009     		lsrs	r0, r0, #6
 1306 0032 7047     		bx	lr
 1307              	.LVL106:
 1308              	.L98:
 475:Core/Src/Main/Action.c **** 	{
 1309              		.loc 1 475 2 view .LVU402
 1310 0034 40F2E730 		movw	r0, #999
 1311              	.LVL107:
ARM GAS  C:\Users\leopi\AppData\Local\Temp\ccntyKxi.s 			page 36


 499:Core/Src/Main/Action.c **** 
 500:Core/Src/Main/Action.c **** 	break;
 501:Core/Src/Main/Action.c **** 
 502:Core/Src/Main/Action.c **** 	default:
 503:Core/Src/Main/Action.c **** 		return 999;
 504:Core/Src/Main/Action.c **** 	break;
 1312              		.loc 1 504 2 is_stmt 1 view .LVU403
 505:Core/Src/Main/Action.c **** 
 506:Core/Src/Main/Action.c **** 	}
 507:Core/Src/Main/Action.c **** 
 508:Core/Src/Main/Action.c **** }
 1313              		.loc 1 508 1 is_stmt 0 view .LVU404
 1314 0038 7047     		bx	lr
 1315              		.cfi_endproc
 1316              	.LFE243:
 1318              		.global	__aeabi_dadd
 1319              		.section	.text.SlalomRight,"ax",%progbits
 1320              		.align	1
 1321              		.global	SlalomRight
 1322              		.syntax unified
 1323              		.thumb
 1324              		.thumb_func
 1326              	SlalomRight:
 1327              	.LVL108:
 1328              	.LFB244:
 509:Core/Src/Main/Action.c **** 
 510:Core/Src/Main/Action.c **** void SlalomRight(maze_node *maze, profile *mouse)	//ç¾åœ¨ã®é€Ÿåº¦ã‹ã‚‰ã€æœ€é©ãªè§’åŠ é€Ÿåº¦ã
 511:Core/Src/Main/Action.c **** {
 1329              		.loc 1 511 1 is_stmt 1 view -0
 1330              		.cfi_startproc
 1331              		@ args = 0, pretend = 0, frame = 0
 1332              		@ frame_needed = 0, uses_anonymous_args = 0
 1333              		.loc 1 511 1 is_stmt 0 view .LVU406
 1334 0000 38B5     		push	{r3, r4, r5, lr}
 1335              	.LCFI10:
 1336              		.cfi_def_cfa_offset 16
 1337              		.cfi_offset 3, -16
 1338              		.cfi_offset 4, -12
 1339              		.cfi_offset 5, -8
 1340              		.cfi_offset 14, -4
 1341 0002 2DED028B 		vpush.64	{d8}
 1342              	.LCFI11:
 1343              		.cfi_def_cfa_offset 24
 1344              		.cfi_offset 80, -24
 1345              		.cfi_offset 81, -20
 1346 0006 0546     		mov	r5, r0
 1347 0008 0C46     		mov	r4, r1
 512:Core/Src/Main/Action.c **** 	Pid[A_VELO_PID].flag = 1;
 1348              		.loc 1 512 2 is_stmt 1 view .LVU407
 1349              		.loc 1 512 23 is_stmt 0 view .LVU408
 1350 000a 7B4B     		ldr	r3, .L122+8
 1351 000c 0122     		movs	r2, #1
 1352 000e 9A62     		str	r2, [r3, #40]
 513:Core/Src/Main/Action.c **** 	int now_pulse;
 1353              		.loc 1 513 2 is_stmt 1 view .LVU409
 514:Core/Src/Main/Action.c **** 
 515:Core/Src/Main/Action.c **** 	now_pulse = TotalPulse[LEFT] + TotalPulse[RIGHT];
ARM GAS  C:\Users\leopi\AppData\Local\Temp\ccntyKxi.s 			page 37


 1354              		.loc 1 515 2 view .LVU410
 1355              		.loc 1 515 24 is_stmt 0 view .LVU411
 1356 0010 7A4A     		ldr	r2, .L122+12
 1357 0012 1368     		ldr	r3, [r2]
 1358              		.loc 1 515 43 view .LVU412
 1359 0014 5268     		ldr	r2, [r2, #4]
 1360              		.loc 1 515 12 view .LVU413
 1361 0016 1344     		add	r3, r3, r2
 1362 0018 08EE103A 		vmov	s16, r3	@ int
 1363              	.LVL109:
 516:Core/Src/Main/Action.c **** 	if (getFrontWall(mouse) == WALL /*å‰ã«å£ãŒã‚ã‚Œã°ã€*/) 
 1364              		.loc 1 516 2 is_stmt 1 view .LVU414
 1365              		.loc 1 516 6 is_stmt 0 view .LVU415
 1366 001c 0846     		mov	r0, r1
 1367              	.LVL110:
 1368              		.loc 1 516 6 view .LVU416
 1369 001e FFF7FEFF 		bl	getFrontWall
 1370              	.LVL111:
 1371              		.loc 1 516 5 view .LVU417
 1372 0022 0128     		cmp	r0, #1
 1373 0024 2AD1     		bne	.L101
 1374 0026 0AE0     		b	.L100
 1375              	.L102:
 517:Core/Src/Main/Action.c **** 	{
 518:Core/Src/Main/Action.c **** 		while(Photo[FL] < SLA_CALIB_FL || Photo[FR] < SLA_CALIB_FR)//Photo[FL] < 200 || Photo[FR] < 250/*
 519:Core/Src/Main/Action.c **** 		{
 520:Core/Src/Main/Action.c **** 			TargetAngularV = 0;
 1376              		.loc 1 520 4 is_stmt 1 view .LVU418
 1377              		.loc 1 520 19 is_stmt 0 view .LVU419
 1378 0028 0023     		movs	r3, #0
 1379 002a 754A     		ldr	r2, .L122+16
 1380 002c 1360     		str	r3, [r2]	@ float
 521:Core/Src/Main/Action.c **** 			AngularLeapsity = 0;
 1381              		.loc 1 521 4 is_stmt 1 view .LVU420
 1382              		.loc 1 521 20 is_stmt 0 view .LVU421
 1383 002e 754A     		ldr	r2, .L122+20
 1384 0030 1360     		str	r3, [r2]	@ float
 522:Core/Src/Main/Action.c **** 			AngularAcceleration = 0;
 1385              		.loc 1 522 4 is_stmt 1 view .LVU422
 1386              		.loc 1 522 24 is_stmt 0 view .LVU423
 1387 0032 754A     		ldr	r2, .L122+24
 1388 0034 1360     		str	r3, [r2]	@ float
 523:Core/Src/Main/Action.c **** 			TargetVelocity[BODY] = ExploreVelocity;
 1389              		.loc 1 523 4 is_stmt 1 view .LVU424
 1390              		.loc 1 523 25 is_stmt 0 view .LVU425
 1391 0036 754B     		ldr	r3, .L122+28
 1392 0038 1A68     		ldr	r2, [r3]	@ float
 1393 003a 754B     		ldr	r3, .L122+32
 1394 003c 9A60     		str	r2, [r3, #8]	@ float
 1395              	.L100:
 518:Core/Src/Main/Action.c **** 		{
 1396              		.loc 1 518 8 is_stmt 1 view .LVU426
 518:Core/Src/Main/Action.c **** 		{
 1397              		.loc 1 518 14 is_stmt 0 view .LVU427
 1398 003e 754B     		ldr	r3, .L122+36
 1399 0040 93ED007A 		vldr.32	s14, [r3]
 518:Core/Src/Main/Action.c **** 		{
ARM GAS  C:\Users\leopi\AppData\Local\Temp\ccntyKxi.s 			page 38


 1400              		.loc 1 518 8 view .LVU428
 1401 0044 DFED747A 		vldr.32	s15, .L122+40
 1402 0048 B4EEE77A 		vcmpe.f32	s14, s15
 1403 004c F1EE10FA 		vmrs	APSR_nzcv, FPSCR
 1404 0050 EAD4     		bmi	.L102
 518:Core/Src/Main/Action.c **** 		{
 1405              		.loc 1 518 42 discriminator 1 view .LVU429
 1406 0052 93ED037A 		vldr.32	s14, [r3, #12]
 518:Core/Src/Main/Action.c **** 		{
 1407              		.loc 1 518 34 discriminator 1 view .LVU430
 1408 0056 DFED717A 		vldr.32	s15, .L122+44
 1409 005a B4EEE77A 		vcmpe.f32	s14, s15
 1410 005e F1EE10FA 		vmrs	APSR_nzcv, FPSCR
 1411 0062 E1D4     		bmi	.L102
 1412 0064 1EE0     		b	.L103
 1413              	.L104:
 524:Core/Src/Main/Action.c **** 		}
 525:Core/Src/Main/Action.c **** 
 526:Core/Src/Main/Action.c **** 	}
 527:Core/Src/Main/Action.c **** 	else//ãªã‘ã‚Œã°
 528:Core/Src/Main/Action.c **** 	{
 529:Core/Src/Main/Action.c **** 		while( now_pulse + Sla.Pre > (TotalPulse[LEFT] + TotalPulse[RIGHT]) ) //ç§»å‹•é‡ã‚’æ¡ä»¶ã«ç›´é
 530:Core/Src/Main/Action.c **** 		{
 531:Core/Src/Main/Action.c **** 				TargetAngularV = 0;
 1414              		.loc 1 531 5 is_stmt 1 view .LVU431
 1415              		.loc 1 531 20 is_stmt 0 view .LVU432
 1416 0066 0023     		movs	r3, #0
 1417 0068 654A     		ldr	r2, .L122+16
 1418 006a 1360     		str	r3, [r2]	@ float
 532:Core/Src/Main/Action.c **** 				AngularLeapsity = 0;
 1419              		.loc 1 532 5 is_stmt 1 view .LVU433
 1420              		.loc 1 532 21 is_stmt 0 view .LVU434
 1421 006c 654A     		ldr	r2, .L122+20
 1422 006e 1360     		str	r3, [r2]	@ float
 533:Core/Src/Main/Action.c **** 				AngularAcceleration = 0;
 1423              		.loc 1 533 5 is_stmt 1 view .LVU435
 1424              		.loc 1 533 25 is_stmt 0 view .LVU436
 1425 0070 654A     		ldr	r2, .L122+24
 1426 0072 1360     		str	r3, [r2]	@ float
 534:Core/Src/Main/Action.c **** 				TargetVelocity[BODY] = ExploreVelocity;
 1427              		.loc 1 534 5 is_stmt 1 view .LVU437
 1428              		.loc 1 534 26 is_stmt 0 view .LVU438
 1429 0074 654B     		ldr	r3, .L122+28
 1430 0076 1A68     		ldr	r2, [r3]	@ float
 1431 0078 654B     		ldr	r3, .L122+32
 1432 007a 9A60     		str	r2, [r3, #8]	@ float
 1433              	.L101:
 529:Core/Src/Main/Action.c **** 		{
 1434              		.loc 1 529 8 is_stmt 1 view .LVU439
 529:Core/Src/Main/Action.c **** 		{
 1435              		.loc 1 529 25 is_stmt 0 view .LVU440
 1436 007c 684B     		ldr	r3, .L122+48
 1437 007e D3ED007A 		vldr.32	s15, [r3]
 529:Core/Src/Main/Action.c **** 		{
 1438              		.loc 1 529 20 view .LVU441
 1439 0082 B8EEC87A 		vcvt.f32.s32	s14, s16
 1440 0086 37EE277A 		vadd.f32	s14, s14, s15
ARM GAS  C:\Users\leopi\AppData\Local\Temp\ccntyKxi.s 			page 39


 529:Core/Src/Main/Action.c **** 		{
 1441              		.loc 1 529 43 view .LVU442
 1442 008a 5C4A     		ldr	r2, .L122+12
 1443 008c 1368     		ldr	r3, [r2]
 529:Core/Src/Main/Action.c **** 		{
 1444              		.loc 1 529 62 view .LVU443
 1445 008e 5268     		ldr	r2, [r2, #4]
 529:Core/Src/Main/Action.c **** 		{
 1446              		.loc 1 529 50 view .LVU444
 1447 0090 1344     		add	r3, r3, r2
 529:Core/Src/Main/Action.c **** 		{
 1448              		.loc 1 529 30 view .LVU445
 1449 0092 07EE903A 		vmov	s15, r3	@ int
 1450 0096 F8EEE77A 		vcvt.f32.s32	s15, s15
 529:Core/Src/Main/Action.c **** 		{
 1451              		.loc 1 529 8 view .LVU446
 1452 009a B4EEE77A 		vcmpe.f32	s14, s15
 1453 009e F1EE10FA 		vmrs	APSR_nzcv, FPSCR
 1454 00a2 E0DC     		bgt	.L104
 1455              	.L103:
 535:Core/Src/Main/Action.c **** 		}
 536:Core/Src/Main/Action.c **** 	}
 537:Core/Src/Main/Action.c **** 	float start_angle = Angle;
 1456              		.loc 1 537 2 is_stmt 1 view .LVU447
 1457              		.loc 1 537 8 is_stmt 0 view .LVU448
 1458 00a4 5F4B     		ldr	r3, .L122+52
 1459 00a6 93ED007A 		vldr.32	s14, [r3]
 1460              	.LVL112:
 538:Core/Src/Main/Action.c **** 	Pid[A_VELO_PID].flag = 0;
 1461              		.loc 1 538 2 is_stmt 1 view .LVU449
 1462              		.loc 1 538 23 is_stmt 0 view .LVU450
 1463 00aa 534B     		ldr	r3, .L122+8
 1464 00ac 0022     		movs	r2, #0
 1465 00ae 9A62     		str	r2, [r3, #40]
 539:Core/Src/Main/Action.c **** 	while(start_angle + Sla.Theta1 > Angle)
 1466              		.loc 1 539 2 is_stmt 1 view .LVU451
 1467              		.loc 1 539 7 is_stmt 0 view .LVU452
 1468 00b0 07E0     		b	.L105
 1469              	.L106:
 540:Core/Src/Main/Action.c **** 	{
 541:Core/Src/Main/Action.c **** 			AngularAcceleration = Sla.Alpha;
 1470              		.loc 1 541 4 is_stmt 1 view .LVU453
 1471              		.loc 1 541 29 is_stmt 0 view .LVU454
 1472 00b2 5B4B     		ldr	r3, .L122+48
 1473 00b4 9A68     		ldr	r2, [r3, #8]	@ float
 1474              		.loc 1 541 24 view .LVU455
 1475 00b6 544B     		ldr	r3, .L122+24
 1476 00b8 1A60     		str	r2, [r3]	@ float
 542:Core/Src/Main/Action.c **** 			TargetVelocity[BODY] = ExploreVelocity;
 1477              		.loc 1 542 4 is_stmt 1 view .LVU456
 1478              		.loc 1 542 25 is_stmt 0 view .LVU457
 1479 00ba 544B     		ldr	r3, .L122+28
 1480 00bc 1A68     		ldr	r2, [r3]	@ float
 1481 00be 544B     		ldr	r3, .L122+32
 1482 00c0 9A60     		str	r2, [r3, #8]	@ float
 1483              	.L105:
 539:Core/Src/Main/Action.c **** 	while(start_angle + Sla.Theta1 > Angle)
ARM GAS  C:\Users\leopi\AppData\Local\Temp\ccntyKxi.s 			page 40


 1484              		.loc 1 539 7 is_stmt 1 view .LVU458
 539:Core/Src/Main/Action.c **** 	while(start_angle + Sla.Theta1 > Angle)
 1485              		.loc 1 539 25 is_stmt 0 view .LVU459
 1486 00c2 574B     		ldr	r3, .L122+48
 1487 00c4 D3ED047A 		vldr.32	s15, [r3, #16]
 539:Core/Src/Main/Action.c **** 	while(start_angle + Sla.Theta1 > Angle)
 1488              		.loc 1 539 20 view .LVU460
 1489 00c8 77EE877A 		vadd.f32	s15, s15, s14
 539:Core/Src/Main/Action.c **** 	while(start_angle + Sla.Theta1 > Angle)
 1490              		.loc 1 539 33 view .LVU461
 1491 00cc 554B     		ldr	r3, .L122+52
 1492 00ce D3ED006A 		vldr.32	s13, [r3]
 539:Core/Src/Main/Action.c **** 	while(start_angle + Sla.Theta1 > Angle)
 1493              		.loc 1 539 7 view .LVU462
 1494 00d2 F4EEE67A 		vcmpe.f32	s15, s13
 1495 00d6 F1EE10FA 		vmrs	APSR_nzcv, FPSCR
 1496 00da EADC     		bgt	.L106
 543:Core/Src/Main/Action.c **** 
 544:Core/Src/Main/Action.c **** 	}
 545:Core/Src/Main/Action.c **** 	AngularAcceleration = 0;
 1497              		.loc 1 545 2 is_stmt 1 view .LVU463
 1498              		.loc 1 545 22 is_stmt 0 view .LVU464
 1499 00dc 0023     		movs	r3, #0
 1500 00de 4A4A     		ldr	r2, .L122+24
 1501 00e0 1360     		str	r3, [r2]	@ float
 546:Core/Src/Main/Action.c **** 	AngularLeapsity = 0;
 1502              		.loc 1 546 2 is_stmt 1 view .LVU465
 1503              		.loc 1 546 18 is_stmt 0 view .LVU466
 1504 00e2 484A     		ldr	r2, .L122+20
 1505 00e4 1360     		str	r3, [r2]	@ float
 547:Core/Src/Main/Action.c **** 
 548:Core/Src/Main/Action.c **** 	while(start_angle + Sla.Theta2 > Angle)
 1506              		.loc 1 548 2 is_stmt 1 view .LVU467
 1507              		.loc 1 548 7 is_stmt 0 view .LVU468
 1508 00e6 06E0     		b	.L107
 1509              	.L108:
 549:Core/Src/Main/Action.c **** 	{
 550:Core/Src/Main/Action.c **** 			TargetAngularV = TargetAngularV;
 1510              		.loc 1 550 4 is_stmt 1 view .LVU469
 1511              		.loc 1 550 19 is_stmt 0 view .LVU470
 1512 00e8 454B     		ldr	r3, .L122+16
 1513 00ea 1A68     		ldr	r2, [r3]	@ float
 1514 00ec 1A60     		str	r2, [r3]	@ float
 551:Core/Src/Main/Action.c **** 			TargetVelocity[BODY] = ExploreVelocity;
 1515              		.loc 1 551 4 is_stmt 1 view .LVU471
 1516              		.loc 1 551 25 is_stmt 0 view .LVU472
 1517 00ee 474B     		ldr	r3, .L122+28
 1518 00f0 1A68     		ldr	r2, [r3]	@ float
 1519 00f2 474B     		ldr	r3, .L122+32
 1520 00f4 9A60     		str	r2, [r3, #8]	@ float
 1521              	.L107:
 548:Core/Src/Main/Action.c **** 	{
 1522              		.loc 1 548 7 is_stmt 1 view .LVU473
 548:Core/Src/Main/Action.c **** 	{
 1523              		.loc 1 548 25 is_stmt 0 view .LVU474
 1524 00f6 4A4B     		ldr	r3, .L122+48
 1525 00f8 D3ED057A 		vldr.32	s15, [r3, #20]
ARM GAS  C:\Users\leopi\AppData\Local\Temp\ccntyKxi.s 			page 41


 548:Core/Src/Main/Action.c **** 	{
 1526              		.loc 1 548 20 view .LVU475
 1527 00fc 77EE877A 		vadd.f32	s15, s15, s14
 548:Core/Src/Main/Action.c **** 	{
 1528              		.loc 1 548 33 view .LVU476
 1529 0100 484B     		ldr	r3, .L122+52
 1530 0102 D3ED006A 		vldr.32	s13, [r3]
 548:Core/Src/Main/Action.c **** 	{
 1531              		.loc 1 548 7 view .LVU477
 1532 0106 F4EEE67A 		vcmpe.f32	s15, s13
 1533 010a F1EE10FA 		vmrs	APSR_nzcv, FPSCR
 1534 010e EBDC     		bgt	.L108
 1535              	.L109:
 552:Core/Src/Main/Action.c **** 	}
 553:Core/Src/Main/Action.c **** 
 554:Core/Src/Main/Action.c **** 	while( start_angle + Sla.Theta3 > Angle)
 1536              		.loc 1 554 7 is_stmt 1 view .LVU478
 1537              		.loc 1 554 26 is_stmt 0 view .LVU479
 1538 0110 434B     		ldr	r3, .L122+48
 1539 0112 D3ED067A 		vldr.32	s15, [r3, #24]
 1540              		.loc 1 554 21 view .LVU480
 1541 0116 77EE877A 		vadd.f32	s15, s15, s14
 1542              		.loc 1 554 34 view .LVU481
 1543 011a 424B     		ldr	r3, .L122+52
 1544 011c D3ED006A 		vldr.32	s13, [r3]
 1545              		.loc 1 554 7 view .LVU482
 1546 0120 F4EEE67A 		vcmpe.f32	s15, s13
 1547 0124 F1EE10FA 		vmrs	APSR_nzcv, FPSCR
 1548 0128 16DD     		ble	.L112
 555:Core/Src/Main/Action.c **** 	{
 556:Core/Src/Main/Action.c **** 			AngularAcceleration = -Sla.Alpha;
 1549              		.loc 1 556 4 is_stmt 1 view .LVU483
 1550              		.loc 1 556 30 is_stmt 0 view .LVU484
 1551 012a 3D4B     		ldr	r3, .L122+48
 1552 012c D3ED027A 		vldr.32	s15, [r3, #8]
 1553              		.loc 1 556 26 view .LVU485
 1554 0130 F1EE677A 		vneg.f32	s15, s15
 1555              		.loc 1 556 24 view .LVU486
 1556 0134 344B     		ldr	r3, .L122+24
 1557 0136 C3ED007A 		vstr.32	s15, [r3]
 557:Core/Src/Main/Action.c **** 			if(TargetAngularV < 0)
 1558              		.loc 1 557 4 is_stmt 1 view .LVU487
 1559              		.loc 1 557 22 is_stmt 0 view .LVU488
 1560 013a 314B     		ldr	r3, .L122+16
 1561 013c D3ED007A 		vldr.32	s15, [r3]
 1562              		.loc 1 557 6 view .LVU489
 1563 0140 F5EEC07A 		vcmpe.f32	s15, #0
 1564 0144 F1EE10FA 		vmrs	APSR_nzcv, FPSCR
 1565 0148 04D4     		bmi	.L120
 558:Core/Src/Main/Action.c **** 			{
 559:Core/Src/Main/Action.c **** 				TargetAngularV = 0;
 560:Core/Src/Main/Action.c **** 				break;
 561:Core/Src/Main/Action.c **** 			}
 562:Core/Src/Main/Action.c **** 			TargetVelocity[BODY] = ExploreVelocity;
 1566              		.loc 1 562 4 is_stmt 1 view .LVU490
 1567              		.loc 1 562 25 is_stmt 0 view .LVU491
 1568 014a 304B     		ldr	r3, .L122+28
ARM GAS  C:\Users\leopi\AppData\Local\Temp\ccntyKxi.s 			page 42


 1569 014c 1A68     		ldr	r2, [r3]	@ float
 1570 014e 304B     		ldr	r3, .L122+32
 1571 0150 9A60     		str	r2, [r3, #8]	@ float
 1572 0152 DDE7     		b	.L109
 1573              	.L120:
 559:Core/Src/Main/Action.c **** 				break;
 1574              		.loc 1 559 5 is_stmt 1 view .LVU492
 559:Core/Src/Main/Action.c **** 				break;
 1575              		.loc 1 559 20 is_stmt 0 view .LVU493
 1576 0154 0022     		movs	r2, #0
 1577 0156 1A60     		str	r2, [r3]	@ float
 560:Core/Src/Main/Action.c **** 			}
 1578              		.loc 1 560 5 is_stmt 1 view .LVU494
 1579              	.L112:
 563:Core/Src/Main/Action.c **** 	}
 564:Core/Src/Main/Action.c **** 	AngularAcceleration = 0;
 1580              		.loc 1 564 2 view .LVU495
 1581              		.loc 1 564 22 is_stmt 0 view .LVU496
 1582 0158 0023     		movs	r3, #0
 1583 015a 2B4A     		ldr	r2, .L122+24
 1584 015c 1360     		str	r3, [r2]	@ float
 565:Core/Src/Main/Action.c **** 	AngularLeapsity = 0;
 1585              		.loc 1 565 2 is_stmt 1 view .LVU497
 566:Core/Src/Main/Action.c **** 	TargetAngularV = 0;
 1586              		.loc 1 566 2 view .LVU498
 1587              		.loc 1 566 17 is_stmt 0 view .LVU499
 1588 015e 284A     		ldr	r2, .L122+16
 1589 0160 1360     		str	r3, [r2]	@ float
 567:Core/Src/Main/Action.c **** 	now_pulse = TotalPulse[LEFT] + TotalPulse[RIGHT];
 1590              		.loc 1 567 2 is_stmt 1 view .LVU500
 1591              		.loc 1 567 24 is_stmt 0 view .LVU501
 1592 0162 264A     		ldr	r2, .L122+12
 1593 0164 1368     		ldr	r3, [r2]
 1594              		.loc 1 567 43 view .LVU502
 1595 0166 5268     		ldr	r2, [r2, #4]
 1596              		.loc 1 567 12 view .LVU503
 1597 0168 1344     		add	r3, r3, r2
 1598 016a 08EE103A 		vmov	s16, r3	@ int
 1599              	.LVL113:
 568:Core/Src/Main/Action.c **** 	while( now_pulse + Sla.Fol > (TotalPulse[LEFT] + TotalPulse[RIGHT]) )
 1600              		.loc 1 568 2 is_stmt 1 view .LVU504
 1601              	.L115:
 1602              		.loc 1 568 7 view .LVU505
 1603              		.loc 1 568 24 is_stmt 0 view .LVU506
 1604 016e 2C4B     		ldr	r3, .L122+48
 1605 0170 D3ED017A 		vldr.32	s15, [r3, #4]
 1606              		.loc 1 568 19 view .LVU507
 1607 0174 B8EEC87A 		vcvt.f32.s32	s14, s16
 1608 0178 37EE277A 		vadd.f32	s14, s14, s15
 1609              		.loc 1 568 42 view .LVU508
 1610 017c 1F4A     		ldr	r2, .L122+12
 1611 017e 1368     		ldr	r3, [r2]
 1612              		.loc 1 568 61 view .LVU509
 1613 0180 5268     		ldr	r2, [r2, #4]
 1614              		.loc 1 568 49 view .LVU510
 1615 0182 1344     		add	r3, r3, r2
 1616              		.loc 1 568 29 view .LVU511
ARM GAS  C:\Users\leopi\AppData\Local\Temp\ccntyKxi.s 			page 43


 1617 0184 07EE903A 		vmov	s15, r3	@ int
 1618 0188 F8EEE77A 		vcvt.f32.s32	s15, s15
 1619              		.loc 1 568 7 view .LVU512
 1620 018c B4EEE77A 		vcmpe.f32	s14, s15
 1621 0190 F1EE10FA 		vmrs	APSR_nzcv, FPSCR
 1622 0194 13DD     		ble	.L121
 569:Core/Src/Main/Action.c **** 	{
 570:Core/Src/Main/Action.c **** 			TargetAngularV = 0;
 1623              		.loc 1 570 4 is_stmt 1 view .LVU513
 1624              		.loc 1 570 19 is_stmt 0 view .LVU514
 1625 0196 1A4B     		ldr	r3, .L122+16
 1626 0198 0022     		movs	r2, #0
 1627 019a 1A60     		str	r2, [r3]	@ float
 571:Core/Src/Main/Action.c **** 			TargetVelocity[BODY] = ExploreVelocity;
 1628              		.loc 1 571 4 is_stmt 1 view .LVU515
 1629              		.loc 1 571 25 is_stmt 0 view .LVU516
 1630 019c 1B4B     		ldr	r3, .L122+28
 1631 019e 1A68     		ldr	r2, [r3]	@ float
 1632 01a0 1B4B     		ldr	r3, .L122+32
 1633 01a2 9A60     		str	r2, [r3, #8]	@ float
 572:Core/Src/Main/Action.c **** 			if(Calc == 0)
 1634              		.loc 1 572 4 is_stmt 1 view .LVU517
 1635              		.loc 1 572 12 is_stmt 0 view .LVU518
 1636 01a4 204B     		ldr	r3, .L122+56
 1637 01a6 1B68     		ldr	r3, [r3]
 1638              		.loc 1 572 6 view .LVU519
 1639 01a8 002B     		cmp	r3, #0
 1640 01aa E0D1     		bne	.L115
 573:Core/Src/Main/Action.c **** 			{
 574:Core/Src/Main/Action.c **** 				getWallState(mouse, &Photo[0], maze);
 1641              		.loc 1 574 5 is_stmt 1 view .LVU520
 1642 01ac 2A46     		mov	r2, r5
 1643 01ae 1949     		ldr	r1, .L122+36
 1644 01b0 2046     		mov	r0, r4
 1645 01b2 FFF7FEFF 		bl	getWallState
 1646              	.LVL114:
 575:Core/Src/Main/Action.c **** 				Calc = 1;
 1647              		.loc 1 575 5 view .LVU521
 1648              		.loc 1 575 10 is_stmt 0 view .LVU522
 1649 01b6 1C4B     		ldr	r3, .L122+56
 1650 01b8 0122     		movs	r2, #1
 1651 01ba 1A60     		str	r2, [r3]
 1652 01bc D7E7     		b	.L115
 1653              	.L121:
 576:Core/Src/Main/Action.c **** 			}
 577:Core/Src/Main/Action.c **** 	}
 578:Core/Src/Main/Action.c **** 	TargetAngle += 0.5f*M_PI;//90*M_PI/180;
 1654              		.loc 1 578 2 is_stmt 1 view .LVU523
 1655              		.loc 1 578 14 is_stmt 0 view .LVU524
 1656 01be 1B4C     		ldr	r4, .L122+60
 1657              	.LVL115:
 1658              		.loc 1 578 14 view .LVU525
 1659 01c0 2068     		ldr	r0, [r4]	@ float
 1660 01c2 FFF7FEFF 		bl	__aeabi_f2d
 1661              	.LVL116:
 1662 01c6 0AA3     		adr	r3, .L122
 1663 01c8 D3E90023 		ldrd	r2, [r3]
ARM GAS  C:\Users\leopi\AppData\Local\Temp\ccntyKxi.s 			page 44


 1664 01cc FFF7FEFF 		bl	__aeabi_dadd
 1665              	.LVL117:
 1666 01d0 FFF7FEFF 		bl	__aeabi_d2f
 1667              	.LVL118:
 1668 01d4 2060     		str	r0, [r4]	@ float
 579:Core/Src/Main/Action.c **** 	KeepPulse[BODY] += TotalPulse[BODY] - KeepPulse[BODY];
 1669              		.loc 1 579 2 is_stmt 1 view .LVU526
 1670              		.loc 1 579 31 is_stmt 0 view .LVU527
 1671 01d6 094B     		ldr	r3, .L122+12
 1672 01d8 9A68     		ldr	r2, [r3, #8]
 1673              		.loc 1 579 49 view .LVU528
 1674 01da 154B     		ldr	r3, .L122+64
 1675 01dc 9968     		ldr	r1, [r3, #8]
 1676              		.loc 1 579 38 view .LVU529
 1677 01de 511A     		subs	r1, r2, r1
 1678              		.loc 1 579 18 view .LVU530
 1679 01e0 9A68     		ldr	r2, [r3, #8]
 1680 01e2 0A44     		add	r2, r2, r1
 1681 01e4 9A60     		str	r2, [r3, #8]
 580:Core/Src/Main/Action.c **** 
 581:Core/Src/Main/Action.c **** }
 1682              		.loc 1 581 1 view .LVU531
 1683 01e6 BDEC028B 		vldm	sp!, {d8}
 1684              	.LCFI12:
 1685              		.cfi_restore 80
 1686              		.cfi_restore 81
 1687              		.cfi_def_cfa_offset 16
 1688              	.LVL119:
 1689              		.loc 1 581 1 view .LVU532
 1690 01ea 38BD     		pop	{r3, r4, r5, pc}
 1691              	.LVL120:
 1692              	.L123:
 1693              		.loc 1 581 1 view .LVU533
 1694 01ec AFF30080 		.align	3
 1695              	.L122:
 1696 01f0 182D4454 		.word	1413754136
 1697 01f4 FB21F93F 		.word	1073291771
 1698 01f8 00000000 		.word	Pid
 1699 01fc 00000000 		.word	TotalPulse
 1700 0200 00000000 		.word	TargetAngularV
 1701 0204 00000000 		.word	AngularLeapsity
 1702 0208 00000000 		.word	AngularAcceleration
 1703 020c 00000000 		.word	ExploreVelocity
 1704 0210 00000000 		.word	TargetVelocity
 1705 0214 00000000 		.word	Photo
 1706 0218 00005C43 		.word	1130102784
 1707 021c 00008743 		.word	1132920832
 1708 0220 00000000 		.word	Sla
 1709 0224 00000000 		.word	Angle
 1710 0228 00000000 		.word	Calc
 1711 022c 00000000 		.word	TargetAngle
 1712 0230 00000000 		.word	KeepPulse
 1713              		.cfi_endproc
 1714              	.LFE244:
 1716              		.global	__aeabi_dsub
 1717              		.section	.text.SlalomLeft,"ax",%progbits
 1718              		.align	1
ARM GAS  C:\Users\leopi\AppData\Local\Temp\ccntyKxi.s 			page 45


 1719              		.global	SlalomLeft
 1720              		.syntax unified
 1721              		.thumb
 1722              		.thumb_func
 1724              	SlalomLeft:
 1725              	.LVL121:
 1726              	.LFB245:
 582:Core/Src/Main/Action.c **** void SlalomLeft(maze_node *maze, profile *mouse)	//ç¾åœ¨ã®é€Ÿåº¦ã‹ã‚‰ã€æœ€é©ãªè§’åŠ é€Ÿåº¦ã¨
 583:Core/Src/Main/Action.c **** {
 1727              		.loc 1 583 1 is_stmt 1 view -0
 1728              		.cfi_startproc
 1729              		@ args = 0, pretend = 0, frame = 0
 1730              		@ frame_needed = 0, uses_anonymous_args = 0
 1731              		.loc 1 583 1 is_stmt 0 view .LVU535
 1732 0000 38B5     		push	{r3, r4, r5, lr}
 1733              	.LCFI13:
 1734              		.cfi_def_cfa_offset 16
 1735              		.cfi_offset 3, -16
 1736              		.cfi_offset 4, -12
 1737              		.cfi_offset 5, -8
 1738              		.cfi_offset 14, -4
 1739 0002 2DED028B 		vpush.64	{d8}
 1740              	.LCFI14:
 1741              		.cfi_def_cfa_offset 24
 1742              		.cfi_offset 80, -24
 1743              		.cfi_offset 81, -20
 1744 0006 0546     		mov	r5, r0
 1745 0008 0C46     		mov	r4, r1
 584:Core/Src/Main/Action.c **** 	Pid[A_VELO_PID].flag = 1;
 1746              		.loc 1 584 2 is_stmt 1 view .LVU536
 1747              		.loc 1 584 23 is_stmt 0 view .LVU537
 1748 000a 794B     		ldr	r3, .L147+8
 1749 000c 0122     		movs	r2, #1
 1750 000e 9A62     		str	r2, [r3, #40]
 585:Core/Src/Main/Action.c **** 
 586:Core/Src/Main/Action.c **** 	int now_pulse;
 1751              		.loc 1 586 2 is_stmt 1 view .LVU538
 587:Core/Src/Main/Action.c **** 
 588:Core/Src/Main/Action.c **** 	now_pulse = TotalPulse[LEFT] + TotalPulse[RIGHT];	//æ±Žç”¨çš„ã«æ›¸ã„ã¦ãŠã
 1752              		.loc 1 588 2 view .LVU539
 1753              		.loc 1 588 24 is_stmt 0 view .LVU540
 1754 0010 784A     		ldr	r2, .L147+12
 1755 0012 1368     		ldr	r3, [r2]
 1756              		.loc 1 588 43 view .LVU541
 1757 0014 5268     		ldr	r2, [r2, #4]
 1758              		.loc 1 588 12 view .LVU542
 1759 0016 1344     		add	r3, r3, r2
 1760 0018 08EE103A 		vmov	s16, r3	@ int
 1761              	.LVL122:
 589:Core/Src/Main/Action.c **** 	if (getFrontWall(mouse) == WALL /*å‰ã«å£ãŒã‚ã‚Œã°ã€*/)
 1762              		.loc 1 589 2 is_stmt 1 view .LVU543
 1763              		.loc 1 589 6 is_stmt 0 view .LVU544
 1764 001c 0846     		mov	r0, r1
 1765              	.LVL123:
 1766              		.loc 1 589 6 view .LVU545
 1767 001e FFF7FEFF 		bl	getFrontWall
 1768              	.LVL124:
ARM GAS  C:\Users\leopi\AppData\Local\Temp\ccntyKxi.s 			page 46


 1769              		.loc 1 589 5 view .LVU546
 1770 0022 0128     		cmp	r0, #1
 1771 0024 28D1     		bne	.L126
 1772 0026 0AE0     		b	.L125
 1773              	.L127:
 590:Core/Src/Main/Action.c **** 	{
 591:Core/Src/Main/Action.c **** 		while(Photo[FL] < SLA_CALIB_FL || Photo[FR] < SLA_CALIB_FR)//Photo[FL] < 200 || Photo[FR] < 250/*
 592:Core/Src/Main/Action.c **** 		{
 593:Core/Src/Main/Action.c **** 			TargetAngularV = 0;
 1774              		.loc 1 593 4 is_stmt 1 view .LVU547
 1775              		.loc 1 593 19 is_stmt 0 view .LVU548
 1776 0028 0023     		movs	r3, #0
 1777 002a 734A     		ldr	r2, .L147+16
 1778 002c 1360     		str	r3, [r2]	@ float
 594:Core/Src/Main/Action.c **** 			AngularLeapsity = 0;
 1779              		.loc 1 594 4 is_stmt 1 view .LVU549
 1780              		.loc 1 594 20 is_stmt 0 view .LVU550
 1781 002e 734A     		ldr	r2, .L147+20
 1782 0030 1360     		str	r3, [r2]	@ float
 595:Core/Src/Main/Action.c **** 			AngularAcceleration = 0;
 1783              		.loc 1 595 4 is_stmt 1 view .LVU551
 1784              		.loc 1 595 24 is_stmt 0 view .LVU552
 1785 0032 734A     		ldr	r2, .L147+24
 1786 0034 1360     		str	r3, [r2]	@ float
 596:Core/Src/Main/Action.c **** 			TargetVelocity[BODY] = ExploreVelocity;
 1787              		.loc 1 596 4 is_stmt 1 view .LVU553
 1788              		.loc 1 596 25 is_stmt 0 view .LVU554
 1789 0036 734B     		ldr	r3, .L147+28
 1790 0038 1A68     		ldr	r2, [r3]	@ float
 1791 003a 734B     		ldr	r3, .L147+32
 1792 003c 9A60     		str	r2, [r3, #8]	@ float
 1793              	.L125:
 591:Core/Src/Main/Action.c **** 		{
 1794              		.loc 1 591 8 is_stmt 1 view .LVU555
 591:Core/Src/Main/Action.c **** 		{
 1795              		.loc 1 591 14 is_stmt 0 view .LVU556
 1796 003e 734B     		ldr	r3, .L147+36
 1797 0040 93ED007A 		vldr.32	s14, [r3]
 591:Core/Src/Main/Action.c **** 		{
 1798              		.loc 1 591 8 view .LVU557
 1799 0044 DFED727A 		vldr.32	s15, .L147+40
 1800 0048 B4EEE77A 		vcmpe.f32	s14, s15
 1801 004c F1EE10FA 		vmrs	APSR_nzcv, FPSCR
 1802 0050 EAD4     		bmi	.L127
 591:Core/Src/Main/Action.c **** 		{
 1803              		.loc 1 591 42 discriminator 1 view .LVU558
 1804 0052 93ED037A 		vldr.32	s14, [r3, #12]
 591:Core/Src/Main/Action.c **** 		{
 1805              		.loc 1 591 34 discriminator 1 view .LVU559
 1806 0056 DFED6F7A 		vldr.32	s15, .L147+44
 1807 005a B4EEE77A 		vcmpe.f32	s14, s15
 1808 005e F1EE10FA 		vmrs	APSR_nzcv, FPSCR
 1809 0062 E1D4     		bmi	.L127
 1810 0064 1CE0     		b	.L128
 1811              	.L129:
 597:Core/Src/Main/Action.c **** 		}
 598:Core/Src/Main/Action.c **** 
ARM GAS  C:\Users\leopi\AppData\Local\Temp\ccntyKxi.s 			page 47


 599:Core/Src/Main/Action.c **** 
 600:Core/Src/Main/Action.c **** 	}
 601:Core/Src/Main/Action.c **** 	else//ãªã‘ã‚Œã°
 602:Core/Src/Main/Action.c **** 	{
 603:Core/Src/Main/Action.c **** 		while( now_pulse + Sla.Pre  > (TotalPulse[LEFT] + TotalPulse[RIGHT]) ) //ç§»å‹•é‡ã‚’æ¡ä»¶ã«ç›´
 604:Core/Src/Main/Action.c **** 		{
 605:Core/Src/Main/Action.c **** 				TargetAngularV = 0;
 1812              		.loc 1 605 5 is_stmt 1 view .LVU560
 1813              		.loc 1 605 20 is_stmt 0 view .LVU561
 1814 0066 0023     		movs	r3, #0
 1815 0068 634A     		ldr	r2, .L147+16
 1816 006a 1360     		str	r3, [r2]	@ float
 606:Core/Src/Main/Action.c **** 				AngularAcceleration = 0;
 1817              		.loc 1 606 5 is_stmt 1 view .LVU562
 1818              		.loc 1 606 25 is_stmt 0 view .LVU563
 1819 006c 644A     		ldr	r2, .L147+24
 1820 006e 1360     		str	r3, [r2]	@ float
 607:Core/Src/Main/Action.c **** 				TargetVelocity[BODY] = ExploreVelocity;
 1821              		.loc 1 607 5 is_stmt 1 view .LVU564
 1822              		.loc 1 607 26 is_stmt 0 view .LVU565
 1823 0070 644B     		ldr	r3, .L147+28
 1824 0072 1A68     		ldr	r2, [r3]	@ float
 1825 0074 644B     		ldr	r3, .L147+32
 1826 0076 9A60     		str	r2, [r3, #8]	@ float
 1827              	.L126:
 603:Core/Src/Main/Action.c **** 		{
 1828              		.loc 1 603 8 is_stmt 1 view .LVU566
 603:Core/Src/Main/Action.c **** 		{
 1829              		.loc 1 603 25 is_stmt 0 view .LVU567
 1830 0078 674B     		ldr	r3, .L147+48
 1831 007a D3ED007A 		vldr.32	s15, [r3]
 603:Core/Src/Main/Action.c **** 		{
 1832              		.loc 1 603 20 view .LVU568
 1833 007e B8EEC87A 		vcvt.f32.s32	s14, s16
 1834 0082 37EE277A 		vadd.f32	s14, s14, s15
 603:Core/Src/Main/Action.c **** 		{
 1835              		.loc 1 603 44 view .LVU569
 1836 0086 5B4A     		ldr	r2, .L147+12
 1837 0088 1368     		ldr	r3, [r2]
 603:Core/Src/Main/Action.c **** 		{
 1838              		.loc 1 603 63 view .LVU570
 1839 008a 5268     		ldr	r2, [r2, #4]
 603:Core/Src/Main/Action.c **** 		{
 1840              		.loc 1 603 51 view .LVU571
 1841 008c 1344     		add	r3, r3, r2
 603:Core/Src/Main/Action.c **** 		{
 1842              		.loc 1 603 31 view .LVU572
 1843 008e 07EE903A 		vmov	s15, r3	@ int
 1844 0092 F8EEE77A 		vcvt.f32.s32	s15, s15
 603:Core/Src/Main/Action.c **** 		{
 1845              		.loc 1 603 8 view .LVU573
 1846 0096 B4EEE77A 		vcmpe.f32	s14, s15
 1847 009a F1EE10FA 		vmrs	APSR_nzcv, FPSCR
 1848 009e E2DC     		bgt	.L129
 1849              	.L128:
 608:Core/Src/Main/Action.c **** 		}
 609:Core/Src/Main/Action.c **** 	}
ARM GAS  C:\Users\leopi\AppData\Local\Temp\ccntyKxi.s 			page 48


 610:Core/Src/Main/Action.c **** 	Pid[A_VELO_PID].flag = 0;
 1850              		.loc 1 610 2 is_stmt 1 view .LVU574
 1851              		.loc 1 610 23 is_stmt 0 view .LVU575
 1852 00a0 534B     		ldr	r3, .L147+8
 1853 00a2 0022     		movs	r2, #0
 1854 00a4 9A62     		str	r2, [r3, #40]
 611:Core/Src/Main/Action.c **** 	float start_angle = Angle;
 1855              		.loc 1 611 2 is_stmt 1 view .LVU576
 1856              		.loc 1 611 8 is_stmt 0 view .LVU577
 1857 00a6 5D4B     		ldr	r3, .L147+52
 1858 00a8 93ED007A 		vldr.32	s14, [r3]
 1859              	.LVL125:
 612:Core/Src/Main/Action.c **** 	while(start_angle - Sla.Theta1 < Angle)
 1860              		.loc 1 612 2 is_stmt 1 view .LVU578
 1861              		.loc 1 612 7 is_stmt 0 view .LVU579
 1862 00ac 0BE0     		b	.L130
 1863              	.L131:
 613:Core/Src/Main/Action.c **** 	{
 614:Core/Src/Main/Action.c **** 			AngularAcceleration = -Sla.Alpha;
 1864              		.loc 1 614 4 is_stmt 1 view .LVU580
 1865              		.loc 1 614 30 is_stmt 0 view .LVU581
 1866 00ae 5A4B     		ldr	r3, .L147+48
 1867 00b0 D3ED027A 		vldr.32	s15, [r3, #8]
 1868              		.loc 1 614 26 view .LVU582
 1869 00b4 F1EE677A 		vneg.f32	s15, s15
 1870              		.loc 1 614 24 view .LVU583
 1871 00b8 514B     		ldr	r3, .L147+24
 1872 00ba C3ED007A 		vstr.32	s15, [r3]
 615:Core/Src/Main/Action.c **** 			TargetVelocity[BODY] = ExploreVelocity;
 1873              		.loc 1 615 4 is_stmt 1 view .LVU584
 1874              		.loc 1 615 25 is_stmt 0 view .LVU585
 1875 00be 514B     		ldr	r3, .L147+28
 1876 00c0 1A68     		ldr	r2, [r3]	@ float
 1877 00c2 514B     		ldr	r3, .L147+32
 1878 00c4 9A60     		str	r2, [r3, #8]	@ float
 1879              	.L130:
 612:Core/Src/Main/Action.c **** 	while(start_angle - Sla.Theta1 < Angle)
 1880              		.loc 1 612 7 is_stmt 1 view .LVU586
 612:Core/Src/Main/Action.c **** 	while(start_angle - Sla.Theta1 < Angle)
 1881              		.loc 1 612 25 is_stmt 0 view .LVU587
 1882 00c6 544B     		ldr	r3, .L147+48
 1883 00c8 D3ED047A 		vldr.32	s15, [r3, #16]
 612:Core/Src/Main/Action.c **** 	while(start_angle - Sla.Theta1 < Angle)
 1884              		.loc 1 612 20 view .LVU588
 1885 00cc 77EE677A 		vsub.f32	s15, s14, s15
 612:Core/Src/Main/Action.c **** 	while(start_angle - Sla.Theta1 < Angle)
 1886              		.loc 1 612 33 view .LVU589
 1887 00d0 524B     		ldr	r3, .L147+52
 1888 00d2 D3ED006A 		vldr.32	s13, [r3]
 612:Core/Src/Main/Action.c **** 	while(start_angle - Sla.Theta1 < Angle)
 1889              		.loc 1 612 7 view .LVU590
 1890 00d6 F4EEE67A 		vcmpe.f32	s15, s13
 1891 00da F1EE10FA 		vmrs	APSR_nzcv, FPSCR
 1892 00de E6D4     		bmi	.L131
 616:Core/Src/Main/Action.c **** 	}
 617:Core/Src/Main/Action.c **** 	AngularAcceleration = 0;
 1893              		.loc 1 617 2 is_stmt 1 view .LVU591
ARM GAS  C:\Users\leopi\AppData\Local\Temp\ccntyKxi.s 			page 49


 1894              		.loc 1 617 22 is_stmt 0 view .LVU592
 1895 00e0 0023     		movs	r3, #0
 1896 00e2 474A     		ldr	r2, .L147+24
 1897 00e4 1360     		str	r3, [r2]	@ float
 618:Core/Src/Main/Action.c **** 	AngularLeapsity = 0;
 1898              		.loc 1 618 2 is_stmt 1 view .LVU593
 1899              		.loc 1 618 18 is_stmt 0 view .LVU594
 1900 00e6 454A     		ldr	r2, .L147+20
 1901 00e8 1360     		str	r3, [r2]	@ float
 619:Core/Src/Main/Action.c **** 	while(start_angle - Sla.Theta2 < Angle)
 1902              		.loc 1 619 2 is_stmt 1 view .LVU595
 1903              		.loc 1 619 7 is_stmt 0 view .LVU596
 1904 00ea 06E0     		b	.L132
 1905              	.L133:
 620:Core/Src/Main/Action.c **** 	{
 621:Core/Src/Main/Action.c **** 			TargetAngularV = TargetAngularV;
 1906              		.loc 1 621 4 is_stmt 1 view .LVU597
 1907              		.loc 1 621 19 is_stmt 0 view .LVU598
 1908 00ec 424B     		ldr	r3, .L147+16
 1909 00ee 1A68     		ldr	r2, [r3]	@ float
 1910 00f0 1A60     		str	r2, [r3]	@ float
 622:Core/Src/Main/Action.c **** 			TargetVelocity[BODY] = ExploreVelocity;
 1911              		.loc 1 622 4 is_stmt 1 view .LVU599
 1912              		.loc 1 622 25 is_stmt 0 view .LVU600
 1913 00f2 444B     		ldr	r3, .L147+28
 1914 00f4 1A68     		ldr	r2, [r3]	@ float
 1915 00f6 444B     		ldr	r3, .L147+32
 1916 00f8 9A60     		str	r2, [r3, #8]	@ float
 1917              	.L132:
 619:Core/Src/Main/Action.c **** 	while(start_angle - Sla.Theta2 < Angle)
 1918              		.loc 1 619 7 is_stmt 1 view .LVU601
 619:Core/Src/Main/Action.c **** 	while(start_angle - Sla.Theta2 < Angle)
 1919              		.loc 1 619 25 is_stmt 0 view .LVU602
 1920 00fa 474B     		ldr	r3, .L147+48
 1921 00fc D3ED057A 		vldr.32	s15, [r3, #20]
 619:Core/Src/Main/Action.c **** 	while(start_angle - Sla.Theta2 < Angle)
 1922              		.loc 1 619 20 view .LVU603
 1923 0100 77EE677A 		vsub.f32	s15, s14, s15
 619:Core/Src/Main/Action.c **** 	while(start_angle - Sla.Theta2 < Angle)
 1924              		.loc 1 619 33 view .LVU604
 1925 0104 454B     		ldr	r3, .L147+52
 1926 0106 D3ED006A 		vldr.32	s13, [r3]
 619:Core/Src/Main/Action.c **** 	while(start_angle - Sla.Theta2 < Angle)
 1927              		.loc 1 619 7 view .LVU605
 1928 010a F4EEE67A 		vcmpe.f32	s15, s13
 1929 010e F1EE10FA 		vmrs	APSR_nzcv, FPSCR
 1930 0112 EBD4     		bmi	.L133
 1931              	.L134:
 623:Core/Src/Main/Action.c **** 	}
 624:Core/Src/Main/Action.c **** 
 625:Core/Src/Main/Action.c **** 	while( start_angle - Sla.Theta3 < Angle)
 1932              		.loc 1 625 7 is_stmt 1 view .LVU606
 1933              		.loc 1 625 26 is_stmt 0 view .LVU607
 1934 0114 404B     		ldr	r3, .L147+48
 1935 0116 D3ED067A 		vldr.32	s15, [r3, #24]
 1936              		.loc 1 625 21 view .LVU608
 1937 011a 77EE677A 		vsub.f32	s15, s14, s15
ARM GAS  C:\Users\leopi\AppData\Local\Temp\ccntyKxi.s 			page 50


 1938              		.loc 1 625 34 view .LVU609
 1939 011e 3F4B     		ldr	r3, .L147+52
 1940 0120 D3ED006A 		vldr.32	s13, [r3]
 1941              		.loc 1 625 7 view .LVU610
 1942 0124 F4EEE67A 		vcmpe.f32	s15, s13
 1943 0128 F1EE10FA 		vmrs	APSR_nzcv, FPSCR
 1944 012c 12D5     		bpl	.L137
 626:Core/Src/Main/Action.c **** 	{
 627:Core/Src/Main/Action.c **** 			AngularAcceleration = Sla.Alpha;
 1945              		.loc 1 627 4 is_stmt 1 view .LVU611
 1946              		.loc 1 627 29 is_stmt 0 view .LVU612
 1947 012e 3A4B     		ldr	r3, .L147+48
 1948 0130 9A68     		ldr	r2, [r3, #8]	@ float
 1949              		.loc 1 627 24 view .LVU613
 1950 0132 334B     		ldr	r3, .L147+24
 1951 0134 1A60     		str	r2, [r3]	@ float
 628:Core/Src/Main/Action.c **** 			if(TargetAngularV > 0)
 1952              		.loc 1 628 4 is_stmt 1 view .LVU614
 1953              		.loc 1 628 22 is_stmt 0 view .LVU615
 1954 0136 304B     		ldr	r3, .L147+16
 1955 0138 D3ED007A 		vldr.32	s15, [r3]
 1956              		.loc 1 628 6 view .LVU616
 1957 013c F5EEC07A 		vcmpe.f32	s15, #0
 1958 0140 F1EE10FA 		vmrs	APSR_nzcv, FPSCR
 1959 0144 04DC     		bgt	.L145
 629:Core/Src/Main/Action.c **** 			{
 630:Core/Src/Main/Action.c **** 				TargetAngularV = 0;
 631:Core/Src/Main/Action.c **** 				break;
 632:Core/Src/Main/Action.c **** 			}
 633:Core/Src/Main/Action.c **** 			TargetVelocity[BODY] = ExploreVelocity;
 1960              		.loc 1 633 4 is_stmt 1 view .LVU617
 1961              		.loc 1 633 25 is_stmt 0 view .LVU618
 1962 0146 2F4B     		ldr	r3, .L147+28
 1963 0148 1A68     		ldr	r2, [r3]	@ float
 1964 014a 2F4B     		ldr	r3, .L147+32
 1965 014c 9A60     		str	r2, [r3, #8]	@ float
 1966 014e E1E7     		b	.L134
 1967              	.L145:
 630:Core/Src/Main/Action.c **** 				break;
 1968              		.loc 1 630 5 is_stmt 1 view .LVU619
 630:Core/Src/Main/Action.c **** 				break;
 1969              		.loc 1 630 20 is_stmt 0 view .LVU620
 1970 0150 0022     		movs	r2, #0
 1971 0152 1A60     		str	r2, [r3]	@ float
 631:Core/Src/Main/Action.c **** 			}
 1972              		.loc 1 631 5 is_stmt 1 view .LVU621
 1973              	.L137:
 634:Core/Src/Main/Action.c **** 	}
 635:Core/Src/Main/Action.c **** 	AngularAcceleration = 0;
 1974              		.loc 1 635 2 view .LVU622
 1975              		.loc 1 635 22 is_stmt 0 view .LVU623
 1976 0154 0023     		movs	r3, #0
 1977 0156 2A4A     		ldr	r2, .L147+24
 1978 0158 1360     		str	r3, [r2]	@ float
 636:Core/Src/Main/Action.c **** 	AngularLeapsity = 0;
 1979              		.loc 1 636 2 is_stmt 1 view .LVU624
 637:Core/Src/Main/Action.c **** 	TargetAngularV = 0;
ARM GAS  C:\Users\leopi\AppData\Local\Temp\ccntyKxi.s 			page 51


 1980              		.loc 1 637 2 view .LVU625
 1981              		.loc 1 637 17 is_stmt 0 view .LVU626
 1982 015a 274A     		ldr	r2, .L147+16
 1983 015c 1360     		str	r3, [r2]	@ float
 638:Core/Src/Main/Action.c **** 
 639:Core/Src/Main/Action.c **** 	now_pulse = TotalPulse[LEFT] + TotalPulse[RIGHT];
 1984              		.loc 1 639 2 is_stmt 1 view .LVU627
 1985              		.loc 1 639 24 is_stmt 0 view .LVU628
 1986 015e 254A     		ldr	r2, .L147+12
 1987 0160 1368     		ldr	r3, [r2]
 1988              		.loc 1 639 43 view .LVU629
 1989 0162 5268     		ldr	r2, [r2, #4]
 1990              		.loc 1 639 12 view .LVU630
 1991 0164 1344     		add	r3, r3, r2
 1992 0166 08EE103A 		vmov	s16, r3	@ int
 1993              	.LVL126:
 640:Core/Src/Main/Action.c **** 	while( now_pulse + Sla.Fol > (TotalPulse[LEFT] + TotalPulse[RIGHT]) )
 1994              		.loc 1 640 2 is_stmt 1 view .LVU631
 1995              	.L140:
 1996              		.loc 1 640 7 view .LVU632
 1997              		.loc 1 640 24 is_stmt 0 view .LVU633
 1998 016a 2B4B     		ldr	r3, .L147+48
 1999 016c D3ED017A 		vldr.32	s15, [r3, #4]
 2000              		.loc 1 640 19 view .LVU634
 2001 0170 B8EEC87A 		vcvt.f32.s32	s14, s16
 2002 0174 37EE277A 		vadd.f32	s14, s14, s15
 2003              		.loc 1 640 42 view .LVU635
 2004 0178 1E4A     		ldr	r2, .L147+12
 2005 017a 1368     		ldr	r3, [r2]
 2006              		.loc 1 640 61 view .LVU636
 2007 017c 5268     		ldr	r2, [r2, #4]
 2008              		.loc 1 640 49 view .LVU637
 2009 017e 1344     		add	r3, r3, r2
 2010              		.loc 1 640 29 view .LVU638
 2011 0180 07EE903A 		vmov	s15, r3	@ int
 2012 0184 F8EEE77A 		vcvt.f32.s32	s15, s15
 2013              		.loc 1 640 7 view .LVU639
 2014 0188 B4EEE77A 		vcmpe.f32	s14, s15
 2015 018c F1EE10FA 		vmrs	APSR_nzcv, FPSCR
 2016 0190 13DD     		ble	.L146
 641:Core/Src/Main/Action.c **** 	{
 642:Core/Src/Main/Action.c **** 			TargetAngularV = 0;
 2017              		.loc 1 642 4 is_stmt 1 view .LVU640
 2018              		.loc 1 642 19 is_stmt 0 view .LVU641
 2019 0192 194B     		ldr	r3, .L147+16
 2020 0194 0022     		movs	r2, #0
 2021 0196 1A60     		str	r2, [r3]	@ float
 643:Core/Src/Main/Action.c **** 			TargetVelocity[BODY] = ExploreVelocity;
 2022              		.loc 1 643 4 is_stmt 1 view .LVU642
 2023              		.loc 1 643 25 is_stmt 0 view .LVU643
 2024 0198 1A4B     		ldr	r3, .L147+28
 2025 019a 1A68     		ldr	r2, [r3]	@ float
 2026 019c 1A4B     		ldr	r3, .L147+32
 2027 019e 9A60     		str	r2, [r3, #8]	@ float
 644:Core/Src/Main/Action.c **** 			if(Calc == 0)
 2028              		.loc 1 644 4 is_stmt 1 view .LVU644
 2029              		.loc 1 644 12 is_stmt 0 view .LVU645
ARM GAS  C:\Users\leopi\AppData\Local\Temp\ccntyKxi.s 			page 52


 2030 01a0 1F4B     		ldr	r3, .L147+56
 2031 01a2 1B68     		ldr	r3, [r3]
 2032              		.loc 1 644 6 view .LVU646
 2033 01a4 002B     		cmp	r3, #0
 2034 01a6 E0D1     		bne	.L140
 645:Core/Src/Main/Action.c **** 			{
 646:Core/Src/Main/Action.c **** 				getWallState(mouse, &Photo[0], maze);
 2035              		.loc 1 646 5 is_stmt 1 view .LVU647
 2036 01a8 2A46     		mov	r2, r5
 2037 01aa 1849     		ldr	r1, .L147+36
 2038 01ac 2046     		mov	r0, r4
 2039 01ae FFF7FEFF 		bl	getWallState
 2040              	.LVL127:
 647:Core/Src/Main/Action.c **** 				Calc = 1;
 2041              		.loc 1 647 5 view .LVU648
 2042              		.loc 1 647 10 is_stmt 0 view .LVU649
 2043 01b2 1B4B     		ldr	r3, .L147+56
 2044 01b4 0122     		movs	r2, #1
 2045 01b6 1A60     		str	r2, [r3]
 2046 01b8 D7E7     		b	.L140
 2047              	.L146:
 648:Core/Src/Main/Action.c **** 			}
 649:Core/Src/Main/Action.c **** 	}
 650:Core/Src/Main/Action.c **** 	TargetAngle += -0.5f*M_PI;//-90*M_PI/180;
 2048              		.loc 1 650 2 is_stmt 1 view .LVU650
 2049              		.loc 1 650 14 is_stmt 0 view .LVU651
 2050 01ba 1A4C     		ldr	r4, .L147+60
 2051              	.LVL128:
 2052              		.loc 1 650 14 view .LVU652
 2053 01bc 2068     		ldr	r0, [r4]	@ float
 2054 01be FFF7FEFF 		bl	__aeabi_f2d
 2055              	.LVL129:
 2056 01c2 09A3     		adr	r3, .L147
 2057 01c4 D3E90023 		ldrd	r2, [r3]
 2058 01c8 FFF7FEFF 		bl	__aeabi_dsub
 2059              	.LVL130:
 2060 01cc FFF7FEFF 		bl	__aeabi_d2f
 2061              	.LVL131:
 2062 01d0 2060     		str	r0, [r4]	@ float
 651:Core/Src/Main/Action.c **** 	KeepPulse[BODY] += TotalPulse[BODY] - KeepPulse[BODY];
 2063              		.loc 1 651 2 is_stmt 1 view .LVU653
 2064              		.loc 1 651 31 is_stmt 0 view .LVU654
 2065 01d2 084B     		ldr	r3, .L147+12
 2066 01d4 9A68     		ldr	r2, [r3, #8]
 2067              		.loc 1 651 49 view .LVU655
 2068 01d6 144B     		ldr	r3, .L147+64
 2069 01d8 9968     		ldr	r1, [r3, #8]
 2070              		.loc 1 651 38 view .LVU656
 2071 01da 511A     		subs	r1, r2, r1
 2072              		.loc 1 651 18 view .LVU657
 2073 01dc 9A68     		ldr	r2, [r3, #8]
 2074 01de 0A44     		add	r2, r2, r1
 2075 01e0 9A60     		str	r2, [r3, #8]
 652:Core/Src/Main/Action.c **** }
 2076              		.loc 1 652 1 view .LVU658
 2077 01e2 BDEC028B 		vldm	sp!, {d8}
 2078              	.LCFI15:
ARM GAS  C:\Users\leopi\AppData\Local\Temp\ccntyKxi.s 			page 53


 2079              		.cfi_restore 80
 2080              		.cfi_restore 81
 2081              		.cfi_def_cfa_offset 16
 2082              	.LVL132:
 2083              		.loc 1 652 1 view .LVU659
 2084 01e6 38BD     		pop	{r3, r4, r5, pc}
 2085              	.LVL133:
 2086              	.L148:
 2087              		.loc 1 652 1 view .LVU660
 2088              		.align	3
 2089              	.L147:
 2090 01e8 182D4454 		.word	1413754136
 2091 01ec FB21F93F 		.word	1073291771
 2092 01f0 00000000 		.word	Pid
 2093 01f4 00000000 		.word	TotalPulse
 2094 01f8 00000000 		.word	TargetAngularV
 2095 01fc 00000000 		.word	AngularLeapsity
 2096 0200 00000000 		.word	AngularAcceleration
 2097 0204 00000000 		.word	ExploreVelocity
 2098 0208 00000000 		.word	TargetVelocity
 2099 020c 00000000 		.word	Photo
 2100 0210 00005C43 		.word	1130102784
 2101 0214 00008743 		.word	1132920832
 2102 0218 00000000 		.word	Sla
 2103 021c 00000000 		.word	Angle
 2104 0220 00000000 		.word	Calc
 2105 0224 00000000 		.word	TargetAngle
 2106 0228 00000000 		.word	KeepPulse
 2107              		.cfi_endproc
 2108              	.LFE245:
 2110              		.section	.text.SlalomFastRight,"ax",%progbits
 2111              		.align	1
 2112              		.global	SlalomFastRight
 2113              		.syntax unified
 2114              		.thumb
 2115              		.thumb_func
 2117              	SlalomFastRight:
 2118              	.LVL134:
 2119              	.LFB246:
 653:Core/Src/Main/Action.c **** void SlalomFastRight(slalom_parameter *param)	//ç¾åœ¨ã®é€Ÿåº¦ã‹ã‚‰ã€æœ€é©ãªè§’åŠ é€Ÿåº¦ã¨ã€
 654:Core/Src/Main/Action.c **** {
 2120              		.loc 1 654 1 is_stmt 1 view -0
 2121              		.cfi_startproc
 2122              		@ args = 0, pretend = 0, frame = 0
 2123              		@ frame_needed = 0, uses_anonymous_args = 0
 2124              		@ link register save eliminated.
 655:Core/Src/Main/Action.c **** 	Pid[A_VELO_PID].flag = 1;
 2125              		.loc 1 655 2 view .LVU662
 2126              		.loc 1 655 23 is_stmt 0 view .LVU663
 2127 0000 594B     		ldr	r3, .L166
 2128 0002 0122     		movs	r2, #1
 2129 0004 9A62     		str	r2, [r3, #40]
 656:Core/Src/Main/Action.c **** 	int now_pulse;
 2130              		.loc 1 656 2 is_stmt 1 view .LVU664
 657:Core/Src/Main/Action.c **** 
 658:Core/Src/Main/Action.c **** 	now_pulse = TotalPulse[LEFT] + TotalPulse[RIGHT];
 2131              		.loc 1 658 2 view .LVU665
ARM GAS  C:\Users\leopi\AppData\Local\Temp\ccntyKxi.s 			page 54


 2132              		.loc 1 658 24 is_stmt 0 view .LVU666
 2133 0006 594A     		ldr	r2, .L166+4
 2134 0008 1368     		ldr	r3, [r2]
 2135              		.loc 1 658 43 view .LVU667
 2136 000a 5268     		ldr	r2, [r2, #4]
 2137              		.loc 1 658 12 view .LVU668
 2138 000c 1344     		add	r3, r3, r2
 2139 000e 06EE903A 		vmov	s13, r3	@ int
 2140              	.LVL135:
 659:Core/Src/Main/Action.c **** 	while( now_pulse + param->Pre > (TotalPulse[LEFT] + TotalPulse[RIGHT]) ) //ç§»å‹•é‡ã‚’æ¡ä»¶ã«ç›
 2141              		.loc 1 659 2 is_stmt 1 view .LVU669
 2142              		.loc 1 659 7 is_stmt 0 view .LVU670
 2143 0012 0AE0     		b	.L150
 2144              	.LVL136:
 2145              	.L151:
 660:Core/Src/Main/Action.c **** 	{
 661:Core/Src/Main/Action.c **** 			TargetAngularV = 0;
 2146              		.loc 1 661 4 is_stmt 1 view .LVU671
 2147              		.loc 1 661 19 is_stmt 0 view .LVU672
 2148 0014 0023     		movs	r3, #0
 2149 0016 564A     		ldr	r2, .L166+8
 2150 0018 1360     		str	r3, [r2]	@ float
 662:Core/Src/Main/Action.c **** 			AngularLeapsity = 0;
 2151              		.loc 1 662 4 is_stmt 1 view .LVU673
 2152              		.loc 1 662 20 is_stmt 0 view .LVU674
 2153 001a 564A     		ldr	r2, .L166+12
 2154 001c 1360     		str	r3, [r2]	@ float
 663:Core/Src/Main/Action.c **** 			AngularAcceleration = 0;
 2155              		.loc 1 663 4 is_stmt 1 view .LVU675
 2156              		.loc 1 663 24 is_stmt 0 view .LVU676
 2157 001e 564A     		ldr	r2, .L166+16
 2158 0020 1360     		str	r3, [r2]	@ float
 664:Core/Src/Main/Action.c **** 			TargetVelocity[BODY] = ExploreVelocity;
 2159              		.loc 1 664 4 is_stmt 1 view .LVU677
 2160              		.loc 1 664 25 is_stmt 0 view .LVU678
 2161 0022 564B     		ldr	r3, .L166+20
 2162 0024 1A68     		ldr	r2, [r3]	@ float
 2163 0026 564B     		ldr	r3, .L166+24
 2164 0028 9A60     		str	r2, [r3, #8]	@ float
 2165              	.L150:
 659:Core/Src/Main/Action.c **** 	{
 2166              		.loc 1 659 7 is_stmt 1 view .LVU679
 659:Core/Src/Main/Action.c **** 	{
 2167              		.loc 1 659 26 is_stmt 0 view .LVU680
 2168 002a D0ED007A 		vldr.32	s15, [r0]
 659:Core/Src/Main/Action.c **** 	{
 2169              		.loc 1 659 19 view .LVU681
 2170 002e B8EEE67A 		vcvt.f32.s32	s14, s13
 2171 0032 37EE277A 		vadd.f32	s14, s14, s15
 659:Core/Src/Main/Action.c **** 	{
 2172              		.loc 1 659 45 view .LVU682
 2173 0036 4D4A     		ldr	r2, .L166+4
 2174 0038 1368     		ldr	r3, [r2]
 659:Core/Src/Main/Action.c **** 	{
 2175              		.loc 1 659 64 view .LVU683
 2176 003a 5268     		ldr	r2, [r2, #4]
 659:Core/Src/Main/Action.c **** 	{
ARM GAS  C:\Users\leopi\AppData\Local\Temp\ccntyKxi.s 			page 55


 2177              		.loc 1 659 52 view .LVU684
 2178 003c 1344     		add	r3, r3, r2
 659:Core/Src/Main/Action.c **** 	{
 2179              		.loc 1 659 32 view .LVU685
 2180 003e 07EE903A 		vmov	s15, r3	@ int
 2181 0042 F8EEE77A 		vcvt.f32.s32	s15, s15
 659:Core/Src/Main/Action.c **** 	{
 2182              		.loc 1 659 7 view .LVU686
 2183 0046 B4EEE77A 		vcmpe.f32	s14, s15
 2184 004a F1EE10FA 		vmrs	APSR_nzcv, FPSCR
 2185 004e E1DC     		bgt	.L151
 665:Core/Src/Main/Action.c **** 	}
 666:Core/Src/Main/Action.c **** 	float start_angle = Angle;
 2186              		.loc 1 666 2 is_stmt 1 view .LVU687
 2187              		.loc 1 666 8 is_stmt 0 view .LVU688
 2188 0050 4C4B     		ldr	r3, .L166+28
 2189 0052 93ED007A 		vldr.32	s14, [r3]
 2190              	.LVL137:
 667:Core/Src/Main/Action.c **** 	Pid[A_VELO_PID].flag = 0;
 2191              		.loc 1 667 2 is_stmt 1 view .LVU689
 2192              		.loc 1 667 23 is_stmt 0 view .LVU690
 2193 0056 444B     		ldr	r3, .L166
 2194 0058 0022     		movs	r2, #0
 2195 005a 9A62     		str	r2, [r3, #40]
 668:Core/Src/Main/Action.c **** 	while(start_angle + param->Theta1 > Angle)
 2196              		.loc 1 668 2 is_stmt 1 view .LVU691
 2197              		.loc 1 668 7 is_stmt 0 view .LVU692
 2198 005c 06E0     		b	.L152
 2199              	.LVL138:
 2200              	.L153:
 669:Core/Src/Main/Action.c **** 	{
 670:Core/Src/Main/Action.c **** 			AngularAcceleration = param->Alpha;
 2201              		.loc 1 670 4 is_stmt 1 view .LVU693
 2202              		.loc 1 670 31 is_stmt 0 view .LVU694
 2203 005e 8268     		ldr	r2, [r0, #8]	@ float
 2204              		.loc 1 670 24 view .LVU695
 2205 0060 454B     		ldr	r3, .L166+16
 2206 0062 1A60     		str	r2, [r3]	@ float
 671:Core/Src/Main/Action.c **** 			TargetVelocity[BODY] = ExploreVelocity;
 2207              		.loc 1 671 4 is_stmt 1 view .LVU696
 2208              		.loc 1 671 25 is_stmt 0 view .LVU697
 2209 0064 454B     		ldr	r3, .L166+20
 2210 0066 1A68     		ldr	r2, [r3]	@ float
 2211 0068 454B     		ldr	r3, .L166+24
 2212 006a 9A60     		str	r2, [r3, #8]	@ float
 2213              	.L152:
 668:Core/Src/Main/Action.c **** 	while(start_angle + param->Theta1 > Angle)
 2214              		.loc 1 668 7 is_stmt 1 view .LVU698
 668:Core/Src/Main/Action.c **** 	while(start_angle + param->Theta1 > Angle)
 2215              		.loc 1 668 27 is_stmt 0 view .LVU699
 2216 006c D0ED047A 		vldr.32	s15, [r0, #16]
 668:Core/Src/Main/Action.c **** 	while(start_angle + param->Theta1 > Angle)
 2217              		.loc 1 668 20 view .LVU700
 2218 0070 77EE877A 		vadd.f32	s15, s15, s14
 668:Core/Src/Main/Action.c **** 	while(start_angle + param->Theta1 > Angle)
 2219              		.loc 1 668 36 view .LVU701
 2220 0074 434B     		ldr	r3, .L166+28
ARM GAS  C:\Users\leopi\AppData\Local\Temp\ccntyKxi.s 			page 56


 2221 0076 D3ED006A 		vldr.32	s13, [r3]
 668:Core/Src/Main/Action.c **** 	while(start_angle + param->Theta1 > Angle)
 2222              		.loc 1 668 7 view .LVU702
 2223 007a F4EEE67A 		vcmpe.f32	s15, s13
 2224 007e F1EE10FA 		vmrs	APSR_nzcv, FPSCR
 2225 0082 ECDC     		bgt	.L153
 672:Core/Src/Main/Action.c **** 
 673:Core/Src/Main/Action.c **** 	}
 674:Core/Src/Main/Action.c **** 	AngularAcceleration = 0;
 2226              		.loc 1 674 2 is_stmt 1 view .LVU703
 2227              		.loc 1 674 22 is_stmt 0 view .LVU704
 2228 0084 0023     		movs	r3, #0
 2229 0086 3C4A     		ldr	r2, .L166+16
 2230 0088 1360     		str	r3, [r2]	@ float
 675:Core/Src/Main/Action.c **** 	AngularLeapsity = 0;
 2231              		.loc 1 675 2 is_stmt 1 view .LVU705
 2232              		.loc 1 675 18 is_stmt 0 view .LVU706
 2233 008a 3A4A     		ldr	r2, .L166+12
 2234 008c 1360     		str	r3, [r2]	@ float
 676:Core/Src/Main/Action.c **** 	while(start_angle + param->Theta2 > Angle)
 2235              		.loc 1 676 2 is_stmt 1 view .LVU707
 2236              		.loc 1 676 7 is_stmt 0 view .LVU708
 2237 008e 06E0     		b	.L154
 2238              	.L155:
 677:Core/Src/Main/Action.c **** 	{
 678:Core/Src/Main/Action.c **** 			TargetAngularV = TargetAngularV;
 2239              		.loc 1 678 4 is_stmt 1 view .LVU709
 2240              		.loc 1 678 19 is_stmt 0 view .LVU710
 2241 0090 374B     		ldr	r3, .L166+8
 2242 0092 1A68     		ldr	r2, [r3]	@ float
 2243 0094 1A60     		str	r2, [r3]	@ float
 679:Core/Src/Main/Action.c **** 			TargetVelocity[BODY] = ExploreVelocity;
 2244              		.loc 1 679 4 is_stmt 1 view .LVU711
 2245              		.loc 1 679 25 is_stmt 0 view .LVU712
 2246 0096 394B     		ldr	r3, .L166+20
 2247 0098 1A68     		ldr	r2, [r3]	@ float
 2248 009a 394B     		ldr	r3, .L166+24
 2249 009c 9A60     		str	r2, [r3, #8]	@ float
 2250              	.L154:
 676:Core/Src/Main/Action.c **** 	while(start_angle + param->Theta2 > Angle)
 2251              		.loc 1 676 7 is_stmt 1 view .LVU713
 676:Core/Src/Main/Action.c **** 	while(start_angle + param->Theta2 > Angle)
 2252              		.loc 1 676 27 is_stmt 0 view .LVU714
 2253 009e D0ED057A 		vldr.32	s15, [r0, #20]
 676:Core/Src/Main/Action.c **** 	while(start_angle + param->Theta2 > Angle)
 2254              		.loc 1 676 20 view .LVU715
 2255 00a2 77EE877A 		vadd.f32	s15, s15, s14
 676:Core/Src/Main/Action.c **** 	while(start_angle + param->Theta2 > Angle)
 2256              		.loc 1 676 36 view .LVU716
 2257 00a6 374B     		ldr	r3, .L166+28
 2258 00a8 D3ED006A 		vldr.32	s13, [r3]
 676:Core/Src/Main/Action.c **** 	while(start_angle + param->Theta2 > Angle)
 2259              		.loc 1 676 7 view .LVU717
 2260 00ac F4EEE67A 		vcmpe.f32	s15, s13
 2261 00b0 F1EE10FA 		vmrs	APSR_nzcv, FPSCR
 2262 00b4 ECDC     		bgt	.L155
 2263 00b6 03E0     		b	.L156
ARM GAS  C:\Users\leopi\AppData\Local\Temp\ccntyKxi.s 			page 57


 2264              	.L164:
 680:Core/Src/Main/Action.c **** 	}
 681:Core/Src/Main/Action.c **** 	while( start_angle + param->Theta3 > Angle)
 682:Core/Src/Main/Action.c **** 	{
 683:Core/Src/Main/Action.c **** 			AngularAcceleration = -param->Alpha;
 684:Core/Src/Main/Action.c **** 			if(TargetAngularV < 0)
 685:Core/Src/Main/Action.c **** 			{
 686:Core/Src/Main/Action.c **** 				TargetAngularV = 0;
 687:Core/Src/Main/Action.c **** 				break;
 688:Core/Src/Main/Action.c **** 			}
 689:Core/Src/Main/Action.c **** 			TargetVelocity[BODY] = ExploreVelocity;
 2265              		.loc 1 689 4 is_stmt 1 view .LVU718
 2266              		.loc 1 689 25 is_stmt 0 view .LVU719
 2267 00b8 304B     		ldr	r3, .L166+20
 2268 00ba 1A68     		ldr	r2, [r3]	@ float
 2269 00bc 304B     		ldr	r3, .L166+24
 2270 00be 9A60     		str	r2, [r3, #8]	@ float
 2271              	.L156:
 681:Core/Src/Main/Action.c **** 	{
 2272              		.loc 1 681 7 is_stmt 1 view .LVU720
 681:Core/Src/Main/Action.c **** 	{
 2273              		.loc 1 681 28 is_stmt 0 view .LVU721
 2274 00c0 D0ED066A 		vldr.32	s13, [r0, #24]
 681:Core/Src/Main/Action.c **** 	{
 2275              		.loc 1 681 21 view .LVU722
 2276 00c4 36EE876A 		vadd.f32	s12, s13, s14
 681:Core/Src/Main/Action.c **** 	{
 2277              		.loc 1 681 37 view .LVU723
 2278 00c8 2E4B     		ldr	r3, .L166+28
 2279 00ca D3ED007A 		vldr.32	s15, [r3]
 681:Core/Src/Main/Action.c **** 	{
 2280              		.loc 1 681 7 view .LVU724
 2281 00ce B4EEE76A 		vcmpe.f32	s12, s15
 2282 00d2 F1EE10FA 		vmrs	APSR_nzcv, FPSCR
 2283 00d6 10DD     		ble	.L159
 683:Core/Src/Main/Action.c **** 			if(TargetAngularV < 0)
 2284              		.loc 1 683 4 is_stmt 1 view .LVU725
 683:Core/Src/Main/Action.c **** 			if(TargetAngularV < 0)
 2285              		.loc 1 683 32 is_stmt 0 view .LVU726
 2286 00d8 D0ED027A 		vldr.32	s15, [r0, #8]
 683:Core/Src/Main/Action.c **** 			if(TargetAngularV < 0)
 2287              		.loc 1 683 26 view .LVU727
 2288 00dc F1EE677A 		vneg.f32	s15, s15
 683:Core/Src/Main/Action.c **** 			if(TargetAngularV < 0)
 2289              		.loc 1 683 24 view .LVU728
 2290 00e0 254B     		ldr	r3, .L166+16
 2291 00e2 C3ED007A 		vstr.32	s15, [r3]
 684:Core/Src/Main/Action.c **** 			{
 2292              		.loc 1 684 4 is_stmt 1 view .LVU729
 684:Core/Src/Main/Action.c **** 			{
 2293              		.loc 1 684 22 is_stmt 0 view .LVU730
 2294 00e6 224B     		ldr	r3, .L166+8
 2295 00e8 D3ED007A 		vldr.32	s15, [r3]
 684:Core/Src/Main/Action.c **** 			{
 2296              		.loc 1 684 6 view .LVU731
 2297 00ec F5EEC07A 		vcmpe.f32	s15, #0
 2298 00f0 F1EE10FA 		vmrs	APSR_nzcv, FPSCR
ARM GAS  C:\Users\leopi\AppData\Local\Temp\ccntyKxi.s 			page 58


 2299 00f4 E0D5     		bpl	.L164
 686:Core/Src/Main/Action.c **** 				break;
 2300              		.loc 1 686 5 is_stmt 1 view .LVU732
 686:Core/Src/Main/Action.c **** 				break;
 2301              		.loc 1 686 20 is_stmt 0 view .LVU733
 2302 00f6 0022     		movs	r2, #0
 2303 00f8 1A60     		str	r2, [r3]	@ float
 687:Core/Src/Main/Action.c **** 			}
 2304              		.loc 1 687 5 is_stmt 1 view .LVU734
 2305              	.L159:
 690:Core/Src/Main/Action.c **** 	}
 691:Core/Src/Main/Action.c **** 	AngularAcceleration = 0;
 2306              		.loc 1 691 2 view .LVU735
 2307              		.loc 1 691 22 is_stmt 0 view .LVU736
 2308 00fa 0023     		movs	r3, #0
 2309 00fc 1E4A     		ldr	r2, .L166+16
 2310 00fe 1360     		str	r3, [r2]	@ float
 692:Core/Src/Main/Action.c **** 	AngularLeapsity = 0;
 2311              		.loc 1 692 2 is_stmt 1 view .LVU737
 693:Core/Src/Main/Action.c **** 	TargetAngularV = 0;
 2312              		.loc 1 693 2 view .LVU738
 2313              		.loc 1 693 17 is_stmt 0 view .LVU739
 2314 0100 1B4A     		ldr	r2, .L166+8
 2315 0102 1360     		str	r3, [r2]	@ float
 694:Core/Src/Main/Action.c **** 	now_pulse = TotalPulse[LEFT] + TotalPulse[RIGHT];
 2316              		.loc 1 694 2 is_stmt 1 view .LVU740
 2317              		.loc 1 694 24 is_stmt 0 view .LVU741
 2318 0104 194A     		ldr	r2, .L166+4
 2319 0106 1368     		ldr	r3, [r2]
 2320              		.loc 1 694 43 view .LVU742
 2321 0108 5268     		ldr	r2, [r2, #4]
 2322              		.loc 1 694 12 view .LVU743
 2323 010a 1344     		add	r3, r3, r2
 2324 010c 06EE103A 		vmov	s12, r3	@ int
 2325              	.LVL139:
 695:Core/Src/Main/Action.c **** 	while( now_pulse + param->Fol > (TotalPulse[LEFT] + TotalPulse[RIGHT]) )
 2326              		.loc 1 695 2 is_stmt 1 view .LVU744
 2327              	.L161:
 2328              		.loc 1 695 7 view .LVU745
 2329              		.loc 1 695 26 is_stmt 0 view .LVU746
 2330 0110 D0ED017A 		vldr.32	s15, [r0, #4]
 2331              		.loc 1 695 19 view .LVU747
 2332 0114 B8EEC67A 		vcvt.f32.s32	s14, s12
 2333 0118 37EE277A 		vadd.f32	s14, s14, s15
 2334              		.loc 1 695 45 view .LVU748
 2335 011c 134A     		ldr	r2, .L166+4
 2336 011e 1368     		ldr	r3, [r2]
 2337              		.loc 1 695 64 view .LVU749
 2338 0120 5268     		ldr	r2, [r2, #4]
 2339              		.loc 1 695 52 view .LVU750
 2340 0122 1344     		add	r3, r3, r2
 2341              		.loc 1 695 32 view .LVU751
 2342 0124 07EE903A 		vmov	s15, r3	@ int
 2343 0128 F8EEE77A 		vcvt.f32.s32	s15, s15
 2344              		.loc 1 695 7 view .LVU752
 2345 012c B4EEE77A 		vcmpe.f32	s14, s15
 2346 0130 F1EE10FA 		vmrs	APSR_nzcv, FPSCR
ARM GAS  C:\Users\leopi\AppData\Local\Temp\ccntyKxi.s 			page 59


 2347 0134 07DD     		ble	.L165
 696:Core/Src/Main/Action.c **** 	{
 697:Core/Src/Main/Action.c **** 			TargetAngularV = 0;
 2348              		.loc 1 697 4 is_stmt 1 view .LVU753
 2349              		.loc 1 697 19 is_stmt 0 view .LVU754
 2350 0136 0E4B     		ldr	r3, .L166+8
 2351 0138 0022     		movs	r2, #0
 2352 013a 1A60     		str	r2, [r3]	@ float
 698:Core/Src/Main/Action.c **** 			TargetVelocity[BODY] = ExploreVelocity;
 2353              		.loc 1 698 4 is_stmt 1 view .LVU755
 2354              		.loc 1 698 25 is_stmt 0 view .LVU756
 2355 013c 0F4B     		ldr	r3, .L166+20
 2356 013e 1A68     		ldr	r2, [r3]	@ float
 2357 0140 0F4B     		ldr	r3, .L166+24
 2358 0142 9A60     		str	r2, [r3, #8]	@ float
 2359 0144 E4E7     		b	.L161
 2360              	.L165:
 699:Core/Src/Main/Action.c **** 	}
 700:Core/Src/Main/Action.c **** 	TargetAngle += param->Theta3;//90*M_PI/180; rad
 2361              		.loc 1 700 2 is_stmt 1 view .LVU757
 2362              		.loc 1 700 14 is_stmt 0 view .LVU758
 2363 0146 104B     		ldr	r3, .L166+32
 2364 0148 D3ED007A 		vldr.32	s15, [r3]
 2365 014c 76EEA76A 		vadd.f32	s13, s13, s15
 2366 0150 C3ED006A 		vstr.32	s13, [r3]
 701:Core/Src/Main/Action.c **** 	KeepPulse[BODY] += TotalPulse[BODY] - KeepPulse[BODY];
 2367              		.loc 1 701 2 is_stmt 1 view .LVU759
 2368              		.loc 1 701 31 is_stmt 0 view .LVU760
 2369 0154 054B     		ldr	r3, .L166+4
 2370 0156 9A68     		ldr	r2, [r3, #8]
 2371              		.loc 1 701 49 view .LVU761
 2372 0158 0C4B     		ldr	r3, .L166+36
 2373 015a 9968     		ldr	r1, [r3, #8]
 2374              		.loc 1 701 38 view .LVU762
 2375 015c 511A     		subs	r1, r2, r1
 2376              		.loc 1 701 18 view .LVU763
 2377 015e 9A68     		ldr	r2, [r3, #8]
 2378 0160 0A44     		add	r2, r2, r1
 2379 0162 9A60     		str	r2, [r3, #8]
 702:Core/Src/Main/Action.c **** 
 703:Core/Src/Main/Action.c **** }
 2380              		.loc 1 703 1 view .LVU764
 2381 0164 7047     		bx	lr
 2382              	.L167:
 2383 0166 00BF     		.align	2
 2384              	.L166:
 2385 0168 00000000 		.word	Pid
 2386 016c 00000000 		.word	TotalPulse
 2387 0170 00000000 		.word	TargetAngularV
 2388 0174 00000000 		.word	AngularLeapsity
 2389 0178 00000000 		.word	AngularAcceleration
 2390 017c 00000000 		.word	ExploreVelocity
 2391 0180 00000000 		.word	TargetVelocity
 2392 0184 00000000 		.word	Angle
 2393 0188 00000000 		.word	TargetAngle
 2394 018c 00000000 		.word	KeepPulse
 2395              		.cfi_endproc
ARM GAS  C:\Users\leopi\AppData\Local\Temp\ccntyKxi.s 			page 60


 2396              	.LFE246:
 2398              		.section	.text.SlalomFastLeft,"ax",%progbits
 2399              		.align	1
 2400              		.global	SlalomFastLeft
 2401              		.syntax unified
 2402              		.thumb
 2403              		.thumb_func
 2405              	SlalomFastLeft:
 2406              	.LVL140:
 2407              	.LFB247:
 704:Core/Src/Main/Action.c **** void SlalomFastLeft(slalom_parameter *param)	//ç¾åœ¨ã®é€Ÿåº¦ã‹ã‚‰ã€æœ€é©ãªè§’åŠ é€Ÿåº¦ã¨ã€ç
 705:Core/Src/Main/Action.c **** {
 2408              		.loc 1 705 1 is_stmt 1 view -0
 2409              		.cfi_startproc
 2410              		@ args = 0, pretend = 0, frame = 0
 2411              		@ frame_needed = 0, uses_anonymous_args = 0
 2412              		@ link register save eliminated.
 706:Core/Src/Main/Action.c **** 	Pid[A_VELO_PID].flag = 1;
 2413              		.loc 1 706 2 view .LVU766
 2414              		.loc 1 706 23 is_stmt 0 view .LVU767
 2415 0000 584B     		ldr	r3, .L185
 2416 0002 0122     		movs	r2, #1
 2417 0004 9A62     		str	r2, [r3, #40]
 707:Core/Src/Main/Action.c **** 	//ä¸€æ—¦å‰å£è£œæ­£ãªã—ã§
 708:Core/Src/Main/Action.c **** 	int now_pulse;
 2418              		.loc 1 708 2 is_stmt 1 view .LVU768
 709:Core/Src/Main/Action.c **** 
 710:Core/Src/Main/Action.c **** 	now_pulse = TotalPulse[LEFT] + TotalPulse[RIGHT];
 2419              		.loc 1 710 2 view .LVU769
 2420              		.loc 1 710 24 is_stmt 0 view .LVU770
 2421 0006 584A     		ldr	r2, .L185+4
 2422 0008 1368     		ldr	r3, [r2]
 2423              		.loc 1 710 43 view .LVU771
 2424 000a 5268     		ldr	r2, [r2, #4]
 2425              		.loc 1 710 12 view .LVU772
 2426 000c 1344     		add	r3, r3, r2
 2427 000e 06EE903A 		vmov	s13, r3	@ int
 2428              	.LVL141:
 711:Core/Src/Main/Action.c **** 		while( now_pulse + param->Pre  > (TotalPulse[LEFT] + TotalPulse[RIGHT]) ) //ç§»å‹•é‡ã‚’æ¡ä»¶ã«
 2429              		.loc 1 711 3 is_stmt 1 view .LVU773
 2430              		.loc 1 711 8 is_stmt 0 view .LVU774
 2431 0012 08E0     		b	.L169
 2432              	.LVL142:
 2433              	.L170:
 712:Core/Src/Main/Action.c **** 		{
 713:Core/Src/Main/Action.c **** 				TargetAngularV = 0;
 2434              		.loc 1 713 5 is_stmt 1 view .LVU775
 2435              		.loc 1 713 20 is_stmt 0 view .LVU776
 2436 0014 0023     		movs	r3, #0
 2437 0016 554A     		ldr	r2, .L185+8
 2438 0018 1360     		str	r3, [r2]	@ float
 714:Core/Src/Main/Action.c **** 				AngularAcceleration = 0;
 2439              		.loc 1 714 5 is_stmt 1 view .LVU777
 2440              		.loc 1 714 25 is_stmt 0 view .LVU778
 2441 001a 554A     		ldr	r2, .L185+12
 2442 001c 1360     		str	r3, [r2]	@ float
 715:Core/Src/Main/Action.c **** 				TargetVelocity[BODY] = ExploreVelocity;
ARM GAS  C:\Users\leopi\AppData\Local\Temp\ccntyKxi.s 			page 61


 2443              		.loc 1 715 5 is_stmt 1 view .LVU779
 2444              		.loc 1 715 26 is_stmt 0 view .LVU780
 2445 001e 554B     		ldr	r3, .L185+16
 2446 0020 1A68     		ldr	r2, [r3]	@ float
 2447 0022 554B     		ldr	r3, .L185+20
 2448 0024 9A60     		str	r2, [r3, #8]	@ float
 2449              	.L169:
 711:Core/Src/Main/Action.c **** 		{
 2450              		.loc 1 711 8 is_stmt 1 view .LVU781
 711:Core/Src/Main/Action.c **** 		{
 2451              		.loc 1 711 27 is_stmt 0 view .LVU782
 2452 0026 D0ED007A 		vldr.32	s15, [r0]
 711:Core/Src/Main/Action.c **** 		{
 2453              		.loc 1 711 20 view .LVU783
 2454 002a B8EEE67A 		vcvt.f32.s32	s14, s13
 2455 002e 37EE277A 		vadd.f32	s14, s14, s15
 711:Core/Src/Main/Action.c **** 		{
 2456              		.loc 1 711 47 view .LVU784
 2457 0032 4D4A     		ldr	r2, .L185+4
 2458 0034 1368     		ldr	r3, [r2]
 711:Core/Src/Main/Action.c **** 		{
 2459              		.loc 1 711 66 view .LVU785
 2460 0036 5268     		ldr	r2, [r2, #4]
 711:Core/Src/Main/Action.c **** 		{
 2461              		.loc 1 711 54 view .LVU786
 2462 0038 1344     		add	r3, r3, r2
 711:Core/Src/Main/Action.c **** 		{
 2463              		.loc 1 711 34 view .LVU787
 2464 003a 07EE903A 		vmov	s15, r3	@ int
 2465 003e F8EEE77A 		vcvt.f32.s32	s15, s15
 711:Core/Src/Main/Action.c **** 		{
 2466              		.loc 1 711 8 view .LVU788
 2467 0042 B4EEE77A 		vcmpe.f32	s14, s15
 2468 0046 F1EE10FA 		vmrs	APSR_nzcv, FPSCR
 2469 004a E3DC     		bgt	.L170
 716:Core/Src/Main/Action.c **** 		}
 717:Core/Src/Main/Action.c **** 	Pid[A_VELO_PID].flag = 0;
 2470              		.loc 1 717 2 is_stmt 1 view .LVU789
 2471              		.loc 1 717 23 is_stmt 0 view .LVU790
 2472 004c 454B     		ldr	r3, .L185
 2473 004e 0022     		movs	r2, #0
 2474 0050 9A62     		str	r2, [r3, #40]
 718:Core/Src/Main/Action.c **** 	float start_angle = Angle;
 2475              		.loc 1 718 2 is_stmt 1 view .LVU791
 2476              		.loc 1 718 8 is_stmt 0 view .LVU792
 2477 0052 4A4B     		ldr	r3, .L185+24
 2478 0054 93ED007A 		vldr.32	s14, [r3]
 2479              	.LVL143:
 719:Core/Src/Main/Action.c **** 	while(start_angle - param->Theta1 < Angle)
 2480              		.loc 1 719 2 is_stmt 1 view .LVU793
 2481              		.loc 1 719 7 is_stmt 0 view .LVU794
 2482 0058 0AE0     		b	.L171
 2483              	.LVL144:
 2484              	.L172:
 720:Core/Src/Main/Action.c **** 	{
 721:Core/Src/Main/Action.c **** 			AngularAcceleration = -param->Alpha;
 2485              		.loc 1 721 4 is_stmt 1 view .LVU795
ARM GAS  C:\Users\leopi\AppData\Local\Temp\ccntyKxi.s 			page 62


 2486              		.loc 1 721 32 is_stmt 0 view .LVU796
 2487 005a D0ED027A 		vldr.32	s15, [r0, #8]
 2488              		.loc 1 721 26 view .LVU797
 2489 005e F1EE677A 		vneg.f32	s15, s15
 2490              		.loc 1 721 24 view .LVU798
 2491 0062 434B     		ldr	r3, .L185+12
 2492 0064 C3ED007A 		vstr.32	s15, [r3]
 722:Core/Src/Main/Action.c **** 			TargetVelocity[BODY] = ExploreVelocity;
 2493              		.loc 1 722 4 is_stmt 1 view .LVU799
 2494              		.loc 1 722 25 is_stmt 0 view .LVU800
 2495 0068 424B     		ldr	r3, .L185+16
 2496 006a 1A68     		ldr	r2, [r3]	@ float
 2497 006c 424B     		ldr	r3, .L185+20
 2498 006e 9A60     		str	r2, [r3, #8]	@ float
 2499              	.L171:
 719:Core/Src/Main/Action.c **** 	while(start_angle - param->Theta1 < Angle)
 2500              		.loc 1 719 7 is_stmt 1 view .LVU801
 719:Core/Src/Main/Action.c **** 	while(start_angle - param->Theta1 < Angle)
 2501              		.loc 1 719 27 is_stmt 0 view .LVU802
 2502 0070 D0ED047A 		vldr.32	s15, [r0, #16]
 719:Core/Src/Main/Action.c **** 	while(start_angle - param->Theta1 < Angle)
 2503              		.loc 1 719 20 view .LVU803
 2504 0074 77EE677A 		vsub.f32	s15, s14, s15
 719:Core/Src/Main/Action.c **** 	while(start_angle - param->Theta1 < Angle)
 2505              		.loc 1 719 36 view .LVU804
 2506 0078 404B     		ldr	r3, .L185+24
 2507 007a D3ED006A 		vldr.32	s13, [r3]
 719:Core/Src/Main/Action.c **** 	while(start_angle - param->Theta1 < Angle)
 2508              		.loc 1 719 7 view .LVU805
 2509 007e F4EEE67A 		vcmpe.f32	s15, s13
 2510 0082 F1EE10FA 		vmrs	APSR_nzcv, FPSCR
 2511 0086 E8D4     		bmi	.L172
 723:Core/Src/Main/Action.c **** 	}
 724:Core/Src/Main/Action.c **** 	AngularAcceleration = 0;
 2512              		.loc 1 724 2 is_stmt 1 view .LVU806
 2513              		.loc 1 724 22 is_stmt 0 view .LVU807
 2514 0088 0023     		movs	r3, #0
 2515 008a 394A     		ldr	r2, .L185+12
 2516 008c 1360     		str	r3, [r2]	@ float
 725:Core/Src/Main/Action.c **** 	AngularLeapsity = 0;
 2517              		.loc 1 725 2 is_stmt 1 view .LVU808
 2518              		.loc 1 725 18 is_stmt 0 view .LVU809
 2519 008e 3C4A     		ldr	r2, .L185+28
 2520 0090 1360     		str	r3, [r2]	@ float
 726:Core/Src/Main/Action.c **** 	while(start_angle - param->Theta2 < Angle)
 2521              		.loc 1 726 2 is_stmt 1 view .LVU810
 2522              		.loc 1 726 7 is_stmt 0 view .LVU811
 2523 0092 06E0     		b	.L173
 2524              	.L174:
 727:Core/Src/Main/Action.c **** 	{
 728:Core/Src/Main/Action.c **** 			TargetAngularV = TargetAngularV;
 2525              		.loc 1 728 4 is_stmt 1 view .LVU812
 2526              		.loc 1 728 19 is_stmt 0 view .LVU813
 2527 0094 354B     		ldr	r3, .L185+8
 2528 0096 1A68     		ldr	r2, [r3]	@ float
 2529 0098 1A60     		str	r2, [r3]	@ float
 729:Core/Src/Main/Action.c **** 			TargetVelocity[BODY] = ExploreVelocity;
ARM GAS  C:\Users\leopi\AppData\Local\Temp\ccntyKxi.s 			page 63


 2530              		.loc 1 729 4 is_stmt 1 view .LVU814
 2531              		.loc 1 729 25 is_stmt 0 view .LVU815
 2532 009a 364B     		ldr	r3, .L185+16
 2533 009c 1A68     		ldr	r2, [r3]	@ float
 2534 009e 364B     		ldr	r3, .L185+20
 2535 00a0 9A60     		str	r2, [r3, #8]	@ float
 2536              	.L173:
 726:Core/Src/Main/Action.c **** 	while(start_angle - param->Theta2 < Angle)
 2537              		.loc 1 726 7 is_stmt 1 view .LVU816
 726:Core/Src/Main/Action.c **** 	while(start_angle - param->Theta2 < Angle)
 2538              		.loc 1 726 27 is_stmt 0 view .LVU817
 2539 00a2 D0ED057A 		vldr.32	s15, [r0, #20]
 726:Core/Src/Main/Action.c **** 	while(start_angle - param->Theta2 < Angle)
 2540              		.loc 1 726 20 view .LVU818
 2541 00a6 77EE677A 		vsub.f32	s15, s14, s15
 726:Core/Src/Main/Action.c **** 	while(start_angle - param->Theta2 < Angle)
 2542              		.loc 1 726 36 view .LVU819
 2543 00aa 344B     		ldr	r3, .L185+24
 2544 00ac D3ED006A 		vldr.32	s13, [r3]
 726:Core/Src/Main/Action.c **** 	while(start_angle - param->Theta2 < Angle)
 2545              		.loc 1 726 7 view .LVU820
 2546 00b0 F4EEE67A 		vcmpe.f32	s15, s13
 2547 00b4 F1EE10FA 		vmrs	APSR_nzcv, FPSCR
 2548 00b8 ECD4     		bmi	.L174
 2549 00ba 03E0     		b	.L175
 2550              	.L183:
 730:Core/Src/Main/Action.c **** 	}
 731:Core/Src/Main/Action.c **** 
 732:Core/Src/Main/Action.c **** 	while( start_angle - param->Theta3 < Angle)
 733:Core/Src/Main/Action.c **** 	{
 734:Core/Src/Main/Action.c **** 			AngularAcceleration = param->Alpha;
 735:Core/Src/Main/Action.c **** 			if(TargetAngularV > 0)
 736:Core/Src/Main/Action.c **** 			{
 737:Core/Src/Main/Action.c **** 				TargetAngularV = 0;
 738:Core/Src/Main/Action.c **** 				break;
 739:Core/Src/Main/Action.c **** 			}
 740:Core/Src/Main/Action.c **** 			TargetVelocity[BODY] = ExploreVelocity;
 2551              		.loc 1 740 4 is_stmt 1 view .LVU821
 2552              		.loc 1 740 25 is_stmt 0 view .LVU822
 2553 00bc 2D4B     		ldr	r3, .L185+16
 2554 00be 1A68     		ldr	r2, [r3]	@ float
 2555 00c0 2D4B     		ldr	r3, .L185+20
 2556 00c2 9A60     		str	r2, [r3, #8]	@ float
 2557              	.L175:
 732:Core/Src/Main/Action.c **** 	{
 2558              		.loc 1 732 7 is_stmt 1 view .LVU823
 732:Core/Src/Main/Action.c **** 	{
 2559              		.loc 1 732 28 is_stmt 0 view .LVU824
 2560 00c4 D0ED066A 		vldr.32	s13, [r0, #24]
 732:Core/Src/Main/Action.c **** 	{
 2561              		.loc 1 732 21 view .LVU825
 2562 00c8 37EE666A 		vsub.f32	s12, s14, s13
 732:Core/Src/Main/Action.c **** 	{
 2563              		.loc 1 732 37 view .LVU826
 2564 00cc 2B4B     		ldr	r3, .L185+24
 2565 00ce D3ED007A 		vldr.32	s15, [r3]
 732:Core/Src/Main/Action.c **** 	{
ARM GAS  C:\Users\leopi\AppData\Local\Temp\ccntyKxi.s 			page 64


 2566              		.loc 1 732 7 view .LVU827
 2567 00d2 B4EEE76A 		vcmpe.f32	s12, s15
 2568 00d6 F1EE10FA 		vmrs	APSR_nzcv, FPSCR
 2569 00da 0CD5     		bpl	.L178
 734:Core/Src/Main/Action.c **** 			if(TargetAngularV > 0)
 2570              		.loc 1 734 4 is_stmt 1 view .LVU828
 734:Core/Src/Main/Action.c **** 			if(TargetAngularV > 0)
 2571              		.loc 1 734 31 is_stmt 0 view .LVU829
 2572 00dc 8268     		ldr	r2, [r0, #8]	@ float
 734:Core/Src/Main/Action.c **** 			if(TargetAngularV > 0)
 2573              		.loc 1 734 24 view .LVU830
 2574 00de 244B     		ldr	r3, .L185+12
 2575 00e0 1A60     		str	r2, [r3]	@ float
 735:Core/Src/Main/Action.c **** 			{
 2576              		.loc 1 735 4 is_stmt 1 view .LVU831
 735:Core/Src/Main/Action.c **** 			{
 2577              		.loc 1 735 22 is_stmt 0 view .LVU832
 2578 00e2 224B     		ldr	r3, .L185+8
 2579 00e4 D3ED007A 		vldr.32	s15, [r3]
 735:Core/Src/Main/Action.c **** 			{
 2580              		.loc 1 735 6 view .LVU833
 2581 00e8 F5EEC07A 		vcmpe.f32	s15, #0
 2582 00ec F1EE10FA 		vmrs	APSR_nzcv, FPSCR
 2583 00f0 E4DD     		ble	.L183
 737:Core/Src/Main/Action.c **** 				break;
 2584              		.loc 1 737 5 is_stmt 1 view .LVU834
 737:Core/Src/Main/Action.c **** 				break;
 2585              		.loc 1 737 20 is_stmt 0 view .LVU835
 2586 00f2 0022     		movs	r2, #0
 2587 00f4 1A60     		str	r2, [r3]	@ float
 738:Core/Src/Main/Action.c **** 			}
 2588              		.loc 1 738 5 is_stmt 1 view .LVU836
 2589              	.L178:
 741:Core/Src/Main/Action.c **** 	}
 742:Core/Src/Main/Action.c **** 	AngularAcceleration = 0;
 2590              		.loc 1 742 2 view .LVU837
 2591              		.loc 1 742 22 is_stmt 0 view .LVU838
 2592 00f6 0023     		movs	r3, #0
 2593 00f8 1D4A     		ldr	r2, .L185+12
 2594 00fa 1360     		str	r3, [r2]	@ float
 743:Core/Src/Main/Action.c **** 	AngularLeapsity = 0;
 2595              		.loc 1 743 2 is_stmt 1 view .LVU839
 744:Core/Src/Main/Action.c **** 	TargetAngularV = 0;
 2596              		.loc 1 744 2 view .LVU840
 2597              		.loc 1 744 17 is_stmt 0 view .LVU841
 2598 00fc 1B4A     		ldr	r2, .L185+8
 2599 00fe 1360     		str	r3, [r2]	@ float
 745:Core/Src/Main/Action.c **** 
 746:Core/Src/Main/Action.c **** 	now_pulse = TotalPulse[LEFT] + TotalPulse[RIGHT];
 2600              		.loc 1 746 2 is_stmt 1 view .LVU842
 2601              		.loc 1 746 24 is_stmt 0 view .LVU843
 2602 0100 194A     		ldr	r2, .L185+4
 2603 0102 1368     		ldr	r3, [r2]
 2604              		.loc 1 746 43 view .LVU844
 2605 0104 5268     		ldr	r2, [r2, #4]
 2606              		.loc 1 746 12 view .LVU845
 2607 0106 1344     		add	r3, r3, r2
ARM GAS  C:\Users\leopi\AppData\Local\Temp\ccntyKxi.s 			page 65


 2608 0108 06EE103A 		vmov	s12, r3	@ int
 2609              	.LVL145:
 747:Core/Src/Main/Action.c **** 	while( now_pulse + param->Fol > (TotalPulse[LEFT] + TotalPulse[RIGHT]) )
 2610              		.loc 1 747 2 is_stmt 1 view .LVU846
 2611              	.L180:
 2612              		.loc 1 747 7 view .LVU847
 2613              		.loc 1 747 26 is_stmt 0 view .LVU848
 2614 010c D0ED017A 		vldr.32	s15, [r0, #4]
 2615              		.loc 1 747 19 view .LVU849
 2616 0110 B8EEC67A 		vcvt.f32.s32	s14, s12
 2617 0114 37EE277A 		vadd.f32	s14, s14, s15
 2618              		.loc 1 747 45 view .LVU850
 2619 0118 134A     		ldr	r2, .L185+4
 2620 011a 1368     		ldr	r3, [r2]
 2621              		.loc 1 747 64 view .LVU851
 2622 011c 5268     		ldr	r2, [r2, #4]
 2623              		.loc 1 747 52 view .LVU852
 2624 011e 1344     		add	r3, r3, r2
 2625              		.loc 1 747 32 view .LVU853
 2626 0120 07EE903A 		vmov	s15, r3	@ int
 2627 0124 F8EEE77A 		vcvt.f32.s32	s15, s15
 2628              		.loc 1 747 7 view .LVU854
 2629 0128 B4EEE77A 		vcmpe.f32	s14, s15
 2630 012c F1EE10FA 		vmrs	APSR_nzcv, FPSCR
 2631 0130 07DD     		ble	.L184
 748:Core/Src/Main/Action.c **** 	{
 749:Core/Src/Main/Action.c **** 			TargetAngularV = 0;
 2632              		.loc 1 749 4 is_stmt 1 view .LVU855
 2633              		.loc 1 749 19 is_stmt 0 view .LVU856
 2634 0132 0E4B     		ldr	r3, .L185+8
 2635 0134 0022     		movs	r2, #0
 2636 0136 1A60     		str	r2, [r3]	@ float
 750:Core/Src/Main/Action.c **** 			TargetVelocity[BODY] = ExploreVelocity;
 2637              		.loc 1 750 4 is_stmt 1 view .LVU857
 2638              		.loc 1 750 25 is_stmt 0 view .LVU858
 2639 0138 0E4B     		ldr	r3, .L185+16
 2640 013a 1A68     		ldr	r2, [r3]	@ float
 2641 013c 0E4B     		ldr	r3, .L185+20
 2642 013e 9A60     		str	r2, [r3, #8]	@ float
 2643 0140 E4E7     		b	.L180
 2644              	.L184:
 751:Core/Src/Main/Action.c **** 	}
 752:Core/Src/Main/Action.c **** 	TargetAngle += -param->Theta3;//-90*M_PI/180;
 2645              		.loc 1 752 2 is_stmt 1 view .LVU859
 2646              		.loc 1 752 14 is_stmt 0 view .LVU860
 2647 0142 104B     		ldr	r3, .L185+32
 2648 0144 D3ED007A 		vldr.32	s15, [r3]
 2649 0148 77EEE66A 		vsub.f32	s13, s15, s13
 2650 014c C3ED006A 		vstr.32	s13, [r3]
 753:Core/Src/Main/Action.c **** 	KeepPulse[BODY] += TotalPulse[BODY] - KeepPulse[BODY];
 2651              		.loc 1 753 2 is_stmt 1 view .LVU861
 2652              		.loc 1 753 31 is_stmt 0 view .LVU862
 2653 0150 054B     		ldr	r3, .L185+4
 2654 0152 9A68     		ldr	r2, [r3, #8]
 2655              		.loc 1 753 49 view .LVU863
 2656 0154 0C4B     		ldr	r3, .L185+36
 2657 0156 9968     		ldr	r1, [r3, #8]
ARM GAS  C:\Users\leopi\AppData\Local\Temp\ccntyKxi.s 			page 66


 2658              		.loc 1 753 38 view .LVU864
 2659 0158 511A     		subs	r1, r2, r1
 2660              		.loc 1 753 18 view .LVU865
 2661 015a 9A68     		ldr	r2, [r3, #8]
 2662 015c 0A44     		add	r2, r2, r1
 2663 015e 9A60     		str	r2, [r3, #8]
 754:Core/Src/Main/Action.c **** }
 2664              		.loc 1 754 1 view .LVU866
 2665 0160 7047     		bx	lr
 2666              	.L186:
 2667 0162 00BF     		.align	2
 2668              	.L185:
 2669 0164 00000000 		.word	Pid
 2670 0168 00000000 		.word	TotalPulse
 2671 016c 00000000 		.word	TargetAngularV
 2672 0170 00000000 		.word	AngularAcceleration
 2673 0174 00000000 		.word	ExploreVelocity
 2674 0178 00000000 		.word	TargetVelocity
 2675 017c 00000000 		.word	Angle
 2676 0180 00000000 		.word	AngularLeapsity
 2677 0184 00000000 		.word	TargetAngle
 2678 0188 00000000 		.word	KeepPulse
 2679              		.cfi_endproc
 2680              	.LFE247:
 2682              		.global	__aeabi_i2d
 2683              		.global	__aeabi_dcmplt
 2684              		.section	.text.Accel,"ax",%progbits
 2685              		.align	1
 2686              		.global	Accel
 2687              		.syntax unified
 2688              		.thumb
 2689              		.thumb_func
 2691              	Accel:
 2692              	.LVL146:
 2693              	.LFB248:
 755:Core/Src/Main/Action.c **** void Accel(float add_distance, float explore_speed, maze_node *maze, profile *mouse)
 756:Core/Src/Main/Action.c **** {
 2694              		.loc 1 756 1 is_stmt 1 view -0
 2695              		.cfi_startproc
 2696              		@ args = 0, pretend = 0, frame = 0
 2697              		@ frame_needed = 0, uses_anonymous_args = 0
 2698              		.loc 1 756 1 is_stmt 0 view .LVU868
 2699 0000 2DE9F843 		push	{r3, r4, r5, r6, r7, r8, r9, lr}
 2700              	.LCFI16:
 2701              		.cfi_def_cfa_offset 32
 2702              		.cfi_offset 3, -32
 2703              		.cfi_offset 4, -28
 2704              		.cfi_offset 5, -24
 2705              		.cfi_offset 6, -20
 2706              		.cfi_offset 7, -16
 2707              		.cfi_offset 8, -12
 2708              		.cfi_offset 9, -8
 2709              		.cfi_offset 14, -4
 2710 0004 2DED028B 		vpush.64	{d8}
 2711              	.LCFI17:
 2712              		.cfi_def_cfa_offset 40
 2713              		.cfi_offset 80, -40
ARM GAS  C:\Users\leopi\AppData\Local\Temp\ccntyKxi.s 			page 67


 2714              		.cfi_offset 81, -36
 2715 0008 B0EE608A 		vmov.f32	s16, s1
 2716 000c 8046     		mov	r8, r0
 2717 000e 8946     		mov	r9, r1
 757:Core/Src/Main/Action.c **** 	TargetAngularV = 0;
 2718              		.loc 1 757 2 is_stmt 1 view .LVU869
 2719              		.loc 1 757 17 is_stmt 0 view .LVU870
 2720 0010 414B     		ldr	r3, .L199+8
 2721 0012 0022     		movs	r2, #0
 2722 0014 1A60     		str	r2, [r3]	@ float
 758:Core/Src/Main/Action.c **** #if 0
 759:Core/Src/Main/Action.c **** 	float additional_speed=0;
 760:Core/Src/Main/Action.c **** 	additional_speed = explore_speed - CurrentVelocity[BODY];
 761:Core/Src/Main/Action.c **** 
 762:Core/Src/Main/Action.c **** 	Acceleration = T1*additional_speed*additional_speed / (2*add_distance);
 763:Core/Src/Main/Action.c **** #else
 764:Core/Src/Main/Action.c **** 	Acceleration = 2.89000f;
 2723              		.loc 1 764 2 is_stmt 1 view .LVU871
 2724              		.loc 1 764 15 is_stmt 0 view .LVU872
 2725 0016 414B     		ldr	r3, .L199+12
 2726 0018 414A     		ldr	r2, .L199+16
 2727 001a 1A60     		str	r2, [r3]	@ float
 765:Core/Src/Main/Action.c **** #endif
 766:Core/Src/Main/Action.c **** 	int target_pulse = (int)(add_distance*TO_PULSE);
 2728              		.loc 1 766 2 is_stmt 1 view .LVU873
 2729              		.loc 1 766 39 is_stmt 0 view .LVU874
 2730 001c DFED417A 		vldr.32	s15, .L199+20
 2731 0020 20EE270A 		vmul.f32	s0, s0, s15
 2732              	.LVL147:
 2733              		.loc 1 766 6 view .LVU875
 2734 0024 FDEEC07A 		vcvt.s32.f32	s15, s0
 2735 0028 17EE906A 		vmov	r6, s15	@ int
 2736              	.LVL148:
 767:Core/Src/Main/Action.c **** 
 768:Core/Src/Main/Action.c **** 	_Bool wall_cut = false;
 2737              		.loc 1 768 2 is_stmt 1 view .LVU876
 769:Core/Src/Main/Action.c **** 	Pid[A_VELO_PID].flag = 1;
 2738              		.loc 1 769 2 view .LVU877
 2739              		.loc 1 769 23 is_stmt 0 view .LVU878
 2740 002c 3E4B     		ldr	r3, .L199+24
 2741 002e 0122     		movs	r2, #1
 2742 0030 9A62     		str	r2, [r3, #40]
 770:Core/Src/Main/Action.c **** 	while( ( KeepPulse[BODY] + target_pulse) > ( TotalPulse[BODY] ) )
 2743              		.loc 1 770 2 is_stmt 1 view .LVU879
 2744              		.loc 1 770 7 is_stmt 0 view .LVU880
 2745 0032 07E0     		b	.L191
 2746              	.LVL149:
 2747              	.L189:
 771:Core/Src/Main/Action.c **** 	{
 772:Core/Src/Main/Action.c **** 		if(KeepPulse[BODY] + (target_pulse*0.80) < TotalPulse[BODY] && Calc == 0)
 773:Core/Src/Main/Action.c **** 		{
 774:Core/Src/Main/Action.c **** 			getWallState(mouse, &Photo[0], maze);
 775:Core/Src/Main/Action.c **** 			Calc = 1;
 776:Core/Src/Main/Action.c **** 		}
 777:Core/Src/Main/Action.c **** 		if(TargetVelocity[BODY] > explore_speed)
 2748              		.loc 1 777 3 is_stmt 1 view .LVU881
 2749              		.loc 1 777 20 is_stmt 0 view .LVU882
ARM GAS  C:\Users\leopi\AppData\Local\Temp\ccntyKxi.s 			page 68


 2750 0034 3D4B     		ldr	r3, .L199+28
 2751 0036 D3ED027A 		vldr.32	s15, [r3, #8]
 2752              		.loc 1 777 5 view .LVU883
 2753 003a F4EEC87A 		vcmpe.f32	s15, s16
 2754 003e F1EE10FA 		vmrs	APSR_nzcv, FPSCR
 2755 0042 34DC     		bgt	.L197
 2756              	.L191:
 770:Core/Src/Main/Action.c **** 	while( ( KeepPulse[BODY] + target_pulse) > ( TotalPulse[BODY] ) )
 2757              		.loc 1 770 7 is_stmt 1 view .LVU884
 770:Core/Src/Main/Action.c **** 	while( ( KeepPulse[BODY] + target_pulse) > ( TotalPulse[BODY] ) )
 2758              		.loc 1 770 20 is_stmt 0 view .LVU885
 2759 0044 3A4B     		ldr	r3, .L199+32
 2760 0046 9B68     		ldr	r3, [r3, #8]
 770:Core/Src/Main/Action.c **** 	while( ( KeepPulse[BODY] + target_pulse) > ( TotalPulse[BODY] ) )
 2761              		.loc 1 770 27 view .LVU886
 2762 0048 3344     		add	r3, r3, r6
 770:Core/Src/Main/Action.c **** 	while( ( KeepPulse[BODY] + target_pulse) > ( TotalPulse[BODY] ) )
 2763              		.loc 1 770 57 view .LVU887
 2764 004a 3A4A     		ldr	r2, .L199+36
 2765 004c 9268     		ldr	r2, [r2, #8]
 770:Core/Src/Main/Action.c **** 	while( ( KeepPulse[BODY] + target_pulse) > ( TotalPulse[BODY] ) )
 2766              		.loc 1 770 7 view .LVU888
 2767 004e 9342     		cmp	r3, r2
 2768 0050 34DD     		ble	.L198
 772:Core/Src/Main/Action.c **** 		{
 2769              		.loc 1 772 3 is_stmt 1 view .LVU889
 772:Core/Src/Main/Action.c **** 		{
 2770              		.loc 1 772 15 is_stmt 0 view .LVU890
 2771 0052 374B     		ldr	r3, .L199+32
 2772 0054 9F68     		ldr	r7, [r3, #8]
 772:Core/Src/Main/Action.c **** 		{
 2773              		.loc 1 772 37 view .LVU891
 2774 0056 3046     		mov	r0, r6
 2775 0058 FFF7FEFF 		bl	__aeabi_i2d
 2776              	.LVL150:
 2777 005c 2CA3     		adr	r3, .L199
 2778 005e D3E90023 		ldrd	r2, [r3]
 2779 0062 FFF7FEFF 		bl	__aeabi_dmul
 2780              	.LVL151:
 2781 0066 0446     		mov	r4, r0
 2782 0068 0D46     		mov	r5, r1
 772:Core/Src/Main/Action.c **** 		{
 2783              		.loc 1 772 22 view .LVU892
 2784 006a 3846     		mov	r0, r7
 2785 006c FFF7FEFF 		bl	__aeabi_i2d
 2786              	.LVL152:
 2787 0070 2246     		mov	r2, r4
 2788 0072 2B46     		mov	r3, r5
 2789 0074 FFF7FEFF 		bl	__aeabi_dadd
 2790              	.LVL153:
 2791 0078 0446     		mov	r4, r0
 2792 007a 0D46     		mov	r5, r1
 772:Core/Src/Main/Action.c **** 		{
 2793              		.loc 1 772 56 view .LVU893
 2794 007c 2D4B     		ldr	r3, .L199+36
 2795 007e 9868     		ldr	r0, [r3, #8]
 772:Core/Src/Main/Action.c **** 		{
ARM GAS  C:\Users\leopi\AppData\Local\Temp\ccntyKxi.s 			page 69


 2796              		.loc 1 772 44 view .LVU894
 2797 0080 FFF7FEFF 		bl	__aeabi_i2d
 2798              	.LVL154:
 2799 0084 0246     		mov	r2, r0
 2800 0086 0B46     		mov	r3, r1
 772:Core/Src/Main/Action.c **** 		{
 2801              		.loc 1 772 5 view .LVU895
 2802 0088 2046     		mov	r0, r4
 2803 008a 2946     		mov	r1, r5
 2804 008c FFF7FEFF 		bl	__aeabi_dcmplt
 2805              	.LVL155:
 2806 0090 0028     		cmp	r0, #0
 2807 0092 CFD0     		beq	.L189
 772:Core/Src/Main/Action.c **** 		{
 2808              		.loc 1 772 71 discriminator 1 view .LVU896
 2809 0094 284B     		ldr	r3, .L199+40
 2810 0096 1B68     		ldr	r3, [r3]
 772:Core/Src/Main/Action.c **** 		{
 2811              		.loc 1 772 63 discriminator 1 view .LVU897
 2812 0098 002B     		cmp	r3, #0
 2813 009a CBD1     		bne	.L189
 774:Core/Src/Main/Action.c **** 			Calc = 1;
 2814              		.loc 1 774 4 is_stmt 1 view .LVU898
 2815 009c 4246     		mov	r2, r8
 2816 009e 2749     		ldr	r1, .L199+44
 2817 00a0 4846     		mov	r0, r9
 2818 00a2 FFF7FEFF 		bl	getWallState
 2819              	.LVL156:
 775:Core/Src/Main/Action.c **** 		}
 2820              		.loc 1 775 4 view .LVU899
 775:Core/Src/Main/Action.c **** 		}
 2821              		.loc 1 775 9 is_stmt 0 view .LVU900
 2822 00a6 244B     		ldr	r3, .L199+40
 2823 00a8 0122     		movs	r2, #1
 2824 00aa 1A60     		str	r2, [r3]
 2825 00ac C2E7     		b	.L189
 2826              	.L197:
 778:Core/Src/Main/Action.c **** 		{
 779:Core/Src/Main/Action.c **** 			Acceleration = 0;
 2827              		.loc 1 779 4 is_stmt 1 view .LVU901
 2828              		.loc 1 779 17 is_stmt 0 view .LVU902
 2829 00ae 1B4B     		ldr	r3, .L199+12
 2830 00b0 0022     		movs	r2, #0
 2831 00b2 1A60     		str	r2, [r3]	@ float
 780:Core/Src/Main/Action.c **** 			TargetVelocity[BODY] = explore_speed;
 2832              		.loc 1 780 4 is_stmt 1 view .LVU903
 2833              		.loc 1 780 25 is_stmt 0 view .LVU904
 2834 00b4 1D4B     		ldr	r3, .L199+28
 2835 00b6 83ED028A 		vstr.32	s16, [r3, #8]
 2836 00ba C3E7     		b	.L191
 2837              	.L198:
 781:Core/Src/Main/Action.c **** 		}
 782:Core/Src/Main/Action.c **** 		//å£åˆ‡ã‚Œä¸€æ—¦ãªã—
 783:Core/Src/Main/Action.c **** //		if(wall_cut == false && ((50/*LEFT_WALL*0.5f*/ > Photo[SL]) || (50/*RIGHT_WALL*0.5f*/ > Photo[S
 784:Core/Src/Main/Action.c **** //		{
 785:Core/Src/Main/Action.c **** //			TotalPulse[BODY] = KeepPulse[BODY] + (target_pulse-(WALL_CUT_VAL*TO_PULSE));
 786:Core/Src/Main/Action.c **** //			//target_pulse = TotalPulse[BODY] -KeepPulse[BODY] + Wall_Cut_Val;
ARM GAS  C:\Users\leopi\AppData\Local\Temp\ccntyKxi.s 			page 70


 787:Core/Src/Main/Action.c **** //			wall_cut = true;
 788:Core/Src/Main/Action.c **** //			ChangeLED(3);
 789:Core/Src/Main/Action.c **** //		}
 790:Core/Src/Main/Action.c **** 
 791:Core/Src/Main/Action.c **** 	}
 792:Core/Src/Main/Action.c **** 
 793:Core/Src/Main/Action.c **** 	Acceleration = 0;
 2838              		.loc 1 793 2 is_stmt 1 view .LVU905
 2839              		.loc 1 793 15 is_stmt 0 view .LVU906
 2840 00bc 174B     		ldr	r3, .L199+12
 2841 00be 0022     		movs	r2, #0
 2842 00c0 1A60     		str	r2, [r3]	@ float
 794:Core/Src/Main/Action.c **** //	wall_cut = false;
 795:Core/Src/Main/Action.c **** 	KeepPulse[BODY] += target_pulse;
 2843              		.loc 1 795 2 is_stmt 1 view .LVU907
 2844              		.loc 1 795 18 is_stmt 0 view .LVU908
 2845 00c2 1B4B     		ldr	r3, .L199+32
 2846 00c4 9A68     		ldr	r2, [r3, #8]
 2847 00c6 3244     		add	r2, r2, r6
 2848 00c8 9A60     		str	r2, [r3, #8]
 796:Core/Src/Main/Action.c **** 	KeepPulse[LEFT] += target_pulse*0.5f;
 2849              		.loc 1 796 2 is_stmt 1 view .LVU909
 2850              		.loc 1 796 18 is_stmt 0 view .LVU910
 2851 00ca 93ED007A 		vldr.32	s14, [r3]	@ int
 2852              		.loc 1 796 33 view .LVU911
 2853 00ce 07EE906A 		vmov	s15, r6	@ int
 2854 00d2 F8EEE77A 		vcvt.f32.s32	s15, s15
 2855 00d6 F6EE006A 		vmov.f32	s13, #5.0e-1
 2856 00da 67EEA67A 		vmul.f32	s15, s15, s13
 2857              		.loc 1 796 18 view .LVU912
 2858 00de B8EEC77A 		vcvt.f32.s32	s14, s14
 2859 00e2 37EE277A 		vadd.f32	s14, s14, s15
 2860 00e6 BDEEC77A 		vcvt.s32.f32	s14, s14
 2861 00ea 83ED007A 		vstr.32	s14, [r3]	@ int
 797:Core/Src/Main/Action.c **** 	KeepPulse[RIGHT] += target_pulse*0.5f;
 2862              		.loc 1 797 2 is_stmt 1 view .LVU913
 2863              		.loc 1 797 19 is_stmt 0 view .LVU914
 2864 00ee 93ED017A 		vldr.32	s14, [r3, #4]	@ int
 2865 00f2 B8EEC77A 		vcvt.f32.s32	s14, s14
 2866 00f6 77EE277A 		vadd.f32	s15, s14, s15
 2867 00fa FDEEE77A 		vcvt.s32.f32	s15, s15
 2868 00fe C3ED017A 		vstr.32	s15, [r3, #4]	@ int
 798:Core/Src/Main/Action.c **** }
 2869              		.loc 1 798 1 view .LVU915
 2870 0102 BDEC028B 		vldm	sp!, {d8}
 2871              	.LCFI18:
 2872              		.cfi_restore 80
 2873              		.cfi_restore 81
 2874              		.cfi_def_cfa_offset 32
 2875              	.LVL157:
 2876              		.loc 1 798 1 view .LVU916
 2877 0106 BDE8F883 		pop	{r3, r4, r5, r6, r7, r8, r9, pc}
 2878              	.LVL158:
 2879              	.L200:
 2880              		.loc 1 798 1 view .LVU917
 2881 010a 00BFAFF3 		.align	3
 2881      0080
ARM GAS  C:\Users\leopi\AppData\Local\Temp\ccntyKxi.s 			page 71


 2882              	.L199:
 2883 0110 9A999999 		.word	-1717986918
 2884 0114 9999E93F 		.word	1072273817
 2885 0118 00000000 		.word	TargetAngularV
 2886 011c 00000000 		.word	Acceleration
 2887 0120 C3F53840 		.word	1077474755
 2888 0124 552AF744 		.word	1157048917
 2889 0128 00000000 		.word	Pid
 2890 012c 00000000 		.word	TargetVelocity
 2891 0130 00000000 		.word	KeepPulse
 2892 0134 00000000 		.word	TotalPulse
 2893 0138 00000000 		.word	Calc
 2894 013c 00000000 		.word	Photo
 2895              		.cfi_endproc
 2896              	.LFE248:
 2898              		.section	.text.Decel,"ax",%progbits
 2899              		.align	1
 2900              		.global	Decel
 2901              		.syntax unified
 2902              		.thumb
 2903              		.thumb_func
 2905              	Decel:
 2906              	.LVL159:
 2907              	.LFB249:
 799:Core/Src/Main/Action.c **** void Decel(float dec_distance, float end_speed)
 800:Core/Src/Main/Action.c **** {
 2908              		.loc 1 800 1 is_stmt 1 view -0
 2909              		.cfi_startproc
 2910              		@ args = 0, pretend = 0, frame = 0
 2911              		@ frame_needed = 0, uses_anonymous_args = 0
 2912              		.loc 1 800 1 is_stmt 0 view .LVU919
 2913 0000 F8B5     		push	{r3, r4, r5, r6, r7, lr}
 2914              	.LCFI19:
 2915              		.cfi_def_cfa_offset 24
 2916              		.cfi_offset 3, -24
 2917              		.cfi_offset 4, -20
 2918              		.cfi_offset 5, -16
 2919              		.cfi_offset 6, -12
 2920              		.cfi_offset 7, -8
 2921              		.cfi_offset 14, -4
 2922 0002 2DED028B 		vpush.64	{d8}
 2923              	.LCFI20:
 2924              		.cfi_def_cfa_offset 32
 2925              		.cfi_offset 80, -32
 2926              		.cfi_offset 81, -28
 2927 0006 B0EE608A 		vmov.f32	s16, s1
 801:Core/Src/Main/Action.c **** 	float down_speed=0;
 2928              		.loc 1 801 2 is_stmt 1 view .LVU920
 2929              	.LVL160:
 802:Core/Src/Main/Action.c **** #if 0
 803:Core/Src/Main/Action.c **** 	down_speed = CurrentVelocity[BODY] - end_speed; //end_speedãŒ0ã‹ãã†ã§ãªã„ã‹
 804:Core/Src/Main/Action.c **** 	//é€Ÿåº¦æ¸›åˆ† = åˆ°é”ã—ãŸã„æŽ¢ç´¢é€Ÿåº¦ - ç¾åœ¨ã®é€Ÿåº¦
 805:Core/Src/Main/Action.c **** 	//ã“ã‚Œãªã‚‰ç¾åœ¨é€Ÿåº¦ãŒæŽ¢ç´¢é€Ÿåº¦ã«è¿½ã„ã¤ã„ã¦ã„ã‚‹ã¨ãã¯åŠ é€Ÿåº¦0ã«ã§ãã‚‹ã€
 806:Core/Src/Main/Action.c **** 	Acceleration = -1 * (T1*down_speed*down_speed / (2*dec_distance) );
 807:Core/Src/Main/Action.c **** 
 808:Core/Src/Main/Action.c **** #else
 809:Core/Src/Main/Action.c **** 	Acceleration = -2.89;
ARM GAS  C:\Users\leopi\AppData\Local\Temp\ccntyKxi.s 			page 72


 2930              		.loc 1 809 2 view .LVU921
 2931              		.loc 1 809 15 is_stmt 0 view .LVU922
 2932 000a 534B     		ldr	r3, .L217+8
 2933 000c 534A     		ldr	r2, .L217+12
 2934 000e 1A60     		str	r2, [r3]	@ float
 810:Core/Src/Main/Action.c **** #endif
 811:Core/Src/Main/Action.c **** 	int target_pulse = (int)(dec_distance*TO_PULSE);
 2935              		.loc 1 811 2 is_stmt 1 view .LVU923
 2936              		.loc 1 811 39 is_stmt 0 view .LVU924
 2937 0010 DFED537A 		vldr.32	s15, .L217+16
 2938 0014 20EE270A 		vmul.f32	s0, s0, s15
 2939              	.LVL161:
 2940              		.loc 1 811 6 view .LVU925
 2941 0018 FDEEC07A 		vcvt.s32.f32	s15, s0
 2942 001c 17EE906A 		vmov	r6, s15	@ int
 2943              	.LVL162:
 812:Core/Src/Main/Action.c **** 
 813:Core/Src/Main/Action.c **** 	while( (	(Photo[FR]+Photo[FL]) < 2500) && ( KeepPulse[BODY] + target_pulse) > ( TotalPulse[BODY]) 
 2944              		.loc 1 813 2 is_stmt 1 view .LVU926
 2945              		.loc 1 813 7 is_stmt 0 view .LVU927
 2946 0020 15E0     		b	.L202
 2947              	.LVL163:
 2948              	.L205:
 814:Core/Src/Main/Action.c **** 	{
 815:Core/Src/Main/Action.c **** 		if(KeepPulse[BODY] + (target_pulse*0.65) < TotalPulse[BODY] ) //è·é›¢ã§åˆ¶å¾¡ã‚’åˆ‡ã‚Šæ›¿ãˆã‚‹
 816:Core/Src/Main/Action.c **** 		{
 817:Core/Src/Main/Action.c **** 			Pid[A_VELO_PID].flag = 1;
 818:Core/Src/Main/Action.c **** 		}
 819:Core/Src/Main/Action.c **** 		if(end_speed == 0){
 820:Core/Src/Main/Action.c **** 			if(TargetVelocity[BODY] <= 90){
 821:Core/Src/Main/Action.c **** 				TargetVelocity[BODY] = 90;//end_speed;
 822:Core/Src/Main/Action.c **** 				Acceleration = 0;
 823:Core/Src/Main/Action.c **** 				TargetAngularV = 0;
 824:Core/Src/Main/Action.c **** 				AngularAcceleration = 0;
 825:Core/Src/Main/Action.c **** 			}
 826:Core/Src/Main/Action.c **** 		}
 827:Core/Src/Main/Action.c **** 		else if(end_speed != 0){
 2949              		.loc 1 827 8 is_stmt 1 view .LVU928
 2950              		.loc 1 827 10 is_stmt 0 view .LVU929
 2951 0022 B5EE408A 		vcmp.f32	s16, #0
 2952 0026 F1EE10FA 		vmrs	APSR_nzcv, FPSCR
 2953 002a 10D0     		beq	.L202
 828:Core/Src/Main/Action.c **** 			if(TargetVelocity[BODY] <= end_speed){
 2954              		.loc 1 828 4 is_stmt 1 view .LVU930
 2955              		.loc 1 828 21 is_stmt 0 view .LVU931
 2956 002c 4D4B     		ldr	r3, .L217+20
 2957 002e D3ED027A 		vldr.32	s15, [r3, #8]
 2958              		.loc 1 828 6 view .LVU932
 2959 0032 F4EEC87A 		vcmpe.f32	s15, s16
 2960 0036 F1EE10FA 		vmrs	APSR_nzcv, FPSCR
 2961 003a 08D8     		bhi	.L202
 829:Core/Src/Main/Action.c **** 				TargetVelocity[BODY] = end_speed;//90;//end_speed;
 2962              		.loc 1 829 5 is_stmt 1 view .LVU933
 2963              		.loc 1 829 26 is_stmt 0 view .LVU934
 2964 003c 83ED028A 		vstr.32	s16, [r3, #8]
 830:Core/Src/Main/Action.c **** 				Acceleration = 0;
 2965              		.loc 1 830 5 is_stmt 1 view .LVU935
ARM GAS  C:\Users\leopi\AppData\Local\Temp\ccntyKxi.s 			page 73


 2966              		.loc 1 830 18 is_stmt 0 view .LVU936
 2967 0040 0023     		movs	r3, #0
 2968 0042 454A     		ldr	r2, .L217+8
 2969 0044 1360     		str	r3, [r2]	@ float
 831:Core/Src/Main/Action.c **** 				TargetAngularV = 0;
 2970              		.loc 1 831 5 is_stmt 1 view .LVU937
 2971              		.loc 1 831 20 is_stmt 0 view .LVU938
 2972 0046 484A     		ldr	r2, .L217+24
 2973 0048 1360     		str	r3, [r2]	@ float
 832:Core/Src/Main/Action.c **** 				AngularAcceleration = 0;
 2974              		.loc 1 832 5 is_stmt 1 view .LVU939
 2975              		.loc 1 832 25 is_stmt 0 view .LVU940
 2976 004a 484A     		ldr	r2, .L217+28
 2977 004c 1360     		str	r3, [r2]	@ float
 2978              	.L202:
 813:Core/Src/Main/Action.c **** 	{
 2979              		.loc 1 813 7 is_stmt 1 view .LVU941
 813:Core/Src/Main/Action.c **** 	{
 2980              		.loc 1 813 17 is_stmt 0 view .LVU942
 2981 004e 484B     		ldr	r3, .L217+32
 2982 0050 D3ED037A 		vldr.32	s15, [r3, #12]
 813:Core/Src/Main/Action.c **** 	{
 2983              		.loc 1 813 27 view .LVU943
 2984 0054 93ED007A 		vldr.32	s14, [r3]
 813:Core/Src/Main/Action.c **** 	{
 2985              		.loc 1 813 21 view .LVU944
 2986 0058 77EE877A 		vadd.f32	s15, s15, s14
 813:Core/Src/Main/Action.c **** 	{
 2987              		.loc 1 813 7 view .LVU945
 2988 005c 9FED457A 		vldr.32	s14, .L217+36
 2989 0060 F4EEC77A 		vcmpe.f32	s15, s14
 2990 0064 F1EE10FA 		vmrs	APSR_nzcv, FPSCR
 2991 0068 42D5     		bpl	.L209
 813:Core/Src/Main/Action.c **** 	{
 2992              		.loc 1 813 55 discriminator 1 view .LVU946
 2993 006a 434B     		ldr	r3, .L217+40
 2994 006c 9B68     		ldr	r3, [r3, #8]
 813:Core/Src/Main/Action.c **** 	{
 2995              		.loc 1 813 62 discriminator 1 view .LVU947
 2996 006e 3344     		add	r3, r3, r6
 813:Core/Src/Main/Action.c **** 	{
 2997              		.loc 1 813 92 discriminator 1 view .LVU948
 2998 0070 424A     		ldr	r2, .L217+44
 2999 0072 9268     		ldr	r2, [r2, #8]
 813:Core/Src/Main/Action.c **** 	{
 3000              		.loc 1 813 41 discriminator 1 view .LVU949
 3001 0074 9342     		cmp	r3, r2
 3002 0076 3BDD     		ble	.L209
 815:Core/Src/Main/Action.c **** 		{
 3003              		.loc 1 815 3 is_stmt 1 view .LVU950
 815:Core/Src/Main/Action.c **** 		{
 3004              		.loc 1 815 15 is_stmt 0 view .LVU951
 3005 0078 3F4B     		ldr	r3, .L217+40
 3006 007a 9F68     		ldr	r7, [r3, #8]
 815:Core/Src/Main/Action.c **** 		{
 3007              		.loc 1 815 37 view .LVU952
 3008 007c 3046     		mov	r0, r6
ARM GAS  C:\Users\leopi\AppData\Local\Temp\ccntyKxi.s 			page 74


 3009 007e FFF7FEFF 		bl	__aeabi_i2d
 3010              	.LVL164:
 3011 0082 33A3     		adr	r3, .L217
 3012 0084 D3E90023 		ldrd	r2, [r3]
 3013 0088 FFF7FEFF 		bl	__aeabi_dmul
 3014              	.LVL165:
 3015 008c 0446     		mov	r4, r0
 3016 008e 0D46     		mov	r5, r1
 815:Core/Src/Main/Action.c **** 		{
 3017              		.loc 1 815 22 view .LVU953
 3018 0090 3846     		mov	r0, r7
 3019 0092 FFF7FEFF 		bl	__aeabi_i2d
 3020              	.LVL166:
 3021 0096 2246     		mov	r2, r4
 3022 0098 2B46     		mov	r3, r5
 3023 009a FFF7FEFF 		bl	__aeabi_dadd
 3024              	.LVL167:
 3025 009e 0446     		mov	r4, r0
 3026 00a0 0D46     		mov	r5, r1
 815:Core/Src/Main/Action.c **** 		{
 3027              		.loc 1 815 56 view .LVU954
 3028 00a2 364B     		ldr	r3, .L217+44
 3029 00a4 9868     		ldr	r0, [r3, #8]
 815:Core/Src/Main/Action.c **** 		{
 3030              		.loc 1 815 44 view .LVU955
 3031 00a6 FFF7FEFF 		bl	__aeabi_i2d
 3032              	.LVL168:
 3033 00aa 0246     		mov	r2, r0
 3034 00ac 0B46     		mov	r3, r1
 815:Core/Src/Main/Action.c **** 		{
 3035              		.loc 1 815 5 view .LVU956
 3036 00ae 2046     		mov	r0, r4
 3037 00b0 2946     		mov	r1, r5
 3038 00b2 FFF7FEFF 		bl	__aeabi_dcmplt
 3039              	.LVL169:
 3040 00b6 10B1     		cbz	r0, .L203
 817:Core/Src/Main/Action.c **** 		}
 3041              		.loc 1 817 4 is_stmt 1 view .LVU957
 817:Core/Src/Main/Action.c **** 		}
 3042              		.loc 1 817 25 is_stmt 0 view .LVU958
 3043 00b8 314B     		ldr	r3, .L217+48
 3044 00ba 0122     		movs	r2, #1
 3045 00bc 9A62     		str	r2, [r3, #40]
 3046              	.L203:
 819:Core/Src/Main/Action.c **** 			if(TargetVelocity[BODY] <= 90){
 3047              		.loc 1 819 3 is_stmt 1 view .LVU959
 819:Core/Src/Main/Action.c **** 			if(TargetVelocity[BODY] <= 90){
 3048              		.loc 1 819 5 is_stmt 0 view .LVU960
 3049 00be B5EE408A 		vcmp.f32	s16, #0
 3050 00c2 F1EE10FA 		vmrs	APSR_nzcv, FPSCR
 3051 00c6 ACD1     		bne	.L205
 820:Core/Src/Main/Action.c **** 				TargetVelocity[BODY] = 90;//end_speed;
 3052              		.loc 1 820 4 is_stmt 1 view .LVU961
 820:Core/Src/Main/Action.c **** 				TargetVelocity[BODY] = 90;//end_speed;
 3053              		.loc 1 820 21 is_stmt 0 view .LVU962
 3054 00c8 264B     		ldr	r3, .L217+20
 3055 00ca 93ED027A 		vldr.32	s14, [r3, #8]
ARM GAS  C:\Users\leopi\AppData\Local\Temp\ccntyKxi.s 			page 75


 820:Core/Src/Main/Action.c **** 				TargetVelocity[BODY] = 90;//end_speed;
 3056              		.loc 1 820 6 view .LVU963
 3057 00ce DFED2D7A 		vldr.32	s15, .L217+52
 3058 00d2 B4EEE77A 		vcmpe.f32	s14, s15
 3059 00d6 F1EE10FA 		vmrs	APSR_nzcv, FPSCR
 3060 00da B8D8     		bhi	.L202
 821:Core/Src/Main/Action.c **** 				Acceleration = 0;
 3061              		.loc 1 821 5 is_stmt 1 view .LVU964
 821:Core/Src/Main/Action.c **** 				Acceleration = 0;
 3062              		.loc 1 821 26 is_stmt 0 view .LVU965
 3063 00dc C3ED027A 		vstr.32	s15, [r3, #8]
 822:Core/Src/Main/Action.c **** 				TargetAngularV = 0;
 3064              		.loc 1 822 5 is_stmt 1 view .LVU966
 822:Core/Src/Main/Action.c **** 				TargetAngularV = 0;
 3065              		.loc 1 822 18 is_stmt 0 view .LVU967
 3066 00e0 0023     		movs	r3, #0
 3067 00e2 1D4A     		ldr	r2, .L217+8
 3068 00e4 1360     		str	r3, [r2]	@ float
 823:Core/Src/Main/Action.c **** 				AngularAcceleration = 0;
 3069              		.loc 1 823 5 is_stmt 1 view .LVU968
 823:Core/Src/Main/Action.c **** 				AngularAcceleration = 0;
 3070              		.loc 1 823 20 is_stmt 0 view .LVU969
 3071 00e6 204A     		ldr	r2, .L217+24
 3072 00e8 1360     		str	r3, [r2]	@ float
 824:Core/Src/Main/Action.c **** 			}
 3073              		.loc 1 824 5 is_stmt 1 view .LVU970
 824:Core/Src/Main/Action.c **** 			}
 3074              		.loc 1 824 25 is_stmt 0 view .LVU971
 3075 00ea 204A     		ldr	r2, .L217+28
 3076 00ec 1360     		str	r3, [r2]	@ float
 3077 00ee AEE7     		b	.L202
 3078              	.L209:
 833:Core/Src/Main/Action.c **** 			}
 834:Core/Src/Main/Action.c **** 		}
 835:Core/Src/Main/Action.c **** 
 836:Core/Src/Main/Action.c **** 	}
 837:Core/Src/Main/Action.c **** 	TargetVelocity[BODY] = end_speed;
 3079              		.loc 1 837 2 is_stmt 1 view .LVU972
 3080              		.loc 1 837 23 is_stmt 0 view .LVU973
 3081 00f0 1C4B     		ldr	r3, .L217+20
 3082 00f2 83ED028A 		vstr.32	s16, [r3, #8]
 838:Core/Src/Main/Action.c **** 	Acceleration = 0;
 3083              		.loc 1 838 2 is_stmt 1 view .LVU974
 3084              		.loc 1 838 15 is_stmt 0 view .LVU975
 3085 00f6 0023     		movs	r3, #0
 3086 00f8 174A     		ldr	r2, .L217+8
 3087 00fa 1360     		str	r3, [r2]	@ float
 839:Core/Src/Main/Action.c **** 	TargetAngularV = 0;
 3088              		.loc 1 839 2 is_stmt 1 view .LVU976
 3089              		.loc 1 839 17 is_stmt 0 view .LVU977
 3090 00fc 1A4A     		ldr	r2, .L217+24
 3091 00fe 1360     		str	r3, [r2]	@ float
 840:Core/Src/Main/Action.c **** 	AngularAcceleration = 0;
 3092              		.loc 1 840 2 is_stmt 1 view .LVU978
 3093              		.loc 1 840 22 is_stmt 0 view .LVU979
 3094 0100 1A4A     		ldr	r2, .L217+28
 3095 0102 1360     		str	r3, [r2]	@ float
ARM GAS  C:\Users\leopi\AppData\Local\Temp\ccntyKxi.s 			page 76


 841:Core/Src/Main/Action.c **** 	//ChangeLED(2);
 842:Core/Src/Main/Action.c **** 	KeepPulse[BODY] += target_pulse;
 3096              		.loc 1 842 2 is_stmt 1 view .LVU980
 3097              		.loc 1 842 18 is_stmt 0 view .LVU981
 3098 0104 1C4B     		ldr	r3, .L217+40
 3099 0106 9A68     		ldr	r2, [r3, #8]
 3100 0108 3244     		add	r2, r2, r6
 3101 010a 9A60     		str	r2, [r3, #8]
 843:Core/Src/Main/Action.c **** 	KeepPulse[LEFT] += target_pulse*0.5f;
 3102              		.loc 1 843 2 is_stmt 1 view .LVU982
 3103              		.loc 1 843 18 is_stmt 0 view .LVU983
 3104 010c 93ED007A 		vldr.32	s14, [r3]	@ int
 3105              		.loc 1 843 33 view .LVU984
 3106 0110 07EE906A 		vmov	s15, r6	@ int
 3107 0114 F8EEE77A 		vcvt.f32.s32	s15, s15
 3108 0118 F6EE006A 		vmov.f32	s13, #5.0e-1
 3109 011c 67EEA67A 		vmul.f32	s15, s15, s13
 3110              		.loc 1 843 18 view .LVU985
 3111 0120 B8EEC77A 		vcvt.f32.s32	s14, s14
 3112 0124 37EE277A 		vadd.f32	s14, s14, s15
 3113 0128 BDEEC77A 		vcvt.s32.f32	s14, s14
 3114 012c 83ED007A 		vstr.32	s14, [r3]	@ int
 844:Core/Src/Main/Action.c **** 	KeepPulse[RIGHT] += target_pulse*0.5f;
 3115              		.loc 1 844 2 is_stmt 1 view .LVU986
 3116              		.loc 1 844 19 is_stmt 0 view .LVU987
 3117 0130 93ED017A 		vldr.32	s14, [r3, #4]	@ int
 3118 0134 B8EEC77A 		vcvt.f32.s32	s14, s14
 3119 0138 77EE277A 		vadd.f32	s15, s14, s15
 3120 013c FDEEE77A 		vcvt.s32.f32	s15, s15
 3121 0140 C3ED017A 		vstr.32	s15, [r3, #4]	@ int
 845:Core/Src/Main/Action.c **** 
 846:Core/Src/Main/Action.c **** 
 847:Core/Src/Main/Action.c **** }
 3122              		.loc 1 847 1 view .LVU988
 3123 0144 BDEC028B 		vldm	sp!, {d8}
 3124              	.LCFI21:
 3125              		.cfi_restore 80
 3126              		.cfi_restore 81
 3127              		.cfi_def_cfa_offset 24
 3128              	.LVL170:
 3129              		.loc 1 847 1 view .LVU989
 3130 0148 F8BD     		pop	{r3, r4, r5, r6, r7, pc}
 3131              	.LVL171:
 3132              	.L218:
 3133              		.loc 1 847 1 view .LVU990
 3134 014a 00BFAFF3 		.align	3
 3134      0080
 3135              	.L217:
 3136 0150 CDCCCCCC 		.word	-858993459
 3137 0154 CCCCE43F 		.word	1071959244
 3138 0158 00000000 		.word	Acceleration
 3139 015c C3F538C0 		.word	-1070008893
 3140 0160 552AF744 		.word	1157048917
 3141 0164 00000000 		.word	TargetVelocity
 3142 0168 00000000 		.word	TargetAngularV
 3143 016c 00000000 		.word	AngularAcceleration
 3144 0170 00000000 		.word	Photo
ARM GAS  C:\Users\leopi\AppData\Local\Temp\ccntyKxi.s 			page 77


 3145 0174 00401C45 		.word	1159479296
 3146 0178 00000000 		.word	KeepPulse
 3147 017c 00000000 		.word	TotalPulse
 3148 0180 00000000 		.word	Pid
 3149 0184 0000B442 		.word	1119092736
 3150              		.cfi_endproc
 3151              	.LFE249:
 3153              		.section	.text.Calib,"ax",%progbits
 3154              		.align	1
 3155              		.global	Calib
 3156              		.syntax unified
 3157              		.thumb
 3158              		.thumb_func
 3160              	Calib:
 3161              	.LVL172:
 3162              	.LFB250:
 848:Core/Src/Main/Action.c **** 
 849:Core/Src/Main/Action.c **** void Calib(int distance)
 850:Core/Src/Main/Action.c **** {
 3163              		.loc 1 850 1 is_stmt 1 view -0
 3164              		.cfi_startproc
 3165              		@ args = 0, pretend = 0, frame = 0
 3166              		@ frame_needed = 0, uses_anonymous_args = 0
 3167              		@ link register save eliminated.
 3168              		.loc 1 850 1 is_stmt 0 view .LVU992
 3169 0000 07EE900A 		vmov	s15, r0	@ int
 851:Core/Src/Main/Action.c **** 	int target_pulse = (int)(distance*TO_PULSE);
 3170              		.loc 1 851 2 is_stmt 1 view .LVU993
 3171              		.loc 1 851 35 is_stmt 0 view .LVU994
 3172 0004 F8EEE77A 		vcvt.f32.s32	s15, s15
 3173 0008 9FED1A7A 		vldr.32	s14, .L226
 3174 000c 67EE877A 		vmul.f32	s15, s15, s14
 3175              		.loc 1 851 6 view .LVU995
 3176 0010 FDEEE77A 		vcvt.s32.f32	s15, s15
 3177 0014 17EE902A 		vmov	r2, s15	@ int
 3178              	.LVL173:
 852:Core/Src/Main/Action.c **** 	if(target_pulse > 0)
 3179              		.loc 1 852 2 is_stmt 1 view .LVU996
 3180              		.loc 1 852 4 is_stmt 0 view .LVU997
 3181 0018 002A     		cmp	r2, #0
 3182 001a 06DC     		bgt	.L220
 3183 001c 10E0     		b	.L221
 3184              	.L222:
 853:Core/Src/Main/Action.c **** 	{
 854:Core/Src/Main/Action.c **** 		while( KeepPulse[BODY] + target_pulse > TotalPulse[BODY] )
 855:Core/Src/Main/Action.c **** 		{
 856:Core/Src/Main/Action.c **** 			Acceleration = 0;
 3185              		.loc 1 856 4 is_stmt 1 view .LVU998
 3186              		.loc 1 856 17 is_stmt 0 view .LVU999
 3187 001e 164B     		ldr	r3, .L226+4
 3188 0020 0021     		movs	r1, #0
 3189 0022 1960     		str	r1, [r3]	@ float
 857:Core/Src/Main/Action.c **** 			TargetVelocity[BODY] = 45;
 3190              		.loc 1 857 4 is_stmt 1 view .LVU1000
 3191              		.loc 1 857 25 is_stmt 0 view .LVU1001
 3192 0024 154B     		ldr	r3, .L226+8
 3193 0026 1649     		ldr	r1, .L226+12
ARM GAS  C:\Users\leopi\AppData\Local\Temp\ccntyKxi.s 			page 78


 3194 0028 9960     		str	r1, [r3, #8]	@ float
 3195              	.L220:
 854:Core/Src/Main/Action.c **** 		{
 3196              		.loc 1 854 8 is_stmt 1 view .LVU1002
 854:Core/Src/Main/Action.c **** 		{
 3197              		.loc 1 854 19 is_stmt 0 view .LVU1003
 3198 002a 164B     		ldr	r3, .L226+16
 3199 002c 9B68     		ldr	r3, [r3, #8]
 854:Core/Src/Main/Action.c **** 		{
 3200              		.loc 1 854 26 view .LVU1004
 3201 002e 1344     		add	r3, r3, r2
 854:Core/Src/Main/Action.c **** 		{
 3202              		.loc 1 854 53 view .LVU1005
 3203 0030 1549     		ldr	r1, .L226+20
 3204 0032 8968     		ldr	r1, [r1, #8]
 854:Core/Src/Main/Action.c **** 		{
 3205              		.loc 1 854 8 view .LVU1006
 3206 0034 8B42     		cmp	r3, r1
 3207 0036 F2DC     		bgt	.L222
 858:Core/Src/Main/Action.c **** 		}
 859:Core/Src/Main/Action.c **** 		KeepPulse[BODY] += target_pulse;
 3208              		.loc 1 859 3 is_stmt 1 view .LVU1007
 3209              		.loc 1 859 19 is_stmt 0 view .LVU1008
 3210 0038 1249     		ldr	r1, .L226+16
 3211 003a 8B68     		ldr	r3, [r1, #8]
 3212 003c 1344     		add	r3, r3, r2
 3213 003e 8B60     		str	r3, [r1, #8]
 3214              	.L221:
 860:Core/Src/Main/Action.c **** 
 861:Core/Src/Main/Action.c **** 	}
 862:Core/Src/Main/Action.c **** 	if(target_pulse < 0 )
 3215              		.loc 1 862 2 is_stmt 1 view .LVU1009
 3216              		.loc 1 862 4 is_stmt 0 view .LVU1010
 3217 0040 002A     		cmp	r2, #0
 3218 0042 0BDB     		blt	.L223
 3219              	.LVL174:
 3220              	.L224:
 863:Core/Src/Main/Action.c **** 	{
 864:Core/Src/Main/Action.c **** 		while( KeepPulse[BODY] + target_pulse < TotalPulse[BODY] )
 865:Core/Src/Main/Action.c **** 		{
 866:Core/Src/Main/Action.c **** 			Acceleration = 0;
 867:Core/Src/Main/Action.c **** 			TargetVelocity[BODY] = -45;
 868:Core/Src/Main/Action.c **** 		}
 869:Core/Src/Main/Action.c **** 		KeepPulse[BODY] += target_pulse;
 870:Core/Src/Main/Action.c **** 	}
 871:Core/Src/Main/Action.c **** 	TargetVelocity[BODY] = 0;
 3221              		.loc 1 871 2 is_stmt 1 view .LVU1011
 3222              		.loc 1 871 23 is_stmt 0 view .LVU1012
 3223 0044 0023     		movs	r3, #0
 3224 0046 0D4A     		ldr	r2, .L226+8
 3225 0048 9360     		str	r3, [r2, #8]	@ float
 872:Core/Src/Main/Action.c **** 	Acceleration = 0;
 3226              		.loc 1 872 2 is_stmt 1 view .LVU1013
 3227              		.loc 1 872 15 is_stmt 0 view .LVU1014
 3228 004a 0B4A     		ldr	r2, .L226+4
 3229 004c 1360     		str	r3, [r2]	@ float
 873:Core/Src/Main/Action.c **** }
ARM GAS  C:\Users\leopi\AppData\Local\Temp\ccntyKxi.s 			page 79


 3230              		.loc 1 873 1 view .LVU1015
 3231 004e 7047     		bx	lr
 3232              	.LVL175:
 3233              	.L225:
 866:Core/Src/Main/Action.c **** 			TargetVelocity[BODY] = -45;
 3234              		.loc 1 866 4 is_stmt 1 view .LVU1016
 866:Core/Src/Main/Action.c **** 			TargetVelocity[BODY] = -45;
 3235              		.loc 1 866 17 is_stmt 0 view .LVU1017
 3236 0050 094B     		ldr	r3, .L226+4
 3237 0052 0021     		movs	r1, #0
 3238 0054 1960     		str	r1, [r3]	@ float
 867:Core/Src/Main/Action.c **** 		}
 3239              		.loc 1 867 4 is_stmt 1 view .LVU1018
 867:Core/Src/Main/Action.c **** 		}
 3240              		.loc 1 867 25 is_stmt 0 view .LVU1019
 3241 0056 094B     		ldr	r3, .L226+8
 3242 0058 0C49     		ldr	r1, .L226+24
 3243 005a 9960     		str	r1, [r3, #8]	@ float
 3244              	.L223:
 864:Core/Src/Main/Action.c **** 		{
 3245              		.loc 1 864 8 is_stmt 1 view .LVU1020
 864:Core/Src/Main/Action.c **** 		{
 3246              		.loc 1 864 19 is_stmt 0 view .LVU1021
 3247 005c 094B     		ldr	r3, .L226+16
 3248 005e 9B68     		ldr	r3, [r3, #8]
 864:Core/Src/Main/Action.c **** 		{
 3249              		.loc 1 864 26 view .LVU1022
 3250 0060 1344     		add	r3, r3, r2
 864:Core/Src/Main/Action.c **** 		{
 3251              		.loc 1 864 53 view .LVU1023
 3252 0062 0949     		ldr	r1, .L226+20
 3253 0064 8968     		ldr	r1, [r1, #8]
 864:Core/Src/Main/Action.c **** 		{
 3254              		.loc 1 864 8 view .LVU1024
 3255 0066 8B42     		cmp	r3, r1
 3256 0068 F2DB     		blt	.L225
 869:Core/Src/Main/Action.c **** 	}
 3257              		.loc 1 869 3 is_stmt 1 view .LVU1025
 869:Core/Src/Main/Action.c **** 	}
 3258              		.loc 1 869 19 is_stmt 0 view .LVU1026
 3259 006a 0649     		ldr	r1, .L226+16
 3260 006c 8B68     		ldr	r3, [r1, #8]
 3261 006e 1A44     		add	r2, r2, r3
 3262              	.LVL176:
 869:Core/Src/Main/Action.c **** 	}
 3263              		.loc 1 869 19 view .LVU1027
 3264 0070 8A60     		str	r2, [r1, #8]
 3265 0072 E7E7     		b	.L224
 3266              	.L227:
 3267              		.align	2
 3268              	.L226:
 3269 0074 552AF744 		.word	1157048917
 3270 0078 00000000 		.word	Acceleration
 3271 007c 00000000 		.word	TargetVelocity
 3272 0080 00003442 		.word	1110704128
 3273 0084 00000000 		.word	KeepPulse
 3274 0088 00000000 		.word	TotalPulse
ARM GAS  C:\Users\leopi\AppData\Local\Temp\ccntyKxi.s 			page 80


 3275 008c 000034C2 		.word	-1036779520
 3276              		.cfi_endproc
 3277              	.LFE250:
 3279              		.section	.text.Compensate,"ax",%progbits
 3280              		.align	1
 3281              		.global	Compensate
 3282              		.syntax unified
 3283              		.thumb
 3284              		.thumb_func
 3286              	Compensate:
 3287              	.LFB251:
 874:Core/Src/Main/Action.c **** void Compensate()
 875:Core/Src/Main/Action.c **** {
 3288              		.loc 1 875 1 is_stmt 1 view -0
 3289              		.cfi_startproc
 3290              		@ args = 0, pretend = 0, frame = 0
 3291              		@ frame_needed = 0, uses_anonymous_args = 0
 3292 0000 08B5     		push	{r3, lr}
 3293              	.LCFI22:
 3294              		.cfi_def_cfa_offset 8
 3295              		.cfi_offset 3, -8
 3296              		.cfi_offset 14, -4
 876:Core/Src/Main/Action.c **** 	//èª¤å·®è£œæ­£
 877:Core/Src/Main/Action.c **** #if 0
 878:Core/Src/Main/Action.c **** 	//å‰å£è£œæ­£
 879:Core/Src/Main/Action.c **** 	TargetPhoto[FL];
 880:Core/Src/Main/Action.c **** 
 881:Core/Src/Main/Action.c **** #else
 882:Core/Src/Main/Action.c **** 	//ãƒãƒƒã‚¯
 883:Core/Src/Main/Action.c **** 	PIDChangeFlag(A_VELO_PID, 1);
 3297              		.loc 1 883 2 view .LVU1029
 3298 0002 0121     		movs	r1, #1
 3299 0004 0020     		movs	r0, #0
 3300 0006 FFF7FEFF 		bl	PIDChangeFlag
 3301              	.LVL177:
 884:Core/Src/Main/Action.c **** 	Calib(-25);
 3302              		.loc 1 884 2 view .LVU1030
 3303 000a 6FF01800 		mvn	r0, #24
 3304 000e FFF7FEFF 		bl	Calib
 3305              	.LVL178:
 885:Core/Src/Main/Action.c **** 	PIDChangeFlag(A_VELO_PID, 0);
 3306              		.loc 1 885 2 view .LVU1031
 3307 0012 0021     		movs	r1, #0
 3308 0014 0846     		mov	r0, r1
 3309 0016 FFF7FEFF 		bl	PIDChangeFlag
 3310              	.LVL179:
 886:Core/Src/Main/Action.c **** #endif
 887:Core/Src/Main/Action.c **** 
 888:Core/Src/Main/Action.c **** }
 3311              		.loc 1 888 1 is_stmt 0 view .LVU1032
 3312 001a 08BD     		pop	{r3, pc}
 3313              		.cfi_endproc
 3314              	.LFE251:
 3316              		.section	.text.AjustCenter,"ax",%progbits
 3317              		.align	1
 3318              		.global	AjustCenter
 3319              		.syntax unified
ARM GAS  C:\Users\leopi\AppData\Local\Temp\ccntyKxi.s 			page 81


 3320              		.thumb
 3321              		.thumb_func
 3323              	AjustCenter:
 3324              	.LVL180:
 3325              	.LFB252:
 889:Core/Src/Main/Action.c **** float AjustCenter(profile *mouse){
 3326              		.loc 1 889 34 is_stmt 1 view -0
 3327              		.cfi_startproc
 3328              		@ args = 0, pretend = 0, frame = 8
 3329              		@ frame_needed = 0, uses_anonymous_args = 0
 3330              		.loc 1 889 34 is_stmt 0 view .LVU1034
 3331 0000 30B5     		push	{r4, r5, lr}
 3332              	.LCFI23:
 3333              		.cfi_def_cfa_offset 12
 3334              		.cfi_offset 4, -12
 3335              		.cfi_offset 5, -8
 3336              		.cfi_offset 14, -4
 3337 0002 83B0     		sub	sp, sp, #12
 3338              	.LCFI24:
 3339              		.cfi_def_cfa_offset 24
 3340 0004 0446     		mov	r4, r0
 890:Core/Src/Main/Action.c **** 	PIDChangeFlag(L_WALL_PID, 0);
 3341              		.loc 1 890 2 is_stmt 1 view .LVU1035
 3342 0006 0021     		movs	r1, #0
 3343 0008 0220     		movs	r0, #2
 3344              	.LVL181:
 3345              		.loc 1 890 2 is_stmt 0 view .LVU1036
 3346 000a FFF7FEFF 		bl	PIDChangeFlag
 3347              	.LVL182:
 891:Core/Src/Main/Action.c **** 	PIDChangeFlag(R_WALL_PID, 0);
 3348              		.loc 1 891 2 is_stmt 1 view .LVU1037
 3349 000e 0021     		movs	r1, #0
 3350 0010 0320     		movs	r0, #3
 3351 0012 FFF7FEFF 		bl	PIDChangeFlag
 3352              	.LVL183:
 892:Core/Src/Main/Action.c **** 	PIDChangeFlag(D_WALL_PID, 0);
 3353              		.loc 1 892 2 view .LVU1038
 3354 0016 0021     		movs	r1, #0
 3355 0018 0120     		movs	r0, #1
 3356 001a FFF7FEFF 		bl	PIDChangeFlag
 3357              	.LVL184:
 893:Core/Src/Main/Action.c **** 	PIDChangeFlag( A_VELO_PID, 0);
 3358              		.loc 1 893 2 view .LVU1039
 3359 001e 0021     		movs	r1, #0
 3360 0020 0846     		mov	r0, r1
 3361 0022 FFF7FEFF 		bl	PIDChangeFlag
 3362              	.LVL185:
 894:Core/Src/Main/Action.c **** 	int wall_ctrl = GetWallCtrlDirection(mouse);
 3363              		.loc 1 894 2 view .LVU1040
 3364              		.loc 1 894 18 is_stmt 0 view .LVU1041
 3365 0026 2046     		mov	r0, r4
 3366 0028 FFF7FEFF 		bl	GetWallCtrlDirection
 3367              	.LVL186:
 3368 002c 0546     		mov	r5, r0
 3369              	.LVL187:
 895:Core/Src/Main/Action.c **** 	float photo_threshold[2]=
 3370              		.loc 1 895 2 is_stmt 1 view .LVU1042
ARM GAS  C:\Users\leopi\AppData\Local\Temp\ccntyKxi.s 			page 82


 3371              		.loc 1 895 8 is_stmt 0 view .LVU1043
 3372 002e 8A4B     		ldr	r3, .L264
 3373 0030 93E80300 		ldm	r3, {r0, r1}
 3374              	.LVL188:
 3375              		.loc 1 895 8 view .LVU1044
 3376 0034 02AB     		add	r3, sp, #8
 3377 0036 03E90300 		stmdb	r3, {r0, r1}
 896:Core/Src/Main/Action.c **** 	{
 897:Core/Src/Main/Action.c **** 			3600,
 898:Core/Src/Main/Action.c **** 			4000
 899:Core/Src/Main/Action.c **** 			//3300,
 900:Core/Src/Main/Action.c **** 			//4500
 901:Core/Src/Main/Action.c **** 	}; //è©¦èµ°ä¼šã§èª¿æ•´. åºƒã’ã‚‹ã¨ä½ç½®ã¯ã‚„ã‚„ã°ã‚‰ã¤ããŒå…‰é‡ã®å½±éŸ¿ãŒã‚„ã‚„å°ã•ã
 902:Core/Src/Main/Action.c **** 	switch(mouse->now.car%8)
 3378              		.loc 1 902 2 is_stmt 1 view .LVU1045
 3379              		.loc 1 902 19 is_stmt 0 view .LVU1046
 3380 003a A379     		ldrb	r3, [r4, #6]	@ zero_extendqisi2
 3381              		.loc 1 902 2 view .LVU1047
 3382 003c 03F00703 		and	r3, r3, #7
 3383 0040 062B     		cmp	r3, #6
 3384 0042 0ED8     		bhi	.L231
 3385 0044 DFE803F0 		tbb	[pc, r3]
 3386              	.L233:
 3387 0048 04       		.byte	(.L236-.L233)/2
 3388 0049 0D       		.byte	(.L231-.L233)/2
 3389 004a 4E       		.byte	(.L235-.L233)/2
 3390 004b 0D       		.byte	(.L231-.L233)/2
 3391 004c 8B       		.byte	(.L234-.L233)/2
 3392 004d 0D       		.byte	(.L231-.L233)/2
 3393 004e C9       		.byte	(.L232-.L233)/2
 3394 004f 00       		.p2align 1
 3395              	.L236:
 903:Core/Src/Main/Action.c **** 	{
 904:Core/Src/Main/Action.c **** 	case north: //use west or north wall
 905:Core/Src/Main/Action.c **** 			if (mouse->now.wall.north == WALL) //å‰ã«å£ãŒã‚ã‚Œã°å‰ã§èª¿æ•´
 3396              		.loc 1 905 4 is_stmt 1 view .LVU1048
 3397              		.loc 1 905 30 is_stmt 0 view .LVU1049
 3398 0050 237A     		ldrb	r3, [r4, #8]	@ zero_extendqisi2
 3399 0052 03F00302 		and	r2, r3, #3
 3400              		.loc 1 905 7 view .LVU1050
 3401 0056 012A     		cmp	r2, #1
 3402 0058 10D0     		beq	.L259
 906:Core/Src/Main/Action.c **** 			{
 907:Core/Src/Main/Action.c **** 				//å‰å£èª¿æ•´
 908:Core/Src/Main/Action.c **** 				Calib(-5);
 909:Core/Src/Main/Action.c **** 				PIDChangeFlag(wall_ctrl, 1);
 910:Core/Src/Main/Action.c **** 				while( !( (photo_threshold[0] < Photo[FL] + Photo[FR]) && (Photo[FL] + Photo[FR] < photo_thresh
 911:Core/Src/Main/Action.c **** 				{
 912:Core/Src/Main/Action.c **** 				}
 913:Core/Src/Main/Action.c **** 					//å‰å£ã¨ã®è·é›¢ã¨å‰äºŒã¤ã®å·®åˆ†ã€å·¦å³ã®å£ã¨ã®ãƒãƒ©ãƒ³ã‚¹ãŒå®‰å®šã™ã‚‹ã¾ã
 914:Core/Src/Main/Action.c **** 			}
 915:Core/Src/Main/Action.c **** 			else if (mouse->now.wall.south == WALL) //å¾Œã‚ã«å£ãŒã‚ã‚‹ã¨ãã¯ãƒãƒƒã‚¯
 3403              		.loc 1 915 9 is_stmt 1 view .LVU1051
 3404              		.loc 1 915 35 is_stmt 0 view .LVU1052
 3405 005a 03F03003 		and	r3, r3, #48
 3406              		.loc 1 915 12 view .LVU1053
 3407 005e 102B     		cmp	r3, #16
ARM GAS  C:\Users\leopi\AppData\Local\Temp\ccntyKxi.s 			page 83


 3408 0060 2AD0     		beq	.L260
 3409              	.L231:
 916:Core/Src/Main/Action.c **** 			{
 917:Core/Src/Main/Action.c **** 				PIDChangeFlag(wall_ctrl, 1);
 918:Core/Src/Main/Action.c **** 				Compensate();	//å¾Œã‚å£èª¿æ•´
 919:Core/Src/Main/Action.c **** 
 920:Core/Src/Main/Action.c **** 				Pid[wall_ctrl].flag = 0;
 921:Core/Src/Main/Action.c **** 				TargetAngularV = 0;
 922:Core/Src/Main/Action.c **** 				Angle = TargetAngle;
 923:Core/Src/Main/Action.c **** 				return 61.5;
 924:Core/Src/Main/Action.c **** 			}
 925:Core/Src/Main/Action.c **** 		break;
 926:Core/Src/Main/Action.c **** 	case east:
 927:Core/Src/Main/Action.c **** 			if (mouse->now.wall.east == WALL) //å‰ã«å£ãŒã‚ã‚Œã°å‰ã§èª¿æ•´
 928:Core/Src/Main/Action.c **** 			{
 929:Core/Src/Main/Action.c **** 				//å‰å£èª¿æ•´
 930:Core/Src/Main/Action.c **** 				Calib(-5);
 931:Core/Src/Main/Action.c **** 				PIDChangeFlag(wall_ctrl, 1);
 932:Core/Src/Main/Action.c **** 				while( !(( (photo_threshold[0] < Photo[FL] + Photo[FR]) && (Photo[FL] + Photo[FR] < photo_thres
 933:Core/Src/Main/Action.c **** 					{
 934:Core/Src/Main/Action.c **** 					}
 935:Core/Src/Main/Action.c **** 			}
 936:Core/Src/Main/Action.c **** 			else if (mouse->now.wall.west == WALL) //å¾Œã‚ã«å£ãŒã‚ã‚‹ã¨ãã¯ãƒãƒƒã‚¯
 937:Core/Src/Main/Action.c **** 			{
 938:Core/Src/Main/Action.c **** 				PIDChangeFlag(wall_ctrl, 1);
 939:Core/Src/Main/Action.c **** 				Compensate();//å¾Œã‚å£èª¿æ•´
 940:Core/Src/Main/Action.c **** 				Pid[wall_ctrl].flag = 0;
 941:Core/Src/Main/Action.c **** 				TargetAngularV = 0;
 942:Core/Src/Main/Action.c **** 				Angle = TargetAngle;
 943:Core/Src/Main/Action.c **** 				return 61.5;
 944:Core/Src/Main/Action.c **** 			}
 945:Core/Src/Main/Action.c **** 		break;
 946:Core/Src/Main/Action.c **** 	case south:
 947:Core/Src/Main/Action.c **** 			if (mouse->now.wall.south == WALL) //å‰ã«å£ãŒã‚ã‚Œã°å‰ã§èª¿æ•´
 948:Core/Src/Main/Action.c **** 			{
 949:Core/Src/Main/Action.c **** 				//å‰å£èª¿æ•´
 950:Core/Src/Main/Action.c **** 				Calib(-5);
 951:Core/Src/Main/Action.c **** 				PIDChangeFlag(wall_ctrl, 1);
 952:Core/Src/Main/Action.c **** 				while( !((photo_threshold[0]< Photo[FL] + Photo[FR]) && (Photo[FL] + Photo[FR] < photo_threshol
 953:Core/Src/Main/Action.c **** 					{
 954:Core/Src/Main/Action.c **** 					}
 955:Core/Src/Main/Action.c **** 			}
 956:Core/Src/Main/Action.c **** 			else if (mouse->now.wall.north == WALL) //å¾Œã‚ã«å£ãŒã‚ã‚‹ã¨ãã¯ãƒãƒƒã‚¯
 957:Core/Src/Main/Action.c **** 			{
 958:Core/Src/Main/Action.c **** 				PIDChangeFlag(wall_ctrl, 1);
 959:Core/Src/Main/Action.c **** 				Compensate();//å¾Œã‚å£èª¿æ•´
 960:Core/Src/Main/Action.c **** 				Pid[wall_ctrl].flag = 0;
 961:Core/Src/Main/Action.c **** 				TargetAngularV = 0;
 962:Core/Src/Main/Action.c **** 				Angle = TargetAngle;
 963:Core/Src/Main/Action.c **** 				return 61.5;
 964:Core/Src/Main/Action.c **** 			}
 965:Core/Src/Main/Action.c **** 		break;
 966:Core/Src/Main/Action.c **** 	case west:
 967:Core/Src/Main/Action.c **** 			if (mouse->now.wall.west == WALL) //å‰ã«å£ãŒã‚ã‚Œã°å‰ã§èª¿æ•´
 968:Core/Src/Main/Action.c **** 			{
 969:Core/Src/Main/Action.c **** 				//å‰å£èª¿æ•´
 970:Core/Src/Main/Action.c **** 				Calib(-5);
ARM GAS  C:\Users\leopi\AppData\Local\Temp\ccntyKxi.s 			page 84


 971:Core/Src/Main/Action.c **** 				PIDChangeFlag(wall_ctrl, 1);
 972:Core/Src/Main/Action.c **** 				while( !((photo_threshold[0] < Photo[FL] + Photo[FR]) && (Photo[FL] + Photo[FR] < photo_thresho
 973:Core/Src/Main/Action.c **** 					{
 974:Core/Src/Main/Action.c **** 					}
 975:Core/Src/Main/Action.c **** 			}
 976:Core/Src/Main/Action.c **** 			else if (mouse->now.wall.east == WALL) //å¾Œã‚ã«å£ãŒã‚ã‚‹ã¨ãã¯ãƒãƒƒã‚¯
 977:Core/Src/Main/Action.c **** 			{
 978:Core/Src/Main/Action.c **** 				PIDChangeFlag(wall_ctrl, 1);
 979:Core/Src/Main/Action.c **** 				Compensate();//å¾Œã‚å£èª¿æ•´
 980:Core/Src/Main/Action.c **** 				Pid[wall_ctrl].flag = 0;
 981:Core/Src/Main/Action.c **** 				TargetAngularV = 0;
 982:Core/Src/Main/Action.c **** 				Angle = TargetAngle;
 983:Core/Src/Main/Action.c **** 				return 61.5;
 984:Core/Src/Main/Action.c **** 			}
 985:Core/Src/Main/Action.c **** 	default:
 986:Core/Src/Main/Action.c **** 		break;
 987:Core/Src/Main/Action.c **** 	}
 988:Core/Src/Main/Action.c **** 	Pid[wall_ctrl].flag = 0;
 3410              		.loc 1 988 2 is_stmt 1 view .LVU1054
 3411              		.loc 1 988 22 is_stmt 0 view .LVU1055
 3412 0062 7E48     		ldr	r0, .L264+4
 3413 0064 2C23     		movs	r3, #44
 3414 0066 03FB0505 		mla	r5, r3, r5, r0
 3415              	.LVL189:
 3416              		.loc 1 988 22 view .LVU1056
 3417 006a 0023     		movs	r3, #0
 3418 006c AB62     		str	r3, [r5, #40]
 989:Core/Src/Main/Action.c **** 	TargetAngularV = 0;
 3419              		.loc 1 989 2 is_stmt 1 view .LVU1057
 3420              		.loc 1 989 17 is_stmt 0 view .LVU1058
 3421 006e 7C4B     		ldr	r3, .L264+8
 3422 0070 0022     		movs	r2, #0
 3423 0072 1A60     		str	r2, [r3]	@ float
 990:Core/Src/Main/Action.c **** 	return 45;
 3424              		.loc 1 990 2 is_stmt 1 view .LVU1059
 3425              		.loc 1 990 9 is_stmt 0 view .LVU1060
 3426 0074 9FED7B0A 		vldr.32	s0, .L264+12
 3427              	.L230:
 991:Core/Src/Main/Action.c **** }
 3428              		.loc 1 991 1 view .LVU1061
 3429 0078 03B0     		add	sp, sp, #12
 3430              	.LCFI25:
 3431              		.cfi_remember_state
 3432              		.cfi_def_cfa_offset 12
 3433              		@ sp needed
 3434 007a 30BD     		pop	{r4, r5, pc}
 3435              	.LVL190:
 3436              	.L259:
 3437              	.LCFI26:
 3438              		.cfi_restore_state
 908:Core/Src/Main/Action.c **** 				PIDChangeFlag(wall_ctrl, 1);
 3439              		.loc 1 908 5 is_stmt 1 view .LVU1062
 3440 007c 6FF00400 		mvn	r0, #4
 3441 0080 FFF7FEFF 		bl	Calib
 3442              	.LVL191:
 909:Core/Src/Main/Action.c **** 				while( !( (photo_threshold[0] < Photo[FL] + Photo[FR]) && (Photo[FL] + Photo[FR] < photo_thresh
 3443              		.loc 1 909 5 view .LVU1063
ARM GAS  C:\Users\leopi\AppData\Local\Temp\ccntyKxi.s 			page 85


 3444 0084 0121     		movs	r1, #1
 3445 0086 2846     		mov	r0, r5
 3446 0088 FFF7FEFF 		bl	PIDChangeFlag
 3447              	.LVL192:
 910:Core/Src/Main/Action.c **** 				{
 3448              		.loc 1 910 5 view .LVU1064
 3449              	.L238:
 912:Core/Src/Main/Action.c **** 					//å‰å£ã¨ã®è·é›¢ã¨å‰äºŒã¤ã®å·®åˆ†ã€å·¦å³ã®å£ã¨ã®ãƒãƒ©ãƒ³ã‚¹ãŒå®‰å®šã™ã‚‹ã¾ã
 3450              		.loc 1 912 5 discriminator 3 view .LVU1065
 910:Core/Src/Main/Action.c **** 				{
 3451              		.loc 1 910 10 discriminator 3 view .LVU1066
 910:Core/Src/Main/Action.c **** 				{
 3452              		.loc 1 910 42 is_stmt 0 discriminator 3 view .LVU1067
 3453 008c 764B     		ldr	r3, .L264+16
 3454 008e D3ED007A 		vldr.32	s15, [r3]
 910:Core/Src/Main/Action.c **** 				{
 3455              		.loc 1 910 54 discriminator 3 view .LVU1068
 3456 0092 93ED037A 		vldr.32	s14, [r3, #12]
 910:Core/Src/Main/Action.c **** 				{
 3457              		.loc 1 910 47 discriminator 3 view .LVU1069
 3458 0096 77EE877A 		vadd.f32	s15, s15, s14
 910:Core/Src/Main/Action.c **** 				{
 3459              		.loc 1 910 10 discriminator 3 view .LVU1070
 3460 009a 9FED747A 		vldr.32	s14, .L264+20
 3461 009e F4EEC77A 		vcmpe.f32	s15, s14
 3462 00a2 F1EE10FA 		vmrs	APSR_nzcv, FPSCR
 3463 00a6 F1DD     		ble	.L238
 910:Core/Src/Main/Action.c **** 				{
 3464              		.loc 1 910 12 discriminator 2 view .LVU1071
 3465 00a8 9FED717A 		vldr.32	s14, .L264+24
 3466 00ac F4EEC77A 		vcmpe.f32	s15, s14
 3467 00b0 F1EE10FA 		vmrs	APSR_nzcv, FPSCR
 3468 00b4 EAD5     		bpl	.L238
 3469 00b6 D4E7     		b	.L231
 3470              	.L260:
 917:Core/Src/Main/Action.c **** 				Compensate();	//å¾Œã‚å£èª¿æ•´
 3471              		.loc 1 917 5 is_stmt 1 view .LVU1072
 3472 00b8 0121     		movs	r1, #1
 3473 00ba 2846     		mov	r0, r5
 3474 00bc FFF7FEFF 		bl	PIDChangeFlag
 3475              	.LVL193:
 918:Core/Src/Main/Action.c **** 
 3476              		.loc 1 918 5 view .LVU1073
 3477 00c0 FFF7FEFF 		bl	Compensate
 3478              	.LVL194:
 920:Core/Src/Main/Action.c **** 				TargetAngularV = 0;
 3479              		.loc 1 920 5 view .LVU1074
 920:Core/Src/Main/Action.c **** 				TargetAngularV = 0;
 3480              		.loc 1 920 25 is_stmt 0 view .LVU1075
 3481 00c4 654B     		ldr	r3, .L264+4
 3482 00c6 2C22     		movs	r2, #44
 3483 00c8 02FB0535 		mla	r5, r2, r5, r3
 3484              	.LVL195:
 920:Core/Src/Main/Action.c **** 				TargetAngularV = 0;
 3485              		.loc 1 920 25 view .LVU1076
 3486 00cc 0023     		movs	r3, #0
 3487 00ce AB62     		str	r3, [r5, #40]
ARM GAS  C:\Users\leopi\AppData\Local\Temp\ccntyKxi.s 			page 86


 921:Core/Src/Main/Action.c **** 				Angle = TargetAngle;
 3488              		.loc 1 921 5 is_stmt 1 view .LVU1077
 921:Core/Src/Main/Action.c **** 				Angle = TargetAngle;
 3489              		.loc 1 921 20 is_stmt 0 view .LVU1078
 3490 00d0 634B     		ldr	r3, .L264+8
 3491 00d2 0022     		movs	r2, #0
 3492 00d4 1A60     		str	r2, [r3]	@ float
 922:Core/Src/Main/Action.c **** 				return 61.5;
 3493              		.loc 1 922 5 is_stmt 1 view .LVU1079
 922:Core/Src/Main/Action.c **** 				return 61.5;
 3494              		.loc 1 922 11 is_stmt 0 view .LVU1080
 3495 00d6 674B     		ldr	r3, .L264+28
 3496 00d8 1A68     		ldr	r2, [r3]	@ float
 3497 00da 674B     		ldr	r3, .L264+32
 3498 00dc 1A60     		str	r2, [r3]	@ float
 923:Core/Src/Main/Action.c **** 			}
 3499              		.loc 1 923 5 is_stmt 1 view .LVU1081
 923:Core/Src/Main/Action.c **** 			}
 3500              		.loc 1 923 12 is_stmt 0 view .LVU1082
 3501 00de 9FED670A 		vldr.32	s0, .L264+36
 3502 00e2 C9E7     		b	.L230
 3503              	.LVL196:
 3504              	.L235:
 927:Core/Src/Main/Action.c **** 			{
 3505              		.loc 1 927 4 is_stmt 1 view .LVU1083
 927:Core/Src/Main/Action.c **** 			{
 3506              		.loc 1 927 29 is_stmt 0 view .LVU1084
 3507 00e4 237A     		ldrb	r3, [r4, #8]	@ zero_extendqisi2
 3508 00e6 03F00C02 		and	r2, r3, #12
 927:Core/Src/Main/Action.c **** 			{
 3509              		.loc 1 927 7 view .LVU1085
 3510 00ea 042A     		cmp	r2, #4
 3511 00ec 19D0     		beq	.L261
 936:Core/Src/Main/Action.c **** 			{
 3512              		.loc 1 936 9 is_stmt 1 view .LVU1086
 936:Core/Src/Main/Action.c **** 			{
 3513              		.loc 1 936 34 is_stmt 0 view .LVU1087
 3514 00ee 03F0C003 		and	r3, r3, #192
 936:Core/Src/Main/Action.c **** 			{
 3515              		.loc 1 936 12 view .LVU1088
 3516 00f2 402B     		cmp	r3, #64
 3517 00f4 B5D1     		bne	.L231
 938:Core/Src/Main/Action.c **** 				Compensate();//å¾Œã‚å£èª¿æ•´
 3518              		.loc 1 938 5 is_stmt 1 view .LVU1089
 3519 00f6 0121     		movs	r1, #1
 3520 00f8 2846     		mov	r0, r5
 3521 00fa FFF7FEFF 		bl	PIDChangeFlag
 3522              	.LVL197:
 939:Core/Src/Main/Action.c **** 				Pid[wall_ctrl].flag = 0;
 3523              		.loc 1 939 5 view .LVU1090
 3524 00fe FFF7FEFF 		bl	Compensate
 3525              	.LVL198:
 940:Core/Src/Main/Action.c **** 				TargetAngularV = 0;
 3526              		.loc 1 940 5 view .LVU1091
 940:Core/Src/Main/Action.c **** 				TargetAngularV = 0;
 3527              		.loc 1 940 25 is_stmt 0 view .LVU1092
 3528 0102 564B     		ldr	r3, .L264+4
ARM GAS  C:\Users\leopi\AppData\Local\Temp\ccntyKxi.s 			page 87


 3529 0104 2C22     		movs	r2, #44
 3530 0106 02FB0535 		mla	r5, r2, r5, r3
 3531              	.LVL199:
 940:Core/Src/Main/Action.c **** 				TargetAngularV = 0;
 3532              		.loc 1 940 25 view .LVU1093
 3533 010a 0023     		movs	r3, #0
 3534 010c AB62     		str	r3, [r5, #40]
 941:Core/Src/Main/Action.c **** 				Angle = TargetAngle;
 3535              		.loc 1 941 5 is_stmt 1 view .LVU1094
 941:Core/Src/Main/Action.c **** 				Angle = TargetAngle;
 3536              		.loc 1 941 20 is_stmt 0 view .LVU1095
 3537 010e 544B     		ldr	r3, .L264+8
 3538 0110 0022     		movs	r2, #0
 3539 0112 1A60     		str	r2, [r3]	@ float
 942:Core/Src/Main/Action.c **** 				return 61.5;
 3540              		.loc 1 942 5 is_stmt 1 view .LVU1096
 942:Core/Src/Main/Action.c **** 				return 61.5;
 3541              		.loc 1 942 11 is_stmt 0 view .LVU1097
 3542 0114 574B     		ldr	r3, .L264+28
 3543 0116 1A68     		ldr	r2, [r3]	@ float
 3544 0118 574B     		ldr	r3, .L264+32
 3545 011a 1A60     		str	r2, [r3]	@ float
 943:Core/Src/Main/Action.c **** 			}
 3546              		.loc 1 943 5 is_stmt 1 view .LVU1098
 943:Core/Src/Main/Action.c **** 			}
 3547              		.loc 1 943 12 is_stmt 0 view .LVU1099
 3548 011c 9FED570A 		vldr.32	s0, .L264+36
 3549 0120 AAE7     		b	.L230
 3550              	.LVL200:
 3551              	.L261:
 930:Core/Src/Main/Action.c **** 				PIDChangeFlag(wall_ctrl, 1);
 3552              		.loc 1 930 5 is_stmt 1 view .LVU1100
 3553 0122 6FF00400 		mvn	r0, #4
 3554 0126 FFF7FEFF 		bl	Calib
 3555              	.LVL201:
 931:Core/Src/Main/Action.c **** 				while( !(( (photo_threshold[0] < Photo[FL] + Photo[FR]) && (Photo[FL] + Photo[FR] < photo_thres
 3556              		.loc 1 931 5 view .LVU1101
 3557 012a 0121     		movs	r1, #1
 3558 012c 2846     		mov	r0, r5
 3559 012e FFF7FEFF 		bl	PIDChangeFlag
 3560              	.LVL202:
 932:Core/Src/Main/Action.c **** 					{
 3561              		.loc 1 932 5 view .LVU1102
 3562              	.L243:
 934:Core/Src/Main/Action.c **** 			}
 3563              		.loc 1 934 6 discriminator 3 view .LVU1103
 932:Core/Src/Main/Action.c **** 					{
 3564              		.loc 1 932 10 discriminator 3 view .LVU1104
 932:Core/Src/Main/Action.c **** 					{
 3565              		.loc 1 932 43 is_stmt 0 discriminator 3 view .LVU1105
 3566 0132 4D4B     		ldr	r3, .L264+16
 3567 0134 D3ED007A 		vldr.32	s15, [r3]
 932:Core/Src/Main/Action.c **** 					{
 3568              		.loc 1 932 55 discriminator 3 view .LVU1106
 3569 0138 93ED037A 		vldr.32	s14, [r3, #12]
 932:Core/Src/Main/Action.c **** 					{
 3570              		.loc 1 932 48 discriminator 3 view .LVU1107
ARM GAS  C:\Users\leopi\AppData\Local\Temp\ccntyKxi.s 			page 88


 3571 013c 77EE877A 		vadd.f32	s15, s15, s14
 932:Core/Src/Main/Action.c **** 					{
 3572              		.loc 1 932 10 discriminator 3 view .LVU1108
 3573 0140 9FED4A7A 		vldr.32	s14, .L264+20
 3574 0144 F4EEC77A 		vcmpe.f32	s15, s14
 3575 0148 F1EE10FA 		vmrs	APSR_nzcv, FPSCR
 3576 014c F1DD     		ble	.L243
 932:Core/Src/Main/Action.c **** 					{
 3577              		.loc 1 932 12 discriminator 2 view .LVU1109
 3578 014e 9FED487A 		vldr.32	s14, .L264+24
 3579 0152 F4EEC77A 		vcmpe.f32	s15, s14
 3580 0156 F1EE10FA 		vmrs	APSR_nzcv, FPSCR
 3581 015a EAD5     		bpl	.L243
 3582 015c 81E7     		b	.L231
 3583              	.L234:
 947:Core/Src/Main/Action.c **** 			{
 3584              		.loc 1 947 4 is_stmt 1 view .LVU1110
 947:Core/Src/Main/Action.c **** 			{
 3585              		.loc 1 947 30 is_stmt 0 view .LVU1111
 3586 015e 237A     		ldrb	r3, [r4, #8]	@ zero_extendqisi2
 3587 0160 03F03002 		and	r2, r3, #48
 947:Core/Src/Main/Action.c **** 			{
 3588              		.loc 1 947 7 view .LVU1112
 3589 0164 102A     		cmp	r2, #16
 3590 0166 1AD0     		beq	.L262
 956:Core/Src/Main/Action.c **** 			{
 3591              		.loc 1 956 9 is_stmt 1 view .LVU1113
 956:Core/Src/Main/Action.c **** 			{
 3592              		.loc 1 956 35 is_stmt 0 view .LVU1114
 3593 0168 03F00303 		and	r3, r3, #3
 956:Core/Src/Main/Action.c **** 			{
 3594              		.loc 1 956 12 view .LVU1115
 3595 016c 012B     		cmp	r3, #1
 3596 016e 7FF478AF 		bne	.L231
 958:Core/Src/Main/Action.c **** 				Compensate();//å¾Œã‚å£èª¿æ•´
 3597              		.loc 1 958 5 is_stmt 1 view .LVU1116
 3598 0172 0121     		movs	r1, #1
 3599 0174 2846     		mov	r0, r5
 3600 0176 FFF7FEFF 		bl	PIDChangeFlag
 3601              	.LVL203:
 959:Core/Src/Main/Action.c **** 				Pid[wall_ctrl].flag = 0;
 3602              		.loc 1 959 5 view .LVU1117
 3603 017a FFF7FEFF 		bl	Compensate
 3604              	.LVL204:
 960:Core/Src/Main/Action.c **** 				TargetAngularV = 0;
 3605              		.loc 1 960 5 view .LVU1118
 960:Core/Src/Main/Action.c **** 				TargetAngularV = 0;
 3606              		.loc 1 960 25 is_stmt 0 view .LVU1119
 3607 017e 374B     		ldr	r3, .L264+4
 3608 0180 2C22     		movs	r2, #44
 3609 0182 02FB0535 		mla	r5, r2, r5, r3
 3610              	.LVL205:
 960:Core/Src/Main/Action.c **** 				TargetAngularV = 0;
 3611              		.loc 1 960 25 view .LVU1120
 3612 0186 0023     		movs	r3, #0
 3613 0188 AB62     		str	r3, [r5, #40]
 961:Core/Src/Main/Action.c **** 				Angle = TargetAngle;
ARM GAS  C:\Users\leopi\AppData\Local\Temp\ccntyKxi.s 			page 89


 3614              		.loc 1 961 5 is_stmt 1 view .LVU1121
 961:Core/Src/Main/Action.c **** 				Angle = TargetAngle;
 3615              		.loc 1 961 20 is_stmt 0 view .LVU1122
 3616 018a 354B     		ldr	r3, .L264+8
 3617 018c 0022     		movs	r2, #0
 3618 018e 1A60     		str	r2, [r3]	@ float
 962:Core/Src/Main/Action.c **** 				return 61.5;
 3619              		.loc 1 962 5 is_stmt 1 view .LVU1123
 962:Core/Src/Main/Action.c **** 				return 61.5;
 3620              		.loc 1 962 11 is_stmt 0 view .LVU1124
 3621 0190 384B     		ldr	r3, .L264+28
 3622 0192 1A68     		ldr	r2, [r3]	@ float
 3623 0194 384B     		ldr	r3, .L264+32
 3624 0196 1A60     		str	r2, [r3]	@ float
 963:Core/Src/Main/Action.c **** 			}
 3625              		.loc 1 963 5 is_stmt 1 view .LVU1125
 963:Core/Src/Main/Action.c **** 			}
 3626              		.loc 1 963 12 is_stmt 0 view .LVU1126
 3627 0198 9FED380A 		vldr.32	s0, .L264+36
 3628 019c 6CE7     		b	.L230
 3629              	.LVL206:
 3630              	.L262:
 950:Core/Src/Main/Action.c **** 				PIDChangeFlag(wall_ctrl, 1);
 3631              		.loc 1 950 5 is_stmt 1 view .LVU1127
 3632 019e 6FF00400 		mvn	r0, #4
 3633 01a2 FFF7FEFF 		bl	Calib
 3634              	.LVL207:
 951:Core/Src/Main/Action.c **** 				while( !((photo_threshold[0]< Photo[FL] + Photo[FR]) && (Photo[FL] + Photo[FR] < photo_threshol
 3635              		.loc 1 951 5 view .LVU1128
 3636 01a6 0121     		movs	r1, #1
 3637 01a8 2846     		mov	r0, r5
 3638 01aa FFF7FEFF 		bl	PIDChangeFlag
 3639              	.LVL208:
 952:Core/Src/Main/Action.c **** 					{
 3640              		.loc 1 952 5 view .LVU1129
 3641              	.L247:
 954:Core/Src/Main/Action.c **** 			}
 3642              		.loc 1 954 6 discriminator 3 view .LVU1130
 952:Core/Src/Main/Action.c **** 					{
 3643              		.loc 1 952 10 discriminator 3 view .LVU1131
 952:Core/Src/Main/Action.c **** 					{
 3644              		.loc 1 952 40 is_stmt 0 discriminator 3 view .LVU1132
 3645 01ae 2E4B     		ldr	r3, .L264+16
 3646 01b0 D3ED007A 		vldr.32	s15, [r3]
 952:Core/Src/Main/Action.c **** 					{
 3647              		.loc 1 952 52 discriminator 3 view .LVU1133
 3648 01b4 93ED037A 		vldr.32	s14, [r3, #12]
 952:Core/Src/Main/Action.c **** 					{
 3649              		.loc 1 952 45 discriminator 3 view .LVU1134
 3650 01b8 77EE877A 		vadd.f32	s15, s15, s14
 952:Core/Src/Main/Action.c **** 					{
 3651              		.loc 1 952 10 discriminator 3 view .LVU1135
 3652 01bc 9FED2B7A 		vldr.32	s14, .L264+20
 3653 01c0 F4EEC77A 		vcmpe.f32	s15, s14
 3654 01c4 F1EE10FA 		vmrs	APSR_nzcv, FPSCR
 3655 01c8 F1DD     		ble	.L247
 952:Core/Src/Main/Action.c **** 					{
ARM GAS  C:\Users\leopi\AppData\Local\Temp\ccntyKxi.s 			page 90


 3656              		.loc 1 952 12 discriminator 2 view .LVU1136
 3657 01ca 9FED297A 		vldr.32	s14, .L264+24
 3658 01ce F4EEC77A 		vcmpe.f32	s15, s14
 3659 01d2 F1EE10FA 		vmrs	APSR_nzcv, FPSCR
 3660 01d6 EAD5     		bpl	.L247
 3661 01d8 43E7     		b	.L231
 3662              	.L232:
 967:Core/Src/Main/Action.c **** 			{
 3663              		.loc 1 967 4 is_stmt 1 view .LVU1137
 967:Core/Src/Main/Action.c **** 			{
 3664              		.loc 1 967 29 is_stmt 0 view .LVU1138
 3665 01da 237A     		ldrb	r3, [r4, #8]	@ zero_extendqisi2
 3666 01dc 03F0C002 		and	r2, r3, #192
 967:Core/Src/Main/Action.c **** 			{
 3667              		.loc 1 967 7 view .LVU1139
 3668 01e0 402A     		cmp	r2, #64
 3669 01e2 1AD0     		beq	.L263
 976:Core/Src/Main/Action.c **** 			{
 3670              		.loc 1 976 9 is_stmt 1 view .LVU1140
 976:Core/Src/Main/Action.c **** 			{
 3671              		.loc 1 976 34 is_stmt 0 view .LVU1141
 3672 01e4 03F00C03 		and	r3, r3, #12
 976:Core/Src/Main/Action.c **** 			{
 3673              		.loc 1 976 12 view .LVU1142
 3674 01e8 042B     		cmp	r3, #4
 3675 01ea 7FF43AAF 		bne	.L231
 978:Core/Src/Main/Action.c **** 				Compensate();//å¾Œã‚å£èª¿æ•´
 3676              		.loc 1 978 5 is_stmt 1 view .LVU1143
 3677 01ee 0121     		movs	r1, #1
 3678 01f0 2846     		mov	r0, r5
 3679 01f2 FFF7FEFF 		bl	PIDChangeFlag
 3680              	.LVL209:
 979:Core/Src/Main/Action.c **** 				Pid[wall_ctrl].flag = 0;
 3681              		.loc 1 979 5 view .LVU1144
 3682 01f6 FFF7FEFF 		bl	Compensate
 3683              	.LVL210:
 980:Core/Src/Main/Action.c **** 				TargetAngularV = 0;
 3684              		.loc 1 980 5 view .LVU1145
 980:Core/Src/Main/Action.c **** 				TargetAngularV = 0;
 3685              		.loc 1 980 25 is_stmt 0 view .LVU1146
 3686 01fa 184B     		ldr	r3, .L264+4
 3687 01fc 2C22     		movs	r2, #44
 3688 01fe 02FB0535 		mla	r5, r2, r5, r3
 3689              	.LVL211:
 980:Core/Src/Main/Action.c **** 				TargetAngularV = 0;
 3690              		.loc 1 980 25 view .LVU1147
 3691 0202 0023     		movs	r3, #0
 3692 0204 AB62     		str	r3, [r5, #40]
 981:Core/Src/Main/Action.c **** 				Angle = TargetAngle;
 3693              		.loc 1 981 5 is_stmt 1 view .LVU1148
 981:Core/Src/Main/Action.c **** 				Angle = TargetAngle;
 3694              		.loc 1 981 20 is_stmt 0 view .LVU1149
 3695 0206 164B     		ldr	r3, .L264+8
 3696 0208 0022     		movs	r2, #0
 3697 020a 1A60     		str	r2, [r3]	@ float
 982:Core/Src/Main/Action.c **** 				return 61.5;
 3698              		.loc 1 982 5 is_stmt 1 view .LVU1150
ARM GAS  C:\Users\leopi\AppData\Local\Temp\ccntyKxi.s 			page 91


 982:Core/Src/Main/Action.c **** 				return 61.5;
 3699              		.loc 1 982 11 is_stmt 0 view .LVU1151
 3700 020c 194B     		ldr	r3, .L264+28
 3701 020e 1A68     		ldr	r2, [r3]	@ float
 3702 0210 194B     		ldr	r3, .L264+32
 3703 0212 1A60     		str	r2, [r3]	@ float
 983:Core/Src/Main/Action.c **** 			}
 3704              		.loc 1 983 5 is_stmt 1 view .LVU1152
 983:Core/Src/Main/Action.c **** 			}
 3705              		.loc 1 983 12 is_stmt 0 view .LVU1153
 3706 0214 9FED190A 		vldr.32	s0, .L264+36
 3707 0218 2EE7     		b	.L230
 3708              	.LVL212:
 3709              	.L263:
 970:Core/Src/Main/Action.c **** 				PIDChangeFlag(wall_ctrl, 1);
 3710              		.loc 1 970 5 is_stmt 1 view .LVU1154
 3711 021a 6FF00400 		mvn	r0, #4
 3712 021e FFF7FEFF 		bl	Calib
 3713              	.LVL213:
 971:Core/Src/Main/Action.c **** 				while( !((photo_threshold[0] < Photo[FL] + Photo[FR]) && (Photo[FL] + Photo[FR] < photo_thresho
 3714              		.loc 1 971 5 view .LVU1155
 3715 0222 0121     		movs	r1, #1
 3716 0224 2846     		mov	r0, r5
 3717 0226 FFF7FEFF 		bl	PIDChangeFlag
 3718              	.LVL214:
 972:Core/Src/Main/Action.c **** 					{
 3719              		.loc 1 972 5 view .LVU1156
 3720              	.L251:
 974:Core/Src/Main/Action.c **** 			}
 3721              		.loc 1 974 6 discriminator 3 view .LVU1157
 972:Core/Src/Main/Action.c **** 					{
 3722              		.loc 1 972 10 discriminator 3 view .LVU1158
 972:Core/Src/Main/Action.c **** 					{
 3723              		.loc 1 972 41 is_stmt 0 discriminator 3 view .LVU1159
 3724 022a 0F4B     		ldr	r3, .L264+16
 3725 022c D3ED007A 		vldr.32	s15, [r3]
 972:Core/Src/Main/Action.c **** 					{
 3726              		.loc 1 972 53 discriminator 3 view .LVU1160
 3727 0230 93ED037A 		vldr.32	s14, [r3, #12]
