ARM GAS  C:\Users\leopi\AppData\Local\Temp\ccmWQUfi.s 			page 1


   1              		.cpu cortex-m4
   2              		.arch armv7e-m
   3              		.fpu fpv4-sp-d16
   4              		.eabi_attribute 27, 1
   5              		.eabi_attribute 28, 1
   6              		.eabi_attribute 20, 1
   7              		.eabi_attribute 21, 1
   8              		.eabi_attribute 23, 3
   9              		.eabi_attribute 24, 1
  10              		.eabi_attribute 25, 1
  11              		.eabi_attribute 26, 1
  12              		.eabi_attribute 30, 1
  13              		.eabi_attribute 34, 1
  14              		.eabi_attribute 18, 4
  15              		.file	"Convert.c"
  16              		.text
  17              	.Ltext0:
  18              		.cfi_sections	.debug_frame
  19              		.section	.text.PulseToDistance,"ax",%progbits
  20              		.align	1
  21              		.global	PulseToDistance
  22              		.syntax unified
  23              		.thumb
  24              		.thumb_func
  26              	PulseToDistance:
  27              	.LVL0:
  28              	.LFB0:
  29              		.file 1 "Core/Src/Tools/Convert.c"
   1:Core/Src/Tools/Convert.c **** /*
   2:Core/Src/Tools/Convert.c ****  * Convert.c
   3:Core/Src/Tools/Convert.c ****  *
   4:Core/Src/Tools/Convert.c ****  *  Created on: Feb 13, 2022
   5:Core/Src/Tools/Convert.c ****  *      Author: leopi
   6:Core/Src/Tools/Convert.c ****  */
   7:Core/Src/Tools/Convert.c **** 
   8:Core/Src/Tools/Convert.c **** #include "Convert.h"
   9:Core/Src/Tools/Convert.c **** 
  10:Core/Src/Tools/Convert.c **** #include <stdlib.h>
  11:Core/Src/Tools/Convert.c **** //å¿…è¦ãªå€¤ã¯å…¨éƒ¨å¼•æ•°ã§æ›¸ã„ã¦ã€ä½¿ç”¨å…ˆã§å…¥ã‚Œã‚‹ã€‚ãƒã‚¯ãƒ­ãªã©ã§ã²ã¨ã¾ã¨ã
  12:Core/Src/Tools/Convert.c **** 
  13:Core/Src/Tools/Convert.c **** /*------------------------------------------- -------------------------------------------*/
  14:Core/Src/Tools/Convert.c **** 
  15:Core/Src/Tools/Convert.c **** /*-------------------------------------------ã‚¨ãƒ³ã‚³ãƒ¼ãƒ€é–¢é€£---------------------------------
  16:Core/Src/Tools/Convert.c **** //--------------------------//
  17:Core/Src/Tools/Convert.c **** // ç›®çš„ : ã‚¨ãƒ³ã‚³ãƒ¼ãƒ€ãƒ‘ãƒ«ã‚¹ã‚’è·é›¢mmã«å¤‰æ›ã™ã‚‹
  18:Core/Src/Tools/Convert.c **** // å¼•æ•° : ãƒ‘ãƒ«ã‚¹
  19:Core/Src/Tools/Convert.c **** // æˆ»ã‚Šå€¤ : è·é›¢
  20:Core/Src/Tools/Convert.c **** //-------------------------//
  21:Core/Src/Tools/Convert.c **** //åˆ¥ã®ã¨ã“ã‚ã§å®£è¨€
  22:Core/Src/Tools/Convert.c **** #define DISTANCE_PER_PULSE	((TIRE_DEAMETER * M_PI) / (ENCODER_PULSE * REDUCATION_RATIO) )
  23:Core/Src/Tools/Convert.c **** 
  24:Core/Src/Tools/Convert.c **** //åˆ¶å¾¡ã®ãŸã‚ã«é€ä¸€å¤‰æ›ã™ã‚‹å¿…è¦ãŒã‚ã‚‹ã®ã§é–¢æ•°ã‚’ä½¿ã†ã€‚
  25:Core/Src/Tools/Convert.c **** float PulseToDistance(int pulse_displacement, float distance_per_pulse)
  26:Core/Src/Tools/Convert.c **** {
  30              		.loc 1 26 1 view -0
  31              		.cfi_startproc
  32              		@ args = 0, pretend = 0, frame = 0
ARM GAS  C:\Users\leopi\AppData\Local\Temp\ccmWQUfi.s 			page 2


  33              		@ frame_needed = 0, uses_anonymous_args = 0
  34              		@ link register save eliminated.
  35              		.loc 1 26 1 is_stmt 0 view .LVU1
  36 0000 07EE900A 		vmov	s15, r0	@ int
  27:Core/Src/Tools/Convert.c ****     float distance;
  37              		.loc 1 27 5 is_stmt 1 view .LVU2
  28:Core/Src/Tools/Convert.c ****     distance = (float)pulse_displacement * distance_per_pulse;
  38              		.loc 1 28 5 view .LVU3
  39              		.loc 1 28 16 is_stmt 0 view .LVU4
  40 0004 F8EEE77A 		vcvt.f32.s32	s15, s15
  41              	.LVL1:
  29:Core/Src/Tools/Convert.c ****     //printf("distance : %f\r\n", distance);
  30:Core/Src/Tools/Convert.c **** 	return distance;
  42              		.loc 1 30 2 is_stmt 1 view .LVU5
  31:Core/Src/Tools/Convert.c **** }
  43              		.loc 1 31 1 is_stmt 0 view .LVU6
  44 0008 27EE800A 		vmul.f32	s0, s15, s0
  45              	.LVL2:
  46              		.loc 1 31 1 view .LVU7
  47 000c 7047     		bx	lr
  48              		.cfi_endproc
  49              	.LFE0:
  51              		.section	.text.InitPulse,"ax",%progbits
  52              		.align	1
  53              		.global	InitPulse
  54              		.syntax unified
  55              		.thumb
  56              		.thumb_func
  58              	InitPulse:
  59              	.LVL3:
  60              	.LFB1:
  32:Core/Src/Tools/Convert.c **** 
  33:Core/Src/Tools/Convert.c **** //--------------------------//
  34:Core/Src/Tools/Convert.c **** //ç›®çš„ : ã‚¨ãƒ³ã‚³ãƒ¼ãƒ€ãƒ‘ãƒ«ã‚¹ã‚’å¥½ããªå€¤ã§åˆæœŸåŒ–ã™ã‚‹ã€‚(ç›´æ¥å…¥ã‚Œã¦ã‚‚ã„ã„ãŒ
  35:Core/Src/Tools/Convert.c **** //å¼•æ•° : ã‚«ã‚¦ãƒ³ã‚¿ã®ã‚¢ãƒ‰ãƒ¬ã‚¹ã€ãƒ‘ãƒ«ã‚¹åˆæœŸå€¤
  36:Core/Src/Tools/Convert.c **** //æˆ»ã‚Šå€¤ : ãªã—
  37:Core/Src/Tools/Convert.c **** //-------------------------//
  38:Core/Src/Tools/Convert.c **** void InitPulse(int *timer_counter, int initial_pulse)
  39:Core/Src/Tools/Convert.c **** {
  61              		.loc 1 39 1 is_stmt 1 view -0
  62              		.cfi_startproc
  63              		@ args = 0, pretend = 0, frame = 0
  64              		@ frame_needed = 0, uses_anonymous_args = 0
  65              		@ link register save eliminated.
  40:Core/Src/Tools/Convert.c **** 	* timer_counter = initial_pulse;
  66              		.loc 1 40 2 view .LVU9
  67              		.loc 1 40 18 is_stmt 0 view .LVU10
  68 0000 0160     		str	r1, [r0]
  41:Core/Src/Tools/Convert.c **** 	//printf("timer_counter : %d\r\n", *timer_counter);
  42:Core/Src/Tools/Convert.c **** }
  69              		.loc 1 42 1 view .LVU11
  70 0002 7047     		bx	lr
  71              		.cfi_endproc
  72              	.LFE1:
  74              		.section	.text.GetPulseDisplacement,"ax",%progbits
  75              		.align	1
  76              		.global	GetPulseDisplacement
ARM GAS  C:\Users\leopi\AppData\Local\Temp\ccmWQUfi.s 			page 3


  77              		.syntax unified
  78              		.thumb
  79              		.thumb_func
  81              	GetPulseDisplacement:
  82              	.LVL4:
  83              	.LFB2:
  43:Core/Src/Tools/Convert.c **** 
  44:Core/Src/Tools/Convert.c **** //--------------------------//
  45:Core/Src/Tools/Convert.c **** //ç›®çš„ : ã‚¨ãƒ³ã‚³ãƒ¼ãƒ€ãƒ‘ãƒ«ã‚¹ã®åˆæœŸå€¤ã¨ã®å·®åˆ†ã‚’å–å¾—ã™ã‚‹(å‰²ã‚Šè¾¼ã¿å†…)
  46:Core/Src/Tools/Convert.c **** //å¼•æ•° : ã‚«ã‚¦ãƒ³ã‚¿ã®ã‚¢ãƒ‰ãƒ¬ã‚¹ã€ãƒ‘ãƒ«ã‚¹åˆæœŸå€¤
  47:Core/Src/Tools/Convert.c **** //æˆ»ã‚Šå€¤ : ãƒ‘ãƒ«ã‚¹ã®å¤‰ä½
  48:Core/Src/Tools/Convert.c **** //-------------------------//
  49:Core/Src/Tools/Convert.c **** int GetPulseDisplacement(int *timer_counter,  int initial_pulse)
  50:Core/Src/Tools/Convert.c **** {
  84              		.loc 1 50 1 is_stmt 1 view -0
  85              		.cfi_startproc
  86              		@ args = 0, pretend = 0, frame = 0
  87              		@ frame_needed = 0, uses_anonymous_args = 0
  88              		.loc 1 50 1 is_stmt 0 view .LVU13
  89 0000 10B5     		push	{r4, lr}
  90              	.LCFI0:
  91              		.cfi_def_cfa_offset 8
  92              		.cfi_offset 4, -8
  93              		.cfi_offset 14, -4
  51:Core/Src/Tools/Convert.c **** 	//å‰²ã‚Šè¾¼ã¿ã§å‘¼ã³å‡ºã™æƒ³å®š
  52:Core/Src/Tools/Convert.c **** 	//ã‚«ã‚¦ãƒ³ã‚¿ã‚’ãƒªã‚»ãƒƒãƒˆã™ã‚‹ã®ã¯åˆ¥ã®ã¨ã“ã‚
  53:Core/Src/Tools/Convert.c **** 	int current_pulse = *timer_counter;
  94              		.loc 1 53 2 is_stmt 1 view .LVU14
  95              		.loc 1 53 6 is_stmt 0 view .LVU15
  96 0002 0468     		ldr	r4, [r0]
  97              	.LVL5:
  54:Core/Src/Tools/Convert.c **** 	int pulse_displacement = -1* (current_pulse - initial_pulse);
  98              		.loc 1 54 2 is_stmt 1 view .LVU16
  99              		.loc 1 54 6 is_stmt 0 view .LVU17
 100 0004 0C1B     		subs	r4, r1, r4
 101              	.LVL6:
  55:Core/Src/Tools/Convert.c **** 	//å‰å›å€¤ã¨ã—ã¦ä¿å­˜
  56:Core/Src/Tools/Convert.c **** 
  57:Core/Src/Tools/Convert.c **** //	//æ¬¡å›ã®å‘¼ã³å‡ºã—ã®ãŸã‚ã«ã™ãåˆæœŸåŒ–ã€‚
  58:Core/Src/Tools/Convert.c **** 	InitPulse( timer_counter, initial_pulse);
 102              		.loc 1 58 2 is_stmt 1 view .LVU18
 103 0006 FFF7FEFF 		bl	InitPulse
 104              	.LVL7:
  59:Core/Src/Tools/Convert.c **** 
  60:Core/Src/Tools/Convert.c **** 	return pulse_displacement;
 105              		.loc 1 60 2 view .LVU19
  61:Core/Src/Tools/Convert.c **** }
 106              		.loc 1 61 1 is_stmt 0 view .LVU20
 107 000a 2046     		mov	r0, r4
 108 000c 10BD     		pop	{r4, pc}
 109              		.loc 1 61 1 view .LVU21
 110              		.cfi_endproc
 111              	.LFE2:
 113              		.section	.text.GetWallDataAverage,"ax",%progbits
 114              		.align	1
 115              		.global	GetWallDataAverage
 116              		.syntax unified
ARM GAS  C:\Users\leopi\AppData\Local\Temp\ccmWQUfi.s 			page 4


 117              		.thumb
 118              		.thumb_func
 120              	GetWallDataAverage:
 121              	.LVL8:
 122              	.LFB3:
  62:Core/Src/Tools/Convert.c **** //int GetPulseDisplacement(int *timer_counter,  int *keep_counter)
  63:Core/Src/Tools/Convert.c **** //{
  64:Core/Src/Tools/Convert.c **** //	//å‰²ã‚Šè¾¼ã¿ã§å‘¼ã³å‡ºã™æƒ³å®š
  65:Core/Src/Tools/Convert.c **** //	//ã‚«ã‚¦ãƒ³ã‚¿ã‚’ãƒªã‚»ãƒƒãƒˆã™ã‚‹ã®ã¯åˆ¥ã®ã¨ã“ã‚
  66:Core/Src/Tools/Convert.c **** //	int current_pulse = *timer_counter;
  67:Core/Src/Tools/Convert.c **** //	int pulse_displacement = -1* (current_pulse - *keep_counter);
  68:Core/Src/Tools/Convert.c **** //	//å‰å›å€¤ã¨ã—ã¦ä¿å­˜
  69:Core/Src/Tools/Convert.c **** //
  70:Core/Src/Tools/Convert.c **** //	*keep_counter = current_pulse;
  71:Core/Src/Tools/Convert.c **** ////	//æ¬¡å›ã®å‘¼ã³å‡ºã—ã®ãŸã‚ã«ã™ãåˆæœŸåŒ–ã€‚
  72:Core/Src/Tools/Convert.c **** ////	InitPulse( timer_counter, initial_pulse);
  73:Core/Src/Tools/Convert.c **** //
  74:Core/Src/Tools/Convert.c **** //	return pulse_displacement;
  75:Core/Src/Tools/Convert.c **** //}
  76:Core/Src/Tools/Convert.c **** 
  77:Core/Src/Tools/Convert.c **** 
  78:Core/Src/Tools/Convert.c **** /*-------------------------------------------ãƒ•ã‚©ãƒˆãƒˆãƒ©---------------------------------------
  79:Core/Src/Tools/Convert.c **** 
  80:Core/Src/Tools/Convert.c **** //--------------------------//
  81:Core/Src/Tools/Convert.c **** //ç›®çš„ : 2å€‹é€£ç¶šã—ãŸå—å…‰ãƒ‡ãƒ¼ã‚¿ã®å·®åˆ†å€¤ã®nå›å¹³å‡ã‚’å–ã‚‹ã€‚
  82:Core/Src/Tools/Convert.c **** //å¼•æ•° : nå›å¹³å‡ã€ adcã®ç”Ÿãƒ‡ãƒ¼ã‚¿ã€ å—å…‰ãƒ‡ãƒã‚¤ã‚¹ã®ãƒŠãƒ³ãƒ0~å‰²ã‚ŠæŒ¯ã£ã¦ãŠã
  83:Core/Src/Tools/Convert.c **** //æˆ»ã‚Šå€¤ : ãªã—
  84:Core/Src/Tools/Convert.c **** //-------------------------//
  85:Core/Src/Tools/Convert.c **** float GetWallDataAverage(int average_of_n_times, int adc_data, int receiver_num)
  86:Core/Src/Tools/Convert.c **** {
 123              		.loc 1 86 1 is_stmt 1 view -0
 124              		.cfi_startproc
 125              		@ args = 0, pretend = 0, frame = 0
 126              		@ frame_needed = 0, uses_anonymous_args = 0
 127              		@ link register save eliminated.
 128              		.loc 1 86 1 is_stmt 0 view .LVU23
 129 0000 10B4     		push	{r4}
 130              	.LCFI1:
 131              		.cfi_def_cfa_offset 4
 132              		.cfi_offset 4, -4
  87:Core/Src/Tools/Convert.c **** 	static int count[4] = {0}, last[4]={0}, integrate[4]={0};
 133              		.loc 1 87 2 is_stmt 1 view .LVU24
  88:Core/Src/Tools/Convert.c **** 	int raw, error;
 134              		.loc 1 88 2 view .LVU25
  89:Core/Src/Tools/Convert.c **** 	static float average[4]={0};
 135              		.loc 1 89 2 view .LVU26
  90:Core/Src/Tools/Convert.c **** 
  91:Core/Src/Tools/Convert.c **** 	raw = adc_data;
 136              		.loc 1 91 2 view .LVU27
 137              	.LVL9:
  92:Core/Src/Tools/Convert.c **** 	error = abs( last[receiver_num] - raw );
 138              		.loc 1 92 2 view .LVU28
 139              		.loc 1 92 19 is_stmt 0 view .LVU29
 140 0002 1A4C     		ldr	r4, .L9
 141 0004 54F82230 		ldr	r3, [r4, r2, lsl #2]
 142              		.loc 1 92 34 view .LVU30
 143 0008 5B1A     		subs	r3, r3, r1
ARM GAS  C:\Users\leopi\AppData\Local\Temp\ccmWQUfi.s 			page 5


 144              		.loc 1 92 8 view .LVU31
 145 000a 002B     		cmp	r3, #0
 146 000c B8BF     		it	lt
 147 000e 5B42     		rsblt	r3, r3, #0
 148              	.LVL10:
  93:Core/Src/Tools/Convert.c **** 	last[receiver_num] = raw;
 149              		.loc 1 93 2 is_stmt 1 view .LVU32
 150              		.loc 1 93 21 is_stmt 0 view .LVU33
 151 0010 44F82210 		str	r1, [r4, r2, lsl #2]
  94:Core/Src/Tools/Convert.c **** 	integrate[receiver_num] += error;
 152              		.loc 1 94 2 is_stmt 1 view .LVU34
 153              		.loc 1 94 26 is_stmt 0 view .LVU35
 154 0014 1649     		ldr	r1, .L9+4
 155              	.LVL11:
 156              		.loc 1 94 26 view .LVU36
 157 0016 51F82240 		ldr	r4, [r1, r2, lsl #2]
 158              	.LVL12:
 159              		.loc 1 94 26 view .LVU37
 160 001a 2344     		add	r3, r3, r4
 161              	.LVL13:
 162              		.loc 1 94 26 view .LVU38
 163 001c 41F82230 		str	r3, [r1, r2, lsl #2]
  95:Core/Src/Tools/Convert.c **** 
  96:Core/Src/Tools/Convert.c **** 	count[receiver_num]++;
 164              		.loc 1 96 2 is_stmt 1 view .LVU39
 165              		.loc 1 96 7 is_stmt 0 view .LVU40
 166 0020 144C     		ldr	r4, .L9+8
 167 0022 54F82210 		ldr	r1, [r4, r2, lsl #2]
 168              		.loc 1 96 21 view .LVU41
 169 0026 0131     		adds	r1, r1, #1
 170 0028 44F82210 		str	r1, [r4, r2, lsl #2]
  97:Core/Src/Tools/Convert.c **** 	if(count[receiver_num] == average_of_n_times)
 171              		.loc 1 97 2 is_stmt 1 view .LVU42
 172              		.loc 1 97 4 is_stmt 0 view .LVU43
 173 002c 8142     		cmp	r1, r0
 174              		.loc 1 97 4 view .LVU44
 175 002e 07D0     		beq	.L8
 176              	.L6:
  98:Core/Src/Tools/Convert.c **** 	{
  99:Core/Src/Tools/Convert.c **** 		average[receiver_num] = (float)integrate[receiver_num] / count[receiver_num];
 100:Core/Src/Tools/Convert.c **** 		integrate[receiver_num] = 0;
 101:Core/Src/Tools/Convert.c **** 		count[receiver_num] = 0;
 102:Core/Src/Tools/Convert.c **** 	}
 103:Core/Src/Tools/Convert.c **** 	return average[receiver_num];
 177              		.loc 1 103 2 is_stmt 1 view .LVU45
 178              		.loc 1 103 16 is_stmt 0 view .LVU46
 179 0030 114B     		ldr	r3, .L9+12
 180 0032 03EB8202 		add	r2, r3, r2, lsl #2
 181              	.LVL14:
 104:Core/Src/Tools/Convert.c **** }
 182              		.loc 1 104 1 view .LVU47
 183 0036 92ED000A 		vldr.32	s0, [r2]
 184 003a 5DF8044B 		ldr	r4, [sp], #4
 185              	.LCFI2:
 186              		.cfi_remember_state
 187              		.cfi_restore 4
 188              		.cfi_def_cfa_offset 0
ARM GAS  C:\Users\leopi\AppData\Local\Temp\ccmWQUfi.s 			page 6


 189 003e 7047     		bx	lr
 190              	.LVL15:
 191              	.L8:
 192              	.LCFI3:
 193              		.cfi_restore_state
  99:Core/Src/Tools/Convert.c **** 		integrate[receiver_num] = 0;
 194              		.loc 1 99 3 is_stmt 1 view .LVU48
  99:Core/Src/Tools/Convert.c **** 		integrate[receiver_num] = 0;
 195              		.loc 1 99 27 is_stmt 0 view .LVU49
 196 0040 07EE903A 		vmov	s15, r3	@ int
 197 0044 F8EEE77A 		vcvt.f32.s32	s15, s15
  99:Core/Src/Tools/Convert.c **** 		integrate[receiver_num] = 0;
 198              		.loc 1 99 58 view .LVU50
 199 0048 07EE101A 		vmov	s14, r1	@ int
 200 004c B8EEC77A 		vcvt.f32.s32	s14, s14
 201 0050 C7EE876A 		vdiv.f32	s13, s15, s14
  99:Core/Src/Tools/Convert.c **** 		integrate[receiver_num] = 0;
 202              		.loc 1 99 25 view .LVU51
 203 0054 084B     		ldr	r3, .L9+12
 204 0056 03EB8203 		add	r3, r3, r2, lsl #2
 205 005a C3ED006A 		vstr.32	s13, [r3]
 100:Core/Src/Tools/Convert.c **** 		count[receiver_num] = 0;
 206              		.loc 1 100 3 is_stmt 1 view .LVU52
 100:Core/Src/Tools/Convert.c **** 		count[receiver_num] = 0;
 207              		.loc 1 100 27 is_stmt 0 view .LVU53
 208 005e 0023     		movs	r3, #0
 209 0060 0349     		ldr	r1, .L9+4
 210 0062 41F82230 		str	r3, [r1, r2, lsl #2]
 101:Core/Src/Tools/Convert.c **** 	}
 211              		.loc 1 101 3 is_stmt 1 view .LVU54
 101:Core/Src/Tools/Convert.c **** 	}
 212              		.loc 1 101 23 is_stmt 0 view .LVU55
 213 0066 44F82230 		str	r3, [r4, r2, lsl #2]
 214 006a E1E7     		b	.L6
 215              	.L10:
 216              		.align	2
 217              	.L9:
 218 006c 00000000 		.word	.LANCHOR0
 219 0070 00000000 		.word	.LANCHOR1
 220 0074 00000000 		.word	.LANCHOR2
 221 0078 00000000 		.word	.LANCHOR3
 222              		.cfi_endproc
 223              	.LFE3:
 225              		.section	.text.ADCToBatteryVoltage,"ax",%progbits
 226              		.align	1
 227              		.global	ADCToBatteryVoltage
 228              		.syntax unified
 229              		.thumb
 230              		.thumb_func
 232              	ADCToBatteryVoltage:
 233              	.LVL16:
 234              	.LFB4:
 105:Core/Src/Tools/Convert.c **** 
 106:Core/Src/Tools/Convert.c **** //void GetWallData(int average_of_n_times, int adc_data, int num)//å®Ÿéš›ã®ãƒ‡ãƒ¼ã‚¿ã‚’å¼•æ•°ã«å
 107:Core/Src/Tools/Convert.c **** //{
 108:Core/Src/Tools/Convert.c **** //
 109:Core/Src/Tools/Convert.c **** //	//4è¡Œæ›¸ãã®ã¯ã‚¹ãƒãƒ¼ãƒˆã§ãªã„ã€‚
ARM GAS  C:\Users\leopi\AppData\Local\Temp\ccmWQUfi.s 			page 7


 110:Core/Src/Tools/Convert.c **** //
 111:Core/Src/Tools/Convert.c **** //	wall_sensor[FL].raw = adc1[0];	//ch10//æ–°æ©Ÿä½“ã¯å…¨éƒ¨åŒã˜adcã§ã‚„ã‚‹
 112:Core/Src/Tools/Convert.c **** //	wall_sensor[SR].raw = adc1[1];	//ch14
 113:Core/Src/Tools/Convert.c **** //	wall_sensor[SL].raw = adc2[0];	//ch11
 114:Core/Src/Tools/Convert.c **** //	wall_sensor[FR].raw = adc2[1];	//ch15
 115:Core/Src/Tools/Convert.c **** //
 116:Core/Src/Tools/Convert.c **** //	wall_sensor[FL].error = abs(wall_sensor[FL].last - wall_sensor[FL].raw);
 117:Core/Src/Tools/Convert.c **** //	wall_sensor[SR].error = abs(wall_sensor[SR].last - wall_sensor[SR].raw);
 118:Core/Src/Tools/Convert.c **** //	wall_sensor[SL].error = abs(wall_sensor[SL].last - wall_sensor[SL].raw);
 119:Core/Src/Tools/Convert.c **** //	wall_sensor[FR].error = abs(wall_sensor[FR].last - wall_sensor[FR].raw);
 120:Core/Src/Tools/Convert.c **** //
 121:Core/Src/Tools/Convert.c **** //#if 0 //å®Ÿï¿½?1,3ã¨ã‚‚ã«å…¨ADCã®??ï¿½ï¿½?ï¿½ï¿½?ãƒ¼ã‚¿ã‚’å–??ï¿½ï¿½?ï¿½ï¿½? 5000??ï¿½ï¿½?ï¿½
 122:Core/Src/Tools/Convert.c **** //	    static int i=0;
 123:Core/Src/Tools/Convert.c **** //	    if(i <= 9996)
 124:Core/Src/Tools/Convert.c **** //	    {
 125:Core/Src/Tools/Convert.c **** //	    	//??ï¿½ï¿½?ï¿½ï¿½? //2500å€‹ãšã¤ã®??ï¿½ï¿½?ï¿½ï¿½?ãƒ¼ã‚¿
 126:Core/Src/Tools/Convert.c **** //			data_log[i] = sl_ad1_10;
 127:Core/Src/Tools/Convert.c **** //			data_log[i+1] =fr_ad1_14;
 128:Core/Src/Tools/Convert.c **** //			data_log[i+2] =fl_ad2_11;
 129:Core/Src/Tools/Convert.c **** //			data_log[i+3] =sr_ad2_15;
 130:Core/Src/Tools/Convert.c **** //
 131:Core/Src/Tools/Convert.c **** //	    	//å·® //10å›ã«??ï¿½ï¿½?ï¿½ï¿½?å›ï¿½???ï¿½ï¿½?ï¿½ï¿½æ›´æ–° å®Ÿè³ª250å€‹ãšã¤ã®??ï¿½ï¿½?
 132:Core/Src/Tools/Convert.c **** //	    	data_log[10000+i] = sl_error;
 133:Core/Src/Tools/Convert.c **** //	    	data_log[10001+i] = fr_error;
 134:Core/Src/Tools/Convert.c **** //	    	data_log[10002+i] = fl_error;
 135:Core/Src/Tools/Convert.c **** //	    	data_log[10003+i] = sr_error;
 136:Core/Src/Tools/Convert.c **** //	    	i+=4;
 137:Core/Src/Tools/Convert.c **** //	    }
 138:Core/Src/Tools/Convert.c **** //#endif
 139:Core/Src/Tools/Convert.c **** //
 140:Core/Src/Tools/Convert.c **** //	wall_sensor[FL].last = adc1[0];	//ch10//æ–°æ©Ÿä½“ã¯å…¨éƒ¨åŒã˜adcã§ã‚„ã‚‹
 141:Core/Src/Tools/Convert.c **** //	wall_sensor[SR].last = adc1[1];	//ch14
 142:Core/Src/Tools/Convert.c **** //	wall_sensor[SL].last = adc2[0];	//ch11
 143:Core/Src/Tools/Convert.c **** //	wall_sensor[FR].last = adc2[1];	//ch15
 144:Core/Src/Tools/Convert.c **** //
 145:Core/Src/Tools/Convert.c **** //
 146:Core/Src/Tools/Convert.c **** //	wall_sensor[FL].integrate += wall_sensor[FL].error;	//ch10//æ–°æ©Ÿä½“ã¯å…¨éƒ¨åŒã˜adcã§ã‚„ã‚‹
 147:Core/Src/Tools/Convert.c **** //	wall_sensor[SR].integrate += wall_sensor[SR].error;	//ch14
 148:Core/Src/Tools/Convert.c **** //	wall_sensor[SL].integrate += wall_sensor[SL].error;	//ch11
 149:Core/Src/Tools/Convert.c **** //	wall_sensor[FR].integrate += wall_sensor[FR].error;	//ch15
 150:Core/Src/Tools/Convert.c **** //
 151:Core/Src/Tools/Convert.c **** //
 152:Core/Src/Tools/Convert.c **** //	count ++;
 153:Core/Src/Tools/Convert.c **** //	//static int i=10000;
 154:Core/Src/Tools/Convert.c **** //	if(count == average_of_n_times){
 155:Core/Src/Tools/Convert.c **** //		wall_sensor[FL].average = (float)wall_sensor[FL].integrate / count;
 156:Core/Src/Tools/Convert.c **** //		wall_sensor[SR].average = (float)wall_sensor[SR].integrate / count;
 157:Core/Src/Tools/Convert.c **** //		wall_sensor[SL].average = (float)wall_sensor[SL].integrate / count;
 158:Core/Src/Tools/Convert.c **** //		wall_sensor[FR].average = (float)wall_sensor[FR].integrate / count;
 159:Core/Src/Tools/Convert.c **** //
 160:Core/Src/Tools/Convert.c **** //		wall_sensor[FL].current = wall_sensor[FL].average;
 161:Core/Src/Tools/Convert.c **** //		wall_sensor[SR].current = wall_sensor[SR].average;
 162:Core/Src/Tools/Convert.c **** //		wall_sensor[SL].current = wall_sensor[SL].average;
 163:Core/Src/Tools/Convert.c **** //		wall_sensor[FR].current = wall_sensor[FR].average;
 164:Core/Src/Tools/Convert.c **** //
 165:Core/Src/Tools/Convert.c **** //		wall_sensor[FL].integrate = 0;
 166:Core/Src/Tools/Convert.c **** //		wall_sensor[SR].integrate = 0;
ARM GAS  C:\Users\leopi\AppData\Local\Temp\ccmWQUfi.s 			page 8


 167:Core/Src/Tools/Convert.c **** //		wall_sensor[SL].integrate = 0;
 168:Core/Src/Tools/Convert.c **** //		wall_sensor[FR].integrate = 0;
 169:Core/Src/Tools/Convert.c **** //
 170:Core/Src/Tools/Convert.c **** //		count = 0;
 171:Core/Src/Tools/Convert.c **** //	}
 172:Core/Src/Tools/Convert.c **** //
 173:Core/Src/Tools/Convert.c **** //}
 174:Core/Src/Tools/Convert.c **** 
 175:Core/Src/Tools/Convert.c **** 
 176:Core/Src/Tools/Convert.c **** /*-------------------------------------------ãƒãƒƒãƒ†ãƒªé–¢é€£------------------------------------
 177:Core/Src/Tools/Convert.c **** //--------------------------//
 178:Core/Src/Tools/Convert.c **** //ç›®çš„ : adcãƒ‡ãƒ¼ã‚¿ã‚’ãƒãƒƒãƒ†ãƒªé›»åœ§å€¤ã«å¤‰æ›ã™ã‚‹
 179:Core/Src/Tools/Convert.c **** //å¼•æ•° : adcã®å€¤
 180:Core/Src/Tools/Convert.c **** //æˆ»ã‚Šå€¤ : ãƒãƒƒãƒ†ãƒªé›»åœ§å€¤
 181:Core/Src/Tools/Convert.c **** //-------------------------//
 182:Core/Src/Tools/Convert.c **** float ADCToBatteryVoltage(int adc_data, float split, float pin_v_max, float adc_resolution)	//adcã‚
 183:Core/Src/Tools/Convert.c **** {
 235              		.loc 1 183 1 is_stmt 1 view -0
 236              		.cfi_startproc
 237              		@ args = 0, pretend = 0, frame = 0
 238              		@ frame_needed = 0, uses_anonymous_args = 0
 239              		@ link register save eliminated.
 240              		.loc 1 183 1 is_stmt 0 view .LVU57
 241 0000 07EE900A 		vmov	s15, r0	@ int
 184:Core/Src/Tools/Convert.c **** 	float battery_voltage = 0;
 242              		.loc 1 184 2 is_stmt 1 view .LVU58
 243              	.LVL17:
 185:Core/Src/Tools/Convert.c **** 	battery_voltage =  adc_data * split* pin_v_max / adc_resolution;//V_SPLIT_NUM * PIN_V_MAX / ADC_RE
 244              		.loc 1 185 2 view .LVU59
 245              		.loc 1 185 30 is_stmt 0 view .LVU60
 246 0004 F8EEE77A 		vcvt.f32.s32	s15, s15
 247 0008 67EE807A 		vmul.f32	s15, s15, s0
 248              		.loc 1 185 37 view .LVU61
 249 000c 67EEA07A 		vmul.f32	s15, s15, s1
 250              	.LVL18:
 186:Core/Src/Tools/Convert.c **** 	return battery_voltage;
 251              		.loc 1 186 2 is_stmt 1 view .LVU62
 187:Core/Src/Tools/Convert.c **** }
 252              		.loc 1 187 1 is_stmt 0 view .LVU63
 253 0010 87EE810A 		vdiv.f32	s0, s15, s2
 254              	.LVL19:
 255              		.loc 1 187 1 view .LVU64
 256 0014 7047     		bx	lr
 257              		.cfi_endproc
 258              	.LFE4:
 260              		.section	.text.IntegerPower,"ax",%progbits
 261              		.align	1
 262              		.global	IntegerPower
 263              		.syntax unified
 264              		.thumb
 265              		.thumb_func
 267              	IntegerPower:
 268              	.LVL20:
 269              	.LFB5:
 188:Core/Src/Tools/Convert.c **** 
 189:Core/Src/Tools/Convert.c **** //--------------------------//
 190:Core/Src/Tools/Convert.c **** //ç›®çš„ : æ•´æ•°ã‚’ç´¯ä¹—ã™ã‚‹
ARM GAS  C:\Users\leopi\AppData\Local\Temp\ccmWQUfi.s 			page 9


 191:Core/Src/Tools/Convert.c **** //å¼•æ•° : åº•ã€æŒ‡æ•°
 192:Core/Src/Tools/Convert.c **** //æˆ»ã‚Šå€¤ : è§£
 193:Core/Src/Tools/Convert.c **** //-------------------------//
 194:Core/Src/Tools/Convert.c **** 
 195:Core/Src/Tools/Convert.c **** int IntegerPower(int integer, int exponential)
 196:Core/Src/Tools/Convert.c **** {
 270              		.loc 1 196 1 is_stmt 1 view -0
 271              		.cfi_startproc
 272              		@ args = 0, pretend = 0, frame = 0
 273              		@ frame_needed = 0, uses_anonymous_args = 0
 274              		@ link register save eliminated.
 275              		.loc 1 196 1 is_stmt 0 view .LVU66
 276 0000 0246     		mov	r2, r0
 197:Core/Src/Tools/Convert.c **** 	int pattern_num = 1;
 277              		.loc 1 197 2 is_stmt 1 view .LVU67
 278              	.LVL21:
 198:Core/Src/Tools/Convert.c **** 	for(int i=0; i < exponential ; i++)
 279              		.loc 1 198 2 view .LVU68
 280              	.LBB2:
 281              		.loc 1 198 6 view .LVU69
 282              		.loc 1 198 10 is_stmt 0 view .LVU70
 283 0002 0023     		movs	r3, #0
 284              	.LBE2:
 197:Core/Src/Tools/Convert.c **** 	int pattern_num = 1;
 285              		.loc 1 197 6 view .LVU71
 286 0004 0120     		movs	r0, #1
 287              	.LVL22:
 288              	.LBB3:
 289              		.loc 1 198 2 view .LVU72
 290 0006 02E0     		b	.L13
 291              	.LVL23:
 292              	.L14:
 199:Core/Src/Tools/Convert.c **** 	{
 200:Core/Src/Tools/Convert.c **** 		pattern_num *= integer;
 293              		.loc 1 200 3 is_stmt 1 discriminator 3 view .LVU73
 294              		.loc 1 200 15 is_stmt 0 discriminator 3 view .LVU74
 295 0008 02FB00F0 		mul	r0, r2, r0
 296              	.LVL24:
 198:Core/Src/Tools/Convert.c **** 	for(int i=0; i < exponential ; i++)
 297              		.loc 1 198 33 is_stmt 1 discriminator 3 view .LVU75
 198:Core/Src/Tools/Convert.c **** 	for(int i=0; i < exponential ; i++)
 298              		.loc 1 198 34 is_stmt 0 discriminator 3 view .LVU76
 299 000c 0133     		adds	r3, r3, #1
 300              	.LVL25:
 301              	.L13:
 198:Core/Src/Tools/Convert.c **** 	for(int i=0; i < exponential ; i++)
 302              		.loc 1 198 15 is_stmt 1 discriminator 1 view .LVU77
 198:Core/Src/Tools/Convert.c **** 	for(int i=0; i < exponential ; i++)
 303              		.loc 1 198 2 is_stmt 0 discriminator 1 view .LVU78
 304 000e 8B42     		cmp	r3, r1
 305 0010 FADB     		blt	.L14
 306              	.LBE3:
 201:Core/Src/Tools/Convert.c **** 	}
 202:Core/Src/Tools/Convert.c **** 	return pattern_num;
 307              		.loc 1 202 2 is_stmt 1 view .LVU79
 203:Core/Src/Tools/Convert.c **** }
 308              		.loc 1 203 1 is_stmt 0 view .LVU80
ARM GAS  C:\Users\leopi\AppData\Local\Temp\ccmWQUfi.s 			page 10


 309 0012 7047     		bx	lr
 310              		.cfi_endproc
 311              	.LFE5:
 313              		.section	.text.GetBatteryLevel,"ax",%progbits
 314              		.align	1
 315              		.global	GetBatteryLevel
 316              		.syntax unified
 317              		.thumb
 318              		.thumb_func
 320              	GetBatteryLevel:
 321              	.LVL26:
 322              	.LFB6:
 204:Core/Src/Tools/Convert.c **** 
 205:Core/Src/Tools/Convert.c **** //--------------------------//
 206:Core/Src/Tools/Convert.c **** //ç›®çš„ : é›»åœ§ãƒ¬ãƒ™ãƒ«ã‚’è¿”ã™ (ç¾åœ¨å€¤ãŒã€æœ€å¤§æœ€å°ã®é–“ã®ã©ã®ãƒ¬ãƒ™ãƒ«ã«ã‚ã‚‹ã
 207:Core/Src/Tools/Convert.c **** //å¼•æ•° : èª¿ã¹ãŸã„å€¤ã€æœ€å°å€¤ã€æœ€å¤§å€¤ã€ä½•æ®µéšã®ãƒ¬ãƒ™ãƒ«ã«åˆ†ã‘ã‚‹ã‹
 208:Core/Src/Tools/Convert.c **** //æˆ»ã‚Šå€¤ : ãƒ¬ãƒ™ãƒ«
 209:Core/Src/Tools/Convert.c **** //-------------------------//
 210:Core/Src/Tools/Convert.c **** 
 211:Core/Src/Tools/Convert.c **** //æ®‹é‡ãƒ¬ãƒ™ãƒ«ã‚’è¿”ã™
 212:Core/Src/Tools/Convert.c **** int GetBatteryLevel(float current_voltage, float battery_min, float battery_max, int level_num)	//ã
 213:Core/Src/Tools/Convert.c **** {
 323              		.loc 1 213 1 is_stmt 1 view -0
 324              		.cfi_startproc
 325              		@ args = 0, pretend = 0, frame = 0
 326              		@ frame_needed = 0, uses_anonymous_args = 0
 327              		@ link register save eliminated.
 328              		.loc 1 213 1 is_stmt 0 view .LVU82
 329 0000 0246     		mov	r2, r0
 214:Core/Src/Tools/Convert.c **** 	float current_percentage = current_voltage / battery_max;
 330              		.loc 1 214 2 is_stmt 1 view .LVU83
 331              		.loc 1 214 8 is_stmt 0 view .LVU84
 332 0002 80EE016A 		vdiv.f32	s12, s0, s2
 333              	.LVL27:
 215:Core/Src/Tools/Convert.c **** 	float lowest_percentage =  battery_min / battery_max;
 334              		.loc 1 215 2 is_stmt 1 view .LVU85
 335              		.loc 1 215 8 is_stmt 0 view .LVU86
 336 0006 80EE817A 		vdiv.f32	s14, s1, s2
 337              	.LVL28:
 216:Core/Src/Tools/Convert.c **** 
 217:Core/Src/Tools/Convert.c **** 	float percentage_per_pattern = (1 - lowest_percentage) / (float) level_num;
 338              		.loc 1 217 2 is_stmt 1 view .LVU87
 339              		.loc 1 217 36 is_stmt 0 view .LVU88
 340 000a F7EE007A 		vmov.f32	s15, #1.0e+0
 341 000e 77EEC77A 		vsub.f32	s15, s15, s14
 342              		.loc 1 217 59 view .LVU89
 343 0012 06EE900A 		vmov	s13, r0	@ int
 344 0016 F8EEE65A 		vcvt.f32.s32	s11, s13
 345              		.loc 1 217 8 view .LVU90
 346 001a C7EEA56A 		vdiv.f32	s13, s15, s11
 347              	.LVL29:
 218:Core/Src/Tools/Convert.c **** 
 219:Core/Src/Tools/Convert.c **** 	int pattern = 0;
 348              		.loc 1 219 2 is_stmt 1 view .LVU91
 220:Core/Src/Tools/Convert.c **** 	for(int i=0; i < level_num; i++)
 349              		.loc 1 220 2 view .LVU92
 350              	.LBB4:
ARM GAS  C:\Users\leopi\AppData\Local\Temp\ccmWQUfi.s 			page 11


 351              		.loc 1 220 6 view .LVU93
 352              		.loc 1 220 10 is_stmt 0 view .LVU94
 353 001e 0023     		movs	r3, #0
 354              	.LBE4:
 219:Core/Src/Tools/Convert.c **** 	for(int i=0; i < level_num; i++)
 355              		.loc 1 219 6 view .LVU95
 356 0020 1846     		mov	r0, r3
 357              	.LVL30:
 358              	.LBB5:
 359              		.loc 1 220 2 view .LVU96
 360 0022 00E0     		b	.L16
 361              	.LVL31:
 362              	.L17:
 363              		.loc 1 220 30 is_stmt 1 discriminator 2 view .LVU97
 364              		.loc 1 220 31 is_stmt 0 discriminator 2 view .LVU98
 365 0024 0133     		adds	r3, r3, #1
 366              	.LVL32:
 367              	.L16:
 368              		.loc 1 220 15 is_stmt 1 discriminator 1 view .LVU99
 369              		.loc 1 220 2 is_stmt 0 discriminator 1 view .LVU100
 370 0026 9342     		cmp	r3, r2
 371 0028 0EDA     		bge	.L20
 221:Core/Src/Tools/Convert.c **** 	{
 222:Core/Src/Tools/Convert.c **** 		if( ( lowest_percentage + (percentage_per_pattern* i) )  <= current_percentage )
 372              		.loc 1 222 3 is_stmt 1 view .LVU101
 373              		.loc 1 222 52 is_stmt 0 view .LVU102
 374 002a 07EE903A 		vmov	s15, r3	@ int
 375 002e F8EEE77A 		vcvt.f32.s32	s15, s15
 376 0032 67EEA67A 		vmul.f32	s15, s15, s13
 377              		.loc 1 222 27 view .LVU103
 378 0036 77EE877A 		vadd.f32	s15, s15, s14
 379              		.loc 1 222 5 view .LVU104
 380 003a F4EEC67A 		vcmpe.f32	s15, s12
 381 003e F1EE10FA 		vmrs	APSR_nzcv, FPSCR
 382 0042 EFD8     		bhi	.L17
 223:Core/Src/Tools/Convert.c **** 		{
 224:Core/Src/Tools/Convert.c **** 			pattern = i;
 383              		.loc 1 224 12 view .LVU105
 384 0044 1846     		mov	r0, r3
 385              	.LVL33:
 386              		.loc 1 224 12 view .LVU106
 387 0046 EDE7     		b	.L17
 388              	.LVL34:
 389              	.L20:
 390              		.loc 1 224 12 view .LVU107
 391              	.LBE5:
 225:Core/Src/Tools/Convert.c **** 		}
 226:Core/Src/Tools/Convert.c **** 	}
 227:Core/Src/Tools/Convert.c **** 	return pattern;
 392              		.loc 1 227 2 is_stmt 1 view .LVU108
 228:Core/Src/Tools/Convert.c **** }
 393              		.loc 1 228 1 is_stmt 0 view .LVU109
 394 0048 7047     		bx	lr
 395              		.cfi_endproc
 396              	.LFE6:
 398              		.section	.bss.average.0,"aw",%nobits
 399              		.align	2
ARM GAS  C:\Users\leopi\AppData\Local\Temp\ccmWQUfi.s 			page 12


 400              		.set	.LANCHOR3,. + 0
 403              	average.0:
 404 0000 00000000 		.space	16
 404      00000000 
 404      00000000 
 404      00000000 
 405              		.section	.bss.count.1,"aw",%nobits
 406              		.align	2
 407              		.set	.LANCHOR2,. + 0
 410              	count.1:
 411 0000 00000000 		.space	16
 411      00000000 
 411      00000000 
 411      00000000 
 412              		.section	.bss.integrate.2,"aw",%nobits
 413              		.align	2
 414              		.set	.LANCHOR1,. + 0
 417              	integrate.2:
 418 0000 00000000 		.space	16
 418      00000000 
 418      00000000 
 418      00000000 
 419              		.section	.bss.last.3,"aw",%nobits
 420              		.align	2
 421              		.set	.LANCHOR0,. + 0
 424              	last.3:
 425 0000 00000000 		.space	16
 425      00000000 
 425      00000000 
 425      00000000 
 426              		.text
 427              	.Letext0:
ARM GAS  C:\Users\leopi\AppData\Local\Temp\ccmWQUfi.s 			page 13

