ARM GAS  C:\Users\leopi\AppData\Local\Temp\cczqc55t.s 			page 1


   1              		.cpu cortex-m4
   2              		.arch armv7e-m
   3              		.fpu fpv4-sp-d16
   4              		.eabi_attribute 27, 1
   5              		.eabi_attribute 28, 1
   6              		.eabi_attribute 20, 1
   7              		.eabi_attribute 21, 1
   8              		.eabi_attribute 23, 3
   9              		.eabi_attribute 24, 1
  10              		.eabi_attribute 25, 1
  11              		.eabi_attribute 26, 1
  12              		.eabi_attribute 30, 1
  13              		.eabi_attribute 34, 1
  14              		.eabi_attribute 18, 4
  15              		.file	"dfs.c"
  16              		.text
  17              	.Ltext0:
  18              		.cfi_sections	.debug_frame
  19              		.section	.text.HighDFSFlag,"ax",%progbits
  20              		.align	1
  21              		.global	HighDFSFlag
  22              		.syntax unified
  23              		.thumb
  24              		.thumb_func
  26              	HighDFSFlag:
  27              	.LFB3:
  28              		.file 1 "C:/Users/leopi/Documents/vs/S-Reo/MazeLibrary/dfs.c"
   1:C:/Users/leopi/Documents/vs/S-Reo/MazeLibrary\dfs.c **** /*
   2:C:/Users/leopi/Documents/vs/S-Reo/MazeLibrary\dfs.c ****  * dfs.c
   3:C:/Users/leopi/Documents/vs/S-Reo/MazeLibrary\dfs.c ****  *
   4:C:/Users/leopi/Documents/vs/S-Reo/MazeLibrary\dfs.c ****  *  Created on: 2022/11/06
   5:C:/Users/leopi/Documents/vs/S-Reo/MazeLibrary\dfs.c ****  *      Author: leopi
   6:C:/Users/leopi/Documents/vs/S-Reo/MazeLibrary\dfs.c ****  */
   7:C:/Users/leopi/Documents/vs/S-Reo/MazeLibrary\dfs.c **** 
   8:C:/Users/leopi/Documents/vs/S-Reo/MazeLibrary\dfs.c **** 
   9:C:/Users/leopi/Documents/vs/S-Reo/MazeLibrary\dfs.c **** /*Depth First Search*/
  10:C:/Users/leopi/Documents/vs/S-Reo/MazeLibrary\dfs.c **** 
  11:C:/Users/leopi/Documents/vs/S-Reo/MazeLibrary\dfs.c **** #include "dfs.h"
  12:C:/Users/leopi/Documents/vs/S-Reo/MazeLibrary\dfs.c **** #include "stdbool.h"
  13:C:/Users/leopi/Documents/vs/S-Reo/MazeLibrary\dfs.c **** // DFS深さ優先探索は、行き止まり、既存のマス、につくまで周囲のマスを
  14:C:/Users/leopi/Documents/vs/S-Reo/MazeLibrary\dfs.c **** // スタックを積む、取り出す機能の提供
  15:C:/Users/leopi/Documents/vs/S-Reo/MazeLibrary\dfs.c **** // 積むときは、周囲のノードを順番に。重複を避けて積むか、取り出しで
  16:C:/Users/leopi/Documents/vs/S-Reo/MazeLibrary\dfs.c **** 
  17:C:/Users/leopi/Documents/vs/S-Reo/MazeLibrary\dfs.c **** //node *nd_stack[STACK_NUM]={0};
  18:C:/Users/leopi/Documents/vs/S-Reo/MazeLibrary\dfs.c **** position mass_stack[STACK_NUM]={0};
  19:C:/Users/leopi/Documents/vs/S-Reo/MazeLibrary\dfs.c **** static int Stack_Num;
  20:C:/Users/leopi/Documents/vs/S-Reo/MazeLibrary\dfs.c **** _Bool Visit[NUMBER_OF_SQUARES_X][NUMBER_OF_SQUARES_Y];
  21:C:/Users/leopi/Documents/vs/S-Reo/MazeLibrary\dfs.c **** static _Bool DFS_Flag;
  22:C:/Users/leopi/Documents/vs/S-Reo/MazeLibrary\dfs.c **** static _Bool Stack_Flag;
  23:C:/Users/leopi/Documents/vs/S-Reo/MazeLibrary\dfs.c **** void HighDFSFlag(){
  29              		.loc 1 23 19 view -0
  30              		.cfi_startproc
  31              		@ args = 0, pretend = 0, frame = 0
  32              		@ frame_needed = 0, uses_anonymous_args = 0
  33              		@ link register save eliminated.
  24:C:/Users/leopi/Documents/vs/S-Reo/MazeLibrary\dfs.c **** 	DFS_Flag = true;
  34              		.loc 1 24 2 view .LVU1
ARM GAS  C:\Users\leopi\AppData\Local\Temp\cczqc55t.s 			page 2


  35              		.loc 1 24 11 is_stmt 0 view .LVU2
  36 0000 014B     		ldr	r3, .L2
  37 0002 0122     		movs	r2, #1
  38 0004 1A70     		strb	r2, [r3]
  25:C:/Users/leopi/Documents/vs/S-Reo/MazeLibrary\dfs.c **** }
  39              		.loc 1 25 1 view .LVU3
  40 0006 7047     		bx	lr
  41              	.L3:
  42              		.align	2
  43              	.L2:
  44 0008 00000000 		.word	.LANCHOR0
  45              		.cfi_endproc
  46              	.LFE3:
  48              		.section	.text.LowDFSFlag,"ax",%progbits
  49              		.align	1
  50              		.global	LowDFSFlag
  51              		.syntax unified
  52              		.thumb
  53              		.thumb_func
  55              	LowDFSFlag:
  56              	.LFB4:
  26:C:/Users/leopi/Documents/vs/S-Reo/MazeLibrary\dfs.c **** void LowDFSFlag(){
  57              		.loc 1 26 18 is_stmt 1 view -0
  58              		.cfi_startproc
  59              		@ args = 0, pretend = 0, frame = 0
  60              		@ frame_needed = 0, uses_anonymous_args = 0
  61              		@ link register save eliminated.
  27:C:/Users/leopi/Documents/vs/S-Reo/MazeLibrary\dfs.c **** 	DFS_Flag = false;
  62              		.loc 1 27 2 view .LVU5
  63              		.loc 1 27 11 is_stmt 0 view .LVU6
  64 0000 014B     		ldr	r3, .L5
  65 0002 0022     		movs	r2, #0
  66 0004 1A70     		strb	r2, [r3]
  28:C:/Users/leopi/Documents/vs/S-Reo/MazeLibrary\dfs.c **** }
  67              		.loc 1 28 1 view .LVU7
  68 0006 7047     		bx	lr
  69              	.L6:
  70              		.align	2
  71              	.L5:
  72 0008 00000000 		.word	.LANCHOR0
  73              		.cfi_endproc
  74              	.LFE4:
  76              		.section	.text.GetDFSFlag,"ax",%progbits
  77              		.align	1
  78              		.global	GetDFSFlag
  79              		.syntax unified
  80              		.thumb
  81              		.thumb_func
  83              	GetDFSFlag:
  84              	.LFB5:
  29:C:/Users/leopi/Documents/vs/S-Reo/MazeLibrary\dfs.c **** _Bool GetDFSFlag(){
  85              		.loc 1 29 19 is_stmt 1 view -0
  86              		.cfi_startproc
  87              		@ args = 0, pretend = 0, frame = 0
  88              		@ frame_needed = 0, uses_anonymous_args = 0
  89              		@ link register save eliminated.
  30:C:/Users/leopi/Documents/vs/S-Reo/MazeLibrary\dfs.c **** 	return DFS_Flag;
ARM GAS  C:\Users\leopi\AppData\Local\Temp\cczqc55t.s 			page 3


  90              		.loc 1 30 2 view .LVU9
  31:C:/Users/leopi/Documents/vs/S-Reo/MazeLibrary\dfs.c **** }
  91              		.loc 1 31 1 is_stmt 0 view .LVU10
  92 0000 014B     		ldr	r3, .L8
  93 0002 1878     		ldrb	r0, [r3]	@ zero_extendqisi2
  94 0004 7047     		bx	lr
  95              	.L9:
  96 0006 00BF     		.align	2
  97              	.L8:
  98 0008 00000000 		.word	.LANCHOR0
  99              		.cfi_endproc
 100              	.LFE5:
 102              		.section	.text.HighStackFlag,"ax",%progbits
 103              		.align	1
 104              		.global	HighStackFlag
 105              		.syntax unified
 106              		.thumb
 107              		.thumb_func
 109              	HighStackFlag:
 110              	.LFB6:
  32:C:/Users/leopi/Documents/vs/S-Reo/MazeLibrary\dfs.c **** 
  33:C:/Users/leopi/Documents/vs/S-Reo/MazeLibrary\dfs.c **** void HighStackFlag(){
 111              		.loc 1 33 21 is_stmt 1 view -0
 112              		.cfi_startproc
 113              		@ args = 0, pretend = 0, frame = 0
 114              		@ frame_needed = 0, uses_anonymous_args = 0
 115              		@ link register save eliminated.
  34:C:/Users/leopi/Documents/vs/S-Reo/MazeLibrary\dfs.c **** 	Stack_Flag = true;
 116              		.loc 1 34 2 view .LVU12
 117              		.loc 1 34 13 is_stmt 0 view .LVU13
 118 0000 014B     		ldr	r3, .L11
 119 0002 0122     		movs	r2, #1
 120 0004 1A70     		strb	r2, [r3]
  35:C:/Users/leopi/Documents/vs/S-Reo/MazeLibrary\dfs.c **** }
 121              		.loc 1 35 1 view .LVU14
 122 0006 7047     		bx	lr
 123              	.L12:
 124              		.align	2
 125              	.L11:
 126 0008 00000000 		.word	.LANCHOR1
 127              		.cfi_endproc
 128              	.LFE6:
 130              		.section	.text.LowStackFlag,"ax",%progbits
 131              		.align	1
 132              		.global	LowStackFlag
 133              		.syntax unified
 134              		.thumb
 135              		.thumb_func
 137              	LowStackFlag:
 138              	.LFB7:
  36:C:/Users/leopi/Documents/vs/S-Reo/MazeLibrary\dfs.c **** void LowStackFlag(){
 139              		.loc 1 36 20 is_stmt 1 view -0
 140              		.cfi_startproc
 141              		@ args = 0, pretend = 0, frame = 0
 142              		@ frame_needed = 0, uses_anonymous_args = 0
 143              		@ link register save eliminated.
  37:C:/Users/leopi/Documents/vs/S-Reo/MazeLibrary\dfs.c **** 	Stack_Flag = false;
ARM GAS  C:\Users\leopi\AppData\Local\Temp\cczqc55t.s 			page 4


 144              		.loc 1 37 2 view .LVU16
 145              		.loc 1 37 13 is_stmt 0 view .LVU17
 146 0000 014B     		ldr	r3, .L14
 147 0002 0022     		movs	r2, #0
 148 0004 1A70     		strb	r2, [r3]
  38:C:/Users/leopi/Documents/vs/S-Reo/MazeLibrary\dfs.c **** }
 149              		.loc 1 38 1 view .LVU18
 150 0006 7047     		bx	lr
 151              	.L15:
 152              		.align	2
 153              	.L14:
 154 0008 00000000 		.word	.LANCHOR1
 155              		.cfi_endproc
 156              	.LFE7:
 158              		.section	.text.GetStackFlag,"ax",%progbits
 159              		.align	1
 160              		.global	GetStackFlag
 161              		.syntax unified
 162              		.thumb
 163              		.thumb_func
 165              	GetStackFlag:
 166              	.LFB8:
  39:C:/Users/leopi/Documents/vs/S-Reo/MazeLibrary\dfs.c **** _Bool GetStackFlag(){
 167              		.loc 1 39 21 is_stmt 1 view -0
 168              		.cfi_startproc
 169              		@ args = 0, pretend = 0, frame = 0
 170              		@ frame_needed = 0, uses_anonymous_args = 0
 171              		@ link register save eliminated.
  40:C:/Users/leopi/Documents/vs/S-Reo/MazeLibrary\dfs.c **** 	return Stack_Flag;
 172              		.loc 1 40 2 view .LVU20
  41:C:/Users/leopi/Documents/vs/S-Reo/MazeLibrary\dfs.c **** }
 173              		.loc 1 41 1 is_stmt 0 view .LVU21
 174 0000 014B     		ldr	r3, .L17
 175 0002 1878     		ldrb	r0, [r3]	@ zero_extendqisi2
 176 0004 7047     		bx	lr
 177              	.L18:
 178 0006 00BF     		.align	2
 179              	.L17:
 180 0008 00000000 		.word	.LANCHOR1
 181              		.cfi_endproc
 182              	.LFE8:
 184              		.section	.text.InitStackNum,"ax",%progbits
 185              		.align	1
 186              		.global	InitStackNum
 187              		.syntax unified
 188              		.thumb
 189              		.thumb_func
 191              	InitStackNum:
 192              	.LFB9:
  42:C:/Users/leopi/Documents/vs/S-Reo/MazeLibrary\dfs.c **** 
  43:C:/Users/leopi/Documents/vs/S-Reo/MazeLibrary\dfs.c **** void InitStackNum(){
 193              		.loc 1 43 20 is_stmt 1 view -0
 194              		.cfi_startproc
 195              		@ args = 0, pretend = 0, frame = 0
 196              		@ frame_needed = 0, uses_anonymous_args = 0
 197              		@ link register save eliminated.
  44:C:/Users/leopi/Documents/vs/S-Reo/MazeLibrary\dfs.c **** 	Stack_Num = 0;
ARM GAS  C:\Users\leopi\AppData\Local\Temp\cczqc55t.s 			page 5


 198              		.loc 1 44 2 view .LVU23
 199              		.loc 1 44 12 is_stmt 0 view .LVU24
 200 0000 014B     		ldr	r3, .L20
 201 0002 0022     		movs	r2, #0
 202 0004 1A60     		str	r2, [r3]
  45:C:/Users/leopi/Documents/vs/S-Reo/MazeLibrary\dfs.c **** }
 203              		.loc 1 45 1 view .LVU25
 204 0006 7047     		bx	lr
 205              	.L21:
 206              		.align	2
 207              	.L20:
 208 0008 00000000 		.word	.LANCHOR2
 209              		.cfi_endproc
 210              	.LFE9:
 212              		.section	.text.SetStackNum,"ax",%progbits
 213              		.align	1
 214              		.global	SetStackNum
 215              		.syntax unified
 216              		.thumb
 217              		.thumb_func
 219              	SetStackNum:
 220              	.LVL0:
 221              	.LFB10:
  46:C:/Users/leopi/Documents/vs/S-Reo/MazeLibrary\dfs.c **** void SetStackNum(int n){
 222              		.loc 1 46 24 is_stmt 1 view -0
 223              		.cfi_startproc
 224              		@ args = 0, pretend = 0, frame = 0
 225              		@ frame_needed = 0, uses_anonymous_args = 0
 226              		@ link register save eliminated.
  47:C:/Users/leopi/Documents/vs/S-Reo/MazeLibrary\dfs.c **** 	Stack_Num = n;
 227              		.loc 1 47 2 view .LVU27
 228              		.loc 1 47 12 is_stmt 0 view .LVU28
 229 0000 014B     		ldr	r3, .L23
 230 0002 1860     		str	r0, [r3]
  48:C:/Users/leopi/Documents/vs/S-Reo/MazeLibrary\dfs.c **** }
 231              		.loc 1 48 1 view .LVU29
 232 0004 7047     		bx	lr
 233              	.L24:
 234 0006 00BF     		.align	2
 235              	.L23:
 236 0008 00000000 		.word	.LANCHOR2
 237              		.cfi_endproc
 238              	.LFE10:
 240              		.section	.text.GetStackNum,"ax",%progbits
 241              		.align	1
 242              		.global	GetStackNum
 243              		.syntax unified
 244              		.thumb
 245              		.thumb_func
 247              	GetStackNum:
 248              	.LFB11:
  49:C:/Users/leopi/Documents/vs/S-Reo/MazeLibrary\dfs.c **** int GetStackNum(){
 249              		.loc 1 49 18 is_stmt 1 view -0
 250              		.cfi_startproc
 251              		@ args = 0, pretend = 0, frame = 0
 252              		@ frame_needed = 0, uses_anonymous_args = 0
 253              		@ link register save eliminated.
ARM GAS  C:\Users\leopi\AppData\Local\Temp\cczqc55t.s 			page 6


  50:C:/Users/leopi/Documents/vs/S-Reo/MazeLibrary\dfs.c **** 	return Stack_Num;
 254              		.loc 1 50 2 view .LVU31
  51:C:/Users/leopi/Documents/vs/S-Reo/MazeLibrary\dfs.c **** }
 255              		.loc 1 51 1 is_stmt 0 view .LVU32
 256 0000 014B     		ldr	r3, .L26
 257 0002 1868     		ldr	r0, [r3]
 258 0004 7047     		bx	lr
 259              	.L27:
 260 0006 00BF     		.align	2
 261              	.L26:
 262 0008 00000000 		.word	.LANCHOR2
 263              		.cfi_endproc
 264              	.LFE11:
 266              		.section	.text.GetStackMass,"ax",%progbits
 267              		.align	1
 268              		.global	GetStackMass
 269              		.syntax unified
 270              		.thumb
 271              		.thumb_func
 273              	GetStackMass:
 274              	.LFB12:
  52:C:/Users/leopi/Documents/vs/S-Reo/MazeLibrary\dfs.c **** 
  53:C:/Users/leopi/Documents/vs/S-Reo/MazeLibrary\dfs.c **** position GetStackMass(){
 275              		.loc 1 53 24 is_stmt 1 view -0
 276              		.cfi_startproc
 277              		@ args = 0, pretend = 0, frame = 8
 278              		@ frame_needed = 0, uses_anonymous_args = 0
 279              		@ link register save eliminated.
 280 0000 82B0     		sub	sp, sp, #8
 281              	.LCFI0:
 282              		.cfi_def_cfa_offset 8
  54:C:/Users/leopi/Documents/vs/S-Reo/MazeLibrary\dfs.c **** 	return mass_stack[Stack_Num];
 283              		.loc 1 54 2 view .LVU34
 284              		.loc 1 54 19 is_stmt 0 view .LVU35
 285 0002 094B     		ldr	r3, .L30
 286 0004 1A68     		ldr	r2, [r3]
 287 0006 094B     		ldr	r3, .L30+4
 288 0008 33F81230 		ldrh	r3, [r3, r2, lsl #1]
 289 000c ADF80430 		strh	r3, [sp, #4]	@ movhi
 290 0010 0020     		movs	r0, #0
 291 0012 9DF80430 		ldrb	r3, [sp, #4]	@ zero_extendqisi2
 292 0016 63F30700 		bfi	r0, r3, #0, #8
 293 001a 9DF80530 		ldrb	r3, [sp, #5]	@ zero_extendqisi2
 294 001e 63F30F20 		bfi	r0, r3, #8, #8
  55:C:/Users/leopi/Documents/vs/S-Reo/MazeLibrary\dfs.c **** }
 295              		.loc 1 55 1 view .LVU36
 296 0022 02B0     		add	sp, sp, #8
 297              	.LCFI1:
 298              		.cfi_def_cfa_offset 0
 299              		@ sp needed
 300 0024 7047     		bx	lr
 301              	.L31:
 302 0026 00BF     		.align	2
 303              	.L30:
 304 0028 00000000 		.word	.LANCHOR2
 305 002c 00000000 		.word	.LANCHOR3
 306              		.cfi_endproc
ARM GAS  C:\Users\leopi\AppData\Local\Temp\cczqc55t.s 			page 7


 307              	.LFE12:
 309              		.section	.text.ComparePosition,"ax",%progbits
 310              		.align	1
 311              		.global	ComparePosition
 312              		.syntax unified
 313              		.thumb
 314              		.thumb_func
 316              	ComparePosition:
 317              	.LVL1:
 318              	.LFB13:
  56:C:/Users/leopi/Documents/vs/S-Reo/MazeLibrary\dfs.c **** _Bool ComparePosition(const position *target, const position *now){
 319              		.loc 1 56 67 is_stmt 1 view -0
 320              		.cfi_startproc
 321              		@ args = 0, pretend = 0, frame = 0
 322              		@ frame_needed = 0, uses_anonymous_args = 0
 323              		@ link register save eliminated.
  57:C:/Users/leopi/Documents/vs/S-Reo/MazeLibrary\dfs.c **** 	return (target->x == now->x) && (target->y == now->y);
 324              		.loc 1 57 2 view .LVU38
 325              		.loc 1 57 16 is_stmt 0 view .LVU39
 326 0000 0278     		ldrb	r2, [r0]	@ zero_extendqisi2
 327              		.loc 1 57 26 view .LVU40
 328 0002 0B78     		ldrb	r3, [r1]	@ zero_extendqisi2
 329              		.loc 1 57 31 view .LVU41
 330 0004 9A42     		cmp	r2, r3
 331 0006 01D0     		beq	.L36
 332 0008 0020     		movs	r0, #0
 333              	.LVL2:
 334              		.loc 1 57 31 view .LVU42
 335 000a 7047     		bx	lr
 336              	.LVL3:
 337              	.L36:
 338              		.loc 1 57 41 discriminator 1 view .LVU43
 339 000c 4278     		ldrb	r2, [r0, #1]	@ zero_extendqisi2
 340              		.loc 1 57 51 discriminator 1 view .LVU44
 341 000e 4B78     		ldrb	r3, [r1, #1]	@ zero_extendqisi2
 342              		.loc 1 57 31 discriminator 1 view .LVU45
 343 0010 9A42     		cmp	r2, r3
 344 0012 01D0     		beq	.L35
 345              		.loc 1 57 31 view .LVU46
 346 0014 0020     		movs	r0, #0
 347              	.LVL4:
 348              		.loc 1 57 31 view .LVU47
 349 0016 7047     		bx	lr
 350              	.LVL5:
 351              	.L35:
 352              		.loc 1 57 31 view .LVU48
 353 0018 0120     		movs	r0, #1
 354              	.LVL6:
  58:C:/Users/leopi/Documents/vs/S-Reo/MazeLibrary\dfs.c **** }
 355              		.loc 1 58 1 view .LVU49
 356 001a 7047     		bx	lr
 357              		.cfi_endproc
 358              	.LFE13:
 360              		.section	.text.InitVisit,"ax",%progbits
 361              		.align	1
 362              		.global	InitVisit
 363              		.syntax unified
ARM GAS  C:\Users\leopi\AppData\Local\Temp\cczqc55t.s 			page 8


 364              		.thumb
 365              		.thumb_func
 367              	InitVisit:
 368              	.LFB14:
  59:C:/Users/leopi/Documents/vs/S-Reo/MazeLibrary\dfs.c **** 
  60:C:/Users/leopi/Documents/vs/S-Reo/MazeLibrary\dfs.c **** void InitVisit(){
 369              		.loc 1 60 17 is_stmt 1 view -0
 370              		.cfi_startproc
 371              		@ args = 0, pretend = 0, frame = 0
 372              		@ frame_needed = 0, uses_anonymous_args = 0
 373              		@ link register save eliminated.
  61:C:/Users/leopi/Documents/vs/S-Reo/MazeLibrary\dfs.c **** 	for(int i=0; i < NUMBER_OF_SQUARES_X; i++){
 374              		.loc 1 61 2 view .LVU51
 375              	.LBB2:
 376              		.loc 1 61 6 view .LVU52
 377              	.LVL7:
 378              		.loc 1 61 10 is_stmt 0 view .LVU53
 379 0000 0020     		movs	r0, #0
 380              		.loc 1 61 2 view .LVU54
 381 0002 08E0     		b	.L38
 382              	.LVL8:
 383              	.L39:
 384              	.LBB3:
  62:C:/Users/leopi/Documents/vs/S-Reo/MazeLibrary\dfs.c **** 		for(int j=0; j < NUMBER_OF_SQUARES_Y; j++){
  63:C:/Users/leopi/Documents/vs/S-Reo/MazeLibrary\dfs.c **** 			Visit[i][j] = false;
 385              		.loc 1 63 4 is_stmt 1 discriminator 3 view .LVU55
 386              		.loc 1 63 16 is_stmt 0 discriminator 3 view .LVU56
 387 0004 084A     		ldr	r2, .L43
 388 0006 02EB0012 		add	r2, r2, r0, lsl #4
 389 000a 0021     		movs	r1, #0
 390 000c D154     		strb	r1, [r2, r3]
  62:C:/Users/leopi/Documents/vs/S-Reo/MazeLibrary\dfs.c **** 		for(int j=0; j < NUMBER_OF_SQUARES_Y; j++){
 391              		.loc 1 62 41 is_stmt 1 discriminator 3 view .LVU57
  62:C:/Users/leopi/Documents/vs/S-Reo/MazeLibrary\dfs.c **** 		for(int j=0; j < NUMBER_OF_SQUARES_Y; j++){
 392              		.loc 1 62 42 is_stmt 0 discriminator 3 view .LVU58
 393 000e 0133     		adds	r3, r3, #1
 394              	.LVL9:
 395              	.L40:
  62:C:/Users/leopi/Documents/vs/S-Reo/MazeLibrary\dfs.c **** 		for(int j=0; j < NUMBER_OF_SQUARES_Y; j++){
 396              		.loc 1 62 16 is_stmt 1 discriminator 1 view .LVU59
  62:C:/Users/leopi/Documents/vs/S-Reo/MazeLibrary\dfs.c **** 		for(int j=0; j < NUMBER_OF_SQUARES_Y; j++){
 397              		.loc 1 62 3 is_stmt 0 discriminator 1 view .LVU60
 398 0010 0F2B     		cmp	r3, #15
 399 0012 F7DD     		ble	.L39
 400              	.LBE3:
  61:C:/Users/leopi/Documents/vs/S-Reo/MazeLibrary\dfs.c **** 	for(int i=0; i < NUMBER_OF_SQUARES_X; i++){
 401              		.loc 1 61 40 is_stmt 1 discriminator 2 view .LVU61
  61:C:/Users/leopi/Documents/vs/S-Reo/MazeLibrary\dfs.c **** 	for(int i=0; i < NUMBER_OF_SQUARES_X; i++){
 402              		.loc 1 61 41 is_stmt 0 discriminator 2 view .LVU62
 403 0014 0130     		adds	r0, r0, #1
 404              	.LVL10:
 405              	.L38:
  61:C:/Users/leopi/Documents/vs/S-Reo/MazeLibrary\dfs.c **** 	for(int i=0; i < NUMBER_OF_SQUARES_X; i++){
 406              		.loc 1 61 15 is_stmt 1 discriminator 1 view .LVU63
  61:C:/Users/leopi/Documents/vs/S-Reo/MazeLibrary\dfs.c **** 	for(int i=0; i < NUMBER_OF_SQUARES_X; i++){
 407              		.loc 1 61 2 is_stmt 0 discriminator 1 view .LVU64
 408 0016 0F28     		cmp	r0, #15
ARM GAS  C:\Users\leopi\AppData\Local\Temp\cczqc55t.s 			page 9


 409 0018 01DC     		bgt	.L42
 410              	.LBB4:
  62:C:/Users/leopi/Documents/vs/S-Reo/MazeLibrary\dfs.c **** 		for(int j=0; j < NUMBER_OF_SQUARES_Y; j++){
 411              		.loc 1 62 11 view .LVU65
 412 001a 0023     		movs	r3, #0
 413 001c F8E7     		b	.L40
 414              	.L42:
 415              	.LBE4:
 416              	.LBE2:
  64:C:/Users/leopi/Documents/vs/S-Reo/MazeLibrary\dfs.c **** 		}
  65:C:/Users/leopi/Documents/vs/S-Reo/MazeLibrary\dfs.c **** 	}
  66:C:/Users/leopi/Documents/vs/S-Reo/MazeLibrary\dfs.c **** 	Visit[0][0] = true;
 417              		.loc 1 66 2 is_stmt 1 view .LVU66
 418              		.loc 1 66 14 is_stmt 0 view .LVU67
 419 001e 024B     		ldr	r3, .L43
 420 0020 0122     		movs	r2, #1
 421 0022 1A70     		strb	r2, [r3]
  67:C:/Users/leopi/Documents/vs/S-Reo/MazeLibrary\dfs.c **** }
 422              		.loc 1 67 1 view .LVU68
 423 0024 7047     		bx	lr
 424              	.L44:
 425 0026 00BF     		.align	2
 426              	.L43:
 427 0028 00000000 		.word	.LANCHOR4
 428              		.cfi_endproc
 429              	.LFE14:
 431              		.section	.rodata.printVisited.str1.4,"aMS",%progbits,1
 432              		.align	2
 433              	.LC0:
 434 0000 25642000 		.ascii	"%d \000"
 435              		.align	2
 436              	.LC1:
 437 0004 0D00     		.ascii	"\015\000"
 438              		.section	.text.printVisited,"ax",%progbits
 439              		.align	1
 440              		.global	printVisited
 441              		.syntax unified
 442              		.thumb
 443              		.thumb_func
 445              	printVisited:
 446              	.LFB15:
  68:C:/Users/leopi/Documents/vs/S-Reo/MazeLibrary\dfs.c **** void printVisited(){
 447              		.loc 1 68 20 is_stmt 1 view -0
 448              		.cfi_startproc
 449              		@ args = 0, pretend = 0, frame = 0
 450              		@ frame_needed = 0, uses_anonymous_args = 0
 451 0000 38B5     		push	{r3, r4, r5, lr}
 452              	.LCFI2:
 453              		.cfi_def_cfa_offset 16
 454              		.cfi_offset 3, -16
 455              		.cfi_offset 4, -12
 456              		.cfi_offset 5, -8
 457              		.cfi_offset 14, -4
  69:C:/Users/leopi/Documents/vs/S-Reo/MazeLibrary\dfs.c **** 	for(int j=NUMBER_OF_SQUARES_Y-1; j >= 0; j--){
 458              		.loc 1 69 2 view .LVU70
 459              	.LBB5:
 460              		.loc 1 69 6 view .LVU71
ARM GAS  C:\Users\leopi\AppData\Local\Temp\cczqc55t.s 			page 10


 461              	.LVL11:
 462              		.loc 1 69 10 is_stmt 0 view .LVU72
 463 0002 0F25     		movs	r5, #15
 464              		.loc 1 69 2 view .LVU73
 465 0004 0DE0     		b	.L46
 466              	.LVL12:
 467              	.L47:
 468              	.LBB6:
  70:C:/Users/leopi/Documents/vs/S-Reo/MazeLibrary\dfs.c **** 		for(int i=0; i < NUMBER_OF_SQUARES_X; i++){
  71:C:/Users/leopi/Documents/vs/S-Reo/MazeLibrary\dfs.c **** 			printf("%d ",Visit[i][j]);
 469              		.loc 1 71 4 is_stmt 1 discriminator 3 view .LVU74
 470              		.loc 1 71 25 is_stmt 0 discriminator 3 view .LVU75
 471 0006 094B     		ldr	r3, .L52
 472 0008 03EB0413 		add	r3, r3, r4, lsl #4
 473              		.loc 1 71 4 discriminator 3 view .LVU76
 474 000c 595D     		ldrb	r1, [r3, r5]	@ zero_extendqisi2
 475 000e 0848     		ldr	r0, .L52+4
 476 0010 FFF7FEFF 		bl	printf
 477              	.LVL13:
  70:C:/Users/leopi/Documents/vs/S-Reo/MazeLibrary\dfs.c **** 		for(int i=0; i < NUMBER_OF_SQUARES_X; i++){
 478              		.loc 1 70 41 is_stmt 1 discriminator 3 view .LVU77
  70:C:/Users/leopi/Documents/vs/S-Reo/MazeLibrary\dfs.c **** 		for(int i=0; i < NUMBER_OF_SQUARES_X; i++){
 479              		.loc 1 70 42 is_stmt 0 discriminator 3 view .LVU78
 480 0014 0134     		adds	r4, r4, #1
 481              	.LVL14:
 482              	.L48:
  70:C:/Users/leopi/Documents/vs/S-Reo/MazeLibrary\dfs.c **** 		for(int i=0; i < NUMBER_OF_SQUARES_X; i++){
 483              		.loc 1 70 16 is_stmt 1 discriminator 1 view .LVU79
  70:C:/Users/leopi/Documents/vs/S-Reo/MazeLibrary\dfs.c **** 		for(int i=0; i < NUMBER_OF_SQUARES_X; i++){
 484              		.loc 1 70 3 is_stmt 0 discriminator 1 view .LVU80
 485 0016 0F2C     		cmp	r4, #15
 486 0018 F5DD     		ble	.L47
 487              	.LBE6:
  72:C:/Users/leopi/Documents/vs/S-Reo/MazeLibrary\dfs.c **** 		}
  73:C:/Users/leopi/Documents/vs/S-Reo/MazeLibrary\dfs.c **** 		printf("\r\n");
 488              		.loc 1 73 3 is_stmt 1 discriminator 2 view .LVU81
 489 001a 0648     		ldr	r0, .L52+8
 490 001c FFF7FEFF 		bl	puts
 491              	.LVL15:
  69:C:/Users/leopi/Documents/vs/S-Reo/MazeLibrary\dfs.c **** 		for(int i=0; i < NUMBER_OF_SQUARES_X; i++){
 492              		.loc 1 69 43 discriminator 2 view .LVU82
  69:C:/Users/leopi/Documents/vs/S-Reo/MazeLibrary\dfs.c **** 		for(int i=0; i < NUMBER_OF_SQUARES_X; i++){
 493              		.loc 1 69 44 is_stmt 0 discriminator 2 view .LVU83
 494 0020 013D     		subs	r5, r5, #1
 495              	.LVL16:
 496              	.L46:
  69:C:/Users/leopi/Documents/vs/S-Reo/MazeLibrary\dfs.c **** 		for(int i=0; i < NUMBER_OF_SQUARES_X; i++){
 497              		.loc 1 69 35 is_stmt 1 discriminator 1 view .LVU84
  69:C:/Users/leopi/Documents/vs/S-Reo/MazeLibrary\dfs.c **** 		for(int i=0; i < NUMBER_OF_SQUARES_X; i++){
 498              		.loc 1 69 2 is_stmt 0 discriminator 1 view .LVU85
 499 0022 002D     		cmp	r5, #0
 500 0024 01DB     		blt	.L51
 501              	.LBB7:
  70:C:/Users/leopi/Documents/vs/S-Reo/MazeLibrary\dfs.c **** 		for(int i=0; i < NUMBER_OF_SQUARES_X; i++){
 502              		.loc 1 70 11 view .LVU86
 503 0026 0024     		movs	r4, #0
 504 0028 F5E7     		b	.L48
ARM GAS  C:\Users\leopi\AppData\Local\Temp\cczqc55t.s 			page 11


 505              	.L51:
 506              	.LBE7:
 507              	.LBE5:
  74:C:/Users/leopi/Documents/vs/S-Reo/MazeLibrary\dfs.c **** 	}
  75:C:/Users/leopi/Documents/vs/S-Reo/MazeLibrary\dfs.c **** }
 508              		.loc 1 75 1 view .LVU87
 509 002a 38BD     		pop	{r3, r4, r5, pc}
 510              	.LVL17:
 511              	.L53:
 512              		.loc 1 75 1 view .LVU88
 513              		.align	2
 514              	.L52:
 515 002c 00000000 		.word	.LANCHOR4
 516 0030 00000000 		.word	.LC0
 517 0034 04000000 		.word	.LC1
 518              		.cfi_endproc
 519              	.LFE15:
 521              		.section	.text.VisitedMass,"ax",%progbits
 522              		.align	1
 523              		.global	VisitedMass
 524              		.syntax unified
 525              		.thumb
 526              		.thumb_func
 528              	VisitedMass:
 529              	.LFB16:
  76:C:/Users/leopi/Documents/vs/S-Reo/MazeLibrary\dfs.c **** void VisitedMass(position pos){
 530              		.loc 1 76 31 is_stmt 1 view -0
 531              		.cfi_startproc
 532              		@ args = 0, pretend = 0, frame = 8
 533              		@ frame_needed = 0, uses_anonymous_args = 0
 534              		@ link register save eliminated.
 535 0000 82B0     		sub	sp, sp, #8
 536              	.LCFI3:
 537              		.cfi_def_cfa_offset 8
 538 0002 ADF80400 		strh	r0, [sp, #4]	@ movhi
  77:C:/Users/leopi/Documents/vs/S-Reo/MazeLibrary\dfs.c **** 	Visit[pos.x][pos.y] = true;
 539              		.loc 1 77 2 view .LVU90
 540              		.loc 1 77 11 is_stmt 0 view .LVU91
 541 0006 9DF80410 		ldrb	r1, [sp, #4]	@ zero_extendqisi2
 542              		.loc 1 77 18 view .LVU92
 543 000a 9DF80520 		ldrb	r2, [sp, #5]	@ zero_extendqisi2
 544              		.loc 1 77 22 view .LVU93
 545 000e 034B     		ldr	r3, .L56
 546 0010 03EB0113 		add	r3, r3, r1, lsl #4
 547 0014 0121     		movs	r1, #1
 548 0016 9954     		strb	r1, [r3, r2]
  78:C:/Users/leopi/Documents/vs/S-Reo/MazeLibrary\dfs.c **** }
 549              		.loc 1 78 1 view .LVU94
 550 0018 02B0     		add	sp, sp, #8
 551              	.LCFI4:
 552              		.cfi_def_cfa_offset 0
 553              		@ sp needed
 554 001a 7047     		bx	lr
 555              	.L57:
 556              		.align	2
 557              	.L56:
 558 001c 00000000 		.word	.LANCHOR4
ARM GAS  C:\Users\leopi\AppData\Local\Temp\cczqc55t.s 			page 12


 559              		.cfi_endproc
 560              	.LFE16:
 562              		.section	.text.GetVisited,"ax",%progbits
 563              		.align	1
 564              		.global	GetVisited
 565              		.syntax unified
 566              		.thumb
 567              		.thumb_func
 569              	GetVisited:
 570              	.LVL18:
 571              	.LFB17:
  79:C:/Users/leopi/Documents/vs/S-Reo/MazeLibrary\dfs.c **** _Bool GetVisited(position *pos){
 572              		.loc 1 79 32 is_stmt 1 view -0
 573              		.cfi_startproc
 574              		@ args = 0, pretend = 0, frame = 0
 575              		@ frame_needed = 0, uses_anonymous_args = 0
 576              		@ link register save eliminated.
  80:C:/Users/leopi/Documents/vs/S-Reo/MazeLibrary\dfs.c **** 	return Visit[pos->x][pos->y];
 577              		.loc 1 80 2 view .LVU96
 578              		.loc 1 80 18 is_stmt 0 view .LVU97
 579 0000 0178     		ldrb	r1, [r0]	@ zero_extendqisi2
 580              		.loc 1 80 26 view .LVU98
 581 0002 4278     		ldrb	r2, [r0, #1]	@ zero_extendqisi2
 582              		.loc 1 80 22 view .LVU99
 583 0004 024B     		ldr	r3, .L59
 584 0006 03EB0113 		add	r3, r3, r1, lsl #4
  81:C:/Users/leopi/Documents/vs/S-Reo/MazeLibrary\dfs.c **** }
 585              		.loc 1 81 1 view .LVU100
 586 000a 985C     		ldrb	r0, [r3, r2]	@ zero_extendqisi2
 587              	.LVL19:
 588              		.loc 1 81 1 view .LVU101
 589 000c 7047     		bx	lr
 590              	.L60:
 591 000e 00BF     		.align	2
 592              	.L59:
 593 0010 00000000 		.word	.LANCHOR4
 594              		.cfi_endproc
 595              	.LFE17:
 597              		.section	.text.InitMassStack,"ax",%progbits
 598              		.align	1
 599              		.global	InitMassStack
 600              		.syntax unified
 601              		.thumb
 602              		.thumb_func
 604              	InitMassStack:
 605              	.LFB18:
  82:C:/Users/leopi/Documents/vs/S-Reo/MazeLibrary\dfs.c **** 
  83:C:/Users/leopi/Documents/vs/S-Reo/MazeLibrary\dfs.c **** void InitMassStack(){
 606              		.loc 1 83 21 is_stmt 1 view -0
 607              		.cfi_startproc
 608              		@ args = 0, pretend = 0, frame = 0
 609              		@ frame_needed = 0, uses_anonymous_args = 0
 610              		@ link register save eliminated.
  84:C:/Users/leopi/Documents/vs/S-Reo/MazeLibrary\dfs.c **** 	mass_stack[0].x = 0;
 611              		.loc 1 84 2 view .LVU103
 612              		.loc 1 84 18 is_stmt 0 view .LVU104
 613 0000 024B     		ldr	r3, .L62
ARM GAS  C:\Users\leopi\AppData\Local\Temp\cczqc55t.s 			page 13


 614 0002 0022     		movs	r2, #0
 615 0004 1A70     		strb	r2, [r3]
  85:C:/Users/leopi/Documents/vs/S-Reo/MazeLibrary\dfs.c **** 	mass_stack[0].y = 0;
 616              		.loc 1 85 2 is_stmt 1 view .LVU105
 617              		.loc 1 85 18 is_stmt 0 view .LVU106
 618 0006 5A70     		strb	r2, [r3, #1]
  86:C:/Users/leopi/Documents/vs/S-Reo/MazeLibrary\dfs.c **** }
 619              		.loc 1 86 1 view .LVU107
 620 0008 7047     		bx	lr
 621              	.L63:
 622 000a 00BF     		.align	2
 623              	.L62:
 624 000c 00000000 		.word	.LANCHOR3
 625              		.cfi_endproc
 626              	.LFE18:
 628              		.section	.text.StackMass,"ax",%progbits
 629              		.align	1
 630              		.global	StackMass
 631              		.syntax unified
 632              		.thumb
 633              		.thumb_func
 635              	StackMass:
 636              	.LVL20:
 637              	.LFB19:
  87:C:/Users/leopi/Documents/vs/S-Reo/MazeLibrary\dfs.c **** _Bool StackMass(maze_node *maze, state *now_st){
 638              		.loc 1 87 48 is_stmt 1 view -0
 639              		.cfi_startproc
 640              		@ args = 0, pretend = 0, frame = 0
 641              		@ frame_needed = 0, uses_anonymous_args = 0
 642              		.loc 1 87 48 is_stmt 0 view .LVU109
 643 0000 2DE9F047 		push	{r4, r5, r6, r7, r8, r9, r10, lr}
 644              	.LCFI5:
 645              		.cfi_def_cfa_offset 32
 646              		.cfi_offset 4, -32
 647              		.cfi_offset 5, -28
 648              		.cfi_offset 6, -24
 649              		.cfi_offset 7, -20
 650              		.cfi_offset 8, -16
 651              		.cfi_offset 9, -12
 652              		.cfi_offset 10, -8
 653              		.cfi_offset 14, -4
 654 0004 0746     		mov	r7, r0
 655 0006 0C46     		mov	r4, r1
  88:C:/Users/leopi/Documents/vs/S-Reo/MazeLibrary\dfs.c **** 
  89:C:/Users/leopi/Documents/vs/S-Reo/MazeLibrary\dfs.c **** 	//壁の更新後
  90:C:/Users/leopi/Documents/vs/S-Reo/MazeLibrary\dfs.c **** 	//4方向のノードを見て、行けるところ、未訪問
  91:C:/Users/leopi/Documents/vs/S-Reo/MazeLibrary\dfs.c **** 	//優先順位は前、左、右
  92:C:/Users/leopi/Documents/vs/S-Reo/MazeLibrary\dfs.c **** 	//行けるかどうか = 重みがMAXでなければ
  93:C:/Users/leopi/Documents/vs/S-Reo/MazeLibrary\dfs.c **** 	//隣接行列あったほうがいい
  94:C:/Users/leopi/Documents/vs/S-Reo/MazeLibrary\dfs.c **** 
  95:C:/Users/leopi/Documents/vs/S-Reo/MazeLibrary\dfs.c **** 	//xyの大きさ制限の条件式
  96:C:/Users/leopi/Documents/vs/S-Reo/MazeLibrary\dfs.c **** 	uint8_t x = now_st->pos.x;
 656              		.loc 1 96 2 is_stmt 1 view .LVU110
 657              		.loc 1 96 10 is_stmt 0 view .LVU111
 658 0008 91F80090 		ldrb	r9, [r1]	@ zero_extendqisi2
 659              	.LVL21:
  97:C:/Users/leopi/Documents/vs/S-Reo/MazeLibrary\dfs.c **** 	uint8_t y = now_st->pos.y;
ARM GAS  C:\Users\leopi\AppData\Local\Temp\cczqc55t.s 			page 14


 660              		.loc 1 97 2 is_stmt 1 view .LVU112
 661              		.loc 1 97 10 is_stmt 0 view .LVU113
 662 000c 91F801A0 		ldrb	r10, [r1, #1]	@ zero_extendqisi2
 663              	.LVL22:
  98:C:/Users/leopi/Documents/vs/S-Reo/MazeLibrary\dfs.c **** 
  99:C:/Users/leopi/Documents/vs/S-Reo/MazeLibrary\dfs.c **** 	uint8_t nd_x = now_st->node->pos.x;
 664              		.loc 1 99 2 is_stmt 1 view .LVU114
 665              		.loc 1 99 23 is_stmt 0 view .LVU115
 666 0010 8B68     		ldr	r3, [r1, #8]
 667              		.loc 1 99 10 view .LVU116
 668 0012 9D79     		ldrb	r5, [r3, #6]	@ zero_extendqisi2
 669              	.LVL23:
 100:C:/Users/leopi/Documents/vs/S-Reo/MazeLibrary\dfs.c **** 	uint8_t nd_y = now_st->node->pos.y;
 670              		.loc 1 100 2 is_stmt 1 view .LVU117
 671              		.loc 1 100 10 is_stmt 0 view .LVU118
 672 0014 93F80780 		ldrb	r8, [r3, #7]	@ zero_extendqisi2
 673              	.LVL24:
 101:C:/Users/leopi/Documents/vs/S-Reo/MazeLibrary\dfs.c **** //	_Bool rc = now_st->node->rc;
 102:C:/Users/leopi/Documents/vs/S-Reo/MazeLibrary\dfs.c **** 	cardinal car = now_st->car;
 674              		.loc 1 102 2 is_stmt 1 view .LVU119
 675              		.loc 1 102 11 is_stmt 0 view .LVU120
 676 0018 8E78     		ldrb	r6, [r1, #2]	@ zero_extendqisi2
 677              	.LVL25:
 103:C:/Users/leopi/Documents/vs/S-Reo/MazeLibrary\dfs.c **** 
 104:C:/Users/leopi/Documents/vs/S-Reo/MazeLibrary\dfs.c **** 	int n = GetStackNum();
 678              		.loc 1 104 2 is_stmt 1 view .LVU121
 679              		.loc 1 104 10 is_stmt 0 view .LVU122
 680 001a FFF7FEFF 		bl	GetStackNum
 681              	.LVL26:
 105:C:/Users/leopi/Documents/vs/S-Reo/MazeLibrary\dfs.c **** 	int cnt = 0;
 682              		.loc 1 105 2 is_stmt 1 view .LVU123
 106:C:/Users/leopi/Documents/vs/S-Reo/MazeLibrary\dfs.c **** 	//スタックの流れ
 107:C:/Users/leopi/Documents/vs/S-Reo/MazeLibrary\dfs.c **** 	//n=0になった時点で減速、停止。目標ノードを（0,0）に切り替え
 108:C:/Users/leopi/Documents/vs/S-Reo/MazeLibrary\dfs.c **** 	//積む座標があれば++nで1から開始
 109:C:/Users/leopi/Documents/vs/S-Reo/MazeLibrary\dfs.c **** 	//積み終わった時点のnがreturnされる
 110:C:/Users/leopi/Documents/vs/S-Reo/MazeLibrary\dfs.c **** 	//
 111:C:/Users/leopi/Documents/vs/S-Reo/MazeLibrary\dfs.c **** 	switch(car%8){
 683              		.loc 1 111 2 view .LVU124
 684 001e 06F00703 		and	r3, r6, #7
 685 0022 062B     		cmp	r3, #6
 686 0024 00F2CB81 		bhi	.L80
 687 0028 DFE813F0 		tbh	[pc, r3, lsl #1]
 688              	.L67:
 689 002c 0700     		.2byte	(.L70-.L67)/2
 690 002e C901     		.2byte	(.L80-.L67)/2
 691 0030 7700     		.2byte	(.L69-.L67)/2
 692 0032 C901     		.2byte	(.L80-.L67)/2
 693 0034 DB00     		.2byte	(.L68-.L67)/2
 694 0036 C901     		.2byte	(.L80-.L67)/2
 695 0038 5401     		.2byte	(.L66-.L67)/2
 696              		.p2align 1
 697              	.L70:
 112:C:/Users/leopi/Documents/vs/S-Reo/MazeLibrary\dfs.c **** 	case north:
 113:C:/Users/leopi/Documents/vs/S-Reo/MazeLibrary\dfs.c **** //		if(rc == true){ //列ノードにいる
 114:C:/Users/leopi/Documents/vs/S-Reo/MazeLibrary\dfs.c **** 		//yのサイズ
 115:C:/Users/leopi/Documents/vs/S-Reo/MazeLibrary\dfs.c **** 		//右
 116:C:/Users/leopi/Documents/vs/S-Reo/MazeLibrary\dfs.c **** 		if(nd_x <= NUMBER_OF_SQUARES_X-1){
ARM GAS  C:\Users\leopi\AppData\Local\Temp\cczqc55t.s 			page 15


 698              		.loc 1 116 3 view .LVU125
 699              		.loc 1 116 5 is_stmt 0 view .LVU126
 700 003a 0F2D     		cmp	r5, #15
 701 003c 20D8     		bhi	.L81
 117:C:/Users/leopi/Documents/vs/S-Reo/MazeLibrary\dfs.c **** 			if( maze->ColumnNode[nd_x+1][nd_y].existence == NOWALL ){ //行ける
 702              		.loc 1 117 4 is_stmt 1 view .LVU127
 703              		.loc 1 117 29 is_stmt 0 view .LVU128
 704 003e 6B1C     		adds	r3, r5, #1
 705              		.loc 1 117 38 view .LVU129
 706 0040 08EB0313 		add	r3, r8, r3, lsl #4
 707 0044 03F58873 		add	r3, r3, #272
 708 0048 17F83330 		ldrb	r3, [r7, r3, lsl #3]	@ zero_extendqisi2
 709              		.loc 1 117 6 view .LVU130
 710 004c 002B     		cmp	r3, #0
 711 004e 5ED1     		bne	.L82
 118:C:/Users/leopi/Documents/vs/S-Reo/MazeLibrary\dfs.c **** 				if( x < NUMBER_OF_SQUARES_X-1 ){
 712              		.loc 1 118 5 is_stmt 1 view .LVU131
 713              		.loc 1 118 7 is_stmt 0 view .LVU132
 714 0050 B9F10E0F 		cmp	r9, #14
 715 0054 5DD8     		bhi	.L83
 119:C:/Users/leopi/Documents/vs/S-Reo/MazeLibrary\dfs.c **** 					if( Visit[x+1][y] == false ){ //未訪問
 716              		.loc 1 119 6 is_stmt 1 view .LVU133
 717              		.loc 1 119 17 is_stmt 0 view .LVU134
 718 0056 09F10103 		add	r3, r9, #1
 719              		.loc 1 119 20 view .LVU135
 720 005a B04A     		ldr	r2, .L98
 721 005c 02EB0313 		add	r3, r2, r3, lsl #4
 722 0060 13F80A30 		ldrb	r3, [r3, r10]	@ zero_extendqisi2
 723              		.loc 1 119 8 view .LVU136
 724 0064 002B     		cmp	r3, #0
 725 0066 56D1     		bne	.L84
 120:C:/Users/leopi/Documents/vs/S-Reo/MazeLibrary\dfs.c **** 						++cnt;
 726              		.loc 1 120 7 is_stmt 1 view .LVU137
 727              	.LVL27:
 121:C:/Users/leopi/Documents/vs/S-Reo/MazeLibrary\dfs.c **** 						mass_stack[n+cnt].x = now_st->pos.x+1;
 728              		.loc 1 121 7 view .LVU138
 729              		.loc 1 121 19 is_stmt 0 view .LVU139
 730 0068 421C     		adds	r2, r0, #1
 731              		.loc 1 121 42 view .LVU140
 732 006a 09F10101 		add	r1, r9, #1
 733              		.loc 1 121 27 view .LVU141
 734 006e AC4B     		ldr	r3, .L98+4
 735 0070 03F81210 		strb	r1, [r3, r2, lsl #1]
 122:C:/Users/leopi/Documents/vs/S-Reo/MazeLibrary\dfs.c **** 						mass_stack[n+cnt].y = now_st->pos.y;
 736              		.loc 1 122 7 is_stmt 1 view .LVU142
 737              		.loc 1 122 40 is_stmt 0 view .LVU143
 738 0074 6178     		ldrb	r1, [r4, #1]	@ zero_extendqisi2
 739              		.loc 1 122 27 view .LVU144
 740 0076 03EB4203 		add	r3, r3, r2, lsl #1
 741 007a 5970     		strb	r1, [r3, #1]
 120:C:/Users/leopi/Documents/vs/S-Reo/MazeLibrary\dfs.c **** 						++cnt;
 742              		.loc 1 120 7 view .LVU145
 743 007c 0126     		movs	r6, #1
 744              	.LVL28:
 120:C:/Users/leopi/Documents/vs/S-Reo/MazeLibrary\dfs.c **** 						++cnt;
 745              		.loc 1 120 7 view .LVU146
 746 007e 00E0     		b	.L71
ARM GAS  C:\Users\leopi\AppData\Local\Temp\cczqc55t.s 			page 16


 747              	.LVL29:
 748              	.L81:
 105:C:/Users/leopi/Documents/vs/S-Reo/MazeLibrary\dfs.c **** 	//スタックの流れ
 749              		.loc 1 105 6 view .LVU147
 750 0080 0026     		movs	r6, #0
 751              	.LVL30:
 752              	.L71:
 123:C:/Users/leopi/Documents/vs/S-Reo/MazeLibrary\dfs.c **** 					}
 124:C:/Users/leopi/Documents/vs/S-Reo/MazeLibrary\dfs.c **** 				}
 125:C:/Users/leopi/Documents/vs/S-Reo/MazeLibrary\dfs.c **** 			}//前方の三方向だけ. 後ろは積まない. これを積むと重複
 126:C:/Users/leopi/Documents/vs/S-Reo/MazeLibrary\dfs.c **** 		}
 127:C:/Users/leopi/Documents/vs/S-Reo/MazeLibrary\dfs.c **** 		//左
 128:C:/Users/leopi/Documents/vs/S-Reo/MazeLibrary\dfs.c **** 		if( maze->ColumnNode[nd_x][nd_y].existence == NOWALL ){ //行ける
 753              		.loc 1 128 3 is_stmt 1 view .LVU148
 754              		.loc 1 128 35 is_stmt 0 view .LVU149
 755 0082 08EB0513 		add	r3, r8, r5, lsl #4
 756 0086 03F58873 		add	r3, r3, #272
 757 008a 17F83330 		ldrb	r3, [r7, r3, lsl #3]	@ zero_extendqisi2
 758              		.loc 1 128 5 view .LVU150
 759 008e ABB9     		cbnz	r3, .L72
 129:C:/Users/leopi/Documents/vs/S-Reo/MazeLibrary\dfs.c **** 			if( 1 <= x ){
 760              		.loc 1 129 4 is_stmt 1 view .LVU151
 761              		.loc 1 129 6 is_stmt 0 view .LVU152
 762 0090 B9F1000F 		cmp	r9, #0
 763 0094 12D0     		beq	.L72
 130:C:/Users/leopi/Documents/vs/S-Reo/MazeLibrary\dfs.c **** 				if( Visit[x-1][y] == false){ //未訪問
 764              		.loc 1 130 5 is_stmt 1 view .LVU153
 765              		.loc 1 130 16 is_stmt 0 view .LVU154
 766 0096 09F1FF33 		add	r3, r9, #-1
 767              		.loc 1 130 19 view .LVU155
 768 009a A04A     		ldr	r2, .L98
 769 009c 02EB0313 		add	r3, r2, r3, lsl #4
 770 00a0 13F80A30 		ldrb	r3, [r3, r10]	@ zero_extendqisi2
 771              		.loc 1 130 7 view .LVU156
 772 00a4 53B9     		cbnz	r3, .L72
 131:C:/Users/leopi/Documents/vs/S-Reo/MazeLibrary\dfs.c **** 					++cnt;
 773              		.loc 1 131 6 is_stmt 1 view .LVU157
 774 00a6 0136     		adds	r6, r6, #1
 775              	.LVL31:
 132:C:/Users/leopi/Documents/vs/S-Reo/MazeLibrary\dfs.c **** 					mass_stack[n+cnt].x = now_st->pos.x-1;
 776              		.loc 1 132 6 view .LVU158
 777              		.loc 1 132 39 is_stmt 0 view .LVU159
 778 00a8 2278     		ldrb	r2, [r4]	@ zero_extendqisi2
 779              		.loc 1 132 18 view .LVU160
 780 00aa 8119     		adds	r1, r0, r6
 781              		.loc 1 132 41 view .LVU161
 782 00ac 013A     		subs	r2, r2, #1
 783              		.loc 1 132 26 view .LVU162
 784 00ae 9C4B     		ldr	r3, .L98+4
 785 00b0 03F81120 		strb	r2, [r3, r1, lsl #1]
 133:C:/Users/leopi/Documents/vs/S-Reo/MazeLibrary\dfs.c **** 					mass_stack[n+cnt].y = now_st->pos.y;
 786              		.loc 1 133 6 is_stmt 1 view .LVU163
 787              		.loc 1 133 39 is_stmt 0 view .LVU164
 788 00b4 6278     		ldrb	r2, [r4, #1]	@ zero_extendqisi2
 789              		.loc 1 133 26 view .LVU165
 790 00b6 03EB4103 		add	r3, r3, r1, lsl #1
 791 00ba 5A70     		strb	r2, [r3, #1]
ARM GAS  C:\Users\leopi\AppData\Local\Temp\cczqc55t.s 			page 17


 792              	.L72:
 134:C:/Users/leopi/Documents/vs/S-Reo/MazeLibrary\dfs.c **** 				}
 135:C:/Users/leopi/Documents/vs/S-Reo/MazeLibrary\dfs.c **** 			}
 136:C:/Users/leopi/Documents/vs/S-Reo/MazeLibrary\dfs.c **** 		}
 137:C:/Users/leopi/Documents/vs/S-Reo/MazeLibrary\dfs.c **** 		//前
 138:C:/Users/leopi/Documents/vs/S-Reo/MazeLibrary\dfs.c **** 		if(nd_y <= NUMBER_OF_SQUARES_Y-1){
 793              		.loc 1 138 3 is_stmt 1 view .LVU166
 794              		.loc 1 138 5 is_stmt 0 view .LVU167
 795 00bc B8F10F0F 		cmp	r8, #15
 796 00c0 1DD8     		bhi	.L73
 139:C:/Users/leopi/Documents/vs/S-Reo/MazeLibrary\dfs.c **** 			if( maze->RawNode[nd_x][nd_y+1].existence == NOWALL ){ //行ける
 797              		.loc 1 139 4 is_stmt 1 view .LVU168
 798              		.loc 1 139 32 is_stmt 0 view .LVU169
 799 00c2 08F10108 		add	r8, r8, #1
 800              	.LVL32:
 801              		.loc 1 139 35 view .LVU170
 802 00c6 05EB0515 		add	r5, r5, r5, lsl #4
 803              	.LVL33:
 804              		.loc 1 139 35 view .LVU171
 805 00ca 4544     		add	r5, r5, r8
 806 00cc 17F83530 		ldrb	r3, [r7, r5, lsl #3]	@ zero_extendqisi2
 807              		.loc 1 139 6 view .LVU172
 808 00d0 ABB9     		cbnz	r3, .L73
 140:C:/Users/leopi/Documents/vs/S-Reo/MazeLibrary\dfs.c **** 				if( y < NUMBER_OF_SQUARES_Y - 1){
 809              		.loc 1 140 5 is_stmt 1 view .LVU173
 810              		.loc 1 140 7 is_stmt 0 view .LVU174
 811 00d2 BAF10E0F 		cmp	r10, #14
 812 00d6 12D8     		bhi	.L73
 141:C:/Users/leopi/Documents/vs/S-Reo/MazeLibrary\dfs.c **** 					if( Visit[x][y+1] == false){ //未訪問
 813              		.loc 1 141 6 is_stmt 1 view .LVU175
 814              		.loc 1 141 20 is_stmt 0 view .LVU176
 815 00d8 0AF1010A 		add	r10, r10, #1
 816              	.LVL34:
 817              		.loc 1 141 18 view .LVU177
 818 00dc 8F4B     		ldr	r3, .L98
 819 00de 03EB0919 		add	r9, r3, r9, lsl #4
 820              	.LVL35:
 821              		.loc 1 141 18 view .LVU178
 822 00e2 19F80A30 		ldrb	r3, [r9, r10]	@ zero_extendqisi2
 823              		.loc 1 141 8 view .LVU179
 824 00e6 53B9     		cbnz	r3, .L73
 142:C:/Users/leopi/Documents/vs/S-Reo/MazeLibrary\dfs.c **** 						++cnt;
 825              		.loc 1 142 7 is_stmt 1 view .LVU180
 826 00e8 0136     		adds	r6, r6, #1
 827              	.LVL36:
 143:C:/Users/leopi/Documents/vs/S-Reo/MazeLibrary\dfs.c **** 						mass_stack[n+cnt].x = now_st->pos.x;
 828              		.loc 1 143 7 view .LVU181
 829              		.loc 1 143 19 is_stmt 0 view .LVU182
 830 00ea 8119     		adds	r1, r0, r6
 831              		.loc 1 143 40 view .LVU183
 832 00ec 2278     		ldrb	r2, [r4]	@ zero_extendqisi2
 833              		.loc 1 143 27 view .LVU184
 834 00ee 8C4B     		ldr	r3, .L98+4
 835 00f0 03F81120 		strb	r2, [r3, r1, lsl #1]
 144:C:/Users/leopi/Documents/vs/S-Reo/MazeLibrary\dfs.c **** 						mass_stack[n+cnt].y = (now_st->pos.y ) + 1;
 836              		.loc 1 144 7 is_stmt 1 view .LVU185
 837              		.loc 1 144 41 is_stmt 0 view .LVU186
ARM GAS  C:\Users\leopi\AppData\Local\Temp\cczqc55t.s 			page 18


 838 00f4 6278     		ldrb	r2, [r4, #1]	@ zero_extendqisi2
 839              		.loc 1 144 46 view .LVU187
 840 00f6 0132     		adds	r2, r2, #1
 841              		.loc 1 144 27 view .LVU188
 842 00f8 03EB4103 		add	r3, r3, r1, lsl #1
 843 00fc 5A70     		strb	r2, [r3, #1]
 844              	.LVL37:
 845              	.L73:
 145:C:/Users/leopi/Documents/vs/S-Reo/MazeLibrary\dfs.c **** 					}
 146:C:/Users/leopi/Documents/vs/S-Reo/MazeLibrary\dfs.c **** 				}
 147:C:/Users/leopi/Documents/vs/S-Reo/MazeLibrary\dfs.c **** 			}
 148:C:/Users/leopi/Documents/vs/S-Reo/MazeLibrary\dfs.c **** 		}
 149:C:/Users/leopi/Documents/vs/S-Reo/MazeLibrary\dfs.c **** 		break;
 150:C:/Users/leopi/Documents/vs/S-Reo/MazeLibrary\dfs.c **** 
 151:C:/Users/leopi/Documents/vs/S-Reo/MazeLibrary\dfs.c **** 	case east:
 152:C:/Users/leopi/Documents/vs/S-Reo/MazeLibrary\dfs.c **** //		if(rc == true){ //列ノードにいる
 153:C:/Users/leopi/Documents/vs/S-Reo/MazeLibrary\dfs.c **** 		//右
 154:C:/Users/leopi/Documents/vs/S-Reo/MazeLibrary\dfs.c **** 		if( maze->RawNode[nd_x][nd_y].existence == NOWALL ){ //行ける
 155:C:/Users/leopi/Documents/vs/S-Reo/MazeLibrary\dfs.c **** 			if( 1 <= y){
 156:C:/Users/leopi/Documents/vs/S-Reo/MazeLibrary\dfs.c **** 				if( Visit[x][y-1] == false ){ //未訪問
 157:C:/Users/leopi/Documents/vs/S-Reo/MazeLibrary\dfs.c **** 					++cnt;
 158:C:/Users/leopi/Documents/vs/S-Reo/MazeLibrary\dfs.c **** 					mass_stack[n+cnt].x = now_st->pos.x;
 159:C:/Users/leopi/Documents/vs/S-Reo/MazeLibrary\dfs.c **** 					mass_stack[n+cnt].y = (now_st->pos.y ) - 1;
 160:C:/Users/leopi/Documents/vs/S-Reo/MazeLibrary\dfs.c **** 				}
 161:C:/Users/leopi/Documents/vs/S-Reo/MazeLibrary\dfs.c **** 			}
 162:C:/Users/leopi/Documents/vs/S-Reo/MazeLibrary\dfs.c **** 		}//前方の三方向だけ. 後ろは積まない. これを積むと重複
 163:C:/Users/leopi/Documents/vs/S-Reo/MazeLibrary\dfs.c **** 		//左
 164:C:/Users/leopi/Documents/vs/S-Reo/MazeLibrary\dfs.c **** 		if(nd_y <= NUMBER_OF_SQUARES_Y-1){
 165:C:/Users/leopi/Documents/vs/S-Reo/MazeLibrary\dfs.c **** 			if( maze->RawNode[nd_x][nd_y+1].existence == NOWALL ){ //行ける
 166:C:/Users/leopi/Documents/vs/S-Reo/MazeLibrary\dfs.c **** 				if( y < NUMBER_OF_SQUARES_Y - 1){
 167:C:/Users/leopi/Documents/vs/S-Reo/MazeLibrary\dfs.c **** 					if( Visit[x][y+1] == false){ //未訪問
 168:C:/Users/leopi/Documents/vs/S-Reo/MazeLibrary\dfs.c **** 						++cnt;
 169:C:/Users/leopi/Documents/vs/S-Reo/MazeLibrary\dfs.c **** 						mass_stack[n+cnt].x = now_st->pos.x;
 170:C:/Users/leopi/Documents/vs/S-Reo/MazeLibrary\dfs.c **** 						mass_stack[n+cnt].y = (now_st->pos.y) + 1;
 171:C:/Users/leopi/Documents/vs/S-Reo/MazeLibrary\dfs.c **** 					}
 172:C:/Users/leopi/Documents/vs/S-Reo/MazeLibrary\dfs.c **** 				}
 173:C:/Users/leopi/Documents/vs/S-Reo/MazeLibrary\dfs.c **** 			}
 174:C:/Users/leopi/Documents/vs/S-Reo/MazeLibrary\dfs.c **** 		}
 175:C:/Users/leopi/Documents/vs/S-Reo/MazeLibrary\dfs.c **** 		//前
 176:C:/Users/leopi/Documents/vs/S-Reo/MazeLibrary\dfs.c **** 		if(nd_x <= NUMBER_OF_SQUARES_X-1){
 177:C:/Users/leopi/Documents/vs/S-Reo/MazeLibrary\dfs.c **** 			if( maze->ColumnNode[nd_x+1][nd_y].existence == NOWALL ){ //行ける
 178:C:/Users/leopi/Documents/vs/S-Reo/MazeLibrary\dfs.c **** 				if( x < NUMBER_OF_SQUARES_X - 1){
 179:C:/Users/leopi/Documents/vs/S-Reo/MazeLibrary\dfs.c **** 					if( Visit[x+1][y] == false ){ //未訪問
 180:C:/Users/leopi/Documents/vs/S-Reo/MazeLibrary\dfs.c **** 						++cnt;
 181:C:/Users/leopi/Documents/vs/S-Reo/MazeLibrary\dfs.c **** 						mass_stack[n+cnt].x = now_st->pos.x+1;
 182:C:/Users/leopi/Documents/vs/S-Reo/MazeLibrary\dfs.c **** 						mass_stack[n+cnt].y = now_st->pos.y;
 183:C:/Users/leopi/Documents/vs/S-Reo/MazeLibrary\dfs.c **** 					}
 184:C:/Users/leopi/Documents/vs/S-Reo/MazeLibrary\dfs.c **** 				}
 185:C:/Users/leopi/Documents/vs/S-Reo/MazeLibrary\dfs.c **** 			}
 186:C:/Users/leopi/Documents/vs/S-Reo/MazeLibrary\dfs.c **** 		}
 187:C:/Users/leopi/Documents/vs/S-Reo/MazeLibrary\dfs.c **** 		break;
 188:C:/Users/leopi/Documents/vs/S-Reo/MazeLibrary\dfs.c **** 	case south:
 189:C:/Users/leopi/Documents/vs/S-Reo/MazeLibrary\dfs.c **** 		//右
 190:C:/Users/leopi/Documents/vs/S-Reo/MazeLibrary\dfs.c **** 		if( 1 <= nd_y ){
 191:C:/Users/leopi/Documents/vs/S-Reo/MazeLibrary\dfs.c **** 			if( maze->ColumnNode[nd_x][nd_y-1].existence == NOWALL ){ //行ける
 192:C:/Users/leopi/Documents/vs/S-Reo/MazeLibrary\dfs.c **** 				if( 1 <= x){
 193:C:/Users/leopi/Documents/vs/S-Reo/MazeLibrary\dfs.c **** 					if( Visit[x-1][y] == false ){ //未訪問
ARM GAS  C:\Users\leopi\AppData\Local\Temp\cczqc55t.s 			page 19


 194:C:/Users/leopi/Documents/vs/S-Reo/MazeLibrary\dfs.c **** 						++cnt;
 195:C:/Users/leopi/Documents/vs/S-Reo/MazeLibrary\dfs.c **** 						mass_stack[n+cnt].x = now_st->pos.x-1;
 196:C:/Users/leopi/Documents/vs/S-Reo/MazeLibrary\dfs.c **** 						mass_stack[n+cnt].y = now_st->pos.y;
 197:C:/Users/leopi/Documents/vs/S-Reo/MazeLibrary\dfs.c **** 					}
 198:C:/Users/leopi/Documents/vs/S-Reo/MazeLibrary\dfs.c **** 				}
 199:C:/Users/leopi/Documents/vs/S-Reo/MazeLibrary\dfs.c **** 			}
 200:C:/Users/leopi/Documents/vs/S-Reo/MazeLibrary\dfs.c **** 		}
 201:C:/Users/leopi/Documents/vs/S-Reo/MazeLibrary\dfs.c **** 		//左
 202:C:/Users/leopi/Documents/vs/S-Reo/MazeLibrary\dfs.c **** 		if(nd_x <= (NUMBER_OF_SQUARES_X-1) && (1 <= nd_y) ){
 203:C:/Users/leopi/Documents/vs/S-Reo/MazeLibrary\dfs.c **** 			if( maze->ColumnNode[nd_x+1][nd_y-1].existence == NOWALL ){ //行ける
 204:C:/Users/leopi/Documents/vs/S-Reo/MazeLibrary\dfs.c **** 				if( x < (NUMBER_OF_SQUARES_X - 1) ){
 205:C:/Users/leopi/Documents/vs/S-Reo/MazeLibrary\dfs.c **** 					if( Visit[x+1][y] == false ){ //未訪問
 206:C:/Users/leopi/Documents/vs/S-Reo/MazeLibrary\dfs.c **** 						++cnt;
 207:C:/Users/leopi/Documents/vs/S-Reo/MazeLibrary\dfs.c **** 						mass_stack[n+cnt].x = now_st->pos.x+1;
 208:C:/Users/leopi/Documents/vs/S-Reo/MazeLibrary\dfs.c **** 						mass_stack[n+cnt].y = now_st->pos.y;
 209:C:/Users/leopi/Documents/vs/S-Reo/MazeLibrary\dfs.c **** 					}
 210:C:/Users/leopi/Documents/vs/S-Reo/MazeLibrary\dfs.c **** 				}
 211:C:/Users/leopi/Documents/vs/S-Reo/MazeLibrary\dfs.c **** 			}
 212:C:/Users/leopi/Documents/vs/S-Reo/MazeLibrary\dfs.c **** 		}
 213:C:/Users/leopi/Documents/vs/S-Reo/MazeLibrary\dfs.c **** 
 214:C:/Users/leopi/Documents/vs/S-Reo/MazeLibrary\dfs.c **** 		//前
 215:C:/Users/leopi/Documents/vs/S-Reo/MazeLibrary\dfs.c **** 		if( 1 <= nd_y ){
 216:C:/Users/leopi/Documents/vs/S-Reo/MazeLibrary\dfs.c **** 			if( maze->RawNode[nd_x][nd_y-1].existence == NOWALL ){ //行ける
 217:C:/Users/leopi/Documents/vs/S-Reo/MazeLibrary\dfs.c **** 				if( 1 <= y){
 218:C:/Users/leopi/Documents/vs/S-Reo/MazeLibrary\dfs.c **** 					if( Visit[x][y-1] == false ){ //未訪問
 219:C:/Users/leopi/Documents/vs/S-Reo/MazeLibrary\dfs.c **** 						++cnt;
 220:C:/Users/leopi/Documents/vs/S-Reo/MazeLibrary\dfs.c **** 						mass_stack[n+cnt].x = now_st->pos.x;
 221:C:/Users/leopi/Documents/vs/S-Reo/MazeLibrary\dfs.c **** 						mass_stack[n+cnt].y = now_st->pos.y-1;
 222:C:/Users/leopi/Documents/vs/S-Reo/MazeLibrary\dfs.c **** 					}
 223:C:/Users/leopi/Documents/vs/S-Reo/MazeLibrary\dfs.c **** 				}
 224:C:/Users/leopi/Documents/vs/S-Reo/MazeLibrary\dfs.c **** 			}
 225:C:/Users/leopi/Documents/vs/S-Reo/MazeLibrary\dfs.c **** 		}
 226:C:/Users/leopi/Documents/vs/S-Reo/MazeLibrary\dfs.c **** 		break;
 227:C:/Users/leopi/Documents/vs/S-Reo/MazeLibrary\dfs.c **** 	case west:
 228:C:/Users/leopi/Documents/vs/S-Reo/MazeLibrary\dfs.c **** 		//右
 229:C:/Users/leopi/Documents/vs/S-Reo/MazeLibrary\dfs.c **** 		if( (1 <= nd_x) && (nd_y <= (NUMBER_OF_SQUARES_Y-1)) ){
 230:C:/Users/leopi/Documents/vs/S-Reo/MazeLibrary\dfs.c **** 			if( maze->RawNode[nd_x-1][nd_y+1].existence == NOWALL ){ //行ける
 231:C:/Users/leopi/Documents/vs/S-Reo/MazeLibrary\dfs.c **** 				if( y < (NUMBER_OF_SQUARES_Y -1) ){
 232:C:/Users/leopi/Documents/vs/S-Reo/MazeLibrary\dfs.c **** 					if( Visit[x][y+1] == false ){ //未訪問
 233:C:/Users/leopi/Documents/vs/S-Reo/MazeLibrary\dfs.c **** 						++cnt;
 234:C:/Users/leopi/Documents/vs/S-Reo/MazeLibrary\dfs.c **** 						mass_stack[n+cnt].x = now_st->pos.x;
 235:C:/Users/leopi/Documents/vs/S-Reo/MazeLibrary\dfs.c **** 						mass_stack[n+cnt].y = now_st->pos.y+1;
 236:C:/Users/leopi/Documents/vs/S-Reo/MazeLibrary\dfs.c **** 					}
 237:C:/Users/leopi/Documents/vs/S-Reo/MazeLibrary\dfs.c **** 				}
 238:C:/Users/leopi/Documents/vs/S-Reo/MazeLibrary\dfs.c **** 			}
 239:C:/Users/leopi/Documents/vs/S-Reo/MazeLibrary\dfs.c **** 		}//前方の三方向だけ. 後ろは積まない. これを積むと重複
 240:C:/Users/leopi/Documents/vs/S-Reo/MazeLibrary\dfs.c **** 		//左
 241:C:/Users/leopi/Documents/vs/S-Reo/MazeLibrary\dfs.c **** 		if( 1 <= nd_x ){
 242:C:/Users/leopi/Documents/vs/S-Reo/MazeLibrary\dfs.c **** 			if( maze->RawNode[nd_x-1][nd_y].existence == NOWALL ){ //行ける
 243:C:/Users/leopi/Documents/vs/S-Reo/MazeLibrary\dfs.c **** 				if( 1 <= y ){
 244:C:/Users/leopi/Documents/vs/S-Reo/MazeLibrary\dfs.c **** 					if( Visit[x][y-1] == false ){ //未訪問
 245:C:/Users/leopi/Documents/vs/S-Reo/MazeLibrary\dfs.c **** 						++cnt;
 246:C:/Users/leopi/Documents/vs/S-Reo/MazeLibrary\dfs.c **** 						mass_stack[n+cnt].x = now_st->pos.x;
 247:C:/Users/leopi/Documents/vs/S-Reo/MazeLibrary\dfs.c **** 						mass_stack[n+cnt].y = now_st->pos.y-1;
 248:C:/Users/leopi/Documents/vs/S-Reo/MazeLibrary\dfs.c **** 					}
 249:C:/Users/leopi/Documents/vs/S-Reo/MazeLibrary\dfs.c **** 				}
 250:C:/Users/leopi/Documents/vs/S-Reo/MazeLibrary\dfs.c **** 			}
ARM GAS  C:\Users\leopi\AppData\Local\Temp\cczqc55t.s 			page 20


 251:C:/Users/leopi/Documents/vs/S-Reo/MazeLibrary\dfs.c **** 		}
 252:C:/Users/leopi/Documents/vs/S-Reo/MazeLibrary\dfs.c **** 		//前
 253:C:/Users/leopi/Documents/vs/S-Reo/MazeLibrary\dfs.c **** 		if(1 <= nd_x){
 254:C:/Users/leopi/Documents/vs/S-Reo/MazeLibrary\dfs.c **** 			if( maze->ColumnNode[nd_x-1][nd_y].existence == NOWALL ){ //行ける
 255:C:/Users/leopi/Documents/vs/S-Reo/MazeLibrary\dfs.c **** 				if( 1 <= x){
 256:C:/Users/leopi/Documents/vs/S-Reo/MazeLibrary\dfs.c **** 					if( Visit[x-1][y] == false ){ //未訪問
 257:C:/Users/leopi/Documents/vs/S-Reo/MazeLibrary\dfs.c **** 						++cnt;
 258:C:/Users/leopi/Documents/vs/S-Reo/MazeLibrary\dfs.c **** 						mass_stack[n+cnt].x = now_st->pos.x-1;
 259:C:/Users/leopi/Documents/vs/S-Reo/MazeLibrary\dfs.c **** 						mass_stack[n+cnt].y = now_st->pos.y;
 260:C:/Users/leopi/Documents/vs/S-Reo/MazeLibrary\dfs.c **** 					}
 261:C:/Users/leopi/Documents/vs/S-Reo/MazeLibrary\dfs.c **** 				}
 262:C:/Users/leopi/Documents/vs/S-Reo/MazeLibrary\dfs.c **** 			}
 263:C:/Users/leopi/Documents/vs/S-Reo/MazeLibrary\dfs.c **** 		}
 264:C:/Users/leopi/Documents/vs/S-Reo/MazeLibrary\dfs.c **** 		break;
 265:C:/Users/leopi/Documents/vs/S-Reo/MazeLibrary\dfs.c **** 	default :
 266:C:/Users/leopi/Documents/vs/S-Reo/MazeLibrary\dfs.c **** 		return false; //エラー
 267:C:/Users/leopi/Documents/vs/S-Reo/MazeLibrary\dfs.c **** 		break;
 846              		.loc 1 267 3 is_stmt 1 view .LVU189
 268:C:/Users/leopi/Documents/vs/S-Reo/MazeLibrary\dfs.c **** 	}
 269:C:/Users/leopi/Documents/vs/S-Reo/MazeLibrary\dfs.c **** 	SetStackNum(n+cnt);
 847              		.loc 1 269 2 view .LVU190
 848 00fe 3044     		add	r0, r0, r6
 849              	.LVL38:
 850              		.loc 1 269 2 is_stmt 0 view .LVU191
 851 0100 FFF7FEFF 		bl	SetStackNum
 852              	.LVL39:
 270:C:/Users/leopi/Documents/vs/S-Reo/MazeLibrary\dfs.c **** 	return (cnt == 0) ? false : true; //何も積まれなかったらfalse
 853              		.loc 1 270 2 is_stmt 1 view .LVU192
 854              		.loc 1 270 28 is_stmt 0 view .LVU193
 855 0104 301E     		subs	r0, r6, #0
 856 0106 18BF     		it	ne
 857 0108 0120     		movne	r0, #1
 858              	.LVL40:
 859              	.L65:
 271:C:/Users/leopi/Documents/vs/S-Reo/MazeLibrary\dfs.c **** //	return n;
 272:C:/Users/leopi/Documents/vs/S-Reo/MazeLibrary\dfs.c **** //	}
 273:C:/Users/leopi/Documents/vs/S-Reo/MazeLibrary\dfs.c **** }
 860              		.loc 1 273 1 view .LVU194
 861 010a BDE8F087 		pop	{r4, r5, r6, r7, r8, r9, r10, pc}
 862              	.LVL41:
 863              	.L82:
 105:C:/Users/leopi/Documents/vs/S-Reo/MazeLibrary\dfs.c **** 	//スタックの流れ
 864              		.loc 1 105 6 view .LVU195
 865 010e 0026     		movs	r6, #0
 866              	.LVL42:
 105:C:/Users/leopi/Documents/vs/S-Reo/MazeLibrary\dfs.c **** 	//スタックの流れ
 867              		.loc 1 105 6 view .LVU196
 868 0110 B7E7     		b	.L71
 869              	.LVL43:
 870              	.L83:
 105:C:/Users/leopi/Documents/vs/S-Reo/MazeLibrary\dfs.c **** 	//スタックの流れ
 871              		.loc 1 105 6 view .LVU197
 872 0112 0026     		movs	r6, #0
 873              	.LVL44:
 105:C:/Users/leopi/Documents/vs/S-Reo/MazeLibrary\dfs.c **** 	//スタックの流れ
 874              		.loc 1 105 6 view .LVU198
 875 0114 B5E7     		b	.L71
ARM GAS  C:\Users\leopi\AppData\Local\Temp\cczqc55t.s 			page 21


 876              	.LVL45:
 877              	.L84:
 105:C:/Users/leopi/Documents/vs/S-Reo/MazeLibrary\dfs.c **** 	//スタックの流れ
 878              		.loc 1 105 6 view .LVU199
 879 0116 0026     		movs	r6, #0
 880              	.LVL46:
 105:C:/Users/leopi/Documents/vs/S-Reo/MazeLibrary\dfs.c **** 	//スタックの流れ
 881              		.loc 1 105 6 view .LVU200
 882 0118 B3E7     		b	.L71
 883              	.LVL47:
 884              	.L69:
 154:C:/Users/leopi/Documents/vs/S-Reo/MazeLibrary\dfs.c **** 			if( 1 <= y){
 885              		.loc 1 154 3 is_stmt 1 view .LVU201
 154:C:/Users/leopi/Documents/vs/S-Reo/MazeLibrary\dfs.c **** 			if( 1 <= y){
 886              		.loc 1 154 32 is_stmt 0 view .LVU202
 887 011a 05EB0513 		add	r3, r5, r5, lsl #4
 888 011e 4344     		add	r3, r3, r8
 889 0120 17F83330 		ldrb	r3, [r7, r3, lsl #3]	@ zero_extendqisi2
 154:C:/Users/leopi/Documents/vs/S-Reo/MazeLibrary\dfs.c **** 			if( 1 <= y){
 890              		.loc 1 154 5 view .LVU203
 891 0124 ABB9     		cbnz	r3, .L85
 155:C:/Users/leopi/Documents/vs/S-Reo/MazeLibrary\dfs.c **** 				if( Visit[x][y-1] == false ){ //未訪問
 892              		.loc 1 155 4 is_stmt 1 view .LVU204
 155:C:/Users/leopi/Documents/vs/S-Reo/MazeLibrary\dfs.c **** 				if( Visit[x][y-1] == false ){ //未訪問
 893              		.loc 1 155 6 is_stmt 0 view .LVU205
 894 0126 BAF1000F 		cmp	r10, #0
 895 012a 56D0     		beq	.L86
 156:C:/Users/leopi/Documents/vs/S-Reo/MazeLibrary\dfs.c **** 					++cnt;
 896              		.loc 1 156 5 is_stmt 1 view .LVU206
 156:C:/Users/leopi/Documents/vs/S-Reo/MazeLibrary\dfs.c **** 					++cnt;
 897              		.loc 1 156 19 is_stmt 0 view .LVU207
 898 012c 0AF1FF33 		add	r3, r10, #-1
 156:C:/Users/leopi/Documents/vs/S-Reo/MazeLibrary\dfs.c **** 					++cnt;
 899              		.loc 1 156 17 view .LVU208
 900 0130 7A4A     		ldr	r2, .L98
 901 0132 02EB0912 		add	r2, r2, r9, lsl #4
 902 0136 D35C     		ldrb	r3, [r2, r3]	@ zero_extendqisi2
 156:C:/Users/leopi/Documents/vs/S-Reo/MazeLibrary\dfs.c **** 					++cnt;
 903              		.loc 1 156 7 view .LVU209
 904 0138 002B     		cmp	r3, #0
 905 013a 50D1     		bne	.L87
 157:C:/Users/leopi/Documents/vs/S-Reo/MazeLibrary\dfs.c **** 					mass_stack[n+cnt].x = now_st->pos.x;
 906              		.loc 1 157 6 is_stmt 1 view .LVU210
 907              	.LVL48:
 158:C:/Users/leopi/Documents/vs/S-Reo/MazeLibrary\dfs.c **** 					mass_stack[n+cnt].y = (now_st->pos.y ) - 1;
 908              		.loc 1 158 6 view .LVU211
 158:C:/Users/leopi/Documents/vs/S-Reo/MazeLibrary\dfs.c **** 					mass_stack[n+cnt].y = (now_st->pos.y ) - 1;
 909              		.loc 1 158 18 is_stmt 0 view .LVU212
 910 013c 421C     		adds	r2, r0, #1
 158:C:/Users/leopi/Documents/vs/S-Reo/MazeLibrary\dfs.c **** 					mass_stack[n+cnt].y = (now_st->pos.y ) - 1;
 911              		.loc 1 158 26 view .LVU213
 912 013e 784B     		ldr	r3, .L98+4
 913 0140 03F81290 		strb	r9, [r3, r2, lsl #1]
 159:C:/Users/leopi/Documents/vs/S-Reo/MazeLibrary\dfs.c **** 				}
 914              		.loc 1 159 6 is_stmt 1 view .LVU214
 159:C:/Users/leopi/Documents/vs/S-Reo/MazeLibrary\dfs.c **** 				}
 915              		.loc 1 159 40 is_stmt 0 view .LVU215
ARM GAS  C:\Users\leopi\AppData\Local\Temp\cczqc55t.s 			page 22


 916 0144 6178     		ldrb	r1, [r4, #1]	@ zero_extendqisi2
 159:C:/Users/leopi/Documents/vs/S-Reo/MazeLibrary\dfs.c **** 				}
 917              		.loc 1 159 45 view .LVU216
 918 0146 0139     		subs	r1, r1, #1
 159:C:/Users/leopi/Documents/vs/S-Reo/MazeLibrary\dfs.c **** 				}
 919              		.loc 1 159 26 view .LVU217
 920 0148 03EB4203 		add	r3, r3, r2, lsl #1
 921 014c 5970     		strb	r1, [r3, #1]
 157:C:/Users/leopi/Documents/vs/S-Reo/MazeLibrary\dfs.c **** 					mass_stack[n+cnt].x = now_st->pos.x;
 922              		.loc 1 157 6 view .LVU218
 923 014e 0126     		movs	r6, #1
 924              	.LVL49:
 157:C:/Users/leopi/Documents/vs/S-Reo/MazeLibrary\dfs.c **** 					mass_stack[n+cnt].x = now_st->pos.x;
 925              		.loc 1 157 6 view .LVU219
 926 0150 00E0     		b	.L74
 927              	.LVL50:
 928              	.L85:
 105:C:/Users/leopi/Documents/vs/S-Reo/MazeLibrary\dfs.c **** 	//スタックの流れ
 929              		.loc 1 105 6 view .LVU220
 930 0152 0026     		movs	r6, #0
 931              	.LVL51:
 932              	.L74:
 164:C:/Users/leopi/Documents/vs/S-Reo/MazeLibrary\dfs.c **** 			if( maze->RawNode[nd_x][nd_y+1].existence == NOWALL ){ //行ける
 933              		.loc 1 164 3 is_stmt 1 view .LVU221
 164:C:/Users/leopi/Documents/vs/S-Reo/MazeLibrary\dfs.c **** 			if( maze->RawNode[nd_x][nd_y+1].existence == NOWALL ){ //行ける
 934              		.loc 1 164 5 is_stmt 0 view .LVU222
 935 0154 B8F10F0F 		cmp	r8, #15
 936 0158 1CD8     		bhi	.L75
 165:C:/Users/leopi/Documents/vs/S-Reo/MazeLibrary\dfs.c **** 				if( y < NUMBER_OF_SQUARES_Y - 1){
 937              		.loc 1 165 4 is_stmt 1 view .LVU223
 165:C:/Users/leopi/Documents/vs/S-Reo/MazeLibrary\dfs.c **** 				if( y < NUMBER_OF_SQUARES_Y - 1){
 938              		.loc 1 165 32 is_stmt 0 view .LVU224
 939 015a 08F10103 		add	r3, r8, #1
 165:C:/Users/leopi/Documents/vs/S-Reo/MazeLibrary\dfs.c **** 				if( y < NUMBER_OF_SQUARES_Y - 1){
 940              		.loc 1 165 35 view .LVU225
 941 015e 05EB0512 		add	r2, r5, r5, lsl #4
 942 0162 1344     		add	r3, r3, r2
 943 0164 17F83330 		ldrb	r3, [r7, r3, lsl #3]	@ zero_extendqisi2
 165:C:/Users/leopi/Documents/vs/S-Reo/MazeLibrary\dfs.c **** 				if( y < NUMBER_OF_SQUARES_Y - 1){
 944              		.loc 1 165 6 view .LVU226
 945 0168 A3B9     		cbnz	r3, .L75
 166:C:/Users/leopi/Documents/vs/S-Reo/MazeLibrary\dfs.c **** 					if( Visit[x][y+1] == false){ //未訪問
 946              		.loc 1 166 5 is_stmt 1 view .LVU227
 166:C:/Users/leopi/Documents/vs/S-Reo/MazeLibrary\dfs.c **** 					if( Visit[x][y+1] == false){ //未訪問
 947              		.loc 1 166 7 is_stmt 0 view .LVU228
 948 016a BAF10E0F 		cmp	r10, #14
 949 016e 11D8     		bhi	.L75
 167:C:/Users/leopi/Documents/vs/S-Reo/MazeLibrary\dfs.c **** 						++cnt;
 950              		.loc 1 167 6 is_stmt 1 view .LVU229
 167:C:/Users/leopi/Documents/vs/S-Reo/MazeLibrary\dfs.c **** 						++cnt;
 951              		.loc 1 167 20 is_stmt 0 view .LVU230
 952 0170 0AF10103 		add	r3, r10, #1
 167:C:/Users/leopi/Documents/vs/S-Reo/MazeLibrary\dfs.c **** 						++cnt;
 953              		.loc 1 167 18 view .LVU231
 954 0174 694A     		ldr	r2, .L98
 955 0176 02EB0912 		add	r2, r2, r9, lsl #4
 956 017a D35C     		ldrb	r3, [r2, r3]	@ zero_extendqisi2
ARM GAS  C:\Users\leopi\AppData\Local\Temp\cczqc55t.s 			page 23


 167:C:/Users/leopi/Documents/vs/S-Reo/MazeLibrary\dfs.c **** 						++cnt;
 957              		.loc 1 167 8 view .LVU232
 958 017c 53B9     		cbnz	r3, .L75
 168:C:/Users/leopi/Documents/vs/S-Reo/MazeLibrary\dfs.c **** 						mass_stack[n+cnt].x = now_st->pos.x;
 959              		.loc 1 168 7 is_stmt 1 view .LVU233
 960 017e 0136     		adds	r6, r6, #1
 961              	.LVL52:
 169:C:/Users/leopi/Documents/vs/S-Reo/MazeLibrary\dfs.c **** 						mass_stack[n+cnt].y = (now_st->pos.y) + 1;
 962              		.loc 1 169 7 view .LVU234
 169:C:/Users/leopi/Documents/vs/S-Reo/MazeLibrary\dfs.c **** 						mass_stack[n+cnt].y = (now_st->pos.y) + 1;
 963              		.loc 1 169 19 is_stmt 0 view .LVU235
 964 0180 8119     		adds	r1, r0, r6
 169:C:/Users/leopi/Documents/vs/S-Reo/MazeLibrary\dfs.c **** 						mass_stack[n+cnt].y = (now_st->pos.y) + 1;
 965              		.loc 1 169 40 view .LVU236
 966 0182 2278     		ldrb	r2, [r4]	@ zero_extendqisi2
 169:C:/Users/leopi/Documents/vs/S-Reo/MazeLibrary\dfs.c **** 						mass_stack[n+cnt].y = (now_st->pos.y) + 1;
 967              		.loc 1 169 27 view .LVU237
 968 0184 664B     		ldr	r3, .L98+4
 969 0186 03F81120 		strb	r2, [r3, r1, lsl #1]
 170:C:/Users/leopi/Documents/vs/S-Reo/MazeLibrary\dfs.c **** 					}
 970              		.loc 1 170 7 is_stmt 1 view .LVU238
 170:C:/Users/leopi/Documents/vs/S-Reo/MazeLibrary\dfs.c **** 					}
 971              		.loc 1 170 41 is_stmt 0 view .LVU239
 972 018a 6278     		ldrb	r2, [r4, #1]	@ zero_extendqisi2
 170:C:/Users/leopi/Documents/vs/S-Reo/MazeLibrary\dfs.c **** 					}
 973              		.loc 1 170 45 view .LVU240
 974 018c 0132     		adds	r2, r2, #1
 170:C:/Users/leopi/Documents/vs/S-Reo/MazeLibrary\dfs.c **** 					}
 975              		.loc 1 170 27 view .LVU241
 976 018e 03EB4103 		add	r3, r3, r1, lsl #1
 977 0192 5A70     		strb	r2, [r3, #1]
 978              	.L75:
 176:C:/Users/leopi/Documents/vs/S-Reo/MazeLibrary\dfs.c **** 			if( maze->ColumnNode[nd_x+1][nd_y].existence == NOWALL ){ //行ける
 979              		.loc 1 176 3 is_stmt 1 view .LVU242
 176:C:/Users/leopi/Documents/vs/S-Reo/MazeLibrary\dfs.c **** 			if( maze->ColumnNode[nd_x+1][nd_y].existence == NOWALL ){ //行ける
 980              		.loc 1 176 5 is_stmt 0 view .LVU243
 981 0194 0F2D     		cmp	r5, #15
 982 0196 B2D8     		bhi	.L73
 177:C:/Users/leopi/Documents/vs/S-Reo/MazeLibrary\dfs.c **** 				if( x < NUMBER_OF_SQUARES_X - 1){
 983              		.loc 1 177 4 is_stmt 1 view .LVU244
 177:C:/Users/leopi/Documents/vs/S-Reo/MazeLibrary\dfs.c **** 				if( x < NUMBER_OF_SQUARES_X - 1){
 984              		.loc 1 177 29 is_stmt 0 view .LVU245
 985 0198 0135     		adds	r5, r5, #1
 986              	.LVL53:
 177:C:/Users/leopi/Documents/vs/S-Reo/MazeLibrary\dfs.c **** 				if( x < NUMBER_OF_SQUARES_X - 1){
 987              		.loc 1 177 38 view .LVU246
 988 019a 08EB0518 		add	r8, r8, r5, lsl #4
 989              	.LVL54:
 177:C:/Users/leopi/Documents/vs/S-Reo/MazeLibrary\dfs.c **** 				if( x < NUMBER_OF_SQUARES_X - 1){
 990              		.loc 1 177 38 view .LVU247
 991 019e 08F58878 		add	r8, r8, #272
 992 01a2 17F83830 		ldrb	r3, [r7, r8, lsl #3]	@ zero_extendqisi2
 177:C:/Users/leopi/Documents/vs/S-Reo/MazeLibrary\dfs.c **** 				if( x < NUMBER_OF_SQUARES_X - 1){
 993              		.loc 1 177 6 view .LVU248
 994 01a6 002B     		cmp	r3, #0
 995 01a8 A9D1     		bne	.L73
 178:C:/Users/leopi/Documents/vs/S-Reo/MazeLibrary\dfs.c **** 					if( Visit[x+1][y] == false ){ //未訪問
ARM GAS  C:\Users\leopi\AppData\Local\Temp\cczqc55t.s 			page 24


 996              		.loc 1 178 5 is_stmt 1 view .LVU249
 178:C:/Users/leopi/Documents/vs/S-Reo/MazeLibrary\dfs.c **** 					if( Visit[x+1][y] == false ){ //未訪問
 997              		.loc 1 178 7 is_stmt 0 view .LVU250
 998 01aa B9F10E0F 		cmp	r9, #14
 999 01ae A6D8     		bhi	.L73
 179:C:/Users/leopi/Documents/vs/S-Reo/MazeLibrary\dfs.c **** 						++cnt;
 1000              		.loc 1 179 6 is_stmt 1 view .LVU251
 179:C:/Users/leopi/Documents/vs/S-Reo/MazeLibrary\dfs.c **** 						++cnt;
 1001              		.loc 1 179 17 is_stmt 0 view .LVU252
 1002 01b0 09F10109 		add	r9, r9, #1
 1003              	.LVL55:
 179:C:/Users/leopi/Documents/vs/S-Reo/MazeLibrary\dfs.c **** 						++cnt;
 1004              		.loc 1 179 20 view .LVU253
 1005 01b4 594B     		ldr	r3, .L98
 1006 01b6 03EB0919 		add	r9, r3, r9, lsl #4
 1007              	.LVL56:
 179:C:/Users/leopi/Documents/vs/S-Reo/MazeLibrary\dfs.c **** 						++cnt;
 1008              		.loc 1 179 20 view .LVU254
 1009 01ba 19F80A30 		ldrb	r3, [r9, r10]	@ zero_extendqisi2
 179:C:/Users/leopi/Documents/vs/S-Reo/MazeLibrary\dfs.c **** 						++cnt;
 1010              		.loc 1 179 8 view .LVU255
 1011 01be 002B     		cmp	r3, #0
 1012 01c0 9DD1     		bne	.L73
 180:C:/Users/leopi/Documents/vs/S-Reo/MazeLibrary\dfs.c **** 						mass_stack[n+cnt].x = now_st->pos.x+1;
 1013              		.loc 1 180 7 is_stmt 1 view .LVU256
 1014 01c2 0136     		adds	r6, r6, #1
 1015              	.LVL57:
 181:C:/Users/leopi/Documents/vs/S-Reo/MazeLibrary\dfs.c **** 						mass_stack[n+cnt].y = now_st->pos.y;
 1016              		.loc 1 181 7 view .LVU257
 181:C:/Users/leopi/Documents/vs/S-Reo/MazeLibrary\dfs.c **** 						mass_stack[n+cnt].y = now_st->pos.y;
 1017              		.loc 1 181 40 is_stmt 0 view .LVU258
 1018 01c4 2278     		ldrb	r2, [r4]	@ zero_extendqisi2
 181:C:/Users/leopi/Documents/vs/S-Reo/MazeLibrary\dfs.c **** 						mass_stack[n+cnt].y = now_st->pos.y;
 1019              		.loc 1 181 19 view .LVU259
 1020 01c6 8119     		adds	r1, r0, r6
 181:C:/Users/leopi/Documents/vs/S-Reo/MazeLibrary\dfs.c **** 						mass_stack[n+cnt].y = now_st->pos.y;
 1021              		.loc 1 181 42 view .LVU260
 1022 01c8 0132     		adds	r2, r2, #1
 181:C:/Users/leopi/Documents/vs/S-Reo/MazeLibrary\dfs.c **** 						mass_stack[n+cnt].y = now_st->pos.y;
 1023              		.loc 1 181 27 view .LVU261
 1024 01ca 554B     		ldr	r3, .L98+4
 1025 01cc 03F81120 		strb	r2, [r3, r1, lsl #1]
 182:C:/Users/leopi/Documents/vs/S-Reo/MazeLibrary\dfs.c **** 					}
 1026              		.loc 1 182 7 is_stmt 1 view .LVU262
 182:C:/Users/leopi/Documents/vs/S-Reo/MazeLibrary\dfs.c **** 					}
 1027              		.loc 1 182 40 is_stmt 0 view .LVU263
 1028 01d0 6278     		ldrb	r2, [r4, #1]	@ zero_extendqisi2
 182:C:/Users/leopi/Documents/vs/S-Reo/MazeLibrary\dfs.c **** 					}
 1029              		.loc 1 182 27 view .LVU264
 1030 01d2 03EB4103 		add	r3, r3, r1, lsl #1
 1031 01d6 5A70     		strb	r2, [r3, #1]
 1032 01d8 91E7     		b	.L73
 1033              	.LVL58:
 1034              	.L86:
 105:C:/Users/leopi/Documents/vs/S-Reo/MazeLibrary\dfs.c **** 	//スタックの流れ
 1035              		.loc 1 105 6 view .LVU265
 1036 01da 0026     		movs	r6, #0
ARM GAS  C:\Users\leopi\AppData\Local\Temp\cczqc55t.s 			page 25


 1037              	.LVL59:
 105:C:/Users/leopi/Documents/vs/S-Reo/MazeLibrary\dfs.c **** 	//スタックの流れ
 1038              		.loc 1 105 6 view .LVU266
 1039 01dc BAE7     		b	.L74
 1040              	.LVL60:
 1041              	.L87:
 105:C:/Users/leopi/Documents/vs/S-Reo/MazeLibrary\dfs.c **** 	//スタックの流れ
 1042              		.loc 1 105 6 view .LVU267
 1043 01de 0026     		movs	r6, #0
 1044              	.LVL61:
 105:C:/Users/leopi/Documents/vs/S-Reo/MazeLibrary\dfs.c **** 	//スタックの流れ
 1045              		.loc 1 105 6 view .LVU268
 1046 01e0 B8E7     		b	.L74
 1047              	.LVL62:
 1048              	.L68:
 190:C:/Users/leopi/Documents/vs/S-Reo/MazeLibrary\dfs.c **** 			if( maze->ColumnNode[nd_x][nd_y-1].existence == NOWALL ){ //行ける
 1049              		.loc 1 190 3 is_stmt 1 view .LVU269
 190:C:/Users/leopi/Documents/vs/S-Reo/MazeLibrary\dfs.c **** 			if( maze->ColumnNode[nd_x][nd_y-1].existence == NOWALL ){ //行ける
 1050              		.loc 1 190 5 is_stmt 0 view .LVU270
 1051 01e2 B8F1000F 		cmp	r8, #0
 1052 01e6 21D0     		beq	.L88
 191:C:/Users/leopi/Documents/vs/S-Reo/MazeLibrary\dfs.c **** 				if( 1 <= x){
 1053              		.loc 1 191 4 is_stmt 1 view .LVU271
 191:C:/Users/leopi/Documents/vs/S-Reo/MazeLibrary\dfs.c **** 				if( 1 <= x){
 1054              		.loc 1 191 35 is_stmt 0 view .LVU272
 1055 01e8 08F1FF33 		add	r3, r8, #-1
 191:C:/Users/leopi/Documents/vs/S-Reo/MazeLibrary\dfs.c **** 				if( 1 <= x){
 1056              		.loc 1 191 38 view .LVU273
 1057 01ec 03EB0513 		add	r3, r3, r5, lsl #4
 1058 01f0 03F58873 		add	r3, r3, #272
 1059 01f4 17F83330 		ldrb	r3, [r7, r3, lsl #3]	@ zero_extendqisi2
 191:C:/Users/leopi/Documents/vs/S-Reo/MazeLibrary\dfs.c **** 				if( 1 <= x){
 1060              		.loc 1 191 6 view .LVU274
 1061 01f8 002B     		cmp	r3, #0
 1062 01fa 65D1     		bne	.L89
 192:C:/Users/leopi/Documents/vs/S-Reo/MazeLibrary\dfs.c **** 					if( Visit[x-1][y] == false ){ //未訪問
 1063              		.loc 1 192 5 is_stmt 1 view .LVU275
 192:C:/Users/leopi/Documents/vs/S-Reo/MazeLibrary\dfs.c **** 					if( Visit[x-1][y] == false ){ //未訪問
 1064              		.loc 1 192 7 is_stmt 0 view .LVU276
 1065 01fc B9F1000F 		cmp	r9, #0
 1066 0200 64D0     		beq	.L90
 193:C:/Users/leopi/Documents/vs/S-Reo/MazeLibrary\dfs.c **** 						++cnt;
 1067              		.loc 1 193 6 is_stmt 1 view .LVU277
 193:C:/Users/leopi/Documents/vs/S-Reo/MazeLibrary\dfs.c **** 						++cnt;
 1068              		.loc 1 193 17 is_stmt 0 view .LVU278
 1069 0202 09F1FF33 		add	r3, r9, #-1
 193:C:/Users/leopi/Documents/vs/S-Reo/MazeLibrary\dfs.c **** 						++cnt;
 1070              		.loc 1 193 20 view .LVU279
 1071 0206 454A     		ldr	r2, .L98
 1072 0208 02EB0313 		add	r3, r2, r3, lsl #4
 1073 020c 13F80A30 		ldrb	r3, [r3, r10]	@ zero_extendqisi2
 193:C:/Users/leopi/Documents/vs/S-Reo/MazeLibrary\dfs.c **** 						++cnt;
 1074              		.loc 1 193 8 view .LVU280
 1075 0210 002B     		cmp	r3, #0
 1076 0212 5DD1     		bne	.L91
 194:C:/Users/leopi/Documents/vs/S-Reo/MazeLibrary\dfs.c **** 						mass_stack[n+cnt].x = now_st->pos.x-1;
 1077              		.loc 1 194 7 is_stmt 1 view .LVU281
ARM GAS  C:\Users\leopi\AppData\Local\Temp\cczqc55t.s 			page 26


 1078              	.LVL63:
 195:C:/Users/leopi/Documents/vs/S-Reo/MazeLibrary\dfs.c **** 						mass_stack[n+cnt].y = now_st->pos.y;
 1079              		.loc 1 195 7 view .LVU282
 195:C:/Users/leopi/Documents/vs/S-Reo/MazeLibrary\dfs.c **** 						mass_stack[n+cnt].y = now_st->pos.y;
 1080              		.loc 1 195 19 is_stmt 0 view .LVU283
 1081 0214 421C     		adds	r2, r0, #1
 195:C:/Users/leopi/Documents/vs/S-Reo/MazeLibrary\dfs.c **** 						mass_stack[n+cnt].y = now_st->pos.y;
 1082              		.loc 1 195 42 view .LVU284
 1083 0216 09F1FF31 		add	r1, r9, #-1
 195:C:/Users/leopi/Documents/vs/S-Reo/MazeLibrary\dfs.c **** 						mass_stack[n+cnt].y = now_st->pos.y;
 1084              		.loc 1 195 27 view .LVU285
 1085 021a 414B     		ldr	r3, .L98+4
 1086 021c 03F81210 		strb	r1, [r3, r2, lsl #1]
 196:C:/Users/leopi/Documents/vs/S-Reo/MazeLibrary\dfs.c **** 					}
 1087              		.loc 1 196 7 is_stmt 1 view .LVU286
 196:C:/Users/leopi/Documents/vs/S-Reo/MazeLibrary\dfs.c **** 					}
 1088              		.loc 1 196 40 is_stmt 0 view .LVU287
 1089 0220 6178     		ldrb	r1, [r4, #1]	@ zero_extendqisi2
 196:C:/Users/leopi/Documents/vs/S-Reo/MazeLibrary\dfs.c **** 					}
 1090              		.loc 1 196 27 view .LVU288
 1091 0222 03EB4203 		add	r3, r3, r2, lsl #1
 1092 0226 5970     		strb	r1, [r3, #1]
 194:C:/Users/leopi/Documents/vs/S-Reo/MazeLibrary\dfs.c **** 						mass_stack[n+cnt].x = now_st->pos.x-1;
 1093              		.loc 1 194 7 view .LVU289
 1094 0228 0126     		movs	r6, #1
 1095              	.LVL64:
 194:C:/Users/leopi/Documents/vs/S-Reo/MazeLibrary\dfs.c **** 						mass_stack[n+cnt].x = now_st->pos.x-1;
 1096              		.loc 1 194 7 view .LVU290
 1097 022a 00E0     		b	.L76
 1098              	.LVL65:
 1099              	.L88:
 105:C:/Users/leopi/Documents/vs/S-Reo/MazeLibrary\dfs.c **** 	//スタックの流れ
 1100              		.loc 1 105 6 view .LVU291
 1101 022c 0026     		movs	r6, #0
 1102              	.LVL66:
 1103              	.L76:
 202:C:/Users/leopi/Documents/vs/S-Reo/MazeLibrary\dfs.c **** 			if( maze->ColumnNode[nd_x+1][nd_y-1].existence == NOWALL ){ //行ける
 1104              		.loc 1 202 3 is_stmt 1 view .LVU292
 202:C:/Users/leopi/Documents/vs/S-Reo/MazeLibrary\dfs.c **** 			if( maze->ColumnNode[nd_x+1][nd_y-1].existence == NOWALL ){ //行ける
 1105              		.loc 1 202 5 is_stmt 0 view .LVU293
 1106 022e 0F2D     		cmp	r5, #15
 1107 0230 22D8     		bhi	.L77
 202:C:/Users/leopi/Documents/vs/S-Reo/MazeLibrary\dfs.c **** 			if( maze->ColumnNode[nd_x+1][nd_y-1].existence == NOWALL ){ //行ける
 1108              		.loc 1 202 38 discriminator 1 view .LVU294
 1109 0232 B8F1000F 		cmp	r8, #0
 1110 0236 1FD0     		beq	.L77
 203:C:/Users/leopi/Documents/vs/S-Reo/MazeLibrary\dfs.c **** 				if( x < (NUMBER_OF_SQUARES_X - 1) ){
 1111              		.loc 1 203 4 is_stmt 1 view .LVU295
 203:C:/Users/leopi/Documents/vs/S-Reo/MazeLibrary\dfs.c **** 				if( x < (NUMBER_OF_SQUARES_X - 1) ){
 1112              		.loc 1 203 29 is_stmt 0 view .LVU296
 1113 0238 6B1C     		adds	r3, r5, #1
 203:C:/Users/leopi/Documents/vs/S-Reo/MazeLibrary\dfs.c **** 				if( x < (NUMBER_OF_SQUARES_X - 1) ){
 1114              		.loc 1 203 37 view .LVU297
 1115 023a 08F1FF32 		add	r2, r8, #-1
 203:C:/Users/leopi/Documents/vs/S-Reo/MazeLibrary\dfs.c **** 				if( x < (NUMBER_OF_SQUARES_X - 1) ){
 1116              		.loc 1 203 40 view .LVU298
 1117 023e 02EB0313 		add	r3, r2, r3, lsl #4
ARM GAS  C:\Users\leopi\AppData\Local\Temp\cczqc55t.s 			page 27


 1118 0242 03F58873 		add	r3, r3, #272
 1119 0246 17F83330 		ldrb	r3, [r7, r3, lsl #3]	@ zero_extendqisi2
 203:C:/Users/leopi/Documents/vs/S-Reo/MazeLibrary\dfs.c **** 				if( x < (NUMBER_OF_SQUARES_X - 1) ){
 1120              		.loc 1 203 6 view .LVU299
 1121 024a ABB9     		cbnz	r3, .L77
 204:C:/Users/leopi/Documents/vs/S-Reo/MazeLibrary\dfs.c **** 					if( Visit[x+1][y] == false ){ //未訪問
 1122              		.loc 1 204 5 is_stmt 1 view .LVU300
 204:C:/Users/leopi/Documents/vs/S-Reo/MazeLibrary\dfs.c **** 					if( Visit[x+1][y] == false ){ //未訪問
 1123              		.loc 1 204 7 is_stmt 0 view .LVU301
 1124 024c B9F10E0F 		cmp	r9, #14
 1125 0250 12D8     		bhi	.L77
 205:C:/Users/leopi/Documents/vs/S-Reo/MazeLibrary\dfs.c **** 						++cnt;
 1126              		.loc 1 205 6 is_stmt 1 view .LVU302
 205:C:/Users/leopi/Documents/vs/S-Reo/MazeLibrary\dfs.c **** 						++cnt;
 1127              		.loc 1 205 17 is_stmt 0 view .LVU303
 1128 0252 09F10103 		add	r3, r9, #1
 205:C:/Users/leopi/Documents/vs/S-Reo/MazeLibrary\dfs.c **** 						++cnt;
 1129              		.loc 1 205 20 view .LVU304
 1130 0256 314A     		ldr	r2, .L98
 1131 0258 02EB0313 		add	r3, r2, r3, lsl #4
 1132 025c 13F80A30 		ldrb	r3, [r3, r10]	@ zero_extendqisi2
 205:C:/Users/leopi/Documents/vs/S-Reo/MazeLibrary\dfs.c **** 						++cnt;
 1133              		.loc 1 205 8 view .LVU305
 1134 0260 53B9     		cbnz	r3, .L77
 206:C:/Users/leopi/Documents/vs/S-Reo/MazeLibrary\dfs.c **** 						mass_stack[n+cnt].x = now_st->pos.x+1;
 1135              		.loc 1 206 7 is_stmt 1 view .LVU306
 1136 0262 0136     		adds	r6, r6, #1
 1137              	.LVL67:
 207:C:/Users/leopi/Documents/vs/S-Reo/MazeLibrary\dfs.c **** 						mass_stack[n+cnt].y = now_st->pos.y;
 1138              		.loc 1 207 7 view .LVU307
 207:C:/Users/leopi/Documents/vs/S-Reo/MazeLibrary\dfs.c **** 						mass_stack[n+cnt].y = now_st->pos.y;
 1139              		.loc 1 207 40 is_stmt 0 view .LVU308
 1140 0264 2278     		ldrb	r2, [r4]	@ zero_extendqisi2
 207:C:/Users/leopi/Documents/vs/S-Reo/MazeLibrary\dfs.c **** 						mass_stack[n+cnt].y = now_st->pos.y;
 1141              		.loc 1 207 19 view .LVU309
 1142 0266 8119     		adds	r1, r0, r6
 207:C:/Users/leopi/Documents/vs/S-Reo/MazeLibrary\dfs.c **** 						mass_stack[n+cnt].y = now_st->pos.y;
 1143              		.loc 1 207 42 view .LVU310
 1144 0268 0132     		adds	r2, r2, #1
 207:C:/Users/leopi/Documents/vs/S-Reo/MazeLibrary\dfs.c **** 						mass_stack[n+cnt].y = now_st->pos.y;
 1145              		.loc 1 207 27 view .LVU311
 1146 026a 2D4B     		ldr	r3, .L98+4
 1147 026c 03F81120 		strb	r2, [r3, r1, lsl #1]
 208:C:/Users/leopi/Documents/vs/S-Reo/MazeLibrary\dfs.c **** 					}
 1148              		.loc 1 208 7 is_stmt 1 view .LVU312
 208:C:/Users/leopi/Documents/vs/S-Reo/MazeLibrary\dfs.c **** 					}
 1149              		.loc 1 208 40 is_stmt 0 view .LVU313
 1150 0270 6278     		ldrb	r2, [r4, #1]	@ zero_extendqisi2
 208:C:/Users/leopi/Documents/vs/S-Reo/MazeLibrary\dfs.c **** 					}
 1151              		.loc 1 208 27 view .LVU314
 1152 0272 03EB4103 		add	r3, r3, r1, lsl #1
 1153 0276 5A70     		strb	r2, [r3, #1]
 1154              	.L77:
 215:C:/Users/leopi/Documents/vs/S-Reo/MazeLibrary\dfs.c **** 			if( maze->RawNode[nd_x][nd_y-1].existence == NOWALL ){ //行ける
 1155              		.loc 1 215 3 is_stmt 1 view .LVU315
 215:C:/Users/leopi/Documents/vs/S-Reo/MazeLibrary\dfs.c **** 			if( maze->RawNode[nd_x][nd_y-1].existence == NOWALL ){ //行ける
 1156              		.loc 1 215 5 is_stmt 0 view .LVU316
ARM GAS  C:\Users\leopi\AppData\Local\Temp\cczqc55t.s 			page 28


 1157 0278 B8F1000F 		cmp	r8, #0
 1158 027c 3FF43FAF 		beq	.L73
 216:C:/Users/leopi/Documents/vs/S-Reo/MazeLibrary\dfs.c **** 				if( 1 <= y){
 1159              		.loc 1 216 4 is_stmt 1 view .LVU317
 216:C:/Users/leopi/Documents/vs/S-Reo/MazeLibrary\dfs.c **** 				if( 1 <= y){
 1160              		.loc 1 216 32 is_stmt 0 view .LVU318
 1161 0280 08F1FF38 		add	r8, r8, #-1
 1162              	.LVL68:
 216:C:/Users/leopi/Documents/vs/S-Reo/MazeLibrary\dfs.c **** 				if( 1 <= y){
 1163              		.loc 1 216 35 view .LVU319
 1164 0284 05EB0515 		add	r5, r5, r5, lsl #4
 1165              	.LVL69:
 216:C:/Users/leopi/Documents/vs/S-Reo/MazeLibrary\dfs.c **** 				if( 1 <= y){
 1166              		.loc 1 216 35 view .LVU320
 1167 0288 4544     		add	r5, r5, r8
 1168 028a 17F83530 		ldrb	r3, [r7, r5, lsl #3]	@ zero_extendqisi2
 216:C:/Users/leopi/Documents/vs/S-Reo/MazeLibrary\dfs.c **** 				if( 1 <= y){
 1169              		.loc 1 216 6 view .LVU321
 1170 028e 002B     		cmp	r3, #0
 1171 0290 7FF435AF 		bne	.L73
 217:C:/Users/leopi/Documents/vs/S-Reo/MazeLibrary\dfs.c **** 					if( Visit[x][y-1] == false ){ //未訪問
 1172              		.loc 1 217 5 is_stmt 1 view .LVU322
 217:C:/Users/leopi/Documents/vs/S-Reo/MazeLibrary\dfs.c **** 					if( Visit[x][y-1] == false ){ //未訪問
 1173              		.loc 1 217 7 is_stmt 0 view .LVU323
 1174 0294 BAF1000F 		cmp	r10, #0
 1175 0298 3FF431AF 		beq	.L73
 218:C:/Users/leopi/Documents/vs/S-Reo/MazeLibrary\dfs.c **** 						++cnt;
 1176              		.loc 1 218 6 is_stmt 1 view .LVU324
 218:C:/Users/leopi/Documents/vs/S-Reo/MazeLibrary\dfs.c **** 						++cnt;
 1177              		.loc 1 218 20 is_stmt 0 view .LVU325
 1178 029c 0AF1FF3A 		add	r10, r10, #-1
 1179              	.LVL70:
 218:C:/Users/leopi/Documents/vs/S-Reo/MazeLibrary\dfs.c **** 						++cnt;
 1180              		.loc 1 218 18 view .LVU326
 1181 02a0 1E4B     		ldr	r3, .L98
 1182 02a2 03EB0919 		add	r9, r3, r9, lsl #4
 1183              	.LVL71:
 218:C:/Users/leopi/Documents/vs/S-Reo/MazeLibrary\dfs.c **** 						++cnt;
 1184              		.loc 1 218 18 view .LVU327
 1185 02a6 19F80A30 		ldrb	r3, [r9, r10]	@ zero_extendqisi2
 218:C:/Users/leopi/Documents/vs/S-Reo/MazeLibrary\dfs.c **** 						++cnt;
 1186              		.loc 1 218 8 view .LVU328
 1187 02aa 002B     		cmp	r3, #0
 1188 02ac 7FF427AF 		bne	.L73
 219:C:/Users/leopi/Documents/vs/S-Reo/MazeLibrary\dfs.c **** 						mass_stack[n+cnt].x = now_st->pos.x;
 1189              		.loc 1 219 7 is_stmt 1 view .LVU329
 1190 02b0 0136     		adds	r6, r6, #1
 1191              	.LVL72:
 220:C:/Users/leopi/Documents/vs/S-Reo/MazeLibrary\dfs.c **** 						mass_stack[n+cnt].y = now_st->pos.y-1;
 1192              		.loc 1 220 7 view .LVU330
 220:C:/Users/leopi/Documents/vs/S-Reo/MazeLibrary\dfs.c **** 						mass_stack[n+cnt].y = now_st->pos.y-1;
 1193              		.loc 1 220 19 is_stmt 0 view .LVU331
 1194 02b2 8119     		adds	r1, r0, r6
 220:C:/Users/leopi/Documents/vs/S-Reo/MazeLibrary\dfs.c **** 						mass_stack[n+cnt].y = now_st->pos.y-1;
 1195              		.loc 1 220 40 view .LVU332
 1196 02b4 2278     		ldrb	r2, [r4]	@ zero_extendqisi2
 220:C:/Users/leopi/Documents/vs/S-Reo/MazeLibrary\dfs.c **** 						mass_stack[n+cnt].y = now_st->pos.y-1;
ARM GAS  C:\Users\leopi\AppData\Local\Temp\cczqc55t.s 			page 29


 1197              		.loc 1 220 27 view .LVU333
 1198 02b6 1A4B     		ldr	r3, .L98+4
 1199 02b8 03F81120 		strb	r2, [r3, r1, lsl #1]
 221:C:/Users/leopi/Documents/vs/S-Reo/MazeLibrary\dfs.c **** 					}
 1200              		.loc 1 221 7 is_stmt 1 view .LVU334
 221:C:/Users/leopi/Documents/vs/S-Reo/MazeLibrary\dfs.c **** 					}
 1201              		.loc 1 221 40 is_stmt 0 view .LVU335
 1202 02bc 6278     		ldrb	r2, [r4, #1]	@ zero_extendqisi2
 221:C:/Users/leopi/Documents/vs/S-Reo/MazeLibrary\dfs.c **** 					}
 1203              		.loc 1 221 42 view .LVU336
 1204 02be 013A     		subs	r2, r2, #1
 221:C:/Users/leopi/Documents/vs/S-Reo/MazeLibrary\dfs.c **** 					}
 1205              		.loc 1 221 27 view .LVU337
 1206 02c0 03EB4103 		add	r3, r3, r1, lsl #1
 1207 02c4 5A70     		strb	r2, [r3, #1]
 1208 02c6 1AE7     		b	.L73
 1209              	.LVL73:
 1210              	.L89:
 105:C:/Users/leopi/Documents/vs/S-Reo/MazeLibrary\dfs.c **** 	//スタックの流れ
 1211              		.loc 1 105 6 view .LVU338
 1212 02c8 0026     		movs	r6, #0
 1213              	.LVL74:
 105:C:/Users/leopi/Documents/vs/S-Reo/MazeLibrary\dfs.c **** 	//スタックの流れ
 1214              		.loc 1 105 6 view .LVU339
 1215 02ca B0E7     		b	.L76
 1216              	.LVL75:
 1217              	.L90:
 105:C:/Users/leopi/Documents/vs/S-Reo/MazeLibrary\dfs.c **** 	//スタックの流れ
 1218              		.loc 1 105 6 view .LVU340
 1219 02cc 0026     		movs	r6, #0
 1220              	.LVL76:
 105:C:/Users/leopi/Documents/vs/S-Reo/MazeLibrary\dfs.c **** 	//スタックの流れ
 1221              		.loc 1 105 6 view .LVU341
 1222 02ce AEE7     		b	.L76
 1223              	.LVL77:
 1224              	.L91:
 105:C:/Users/leopi/Documents/vs/S-Reo/MazeLibrary\dfs.c **** 	//スタックの流れ
 1225              		.loc 1 105 6 view .LVU342
 1226 02d0 0026     		movs	r6, #0
 1227              	.LVL78:
 105:C:/Users/leopi/Documents/vs/S-Reo/MazeLibrary\dfs.c **** 	//スタックの流れ
 1228              		.loc 1 105 6 view .LVU343
 1229 02d2 ACE7     		b	.L76
 1230              	.LVL79:
 1231              	.L66:
 229:C:/Users/leopi/Documents/vs/S-Reo/MazeLibrary\dfs.c **** 			if( maze->RawNode[nd_x-1][nd_y+1].existence == NOWALL ){ //行ける
 1232              		.loc 1 229 3 is_stmt 1 view .LVU344
 229:C:/Users/leopi/Documents/vs/S-Reo/MazeLibrary\dfs.c **** 			if( maze->RawNode[nd_x-1][nd_y+1].existence == NOWALL ){ //行ける
 1233              		.loc 1 229 5 is_stmt 0 view .LVU345
 1234 02d4 35B3     		cbz	r5, .L92
 229:C:/Users/leopi/Documents/vs/S-Reo/MazeLibrary\dfs.c **** 			if( maze->RawNode[nd_x-1][nd_y+1].existence == NOWALL ){ //行ける
 1235              		.loc 1 229 19 discriminator 1 view .LVU346
 1236 02d6 B8F10F0F 		cmp	r8, #15
 1237 02da 68D8     		bhi	.L93
 230:C:/Users/leopi/Documents/vs/S-Reo/MazeLibrary\dfs.c **** 				if( y < (NUMBER_OF_SQUARES_Y -1) ){
 1238              		.loc 1 230 4 is_stmt 1 view .LVU347
 230:C:/Users/leopi/Documents/vs/S-Reo/MazeLibrary\dfs.c **** 				if( y < (NUMBER_OF_SQUARES_Y -1) ){
ARM GAS  C:\Users\leopi\AppData\Local\Temp\cczqc55t.s 			page 30


 1239              		.loc 1 230 26 is_stmt 0 view .LVU348
 1240 02dc 6B1E     		subs	r3, r5, #1
 230:C:/Users/leopi/Documents/vs/S-Reo/MazeLibrary\dfs.c **** 				if( y < (NUMBER_OF_SQUARES_Y -1) ){
 1241              		.loc 1 230 34 view .LVU349
 1242 02de 08F10102 		add	r2, r8, #1
 230:C:/Users/leopi/Documents/vs/S-Reo/MazeLibrary\dfs.c **** 				if( y < (NUMBER_OF_SQUARES_Y -1) ){
 1243              		.loc 1 230 37 view .LVU350
 1244 02e2 03EB0313 		add	r3, r3, r3, lsl #4
 1245 02e6 1344     		add	r3, r3, r2
 1246 02e8 17F83330 		ldrb	r3, [r7, r3, lsl #3]	@ zero_extendqisi2
 230:C:/Users/leopi/Documents/vs/S-Reo/MazeLibrary\dfs.c **** 				if( y < (NUMBER_OF_SQUARES_Y -1) ){
 1247              		.loc 1 230 6 view .LVU351
 1248 02ec 002B     		cmp	r3, #0
 1249 02ee 60D1     		bne	.L94
 231:C:/Users/leopi/Documents/vs/S-Reo/MazeLibrary\dfs.c **** 					if( Visit[x][y+1] == false ){ //未訪問
 1250              		.loc 1 231 5 is_stmt 1 view .LVU352
 231:C:/Users/leopi/Documents/vs/S-Reo/MazeLibrary\dfs.c **** 					if( Visit[x][y+1] == false ){ //未訪問
 1251              		.loc 1 231 7 is_stmt 0 view .LVU353
 1252 02f0 BAF10E0F 		cmp	r10, #14
 1253 02f4 5FD8     		bhi	.L95
 232:C:/Users/leopi/Documents/vs/S-Reo/MazeLibrary\dfs.c **** 						++cnt;
 1254              		.loc 1 232 6 is_stmt 1 view .LVU354
 232:C:/Users/leopi/Documents/vs/S-Reo/MazeLibrary\dfs.c **** 						++cnt;
 1255              		.loc 1 232 20 is_stmt 0 view .LVU355
 1256 02f6 0AF10103 		add	r3, r10, #1
 232:C:/Users/leopi/Documents/vs/S-Reo/MazeLibrary\dfs.c **** 						++cnt;
 1257              		.loc 1 232 18 view .LVU356
 1258 02fa 084A     		ldr	r2, .L98
 1259 02fc 02EB0912 		add	r2, r2, r9, lsl #4
 1260 0300 D35C     		ldrb	r3, [r2, r3]	@ zero_extendqisi2
 232:C:/Users/leopi/Documents/vs/S-Reo/MazeLibrary\dfs.c **** 						++cnt;
 1261              		.loc 1 232 8 view .LVU357
 1262 0302 002B     		cmp	r3, #0
 1263 0304 59D1     		bne	.L96
 233:C:/Users/leopi/Documents/vs/S-Reo/MazeLibrary\dfs.c **** 						mass_stack[n+cnt].x = now_st->pos.x;
 1264              		.loc 1 233 7 is_stmt 1 view .LVU358
 1265              	.LVL80:
 234:C:/Users/leopi/Documents/vs/S-Reo/MazeLibrary\dfs.c **** 						mass_stack[n+cnt].y = now_st->pos.y+1;
 1266              		.loc 1 234 7 view .LVU359
 234:C:/Users/leopi/Documents/vs/S-Reo/MazeLibrary\dfs.c **** 						mass_stack[n+cnt].y = now_st->pos.y+1;
 1267              		.loc 1 234 19 is_stmt 0 view .LVU360
 1268 0306 421C     		adds	r2, r0, #1
 234:C:/Users/leopi/Documents/vs/S-Reo/MazeLibrary\dfs.c **** 						mass_stack[n+cnt].y = now_st->pos.y+1;
 1269              		.loc 1 234 27 view .LVU361
 1270 0308 054B     		ldr	r3, .L98+4
 1271 030a 03F81290 		strb	r9, [r3, r2, lsl #1]
 235:C:/Users/leopi/Documents/vs/S-Reo/MazeLibrary\dfs.c **** 					}
 1272              		.loc 1 235 7 is_stmt 1 view .LVU362
 235:C:/Users/leopi/Documents/vs/S-Reo/MazeLibrary\dfs.c **** 					}
 1273              		.loc 1 235 40 is_stmt 0 view .LVU363
 1274 030e 6178     		ldrb	r1, [r4, #1]	@ zero_extendqisi2
 235:C:/Users/leopi/Documents/vs/S-Reo/MazeLibrary\dfs.c **** 					}
 1275              		.loc 1 235 42 view .LVU364
 1276 0310 0131     		adds	r1, r1, #1
 235:C:/Users/leopi/Documents/vs/S-Reo/MazeLibrary\dfs.c **** 					}
 1277              		.loc 1 235 27 view .LVU365
 1278 0312 03EB4203 		add	r3, r3, r2, lsl #1
ARM GAS  C:\Users\leopi\AppData\Local\Temp\cczqc55t.s 			page 31


 1279 0316 5970     		strb	r1, [r3, #1]
 233:C:/Users/leopi/Documents/vs/S-Reo/MazeLibrary\dfs.c **** 						mass_stack[n+cnt].x = now_st->pos.x;
 1280              		.loc 1 233 7 view .LVU366
 1281 0318 0126     		movs	r6, #1
 1282              	.LVL81:
 233:C:/Users/leopi/Documents/vs/S-Reo/MazeLibrary\dfs.c **** 						mass_stack[n+cnt].x = now_st->pos.x;
 1283              		.loc 1 233 7 view .LVU367
 1284 031a 04E0     		b	.L78
 1285              	.L99:
 1286              		.align	2
 1287              	.L98:
 1288 031c 00000000 		.word	.LANCHOR4
 1289 0320 00000000 		.word	.LANCHOR3
 1290              	.LVL82:
 1291              	.L92:
 105:C:/Users/leopi/Documents/vs/S-Reo/MazeLibrary\dfs.c **** 	//スタックの流れ
 1292              		.loc 1 105 6 view .LVU368
 1293 0324 0026     		movs	r6, #0
 1294              	.LVL83:
 1295              	.L78:
 241:C:/Users/leopi/Documents/vs/S-Reo/MazeLibrary\dfs.c **** 			if( maze->RawNode[nd_x-1][nd_y].existence == NOWALL ){ //行ける
 1296              		.loc 1 241 3 is_stmt 1 view .LVU369
 241:C:/Users/leopi/Documents/vs/S-Reo/MazeLibrary\dfs.c **** 			if( maze->RawNode[nd_x-1][nd_y].existence == NOWALL ){ //行ける
 1297              		.loc 1 241 5 is_stmt 0 view .LVU370
 1298 0326 DDB1     		cbz	r5, .L79
 242:C:/Users/leopi/Documents/vs/S-Reo/MazeLibrary\dfs.c **** 				if( 1 <= y ){
 1299              		.loc 1 242 4 is_stmt 1 view .LVU371
 242:C:/Users/leopi/Documents/vs/S-Reo/MazeLibrary\dfs.c **** 				if( 1 <= y ){
 1300              		.loc 1 242 26 is_stmt 0 view .LVU372
 1301 0328 6B1E     		subs	r3, r5, #1
 242:C:/Users/leopi/Documents/vs/S-Reo/MazeLibrary\dfs.c **** 				if( 1 <= y ){
 1302              		.loc 1 242 35 view .LVU373
 1303 032a 03EB0313 		add	r3, r3, r3, lsl #4
 1304 032e 4344     		add	r3, r3, r8
 1305 0330 17F83330 		ldrb	r3, [r7, r3, lsl #3]	@ zero_extendqisi2
 242:C:/Users/leopi/Documents/vs/S-Reo/MazeLibrary\dfs.c **** 				if( 1 <= y ){
 1306              		.loc 1 242 6 view .LVU374
 1307 0334 A3B9     		cbnz	r3, .L79
 243:C:/Users/leopi/Documents/vs/S-Reo/MazeLibrary\dfs.c **** 					if( Visit[x][y-1] == false ){ //未訪問
 1308              		.loc 1 243 5 is_stmt 1 view .LVU375
 243:C:/Users/leopi/Documents/vs/S-Reo/MazeLibrary\dfs.c **** 					if( Visit[x][y-1] == false ){ //未訪問
 1309              		.loc 1 243 7 is_stmt 0 view .LVU376
 1310 0336 BAF1000F 		cmp	r10, #0
 1311 033a 11D0     		beq	.L79
 244:C:/Users/leopi/Documents/vs/S-Reo/MazeLibrary\dfs.c **** 						++cnt;
 1312              		.loc 1 244 6 is_stmt 1 view .LVU377
 244:C:/Users/leopi/Documents/vs/S-Reo/MazeLibrary\dfs.c **** 						++cnt;
 1313              		.loc 1 244 20 is_stmt 0 view .LVU378
 1314 033c 0AF1FF33 		add	r3, r10, #-1
 244:C:/Users/leopi/Documents/vs/S-Reo/MazeLibrary\dfs.c **** 						++cnt;
 1315              		.loc 1 244 18 view .LVU379
 1316 0340 204A     		ldr	r2, .L100
 1317 0342 02EB0912 		add	r2, r2, r9, lsl #4
 1318 0346 D35C     		ldrb	r3, [r2, r3]	@ zero_extendqisi2
 244:C:/Users/leopi/Documents/vs/S-Reo/MazeLibrary\dfs.c **** 						++cnt;
 1319              		.loc 1 244 8 view .LVU380
 1320 0348 53B9     		cbnz	r3, .L79
ARM GAS  C:\Users\leopi\AppData\Local\Temp\cczqc55t.s 			page 32


 245:C:/Users/leopi/Documents/vs/S-Reo/MazeLibrary\dfs.c **** 						mass_stack[n+cnt].x = now_st->pos.x;
 1321              		.loc 1 245 7 is_stmt 1 view .LVU381
 1322 034a 0136     		adds	r6, r6, #1
 1323              	.LVL84:
 246:C:/Users/leopi/Documents/vs/S-Reo/MazeLibrary\dfs.c **** 						mass_stack[n+cnt].y = now_st->pos.y-1;
 1324              		.loc 1 246 7 view .LVU382
 246:C:/Users/leopi/Documents/vs/S-Reo/MazeLibrary\dfs.c **** 						mass_stack[n+cnt].y = now_st->pos.y-1;
 1325              		.loc 1 246 19 is_stmt 0 view .LVU383
 1326 034c 8119     		adds	r1, r0, r6
 246:C:/Users/leopi/Documents/vs/S-Reo/MazeLibrary\dfs.c **** 						mass_stack[n+cnt].y = now_st->pos.y-1;
 1327              		.loc 1 246 40 view .LVU384
 1328 034e 2278     		ldrb	r2, [r4]	@ zero_extendqisi2
 246:C:/Users/leopi/Documents/vs/S-Reo/MazeLibrary\dfs.c **** 						mass_stack[n+cnt].y = now_st->pos.y-1;
 1329              		.loc 1 246 27 view .LVU385
 1330 0350 1D4B     		ldr	r3, .L100+4
 1331 0352 03F81120 		strb	r2, [r3, r1, lsl #1]
 247:C:/Users/leopi/Documents/vs/S-Reo/MazeLibrary\dfs.c **** 					}
 1332              		.loc 1 247 7 is_stmt 1 view .LVU386
 247:C:/Users/leopi/Documents/vs/S-Reo/MazeLibrary\dfs.c **** 					}
 1333              		.loc 1 247 40 is_stmt 0 view .LVU387
 1334 0356 6278     		ldrb	r2, [r4, #1]	@ zero_extendqisi2
 247:C:/Users/leopi/Documents/vs/S-Reo/MazeLibrary\dfs.c **** 					}
 1335              		.loc 1 247 42 view .LVU388
 1336 0358 013A     		subs	r2, r2, #1
 247:C:/Users/leopi/Documents/vs/S-Reo/MazeLibrary\dfs.c **** 					}
 1337              		.loc 1 247 27 view .LVU389
 1338 035a 03EB4103 		add	r3, r3, r1, lsl #1
 1339 035e 5A70     		strb	r2, [r3, #1]
 1340              	.L79:
 253:C:/Users/leopi/Documents/vs/S-Reo/MazeLibrary\dfs.c **** 			if( maze->ColumnNode[nd_x-1][nd_y].existence == NOWALL ){ //行ける
 1341              		.loc 1 253 3 is_stmt 1 view .LVU390
 253:C:/Users/leopi/Documents/vs/S-Reo/MazeLibrary\dfs.c **** 			if( maze->ColumnNode[nd_x-1][nd_y].existence == NOWALL ){ //行ける
 1342              		.loc 1 253 5 is_stmt 0 view .LVU391
 1343 0360 002D     		cmp	r5, #0
 1344 0362 3FF4CCAE 		beq	.L73
 254:C:/Users/leopi/Documents/vs/S-Reo/MazeLibrary\dfs.c **** 				if( 1 <= x){
 1345              		.loc 1 254 4 is_stmt 1 view .LVU392
 254:C:/Users/leopi/Documents/vs/S-Reo/MazeLibrary\dfs.c **** 				if( 1 <= x){
 1346              		.loc 1 254 29 is_stmt 0 view .LVU393
 1347 0366 013D     		subs	r5, r5, #1
 1348              	.LVL85:
 254:C:/Users/leopi/Documents/vs/S-Reo/MazeLibrary\dfs.c **** 				if( 1 <= x){
 1349              		.loc 1 254 38 view .LVU394
 1350 0368 08EB0515 		add	r5, r8, r5, lsl #4
 1351              	.LVL86:
 254:C:/Users/leopi/Documents/vs/S-Reo/MazeLibrary\dfs.c **** 				if( 1 <= x){
 1352              		.loc 1 254 38 view .LVU395
 1353 036c 05F58875 		add	r5, r5, #272
 1354 0370 17F83530 		ldrb	r3, [r7, r5, lsl #3]	@ zero_extendqisi2
 254:C:/Users/leopi/Documents/vs/S-Reo/MazeLibrary\dfs.c **** 				if( 1 <= x){
 1355              		.loc 1 254 6 view .LVU396
 1356 0374 002B     		cmp	r3, #0
 1357 0376 7FF4C2AE 		bne	.L73
 255:C:/Users/leopi/Documents/vs/S-Reo/MazeLibrary\dfs.c **** 					if( Visit[x-1][y] == false ){ //未訪問
 1358              		.loc 1 255 5 is_stmt 1 view .LVU397
 255:C:/Users/leopi/Documents/vs/S-Reo/MazeLibrary\dfs.c **** 					if( Visit[x-1][y] == false ){ //未訪問
 1359              		.loc 1 255 7 is_stmt 0 view .LVU398
ARM GAS  C:\Users\leopi\AppData\Local\Temp\cczqc55t.s 			page 33


 1360 037a B9F1000F 		cmp	r9, #0
 1361 037e 3FF4BEAE 		beq	.L73
 256:C:/Users/leopi/Documents/vs/S-Reo/MazeLibrary\dfs.c **** 						++cnt;
 1362              		.loc 1 256 6 is_stmt 1 view .LVU399
 256:C:/Users/leopi/Documents/vs/S-Reo/MazeLibrary\dfs.c **** 						++cnt;
 1363              		.loc 1 256 17 is_stmt 0 view .LVU400
 1364 0382 09F1FF39 		add	r9, r9, #-1
 1365              	.LVL87:
 256:C:/Users/leopi/Documents/vs/S-Reo/MazeLibrary\dfs.c **** 						++cnt;
 1366              		.loc 1 256 20 view .LVU401
 1367 0386 0F4B     		ldr	r3, .L100
 1368 0388 03EB0919 		add	r9, r3, r9, lsl #4
 1369              	.LVL88:
 256:C:/Users/leopi/Documents/vs/S-Reo/MazeLibrary\dfs.c **** 						++cnt;
 1370              		.loc 1 256 20 view .LVU402
 1371 038c 19F80A30 		ldrb	r3, [r9, r10]	@ zero_extendqisi2
 256:C:/Users/leopi/Documents/vs/S-Reo/MazeLibrary\dfs.c **** 						++cnt;
 1372              		.loc 1 256 8 view .LVU403
 1373 0390 002B     		cmp	r3, #0
 1374 0392 7FF4B4AE 		bne	.L73
 257:C:/Users/leopi/Documents/vs/S-Reo/MazeLibrary\dfs.c **** 						mass_stack[n+cnt].x = now_st->pos.x-1;
 1375              		.loc 1 257 7 is_stmt 1 view .LVU404
 1376 0396 0136     		adds	r6, r6, #1
 1377              	.LVL89:
 258:C:/Users/leopi/Documents/vs/S-Reo/MazeLibrary\dfs.c **** 						mass_stack[n+cnt].y = now_st->pos.y;
 1378              		.loc 1 258 7 view .LVU405
 258:C:/Users/leopi/Documents/vs/S-Reo/MazeLibrary\dfs.c **** 						mass_stack[n+cnt].y = now_st->pos.y;
 1379              		.loc 1 258 40 is_stmt 0 view .LVU406
 1380 0398 2278     		ldrb	r2, [r4]	@ zero_extendqisi2
 258:C:/Users/leopi/Documents/vs/S-Reo/MazeLibrary\dfs.c **** 						mass_stack[n+cnt].y = now_st->pos.y;
 1381              		.loc 1 258 19 view .LVU407
 1382 039a 8119     		adds	r1, r0, r6
 258:C:/Users/leopi/Documents/vs/S-Reo/MazeLibrary\dfs.c **** 						mass_stack[n+cnt].y = now_st->pos.y;
 1383              		.loc 1 258 42 view .LVU408
 1384 039c 013A     		subs	r2, r2, #1
 258:C:/Users/leopi/Documents/vs/S-Reo/MazeLibrary\dfs.c **** 						mass_stack[n+cnt].y = now_st->pos.y;
 1385              		.loc 1 258 27 view .LVU409
 1386 039e 0A4B     		ldr	r3, .L100+4
 1387 03a0 03F81120 		strb	r2, [r3, r1, lsl #1]
 259:C:/Users/leopi/Documents/vs/S-Reo/MazeLibrary\dfs.c **** 					}
 1388              		.loc 1 259 7 is_stmt 1 view .LVU410
 259:C:/Users/leopi/Documents/vs/S-Reo/MazeLibrary\dfs.c **** 					}
 1389              		.loc 1 259 40 is_stmt 0 view .LVU411
 1390 03a4 6278     		ldrb	r2, [r4, #1]	@ zero_extendqisi2
 259:C:/Users/leopi/Documents/vs/S-Reo/MazeLibrary\dfs.c **** 					}
 1391              		.loc 1 259 27 view .LVU412
 1392 03a6 03EB4103 		add	r3, r3, r1, lsl #1
 1393 03aa 5A70     		strb	r2, [r3, #1]
 1394 03ac A7E6     		b	.L73
 1395              	.LVL90:
 1396              	.L93:
 105:C:/Users/leopi/Documents/vs/S-Reo/MazeLibrary\dfs.c **** 	//スタックの流れ
 1397              		.loc 1 105 6 view .LVU413
 1398 03ae 0026     		movs	r6, #0
 1399              	.LVL91:
 105:C:/Users/leopi/Documents/vs/S-Reo/MazeLibrary\dfs.c **** 	//スタックの流れ
 1400              		.loc 1 105 6 view .LVU414
ARM GAS  C:\Users\leopi\AppData\Local\Temp\cczqc55t.s 			page 34


 1401 03b0 B9E7     		b	.L78
 1402              	.LVL92:
 1403              	.L94:
 105:C:/Users/leopi/Documents/vs/S-Reo/MazeLibrary\dfs.c **** 	//スタックの流れ
 1404              		.loc 1 105 6 view .LVU415
 1405 03b2 0026     		movs	r6, #0
 1406              	.LVL93:
 105:C:/Users/leopi/Documents/vs/S-Reo/MazeLibrary\dfs.c **** 	//スタックの流れ
 1407              		.loc 1 105 6 view .LVU416
 1408 03b4 B7E7     		b	.L78
 1409              	.LVL94:
 1410              	.L95:
 105:C:/Users/leopi/Documents/vs/S-Reo/MazeLibrary\dfs.c **** 	//スタックの流れ
 1411              		.loc 1 105 6 view .LVU417
 1412 03b6 0026     		movs	r6, #0
 1413              	.LVL95:
 105:C:/Users/leopi/Documents/vs/S-Reo/MazeLibrary\dfs.c **** 	//スタックの流れ
 1414              		.loc 1 105 6 view .LVU418
 1415 03b8 B5E7     		b	.L78
 1416              	.LVL96:
 1417              	.L96:
 105:C:/Users/leopi/Documents/vs/S-Reo/MazeLibrary\dfs.c **** 	//スタックの流れ
 1418              		.loc 1 105 6 view .LVU419
 1419 03ba 0026     		movs	r6, #0
 1420              	.LVL97:
 105:C:/Users/leopi/Documents/vs/S-Reo/MazeLibrary\dfs.c **** 	//スタックの流れ
 1421              		.loc 1 105 6 view .LVU420
 1422 03bc B3E7     		b	.L78
 1423              	.LVL98:
 1424              	.L80:
 111:C:/Users/leopi/Documents/vs/S-Reo/MazeLibrary\dfs.c **** 	case north:
 1425              		.loc 1 111 2 view .LVU421
 1426 03be 0020     		movs	r0, #0
 1427              	.LVL99:
 111:C:/Users/leopi/Documents/vs/S-Reo/MazeLibrary\dfs.c **** 	case north:
 1428              		.loc 1 111 2 view .LVU422
 1429 03c0 A3E6     		b	.L65
 1430              	.L101:
 1431 03c2 00BF     		.align	2
 1432              	.L100:
 1433 03c4 00000000 		.word	.LANCHOR4
 1434 03c8 00000000 		.word	.LANCHOR3
 1435              		.cfi_endproc
 1436              	.LFE19:
 1438              		.global	Visit
 1439              		.global	mass_stack
 1440              		.section	.bss.DFS_Flag,"aw",%nobits
 1441              		.set	.LANCHOR0,. + 0
 1444              	DFS_Flag:
 1445 0000 00       		.space	1
 1446              		.section	.bss.Stack_Flag,"aw",%nobits
 1447              		.set	.LANCHOR1,. + 0
 1450              	Stack_Flag:
 1451 0000 00       		.space	1
 1452              		.section	.bss.Stack_Num,"aw",%nobits
 1453              		.align	2
 1454              		.set	.LANCHOR2,. + 0
ARM GAS  C:\Users\leopi\AppData\Local\Temp\cczqc55t.s 			page 35


 1457              	Stack_Num:
 1458 0000 00000000 		.space	4
 1459              		.section	.bss.Visit,"aw",%nobits
 1460              		.align	2
 1461              		.set	.LANCHOR4,. + 0
 1464              	Visit:
 1465 0000 00000000 		.space	256
 1465      00000000 
 1465      00000000 
 1465      00000000 
 1465      00000000 
 1466              		.section	.bss.mass_stack,"aw",%nobits
 1467              		.align	2
 1468              		.set	.LANCHOR3,. + 0
 1471              	mass_stack:
 1472 0000 00000000 		.space	648
 1472      00000000 
 1472      00000000 
 1472      00000000 
 1472      00000000 
 1473              		.text
 1474              	.Letext0:
 1475              		.file 2 "c:\\tools\\gcc-arm-none-eabi-10_2021.10\\lib\\gcc\\arm-none-eabi\\10.3.1\\include\\stdint
 1476              		.file 3 "C:/Users/leopi/Documents/vs/S-Reo/MazeLibrary/MazeLib.h"
 1477              		.file 4 "C:/Users/leopi/Documents/vs/S-Reo/MazeLibrary/Searching.h"
 1478              		.file 5 "C:/Users/leopi/Documents/vs/S-Reo/MazeLibrary/dfs.h"
 1479              		.file 6 "c:\\tools\\gcc-arm-none-eabi-10_2021.10\\arm-none-eabi\\include\\stdio.h"
 1480              		.file 7 "<built-in>"
ARM GAS  C:\Users\leopi\AppData\Local\Temp\cczqc55t.s 			page 36


DEFINED SYMBOLS
                            *ABS*:00000000 dfs.c
C:\Users\leopi\AppData\Local\Temp\cczqc55t.s:20     .text.HighDFSFlag:00000000 $t
C:\Users\leopi\AppData\Local\Temp\cczqc55t.s:26     .text.HighDFSFlag:00000000 HighDFSFlag
C:\Users\leopi\AppData\Local\Temp\cczqc55t.s:44     .text.HighDFSFlag:00000008 $d
C:\Users\leopi\AppData\Local\Temp\cczqc55t.s:49     .text.LowDFSFlag:00000000 $t
C:\Users\leopi\AppData\Local\Temp\cczqc55t.s:55     .text.LowDFSFlag:00000000 LowDFSFlag
C:\Users\leopi\AppData\Local\Temp\cczqc55t.s:72     .text.LowDFSFlag:00000008 $d
C:\Users\leopi\AppData\Local\Temp\cczqc55t.s:77     .text.GetDFSFlag:00000000 $t
C:\Users\leopi\AppData\Local\Temp\cczqc55t.s:83     .text.GetDFSFlag:00000000 GetDFSFlag
C:\Users\leopi\AppData\Local\Temp\cczqc55t.s:98     .text.GetDFSFlag:00000008 $d
C:\Users\leopi\AppData\Local\Temp\cczqc55t.s:103    .text.HighStackFlag:00000000 $t
C:\Users\leopi\AppData\Local\Temp\cczqc55t.s:109    .text.HighStackFlag:00000000 HighStackFlag
C:\Users\leopi\AppData\Local\Temp\cczqc55t.s:126    .text.HighStackFlag:00000008 $d
C:\Users\leopi\AppData\Local\Temp\cczqc55t.s:131    .text.LowStackFlag:00000000 $t
C:\Users\leopi\AppData\Local\Temp\cczqc55t.s:137    .text.LowStackFlag:00000000 LowStackFlag
C:\Users\leopi\AppData\Local\Temp\cczqc55t.s:154    .text.LowStackFlag:00000008 $d
C:\Users\leopi\AppData\Local\Temp\cczqc55t.s:159    .text.GetStackFlag:00000000 $t
C:\Users\leopi\AppData\Local\Temp\cczqc55t.s:165    .text.GetStackFlag:00000000 GetStackFlag
C:\Users\leopi\AppData\Local\Temp\cczqc55t.s:180    .text.GetStackFlag:00000008 $d
C:\Users\leopi\AppData\Local\Temp\cczqc55t.s:185    .text.InitStackNum:00000000 $t
C:\Users\leopi\AppData\Local\Temp\cczqc55t.s:191    .text.InitStackNum:00000000 InitStackNum
C:\Users\leopi\AppData\Local\Temp\cczqc55t.s:208    .text.InitStackNum:00000008 $d
C:\Users\leopi\AppData\Local\Temp\cczqc55t.s:213    .text.SetStackNum:00000000 $t
C:\Users\leopi\AppData\Local\Temp\cczqc55t.s:219    .text.SetStackNum:00000000 SetStackNum
C:\Users\leopi\AppData\Local\Temp\cczqc55t.s:236    .text.SetStackNum:00000008 $d
C:\Users\leopi\AppData\Local\Temp\cczqc55t.s:241    .text.GetStackNum:00000000 $t
C:\Users\leopi\AppData\Local\Temp\cczqc55t.s:247    .text.GetStackNum:00000000 GetStackNum
C:\Users\leopi\AppData\Local\Temp\cczqc55t.s:262    .text.GetStackNum:00000008 $d
C:\Users\leopi\AppData\Local\Temp\cczqc55t.s:267    .text.GetStackMass:00000000 $t
C:\Users\leopi\AppData\Local\Temp\cczqc55t.s:273    .text.GetStackMass:00000000 GetStackMass
C:\Users\leopi\AppData\Local\Temp\cczqc55t.s:304    .text.GetStackMass:00000028 $d
C:\Users\leopi\AppData\Local\Temp\cczqc55t.s:310    .text.ComparePosition:00000000 $t
C:\Users\leopi\AppData\Local\Temp\cczqc55t.s:316    .text.ComparePosition:00000000 ComparePosition
C:\Users\leopi\AppData\Local\Temp\cczqc55t.s:361    .text.InitVisit:00000000 $t
C:\Users\leopi\AppData\Local\Temp\cczqc55t.s:367    .text.InitVisit:00000000 InitVisit
C:\Users\leopi\AppData\Local\Temp\cczqc55t.s:427    .text.InitVisit:00000028 $d
C:\Users\leopi\AppData\Local\Temp\cczqc55t.s:432    .rodata.printVisited.str1.4:00000000 $d
C:\Users\leopi\AppData\Local\Temp\cczqc55t.s:439    .text.printVisited:00000000 $t
C:\Users\leopi\AppData\Local\Temp\cczqc55t.s:445    .text.printVisited:00000000 printVisited
C:\Users\leopi\AppData\Local\Temp\cczqc55t.s:515    .text.printVisited:0000002c $d
C:\Users\leopi\AppData\Local\Temp\cczqc55t.s:522    .text.VisitedMass:00000000 $t
C:\Users\leopi\AppData\Local\Temp\cczqc55t.s:528    .text.VisitedMass:00000000 VisitedMass
C:\Users\leopi\AppData\Local\Temp\cczqc55t.s:558    .text.VisitedMass:0000001c $d
C:\Users\leopi\AppData\Local\Temp\cczqc55t.s:563    .text.GetVisited:00000000 $t
C:\Users\leopi\AppData\Local\Temp\cczqc55t.s:569    .text.GetVisited:00000000 GetVisited
C:\Users\leopi\AppData\Local\Temp\cczqc55t.s:593    .text.GetVisited:00000010 $d
C:\Users\leopi\AppData\Local\Temp\cczqc55t.s:598    .text.InitMassStack:00000000 $t
C:\Users\leopi\AppData\Local\Temp\cczqc55t.s:604    .text.InitMassStack:00000000 InitMassStack
C:\Users\leopi\AppData\Local\Temp\cczqc55t.s:624    .text.InitMassStack:0000000c $d
C:\Users\leopi\AppData\Local\Temp\cczqc55t.s:629    .text.StackMass:00000000 $t
C:\Users\leopi\AppData\Local\Temp\cczqc55t.s:635    .text.StackMass:00000000 StackMass
C:\Users\leopi\AppData\Local\Temp\cczqc55t.s:689    .text.StackMass:0000002c $d
C:\Users\leopi\AppData\Local\Temp\cczqc55t.s:696    .text.StackMass:0000003a $t
C:\Users\leopi\AppData\Local\Temp\cczqc55t.s:1288   .text.StackMass:0000031c $d
C:\Users\leopi\AppData\Local\Temp\cczqc55t.s:1293   .text.StackMass:00000324 $t
C:\Users\leopi\AppData\Local\Temp\cczqc55t.s:1433   .text.StackMass:000003c4 $d
ARM GAS  C:\Users\leopi\AppData\Local\Temp\cczqc55t.s 			page 37


C:\Users\leopi\AppData\Local\Temp\cczqc55t.s:1464   .bss.Visit:00000000 Visit
C:\Users\leopi\AppData\Local\Temp\cczqc55t.s:1471   .bss.mass_stack:00000000 mass_stack
C:\Users\leopi\AppData\Local\Temp\cczqc55t.s:1444   .bss.DFS_Flag:00000000 DFS_Flag
C:\Users\leopi\AppData\Local\Temp\cczqc55t.s:1445   .bss.DFS_Flag:00000000 $d
C:\Users\leopi\AppData\Local\Temp\cczqc55t.s:1450   .bss.Stack_Flag:00000000 Stack_Flag
C:\Users\leopi\AppData\Local\Temp\cczqc55t.s:1451   .bss.Stack_Flag:00000000 $d
C:\Users\leopi\AppData\Local\Temp\cczqc55t.s:1453   .bss.Stack_Num:00000000 $d
C:\Users\leopi\AppData\Local\Temp\cczqc55t.s:1457   .bss.Stack_Num:00000000 Stack_Num
C:\Users\leopi\AppData\Local\Temp\cczqc55t.s:1460   .bss.Visit:00000000 $d
C:\Users\leopi\AppData\Local\Temp\cczqc55t.s:1467   .bss.mass_stack:00000000 $d

UNDEFINED SYMBOLS
printf
puts
