ARM GAS  C:\Users\leopi\AppData\Local\Temp\ccx6VW8D.s 			page 1


   1              		.cpu cortex-m4
   2              		.arch armv7e-m
   3              		.fpu fpv4-sp-d16
   4              		.eabi_attribute 27, 1
   5              		.eabi_attribute 28, 1
   6              		.eabi_attribute 20, 1
   7              		.eabi_attribute 21, 1
   8              		.eabi_attribute 23, 3
   9              		.eabi_attribute 24, 1
  10              		.eabi_attribute 25, 1
  11              		.eabi_attribute 26, 1
  12              		.eabi_attribute 30, 1
  13              		.eabi_attribute 34, 1
  14              		.eabi_attribute 18, 4
  15              		.file	"dfs.c"
  16              		.text
  17              	.Ltext0:
  18              		.cfi_sections	.debug_frame
  19              		.section	.text.HighDFSFlag,"ax",%progbits
  20              		.align	1
  21              		.global	HighDFSFlag
  22              		.syntax unified
  23              		.thumb
  24              		.thumb_func
  26              	HighDFSFlag:
  27              	.LFB3:
  28              		.file 1 "C:/Users/leopi/Documents/vs/S-Reo/MazeLibrary/dfs.c"
   1:C:/Users/leopi/Documents/vs/S-Reo/MazeLibrary\dfs.c **** /*
   2:C:/Users/leopi/Documents/vs/S-Reo/MazeLibrary\dfs.c ****  * dfs.c
   3:C:/Users/leopi/Documents/vs/S-Reo/MazeLibrary\dfs.c ****  *
   4:C:/Users/leopi/Documents/vs/S-Reo/MazeLibrary\dfs.c ****  *  Created on: 2022/11/06
   5:C:/Users/leopi/Documents/vs/S-Reo/MazeLibrary\dfs.c ****  *      Author: leopi
   6:C:/Users/leopi/Documents/vs/S-Reo/MazeLibrary\dfs.c ****  */
   7:C:/Users/leopi/Documents/vs/S-Reo/MazeLibrary\dfs.c **** 
   8:C:/Users/leopi/Documents/vs/S-Reo/MazeLibrary\dfs.c **** 
   9:C:/Users/leopi/Documents/vs/S-Reo/MazeLibrary\dfs.c **** /*Depth First Search*/
  10:C:/Users/leopi/Documents/vs/S-Reo/MazeLibrary\dfs.c **** 
  11:C:/Users/leopi/Documents/vs/S-Reo/MazeLibrary\dfs.c **** #include "dfs.h"
  12:C:/Users/leopi/Documents/vs/S-Reo/MazeLibrary\dfs.c **** #include "stdbool.h"
  13:C:/Users/leopi/Documents/vs/S-Reo/MazeLibrary\dfs.c **** // DFS深さ優先探索は、行き止まり、既存のマス、につくまで周囲のマスを
  14:C:/Users/leopi/Documents/vs/S-Reo/MazeLibrary\dfs.c **** // スタックを積む、取り出す機能の提供
  15:C:/Users/leopi/Documents/vs/S-Reo/MazeLibrary\dfs.c **** // 積むときは、周囲のノードを順番に。重複を避けて積むか、取り出しで
  16:C:/Users/leopi/Documents/vs/S-Reo/MazeLibrary\dfs.c **** 
  17:C:/Users/leopi/Documents/vs/S-Reo/MazeLibrary\dfs.c **** //node *nd_stack[STACK_NUM]={0};
  18:C:/Users/leopi/Documents/vs/S-Reo/MazeLibrary\dfs.c **** position mass_stack[STACK_NUM]={0}; //ここがあふれるとバグる
  19:C:/Users/leopi/Documents/vs/S-Reo/MazeLibrary\dfs.c **** static int Stack_Num;
  20:C:/Users/leopi/Documents/vs/S-Reo/MazeLibrary\dfs.c **** _Bool Visit[NUMBER_OF_SQUARES_X][NUMBER_OF_SQUARES_Y];
  21:C:/Users/leopi/Documents/vs/S-Reo/MazeLibrary\dfs.c **** static _Bool DFS_Flag;
  22:C:/Users/leopi/Documents/vs/S-Reo/MazeLibrary\dfs.c **** static _Bool Stack_Flag;
  23:C:/Users/leopi/Documents/vs/S-Reo/MazeLibrary\dfs.c **** void HighDFSFlag(){
  29              		.loc 1 23 19 view -0
  30              		.cfi_startproc
  31              		@ args = 0, pretend = 0, frame = 0
  32              		@ frame_needed = 0, uses_anonymous_args = 0
  33              		@ link register save eliminated.
  24:C:/Users/leopi/Documents/vs/S-Reo/MazeLibrary\dfs.c **** 	DFS_Flag = true;
  34              		.loc 1 24 2 view .LVU1
ARM GAS  C:\Users\leopi\AppData\Local\Temp\ccx6VW8D.s 			page 2


  35              		.loc 1 24 11 is_stmt 0 view .LVU2
  36 0000 014B     		ldr	r3, .L2
  37 0002 0122     		movs	r2, #1
  38 0004 1A70     		strb	r2, [r3]
  25:C:/Users/leopi/Documents/vs/S-Reo/MazeLibrary\dfs.c **** }
  39              		.loc 1 25 1 view .LVU3
  40 0006 7047     		bx	lr
  41              	.L3:
  42              		.align	2
  43              	.L2:
  44 0008 00000000 		.word	.LANCHOR0
  45              		.cfi_endproc
  46              	.LFE3:
  48              		.section	.text.LowDFSFlag,"ax",%progbits
  49              		.align	1
  50              		.global	LowDFSFlag
  51              		.syntax unified
  52              		.thumb
  53              		.thumb_func
  55              	LowDFSFlag:
  56              	.LFB4:
  26:C:/Users/leopi/Documents/vs/S-Reo/MazeLibrary\dfs.c **** void LowDFSFlag(){
  57              		.loc 1 26 18 is_stmt 1 view -0
  58              		.cfi_startproc
  59              		@ args = 0, pretend = 0, frame = 0
  60              		@ frame_needed = 0, uses_anonymous_args = 0
  61              		@ link register save eliminated.
  27:C:/Users/leopi/Documents/vs/S-Reo/MazeLibrary\dfs.c **** 	DFS_Flag = false;
  62              		.loc 1 27 2 view .LVU5
  63              		.loc 1 27 11 is_stmt 0 view .LVU6
  64 0000 014B     		ldr	r3, .L5
  65 0002 0022     		movs	r2, #0
  66 0004 1A70     		strb	r2, [r3]
  28:C:/Users/leopi/Documents/vs/S-Reo/MazeLibrary\dfs.c **** }
  67              		.loc 1 28 1 view .LVU7
  68 0006 7047     		bx	lr
  69              	.L6:
  70              		.align	2
  71              	.L5:
  72 0008 00000000 		.word	.LANCHOR0
  73              		.cfi_endproc
  74              	.LFE4:
  76              		.section	.text.GetDFSFlag,"ax",%progbits
  77              		.align	1
  78              		.global	GetDFSFlag
  79              		.syntax unified
  80              		.thumb
  81              		.thumb_func
  83              	GetDFSFlag:
  84              	.LFB5:
  29:C:/Users/leopi/Documents/vs/S-Reo/MazeLibrary\dfs.c **** _Bool GetDFSFlag(){
  85              		.loc 1 29 19 is_stmt 1 view -0
  86              		.cfi_startproc
  87              		@ args = 0, pretend = 0, frame = 0
  88              		@ frame_needed = 0, uses_anonymous_args = 0
  89              		@ link register save eliminated.
  30:C:/Users/leopi/Documents/vs/S-Reo/MazeLibrary\dfs.c **** 	return DFS_Flag;
ARM GAS  C:\Users\leopi\AppData\Local\Temp\ccx6VW8D.s 			page 3


  90              		.loc 1 30 2 view .LVU9
  31:C:/Users/leopi/Documents/vs/S-Reo/MazeLibrary\dfs.c **** }
  91              		.loc 1 31 1 is_stmt 0 view .LVU10
  92 0000 014B     		ldr	r3, .L8
  93 0002 1878     		ldrb	r0, [r3]	@ zero_extendqisi2
  94 0004 7047     		bx	lr
  95              	.L9:
  96 0006 00BF     		.align	2
  97              	.L8:
  98 0008 00000000 		.word	.LANCHOR0
  99              		.cfi_endproc
 100              	.LFE5:
 102              		.section	.text.HighStackFlag,"ax",%progbits
 103              		.align	1
 104              		.global	HighStackFlag
 105              		.syntax unified
 106              		.thumb
 107              		.thumb_func
 109              	HighStackFlag:
 110              	.LFB6:
  32:C:/Users/leopi/Documents/vs/S-Reo/MazeLibrary\dfs.c **** 
  33:C:/Users/leopi/Documents/vs/S-Reo/MazeLibrary\dfs.c **** void HighStackFlag(){
 111              		.loc 1 33 21 is_stmt 1 view -0
 112              		.cfi_startproc
 113              		@ args = 0, pretend = 0, frame = 0
 114              		@ frame_needed = 0, uses_anonymous_args = 0
 115              		@ link register save eliminated.
  34:C:/Users/leopi/Documents/vs/S-Reo/MazeLibrary\dfs.c **** 	Stack_Flag = true;
 116              		.loc 1 34 2 view .LVU12
 117              		.loc 1 34 13 is_stmt 0 view .LVU13
 118 0000 014B     		ldr	r3, .L11
 119 0002 0122     		movs	r2, #1
 120 0004 1A70     		strb	r2, [r3]
  35:C:/Users/leopi/Documents/vs/S-Reo/MazeLibrary\dfs.c **** }
 121              		.loc 1 35 1 view .LVU14
 122 0006 7047     		bx	lr
 123              	.L12:
 124              		.align	2
 125              	.L11:
 126 0008 00000000 		.word	.LANCHOR1
 127              		.cfi_endproc
 128              	.LFE6:
 130              		.section	.text.LowStackFlag,"ax",%progbits
 131              		.align	1
 132              		.global	LowStackFlag
 133              		.syntax unified
 134              		.thumb
 135              		.thumb_func
 137              	LowStackFlag:
 138              	.LFB7:
  36:C:/Users/leopi/Documents/vs/S-Reo/MazeLibrary\dfs.c **** void LowStackFlag(){
 139              		.loc 1 36 20 is_stmt 1 view -0
 140              		.cfi_startproc
 141              		@ args = 0, pretend = 0, frame = 0
 142              		@ frame_needed = 0, uses_anonymous_args = 0
 143              		@ link register save eliminated.
  37:C:/Users/leopi/Documents/vs/S-Reo/MazeLibrary\dfs.c **** 	Stack_Flag = false;
ARM GAS  C:\Users\leopi\AppData\Local\Temp\ccx6VW8D.s 			page 4


 144              		.loc 1 37 2 view .LVU16
 145              		.loc 1 37 13 is_stmt 0 view .LVU17
 146 0000 014B     		ldr	r3, .L14
 147 0002 0022     		movs	r2, #0
 148 0004 1A70     		strb	r2, [r3]
  38:C:/Users/leopi/Documents/vs/S-Reo/MazeLibrary\dfs.c **** }
 149              		.loc 1 38 1 view .LVU18
 150 0006 7047     		bx	lr
 151              	.L15:
 152              		.align	2
 153              	.L14:
 154 0008 00000000 		.word	.LANCHOR1
 155              		.cfi_endproc
 156              	.LFE7:
 158              		.section	.text.GetStackFlag,"ax",%progbits
 159              		.align	1
 160              		.global	GetStackFlag
 161              		.syntax unified
 162              		.thumb
 163              		.thumb_func
 165              	GetStackFlag:
 166              	.LFB8:
  39:C:/Users/leopi/Documents/vs/S-Reo/MazeLibrary\dfs.c **** _Bool GetStackFlag(){
 167              		.loc 1 39 21 is_stmt 1 view -0
 168              		.cfi_startproc
 169              		@ args = 0, pretend = 0, frame = 0
 170              		@ frame_needed = 0, uses_anonymous_args = 0
 171              		@ link register save eliminated.
  40:C:/Users/leopi/Documents/vs/S-Reo/MazeLibrary\dfs.c **** 	return Stack_Flag;
 172              		.loc 1 40 2 view .LVU20
  41:C:/Users/leopi/Documents/vs/S-Reo/MazeLibrary\dfs.c **** }
 173              		.loc 1 41 1 is_stmt 0 view .LVU21
 174 0000 014B     		ldr	r3, .L17
 175 0002 1878     		ldrb	r0, [r3]	@ zero_extendqisi2
 176 0004 7047     		bx	lr
 177              	.L18:
 178 0006 00BF     		.align	2
 179              	.L17:
 180 0008 00000000 		.word	.LANCHOR1
 181              		.cfi_endproc
 182              	.LFE8:
 184              		.section	.text.InitStackNum,"ax",%progbits
 185              		.align	1
 186              		.global	InitStackNum
 187              		.syntax unified
 188              		.thumb
 189              		.thumb_func
 191              	InitStackNum:
 192              	.LFB9:
  42:C:/Users/leopi/Documents/vs/S-Reo/MazeLibrary\dfs.c **** 
  43:C:/Users/leopi/Documents/vs/S-Reo/MazeLibrary\dfs.c **** void InitStackNum(){
 193              		.loc 1 43 20 is_stmt 1 view -0
 194              		.cfi_startproc
 195              		@ args = 0, pretend = 0, frame = 0
 196              		@ frame_needed = 0, uses_anonymous_args = 0
 197              		@ link register save eliminated.
  44:C:/Users/leopi/Documents/vs/S-Reo/MazeLibrary\dfs.c **** 	Stack_Num = 0;
ARM GAS  C:\Users\leopi\AppData\Local\Temp\ccx6VW8D.s 			page 5


 198              		.loc 1 44 2 view .LVU23
 199              		.loc 1 44 12 is_stmt 0 view .LVU24
 200 0000 014B     		ldr	r3, .L20
 201 0002 0022     		movs	r2, #0
 202 0004 1A60     		str	r2, [r3]
  45:C:/Users/leopi/Documents/vs/S-Reo/MazeLibrary\dfs.c **** }
 203              		.loc 1 45 1 view .LVU25
 204 0006 7047     		bx	lr
 205              	.L21:
 206              		.align	2
 207              	.L20:
 208 0008 00000000 		.word	.LANCHOR2
 209              		.cfi_endproc
 210              	.LFE9:
 212              		.section	.text.SetStackNum,"ax",%progbits
 213              		.align	1
 214              		.global	SetStackNum
 215              		.syntax unified
 216              		.thumb
 217              		.thumb_func
 219              	SetStackNum:
 220              	.LVL0:
 221              	.LFB10:
  46:C:/Users/leopi/Documents/vs/S-Reo/MazeLibrary\dfs.c **** void SetStackNum(int n){
 222              		.loc 1 46 24 is_stmt 1 view -0
 223              		.cfi_startproc
 224              		@ args = 0, pretend = 0, frame = 0
 225              		@ frame_needed = 0, uses_anonymous_args = 0
 226              		@ link register save eliminated.
  47:C:/Users/leopi/Documents/vs/S-Reo/MazeLibrary\dfs.c **** 	Stack_Num = n;
 227              		.loc 1 47 2 view .LVU27
 228              		.loc 1 47 12 is_stmt 0 view .LVU28
 229 0000 014B     		ldr	r3, .L23
 230 0002 1860     		str	r0, [r3]
  48:C:/Users/leopi/Documents/vs/S-Reo/MazeLibrary\dfs.c **** }
 231              		.loc 1 48 1 view .LVU29
 232 0004 7047     		bx	lr
 233              	.L24:
 234 0006 00BF     		.align	2
 235              	.L23:
 236 0008 00000000 		.word	.LANCHOR2
 237              		.cfi_endproc
 238              	.LFE10:
 240              		.section	.text.GetStackNum,"ax",%progbits
 241              		.align	1
 242              		.global	GetStackNum
 243              		.syntax unified
 244              		.thumb
 245              		.thumb_func
 247              	GetStackNum:
 248              	.LFB11:
  49:C:/Users/leopi/Documents/vs/S-Reo/MazeLibrary\dfs.c **** int GetStackNum(){
 249              		.loc 1 49 18 is_stmt 1 view -0
 250              		.cfi_startproc
 251              		@ args = 0, pretend = 0, frame = 0
 252              		@ frame_needed = 0, uses_anonymous_args = 0
 253              		@ link register save eliminated.
ARM GAS  C:\Users\leopi\AppData\Local\Temp\ccx6VW8D.s 			page 6


  50:C:/Users/leopi/Documents/vs/S-Reo/MazeLibrary\dfs.c **** 	return Stack_Num;
 254              		.loc 1 50 2 view .LVU31
  51:C:/Users/leopi/Documents/vs/S-Reo/MazeLibrary\dfs.c **** }
 255              		.loc 1 51 1 is_stmt 0 view .LVU32
 256 0000 014B     		ldr	r3, .L26
 257 0002 1868     		ldr	r0, [r3]
 258 0004 7047     		bx	lr
 259              	.L27:
 260 0006 00BF     		.align	2
 261              	.L26:
 262 0008 00000000 		.word	.LANCHOR2
 263              		.cfi_endproc
 264              	.LFE11:
 266              		.section	.text.GetStackMass,"ax",%progbits
 267              		.align	1
 268              		.global	GetStackMass
 269              		.syntax unified
 270              		.thumb
 271              		.thumb_func
 273              	GetStackMass:
 274              	.LFB12:
  52:C:/Users/leopi/Documents/vs/S-Reo/MazeLibrary\dfs.c **** 
  53:C:/Users/leopi/Documents/vs/S-Reo/MazeLibrary\dfs.c **** position GetStackMass(){
 275              		.loc 1 53 24 is_stmt 1 view -0
 276              		.cfi_startproc
 277              		@ args = 0, pretend = 0, frame = 8
 278              		@ frame_needed = 0, uses_anonymous_args = 0
 279              		@ link register save eliminated.
 280 0000 82B0     		sub	sp, sp, #8
 281              	.LCFI0:
 282              		.cfi_def_cfa_offset 8
  54:C:/Users/leopi/Documents/vs/S-Reo/MazeLibrary\dfs.c **** 	return mass_stack[Stack_Num];
 283              		.loc 1 54 2 view .LVU34
 284              		.loc 1 54 19 is_stmt 0 view .LVU35
 285 0002 094B     		ldr	r3, .L30
 286 0004 1A68     		ldr	r2, [r3]
 287 0006 094B     		ldr	r3, .L30+4
 288 0008 33F81230 		ldrh	r3, [r3, r2, lsl #1]
 289 000c ADF80430 		strh	r3, [sp, #4]	@ movhi
 290 0010 0020     		movs	r0, #0
 291 0012 9DF80430 		ldrb	r3, [sp, #4]	@ zero_extendqisi2
 292 0016 63F30700 		bfi	r0, r3, #0, #8
 293 001a 9DF80530 		ldrb	r3, [sp, #5]	@ zero_extendqisi2
 294 001e 63F30F20 		bfi	r0, r3, #8, #8
  55:C:/Users/leopi/Documents/vs/S-Reo/MazeLibrary\dfs.c **** }
 295              		.loc 1 55 1 view .LVU36
 296 0022 02B0     		add	sp, sp, #8
 297              	.LCFI1:
 298              		.cfi_def_cfa_offset 0
 299              		@ sp needed
 300 0024 7047     		bx	lr
 301              	.L31:
 302 0026 00BF     		.align	2
 303              	.L30:
 304 0028 00000000 		.word	.LANCHOR2
 305 002c 00000000 		.word	.LANCHOR3
 306              		.cfi_endproc
ARM GAS  C:\Users\leopi\AppData\Local\Temp\ccx6VW8D.s 			page 7


 307              	.LFE12:
 309              		.section	.text.ComparePosition,"ax",%progbits
 310              		.align	1
 311              		.global	ComparePosition
 312              		.syntax unified
 313              		.thumb
 314              		.thumb_func
 316              	ComparePosition:
 317              	.LVL1:
 318              	.LFB13:
  56:C:/Users/leopi/Documents/vs/S-Reo/MazeLibrary\dfs.c **** _Bool ComparePosition(const position *target, const position *now){
 319              		.loc 1 56 67 is_stmt 1 view -0
 320              		.cfi_startproc
 321              		@ args = 0, pretend = 0, frame = 0
 322              		@ frame_needed = 0, uses_anonymous_args = 0
 323              		@ link register save eliminated.
  57:C:/Users/leopi/Documents/vs/S-Reo/MazeLibrary\dfs.c **** 	return (target->x == now->x) && (target->y == now->y);
 324              		.loc 1 57 2 view .LVU38
 325              		.loc 1 57 16 is_stmt 0 view .LVU39
 326 0000 0278     		ldrb	r2, [r0]	@ zero_extendqisi2
 327              		.loc 1 57 26 view .LVU40
 328 0002 0B78     		ldrb	r3, [r1]	@ zero_extendqisi2
 329              		.loc 1 57 31 view .LVU41
 330 0004 9A42     		cmp	r2, r3
 331 0006 01D0     		beq	.L36
 332 0008 0020     		movs	r0, #0
 333              	.LVL2:
 334              		.loc 1 57 31 view .LVU42
 335 000a 7047     		bx	lr
 336              	.LVL3:
 337              	.L36:
 338              		.loc 1 57 41 discriminator 1 view .LVU43
 339 000c 4278     		ldrb	r2, [r0, #1]	@ zero_extendqisi2
 340              		.loc 1 57 51 discriminator 1 view .LVU44
 341 000e 4B78     		ldrb	r3, [r1, #1]	@ zero_extendqisi2
 342              		.loc 1 57 31 discriminator 1 view .LVU45
 343 0010 9A42     		cmp	r2, r3
 344 0012 01D0     		beq	.L35
 345              		.loc 1 57 31 view .LVU46
 346 0014 0020     		movs	r0, #0
 347              	.LVL4:
 348              		.loc 1 57 31 view .LVU47
 349 0016 7047     		bx	lr
 350              	.LVL5:
 351              	.L35:
 352              		.loc 1 57 31 view .LVU48
 353 0018 0120     		movs	r0, #1
 354              	.LVL6:
  58:C:/Users/leopi/Documents/vs/S-Reo/MazeLibrary\dfs.c **** }
 355              		.loc 1 58 1 view .LVU49
 356 001a 7047     		bx	lr
 357              		.cfi_endproc
 358              	.LFE13:
 360              		.section	.text.InitVisit,"ax",%progbits
 361              		.align	1
 362              		.global	InitVisit
 363              		.syntax unified
ARM GAS  C:\Users\leopi\AppData\Local\Temp\ccx6VW8D.s 			page 8


 364              		.thumb
 365              		.thumb_func
 367              	InitVisit:
 368              	.LFB14:
  59:C:/Users/leopi/Documents/vs/S-Reo/MazeLibrary\dfs.c **** 
  60:C:/Users/leopi/Documents/vs/S-Reo/MazeLibrary\dfs.c **** void InitVisit(){
 369              		.loc 1 60 17 is_stmt 1 view -0
 370              		.cfi_startproc
 371              		@ args = 0, pretend = 0, frame = 0
 372              		@ frame_needed = 0, uses_anonymous_args = 0
 373              		@ link register save eliminated.
  61:C:/Users/leopi/Documents/vs/S-Reo/MazeLibrary\dfs.c **** 	for(int i=0; i < NUMBER_OF_SQUARES_X; i++){
 374              		.loc 1 61 2 view .LVU51
 375              	.LBB2:
 376              		.loc 1 61 6 view .LVU52
 377              	.LVL7:
 378              		.loc 1 61 10 is_stmt 0 view .LVU53
 379 0000 0020     		movs	r0, #0
 380              		.loc 1 61 2 view .LVU54
 381 0002 08E0     		b	.L38
 382              	.LVL8:
 383              	.L39:
 384              	.LBB3:
  62:C:/Users/leopi/Documents/vs/S-Reo/MazeLibrary\dfs.c **** 		for(int j=0; j < NUMBER_OF_SQUARES_Y; j++){
  63:C:/Users/leopi/Documents/vs/S-Reo/MazeLibrary\dfs.c **** 			Visit[i][j] = false;
 385              		.loc 1 63 4 is_stmt 1 discriminator 3 view .LVU55
 386              		.loc 1 63 16 is_stmt 0 discriminator 3 view .LVU56
 387 0004 084A     		ldr	r2, .L43
 388 0006 02EB4012 		add	r2, r2, r0, lsl #5
 389 000a 0021     		movs	r1, #0
 390 000c D154     		strb	r1, [r2, r3]
  62:C:/Users/leopi/Documents/vs/S-Reo/MazeLibrary\dfs.c **** 		for(int j=0; j < NUMBER_OF_SQUARES_Y; j++){
 391              		.loc 1 62 41 is_stmt 1 discriminator 3 view .LVU57
  62:C:/Users/leopi/Documents/vs/S-Reo/MazeLibrary\dfs.c **** 		for(int j=0; j < NUMBER_OF_SQUARES_Y; j++){
 392              		.loc 1 62 42 is_stmt 0 discriminator 3 view .LVU58
 393 000e 0133     		adds	r3, r3, #1
 394              	.LVL9:
 395              	.L40:
  62:C:/Users/leopi/Documents/vs/S-Reo/MazeLibrary\dfs.c **** 		for(int j=0; j < NUMBER_OF_SQUARES_Y; j++){
 396              		.loc 1 62 16 is_stmt 1 discriminator 1 view .LVU59
  62:C:/Users/leopi/Documents/vs/S-Reo/MazeLibrary\dfs.c **** 		for(int j=0; j < NUMBER_OF_SQUARES_Y; j++){
 397              		.loc 1 62 3 is_stmt 0 discriminator 1 view .LVU60
 398 0010 1F2B     		cmp	r3, #31
 399 0012 F7DD     		ble	.L39
 400              	.LBE3:
  61:C:/Users/leopi/Documents/vs/S-Reo/MazeLibrary\dfs.c **** 	for(int i=0; i < NUMBER_OF_SQUARES_X; i++){
 401              		.loc 1 61 40 is_stmt 1 discriminator 2 view .LVU61
  61:C:/Users/leopi/Documents/vs/S-Reo/MazeLibrary\dfs.c **** 	for(int i=0; i < NUMBER_OF_SQUARES_X; i++){
 402              		.loc 1 61 41 is_stmt 0 discriminator 2 view .LVU62
 403 0014 0130     		adds	r0, r0, #1
 404              	.LVL10:
 405              	.L38:
  61:C:/Users/leopi/Documents/vs/S-Reo/MazeLibrary\dfs.c **** 	for(int i=0; i < NUMBER_OF_SQUARES_X; i++){
 406              		.loc 1 61 15 is_stmt 1 discriminator 1 view .LVU63
  61:C:/Users/leopi/Documents/vs/S-Reo/MazeLibrary\dfs.c **** 	for(int i=0; i < NUMBER_OF_SQUARES_X; i++){
 407              		.loc 1 61 2 is_stmt 0 discriminator 1 view .LVU64
 408 0016 1F28     		cmp	r0, #31
ARM GAS  C:\Users\leopi\AppData\Local\Temp\ccx6VW8D.s 			page 9


 409 0018 01DC     		bgt	.L42
 410              	.LBB4:
  62:C:/Users/leopi/Documents/vs/S-Reo/MazeLibrary\dfs.c **** 		for(int j=0; j < NUMBER_OF_SQUARES_Y; j++){
 411              		.loc 1 62 11 view .LVU65
 412 001a 0023     		movs	r3, #0
 413 001c F8E7     		b	.L40
 414              	.L42:
 415              	.LBE4:
 416              	.LBE2:
  64:C:/Users/leopi/Documents/vs/S-Reo/MazeLibrary\dfs.c **** 		}
  65:C:/Users/leopi/Documents/vs/S-Reo/MazeLibrary\dfs.c **** 	}
  66:C:/Users/leopi/Documents/vs/S-Reo/MazeLibrary\dfs.c **** 	Visit[0][0] = true;
 417              		.loc 1 66 2 is_stmt 1 view .LVU66
 418              		.loc 1 66 14 is_stmt 0 view .LVU67
 419 001e 024B     		ldr	r3, .L43
 420 0020 0122     		movs	r2, #1
 421 0022 1A70     		strb	r2, [r3]
  67:C:/Users/leopi/Documents/vs/S-Reo/MazeLibrary\dfs.c **** }
 422              		.loc 1 67 1 view .LVU68
 423 0024 7047     		bx	lr
 424              	.L44:
 425 0026 00BF     		.align	2
 426              	.L43:
 427 0028 00000000 		.word	.LANCHOR4
 428              		.cfi_endproc
 429              	.LFE14:
 431              		.section	.rodata.printVisited.str1.4,"aMS",%progbits,1
 432              		.align	2
 433              	.LC0:
 434 0000 25642000 		.ascii	"%d \000"
 435              		.align	2
 436              	.LC1:
 437 0004 0D00     		.ascii	"\015\000"
 438              		.section	.text.printVisited,"ax",%progbits
 439              		.align	1
 440              		.global	printVisited
 441              		.syntax unified
 442              		.thumb
 443              		.thumb_func
 445              	printVisited:
 446              	.LFB15:
  68:C:/Users/leopi/Documents/vs/S-Reo/MazeLibrary\dfs.c **** void printVisited(){
 447              		.loc 1 68 20 is_stmt 1 view -0
 448              		.cfi_startproc
 449              		@ args = 0, pretend = 0, frame = 0
 450              		@ frame_needed = 0, uses_anonymous_args = 0
 451 0000 38B5     		push	{r3, r4, r5, lr}
 452              	.LCFI2:
 453              		.cfi_def_cfa_offset 16
 454              		.cfi_offset 3, -16
 455              		.cfi_offset 4, -12
 456              		.cfi_offset 5, -8
 457              		.cfi_offset 14, -4
  69:C:/Users/leopi/Documents/vs/S-Reo/MazeLibrary\dfs.c **** 	for(int j=NUMBER_OF_SQUARES_Y-1; j >= 0; j--){
 458              		.loc 1 69 2 view .LVU70
 459              	.LBB5:
 460              		.loc 1 69 6 view .LVU71
ARM GAS  C:\Users\leopi\AppData\Local\Temp\ccx6VW8D.s 			page 10


 461              	.LVL11:
 462              		.loc 1 69 10 is_stmt 0 view .LVU72
 463 0002 1F25     		movs	r5, #31
 464              		.loc 1 69 2 view .LVU73
 465 0004 0DE0     		b	.L46
 466              	.LVL12:
 467              	.L47:
 468              	.LBB6:
  70:C:/Users/leopi/Documents/vs/S-Reo/MazeLibrary\dfs.c **** 		for(int i=0; i < NUMBER_OF_SQUARES_X; i++){
  71:C:/Users/leopi/Documents/vs/S-Reo/MazeLibrary\dfs.c **** 			printf("%d ",Visit[i][j]);
 469              		.loc 1 71 4 is_stmt 1 discriminator 3 view .LVU74
 470              		.loc 1 71 25 is_stmt 0 discriminator 3 view .LVU75
 471 0006 0B4B     		ldr	r3, .L52
 472 0008 03EB4413 		add	r3, r3, r4, lsl #5
 473              		.loc 1 71 4 discriminator 3 view .LVU76
 474 000c 595D     		ldrb	r1, [r3, r5]	@ zero_extendqisi2
 475 000e 0A48     		ldr	r0, .L52+4
 476 0010 FFF7FEFF 		bl	printf
 477              	.LVL13:
  70:C:/Users/leopi/Documents/vs/S-Reo/MazeLibrary\dfs.c **** 		for(int i=0; i < NUMBER_OF_SQUARES_X; i++){
 478              		.loc 1 70 41 is_stmt 1 discriminator 3 view .LVU77
  70:C:/Users/leopi/Documents/vs/S-Reo/MazeLibrary\dfs.c **** 		for(int i=0; i < NUMBER_OF_SQUARES_X; i++){
 479              		.loc 1 70 42 is_stmt 0 discriminator 3 view .LVU78
 480 0014 0134     		adds	r4, r4, #1
 481              	.LVL14:
 482              	.L48:
  70:C:/Users/leopi/Documents/vs/S-Reo/MazeLibrary\dfs.c **** 		for(int i=0; i < NUMBER_OF_SQUARES_X; i++){
 483              		.loc 1 70 16 is_stmt 1 discriminator 1 view .LVU79
  70:C:/Users/leopi/Documents/vs/S-Reo/MazeLibrary\dfs.c **** 		for(int i=0; i < NUMBER_OF_SQUARES_X; i++){
 484              		.loc 1 70 3 is_stmt 0 discriminator 1 view .LVU80
 485 0016 1F2C     		cmp	r4, #31
 486 0018 F5DD     		ble	.L47
 487              	.LBE6:
  72:C:/Users/leopi/Documents/vs/S-Reo/MazeLibrary\dfs.c **** 		}
  73:C:/Users/leopi/Documents/vs/S-Reo/MazeLibrary\dfs.c **** 		printf("\r\n");
 488              		.loc 1 73 3 is_stmt 1 discriminator 2 view .LVU81
 489 001a 0848     		ldr	r0, .L52+8
 490 001c FFF7FEFF 		bl	puts
 491              	.LVL15:
  69:C:/Users/leopi/Documents/vs/S-Reo/MazeLibrary\dfs.c **** 		for(int i=0; i < NUMBER_OF_SQUARES_X; i++){
 492              		.loc 1 69 43 discriminator 2 view .LVU82
  69:C:/Users/leopi/Documents/vs/S-Reo/MazeLibrary\dfs.c **** 		for(int i=0; i < NUMBER_OF_SQUARES_X; i++){
 493              		.loc 1 69 44 is_stmt 0 discriminator 2 view .LVU83
 494 0020 013D     		subs	r5, r5, #1
 495              	.LVL16:
 496              	.L46:
  69:C:/Users/leopi/Documents/vs/S-Reo/MazeLibrary\dfs.c **** 		for(int i=0; i < NUMBER_OF_SQUARES_X; i++){
 497              		.loc 1 69 35 is_stmt 1 discriminator 1 view .LVU84
  69:C:/Users/leopi/Documents/vs/S-Reo/MazeLibrary\dfs.c **** 		for(int i=0; i < NUMBER_OF_SQUARES_X; i++){
 498              		.loc 1 69 2 is_stmt 0 discriminator 1 view .LVU85
 499 0022 002D     		cmp	r5, #0
 500 0024 01DB     		blt	.L51
 501              	.LBB7:
  70:C:/Users/leopi/Documents/vs/S-Reo/MazeLibrary\dfs.c **** 		for(int i=0; i < NUMBER_OF_SQUARES_X; i++){
 502              		.loc 1 70 11 view .LVU86
 503 0026 0024     		movs	r4, #0
 504 0028 F5E7     		b	.L48
ARM GAS  C:\Users\leopi\AppData\Local\Temp\ccx6VW8D.s 			page 11


 505              	.L51:
 506              	.LBE7:
 507              	.LBE5:
  74:C:/Users/leopi/Documents/vs/S-Reo/MazeLibrary\dfs.c **** 	}printf("\r\n");
 508              		.loc 1 74 3 is_stmt 1 view .LVU87
 509 002a 0448     		ldr	r0, .L52+8
 510 002c FFF7FEFF 		bl	puts
 511              	.LVL17:
  75:C:/Users/leopi/Documents/vs/S-Reo/MazeLibrary\dfs.c **** }
 512              		.loc 1 75 1 is_stmt 0 view .LVU88
 513 0030 38BD     		pop	{r3, r4, r5, pc}
 514              	.LVL18:
 515              	.L53:
 516              		.loc 1 75 1 view .LVU89
 517 0032 00BF     		.align	2
 518              	.L52:
 519 0034 00000000 		.word	.LANCHOR4
 520 0038 00000000 		.word	.LC0
 521 003c 04000000 		.word	.LC1
 522              		.cfi_endproc
 523              	.LFE15:
 525              		.section	.text.VisitedMass,"ax",%progbits
 526              		.align	1
 527              		.global	VisitedMass
 528              		.syntax unified
 529              		.thumb
 530              		.thumb_func
 532              	VisitedMass:
 533              	.LFB16:
  76:C:/Users/leopi/Documents/vs/S-Reo/MazeLibrary\dfs.c **** void VisitedMass(position pos){
 534              		.loc 1 76 31 is_stmt 1 view -0
 535              		.cfi_startproc
 536              		@ args = 0, pretend = 0, frame = 8
 537              		@ frame_needed = 0, uses_anonymous_args = 0
 538              		@ link register save eliminated.
 539 0000 82B0     		sub	sp, sp, #8
 540              	.LCFI3:
 541              		.cfi_def_cfa_offset 8
 542 0002 ADF80400 		strh	r0, [sp, #4]	@ movhi
  77:C:/Users/leopi/Documents/vs/S-Reo/MazeLibrary\dfs.c **** 	Visit[pos.x][pos.y] = true;
 543              		.loc 1 77 2 view .LVU91
 544              		.loc 1 77 11 is_stmt 0 view .LVU92
 545 0006 9DF80410 		ldrb	r1, [sp, #4]	@ zero_extendqisi2
 546              		.loc 1 77 18 view .LVU93
 547 000a 9DF80520 		ldrb	r2, [sp, #5]	@ zero_extendqisi2
 548              		.loc 1 77 22 view .LVU94
 549 000e 034B     		ldr	r3, .L56
 550 0010 03EB4113 		add	r3, r3, r1, lsl #5
 551 0014 0121     		movs	r1, #1
 552 0016 9954     		strb	r1, [r3, r2]
  78:C:/Users/leopi/Documents/vs/S-Reo/MazeLibrary\dfs.c **** }
 553              		.loc 1 78 1 view .LVU95
 554 0018 02B0     		add	sp, sp, #8
 555              	.LCFI4:
 556              		.cfi_def_cfa_offset 0
 557              		@ sp needed
 558 001a 7047     		bx	lr
ARM GAS  C:\Users\leopi\AppData\Local\Temp\ccx6VW8D.s 			page 12


 559              	.L57:
 560              		.align	2
 561              	.L56:
 562 001c 00000000 		.word	.LANCHOR4
 563              		.cfi_endproc
 564              	.LFE16:
 566              		.section	.text.GetVisited,"ax",%progbits
 567              		.align	1
 568              		.global	GetVisited
 569              		.syntax unified
 570              		.thumb
 571              		.thumb_func
 573              	GetVisited:
 574              	.LVL19:
 575              	.LFB17:
  79:C:/Users/leopi/Documents/vs/S-Reo/MazeLibrary\dfs.c **** _Bool GetVisited(position *pos){
 576              		.loc 1 79 32 is_stmt 1 view -0
 577              		.cfi_startproc
 578              		@ args = 0, pretend = 0, frame = 0
 579              		@ frame_needed = 0, uses_anonymous_args = 0
 580              		@ link register save eliminated.
  80:C:/Users/leopi/Documents/vs/S-Reo/MazeLibrary\dfs.c **** 	return Visit[pos->x][pos->y];
 581              		.loc 1 80 2 view .LVU97
 582              		.loc 1 80 18 is_stmt 0 view .LVU98
 583 0000 0178     		ldrb	r1, [r0]	@ zero_extendqisi2
 584              		.loc 1 80 26 view .LVU99
 585 0002 4278     		ldrb	r2, [r0, #1]	@ zero_extendqisi2
 586              		.loc 1 80 22 view .LVU100
 587 0004 024B     		ldr	r3, .L59
 588 0006 03EB4113 		add	r3, r3, r1, lsl #5
  81:C:/Users/leopi/Documents/vs/S-Reo/MazeLibrary\dfs.c **** }
 589              		.loc 1 81 1 view .LVU101
 590 000a 985C     		ldrb	r0, [r3, r2]	@ zero_extendqisi2
 591              	.LVL20:
 592              		.loc 1 81 1 view .LVU102
 593 000c 7047     		bx	lr
 594              	.L60:
 595 000e 00BF     		.align	2
 596              	.L59:
 597 0010 00000000 		.word	.LANCHOR4
 598              		.cfi_endproc
 599              	.LFE17:
 601              		.section	.text.InitMassStack,"ax",%progbits
 602              		.align	1
 603              		.global	InitMassStack
 604              		.syntax unified
 605              		.thumb
 606              		.thumb_func
 608              	InitMassStack:
 609              	.LFB18:
  82:C:/Users/leopi/Documents/vs/S-Reo/MazeLibrary\dfs.c **** 
  83:C:/Users/leopi/Documents/vs/S-Reo/MazeLibrary\dfs.c **** void InitMassStack(){
 610              		.loc 1 83 21 is_stmt 1 view -0
 611              		.cfi_startproc
 612              		@ args = 0, pretend = 0, frame = 0
 613              		@ frame_needed = 0, uses_anonymous_args = 0
 614              		@ link register save eliminated.
ARM GAS  C:\Users\leopi\AppData\Local\Temp\ccx6VW8D.s 			page 13


  84:C:/Users/leopi/Documents/vs/S-Reo/MazeLibrary\dfs.c **** 	mass_stack[0].x = 0;
 615              		.loc 1 84 2 view .LVU104
 616              		.loc 1 84 18 is_stmt 0 view .LVU105
 617 0000 024B     		ldr	r3, .L62
 618 0002 0022     		movs	r2, #0
 619 0004 1A70     		strb	r2, [r3]
  85:C:/Users/leopi/Documents/vs/S-Reo/MazeLibrary\dfs.c **** 	mass_stack[0].y = 0;
 620              		.loc 1 85 2 is_stmt 1 view .LVU106
 621              		.loc 1 85 18 is_stmt 0 view .LVU107
 622 0006 5A70     		strb	r2, [r3, #1]
  86:C:/Users/leopi/Documents/vs/S-Reo/MazeLibrary\dfs.c **** }
 623              		.loc 1 86 1 view .LVU108
 624 0008 7047     		bx	lr
 625              	.L63:
 626 000a 00BF     		.align	2
 627              	.L62:
 628 000c 00000000 		.word	.LANCHOR3
 629              		.cfi_endproc
 630              	.LFE18:
 632              		.section	.text.StackMass,"ax",%progbits
 633              		.align	1
 634              		.global	StackMass
 635              		.syntax unified
 636              		.thumb
 637              		.thumb_func
 639              	StackMass:
 640              	.LVL21:
 641              	.LFB19:
  87:C:/Users/leopi/Documents/vs/S-Reo/MazeLibrary\dfs.c **** _Bool StackMass(maze_node *maze, state *now_st){
 642              		.loc 1 87 48 is_stmt 1 view -0
 643              		.cfi_startproc
 644              		@ args = 0, pretend = 0, frame = 0
 645              		@ frame_needed = 0, uses_anonymous_args = 0
 646              		.loc 1 87 48 is_stmt 0 view .LVU110
 647 0000 2DE9F047 		push	{r4, r5, r6, r7, r8, r9, r10, lr}
 648              	.LCFI5:
 649              		.cfi_def_cfa_offset 32
 650              		.cfi_offset 4, -32
 651              		.cfi_offset 5, -28
 652              		.cfi_offset 6, -24
 653              		.cfi_offset 7, -20
 654              		.cfi_offset 8, -16
 655              		.cfi_offset 9, -12
 656              		.cfi_offset 10, -8
 657              		.cfi_offset 14, -4
 658 0004 0746     		mov	r7, r0
 659 0006 0C46     		mov	r4, r1
  88:C:/Users/leopi/Documents/vs/S-Reo/MazeLibrary\dfs.c **** 
  89:C:/Users/leopi/Documents/vs/S-Reo/MazeLibrary\dfs.c **** 	//壁の更新後
  90:C:/Users/leopi/Documents/vs/S-Reo/MazeLibrary\dfs.c **** 	//4方向のノードを見て、行けるところ、未訪問
  91:C:/Users/leopi/Documents/vs/S-Reo/MazeLibrary\dfs.c **** 	//優先順位は前、左、右
  92:C:/Users/leopi/Documents/vs/S-Reo/MazeLibrary\dfs.c **** 	//行けるかどうか = 重みがMAXでなければ
  93:C:/Users/leopi/Documents/vs/S-Reo/MazeLibrary\dfs.c **** 	//隣接行列あったほうがいい
  94:C:/Users/leopi/Documents/vs/S-Reo/MazeLibrary\dfs.c **** 
  95:C:/Users/leopi/Documents/vs/S-Reo/MazeLibrary\dfs.c **** 	//xyの大きさ制限の条件式
  96:C:/Users/leopi/Documents/vs/S-Reo/MazeLibrary\dfs.c **** 	uint8_t x = now_st->pos.x;
 660              		.loc 1 96 2 is_stmt 1 view .LVU111
ARM GAS  C:\Users\leopi\AppData\Local\Temp\ccx6VW8D.s 			page 14


 661              		.loc 1 96 10 is_stmt 0 view .LVU112
 662 0008 91F80090 		ldrb	r9, [r1]	@ zero_extendqisi2
 663              	.LVL22:
  97:C:/Users/leopi/Documents/vs/S-Reo/MazeLibrary\dfs.c **** 	uint8_t y = now_st->pos.y;
 664              		.loc 1 97 2 is_stmt 1 view .LVU113
 665              		.loc 1 97 10 is_stmt 0 view .LVU114
 666 000c 91F801A0 		ldrb	r10, [r1, #1]	@ zero_extendqisi2
 667              	.LVL23:
  98:C:/Users/leopi/Documents/vs/S-Reo/MazeLibrary\dfs.c **** 
  99:C:/Users/leopi/Documents/vs/S-Reo/MazeLibrary\dfs.c **** 	uint8_t nd_x = now_st->node->pos.x;
 668              		.loc 1 99 2 is_stmt 1 view .LVU115
 669              		.loc 1 99 23 is_stmt 0 view .LVU116
 670 0010 8B68     		ldr	r3, [r1, #8]
 671              		.loc 1 99 10 view .LVU117
 672 0012 9D79     		ldrb	r5, [r3, #6]	@ zero_extendqisi2
 673              	.LVL24:
 100:C:/Users/leopi/Documents/vs/S-Reo/MazeLibrary\dfs.c **** 	uint8_t nd_y = now_st->node->pos.y;
 674              		.loc 1 100 2 is_stmt 1 view .LVU118
 675              		.loc 1 100 10 is_stmt 0 view .LVU119
 676 0014 93F80780 		ldrb	r8, [r3, #7]	@ zero_extendqisi2
 677              	.LVL25:
 101:C:/Users/leopi/Documents/vs/S-Reo/MazeLibrary\dfs.c **** //	_Bool rc = now_st->node->rc;
 102:C:/Users/leopi/Documents/vs/S-Reo/MazeLibrary\dfs.c **** 	cardinal car = now_st->car;
 678              		.loc 1 102 2 is_stmt 1 view .LVU120
 679              		.loc 1 102 11 is_stmt 0 view .LVU121
 680 0018 8E78     		ldrb	r6, [r1, #2]	@ zero_extendqisi2
 681              	.LVL26:
 103:C:/Users/leopi/Documents/vs/S-Reo/MazeLibrary\dfs.c **** 
 104:C:/Users/leopi/Documents/vs/S-Reo/MazeLibrary\dfs.c **** 	int n = GetStackNum();
 682              		.loc 1 104 2 is_stmt 1 view .LVU122
 683              		.loc 1 104 10 is_stmt 0 view .LVU123
 684 001a FFF7FEFF 		bl	GetStackNum
 685              	.LVL27:
 105:C:/Users/leopi/Documents/vs/S-Reo/MazeLibrary\dfs.c **** 	int cnt = 0;
 686              		.loc 1 105 2 is_stmt 1 view .LVU124
 106:C:/Users/leopi/Documents/vs/S-Reo/MazeLibrary\dfs.c **** 	//スタックの流れ
 107:C:/Users/leopi/Documents/vs/S-Reo/MazeLibrary\dfs.c **** 	//n=0になった時点で減速、停止。目標ノードを（0,0）に切り替え
 108:C:/Users/leopi/Documents/vs/S-Reo/MazeLibrary\dfs.c **** 	//積む座標があれば++nで1から開始
 109:C:/Users/leopi/Documents/vs/S-Reo/MazeLibrary\dfs.c **** 	//積み終わった時点のnがreturnされる
 110:C:/Users/leopi/Documents/vs/S-Reo/MazeLibrary\dfs.c **** 	//
 111:C:/Users/leopi/Documents/vs/S-Reo/MazeLibrary\dfs.c **** 	switch(car%8){
 687              		.loc 1 111 2 view .LVU125
 688 001e 06F00703 		and	r3, r6, #7
 689 0022 062B     		cmp	r3, #6
 690 0024 00F2CB81 		bhi	.L80
 691 0028 DFE813F0 		tbh	[pc, r3, lsl #1]
 692              	.L67:
 693 002c 0700     		.2byte	(.L70-.L67)/2
 694 002e C901     		.2byte	(.L80-.L67)/2
 695 0030 7700     		.2byte	(.L69-.L67)/2
 696 0032 C901     		.2byte	(.L80-.L67)/2
 697 0034 DB00     		.2byte	(.L68-.L67)/2
 698 0036 C901     		.2byte	(.L80-.L67)/2
 699 0038 5401     		.2byte	(.L66-.L67)/2
 700              		.p2align 1
 701              	.L70:
 112:C:/Users/leopi/Documents/vs/S-Reo/MazeLibrary\dfs.c **** 	case north:
ARM GAS  C:\Users\leopi\AppData\Local\Temp\ccx6VW8D.s 			page 15


 113:C:/Users/leopi/Documents/vs/S-Reo/MazeLibrary\dfs.c **** //		if(rc == true){ //列ノードにいる
 114:C:/Users/leopi/Documents/vs/S-Reo/MazeLibrary\dfs.c **** 		//yのサイズ
 115:C:/Users/leopi/Documents/vs/S-Reo/MazeLibrary\dfs.c **** 		//右
 116:C:/Users/leopi/Documents/vs/S-Reo/MazeLibrary\dfs.c **** 		if(nd_x <= (NUMBER_OF_SQUARES_X-1)){
 702              		.loc 1 116 3 view .LVU126
 703              		.loc 1 116 5 is_stmt 0 view .LVU127
 704 003a 1F2D     		cmp	r5, #31
 705 003c 20D8     		bhi	.L81
 117:C:/Users/leopi/Documents/vs/S-Reo/MazeLibrary\dfs.c **** 			if( maze->ColumnNode[nd_x+1][nd_y].existence == NOWALL ){ //行ける
 706              		.loc 1 117 4 is_stmt 1 view .LVU128
 707              		.loc 1 117 29 is_stmt 0 view .LVU129
 708 003e 6B1C     		adds	r3, r5, #1
 709              		.loc 1 117 38 view .LVU130
 710 0040 08EB4313 		add	r3, r8, r3, lsl #5
 711 0044 03F58463 		add	r3, r3, #1056
 712 0048 17F83330 		ldrb	r3, [r7, r3, lsl #3]	@ zero_extendqisi2
 713              		.loc 1 117 6 view .LVU131
 714 004c 002B     		cmp	r3, #0
 715 004e 5ED1     		bne	.L82
 118:C:/Users/leopi/Documents/vs/S-Reo/MazeLibrary\dfs.c **** 				if( x < (NUMBER_OF_SQUARES_X-1) ){
 716              		.loc 1 118 5 is_stmt 1 view .LVU132
 717              		.loc 1 118 7 is_stmt 0 view .LVU133
 718 0050 B9F11E0F 		cmp	r9, #30
 719 0054 5DD8     		bhi	.L83
 119:C:/Users/leopi/Documents/vs/S-Reo/MazeLibrary\dfs.c **** 					if( Visit[x+1][y] == false ){ //未訪問
 720              		.loc 1 119 6 is_stmt 1 view .LVU134
 721              		.loc 1 119 17 is_stmt 0 view .LVU135
 722 0056 09F10103 		add	r3, r9, #1
 723              		.loc 1 119 20 view .LVU136
 724 005a B04A     		ldr	r2, .L98
 725 005c 02EB4313 		add	r3, r2, r3, lsl #5
 726 0060 13F80A30 		ldrb	r3, [r3, r10]	@ zero_extendqisi2
 727              		.loc 1 119 8 view .LVU137
 728 0064 002B     		cmp	r3, #0
 729 0066 56D1     		bne	.L84
 120:C:/Users/leopi/Documents/vs/S-Reo/MazeLibrary\dfs.c **** 						++cnt;
 730              		.loc 1 120 7 is_stmt 1 view .LVU138
 731              	.LVL28:
 121:C:/Users/leopi/Documents/vs/S-Reo/MazeLibrary\dfs.c **** 						mass_stack[n+cnt].x = now_st->pos.x+1;
 732              		.loc 1 121 7 view .LVU139
 733              		.loc 1 121 19 is_stmt 0 view .LVU140
 734 0068 421C     		adds	r2, r0, #1
 735              		.loc 1 121 42 view .LVU141
 736 006a 09F10101 		add	r1, r9, #1
 737              		.loc 1 121 27 view .LVU142
 738 006e AC4B     		ldr	r3, .L98+4
 739 0070 03F81210 		strb	r1, [r3, r2, lsl #1]
 122:C:/Users/leopi/Documents/vs/S-Reo/MazeLibrary\dfs.c **** 						mass_stack[n+cnt].y = now_st->pos.y;
 740              		.loc 1 122 7 is_stmt 1 view .LVU143
 741              		.loc 1 122 40 is_stmt 0 view .LVU144
 742 0074 6178     		ldrb	r1, [r4, #1]	@ zero_extendqisi2
 743              		.loc 1 122 27 view .LVU145
 744 0076 03EB4203 		add	r3, r3, r2, lsl #1
 745 007a 5970     		strb	r1, [r3, #1]
 120:C:/Users/leopi/Documents/vs/S-Reo/MazeLibrary\dfs.c **** 						++cnt;
 746              		.loc 1 120 7 view .LVU146
 747 007c 0126     		movs	r6, #1
ARM GAS  C:\Users\leopi\AppData\Local\Temp\ccx6VW8D.s 			page 16


 748              	.LVL29:
 120:C:/Users/leopi/Documents/vs/S-Reo/MazeLibrary\dfs.c **** 						++cnt;
 749              		.loc 1 120 7 view .LVU147
 750 007e 00E0     		b	.L71
 751              	.LVL30:
 752              	.L81:
 105:C:/Users/leopi/Documents/vs/S-Reo/MazeLibrary\dfs.c **** 	//スタックの流れ
 753              		.loc 1 105 6 view .LVU148
 754 0080 0026     		movs	r6, #0
 755              	.LVL31:
 756              	.L71:
 123:C:/Users/leopi/Documents/vs/S-Reo/MazeLibrary\dfs.c **** 					}
 124:C:/Users/leopi/Documents/vs/S-Reo/MazeLibrary\dfs.c **** 				}
 125:C:/Users/leopi/Documents/vs/S-Reo/MazeLibrary\dfs.c **** 			}//前方の三方向だけ. 後ろは積まない. これを積むと重複
 126:C:/Users/leopi/Documents/vs/S-Reo/MazeLibrary\dfs.c **** 		}
 127:C:/Users/leopi/Documents/vs/S-Reo/MazeLibrary\dfs.c **** 		//左
 128:C:/Users/leopi/Documents/vs/S-Reo/MazeLibrary\dfs.c **** 		if( maze->ColumnNode[nd_x][nd_y].existence == NOWALL ){ //行ける
 757              		.loc 1 128 3 is_stmt 1 view .LVU149
 758              		.loc 1 128 35 is_stmt 0 view .LVU150
 759 0082 08EB4513 		add	r3, r8, r5, lsl #5
 760 0086 03F58463 		add	r3, r3, #1056
 761 008a 17F83330 		ldrb	r3, [r7, r3, lsl #3]	@ zero_extendqisi2
 762              		.loc 1 128 5 view .LVU151
 763 008e ABB9     		cbnz	r3, .L72
 129:C:/Users/leopi/Documents/vs/S-Reo/MazeLibrary\dfs.c **** 			if( 1 <= x ){
 764              		.loc 1 129 4 is_stmt 1 view .LVU152
 765              		.loc 1 129 6 is_stmt 0 view .LVU153
 766 0090 B9F1000F 		cmp	r9, #0
 767 0094 12D0     		beq	.L72
 130:C:/Users/leopi/Documents/vs/S-Reo/MazeLibrary\dfs.c **** 				if( Visit[x-1][y] == false){ //未訪問
 768              		.loc 1 130 5 is_stmt 1 view .LVU154
 769              		.loc 1 130 16 is_stmt 0 view .LVU155
 770 0096 09F1FF33 		add	r3, r9, #-1
 771              		.loc 1 130 19 view .LVU156
 772 009a A04A     		ldr	r2, .L98
 773 009c 02EB4313 		add	r3, r2, r3, lsl #5
 774 00a0 13F80A30 		ldrb	r3, [r3, r10]	@ zero_extendqisi2
 775              		.loc 1 130 7 view .LVU157
 776 00a4 53B9     		cbnz	r3, .L72
 131:C:/Users/leopi/Documents/vs/S-Reo/MazeLibrary\dfs.c **** 					++cnt;
 777              		.loc 1 131 6 is_stmt 1 view .LVU158
 778 00a6 0136     		adds	r6, r6, #1
 779              	.LVL32:
 132:C:/Users/leopi/Documents/vs/S-Reo/MazeLibrary\dfs.c **** 					mass_stack[n+cnt].x = now_st->pos.x-1;
 780              		.loc 1 132 6 view .LVU159
 781              		.loc 1 132 39 is_stmt 0 view .LVU160
 782 00a8 2278     		ldrb	r2, [r4]	@ zero_extendqisi2
 783              		.loc 1 132 18 view .LVU161
 784 00aa 8119     		adds	r1, r0, r6
 785              		.loc 1 132 41 view .LVU162
 786 00ac 013A     		subs	r2, r2, #1
 787              		.loc 1 132 26 view .LVU163
 788 00ae 9C4B     		ldr	r3, .L98+4
 789 00b0 03F81120 		strb	r2, [r3, r1, lsl #1]
 133:C:/Users/leopi/Documents/vs/S-Reo/MazeLibrary\dfs.c **** 					mass_stack[n+cnt].y = now_st->pos.y;
 790              		.loc 1 133 6 is_stmt 1 view .LVU164
 791              		.loc 1 133 39 is_stmt 0 view .LVU165
ARM GAS  C:\Users\leopi\AppData\Local\Temp\ccx6VW8D.s 			page 17


 792 00b4 6278     		ldrb	r2, [r4, #1]	@ zero_extendqisi2
 793              		.loc 1 133 26 view .LVU166
 794 00b6 03EB4103 		add	r3, r3, r1, lsl #1
 795 00ba 5A70     		strb	r2, [r3, #1]
 796              	.L72:
 134:C:/Users/leopi/Documents/vs/S-Reo/MazeLibrary\dfs.c **** 				}
 135:C:/Users/leopi/Documents/vs/S-Reo/MazeLibrary\dfs.c **** 			}
 136:C:/Users/leopi/Documents/vs/S-Reo/MazeLibrary\dfs.c **** 		}
 137:C:/Users/leopi/Documents/vs/S-Reo/MazeLibrary\dfs.c **** 		//前
 138:C:/Users/leopi/Documents/vs/S-Reo/MazeLibrary\dfs.c **** 		if(nd_y <= (NUMBER_OF_SQUARES_Y-1)){
 797              		.loc 1 138 3 is_stmt 1 view .LVU167
 798              		.loc 1 138 5 is_stmt 0 view .LVU168
 799 00bc B8F11F0F 		cmp	r8, #31
 800 00c0 1DD8     		bhi	.L73
 139:C:/Users/leopi/Documents/vs/S-Reo/MazeLibrary\dfs.c **** 			if( maze->RawNode[nd_x][nd_y+1].existence == NOWALL ){ //行ける
 801              		.loc 1 139 4 is_stmt 1 view .LVU169
 802              		.loc 1 139 32 is_stmt 0 view .LVU170
 803 00c2 08F10108 		add	r8, r8, #1
 804              	.LVL33:
 805              		.loc 1 139 35 view .LVU171
 806 00c6 05EB4515 		add	r5, r5, r5, lsl #5
 807              	.LVL34:
 808              		.loc 1 139 35 view .LVU172
 809 00ca 4544     		add	r5, r5, r8
 810 00cc 17F83530 		ldrb	r3, [r7, r5, lsl #3]	@ zero_extendqisi2
 811              		.loc 1 139 6 view .LVU173
 812 00d0 ABB9     		cbnz	r3, .L73
 140:C:/Users/leopi/Documents/vs/S-Reo/MazeLibrary\dfs.c **** 				if( y < (NUMBER_OF_SQUARES_Y - 1)){
 813              		.loc 1 140 5 is_stmt 1 view .LVU174
 814              		.loc 1 140 7 is_stmt 0 view .LVU175
 815 00d2 BAF11E0F 		cmp	r10, #30
 816 00d6 12D8     		bhi	.L73
 141:C:/Users/leopi/Documents/vs/S-Reo/MazeLibrary\dfs.c **** 					if( Visit[x][y+1] == false){ //未訪問
 817              		.loc 1 141 6 is_stmt 1 view .LVU176
 818              		.loc 1 141 20 is_stmt 0 view .LVU177
 819 00d8 0AF1010A 		add	r10, r10, #1
 820              	.LVL35:
 821              		.loc 1 141 18 view .LVU178
 822 00dc 8F4B     		ldr	r3, .L98
 823 00de 03EB4919 		add	r9, r3, r9, lsl #5
 824              	.LVL36:
 825              		.loc 1 141 18 view .LVU179
 826 00e2 19F80A30 		ldrb	r3, [r9, r10]	@ zero_extendqisi2
 827              		.loc 1 141 8 view .LVU180
 828 00e6 53B9     		cbnz	r3, .L73
 142:C:/Users/leopi/Documents/vs/S-Reo/MazeLibrary\dfs.c **** 						++cnt;
 829              		.loc 1 142 7 is_stmt 1 view .LVU181
 830 00e8 0136     		adds	r6, r6, #1
 831              	.LVL37:
 143:C:/Users/leopi/Documents/vs/S-Reo/MazeLibrary\dfs.c **** 						mass_stack[n+cnt].x = now_st->pos.x;
 832              		.loc 1 143 7 view .LVU182
 833              		.loc 1 143 19 is_stmt 0 view .LVU183
 834 00ea 8119     		adds	r1, r0, r6
 835              		.loc 1 143 40 view .LVU184
 836 00ec 2278     		ldrb	r2, [r4]	@ zero_extendqisi2
 837              		.loc 1 143 27 view .LVU185
 838 00ee 8C4B     		ldr	r3, .L98+4
ARM GAS  C:\Users\leopi\AppData\Local\Temp\ccx6VW8D.s 			page 18


 839 00f0 03F81120 		strb	r2, [r3, r1, lsl #1]
 144:C:/Users/leopi/Documents/vs/S-Reo/MazeLibrary\dfs.c **** 						mass_stack[n+cnt].y = (now_st->pos.y ) + 1;
 840              		.loc 1 144 7 is_stmt 1 view .LVU186
 841              		.loc 1 144 41 is_stmt 0 view .LVU187
 842 00f4 6278     		ldrb	r2, [r4, #1]	@ zero_extendqisi2
 843              		.loc 1 144 46 view .LVU188
 844 00f6 0132     		adds	r2, r2, #1
 845              		.loc 1 144 27 view .LVU189
 846 00f8 03EB4103 		add	r3, r3, r1, lsl #1
 847 00fc 5A70     		strb	r2, [r3, #1]
 848              	.LVL38:
 849              	.L73:
 145:C:/Users/leopi/Documents/vs/S-Reo/MazeLibrary\dfs.c **** 					}
 146:C:/Users/leopi/Documents/vs/S-Reo/MazeLibrary\dfs.c **** 				}
 147:C:/Users/leopi/Documents/vs/S-Reo/MazeLibrary\dfs.c **** 			}
 148:C:/Users/leopi/Documents/vs/S-Reo/MazeLibrary\dfs.c **** 		}
 149:C:/Users/leopi/Documents/vs/S-Reo/MazeLibrary\dfs.c **** 		break;
 150:C:/Users/leopi/Documents/vs/S-Reo/MazeLibrary\dfs.c **** 
 151:C:/Users/leopi/Documents/vs/S-Reo/MazeLibrary\dfs.c **** 	case east:
 152:C:/Users/leopi/Documents/vs/S-Reo/MazeLibrary\dfs.c **** //		if(rc == true){ //列ノードにいる
 153:C:/Users/leopi/Documents/vs/S-Reo/MazeLibrary\dfs.c **** 		//右
 154:C:/Users/leopi/Documents/vs/S-Reo/MazeLibrary\dfs.c **** 		if( maze->RawNode[nd_x][nd_y].existence == NOWALL ){ //行ける
 155:C:/Users/leopi/Documents/vs/S-Reo/MazeLibrary\dfs.c **** 			if( 1 <= y){
 156:C:/Users/leopi/Documents/vs/S-Reo/MazeLibrary\dfs.c **** 				if( Visit[x][y-1] == false ){ //未訪問
 157:C:/Users/leopi/Documents/vs/S-Reo/MazeLibrary\dfs.c **** 					++cnt;
 158:C:/Users/leopi/Documents/vs/S-Reo/MazeLibrary\dfs.c **** 					mass_stack[n+cnt].x = now_st->pos.x;
 159:C:/Users/leopi/Documents/vs/S-Reo/MazeLibrary\dfs.c **** 					mass_stack[n+cnt].y = (now_st->pos.y ) - 1;
 160:C:/Users/leopi/Documents/vs/S-Reo/MazeLibrary\dfs.c **** 				}
 161:C:/Users/leopi/Documents/vs/S-Reo/MazeLibrary\dfs.c **** 			}
 162:C:/Users/leopi/Documents/vs/S-Reo/MazeLibrary\dfs.c **** 		}//前方の三方向だけ. 後ろは積まない. これを積むと重複
 163:C:/Users/leopi/Documents/vs/S-Reo/MazeLibrary\dfs.c **** 		//左
 164:C:/Users/leopi/Documents/vs/S-Reo/MazeLibrary\dfs.c **** 		if(nd_y <= (NUMBER_OF_SQUARES_Y-1)){
 165:C:/Users/leopi/Documents/vs/S-Reo/MazeLibrary\dfs.c **** 			if( maze->RawNode[nd_x][nd_y+1].existence == NOWALL ){ //行ける
 166:C:/Users/leopi/Documents/vs/S-Reo/MazeLibrary\dfs.c **** 				if( y < (NUMBER_OF_SQUARES_Y - 1)){
 167:C:/Users/leopi/Documents/vs/S-Reo/MazeLibrary\dfs.c **** 					if( Visit[x][y+1] == false){ //未訪問
 168:C:/Users/leopi/Documents/vs/S-Reo/MazeLibrary\dfs.c **** 						++cnt;
 169:C:/Users/leopi/Documents/vs/S-Reo/MazeLibrary\dfs.c **** 						mass_stack[n+cnt].x = now_st->pos.x;
 170:C:/Users/leopi/Documents/vs/S-Reo/MazeLibrary\dfs.c **** 						mass_stack[n+cnt].y = (now_st->pos.y) + 1;
 171:C:/Users/leopi/Documents/vs/S-Reo/MazeLibrary\dfs.c **** 					}
 172:C:/Users/leopi/Documents/vs/S-Reo/MazeLibrary\dfs.c **** 				}
 173:C:/Users/leopi/Documents/vs/S-Reo/MazeLibrary\dfs.c **** 			}
 174:C:/Users/leopi/Documents/vs/S-Reo/MazeLibrary\dfs.c **** 		}
 175:C:/Users/leopi/Documents/vs/S-Reo/MazeLibrary\dfs.c **** 		//前
 176:C:/Users/leopi/Documents/vs/S-Reo/MazeLibrary\dfs.c **** 		if(nd_x <= (NUMBER_OF_SQUARES_X-1)){
 177:C:/Users/leopi/Documents/vs/S-Reo/MazeLibrary\dfs.c **** 			if( maze->ColumnNode[nd_x+1][nd_y].existence == NOWALL ){ //行ける
 178:C:/Users/leopi/Documents/vs/S-Reo/MazeLibrary\dfs.c **** 				if( x < (NUMBER_OF_SQUARES_X - 1)){
 179:C:/Users/leopi/Documents/vs/S-Reo/MazeLibrary\dfs.c **** 					if( Visit[x+1][y] == false ){ //未訪問
 180:C:/Users/leopi/Documents/vs/S-Reo/MazeLibrary\dfs.c **** 						++cnt;
 181:C:/Users/leopi/Documents/vs/S-Reo/MazeLibrary\dfs.c **** 						mass_stack[n+cnt].x = now_st->pos.x+1;
 182:C:/Users/leopi/Documents/vs/S-Reo/MazeLibrary\dfs.c **** 						mass_stack[n+cnt].y = now_st->pos.y;
 183:C:/Users/leopi/Documents/vs/S-Reo/MazeLibrary\dfs.c **** 					}
 184:C:/Users/leopi/Documents/vs/S-Reo/MazeLibrary\dfs.c **** 				}
 185:C:/Users/leopi/Documents/vs/S-Reo/MazeLibrary\dfs.c **** 			}
 186:C:/Users/leopi/Documents/vs/S-Reo/MazeLibrary\dfs.c **** 		}
 187:C:/Users/leopi/Documents/vs/S-Reo/MazeLibrary\dfs.c **** 		break;
 188:C:/Users/leopi/Documents/vs/S-Reo/MazeLibrary\dfs.c **** 	case south:
 189:C:/Users/leopi/Documents/vs/S-Reo/MazeLibrary\dfs.c **** 		//右
ARM GAS  C:\Users\leopi\AppData\Local\Temp\ccx6VW8D.s 			page 19


 190:C:/Users/leopi/Documents/vs/S-Reo/MazeLibrary\dfs.c **** 		if( 1 <= nd_y ){
 191:C:/Users/leopi/Documents/vs/S-Reo/MazeLibrary\dfs.c **** 			if( maze->ColumnNode[nd_x][nd_y-1].existence == NOWALL ){ //行ける
 192:C:/Users/leopi/Documents/vs/S-Reo/MazeLibrary\dfs.c **** 				if( 1 <= x){
 193:C:/Users/leopi/Documents/vs/S-Reo/MazeLibrary\dfs.c **** 					if( Visit[x-1][y] == false ){ //未訪問
 194:C:/Users/leopi/Documents/vs/S-Reo/MazeLibrary\dfs.c **** 						++cnt;
 195:C:/Users/leopi/Documents/vs/S-Reo/MazeLibrary\dfs.c **** 						mass_stack[n+cnt].x = now_st->pos.x-1;
 196:C:/Users/leopi/Documents/vs/S-Reo/MazeLibrary\dfs.c **** 						mass_stack[n+cnt].y = now_st->pos.y;
 197:C:/Users/leopi/Documents/vs/S-Reo/MazeLibrary\dfs.c **** 					}
 198:C:/Users/leopi/Documents/vs/S-Reo/MazeLibrary\dfs.c **** 				}
 199:C:/Users/leopi/Documents/vs/S-Reo/MazeLibrary\dfs.c **** 			}
 200:C:/Users/leopi/Documents/vs/S-Reo/MazeLibrary\dfs.c **** 		}
 201:C:/Users/leopi/Documents/vs/S-Reo/MazeLibrary\dfs.c **** 		//左
 202:C:/Users/leopi/Documents/vs/S-Reo/MazeLibrary\dfs.c **** 		if(nd_x <= (NUMBER_OF_SQUARES_X-1) && (1 <= nd_y) ){
 203:C:/Users/leopi/Documents/vs/S-Reo/MazeLibrary\dfs.c **** 			if( maze->ColumnNode[nd_x+1][nd_y-1].existence == NOWALL ){ //行ける
 204:C:/Users/leopi/Documents/vs/S-Reo/MazeLibrary\dfs.c **** 				if( x < (NUMBER_OF_SQUARES_X - 1) ){
 205:C:/Users/leopi/Documents/vs/S-Reo/MazeLibrary\dfs.c **** 					if( Visit[x+1][y] == false ){ //未訪問
 206:C:/Users/leopi/Documents/vs/S-Reo/MazeLibrary\dfs.c **** 						++cnt;
 207:C:/Users/leopi/Documents/vs/S-Reo/MazeLibrary\dfs.c **** 						mass_stack[n+cnt].x = now_st->pos.x+1;
 208:C:/Users/leopi/Documents/vs/S-Reo/MazeLibrary\dfs.c **** 						mass_stack[n+cnt].y = now_st->pos.y;
 209:C:/Users/leopi/Documents/vs/S-Reo/MazeLibrary\dfs.c **** 					}
 210:C:/Users/leopi/Documents/vs/S-Reo/MazeLibrary\dfs.c **** 				}
 211:C:/Users/leopi/Documents/vs/S-Reo/MazeLibrary\dfs.c **** 			}
 212:C:/Users/leopi/Documents/vs/S-Reo/MazeLibrary\dfs.c **** 		}
 213:C:/Users/leopi/Documents/vs/S-Reo/MazeLibrary\dfs.c **** 
 214:C:/Users/leopi/Documents/vs/S-Reo/MazeLibrary\dfs.c **** 		//前
 215:C:/Users/leopi/Documents/vs/S-Reo/MazeLibrary\dfs.c **** 		if( 1 <= nd_y ){
 216:C:/Users/leopi/Documents/vs/S-Reo/MazeLibrary\dfs.c **** 			if( maze->RawNode[nd_x][nd_y-1].existence == NOWALL ){ //行ける
 217:C:/Users/leopi/Documents/vs/S-Reo/MazeLibrary\dfs.c **** 				if( 1 <= y){
 218:C:/Users/leopi/Documents/vs/S-Reo/MazeLibrary\dfs.c **** 					if( Visit[x][y-1] == false ){ //未訪問
 219:C:/Users/leopi/Documents/vs/S-Reo/MazeLibrary\dfs.c **** 						++cnt;
 220:C:/Users/leopi/Documents/vs/S-Reo/MazeLibrary\dfs.c **** 						mass_stack[n+cnt].x = now_st->pos.x;
 221:C:/Users/leopi/Documents/vs/S-Reo/MazeLibrary\dfs.c **** 						mass_stack[n+cnt].y = now_st->pos.y-1;
 222:C:/Users/leopi/Documents/vs/S-Reo/MazeLibrary\dfs.c **** 					}
 223:C:/Users/leopi/Documents/vs/S-Reo/MazeLibrary\dfs.c **** 				}
 224:C:/Users/leopi/Documents/vs/S-Reo/MazeLibrary\dfs.c **** 			}
 225:C:/Users/leopi/Documents/vs/S-Reo/MazeLibrary\dfs.c **** 		}
 226:C:/Users/leopi/Documents/vs/S-Reo/MazeLibrary\dfs.c **** 		break;
 227:C:/Users/leopi/Documents/vs/S-Reo/MazeLibrary\dfs.c **** 	case west:
 228:C:/Users/leopi/Documents/vs/S-Reo/MazeLibrary\dfs.c **** 		//右
 229:C:/Users/leopi/Documents/vs/S-Reo/MazeLibrary\dfs.c **** 		if( (1 <= nd_x) && (nd_y <= (NUMBER_OF_SQUARES_Y-1)) ){
 230:C:/Users/leopi/Documents/vs/S-Reo/MazeLibrary\dfs.c **** 			if( maze->RawNode[nd_x-1][nd_y+1].existence == NOWALL ){ //行ける
 231:C:/Users/leopi/Documents/vs/S-Reo/MazeLibrary\dfs.c **** 				if( y < (NUMBER_OF_SQUARES_Y -1) ){
 232:C:/Users/leopi/Documents/vs/S-Reo/MazeLibrary\dfs.c **** 					if( Visit[x][y+1] == false ){ //未訪問
 233:C:/Users/leopi/Documents/vs/S-Reo/MazeLibrary\dfs.c **** 						++cnt;
 234:C:/Users/leopi/Documents/vs/S-Reo/MazeLibrary\dfs.c **** 						mass_stack[n+cnt].x = now_st->pos.x;
 235:C:/Users/leopi/Documents/vs/S-Reo/MazeLibrary\dfs.c **** 						mass_stack[n+cnt].y = now_st->pos.y+1;
 236:C:/Users/leopi/Documents/vs/S-Reo/MazeLibrary\dfs.c **** 					}
 237:C:/Users/leopi/Documents/vs/S-Reo/MazeLibrary\dfs.c **** 				}
 238:C:/Users/leopi/Documents/vs/S-Reo/MazeLibrary\dfs.c **** 			}
 239:C:/Users/leopi/Documents/vs/S-Reo/MazeLibrary\dfs.c **** 		}//前方の三方向だけ. 後ろは積まない. これを積むと重複
 240:C:/Users/leopi/Documents/vs/S-Reo/MazeLibrary\dfs.c **** 		//左
 241:C:/Users/leopi/Documents/vs/S-Reo/MazeLibrary\dfs.c **** 		if( 1 <= nd_x ){
 242:C:/Users/leopi/Documents/vs/S-Reo/MazeLibrary\dfs.c **** 			if( maze->RawNode[nd_x-1][nd_y].existence == NOWALL ){ //行ける
 243:C:/Users/leopi/Documents/vs/S-Reo/MazeLibrary\dfs.c **** 				if( 1 <= y ){
 244:C:/Users/leopi/Documents/vs/S-Reo/MazeLibrary\dfs.c **** 					if( Visit[x][y-1] == false ){ //未訪問
 245:C:/Users/leopi/Documents/vs/S-Reo/MazeLibrary\dfs.c **** 						++cnt;
 246:C:/Users/leopi/Documents/vs/S-Reo/MazeLibrary\dfs.c **** 						mass_stack[n+cnt].x = now_st->pos.x;
ARM GAS  C:\Users\leopi\AppData\Local\Temp\ccx6VW8D.s 			page 20


 247:C:/Users/leopi/Documents/vs/S-Reo/MazeLibrary\dfs.c **** 						mass_stack[n+cnt].y = now_st->pos.y-1;
 248:C:/Users/leopi/Documents/vs/S-Reo/MazeLibrary\dfs.c **** 					}
 249:C:/Users/leopi/Documents/vs/S-Reo/MazeLibrary\dfs.c **** 				}
 250:C:/Users/leopi/Documents/vs/S-Reo/MazeLibrary\dfs.c **** 			}
 251:C:/Users/leopi/Documents/vs/S-Reo/MazeLibrary\dfs.c **** 		}
 252:C:/Users/leopi/Documents/vs/S-Reo/MazeLibrary\dfs.c **** 		//前
 253:C:/Users/leopi/Documents/vs/S-Reo/MazeLibrary\dfs.c **** 		if(1 <= nd_x){
 254:C:/Users/leopi/Documents/vs/S-Reo/MazeLibrary\dfs.c **** 			if( maze->ColumnNode[nd_x-1][nd_y].existence == NOWALL ){ //行ける
 255:C:/Users/leopi/Documents/vs/S-Reo/MazeLibrary\dfs.c **** 				if( 1 <= x){
 256:C:/Users/leopi/Documents/vs/S-Reo/MazeLibrary\dfs.c **** 					if( Visit[x-1][y] == false ){ //未訪問
 257:C:/Users/leopi/Documents/vs/S-Reo/MazeLibrary\dfs.c **** 						++cnt;
 258:C:/Users/leopi/Documents/vs/S-Reo/MazeLibrary\dfs.c **** 						mass_stack[n+cnt].x = now_st->pos.x-1;
 259:C:/Users/leopi/Documents/vs/S-Reo/MazeLibrary\dfs.c **** 						mass_stack[n+cnt].y = now_st->pos.y;
 260:C:/Users/leopi/Documents/vs/S-Reo/MazeLibrary\dfs.c **** 					}
 261:C:/Users/leopi/Documents/vs/S-Reo/MazeLibrary\dfs.c **** 				}
 262:C:/Users/leopi/Documents/vs/S-Reo/MazeLibrary\dfs.c **** 			}
 263:C:/Users/leopi/Documents/vs/S-Reo/MazeLibrary\dfs.c **** 		}
 264:C:/Users/leopi/Documents/vs/S-Reo/MazeLibrary\dfs.c **** 		break;
 265:C:/Users/leopi/Documents/vs/S-Reo/MazeLibrary\dfs.c **** 	default :
 266:C:/Users/leopi/Documents/vs/S-Reo/MazeLibrary\dfs.c **** 		return false; //エラー
 267:C:/Users/leopi/Documents/vs/S-Reo/MazeLibrary\dfs.c **** 		break;
 850              		.loc 1 267 3 is_stmt 1 view .LVU190
 268:C:/Users/leopi/Documents/vs/S-Reo/MazeLibrary\dfs.c **** 	}
 269:C:/Users/leopi/Documents/vs/S-Reo/MazeLibrary\dfs.c **** 	SetStackNum(n+cnt);
 851              		.loc 1 269 2 view .LVU191
 852 00fe 3044     		add	r0, r0, r6
 853              	.LVL39:
 854              		.loc 1 269 2 is_stmt 0 view .LVU192
 855 0100 FFF7FEFF 		bl	SetStackNum
 856              	.LVL40:
 270:C:/Users/leopi/Documents/vs/S-Reo/MazeLibrary\dfs.c **** 	return (cnt == 0) ? false : true; //何も積まれなかったらfalse
 857              		.loc 1 270 2 is_stmt 1 view .LVU193
 858              		.loc 1 270 28 is_stmt 0 view .LVU194
 859 0104 301E     		subs	r0, r6, #0
 860 0106 18BF     		it	ne
 861 0108 0120     		movne	r0, #1
 862              	.LVL41:
 863              	.L65:
 271:C:/Users/leopi/Documents/vs/S-Reo/MazeLibrary\dfs.c **** //	return n;
 272:C:/Users/leopi/Documents/vs/S-Reo/MazeLibrary\dfs.c **** //	}
 273:C:/Users/leopi/Documents/vs/S-Reo/MazeLibrary\dfs.c **** }
 864              		.loc 1 273 1 view .LVU195
 865 010a BDE8F087 		pop	{r4, r5, r6, r7, r8, r9, r10, pc}
 866              	.LVL42:
 867              	.L82:
 105:C:/Users/leopi/Documents/vs/S-Reo/MazeLibrary\dfs.c **** 	//スタックの流れ
 868              		.loc 1 105 6 view .LVU196
 869 010e 0026     		movs	r6, #0
 870              	.LVL43:
 105:C:/Users/leopi/Documents/vs/S-Reo/MazeLibrary\dfs.c **** 	//スタックの流れ
 871              		.loc 1 105 6 view .LVU197
 872 0110 B7E7     		b	.L71
 873              	.LVL44:
 874              	.L83:
 105:C:/Users/leopi/Documents/vs/S-Reo/MazeLibrary\dfs.c **** 	//スタックの流れ
 875              		.loc 1 105 6 view .LVU198
 876 0112 0026     		movs	r6, #0
ARM GAS  C:\Users\leopi\AppData\Local\Temp\ccx6VW8D.s 			page 21


 877              	.LVL45:
 105:C:/Users/leopi/Documents/vs/S-Reo/MazeLibrary\dfs.c **** 	//スタックの流れ
 878              		.loc 1 105 6 view .LVU199
 879 0114 B5E7     		b	.L71
 880              	.LVL46:
 881              	.L84:
 105:C:/Users/leopi/Documents/vs/S-Reo/MazeLibrary\dfs.c **** 	//スタックの流れ
 882              		.loc 1 105 6 view .LVU200
 883 0116 0026     		movs	r6, #0
 884              	.LVL47:
 105:C:/Users/leopi/Documents/vs/S-Reo/MazeLibrary\dfs.c **** 	//スタックの流れ
 885              		.loc 1 105 6 view .LVU201
 886 0118 B3E7     		b	.L71
 887              	.LVL48:
 888              	.L69:
 154:C:/Users/leopi/Documents/vs/S-Reo/MazeLibrary\dfs.c **** 			if( 1 <= y){
 889              		.loc 1 154 3 is_stmt 1 view .LVU202
 154:C:/Users/leopi/Documents/vs/S-Reo/MazeLibrary\dfs.c **** 			if( 1 <= y){
 890              		.loc 1 154 32 is_stmt 0 view .LVU203
 891 011a 05EB4513 		add	r3, r5, r5, lsl #5
 892 011e 4344     		add	r3, r3, r8
 893 0120 17F83330 		ldrb	r3, [r7, r3, lsl #3]	@ zero_extendqisi2
 154:C:/Users/leopi/Documents/vs/S-Reo/MazeLibrary\dfs.c **** 			if( 1 <= y){
 894              		.loc 1 154 5 view .LVU204
 895 0124 ABB9     		cbnz	r3, .L85
 155:C:/Users/leopi/Documents/vs/S-Reo/MazeLibrary\dfs.c **** 				if( Visit[x][y-1] == false ){ //未訪問
 896              		.loc 1 155 4 is_stmt 1 view .LVU205
 155:C:/Users/leopi/Documents/vs/S-Reo/MazeLibrary\dfs.c **** 				if( Visit[x][y-1] == false ){ //未訪問
 897              		.loc 1 155 6 is_stmt 0 view .LVU206
 898 0126 BAF1000F 		cmp	r10, #0
 899 012a 56D0     		beq	.L86
 156:C:/Users/leopi/Documents/vs/S-Reo/MazeLibrary\dfs.c **** 					++cnt;
 900              		.loc 1 156 5 is_stmt 1 view .LVU207
 156:C:/Users/leopi/Documents/vs/S-Reo/MazeLibrary\dfs.c **** 					++cnt;
 901              		.loc 1 156 19 is_stmt 0 view .LVU208
 902 012c 0AF1FF33 		add	r3, r10, #-1
 156:C:/Users/leopi/Documents/vs/S-Reo/MazeLibrary\dfs.c **** 					++cnt;
 903              		.loc 1 156 17 view .LVU209
 904 0130 7A4A     		ldr	r2, .L98
 905 0132 02EB4912 		add	r2, r2, r9, lsl #5
 906 0136 D35C     		ldrb	r3, [r2, r3]	@ zero_extendqisi2
 156:C:/Users/leopi/Documents/vs/S-Reo/MazeLibrary\dfs.c **** 					++cnt;
 907              		.loc 1 156 7 view .LVU210
 908 0138 002B     		cmp	r3, #0
 909 013a 50D1     		bne	.L87
 157:C:/Users/leopi/Documents/vs/S-Reo/MazeLibrary\dfs.c **** 					mass_stack[n+cnt].x = now_st->pos.x;
 910              		.loc 1 157 6 is_stmt 1 view .LVU211
 911              	.LVL49:
 158:C:/Users/leopi/Documents/vs/S-Reo/MazeLibrary\dfs.c **** 					mass_stack[n+cnt].y = (now_st->pos.y ) - 1;
 912              		.loc 1 158 6 view .LVU212
 158:C:/Users/leopi/Documents/vs/S-Reo/MazeLibrary\dfs.c **** 					mass_stack[n+cnt].y = (now_st->pos.y ) - 1;
 913              		.loc 1 158 18 is_stmt 0 view .LVU213
 914 013c 421C     		adds	r2, r0, #1
 158:C:/Users/leopi/Documents/vs/S-Reo/MazeLibrary\dfs.c **** 					mass_stack[n+cnt].y = (now_st->pos.y ) - 1;
 915              		.loc 1 158 26 view .LVU214
 916 013e 784B     		ldr	r3, .L98+4
 917 0140 03F81290 		strb	r9, [r3, r2, lsl #1]
ARM GAS  C:\Users\leopi\AppData\Local\Temp\ccx6VW8D.s 			page 22


 159:C:/Users/leopi/Documents/vs/S-Reo/MazeLibrary\dfs.c **** 				}
 918              		.loc 1 159 6 is_stmt 1 view .LVU215
 159:C:/Users/leopi/Documents/vs/S-Reo/MazeLibrary\dfs.c **** 				}
 919              		.loc 1 159 40 is_stmt 0 view .LVU216
 920 0144 6178     		ldrb	r1, [r4, #1]	@ zero_extendqisi2
 159:C:/Users/leopi/Documents/vs/S-Reo/MazeLibrary\dfs.c **** 				}
 921              		.loc 1 159 45 view .LVU217
 922 0146 0139     		subs	r1, r1, #1
 159:C:/Users/leopi/Documents/vs/S-Reo/MazeLibrary\dfs.c **** 				}
 923              		.loc 1 159 26 view .LVU218
 924 0148 03EB4203 		add	r3, r3, r2, lsl #1
 925 014c 5970     		strb	r1, [r3, #1]
 157:C:/Users/leopi/Documents/vs/S-Reo/MazeLibrary\dfs.c **** 					mass_stack[n+cnt].x = now_st->pos.x;
 926              		.loc 1 157 6 view .LVU219
 927 014e 0126     		movs	r6, #1
 928              	.LVL50:
 157:C:/Users/leopi/Documents/vs/S-Reo/MazeLibrary\dfs.c **** 					mass_stack[n+cnt].x = now_st->pos.x;
 929              		.loc 1 157 6 view .LVU220
 930 0150 00E0     		b	.L74
 931              	.LVL51:
 932              	.L85:
 105:C:/Users/leopi/Documents/vs/S-Reo/MazeLibrary\dfs.c **** 	//スタックの流れ
 933              		.loc 1 105 6 view .LVU221
 934 0152 0026     		movs	r6, #0
 935              	.LVL52:
 936              	.L74:
 164:C:/Users/leopi/Documents/vs/S-Reo/MazeLibrary\dfs.c **** 			if( maze->RawNode[nd_x][nd_y+1].existence == NOWALL ){ //行ける
 937              		.loc 1 164 3 is_stmt 1 view .LVU222
 164:C:/Users/leopi/Documents/vs/S-Reo/MazeLibrary\dfs.c **** 			if( maze->RawNode[nd_x][nd_y+1].existence == NOWALL ){ //行ける
 938              		.loc 1 164 5 is_stmt 0 view .LVU223
 939 0154 B8F11F0F 		cmp	r8, #31
 940 0158 1CD8     		bhi	.L75
 165:C:/Users/leopi/Documents/vs/S-Reo/MazeLibrary\dfs.c **** 				if( y < (NUMBER_OF_SQUARES_Y - 1)){
 941              		.loc 1 165 4 is_stmt 1 view .LVU224
 165:C:/Users/leopi/Documents/vs/S-Reo/MazeLibrary\dfs.c **** 				if( y < (NUMBER_OF_SQUARES_Y - 1)){
 942              		.loc 1 165 32 is_stmt 0 view .LVU225
 943 015a 08F10103 		add	r3, r8, #1
 165:C:/Users/leopi/Documents/vs/S-Reo/MazeLibrary\dfs.c **** 				if( y < (NUMBER_OF_SQUARES_Y - 1)){
 944              		.loc 1 165 35 view .LVU226
 945 015e 05EB4512 		add	r2, r5, r5, lsl #5
 946 0162 1344     		add	r3, r3, r2
 947 0164 17F83330 		ldrb	r3, [r7, r3, lsl #3]	@ zero_extendqisi2
 165:C:/Users/leopi/Documents/vs/S-Reo/MazeLibrary\dfs.c **** 				if( y < (NUMBER_OF_SQUARES_Y - 1)){
 948              		.loc 1 165 6 view .LVU227
 949 0168 A3B9     		cbnz	r3, .L75
 166:C:/Users/leopi/Documents/vs/S-Reo/MazeLibrary\dfs.c **** 					if( Visit[x][y+1] == false){ //未訪問
 950              		.loc 1 166 5 is_stmt 1 view .LVU228
 166:C:/Users/leopi/Documents/vs/S-Reo/MazeLibrary\dfs.c **** 					if( Visit[x][y+1] == false){ //未訪問
 951              		.loc 1 166 7 is_stmt 0 view .LVU229
 952 016a BAF11E0F 		cmp	r10, #30
 953 016e 11D8     		bhi	.L75
 167:C:/Users/leopi/Documents/vs/S-Reo/MazeLibrary\dfs.c **** 						++cnt;
 954              		.loc 1 167 6 is_stmt 1 view .LVU230
 167:C:/Users/leopi/Documents/vs/S-Reo/MazeLibrary\dfs.c **** 						++cnt;
 955              		.loc 1 167 20 is_stmt 0 view .LVU231
 956 0170 0AF10103 		add	r3, r10, #1
 167:C:/Users/leopi/Documents/vs/S-Reo/MazeLibrary\dfs.c **** 						++cnt;
ARM GAS  C:\Users\leopi\AppData\Local\Temp\ccx6VW8D.s 			page 23


 957              		.loc 1 167 18 view .LVU232
 958 0174 694A     		ldr	r2, .L98
 959 0176 02EB4912 		add	r2, r2, r9, lsl #5
 960 017a D35C     		ldrb	r3, [r2, r3]	@ zero_extendqisi2
 167:C:/Users/leopi/Documents/vs/S-Reo/MazeLibrary\dfs.c **** 						++cnt;
 961              		.loc 1 167 8 view .LVU233
 962 017c 53B9     		cbnz	r3, .L75
 168:C:/Users/leopi/Documents/vs/S-Reo/MazeLibrary\dfs.c **** 						mass_stack[n+cnt].x = now_st->pos.x;
 963              		.loc 1 168 7 is_stmt 1 view .LVU234
 964 017e 0136     		adds	r6, r6, #1
 965              	.LVL53:
 169:C:/Users/leopi/Documents/vs/S-Reo/MazeLibrary\dfs.c **** 						mass_stack[n+cnt].y = (now_st->pos.y) + 1;
 966              		.loc 1 169 7 view .LVU235
 169:C:/Users/leopi/Documents/vs/S-Reo/MazeLibrary\dfs.c **** 						mass_stack[n+cnt].y = (now_st->pos.y) + 1;
 967              		.loc 1 169 19 is_stmt 0 view .LVU236
 968 0180 8119     		adds	r1, r0, r6
 169:C:/Users/leopi/Documents/vs/S-Reo/MazeLibrary\dfs.c **** 						mass_stack[n+cnt].y = (now_st->pos.y) + 1;
 969              		.loc 1 169 40 view .LVU237
 970 0182 2278     		ldrb	r2, [r4]	@ zero_extendqisi2
 169:C:/Users/leopi/Documents/vs/S-Reo/MazeLibrary\dfs.c **** 						mass_stack[n+cnt].y = (now_st->pos.y) + 1;
 971              		.loc 1 169 27 view .LVU238
 972 0184 664B     		ldr	r3, .L98+4
 973 0186 03F81120 		strb	r2, [r3, r1, lsl #1]
 170:C:/Users/leopi/Documents/vs/S-Reo/MazeLibrary\dfs.c **** 					}
 974              		.loc 1 170 7 is_stmt 1 view .LVU239
 170:C:/Users/leopi/Documents/vs/S-Reo/MazeLibrary\dfs.c **** 					}
 975              		.loc 1 170 41 is_stmt 0 view .LVU240
 976 018a 6278     		ldrb	r2, [r4, #1]	@ zero_extendqisi2
 170:C:/Users/leopi/Documents/vs/S-Reo/MazeLibrary\dfs.c **** 					}
 977              		.loc 1 170 45 view .LVU241
 978 018c 0132     		adds	r2, r2, #1
 170:C:/Users/leopi/Documents/vs/S-Reo/MazeLibrary\dfs.c **** 					}
 979              		.loc 1 170 27 view .LVU242
 980 018e 03EB4103 		add	r3, r3, r1, lsl #1
 981 0192 5A70     		strb	r2, [r3, #1]
 982              	.L75:
 176:C:/Users/leopi/Documents/vs/S-Reo/MazeLibrary\dfs.c **** 			if( maze->ColumnNode[nd_x+1][nd_y].existence == NOWALL ){ //行ける
 983              		.loc 1 176 3 is_stmt 1 view .LVU243
 176:C:/Users/leopi/Documents/vs/S-Reo/MazeLibrary\dfs.c **** 			if( maze->ColumnNode[nd_x+1][nd_y].existence == NOWALL ){ //行ける
 984              		.loc 1 176 5 is_stmt 0 view .LVU244
 985 0194 1F2D     		cmp	r5, #31
 986 0196 B2D8     		bhi	.L73
 177:C:/Users/leopi/Documents/vs/S-Reo/MazeLibrary\dfs.c **** 				if( x < (NUMBER_OF_SQUARES_X - 1)){
 987              		.loc 1 177 4 is_stmt 1 view .LVU245
 177:C:/Users/leopi/Documents/vs/S-Reo/MazeLibrary\dfs.c **** 				if( x < (NUMBER_OF_SQUARES_X - 1)){
 988              		.loc 1 177 29 is_stmt 0 view .LVU246
 989 0198 0135     		adds	r5, r5, #1
 990              	.LVL54:
 177:C:/Users/leopi/Documents/vs/S-Reo/MazeLibrary\dfs.c **** 				if( x < (NUMBER_OF_SQUARES_X - 1)){
 991              		.loc 1 177 38 view .LVU247
 992 019a 08EB4518 		add	r8, r8, r5, lsl #5
 993              	.LVL55:
 177:C:/Users/leopi/Documents/vs/S-Reo/MazeLibrary\dfs.c **** 				if( x < (NUMBER_OF_SQUARES_X - 1)){
 994              		.loc 1 177 38 view .LVU248
 995 019e 08F58468 		add	r8, r8, #1056
 996 01a2 17F83830 		ldrb	r3, [r7, r8, lsl #3]	@ zero_extendqisi2
 177:C:/Users/leopi/Documents/vs/S-Reo/MazeLibrary\dfs.c **** 				if( x < (NUMBER_OF_SQUARES_X - 1)){
ARM GAS  C:\Users\leopi\AppData\Local\Temp\ccx6VW8D.s 			page 24


 997              		.loc 1 177 6 view .LVU249
 998 01a6 002B     		cmp	r3, #0
 999 01a8 A9D1     		bne	.L73
 178:C:/Users/leopi/Documents/vs/S-Reo/MazeLibrary\dfs.c **** 					if( Visit[x+1][y] == false ){ //未訪問
 1000              		.loc 1 178 5 is_stmt 1 view .LVU250
 178:C:/Users/leopi/Documents/vs/S-Reo/MazeLibrary\dfs.c **** 					if( Visit[x+1][y] == false ){ //未訪問
 1001              		.loc 1 178 7 is_stmt 0 view .LVU251
 1002 01aa B9F11E0F 		cmp	r9, #30
 1003 01ae A6D8     		bhi	.L73
 179:C:/Users/leopi/Documents/vs/S-Reo/MazeLibrary\dfs.c **** 						++cnt;
 1004              		.loc 1 179 6 is_stmt 1 view .LVU252
 179:C:/Users/leopi/Documents/vs/S-Reo/MazeLibrary\dfs.c **** 						++cnt;
 1005              		.loc 1 179 17 is_stmt 0 view .LVU253
 1006 01b0 09F10109 		add	r9, r9, #1
 1007              	.LVL56:
 179:C:/Users/leopi/Documents/vs/S-Reo/MazeLibrary\dfs.c **** 						++cnt;
 1008              		.loc 1 179 20 view .LVU254
 1009 01b4 594B     		ldr	r3, .L98
 1010 01b6 03EB4919 		add	r9, r3, r9, lsl #5
 1011              	.LVL57:
 179:C:/Users/leopi/Documents/vs/S-Reo/MazeLibrary\dfs.c **** 						++cnt;
 1012              		.loc 1 179 20 view .LVU255
 1013 01ba 19F80A30 		ldrb	r3, [r9, r10]	@ zero_extendqisi2
 179:C:/Users/leopi/Documents/vs/S-Reo/MazeLibrary\dfs.c **** 						++cnt;
 1014              		.loc 1 179 8 view .LVU256
 1015 01be 002B     		cmp	r3, #0
 1016 01c0 9DD1     		bne	.L73
 180:C:/Users/leopi/Documents/vs/S-Reo/MazeLibrary\dfs.c **** 						mass_stack[n+cnt].x = now_st->pos.x+1;
 1017              		.loc 1 180 7 is_stmt 1 view .LVU257
 1018 01c2 0136     		adds	r6, r6, #1
 1019              	.LVL58:
 181:C:/Users/leopi/Documents/vs/S-Reo/MazeLibrary\dfs.c **** 						mass_stack[n+cnt].y = now_st->pos.y;
 1020              		.loc 1 181 7 view .LVU258
 181:C:/Users/leopi/Documents/vs/S-Reo/MazeLibrary\dfs.c **** 						mass_stack[n+cnt].y = now_st->pos.y;
 1021              		.loc 1 181 40 is_stmt 0 view .LVU259
 1022 01c4 2278     		ldrb	r2, [r4]	@ zero_extendqisi2
 181:C:/Users/leopi/Documents/vs/S-Reo/MazeLibrary\dfs.c **** 						mass_stack[n+cnt].y = now_st->pos.y;
 1023              		.loc 1 181 19 view .LVU260
 1024 01c6 8119     		adds	r1, r0, r6
 181:C:/Users/leopi/Documents/vs/S-Reo/MazeLibrary\dfs.c **** 						mass_stack[n+cnt].y = now_st->pos.y;
 1025              		.loc 1 181 42 view .LVU261
 1026 01c8 0132     		adds	r2, r2, #1
 181:C:/Users/leopi/Documents/vs/S-Reo/MazeLibrary\dfs.c **** 						mass_stack[n+cnt].y = now_st->pos.y;
 1027              		.loc 1 181 27 view .LVU262
 1028 01ca 554B     		ldr	r3, .L98+4
 1029 01cc 03F81120 		strb	r2, [r3, r1, lsl #1]
 182:C:/Users/leopi/Documents/vs/S-Reo/MazeLibrary\dfs.c **** 					}
 1030              		.loc 1 182 7 is_stmt 1 view .LVU263
 182:C:/Users/leopi/Documents/vs/S-Reo/MazeLibrary\dfs.c **** 					}
 1031              		.loc 1 182 40 is_stmt 0 view .LVU264
 1032 01d0 6278     		ldrb	r2, [r4, #1]	@ zero_extendqisi2
 182:C:/Users/leopi/Documents/vs/S-Reo/MazeLibrary\dfs.c **** 					}
 1033              		.loc 1 182 27 view .LVU265
 1034 01d2 03EB4103 		add	r3, r3, r1, lsl #1
 1035 01d6 5A70     		strb	r2, [r3, #1]
 1036 01d8 91E7     		b	.L73
 1037              	.LVL59:
ARM GAS  C:\Users\leopi\AppData\Local\Temp\ccx6VW8D.s 			page 25


 1038              	.L86:
 105:C:/Users/leopi/Documents/vs/S-Reo/MazeLibrary\dfs.c **** 	//スタックの流れ
 1039              		.loc 1 105 6 view .LVU266
 1040 01da 0026     		movs	r6, #0
 1041              	.LVL60:
 105:C:/Users/leopi/Documents/vs/S-Reo/MazeLibrary\dfs.c **** 	//スタックの流れ
 1042              		.loc 1 105 6 view .LVU267
 1043 01dc BAE7     		b	.L74
 1044              	.LVL61:
 1045              	.L87:
 105:C:/Users/leopi/Documents/vs/S-Reo/MazeLibrary\dfs.c **** 	//スタックの流れ
 1046              		.loc 1 105 6 view .LVU268
 1047 01de 0026     		movs	r6, #0
 1048              	.LVL62:
 105:C:/Users/leopi/Documents/vs/S-Reo/MazeLibrary\dfs.c **** 	//スタックの流れ
 1049              		.loc 1 105 6 view .LVU269
 1050 01e0 B8E7     		b	.L74
 1051              	.LVL63:
 1052              	.L68:
 190:C:/Users/leopi/Documents/vs/S-Reo/MazeLibrary\dfs.c **** 			if( maze->ColumnNode[nd_x][nd_y-1].existence == NOWALL ){ //行ける
 1053              		.loc 1 190 3 is_stmt 1 view .LVU270
 190:C:/Users/leopi/Documents/vs/S-Reo/MazeLibrary\dfs.c **** 			if( maze->ColumnNode[nd_x][nd_y-1].existence == NOWALL ){ //行ける
 1054              		.loc 1 190 5 is_stmt 0 view .LVU271
 1055 01e2 B8F1000F 		cmp	r8, #0
 1056 01e6 21D0     		beq	.L88
 191:C:/Users/leopi/Documents/vs/S-Reo/MazeLibrary\dfs.c **** 				if( 1 <= x){
 1057              		.loc 1 191 4 is_stmt 1 view .LVU272
 191:C:/Users/leopi/Documents/vs/S-Reo/MazeLibrary\dfs.c **** 				if( 1 <= x){
 1058              		.loc 1 191 35 is_stmt 0 view .LVU273
 1059 01e8 08F1FF33 		add	r3, r8, #-1
 191:C:/Users/leopi/Documents/vs/S-Reo/MazeLibrary\dfs.c **** 				if( 1 <= x){
 1060              		.loc 1 191 38 view .LVU274
 1061 01ec 03EB4513 		add	r3, r3, r5, lsl #5
 1062 01f0 03F58463 		add	r3, r3, #1056
 1063 01f4 17F83330 		ldrb	r3, [r7, r3, lsl #3]	@ zero_extendqisi2
 191:C:/Users/leopi/Documents/vs/S-Reo/MazeLibrary\dfs.c **** 				if( 1 <= x){
 1064              		.loc 1 191 6 view .LVU275
 1065 01f8 002B     		cmp	r3, #0
 1066 01fa 65D1     		bne	.L89
 192:C:/Users/leopi/Documents/vs/S-Reo/MazeLibrary\dfs.c **** 					if( Visit[x-1][y] == false ){ //未訪問
 1067              		.loc 1 192 5 is_stmt 1 view .LVU276
 192:C:/Users/leopi/Documents/vs/S-Reo/MazeLibrary\dfs.c **** 					if( Visit[x-1][y] == false ){ //未訪問
 1068              		.loc 1 192 7 is_stmt 0 view .LVU277
 1069 01fc B9F1000F 		cmp	r9, #0
 1070 0200 64D0     		beq	.L90
 193:C:/Users/leopi/Documents/vs/S-Reo/MazeLibrary\dfs.c **** 						++cnt;
 1071              		.loc 1 193 6 is_stmt 1 view .LVU278
 193:C:/Users/leopi/Documents/vs/S-Reo/MazeLibrary\dfs.c **** 						++cnt;
 1072              		.loc 1 193 17 is_stmt 0 view .LVU279
 1073 0202 09F1FF33 		add	r3, r9, #-1
 193:C:/Users/leopi/Documents/vs/S-Reo/MazeLibrary\dfs.c **** 						++cnt;
 1074              		.loc 1 193 20 view .LVU280
 1075 0206 454A     		ldr	r2, .L98
 1076 0208 02EB4313 		add	r3, r2, r3, lsl #5
 1077 020c 13F80A30 		ldrb	r3, [r3, r10]	@ zero_extendqisi2
 193:C:/Users/leopi/Documents/vs/S-Reo/MazeLibrary\dfs.c **** 						++cnt;
 1078              		.loc 1 193 8 view .LVU281
ARM GAS  C:\Users\leopi\AppData\Local\Temp\ccx6VW8D.s 			page 26


 1079 0210 002B     		cmp	r3, #0
 1080 0212 5DD1     		bne	.L91
 194:C:/Users/leopi/Documents/vs/S-Reo/MazeLibrary\dfs.c **** 						mass_stack[n+cnt].x = now_st->pos.x-1;
 1081              		.loc 1 194 7 is_stmt 1 view .LVU282
 1082              	.LVL64:
 195:C:/Users/leopi/Documents/vs/S-Reo/MazeLibrary\dfs.c **** 						mass_stack[n+cnt].y = now_st->pos.y;
 1083              		.loc 1 195 7 view .LVU283
 195:C:/Users/leopi/Documents/vs/S-Reo/MazeLibrary\dfs.c **** 						mass_stack[n+cnt].y = now_st->pos.y;
 1084              		.loc 1 195 19 is_stmt 0 view .LVU284
 1085 0214 421C     		adds	r2, r0, #1
 195:C:/Users/leopi/Documents/vs/S-Reo/MazeLibrary\dfs.c **** 						mass_stack[n+cnt].y = now_st->pos.y;
 1086              		.loc 1 195 42 view .LVU285
 1087 0216 09F1FF31 		add	r1, r9, #-1
 195:C:/Users/leopi/Documents/vs/S-Reo/MazeLibrary\dfs.c **** 						mass_stack[n+cnt].y = now_st->pos.y;
 1088              		.loc 1 195 27 view .LVU286
 1089 021a 414B     		ldr	r3, .L98+4
 1090 021c 03F81210 		strb	r1, [r3, r2, lsl #1]
 196:C:/Users/leopi/Documents/vs/S-Reo/MazeLibrary\dfs.c **** 					}
 1091              		.loc 1 196 7 is_stmt 1 view .LVU287
 196:C:/Users/leopi/Documents/vs/S-Reo/MazeLibrary\dfs.c **** 					}
 1092              		.loc 1 196 40 is_stmt 0 view .LVU288
 1093 0220 6178     		ldrb	r1, [r4, #1]	@ zero_extendqisi2
 196:C:/Users/leopi/Documents/vs/S-Reo/MazeLibrary\dfs.c **** 					}
 1094              		.loc 1 196 27 view .LVU289
 1095 0222 03EB4203 		add	r3, r3, r2, lsl #1
 1096 0226 5970     		strb	r1, [r3, #1]
 194:C:/Users/leopi/Documents/vs/S-Reo/MazeLibrary\dfs.c **** 						mass_stack[n+cnt].x = now_st->pos.x-1;
 1097              		.loc 1 194 7 view .LVU290
 1098 0228 0126     		movs	r6, #1
 1099              	.LVL65:
 194:C:/Users/leopi/Documents/vs/S-Reo/MazeLibrary\dfs.c **** 						mass_stack[n+cnt].x = now_st->pos.x-1;
 1100              		.loc 1 194 7 view .LVU291
 1101 022a 00E0     		b	.L76
 1102              	.LVL66:
 1103              	.L88:
 105:C:/Users/leopi/Documents/vs/S-Reo/MazeLibrary\dfs.c **** 	//スタックの流れ
 1104              		.loc 1 105 6 view .LVU292
 1105 022c 0026     		movs	r6, #0
 1106              	.LVL67:
 1107              	.L76:
 202:C:/Users/leopi/Documents/vs/S-Reo/MazeLibrary\dfs.c **** 			if( maze->ColumnNode[nd_x+1][nd_y-1].existence == NOWALL ){ //行ける
 1108              		.loc 1 202 3 is_stmt 1 view .LVU293
 202:C:/Users/leopi/Documents/vs/S-Reo/MazeLibrary\dfs.c **** 			if( maze->ColumnNode[nd_x+1][nd_y-1].existence == NOWALL ){ //行ける
 1109              		.loc 1 202 5 is_stmt 0 view .LVU294
 1110 022e 1F2D     		cmp	r5, #31
 1111 0230 22D8     		bhi	.L77
 202:C:/Users/leopi/Documents/vs/S-Reo/MazeLibrary\dfs.c **** 			if( maze->ColumnNode[nd_x+1][nd_y-1].existence == NOWALL ){ //行ける
 1112              		.loc 1 202 38 discriminator 1 view .LVU295
 1113 0232 B8F1000F 		cmp	r8, #0
 1114 0236 1FD0     		beq	.L77
 203:C:/Users/leopi/Documents/vs/S-Reo/MazeLibrary\dfs.c **** 				if( x < (NUMBER_OF_SQUARES_X - 1) ){
 1115              		.loc 1 203 4 is_stmt 1 view .LVU296
 203:C:/Users/leopi/Documents/vs/S-Reo/MazeLibrary\dfs.c **** 				if( x < (NUMBER_OF_SQUARES_X - 1) ){
 1116              		.loc 1 203 29 is_stmt 0 view .LVU297
 1117 0238 6B1C     		adds	r3, r5, #1
 203:C:/Users/leopi/Documents/vs/S-Reo/MazeLibrary\dfs.c **** 				if( x < (NUMBER_OF_SQUARES_X - 1) ){
 1118              		.loc 1 203 37 view .LVU298
ARM GAS  C:\Users\leopi\AppData\Local\Temp\ccx6VW8D.s 			page 27


 1119 023a 08F1FF32 		add	r2, r8, #-1
 203:C:/Users/leopi/Documents/vs/S-Reo/MazeLibrary\dfs.c **** 				if( x < (NUMBER_OF_SQUARES_X - 1) ){
 1120              		.loc 1 203 40 view .LVU299
 1121 023e 02EB4313 		add	r3, r2, r3, lsl #5
 1122 0242 03F58463 		add	r3, r3, #1056
 1123 0246 17F83330 		ldrb	r3, [r7, r3, lsl #3]	@ zero_extendqisi2
 203:C:/Users/leopi/Documents/vs/S-Reo/MazeLibrary\dfs.c **** 				if( x < (NUMBER_OF_SQUARES_X - 1) ){
 1124              		.loc 1 203 6 view .LVU300
 1125 024a ABB9     		cbnz	r3, .L77
 204:C:/Users/leopi/Documents/vs/S-Reo/MazeLibrary\dfs.c **** 					if( Visit[x+1][y] == false ){ //未訪問
 1126              		.loc 1 204 5 is_stmt 1 view .LVU301
 204:C:/Users/leopi/Documents/vs/S-Reo/MazeLibrary\dfs.c **** 					if( Visit[x+1][y] == false ){ //未訪問
 1127              		.loc 1 204 7 is_stmt 0 view .LVU302
 1128 024c B9F11E0F 		cmp	r9, #30
 1129 0250 12D8     		bhi	.L77
 205:C:/Users/leopi/Documents/vs/S-Reo/MazeLibrary\dfs.c **** 						++cnt;
 1130              		.loc 1 205 6 is_stmt 1 view .LVU303
 205:C:/Users/leopi/Documents/vs/S-Reo/MazeLibrary\dfs.c **** 						++cnt;
 1131              		.loc 1 205 17 is_stmt 0 view .LVU304
 1132 0252 09F10103 		add	r3, r9, #1
 205:C:/Users/leopi/Documents/vs/S-Reo/MazeLibrary\dfs.c **** 						++cnt;
 1133              		.loc 1 205 20 view .LVU305
 1134 0256 314A     		ldr	r2, .L98
 1135 0258 02EB4313 		add	r3, r2, r3, lsl #5
 1136 025c 13F80A30 		ldrb	r3, [r3, r10]	@ zero_extendqisi2
 205:C:/Users/leopi/Documents/vs/S-Reo/MazeLibrary\dfs.c **** 						++cnt;
 1137              		.loc 1 205 8 view .LVU306
 1138 0260 53B9     		cbnz	r3, .L77
 206:C:/Users/leopi/Documents/vs/S-Reo/MazeLibrary\dfs.c **** 						mass_stack[n+cnt].x = now_st->pos.x+1;
 1139              		.loc 1 206 7 is_stmt 1 view .LVU307
 1140 0262 0136     		adds	r6, r6, #1
 1141              	.LVL68:
 207:C:/Users/leopi/Documents/vs/S-Reo/MazeLibrary\dfs.c **** 						mass_stack[n+cnt].y = now_st->pos.y;
 1142              		.loc 1 207 7 view .LVU308
 207:C:/Users/leopi/Documents/vs/S-Reo/MazeLibrary\dfs.c **** 						mass_stack[n+cnt].y = now_st->pos.y;
 1143              		.loc 1 207 40 is_stmt 0 view .LVU309
 1144 0264 2278     		ldrb	r2, [r4]	@ zero_extendqisi2
 207:C:/Users/leopi/Documents/vs/S-Reo/MazeLibrary\dfs.c **** 						mass_stack[n+cnt].y = now_st->pos.y;
 1145              		.loc 1 207 19 view .LVU310
 1146 0266 8119     		adds	r1, r0, r6
 207:C:/Users/leopi/Documents/vs/S-Reo/MazeLibrary\dfs.c **** 						mass_stack[n+cnt].y = now_st->pos.y;
 1147              		.loc 1 207 42 view .LVU311
 1148 0268 0132     		adds	r2, r2, #1
 207:C:/Users/leopi/Documents/vs/S-Reo/MazeLibrary\dfs.c **** 						mass_stack[n+cnt].y = now_st->pos.y;
 1149              		.loc 1 207 27 view .LVU312
 1150 026a 2D4B     		ldr	r3, .L98+4
 1151 026c 03F81120 		strb	r2, [r3, r1, lsl #1]
 208:C:/Users/leopi/Documents/vs/S-Reo/MazeLibrary\dfs.c **** 					}
 1152              		.loc 1 208 7 is_stmt 1 view .LVU313
 208:C:/Users/leopi/Documents/vs/S-Reo/MazeLibrary\dfs.c **** 					}
 1153              		.loc 1 208 40 is_stmt 0 view .LVU314
 1154 0270 6278     		ldrb	r2, [r4, #1]	@ zero_extendqisi2
 208:C:/Users/leopi/Documents/vs/S-Reo/MazeLibrary\dfs.c **** 					}
 1155              		.loc 1 208 27 view .LVU315
 1156 0272 03EB4103 		add	r3, r3, r1, lsl #1
 1157 0276 5A70     		strb	r2, [r3, #1]
 1158              	.L77:
ARM GAS  C:\Users\leopi\AppData\Local\Temp\ccx6VW8D.s 			page 28


 215:C:/Users/leopi/Documents/vs/S-Reo/MazeLibrary\dfs.c **** 			if( maze->RawNode[nd_x][nd_y-1].existence == NOWALL ){ //行ける
 1159              		.loc 1 215 3 is_stmt 1 view .LVU316
 215:C:/Users/leopi/Documents/vs/S-Reo/MazeLibrary\dfs.c **** 			if( maze->RawNode[nd_x][nd_y-1].existence == NOWALL ){ //行ける
 1160              		.loc 1 215 5 is_stmt 0 view .LVU317
 1161 0278 B8F1000F 		cmp	r8, #0
 1162 027c 3FF43FAF 		beq	.L73
 216:C:/Users/leopi/Documents/vs/S-Reo/MazeLibrary\dfs.c **** 				if( 1 <= y){
 1163              		.loc 1 216 4 is_stmt 1 view .LVU318
 216:C:/Users/leopi/Documents/vs/S-Reo/MazeLibrary\dfs.c **** 				if( 1 <= y){
 1164              		.loc 1 216 32 is_stmt 0 view .LVU319
 1165 0280 08F1FF38 		add	r8, r8, #-1
 1166              	.LVL69:
 216:C:/Users/leopi/Documents/vs/S-Reo/MazeLibrary\dfs.c **** 				if( 1 <= y){
 1167              		.loc 1 216 35 view .LVU320
 1168 0284 05EB4515 		add	r5, r5, r5, lsl #5
 1169              	.LVL70:
 216:C:/Users/leopi/Documents/vs/S-Reo/MazeLibrary\dfs.c **** 				if( 1 <= y){
 1170              		.loc 1 216 35 view .LVU321
 1171 0288 4544     		add	r5, r5, r8
 1172 028a 17F83530 		ldrb	r3, [r7, r5, lsl #3]	@ zero_extendqisi2
 216:C:/Users/leopi/Documents/vs/S-Reo/MazeLibrary\dfs.c **** 				if( 1 <= y){
 1173              		.loc 1 216 6 view .LVU322
 1174 028e 002B     		cmp	r3, #0
 1175 0290 7FF435AF 		bne	.L73
 217:C:/Users/leopi/Documents/vs/S-Reo/MazeLibrary\dfs.c **** 					if( Visit[x][y-1] == false ){ //未訪問
 1176              		.loc 1 217 5 is_stmt 1 view .LVU323
 217:C:/Users/leopi/Documents/vs/S-Reo/MazeLibrary\dfs.c **** 					if( Visit[x][y-1] == false ){ //未訪問
 1177              		.loc 1 217 7 is_stmt 0 view .LVU324
 1178 0294 BAF1000F 		cmp	r10, #0
 1179 0298 3FF431AF 		beq	.L73
 218:C:/Users/leopi/Documents/vs/S-Reo/MazeLibrary\dfs.c **** 						++cnt;
 1180              		.loc 1 218 6 is_stmt 1 view .LVU325
 218:C:/Users/leopi/Documents/vs/S-Reo/MazeLibrary\dfs.c **** 						++cnt;
 1181              		.loc 1 218 20 is_stmt 0 view .LVU326
 1182 029c 0AF1FF3A 		add	r10, r10, #-1
 1183              	.LVL71:
 218:C:/Users/leopi/Documents/vs/S-Reo/MazeLibrary\dfs.c **** 						++cnt;
 1184              		.loc 1 218 18 view .LVU327
 1185 02a0 1E4B     		ldr	r3, .L98
 1186 02a2 03EB4919 		add	r9, r3, r9, lsl #5
 1187              	.LVL72:
 218:C:/Users/leopi/Documents/vs/S-Reo/MazeLibrary\dfs.c **** 						++cnt;
 1188              		.loc 1 218 18 view .LVU328
 1189 02a6 19F80A30 		ldrb	r3, [r9, r10]	@ zero_extendqisi2
 218:C:/Users/leopi/Documents/vs/S-Reo/MazeLibrary\dfs.c **** 						++cnt;
 1190              		.loc 1 218 8 view .LVU329
 1191 02aa 002B     		cmp	r3, #0
 1192 02ac 7FF427AF 		bne	.L73
 219:C:/Users/leopi/Documents/vs/S-Reo/MazeLibrary\dfs.c **** 						mass_stack[n+cnt].x = now_st->pos.x;
 1193              		.loc 1 219 7 is_stmt 1 view .LVU330
 1194 02b0 0136     		adds	r6, r6, #1
 1195              	.LVL73:
 220:C:/Users/leopi/Documents/vs/S-Reo/MazeLibrary\dfs.c **** 						mass_stack[n+cnt].y = now_st->pos.y-1;
 1196              		.loc 1 220 7 view .LVU331
 220:C:/Users/leopi/Documents/vs/S-Reo/MazeLibrary\dfs.c **** 						mass_stack[n+cnt].y = now_st->pos.y-1;
 1197              		.loc 1 220 19 is_stmt 0 view .LVU332
 1198 02b2 8119     		adds	r1, r0, r6
ARM GAS  C:\Users\leopi\AppData\Local\Temp\ccx6VW8D.s 			page 29


 220:C:/Users/leopi/Documents/vs/S-Reo/MazeLibrary\dfs.c **** 						mass_stack[n+cnt].y = now_st->pos.y-1;
 1199              		.loc 1 220 40 view .LVU333
 1200 02b4 2278     		ldrb	r2, [r4]	@ zero_extendqisi2
 220:C:/Users/leopi/Documents/vs/S-Reo/MazeLibrary\dfs.c **** 						mass_stack[n+cnt].y = now_st->pos.y-1;
 1201              		.loc 1 220 27 view .LVU334
 1202 02b6 1A4B     		ldr	r3, .L98+4
 1203 02b8 03F81120 		strb	r2, [r3, r1, lsl #1]
 221:C:/Users/leopi/Documents/vs/S-Reo/MazeLibrary\dfs.c **** 					}
 1204              		.loc 1 221 7 is_stmt 1 view .LVU335
 221:C:/Users/leopi/Documents/vs/S-Reo/MazeLibrary\dfs.c **** 					}
 1205              		.loc 1 221 40 is_stmt 0 view .LVU336
 1206 02bc 6278     		ldrb	r2, [r4, #1]	@ zero_extendqisi2
 221:C:/Users/leopi/Documents/vs/S-Reo/MazeLibrary\dfs.c **** 					}
 1207              		.loc 1 221 42 view .LVU337
 1208 02be 013A     		subs	r2, r2, #1
 221:C:/Users/leopi/Documents/vs/S-Reo/MazeLibrary\dfs.c **** 					}
 1209              		.loc 1 221 27 view .LVU338
 1210 02c0 03EB4103 		add	r3, r3, r1, lsl #1
 1211 02c4 5A70     		strb	r2, [r3, #1]
 1212 02c6 1AE7     		b	.L73
 1213              	.LVL74:
 1214              	.L89:
 105:C:/Users/leopi/Documents/vs/S-Reo/MazeLibrary\dfs.c **** 	//スタックの流れ
 1215              		.loc 1 105 6 view .LVU339
 1216 02c8 0026     		movs	r6, #0
 1217              	.LVL75:
 105:C:/Users/leopi/Documents/vs/S-Reo/MazeLibrary\dfs.c **** 	//スタックの流れ
 1218              		.loc 1 105 6 view .LVU340
 1219 02ca B0E7     		b	.L76
 1220              	.LVL76:
 1221              	.L90:
 105:C:/Users/leopi/Documents/vs/S-Reo/MazeLibrary\dfs.c **** 	//スタックの流れ
 1222              		.loc 1 105 6 view .LVU341
 1223 02cc 0026     		movs	r6, #0
 1224              	.LVL77:
 105:C:/Users/leopi/Documents/vs/S-Reo/MazeLibrary\dfs.c **** 	//スタックの流れ
 1225              		.loc 1 105 6 view .LVU342
 1226 02ce AEE7     		b	.L76
 1227              	.LVL78:
 1228              	.L91:
 105:C:/Users/leopi/Documents/vs/S-Reo/MazeLibrary\dfs.c **** 	//スタックの流れ
 1229              		.loc 1 105 6 view .LVU343
 1230 02d0 0026     		movs	r6, #0
 1231              	.LVL79:
 105:C:/Users/leopi/Documents/vs/S-Reo/MazeLibrary\dfs.c **** 	//スタックの流れ
 1232              		.loc 1 105 6 view .LVU344
 1233 02d2 ACE7     		b	.L76
 1234              	.LVL80:
 1235              	.L66:
 229:C:/Users/leopi/Documents/vs/S-Reo/MazeLibrary\dfs.c **** 			if( maze->RawNode[nd_x-1][nd_y+1].existence == NOWALL ){ //行ける
 1236              		.loc 1 229 3 is_stmt 1 view .LVU345
 229:C:/Users/leopi/Documents/vs/S-Reo/MazeLibrary\dfs.c **** 			if( maze->RawNode[nd_x-1][nd_y+1].existence == NOWALL ){ //行ける
 1237              		.loc 1 229 5 is_stmt 0 view .LVU346
 1238 02d4 35B3     		cbz	r5, .L92
 229:C:/Users/leopi/Documents/vs/S-Reo/MazeLibrary\dfs.c **** 			if( maze->RawNode[nd_x-1][nd_y+1].existence == NOWALL ){ //行ける
 1239              		.loc 1 229 19 discriminator 1 view .LVU347
 1240 02d6 B8F11F0F 		cmp	r8, #31
ARM GAS  C:\Users\leopi\AppData\Local\Temp\ccx6VW8D.s 			page 30


 1241 02da 68D8     		bhi	.L93
 230:C:/Users/leopi/Documents/vs/S-Reo/MazeLibrary\dfs.c **** 				if( y < (NUMBER_OF_SQUARES_Y -1) ){
 1242              		.loc 1 230 4 is_stmt 1 view .LVU348
 230:C:/Users/leopi/Documents/vs/S-Reo/MazeLibrary\dfs.c **** 				if( y < (NUMBER_OF_SQUARES_Y -1) ){
 1243              		.loc 1 230 26 is_stmt 0 view .LVU349
 1244 02dc 6B1E     		subs	r3, r5, #1
 230:C:/Users/leopi/Documents/vs/S-Reo/MazeLibrary\dfs.c **** 				if( y < (NUMBER_OF_SQUARES_Y -1) ){
 1245              		.loc 1 230 34 view .LVU350
 1246 02de 08F10102 		add	r2, r8, #1
 230:C:/Users/leopi/Documents/vs/S-Reo/MazeLibrary\dfs.c **** 				if( y < (NUMBER_OF_SQUARES_Y -1) ){
 1247              		.loc 1 230 37 view .LVU351
 1248 02e2 03EB4313 		add	r3, r3, r3, lsl #5
 1249 02e6 1344     		add	r3, r3, r2
 1250 02e8 17F83330 		ldrb	r3, [r7, r3, lsl #3]	@ zero_extendqisi2
 230:C:/Users/leopi/Documents/vs/S-Reo/MazeLibrary\dfs.c **** 				if( y < (NUMBER_OF_SQUARES_Y -1) ){
 1251              		.loc 1 230 6 view .LVU352
 1252 02ec 002B     		cmp	r3, #0
 1253 02ee 60D1     		bne	.L94
 231:C:/Users/leopi/Documents/vs/S-Reo/MazeLibrary\dfs.c **** 					if( Visit[x][y+1] == false ){ //未訪問
 1254              		.loc 1 231 5 is_stmt 1 view .LVU353
 231:C:/Users/leopi/Documents/vs/S-Reo/MazeLibrary\dfs.c **** 					if( Visit[x][y+1] == false ){ //未訪問
 1255              		.loc 1 231 7 is_stmt 0 view .LVU354
 1256 02f0 BAF11E0F 		cmp	r10, #30
 1257 02f4 5FD8     		bhi	.L95
 232:C:/Users/leopi/Documents/vs/S-Reo/MazeLibrary\dfs.c **** 						++cnt;
 1258              		.loc 1 232 6 is_stmt 1 view .LVU355
 232:C:/Users/leopi/Documents/vs/S-Reo/MazeLibrary\dfs.c **** 						++cnt;
 1259              		.loc 1 232 20 is_stmt 0 view .LVU356
 1260 02f6 0AF10103 		add	r3, r10, #1
 232:C:/Users/leopi/Documents/vs/S-Reo/MazeLibrary\dfs.c **** 						++cnt;
 1261              		.loc 1 232 18 view .LVU357
 1262 02fa 084A     		ldr	r2, .L98
 1263 02fc 02EB4912 		add	r2, r2, r9, lsl #5
 1264 0300 D35C     		ldrb	r3, [r2, r3]	@ zero_extendqisi2
 232:C:/Users/leopi/Documents/vs/S-Reo/MazeLibrary\dfs.c **** 						++cnt;
 1265              		.loc 1 232 8 view .LVU358
 1266 0302 002B     		cmp	r3, #0
 1267 0304 59D1     		bne	.L96
 233:C:/Users/leopi/Documents/vs/S-Reo/MazeLibrary\dfs.c **** 						mass_stack[n+cnt].x = now_st->pos.x;
 1268              		.loc 1 233 7 is_stmt 1 view .LVU359
 1269              	.LVL81:
 234:C:/Users/leopi/Documents/vs/S-Reo/MazeLibrary\dfs.c **** 						mass_stack[n+cnt].y = now_st->pos.y+1;
 1270              		.loc 1 234 7 view .LVU360
 234:C:/Users/leopi/Documents/vs/S-Reo/MazeLibrary\dfs.c **** 						mass_stack[n+cnt].y = now_st->pos.y+1;
 1271              		.loc 1 234 19 is_stmt 0 view .LVU361
 1272 0306 421C     		adds	r2, r0, #1
 234:C:/Users/leopi/Documents/vs/S-Reo/MazeLibrary\dfs.c **** 						mass_stack[n+cnt].y = now_st->pos.y+1;
 1273              		.loc 1 234 27 view .LVU362
 1274 0308 054B     		ldr	r3, .L98+4
 1275 030a 03F81290 		strb	r9, [r3, r2, lsl #1]
 235:C:/Users/leopi/Documents/vs/S-Reo/MazeLibrary\dfs.c **** 					}
 1276              		.loc 1 235 7 is_stmt 1 view .LVU363
 235:C:/Users/leopi/Documents/vs/S-Reo/MazeLibrary\dfs.c **** 					}
 1277              		.loc 1 235 40 is_stmt 0 view .LVU364
 1278 030e 6178     		ldrb	r1, [r4, #1]	@ zero_extendqisi2
 235:C:/Users/leopi/Documents/vs/S-Reo/MazeLibrary\dfs.c **** 					}
 1279              		.loc 1 235 42 view .LVU365
ARM GAS  C:\Users\leopi\AppData\Local\Temp\ccx6VW8D.s 			page 31


 1280 0310 0131     		adds	r1, r1, #1
 235:C:/Users/leopi/Documents/vs/S-Reo/MazeLibrary\dfs.c **** 					}
 1281              		.loc 1 235 27 view .LVU366
 1282 0312 03EB4203 		add	r3, r3, r2, lsl #1
 1283 0316 5970     		strb	r1, [r3, #1]
 233:C:/Users/leopi/Documents/vs/S-Reo/MazeLibrary\dfs.c **** 						mass_stack[n+cnt].x = now_st->pos.x;
 1284              		.loc 1 233 7 view .LVU367
 1285 0318 0126     		movs	r6, #1
 1286              	.LVL82:
 233:C:/Users/leopi/Documents/vs/S-Reo/MazeLibrary\dfs.c **** 						mass_stack[n+cnt].x = now_st->pos.x;
 1287              		.loc 1 233 7 view .LVU368
 1288 031a 04E0     		b	.L78
 1289              	.L99:
 1290              		.align	2
 1291              	.L98:
 1292 031c 00000000 		.word	.LANCHOR4
 1293 0320 00000000 		.word	.LANCHOR3
 1294              	.LVL83:
 1295              	.L92:
 105:C:/Users/leopi/Documents/vs/S-Reo/MazeLibrary\dfs.c **** 	//スタックの流れ
 1296              		.loc 1 105 6 view .LVU369
 1297 0324 0026     		movs	r6, #0
 1298              	.LVL84:
 1299              	.L78:
 241:C:/Users/leopi/Documents/vs/S-Reo/MazeLibrary\dfs.c **** 			if( maze->RawNode[nd_x-1][nd_y].existence == NOWALL ){ //行ける
 1300              		.loc 1 241 3 is_stmt 1 view .LVU370
 241:C:/Users/leopi/Documents/vs/S-Reo/MazeLibrary\dfs.c **** 			if( maze->RawNode[nd_x-1][nd_y].existence == NOWALL ){ //行ける
 1301              		.loc 1 241 5 is_stmt 0 view .LVU371
 1302 0326 DDB1     		cbz	r5, .L79
 242:C:/Users/leopi/Documents/vs/S-Reo/MazeLibrary\dfs.c **** 				if( 1 <= y ){
 1303              		.loc 1 242 4 is_stmt 1 view .LVU372
 242:C:/Users/leopi/Documents/vs/S-Reo/MazeLibrary\dfs.c **** 				if( 1 <= y ){
 1304              		.loc 1 242 26 is_stmt 0 view .LVU373
 1305 0328 6B1E     		subs	r3, r5, #1
 242:C:/Users/leopi/Documents/vs/S-Reo/MazeLibrary\dfs.c **** 				if( 1 <= y ){
 1306              		.loc 1 242 35 view .LVU374
 1307 032a 03EB4313 		add	r3, r3, r3, lsl #5
 1308 032e 4344     		add	r3, r3, r8
 1309 0330 17F83330 		ldrb	r3, [r7, r3, lsl #3]	@ zero_extendqisi2
 242:C:/Users/leopi/Documents/vs/S-Reo/MazeLibrary\dfs.c **** 				if( 1 <= y ){
 1310              		.loc 1 242 6 view .LVU375
 1311 0334 A3B9     		cbnz	r3, .L79
 243:C:/Users/leopi/Documents/vs/S-Reo/MazeLibrary\dfs.c **** 					if( Visit[x][y-1] == false ){ //未訪問
 1312              		.loc 1 243 5 is_stmt 1 view .LVU376
 243:C:/Users/leopi/Documents/vs/S-Reo/MazeLibrary\dfs.c **** 					if( Visit[x][y-1] == false ){ //未訪問
 1313              		.loc 1 243 7 is_stmt 0 view .LVU377
 1314 0336 BAF1000F 		cmp	r10, #0
 1315 033a 11D0     		beq	.L79
 244:C:/Users/leopi/Documents/vs/S-Reo/MazeLibrary\dfs.c **** 						++cnt;
 1316              		.loc 1 244 6 is_stmt 1 view .LVU378
 244:C:/Users/leopi/Documents/vs/S-Reo/MazeLibrary\dfs.c **** 						++cnt;
 1317              		.loc 1 244 20 is_stmt 0 view .LVU379
 1318 033c 0AF1FF33 		add	r3, r10, #-1
 244:C:/Users/leopi/Documents/vs/S-Reo/MazeLibrary\dfs.c **** 						++cnt;
 1319              		.loc 1 244 18 view .LVU380
 1320 0340 204A     		ldr	r2, .L100
 1321 0342 02EB4912 		add	r2, r2, r9, lsl #5
ARM GAS  C:\Users\leopi\AppData\Local\Temp\ccx6VW8D.s 			page 32


 1322 0346 D35C     		ldrb	r3, [r2, r3]	@ zero_extendqisi2
 244:C:/Users/leopi/Documents/vs/S-Reo/MazeLibrary\dfs.c **** 						++cnt;
 1323              		.loc 1 244 8 view .LVU381
 1324 0348 53B9     		cbnz	r3, .L79
 245:C:/Users/leopi/Documents/vs/S-Reo/MazeLibrary\dfs.c **** 						mass_stack[n+cnt].x = now_st->pos.x;
 1325              		.loc 1 245 7 is_stmt 1 view .LVU382
 1326 034a 0136     		adds	r6, r6, #1
 1327              	.LVL85:
 246:C:/Users/leopi/Documents/vs/S-Reo/MazeLibrary\dfs.c **** 						mass_stack[n+cnt].y = now_st->pos.y-1;
 1328              		.loc 1 246 7 view .LVU383
 246:C:/Users/leopi/Documents/vs/S-Reo/MazeLibrary\dfs.c **** 						mass_stack[n+cnt].y = now_st->pos.y-1;
 1329              		.loc 1 246 19 is_stmt 0 view .LVU384
 1330 034c 8119     		adds	r1, r0, r6
 246:C:/Users/leopi/Documents/vs/S-Reo/MazeLibrary\dfs.c **** 						mass_stack[n+cnt].y = now_st->pos.y-1;
 1331              		.loc 1 246 40 view .LVU385
 1332 034e 2278     		ldrb	r2, [r4]	@ zero_extendqisi2
 246:C:/Users/leopi/Documents/vs/S-Reo/MazeLibrary\dfs.c **** 						mass_stack[n+cnt].y = now_st->pos.y-1;
 1333              		.loc 1 246 27 view .LVU386
 1334 0350 1D4B     		ldr	r3, .L100+4
 1335 0352 03F81120 		strb	r2, [r3, r1, lsl #1]
 247:C:/Users/leopi/Documents/vs/S-Reo/MazeLibrary\dfs.c **** 					}
 1336              		.loc 1 247 7 is_stmt 1 view .LVU387
 247:C:/Users/leopi/Documents/vs/S-Reo/MazeLibrary\dfs.c **** 					}
 1337              		.loc 1 247 40 is_stmt 0 view .LVU388
 1338 0356 6278     		ldrb	r2, [r4, #1]	@ zero_extendqisi2
 247:C:/Users/leopi/Documents/vs/S-Reo/MazeLibrary\dfs.c **** 					}
 1339              		.loc 1 247 42 view .LVU389
 1340 0358 013A     		subs	r2, r2, #1
 247:C:/Users/leopi/Documents/vs/S-Reo/MazeLibrary\dfs.c **** 					}
 1341              		.loc 1 247 27 view .LVU390
 1342 035a 03EB4103 		add	r3, r3, r1, lsl #1
 1343 035e 5A70     		strb	r2, [r3, #1]
 1344              	.L79:
 253:C:/Users/leopi/Documents/vs/S-Reo/MazeLibrary\dfs.c **** 			if( maze->ColumnNode[nd_x-1][nd_y].existence == NOWALL ){ //行ける
 1345              		.loc 1 253 3 is_stmt 1 view .LVU391
 253:C:/Users/leopi/Documents/vs/S-Reo/MazeLibrary\dfs.c **** 			if( maze->ColumnNode[nd_x-1][nd_y].existence == NOWALL ){ //行ける
 1346              		.loc 1 253 5 is_stmt 0 view .LVU392
 1347 0360 002D     		cmp	r5, #0
 1348 0362 3FF4CCAE 		beq	.L73
 254:C:/Users/leopi/Documents/vs/S-Reo/MazeLibrary\dfs.c **** 				if( 1 <= x){
 1349              		.loc 1 254 4 is_stmt 1 view .LVU393
 254:C:/Users/leopi/Documents/vs/S-Reo/MazeLibrary\dfs.c **** 				if( 1 <= x){
 1350              		.loc 1 254 29 is_stmt 0 view .LVU394
 1351 0366 013D     		subs	r5, r5, #1
 1352              	.LVL86:
 254:C:/Users/leopi/Documents/vs/S-Reo/MazeLibrary\dfs.c **** 				if( 1 <= x){
 1353              		.loc 1 254 38 view .LVU395
 1354 0368 08EB4515 		add	r5, r8, r5, lsl #5
 1355              	.LVL87:
 254:C:/Users/leopi/Documents/vs/S-Reo/MazeLibrary\dfs.c **** 				if( 1 <= x){
 1356              		.loc 1 254 38 view .LVU396
 1357 036c 05F58465 		add	r5, r5, #1056
 1358 0370 17F83530 		ldrb	r3, [r7, r5, lsl #3]	@ zero_extendqisi2
 254:C:/Users/leopi/Documents/vs/S-Reo/MazeLibrary\dfs.c **** 				if( 1 <= x){
 1359              		.loc 1 254 6 view .LVU397
 1360 0374 002B     		cmp	r3, #0
 1361 0376 7FF4C2AE 		bne	.L73
ARM GAS  C:\Users\leopi\AppData\Local\Temp\ccx6VW8D.s 			page 33


 255:C:/Users/leopi/Documents/vs/S-Reo/MazeLibrary\dfs.c **** 					if( Visit[x-1][y] == false ){ //未訪問
 1362              		.loc 1 255 5 is_stmt 1 view .LVU398
 255:C:/Users/leopi/Documents/vs/S-Reo/MazeLibrary\dfs.c **** 					if( Visit[x-1][y] == false ){ //未訪問
 1363              		.loc 1 255 7 is_stmt 0 view .LVU399
 1364 037a B9F1000F 		cmp	r9, #0
 1365 037e 3FF4BEAE 		beq	.L73
 256:C:/Users/leopi/Documents/vs/S-Reo/MazeLibrary\dfs.c **** 						++cnt;
 1366              		.loc 1 256 6 is_stmt 1 view .LVU400
 256:C:/Users/leopi/Documents/vs/S-Reo/MazeLibrary\dfs.c **** 						++cnt;
 1367              		.loc 1 256 17 is_stmt 0 view .LVU401
 1368 0382 09F1FF39 		add	r9, r9, #-1
 1369              	.LVL88:
 256:C:/Users/leopi/Documents/vs/S-Reo/MazeLibrary\dfs.c **** 						++cnt;
 1370              		.loc 1 256 20 view .LVU402
 1371 0386 0F4B     		ldr	r3, .L100
 1372 0388 03EB4919 		add	r9, r3, r9, lsl #5
 1373              	.LVL89:
 256:C:/Users/leopi/Documents/vs/S-Reo/MazeLibrary\dfs.c **** 						++cnt;
 1374              		.loc 1 256 20 view .LVU403
 1375 038c 19F80A30 		ldrb	r3, [r9, r10]	@ zero_extendqisi2
 256:C:/Users/leopi/Documents/vs/S-Reo/MazeLibrary\dfs.c **** 						++cnt;
 1376              		.loc 1 256 8 view .LVU404
 1377 0390 002B     		cmp	r3, #0
 1378 0392 7FF4B4AE 		bne	.L73
 257:C:/Users/leopi/Documents/vs/S-Reo/MazeLibrary\dfs.c **** 						mass_stack[n+cnt].x = now_st->pos.x-1;
 1379              		.loc 1 257 7 is_stmt 1 view .LVU405
 1380 0396 0136     		adds	r6, r6, #1
 1381              	.LVL90:
 258:C:/Users/leopi/Documents/vs/S-Reo/MazeLibrary\dfs.c **** 						mass_stack[n+cnt].y = now_st->pos.y;
 1382              		.loc 1 258 7 view .LVU406
 258:C:/Users/leopi/Documents/vs/S-Reo/MazeLibrary\dfs.c **** 						mass_stack[n+cnt].y = now_st->pos.y;
 1383              		.loc 1 258 40 is_stmt 0 view .LVU407
 1384 0398 2278     		ldrb	r2, [r4]	@ zero_extendqisi2
 258:C:/Users/leopi/Documents/vs/S-Reo/MazeLibrary\dfs.c **** 						mass_stack[n+cnt].y = now_st->pos.y;
 1385              		.loc 1 258 19 view .LVU408
 1386 039a 8119     		adds	r1, r0, r6
 258:C:/Users/leopi/Documents/vs/S-Reo/MazeLibrary\dfs.c **** 						mass_stack[n+cnt].y = now_st->pos.y;
 1387              		.loc 1 258 42 view .LVU409
 1388 039c 013A     		subs	r2, r2, #1
 258:C:/Users/leopi/Documents/vs/S-Reo/MazeLibrary\dfs.c **** 						mass_stack[n+cnt].y = now_st->pos.y;
 1389              		.loc 1 258 27 view .LVU410
 1390 039e 0A4B     		ldr	r3, .L100+4
 1391 03a0 03F81120 		strb	r2, [r3, r1, lsl #1]
 259:C:/Users/leopi/Documents/vs/S-Reo/MazeLibrary\dfs.c **** 					}
 1392              		.loc 1 259 7 is_stmt 1 view .LVU411
 259:C:/Users/leopi/Documents/vs/S-Reo/MazeLibrary\dfs.c **** 					}
 1393              		.loc 1 259 40 is_stmt 0 view .LVU412
 1394 03a4 6278     		ldrb	r2, [r4, #1]	@ zero_extendqisi2
 259:C:/Users/leopi/Documents/vs/S-Reo/MazeLibrary\dfs.c **** 					}
 1395              		.loc 1 259 27 view .LVU413
 1396 03a6 03EB4103 		add	r3, r3, r1, lsl #1
 1397 03aa 5A70     		strb	r2, [r3, #1]
 1398 03ac A7E6     		b	.L73
 1399              	.LVL91:
 1400              	.L93:
 105:C:/Users/leopi/Documents/vs/S-Reo/MazeLibrary\dfs.c **** 	//スタックの流れ
 1401              		.loc 1 105 6 view .LVU414
ARM GAS  C:\Users\leopi\AppData\Local\Temp\ccx6VW8D.s 			page 34


 1402 03ae 0026     		movs	r6, #0
 1403              	.LVL92:
 105:C:/Users/leopi/Documents/vs/S-Reo/MazeLibrary\dfs.c **** 	//スタックの流れ
 1404              		.loc 1 105 6 view .LVU415
 1405 03b0 B9E7     		b	.L78
 1406              	.LVL93:
 1407              	.L94:
 105:C:/Users/leopi/Documents/vs/S-Reo/MazeLibrary\dfs.c **** 	//スタックの流れ
 1408              		.loc 1 105 6 view .LVU416
 1409 03b2 0026     		movs	r6, #0
 1410              	.LVL94:
 105:C:/Users/leopi/Documents/vs/S-Reo/MazeLibrary\dfs.c **** 	//スタックの流れ
 1411              		.loc 1 105 6 view .LVU417
 1412 03b4 B7E7     		b	.L78
 1413              	.LVL95:
 1414              	.L95:
 105:C:/Users/leopi/Documents/vs/S-Reo/MazeLibrary\dfs.c **** 	//スタックの流れ
 1415              		.loc 1 105 6 view .LVU418
 1416 03b6 0026     		movs	r6, #0
 1417              	.LVL96:
 105:C:/Users/leopi/Documents/vs/S-Reo/MazeLibrary\dfs.c **** 	//スタックの流れ
 1418              		.loc 1 105 6 view .LVU419
 1419 03b8 B5E7     		b	.L78
 1420              	.LVL97:
 1421              	.L96:
 105:C:/Users/leopi/Documents/vs/S-Reo/MazeLibrary\dfs.c **** 	//スタックの流れ
 1422              		.loc 1 105 6 view .LVU420
 1423 03ba 0026     		movs	r6, #0
 1424              	.LVL98:
 105:C:/Users/leopi/Documents/vs/S-Reo/MazeLibrary\dfs.c **** 	//スタックの流れ
 1425              		.loc 1 105 6 view .LVU421
 1426 03bc B3E7     		b	.L78
 1427              	.LVL99:
 1428              	.L80:
 111:C:/Users/leopi/Documents/vs/S-Reo/MazeLibrary\dfs.c **** 	case north:
 1429              		.loc 1 111 2 view .LVU422
 1430 03be 0020     		movs	r0, #0
 1431              	.LVL100:
 111:C:/Users/leopi/Documents/vs/S-Reo/MazeLibrary\dfs.c **** 	case north:
 1432              		.loc 1 111 2 view .LVU423
 1433 03c0 A3E6     		b	.L65
 1434              	.L101:
 1435 03c2 00BF     		.align	2
 1436              	.L100:
 1437 03c4 00000000 		.word	.LANCHOR4
 1438 03c8 00000000 		.word	.LANCHOR3
 1439              		.cfi_endproc
 1440              	.LFE19:
 1442              		.global	Visit
 1443              		.global	mass_stack
 1444              		.section	.bss.DFS_Flag,"aw",%nobits
 1445              		.set	.LANCHOR0,. + 0
 1448              	DFS_Flag:
 1449 0000 00       		.space	1
 1450              		.section	.bss.Stack_Flag,"aw",%nobits
 1451              		.set	.LANCHOR1,. + 0
 1454              	Stack_Flag:
ARM GAS  C:\Users\leopi\AppData\Local\Temp\ccx6VW8D.s 			page 35


 1455 0000 00       		.space	1
 1456              		.section	.bss.Stack_Num,"aw",%nobits
 1457              		.align	2
 1458              		.set	.LANCHOR2,. + 0
 1461              	Stack_Num:
 1462 0000 00000000 		.space	4
 1463              		.section	.bss.Visit,"aw",%nobits
 1464              		.align	2
 1465              		.set	.LANCHOR4,. + 0
 1468              	Visit:
 1469 0000 00000000 		.space	1024
 1469      00000000 
 1469      00000000 
 1469      00000000 
 1469      00000000 
 1470              		.section	.bss.mass_stack,"aw",%nobits
 1471              		.align	2
 1472              		.set	.LANCHOR3,. + 0
 1475              	mass_stack:
 1476 0000 00000000 		.space	2048
 1476      00000000 
 1476      00000000 
 1476      00000000 
 1476      00000000 
 1477              		.text
 1478              	.Letext0:
 1479              		.file 2 "c:\\tools\\gcc-arm-none-eabi-10_2021.10\\lib\\gcc\\arm-none-eabi\\10.3.1\\include\\stdint
 1480              		.file 3 "C:/Users/leopi/Documents/vs/S-Reo/MazeLibrary/MazeLib.h"
 1481              		.file 4 "C:/Users/leopi/Documents/vs/S-Reo/MazeLibrary/Searching.h"
 1482              		.file 5 "C:/Users/leopi/Documents/vs/S-Reo/MazeLibrary/dfs.h"
 1483              		.file 6 "c:\\tools\\gcc-arm-none-eabi-10_2021.10\\arm-none-eabi\\include\\stdio.h"
 1484              		.file 7 "<built-in>"
ARM GAS  C:\Users\leopi\AppData\Local\Temp\ccx6VW8D.s 			page 36


DEFINED SYMBOLS
                            *ABS*:00000000 dfs.c
C:\Users\leopi\AppData\Local\Temp\ccx6VW8D.s:20     .text.HighDFSFlag:00000000 $t
C:\Users\leopi\AppData\Local\Temp\ccx6VW8D.s:26     .text.HighDFSFlag:00000000 HighDFSFlag
C:\Users\leopi\AppData\Local\Temp\ccx6VW8D.s:44     .text.HighDFSFlag:00000008 $d
C:\Users\leopi\AppData\Local\Temp\ccx6VW8D.s:49     .text.LowDFSFlag:00000000 $t
C:\Users\leopi\AppData\Local\Temp\ccx6VW8D.s:55     .text.LowDFSFlag:00000000 LowDFSFlag
C:\Users\leopi\AppData\Local\Temp\ccx6VW8D.s:72     .text.LowDFSFlag:00000008 $d
C:\Users\leopi\AppData\Local\Temp\ccx6VW8D.s:77     .text.GetDFSFlag:00000000 $t
C:\Users\leopi\AppData\Local\Temp\ccx6VW8D.s:83     .text.GetDFSFlag:00000000 GetDFSFlag
C:\Users\leopi\AppData\Local\Temp\ccx6VW8D.s:98     .text.GetDFSFlag:00000008 $d
C:\Users\leopi\AppData\Local\Temp\ccx6VW8D.s:103    .text.HighStackFlag:00000000 $t
C:\Users\leopi\AppData\Local\Temp\ccx6VW8D.s:109    .text.HighStackFlag:00000000 HighStackFlag
C:\Users\leopi\AppData\Local\Temp\ccx6VW8D.s:126    .text.HighStackFlag:00000008 $d
C:\Users\leopi\AppData\Local\Temp\ccx6VW8D.s:131    .text.LowStackFlag:00000000 $t
C:\Users\leopi\AppData\Local\Temp\ccx6VW8D.s:137    .text.LowStackFlag:00000000 LowStackFlag
C:\Users\leopi\AppData\Local\Temp\ccx6VW8D.s:154    .text.LowStackFlag:00000008 $d
C:\Users\leopi\AppData\Local\Temp\ccx6VW8D.s:159    .text.GetStackFlag:00000000 $t
C:\Users\leopi\AppData\Local\Temp\ccx6VW8D.s:165    .text.GetStackFlag:00000000 GetStackFlag
C:\Users\leopi\AppData\Local\Temp\ccx6VW8D.s:180    .text.GetStackFlag:00000008 $d
C:\Users\leopi\AppData\Local\Temp\ccx6VW8D.s:185    .text.InitStackNum:00000000 $t
C:\Users\leopi\AppData\Local\Temp\ccx6VW8D.s:191    .text.InitStackNum:00000000 InitStackNum
C:\Users\leopi\AppData\Local\Temp\ccx6VW8D.s:208    .text.InitStackNum:00000008 $d
C:\Users\leopi\AppData\Local\Temp\ccx6VW8D.s:213    .text.SetStackNum:00000000 $t
C:\Users\leopi\AppData\Local\Temp\ccx6VW8D.s:219    .text.SetStackNum:00000000 SetStackNum
C:\Users\leopi\AppData\Local\Temp\ccx6VW8D.s:236    .text.SetStackNum:00000008 $d
C:\Users\leopi\AppData\Local\Temp\ccx6VW8D.s:241    .text.GetStackNum:00000000 $t
C:\Users\leopi\AppData\Local\Temp\ccx6VW8D.s:247    .text.GetStackNum:00000000 GetStackNum
C:\Users\leopi\AppData\Local\Temp\ccx6VW8D.s:262    .text.GetStackNum:00000008 $d
C:\Users\leopi\AppData\Local\Temp\ccx6VW8D.s:267    .text.GetStackMass:00000000 $t
C:\Users\leopi\AppData\Local\Temp\ccx6VW8D.s:273    .text.GetStackMass:00000000 GetStackMass
C:\Users\leopi\AppData\Local\Temp\ccx6VW8D.s:304    .text.GetStackMass:00000028 $d
C:\Users\leopi\AppData\Local\Temp\ccx6VW8D.s:310    .text.ComparePosition:00000000 $t
C:\Users\leopi\AppData\Local\Temp\ccx6VW8D.s:316    .text.ComparePosition:00000000 ComparePosition
C:\Users\leopi\AppData\Local\Temp\ccx6VW8D.s:361    .text.InitVisit:00000000 $t
C:\Users\leopi\AppData\Local\Temp\ccx6VW8D.s:367    .text.InitVisit:00000000 InitVisit
C:\Users\leopi\AppData\Local\Temp\ccx6VW8D.s:427    .text.InitVisit:00000028 $d
C:\Users\leopi\AppData\Local\Temp\ccx6VW8D.s:432    .rodata.printVisited.str1.4:00000000 $d
C:\Users\leopi\AppData\Local\Temp\ccx6VW8D.s:439    .text.printVisited:00000000 $t
C:\Users\leopi\AppData\Local\Temp\ccx6VW8D.s:445    .text.printVisited:00000000 printVisited
C:\Users\leopi\AppData\Local\Temp\ccx6VW8D.s:519    .text.printVisited:00000034 $d
C:\Users\leopi\AppData\Local\Temp\ccx6VW8D.s:526    .text.VisitedMass:00000000 $t
C:\Users\leopi\AppData\Local\Temp\ccx6VW8D.s:532    .text.VisitedMass:00000000 VisitedMass
C:\Users\leopi\AppData\Local\Temp\ccx6VW8D.s:562    .text.VisitedMass:0000001c $d
C:\Users\leopi\AppData\Local\Temp\ccx6VW8D.s:567    .text.GetVisited:00000000 $t
C:\Users\leopi\AppData\Local\Temp\ccx6VW8D.s:573    .text.GetVisited:00000000 GetVisited
C:\Users\leopi\AppData\Local\Temp\ccx6VW8D.s:597    .text.GetVisited:00000010 $d
C:\Users\leopi\AppData\Local\Temp\ccx6VW8D.s:602    .text.InitMassStack:00000000 $t
C:\Users\leopi\AppData\Local\Temp\ccx6VW8D.s:608    .text.InitMassStack:00000000 InitMassStack
C:\Users\leopi\AppData\Local\Temp\ccx6VW8D.s:628    .text.InitMassStack:0000000c $d
C:\Users\leopi\AppData\Local\Temp\ccx6VW8D.s:633    .text.StackMass:00000000 $t
C:\Users\leopi\AppData\Local\Temp\ccx6VW8D.s:639    .text.StackMass:00000000 StackMass
C:\Users\leopi\AppData\Local\Temp\ccx6VW8D.s:693    .text.StackMass:0000002c $d
C:\Users\leopi\AppData\Local\Temp\ccx6VW8D.s:700    .text.StackMass:0000003a $t
C:\Users\leopi\AppData\Local\Temp\ccx6VW8D.s:1292   .text.StackMass:0000031c $d
C:\Users\leopi\AppData\Local\Temp\ccx6VW8D.s:1297   .text.StackMass:00000324 $t
C:\Users\leopi\AppData\Local\Temp\ccx6VW8D.s:1437   .text.StackMass:000003c4 $d
ARM GAS  C:\Users\leopi\AppData\Local\Temp\ccx6VW8D.s 			page 37


C:\Users\leopi\AppData\Local\Temp\ccx6VW8D.s:1468   .bss.Visit:00000000 Visit
C:\Users\leopi\AppData\Local\Temp\ccx6VW8D.s:1475   .bss.mass_stack:00000000 mass_stack
C:\Users\leopi\AppData\Local\Temp\ccx6VW8D.s:1448   .bss.DFS_Flag:00000000 DFS_Flag
C:\Users\leopi\AppData\Local\Temp\ccx6VW8D.s:1449   .bss.DFS_Flag:00000000 $d
C:\Users\leopi\AppData\Local\Temp\ccx6VW8D.s:1454   .bss.Stack_Flag:00000000 Stack_Flag
C:\Users\leopi\AppData\Local\Temp\ccx6VW8D.s:1455   .bss.Stack_Flag:00000000 $d
C:\Users\leopi\AppData\Local\Temp\ccx6VW8D.s:1457   .bss.Stack_Num:00000000 $d
C:\Users\leopi\AppData\Local\Temp\ccx6VW8D.s:1461   .bss.Stack_Num:00000000 Stack_Num
C:\Users\leopi\AppData\Local\Temp\ccx6VW8D.s:1464   .bss.Visit:00000000 $d
C:\Users\leopi\AppData\Local\Temp\ccx6VW8D.s:1471   .bss.mass_stack:00000000 $d

UNDEFINED SYMBOLS
printf
puts
