ARM GAS  C:\Users\leopi\AppData\Local\Temp\ccpKCpQH.s 			page 1


   1              		.cpu cortex-m4
   2              		.arch armv7e-m
   3              		.fpu fpv4-sp-d16
   4              		.eabi_attribute 27, 1
   5              		.eabi_attribute 28, 1
   6              		.eabi_attribute 20, 1
   7              		.eabi_attribute 21, 1
   8              		.eabi_attribute 23, 3
   9              		.eabi_attribute 24, 1
  10              		.eabi_attribute 25, 1
  11              		.eabi_attribute 26, 1
  12              		.eabi_attribute 30, 1
  13              		.eabi_attribute 34, 1
  14              		.eabi_attribute 18, 4
  15              		.file	"ICM_20648.c"
  16              		.text
  17              	.Ltext0:
  18              		.cfi_sections	.debug_frame
  19              		.section	.text.compare_num,"ax",%progbits
  20              		.align	1
  21              		.global	compare_num
  22              		.syntax unified
  23              		.thumb
  24              		.thumb_func
  26              	compare_num:
  27              	.LVL0:
  28              	.LFB240:
  29              		.file 1 "Core/Src/Hw/ICM_20648.c"
   1:Core/Src/Hw/ICM_20648.c **** /*
   2:Core/Src/Hw/ICM_20648.c ****  * ICM_20648.c
   3:Core/Src/Hw/ICM_20648.c ****  *
   4:Core/Src/Hw/ICM_20648.c ****  *  Created on: Jul 28, 2021
   5:Core/Src/Hw/ICM_20648.c ****  *      Author: leopi
   6:Core/Src/Hw/ICM_20648.c ****  */
   7:Core/Src/Hw/ICM_20648.c **** //ICM_20648.c Ver.1.0
   8:Core/Src/Hw/ICM_20648.c **** #include "ICM_20648.h"
   9:Core/Src/Hw/ICM_20648.c **** #include <stdio.h>
  10:Core/Src/Hw/ICM_20648.c **** #include <math.h>
  11:Core/Src/Hw/ICM_20648.c **** #include <stdlib.h>
  12:Core/Src/Hw/ICM_20648.c **** volatile int16_t	xa, ya, za; // åŠ é€Ÿåº¦(16bitãƒ‡ãƒ¼ã‚¿)
  13:Core/Src/Hw/ICM_20648.c **** volatile int16_t xg, yg, zg;	// è§’åŠ é€Ÿåº¦(16bitãƒ‡ãƒ¼ã‚¿)
  14:Core/Src/Hw/ICM_20648.c **** volatile int plot_angle;
  15:Core/Src/Hw/ICM_20648.c **** float zg_offset=0, ya_offset=0;
  16:Core/Src/Hw/ICM_20648.c **** //uint8_t val[2]={0};
  17:Core/Src/Hw/ICM_20648.c **** //int16_t spi_dma_data;
  18:Core/Src/Hw/ICM_20648.c **** volatile float  ZGyro=0, YAccel=0;
  19:Core/Src/Hw/ICM_20648.c **** int16_t ZGFilterd;
  20:Core/Src/Hw/ICM_20648.c **** //const uint8_t ret[2] = {
  21:Core/Src/Hw/ICM_20648.c **** //		0x37 | 0x80,
  22:Core/Src/Hw/ICM_20648.c **** //		0x38 | 0x80
  23:Core/Src/Hw/ICM_20648.c **** //};
  24:Core/Src/Hw/ICM_20648.c **** //const uint8_t ret2 =
  25:Core/Src/Hw/ICM_20648.c **** 
  26:Core/Src/Hw/ICM_20648.c **** const float convert_to_imu_angv = M_PI/(16.4f*180.0f);
  27:Core/Src/Hw/ICM_20648.c **** 
  28:Core/Src/Hw/ICM_20648.c **** //void IMU_DMA_Start()
  29:Core/Src/Hw/ICM_20648.c **** //{
ARM GAS  C:\Users\leopi\AppData\Local\Temp\ccpKCpQH.s 			page 2


  30:Core/Src/Hw/ICM_20648.c **** //	//zg = ((uint16_t)read_byte(0x37) << 8) | ((uint16_t)read_byte(0x38));
  31:Core/Src/Hw/ICM_20648.c **** //	uint8_t ret[2];
  32:Core/Src/Hw/ICM_20648.c **** //	ret[0] = 0x37 | 0x80;
  33:Core/Src/Hw/ICM_20648.c **** //	ret[1] = 0x38 | 0x80;
  34:Core/Src/Hw/ICM_20648.c **** //	printf("%d, %d, %d, %d,%d\r\n\r\n", ret[0], ret[1], val[0], val[1],spi_dma_data);
  35:Core/Src/Hw/ICM_20648.c **** //	//int a = HAL_SPI_TransmitReceive_DMA(&hspi3, (uint8_t *)ret, (uint8_t *)val, 2);
  36:Core/Src/Hw/ICM_20648.c **** //	//printf("%d\r\n",a);
  37:Core/Src/Hw/ICM_20648.c **** //	if ( HAL_SPI_TransmitReceive_DMA(&hspi3, (uint8_t *)ret, (uint8_t *)val, 2) != HAL_OK )
  38:Core/Src/Hw/ICM_20648.c **** //	{
  39:Core/Src/Hw/ICM_20648.c **** //		printf("ã‚¨ãƒ©ãƒ¼1\r\n");
  40:Core/Src/Hw/ICM_20648.c **** //		Error_Handler();
  41:Core/Src/Hw/ICM_20648.c **** //		printf("ã‚¨ãƒ©ãƒ¼2\r\n");
  42:Core/Src/Hw/ICM_20648.c **** //	}
  43:Core/Src/Hw/ICM_20648.c **** //	printf("ok\r\n");
  44:Core/Src/Hw/ICM_20648.c **** //}
  45:Core/Src/Hw/ICM_20648.c **** inline uint8_t read_byte( uint8_t reg ) {
  46:Core/Src/Hw/ICM_20648.c **** 
  47:Core/Src/Hw/ICM_20648.c **** 	uint8_t ret,val;
  48:Core/Src/Hw/ICM_20648.c **** 
  49:Core/Src/Hw/ICM_20648.c **** 	ret = reg | 0x80;
  50:Core/Src/Hw/ICM_20648.c **** 	CS_RESET;
  51:Core/Src/Hw/ICM_20648.c **** 	HAL_SPI_Transmit(&hspi3,&ret,1,100);
  52:Core/Src/Hw/ICM_20648.c **** 	HAL_SPI_Receive(&hspi3,&val,1,100);
  53:Core/Src/Hw/ICM_20648.c **** 	CS_SET;
  54:Core/Src/Hw/ICM_20648.c **** 	//1å›žã®å–å¾—ã¯0.2msã ã£ãŸ
  55:Core/Src/Hw/ICM_20648.c **** 	//å€¤ã®æ›´æ–°ã¯4å›žåˆ†ã§0.8ms = 1.25kHz . 656250Bit/s 1å›žã§131.25bit, 4å›žã§525Bit=65.625byt
  56:Core/Src/Hw/ICM_20648.c **** 	//å€¤ã®å–å¾—ã¯1msãŒå¦¥å½“ã€‚2å°ç›®ã®ã‚¨ãƒ³ã‚³ãƒ¼ãƒ€ã§ã¯ã©ã‚Œãã‚‰ã„ãŒã„ã„ã‹ã€‚as504
  57:Core/Src/Hw/ICM_20648.c **** 	return val;
  58:Core/Src/Hw/ICM_20648.c **** }
  59:Core/Src/Hw/ICM_20648.c **** inline float ReadIMU(uint8_t a, uint8_t b) {
  60:Core/Src/Hw/ICM_20648.c **** 
  61:Core/Src/Hw/ICM_20648.c **** 	uint8_t ret1, ret2,val1,val2;
  62:Core/Src/Hw/ICM_20648.c **** 	uint8_t ret[2] = {
  63:Core/Src/Hw/ICM_20648.c **** 			a,//0x37,
  64:Core/Src/Hw/ICM_20648.c **** 			b//0x38,
  65:Core/Src/Hw/ICM_20648.c **** 	};
  66:Core/Src/Hw/ICM_20648.c **** 	int16_t law_data;
  67:Core/Src/Hw/ICM_20648.c **** 	float res;
  68:Core/Src/Hw/ICM_20648.c **** 	ret1 = ret[0] | 0x80;
  69:Core/Src/Hw/ICM_20648.c **** 	ret2 = ret[1] | 0x80;
  70:Core/Src/Hw/ICM_20648.c **** 	CS_RESET;
  71:Core/Src/Hw/ICM_20648.c **** 	HAL_SPI_Transmit(&hspi3,&ret1,1,100);
  72:Core/Src/Hw/ICM_20648.c **** 	HAL_SPI_Receive(&hspi3,&val1,1,100);
  73:Core/Src/Hw/ICM_20648.c **** 	CS_SET;
  74:Core/Src/Hw/ICM_20648.c **** 
  75:Core/Src/Hw/ICM_20648.c **** 	CS_RESET;
  76:Core/Src/Hw/ICM_20648.c **** 	HAL_SPI_Transmit(&hspi3,&ret2,1,100);
  77:Core/Src/Hw/ICM_20648.c **** 	HAL_SPI_Receive(&hspi3,&val2,1,100);
  78:Core/Src/Hw/ICM_20648.c **** 	CS_SET;
  79:Core/Src/Hw/ICM_20648.c **** 	law_data = ( ((uint16_t)val1 << 8) | ((uint16_t)val2) );//ä½•ã§8bitã‚·ãƒ•ãƒˆã‹ã¨ã„ã†ã¨ã€ãƒ­
  80:Core/Src/Hw/ICM_20648.c **** 	res = (float)law_data;
  81:Core/Src/Hw/ICM_20648.c **** 	return res;
  82:Core/Src/Hw/ICM_20648.c **** }
  83:Core/Src/Hw/ICM_20648.c **** 
  84:Core/Src/Hw/ICM_20648.c **** 
  85:Core/Src/Hw/ICM_20648.c **** int compare_num(const void * n1, const void * n2)
  86:Core/Src/Hw/ICM_20648.c **** {
ARM GAS  C:\Users\leopi\AppData\Local\Temp\ccpKCpQH.s 			page 3


  30              		.loc 1 86 1 view -0
  31              		.cfi_startproc
  32              		@ args = 0, pretend = 0, frame = 0
  33              		@ frame_needed = 0, uses_anonymous_args = 0
  34              		@ link register save eliminated.
  87:Core/Src/Hw/ICM_20648.c **** 	if (*(int16_t *)n1 > *(int16_t *)n2)
  35              		.loc 1 87 2 view .LVU1
  36              		.loc 1 87 6 is_stmt 0 view .LVU2
  37 0000 B0F90020 		ldrsh	r2, [r0]
  38              		.loc 1 87 23 view .LVU3
  39 0004 B1F90030 		ldrsh	r3, [r1]
  40              		.loc 1 87 5 view .LVU4
  41 0008 9A42     		cmp	r2, r3
  42 000a 03DC     		bgt	.L3
  88:Core/Src/Hw/ICM_20648.c **** 	{
  89:Core/Src/Hw/ICM_20648.c **** 		return 1;
  90:Core/Src/Hw/ICM_20648.c **** 	}
  91:Core/Src/Hw/ICM_20648.c **** 	else if (*(int16_t *)n1 < *(int16_t *)n2)
  43              		.loc 1 91 7 is_stmt 1 view .LVU5
  44              		.loc 1 91 10 is_stmt 0 view .LVU6
  45 000c 04DA     		bge	.L4
  92:Core/Src/Hw/ICM_20648.c **** 	{
  93:Core/Src/Hw/ICM_20648.c **** 		return -1;
  46              		.loc 1 93 10 view .LVU7
  47 000e 4FF0FF30 		mov	r0, #-1
  48              	.LVL1:
  49              		.loc 1 93 10 view .LVU8
  50 0012 7047     		bx	lr
  51              	.LVL2:
  52              	.L3:
  89:Core/Src/Hw/ICM_20648.c **** 	}
  53              		.loc 1 89 10 view .LVU9
  54 0014 0120     		movs	r0, #1
  55              	.LVL3:
  89:Core/Src/Hw/ICM_20648.c **** 	}
  56              		.loc 1 89 10 view .LVU10
  57 0016 7047     		bx	lr
  58              	.LVL4:
  59              	.L4:
  94:Core/Src/Hw/ICM_20648.c **** 	}
  95:Core/Src/Hw/ICM_20648.c **** 	else
  96:Core/Src/Hw/ICM_20648.c **** 	{
  97:Core/Src/Hw/ICM_20648.c **** 		return 0;
  60              		.loc 1 97 10 view .LVU11
  61 0018 0020     		movs	r0, #0
  62              	.LVL5:
  98:Core/Src/Hw/ICM_20648.c **** 	}
  99:Core/Src/Hw/ICM_20648.c **** }
  63              		.loc 1 99 1 view .LVU12
  64 001a 7047     		bx	lr
  65              		.cfi_endproc
  66              	.LFE240:
  68              		.section	.text.read_byte,"ax",%progbits
  69              		.align	1
  70              		.global	read_byte
  71              		.syntax unified
  72              		.thumb
ARM GAS  C:\Users\leopi\AppData\Local\Temp\ccpKCpQH.s 			page 4


  73              		.thumb_func
  75              	read_byte:
  76              	.LVL6:
  77              	.LFB238:
  45:Core/Src/Hw/ICM_20648.c **** 
  78              		.loc 1 45 41 is_stmt 1 view -0
  79              		.cfi_startproc
  80              		@ args = 0, pretend = 0, frame = 8
  81              		@ frame_needed = 0, uses_anonymous_args = 0
  45:Core/Src/Hw/ICM_20648.c **** 
  82              		.loc 1 45 41 is_stmt 0 view .LVU14
  83 0000 30B5     		push	{r4, r5, lr}
  84              	.LCFI0:
  85              		.cfi_def_cfa_offset 12
  86              		.cfi_offset 4, -12
  87              		.cfi_offset 5, -8
  88              		.cfi_offset 14, -4
  89 0002 83B0     		sub	sp, sp, #12
  90              	.LCFI1:
  91              		.cfi_def_cfa_offset 24
  47:Core/Src/Hw/ICM_20648.c **** 
  92              		.loc 1 47 2 is_stmt 1 view .LVU15
  49:Core/Src/Hw/ICM_20648.c **** 	CS_RESET;
  93              		.loc 1 49 2 view .LVU16
  49:Core/Src/Hw/ICM_20648.c **** 	CS_RESET;
  94              		.loc 1 49 6 is_stmt 0 view .LVU17
  95 0004 60F07F00 		orn	r0, r0, #127
  96              	.LVL7:
  49:Core/Src/Hw/ICM_20648.c **** 	CS_RESET;
  97              		.loc 1 49 6 view .LVU18
  98 0008 8DF80700 		strb	r0, [sp, #7]
  50:Core/Src/Hw/ICM_20648.c **** 	HAL_SPI_Transmit(&hspi3,&ret,1,100);
  99              		.loc 1 50 2 is_stmt 1 view .LVU19
 100 000c 0E4C     		ldr	r4, .L7
 101 000e 0022     		movs	r2, #0
 102 0010 0421     		movs	r1, #4
 103 0012 2046     		mov	r0, r4
 104 0014 FFF7FEFF 		bl	HAL_GPIO_WritePin
 105              	.LVL8:
  51:Core/Src/Hw/ICM_20648.c **** 	HAL_SPI_Receive(&hspi3,&val,1,100);
 106              		.loc 1 51 2 view .LVU20
 107 0018 0C4D     		ldr	r5, .L7+4
 108 001a 6423     		movs	r3, #100
 109 001c 0122     		movs	r2, #1
 110 001e 0DF10701 		add	r1, sp, #7
 111 0022 2846     		mov	r0, r5
 112 0024 FFF7FEFF 		bl	HAL_SPI_Transmit
 113              	.LVL9:
  52:Core/Src/Hw/ICM_20648.c **** 	CS_SET;
 114              		.loc 1 52 2 view .LVU21
 115 0028 6423     		movs	r3, #100
 116 002a 0122     		movs	r2, #1
 117 002c 0DF10601 		add	r1, sp, #6
 118 0030 2846     		mov	r0, r5
 119 0032 FFF7FEFF 		bl	HAL_SPI_Receive
 120              	.LVL10:
  53:Core/Src/Hw/ICM_20648.c **** 	//1å›žã®å–å¾—ã¯0.2msã ã£ãŸ
ARM GAS  C:\Users\leopi\AppData\Local\Temp\ccpKCpQH.s 			page 5


 121              		.loc 1 53 2 view .LVU22
 122 0036 0122     		movs	r2, #1
 123 0038 0421     		movs	r1, #4
 124 003a 2046     		mov	r0, r4
 125 003c FFF7FEFF 		bl	HAL_GPIO_WritePin
 126              	.LVL11:
  57:Core/Src/Hw/ICM_20648.c **** }
 127              		.loc 1 57 2 view .LVU23
  58:Core/Src/Hw/ICM_20648.c **** inline float ReadIMU(uint8_t a, uint8_t b) {
 128              		.loc 1 58 1 is_stmt 0 view .LVU24
 129 0040 9DF80600 		ldrb	r0, [sp, #6]	@ zero_extendqisi2
 130 0044 03B0     		add	sp, sp, #12
 131              	.LCFI2:
 132              		.cfi_def_cfa_offset 12
 133              		@ sp needed
 134 0046 30BD     		pop	{r4, r5, pc}
 135              	.L8:
 136              		.align	2
 137              	.L7:
 138 0048 000C0240 		.word	1073875968
 139 004c 00000000 		.word	hspi3
 140              		.cfi_endproc
 141              	.LFE238:
 143              		.section	.text.ReadIMU,"ax",%progbits
 144              		.align	1
 145              		.global	ReadIMU
 146              		.syntax unified
 147              		.thumb
 148              		.thumb_func
 150              	ReadIMU:
 151              	.LVL12:
 152              	.LFB239:
  59:Core/Src/Hw/ICM_20648.c **** 
 153              		.loc 1 59 44 is_stmt 1 view -0
 154              		.cfi_startproc
 155              		@ args = 0, pretend = 0, frame = 8
 156              		@ frame_needed = 0, uses_anonymous_args = 0
  59:Core/Src/Hw/ICM_20648.c **** 
 157              		.loc 1 59 44 is_stmt 0 view .LVU26
 158 0000 30B5     		push	{r4, r5, lr}
 159              	.LCFI3:
 160              		.cfi_def_cfa_offset 12
 161              		.cfi_offset 4, -12
 162              		.cfi_offset 5, -8
 163              		.cfi_offset 14, -4
 164 0002 83B0     		sub	sp, sp, #12
 165              	.LCFI4:
 166              		.cfi_def_cfa_offset 24
  61:Core/Src/Hw/ICM_20648.c **** 	uint8_t ret[2] = {
 167              		.loc 1 61 2 is_stmt 1 view .LVU27
  62:Core/Src/Hw/ICM_20648.c **** 			a,//0x37,
 168              		.loc 1 62 2 view .LVU28
  62:Core/Src/Hw/ICM_20648.c **** 			a,//0x37,
 169              		.loc 1 62 10 is_stmt 0 view .LVU29
 170 0004 8DF80000 		strb	r0, [sp]
 171 0008 8DF80110 		strb	r1, [sp, #1]
  66:Core/Src/Hw/ICM_20648.c **** 	float res;
ARM GAS  C:\Users\leopi\AppData\Local\Temp\ccpKCpQH.s 			page 6


 172              		.loc 1 66 2 is_stmt 1 view .LVU30
  67:Core/Src/Hw/ICM_20648.c **** 	ret1 = ret[0] | 0x80;
 173              		.loc 1 67 2 view .LVU31
  68:Core/Src/Hw/ICM_20648.c **** 	ret2 = ret[1] | 0x80;
 174              		.loc 1 68 2 view .LVU32
  68:Core/Src/Hw/ICM_20648.c **** 	ret2 = ret[1] | 0x80;
 175              		.loc 1 68 7 is_stmt 0 view .LVU33
 176 000c 60F07F00 		orn	r0, r0, #127
 177              	.LVL13:
  68:Core/Src/Hw/ICM_20648.c **** 	ret2 = ret[1] | 0x80;
 178              		.loc 1 68 7 view .LVU34
 179 0010 8DF80700 		strb	r0, [sp, #7]
  69:Core/Src/Hw/ICM_20648.c **** 	CS_RESET;
 180              		.loc 1 69 2 is_stmt 1 view .LVU35
  69:Core/Src/Hw/ICM_20648.c **** 	CS_RESET;
 181              		.loc 1 69 7 is_stmt 0 view .LVU36
 182 0014 61F07F01 		orn	r1, r1, #127
 183              	.LVL14:
  69:Core/Src/Hw/ICM_20648.c **** 	CS_RESET;
 184              		.loc 1 69 7 view .LVU37
 185 0018 8DF80610 		strb	r1, [sp, #6]
  70:Core/Src/Hw/ICM_20648.c **** 	HAL_SPI_Transmit(&hspi3,&ret1,1,100);
 186              		.loc 1 70 2 is_stmt 1 view .LVU38
 187 001c 1E4C     		ldr	r4, .L11
 188 001e 0022     		movs	r2, #0
 189 0020 0421     		movs	r1, #4
 190 0022 2046     		mov	r0, r4
 191 0024 FFF7FEFF 		bl	HAL_GPIO_WritePin
 192              	.LVL15:
  71:Core/Src/Hw/ICM_20648.c **** 	HAL_SPI_Receive(&hspi3,&val1,1,100);
 193              		.loc 1 71 2 view .LVU39
 194 0028 1C4D     		ldr	r5, .L11+4
 195 002a 6423     		movs	r3, #100
 196 002c 0122     		movs	r2, #1
 197 002e 0DF10701 		add	r1, sp, #7
 198 0032 2846     		mov	r0, r5
 199 0034 FFF7FEFF 		bl	HAL_SPI_Transmit
 200              	.LVL16:
  72:Core/Src/Hw/ICM_20648.c **** 	CS_SET;
 201              		.loc 1 72 2 view .LVU40
 202 0038 6423     		movs	r3, #100
 203 003a 0122     		movs	r2, #1
 204 003c 0DF10501 		add	r1, sp, #5
 205 0040 2846     		mov	r0, r5
 206 0042 FFF7FEFF 		bl	HAL_SPI_Receive
 207              	.LVL17:
  73:Core/Src/Hw/ICM_20648.c **** 
 208              		.loc 1 73 2 view .LVU41
 209 0046 0122     		movs	r2, #1
 210 0048 0421     		movs	r1, #4
 211 004a 2046     		mov	r0, r4
 212 004c FFF7FEFF 		bl	HAL_GPIO_WritePin
 213              	.LVL18:
  75:Core/Src/Hw/ICM_20648.c **** 	HAL_SPI_Transmit(&hspi3,&ret2,1,100);
 214              		.loc 1 75 2 view .LVU42
 215 0050 0022     		movs	r2, #0
 216 0052 0421     		movs	r1, #4
ARM GAS  C:\Users\leopi\AppData\Local\Temp\ccpKCpQH.s 			page 7


 217 0054 2046     		mov	r0, r4
 218 0056 FFF7FEFF 		bl	HAL_GPIO_WritePin
 219              	.LVL19:
  76:Core/Src/Hw/ICM_20648.c **** 	HAL_SPI_Receive(&hspi3,&val2,1,100);
 220              		.loc 1 76 2 view .LVU43
 221 005a 6423     		movs	r3, #100
 222 005c 0122     		movs	r2, #1
 223 005e 0DF10601 		add	r1, sp, #6
 224 0062 2846     		mov	r0, r5
 225 0064 FFF7FEFF 		bl	HAL_SPI_Transmit
 226              	.LVL20:
  77:Core/Src/Hw/ICM_20648.c **** 	CS_SET;
 227              		.loc 1 77 2 view .LVU44
 228 0068 6423     		movs	r3, #100
 229 006a 0122     		movs	r2, #1
 230 006c 01A9     		add	r1, sp, #4
 231 006e 2846     		mov	r0, r5
 232 0070 FFF7FEFF 		bl	HAL_SPI_Receive
 233              	.LVL21:
  78:Core/Src/Hw/ICM_20648.c **** 	law_data = ( ((uint16_t)val1 << 8) | ((uint16_t)val2) );//ä½•ã§8bitã‚·ãƒ•ãƒˆã‹ã¨ã„ã†ã¨ã€ãƒ­
 234              		.loc 1 78 2 view .LVU45
 235 0074 0122     		movs	r2, #1
 236 0076 0421     		movs	r1, #4
 237 0078 2046     		mov	r0, r4
 238 007a FFF7FEFF 		bl	HAL_GPIO_WritePin
 239              	.LVL22:
  79:Core/Src/Hw/ICM_20648.c **** 	res = (float)law_data;
 240              		.loc 1 79 2 view .LVU46
  79:Core/Src/Hw/ICM_20648.c **** 	res = (float)law_data;
 241              		.loc 1 79 16 is_stmt 0 view .LVU47
 242 007e 9DF80530 		ldrb	r3, [sp, #5]	@ zero_extendqisi2
  79:Core/Src/Hw/ICM_20648.c **** 	res = (float)law_data;
 243              		.loc 1 79 31 view .LVU48
 244 0082 1B02     		lsls	r3, r3, #8
  79:Core/Src/Hw/ICM_20648.c **** 	res = (float)law_data;
 245              		.loc 1 79 37 view .LVU49
 246 0084 1BB2     		sxth	r3, r3
 247 0086 9DF80420 		ldrb	r2, [sp, #4]	@ zero_extendqisi2
  79:Core/Src/Hw/ICM_20648.c **** 	res = (float)law_data;
 248              		.loc 1 79 11 view .LVU50
 249 008a 1343     		orrs	r3, r3, r2
 250 008c 00EE103A 		vmov	s0, r3	@ int
 251              	.LVL23:
  80:Core/Src/Hw/ICM_20648.c **** 	return res;
 252              		.loc 1 80 2 is_stmt 1 view .LVU51
  81:Core/Src/Hw/ICM_20648.c **** }
 253              		.loc 1 81 2 view .LVU52
  82:Core/Src/Hw/ICM_20648.c **** 
 254              		.loc 1 82 1 is_stmt 0 view .LVU53
 255 0090 B8EEC00A 		vcvt.f32.s32	s0, s0
 256              	.LVL24:
  82:Core/Src/Hw/ICM_20648.c **** 
 257              		.loc 1 82 1 view .LVU54
 258 0094 03B0     		add	sp, sp, #12
 259              	.LCFI5:
 260              		.cfi_def_cfa_offset 12
 261              	.LVL25:
ARM GAS  C:\Users\leopi\AppData\Local\Temp\ccpKCpQH.s 			page 8


  82:Core/Src/Hw/ICM_20648.c **** 
 262              		.loc 1 82 1 view .LVU55
 263              		@ sp needed
 264 0096 30BD     		pop	{r4, r5, pc}
 265              	.LVL26:
 266              	.L12:
  82:Core/Src/Hw/ICM_20648.c **** 
 267              		.loc 1 82 1 view .LVU56
 268              		.align	2
 269              	.L11:
 270 0098 000C0240 		.word	1073875968
 271 009c 00000000 		.word	hspi3
 272              		.cfi_endproc
 273              	.LFE239:
 275              		.section	.text.median_filter,"ax",%progbits
 276              		.align	1
 277              		.global	median_filter
 278              		.syntax unified
 279              		.thumb
 280              		.thumb_func
 282              	median_filter:
 283              	.LVL27:
 284              	.LFB241:
 100:Core/Src/Hw/ICM_20648.c **** int16_t median_filter(int16_t *new_data) //ä¸­èº«å¤‰æ›´ã—ãªã„ãŒã€å€¤ã®ã‚³ãƒ”ãƒ¼ã‚’é¿ã‘ã¦é€
 101:Core/Src/Hw/ICM_20648.c **** {
 285              		.loc 1 101 1 is_stmt 1 view -0
 286              		.cfi_startproc
 287              		@ args = 0, pretend = 0, frame = 8
 288              		@ frame_needed = 0, uses_anonymous_args = 0
 289              		.loc 1 101 1 is_stmt 0 view .LVU58
 290 0000 00B5     		push	{lr}
 291              	.LCFI6:
 292              		.cfi_def_cfa_offset 4
 293              		.cfi_offset 14, -4
 294 0002 83B0     		sub	sp, sp, #12
 295              	.LCFI7:
 296              		.cfi_def_cfa_offset 16
 102:Core/Src/Hw/ICM_20648.c **** 	static int16_t filter[3]={0};
 297              		.loc 1 102 2 is_stmt 1 view .LVU59
 103:Core/Src/Hw/ICM_20648.c **** 	int16_t sorted[3]={0};
 298              		.loc 1 103 2 view .LVU60
 299              		.loc 1 103 10 is_stmt 0 view .LVU61
 300 0004 0023     		movs	r3, #0
 301 0006 0093     		str	r3, [sp]
 302 0008 ADF80430 		strh	r3, [sp, #4]	@ movhi
 104:Core/Src/Hw/ICM_20648.c **** 	//register static int cnt=0; //ã‚µã‚¤ã‚¯ãƒªãƒƒã‚¯ãƒãƒƒãƒ•ã‚¡ç”¨
 105:Core/Src/Hw/ICM_20648.c **** 	//ã‚·ãƒ•ãƒˆ
 106:Core/Src/Hw/ICM_20648.c **** #if 0
 107:Core/Src/Hw/ICM_20648.c **** 	filter[cnt] = filter[cnt+1];
 108:Core/Src/Hw/ICM_20648.c **** 	filter[cnt+1] = filter[cnt+2];
 109:Core/Src/Hw/ICM_20648.c **** 	filter[cnt+2] = filter[cnt+3];
 110:Core/Src/Hw/ICM_20648.c **** 	filter[cnt+3] = filter[cnt+4];
 111:Core/Src/Hw/ICM_20648.c **** 	filter[cnt+4] = new_data;
 112:Core/Src/Hw/ICM_20648.c **** #else
 113:Core/Src/Hw/ICM_20648.c **** 	filter[0] = filter[1];
 303              		.loc 1 113 2 is_stmt 1 view .LVU62
 304              		.loc 1 113 20 is_stmt 0 view .LVU63
ARM GAS  C:\Users\leopi\AppData\Local\Temp\ccpKCpQH.s 			page 9


 305 000c 0D4B     		ldr	r3, .L15
 306 000e B3F902C0 		ldrsh	ip, [r3, #2]
 307              		.loc 1 113 12 view .LVU64
 308 0012 A3F800C0 		strh	ip, [r3]	@ movhi
 114:Core/Src/Hw/ICM_20648.c **** 	filter[1] = filter[2];
 309              		.loc 1 114 2 is_stmt 1 view .LVU65
 310              		.loc 1 114 20 is_stmt 0 view .LVU66
 311 0016 B3F90410 		ldrsh	r1, [r3, #4]
 312              		.loc 1 114 12 view .LVU67
 313 001a 5980     		strh	r1, [r3, #2]	@ movhi
 115:Core/Src/Hw/ICM_20648.c **** 	filter[2] = *new_data;//filter[3];
 314              		.loc 1 115 2 is_stmt 1 view .LVU68
 315              		.loc 1 115 14 is_stmt 0 view .LVU69
 316 001c B0F90020 		ldrsh	r2, [r0]
 317              		.loc 1 115 12 view .LVU70
 318 0020 9A80     		strh	r2, [r3, #4]	@ movhi
 116:Core/Src/Hw/ICM_20648.c **** //	filter[3] = filter[4];
 117:Core/Src/Hw/ICM_20648.c **** //	filter[4] = *new_data;
 118:Core/Src/Hw/ICM_20648.c **** 
 119:Core/Src/Hw/ICM_20648.c **** 	sorted[0] = filter[0];
 319              		.loc 1 119 2 is_stmt 1 view .LVU71
 320              		.loc 1 119 12 is_stmt 0 view .LVU72
 321 0022 ADF800C0 		strh	ip, [sp]	@ movhi
 120:Core/Src/Hw/ICM_20648.c **** 	sorted[1] = filter[1];
 322              		.loc 1 120 2 is_stmt 1 view .LVU73
 323              		.loc 1 120 12 is_stmt 0 view .LVU74
 324 0026 ADF80210 		strh	r1, [sp, #2]	@ movhi
 121:Core/Src/Hw/ICM_20648.c **** 	sorted[2] = *new_data;//filter[2];
 325              		.loc 1 121 2 is_stmt 1 view .LVU75
 326              		.loc 1 121 12 is_stmt 0 view .LVU76
 327 002a ADF80420 		strh	r2, [sp, #4]	@ movhi
 122:Core/Src/Hw/ICM_20648.c **** //	sorted[3] = filter[3];
 123:Core/Src/Hw/ICM_20648.c **** //	sorted[4] = filter[4];
 124:Core/Src/Hw/ICM_20648.c **** #endif
 125:Core/Src/Hw/ICM_20648.c **** 	//ã‚½ãƒ¼ãƒˆã™ã‚‹
 126:Core/Src/Hw/ICM_20648.c **** 	qsort(sorted, sizeof(sorted) / sizeof(sorted[0]), sizeof(int16_t),compare_num);
 328              		.loc 1 126 2 is_stmt 1 view .LVU77
 329 002e 064B     		ldr	r3, .L15+4
 330 0030 0222     		movs	r2, #2
 331 0032 0321     		movs	r1, #3
 332 0034 6846     		mov	r0, sp
 333              	.LVL28:
 334              		.loc 1 126 2 is_stmt 0 view .LVU78
 335 0036 FFF7FEFF 		bl	qsort
 336              	.LVL29:
 127:Core/Src/Hw/ICM_20648.c **** 	//qsort(sorted, sizeof(sorted) / sizeof(sorted[0]), sizeof(int),compare_num);
 128:Core/Src/Hw/ICM_20648.c **** 	//ä¸­å¤®å€¤ã‚’è¿”ã™
 129:Core/Src/Hw/ICM_20648.c **** 	return sorted[1];
 337              		.loc 1 129 2 is_stmt 1 view .LVU79
 130:Core/Src/Hw/ICM_20648.c **** }
 338              		.loc 1 130 1 is_stmt 0 view .LVU80
 339 003a BDF90200 		ldrsh	r0, [sp, #2]
 340 003e 03B0     		add	sp, sp, #12
 341              	.LCFI8:
 342              		.cfi_def_cfa_offset 4
 343              		@ sp needed
 344 0040 5DF804FB 		ldr	pc, [sp], #4
ARM GAS  C:\Users\leopi\AppData\Local\Temp\ccpKCpQH.s 			page 10


 345              	.L16:
 346              		.align	2
 347              	.L15:
 348 0044 00000000 		.word	.LANCHOR0
 349 0048 00000000 		.word	compare_num
 350              		.cfi_endproc
 351              	.LFE241:
 353              		.global	__aeabi_f2d
 354              		.global	__aeabi_dmul
 355              		.global	__aeabi_dsub
 356              		.global	__aeabi_dadd
 357              		.global	__aeabi_d2f
 358              		.section	.text.Update_IMU,"ax",%progbits
 359              		.align	1
 360              		.global	Update_IMU
 361              		.syntax unified
 362              		.thumb
 363              		.thumb_func
 365              	Update_IMU:
 366              	.LVL30:
 367              	.LFB242:
 131:Core/Src/Hw/ICM_20648.c **** //å‰²è¾¼ã¿å†…ã§å‘¼ã¶ã‚»ãƒƒãƒˆ
 132:Core/Src/Hw/ICM_20648.c **** void Update_IMU(float *angv, float *angle )
 133:Core/Src/Hw/ICM_20648.c **** {
 368              		.loc 1 133 1 is_stmt 1 view -0
 369              		.cfi_startproc
 370              		@ args = 0, pretend = 0, frame = 16
 371              		@ frame_needed = 0, uses_anonymous_args = 0
 372              		.loc 1 133 1 is_stmt 0 view .LVU82
 373 0000 F0B5     		push	{r4, r5, r6, r7, lr}
 374              	.LCFI9:
 375              		.cfi_def_cfa_offset 20
 376              		.cfi_offset 4, -20
 377              		.cfi_offset 5, -16
 378              		.cfi_offset 6, -12
 379              		.cfi_offset 7, -8
 380              		.cfi_offset 14, -4
 381 0002 85B0     		sub	sp, sp, #20
 382              	.LCFI10:
 383              		.cfi_def_cfa_offset 40
 384 0004 0746     		mov	r7, r0
 385 0006 0C46     		mov	r4, r1
 134:Core/Src/Hw/ICM_20648.c **** 	uint8_t ret1, ret2,val1,val2;
 386              		.loc 1 134 2 is_stmt 1 view .LVU83
 135:Core/Src/Hw/ICM_20648.c **** 		uint8_t ret[2] = {
 387              		.loc 1 135 3 view .LVU84
 388              		.loc 1 135 11 is_stmt 0 view .LVU85
 389 0008 43F63703 		movw	r3, #14391
 390 000c ADF80830 		strh	r3, [sp, #8]	@ movhi
 136:Core/Src/Hw/ICM_20648.c **** 				0x37,
 137:Core/Src/Hw/ICM_20648.c **** 				0x38,
 138:Core/Src/Hw/ICM_20648.c **** 		};
 139:Core/Src/Hw/ICM_20648.c **** 		int16_t law_data;
 391              		.loc 1 139 3 is_stmt 1 view .LVU86
 140:Core/Src/Hw/ICM_20648.c **** 		ret1 = ret[0] | 0x80;
 392              		.loc 1 140 3 view .LVU87
 393              		.loc 1 140 8 is_stmt 0 view .LVU88
ARM GAS  C:\Users\leopi\AppData\Local\Temp\ccpKCpQH.s 			page 11


 394 0010 B723     		movs	r3, #183
 395 0012 8DF80F30 		strb	r3, [sp, #15]
 141:Core/Src/Hw/ICM_20648.c **** 		ret2 = ret[1] | 0x80;
 396              		.loc 1 141 3 is_stmt 1 view .LVU89
 397              		.loc 1 141 8 is_stmt 0 view .LVU90
 398 0016 B823     		movs	r3, #184
 399 0018 8DF80E30 		strb	r3, [sp, #14]
 142:Core/Src/Hw/ICM_20648.c **** 		CS_RESET;
 400              		.loc 1 142 3 is_stmt 1 view .LVU91
 401 001c 3A4D     		ldr	r5, .L19+16
 402 001e 0022     		movs	r2, #0
 403 0020 0421     		movs	r1, #4
 404              	.LVL31:
 405              		.loc 1 142 3 is_stmt 0 view .LVU92
 406 0022 2846     		mov	r0, r5
 407              	.LVL32:
 408              		.loc 1 142 3 view .LVU93
 409 0024 FFF7FEFF 		bl	HAL_GPIO_WritePin
 410              	.LVL33:
 143:Core/Src/Hw/ICM_20648.c **** 		HAL_SPI_Transmit(&hspi3,&ret1,1,100);
 411              		.loc 1 143 3 is_stmt 1 view .LVU94
 412 0028 384E     		ldr	r6, .L19+20
 413 002a 6423     		movs	r3, #100
 414 002c 0122     		movs	r2, #1
 415 002e 0DF10F01 		add	r1, sp, #15
 416 0032 3046     		mov	r0, r6
 417 0034 FFF7FEFF 		bl	HAL_SPI_Transmit
 418              	.LVL34:
 144:Core/Src/Hw/ICM_20648.c **** 		HAL_SPI_Receive(&hspi3,&val1,1,100);
 419              		.loc 1 144 3 view .LVU95
 420 0038 6423     		movs	r3, #100
 421 003a 0122     		movs	r2, #1
 422 003c 0DF10D01 		add	r1, sp, #13
 423 0040 3046     		mov	r0, r6
 424 0042 FFF7FEFF 		bl	HAL_SPI_Receive
 425              	.LVL35:
 145:Core/Src/Hw/ICM_20648.c **** 		CS_SET;
 426              		.loc 1 145 3 view .LVU96
 427 0046 0122     		movs	r2, #1
 428 0048 0421     		movs	r1, #4
 429 004a 2846     		mov	r0, r5
 430 004c FFF7FEFF 		bl	HAL_GPIO_WritePin
 431              	.LVL36:
 146:Core/Src/Hw/ICM_20648.c **** 
 147:Core/Src/Hw/ICM_20648.c **** 		CS_RESET;
 432              		.loc 1 147 3 view .LVU97
 433 0050 0022     		movs	r2, #0
 434 0052 0421     		movs	r1, #4
 435 0054 2846     		mov	r0, r5
 436 0056 FFF7FEFF 		bl	HAL_GPIO_WritePin
 437              	.LVL37:
 148:Core/Src/Hw/ICM_20648.c **** 		HAL_SPI_Transmit(&hspi3,&ret2,1,100);
 438              		.loc 1 148 3 view .LVU98
 439 005a 6423     		movs	r3, #100
 440 005c 0122     		movs	r2, #1
 441 005e 0DF10E01 		add	r1, sp, #14
 442 0062 3046     		mov	r0, r6
ARM GAS  C:\Users\leopi\AppData\Local\Temp\ccpKCpQH.s 			page 12


 443 0064 FFF7FEFF 		bl	HAL_SPI_Transmit
 444              	.LVL38:
 149:Core/Src/Hw/ICM_20648.c **** 		HAL_SPI_Receive(&hspi3,&val2,1,100);
 445              		.loc 1 149 3 view .LVU99
 446 0068 6423     		movs	r3, #100
 447 006a 0122     		movs	r2, #1
 448 006c 03A9     		add	r1, sp, #12
 449 006e 3046     		mov	r0, r6
 450 0070 FFF7FEFF 		bl	HAL_SPI_Receive
 451              	.LVL39:
 150:Core/Src/Hw/ICM_20648.c **** 		CS_SET;
 452              		.loc 1 150 3 view .LVU100
 453 0074 0122     		movs	r2, #1
 454 0076 0421     		movs	r1, #4
 455 0078 2846     		mov	r0, r5
 456 007a FFF7FEFF 		bl	HAL_GPIO_WritePin
 457              	.LVL40:
 151:Core/Src/Hw/ICM_20648.c **** 		law_data = ( ((uint16_t)val1 << 8) | ((uint16_t)val2) );
 458              		.loc 1 151 3 view .LVU101
 459              		.loc 1 151 17 is_stmt 0 view .LVU102
 460 007e 9DF80D20 		ldrb	r2, [sp, #13]	@ zero_extendqisi2
 461              		.loc 1 151 38 view .LVU103
 462 0082 9DF80C30 		ldrb	r3, [sp, #12]	@ zero_extendqisi2
 463 0086 43EA0223 		orr	r3, r3, r2, lsl #8
 464              		.loc 1 151 12 view .LVU104
 465 008a ADF80630 		strh	r3, [sp, #6]	@ movhi
 152:Core/Src/Hw/ICM_20648.c **** 
 153:Core/Src/Hw/ICM_20648.c **** 		//static int16_t zg_last=0;
 154:Core/Src/Hw/ICM_20648.c **** 		int16_t zg_median;
 466              		.loc 1 154 3 is_stmt 1 view .LVU105
 155:Core/Src/Hw/ICM_20648.c **** 
 156:Core/Src/Hw/ICM_20648.c **** 		//2000å›žç›®ã§0.17
 157:Core/Src/Hw/ICM_20648.c **** 		zg_median = median_filter(&law_data);
 467              		.loc 1 157 3 view .LVU106
 468              		.loc 1 157 15 is_stmt 0 view .LVU107
 469 008e 0DF10600 		add	r0, sp, #6
 470 0092 FFF7FEFF 		bl	median_filter
 471              	.LVL41:
 158:Core/Src/Hw/ICM_20648.c **** 		ZGFilterd = zg_median;
 472              		.loc 1 158 3 is_stmt 1 view .LVU108
 473              		.loc 1 158 13 is_stmt 0 view .LVU109
 474 0096 1E4B     		ldr	r3, .L19+24
 475 0098 1880     		strh	r0, [r3]	@ movhi
 159:Core/Src/Hw/ICM_20648.c **** 		ZGyro = (float)zg_median * convert_to_imu_angv;
 476              		.loc 1 159 3 is_stmt 1 view .LVU110
 477              		.loc 1 159 11 is_stmt 0 view .LVU111
 478 009a 07EE900A 		vmov	s15, r0	@ int
 479 009e F8EEE77A 		vcvt.f32.s32	s15, s15
 480              		.loc 1 159 28 view .LVU112
 481 00a2 9FED1C7A 		vldr.32	s14, .L19+28
 482 00a6 67EE877A 		vmul.f32	s15, s15, s14
 483              		.loc 1 159 9 view .LVU113
 484 00aa 1B4B     		ldr	r3, .L19+32
 485 00ac C3ED007A 		vstr.32	s15, [r3]
 160:Core/Src/Hw/ICM_20648.c **** 
 161:Core/Src/Hw/ICM_20648.c **** #if 0
 162:Core/Src/Hw/ICM_20648.c **** 		*angv = -((0.01*ZGyro) + (0.99)* (zg_last));
ARM GAS  C:\Users\leopi\AppData\Local\Temp\ccpKCpQH.s 			page 13


 163:Core/Src/Hw/ICM_20648.c **** 		zg_last = ZGyro;
 164:Core/Src/Hw/ICM_20648.c **** 		//Angle;
 165:Core/Src/Hw/ICM_20648.c **** 		*angle += *angv *0.001;
 166:Core/Src/Hw/ICM_20648.c **** #else
 167:Core/Src/Hw/ICM_20648.c **** 		*angv = -ZGyro; //è§’é€Ÿåº¦ rad / s
 486              		.loc 1 167 3 is_stmt 1 view .LVU114
 487              		.loc 1 167 11 is_stmt 0 view .LVU115
 488 00b0 D3ED007A 		vldr.32	s15, [r3]
 489 00b4 F1EE677A 		vneg.f32	s15, s15
 490 00b8 17EE900A 		vmov	r0, s15
 491              	.LVL42:
 492              		.loc 1 167 9 view .LVU116
 493 00bc C7ED007A 		vstr.32	s15, [r7]
 494              	.LVL43:
 168:Core/Src/Hw/ICM_20648.c **** 
 169:Core/Src/Hw/ICM_20648.c **** 		//Angle;
 170:Core/Src/Hw/ICM_20648.c **** 		*angle += *angv * 0.001  - 0.000001784;//- 0.0000018432; //è§’åº¦ rad
 495              		.loc 1 170 3 is_stmt 1 view .LVU117
 496              		.loc 1 170 13 is_stmt 0 view .LVU118
 497 00c0 FFF7FEFF 		bl	__aeabi_f2d
 498              	.LVL44:
 499              		.loc 1 170 19 view .LVU119
 500 00c4 0CA3     		adr	r3, .L19
 501 00c6 D3E90023 		ldrd	r2, [r3]
 502 00ca FFF7FEFF 		bl	__aeabi_dmul
 503              	.LVL45:
 504              		.loc 1 170 28 view .LVU120
 505 00ce 0CA3     		adr	r3, .L19+8
 506 00d0 D3E90023 		ldrd	r2, [r3]
 507 00d4 FFF7FEFF 		bl	__aeabi_dsub
 508              	.LVL46:
 509 00d8 0646     		mov	r6, r0
 510 00da 0F46     		mov	r7, r1
 511              	.LVL47:
 512              		.loc 1 170 10 view .LVU121
 513 00dc 2068     		ldr	r0, [r4]	@ float
 514 00de FFF7FEFF 		bl	__aeabi_f2d
 515              	.LVL48:
 516 00e2 3246     		mov	r2, r6
 517 00e4 3B46     		mov	r3, r7
 518 00e6 FFF7FEFF 		bl	__aeabi_dadd
 519              	.LVL49:
 520 00ea FFF7FEFF 		bl	__aeabi_d2f
 521              	.LVL50:
 522 00ee 2060     		str	r0, [r4]	@ float
 171:Core/Src/Hw/ICM_20648.c **** #endif
 172:Core/Src/Hw/ICM_20648.c **** }
 523              		.loc 1 172 1 view .LVU122
 524 00f0 05B0     		add	sp, sp, #20
 525              	.LCFI11:
 526              		.cfi_def_cfa_offset 20
 527              		@ sp needed
 528 00f2 F0BD     		pop	{r4, r5, r6, r7, pc}
 529              	.LVL51:
 530              	.L20:
 531              		.loc 1 172 1 view .LVU123
 532 00f4 AFF30080 		.align	3
ARM GAS  C:\Users\leopi\AppData\Local\Temp\ccpKCpQH.s 			page 14


 533              	.L19:
 534 00f8 FCA9F1D2 		.word	-755914244
 535 00fc 4D62503F 		.word	1062232653
 536 0100 D7A973BE 		.word	-1099716137
 537 0104 38EEBD3E 		.word	1052634680
 538 0108 000C0240 		.word	1073875968
 539 010c 00000000 		.word	hspi3
 540 0110 00000000 		.word	.LANCHOR1
 541 0114 787D8B3A 		.word	982220152
 542 0118 00000000 		.word	.LANCHOR2
 543              		.cfi_endproc
 544              	.LFE242:
 546              		.section	.text.write_byte,"ax",%progbits
 547              		.align	1
 548              		.global	write_byte
 549              		.syntax unified
 550              		.thumb
 551              		.thumb_func
 553              	write_byte:
 554              	.LVL52:
 555              	.LFB243:
 173:Core/Src/Hw/ICM_20648.c **** 
 174:Core/Src/Hw/ICM_20648.c **** void write_byte( uint8_t reg, uint8_t val )  {
 556              		.loc 1 174 46 is_stmt 1 view -0
 557              		.cfi_startproc
 558              		@ args = 0, pretend = 0, frame = 16
 559              		@ frame_needed = 0, uses_anonymous_args = 0
 560              		.loc 1 174 46 is_stmt 0 view .LVU125
 561 0000 30B5     		push	{r4, r5, lr}
 562              	.LCFI12:
 563              		.cfi_def_cfa_offset 12
 564              		.cfi_offset 4, -12
 565              		.cfi_offset 5, -8
 566              		.cfi_offset 14, -4
 567 0002 85B0     		sub	sp, sp, #20
 568              	.LCFI13:
 569              		.cfi_def_cfa_offset 32
 570 0004 8DF80710 		strb	r1, [sp, #7]
 175:Core/Src/Hw/ICM_20648.c **** 	uint8_t ret;
 571              		.loc 1 175 2 is_stmt 1 view .LVU126
 176:Core/Src/Hw/ICM_20648.c **** 
 177:Core/Src/Hw/ICM_20648.c **** 	ret = reg & 0x7F;
 572              		.loc 1 177 2 view .LVU127
 573              		.loc 1 177 12 is_stmt 0 view .LVU128
 574 0008 00F07F00 		and	r0, r0, #127
 575              	.LVL53:
 576              		.loc 1 177 6 view .LVU129
 577 000c 8DF80F00 		strb	r0, [sp, #15]
 178:Core/Src/Hw/ICM_20648.c **** 	CS_RESET;
 578              		.loc 1 178 2 is_stmt 1 view .LVU130
 579 0010 0D4C     		ldr	r4, .L23
 580 0012 0022     		movs	r2, #0
 581 0014 0421     		movs	r1, #4
 582              	.LVL54:
 583              		.loc 1 178 2 is_stmt 0 view .LVU131
 584 0016 2046     		mov	r0, r4
 585 0018 FFF7FEFF 		bl	HAL_GPIO_WritePin
ARM GAS  C:\Users\leopi\AppData\Local\Temp\ccpKCpQH.s 			page 15


 586              	.LVL55:
 179:Core/Src/Hw/ICM_20648.c **** 	HAL_SPI_Transmit(&hspi3,&ret,1,100);
 587              		.loc 1 179 2 is_stmt 1 view .LVU132
 588 001c 0B4D     		ldr	r5, .L23+4
 589 001e 6423     		movs	r3, #100
 590 0020 0122     		movs	r2, #1
 591 0022 0DF10F01 		add	r1, sp, #15
 592 0026 2846     		mov	r0, r5
 593 0028 FFF7FEFF 		bl	HAL_SPI_Transmit
 594              	.LVL56:
 180:Core/Src/Hw/ICM_20648.c **** 	HAL_SPI_Transmit(&hspi3,&val,1,100);
 595              		.loc 1 180 2 view .LVU133
 596 002c 6423     		movs	r3, #100
 597 002e 0122     		movs	r2, #1
 598 0030 0DF10701 		add	r1, sp, #7
 599 0034 2846     		mov	r0, r5
 600 0036 FFF7FEFF 		bl	HAL_SPI_Transmit
 601              	.LVL57:
 181:Core/Src/Hw/ICM_20648.c **** 	CS_SET;
 602              		.loc 1 181 2 view .LVU134
 603 003a 0122     		movs	r2, #1
 604 003c 0421     		movs	r1, #4
 605 003e 2046     		mov	r0, r4
 606 0040 FFF7FEFF 		bl	HAL_GPIO_WritePin
 607              	.LVL58:
 182:Core/Src/Hw/ICM_20648.c **** }
 608              		.loc 1 182 1 is_stmt 0 view .LVU135
 609 0044 05B0     		add	sp, sp, #20
 610              	.LCFI14:
 611              		.cfi_def_cfa_offset 12
 612              		@ sp needed
 613 0046 30BD     		pop	{r4, r5, pc}
 614              	.L24:
 615              		.align	2
 616              	.L23:
 617 0048 000C0240 		.word	1073875968
 618 004c 00000000 		.word	hspi3
 619              		.cfi_endproc
 620              	.LFE243:
 622              		.section	.text.IMU_init,"ax",%progbits
 623              		.align	1
 624              		.global	IMU_init
 625              		.syntax unified
 626              		.thumb
 627              		.thumb_func
 629              	IMU_init:
 630              	.LFB244:
 183:Core/Src/Hw/ICM_20648.c **** 
 184:Core/Src/Hw/ICM_20648.c **** uint8_t IMU_init() {
 631              		.loc 1 184 20 is_stmt 1 view -0
 632              		.cfi_startproc
 633              		@ args = 0, pretend = 0, frame = 8
 634              		@ frame_needed = 0, uses_anonymous_args = 0
 635 0000 30B5     		push	{r4, r5, lr}
 636              	.LCFI15:
 637              		.cfi_def_cfa_offset 12
 638              		.cfi_offset 4, -12
ARM GAS  C:\Users\leopi\AppData\Local\Temp\ccpKCpQH.s 			page 16


 639              		.cfi_offset 5, -8
 640              		.cfi_offset 14, -4
 641 0002 83B0     		sub	sp, sp, #12
 642              	.LCFI16:
 643              		.cfi_def_cfa_offset 24
 185:Core/Src/Hw/ICM_20648.c **** 	uint8_t who_am_i,ret;
 644              		.loc 1 185 2 view .LVU137
 186:Core/Src/Hw/ICM_20648.c **** 
 187:Core/Src/Hw/ICM_20648.c **** 	who_am_i = read_byte(0x00);	//IMUå‹•ä½œç¢ºèªã€€0xE0ãŒé€ã‚‰ã‚Œã¦ãã‚Œã°ãŠï½‹
 645              		.loc 1 187 2 view .LVU138
 646              	.LVL59:
 647              	.LBB4:
 648              	.LBI4:
  45:Core/Src/Hw/ICM_20648.c **** 
 649              		.loc 1 45 16 view .LVU139
 650              	.LBB5:
  47:Core/Src/Hw/ICM_20648.c **** 
 651              		.loc 1 47 2 view .LVU140
  49:Core/Src/Hw/ICM_20648.c **** 	CS_RESET;
 652              		.loc 1 49 2 view .LVU141
  49:Core/Src/Hw/ICM_20648.c **** 	CS_RESET;
 653              		.loc 1 49 6 is_stmt 0 view .LVU142
 654 0004 8023     		movs	r3, #128
 655 0006 8DF80630 		strb	r3, [sp, #6]
  50:Core/Src/Hw/ICM_20648.c **** 	HAL_SPI_Transmit(&hspi3,&ret,1,100);
 656              		.loc 1 50 2 is_stmt 1 view .LVU143
 657 000a 1D4C     		ldr	r4, .L29
 658 000c 0022     		movs	r2, #0
 659 000e 0421     		movs	r1, #4
 660 0010 2046     		mov	r0, r4
 661 0012 FFF7FEFF 		bl	HAL_GPIO_WritePin
 662              	.LVL60:
  51:Core/Src/Hw/ICM_20648.c **** 	HAL_SPI_Receive(&hspi3,&val,1,100);
 663              		.loc 1 51 2 view .LVU144
 664 0016 1B4D     		ldr	r5, .L29+4
 665 0018 6423     		movs	r3, #100
 666 001a 0122     		movs	r2, #1
 667 001c 0DF10601 		add	r1, sp, #6
 668 0020 2846     		mov	r0, r5
 669 0022 FFF7FEFF 		bl	HAL_SPI_Transmit
 670              	.LVL61:
  52:Core/Src/Hw/ICM_20648.c **** 	CS_SET;
 671              		.loc 1 52 2 view .LVU145
 672 0026 6423     		movs	r3, #100
 673 0028 0122     		movs	r2, #1
 674 002a 0DF10701 		add	r1, sp, #7
 675 002e 2846     		mov	r0, r5
 676 0030 FFF7FEFF 		bl	HAL_SPI_Receive
 677              	.LVL62:
  53:Core/Src/Hw/ICM_20648.c **** 	//1å›žã®å–å¾—ã¯0.2msã ã£ãŸ
 678              		.loc 1 53 2 view .LVU146
 679 0034 0122     		movs	r2, #1
 680 0036 0421     		movs	r1, #4
 681 0038 2046     		mov	r0, r4
 682 003a FFF7FEFF 		bl	HAL_GPIO_WritePin
 683              	.LVL63:
  57:Core/Src/Hw/ICM_20648.c **** }
ARM GAS  C:\Users\leopi\AppData\Local\Temp\ccpKCpQH.s 			page 17


 684              		.loc 1 57 2 view .LVU147
  57:Core/Src/Hw/ICM_20648.c **** }
 685              		.loc 1 57 9 is_stmt 0 view .LVU148
 686 003e 9DF80730 		ldrb	r3, [sp, #7]	@ zero_extendqisi2
 687              	.LVL64:
  57:Core/Src/Hw/ICM_20648.c **** }
 688              		.loc 1 57 9 view .LVU149
 689              	.LBE5:
 690              	.LBE4:
 188:Core/Src/Hw/ICM_20648.c **** 	if ( who_am_i == 0xE0 ) {
 691              		.loc 1 188 2 is_stmt 1 view .LVU150
 692              		.loc 1 188 5 is_stmt 0 view .LVU151
 693 0042 E02B     		cmp	r3, #224
 694 0044 02D0     		beq	.L28
 695              	.LVL65:
 696              	.L26:
 189:Core/Src/Hw/ICM_20648.c **** 		ret = 1;
 190:Core/Src/Hw/ICM_20648.c **** 		write_byte(0x06,0x01);	//PWR_MGMT_1	ã‚¹ãƒªãƒ¼ãƒ—ï¾“ï½°ï¾„ï¾žè§£é™¤
 191:Core/Src/Hw/ICM_20648.c **** 		write_byte(0x03,0x10);	//USER_CTRL	è«¸ã€…æ©Ÿèƒ½ç„¡åŠ¹ã€€SPIonly
 192:Core/Src/Hw/ICM_20648.c **** 		write_byte(0x7F,0x20);	//USER_BANK2
 193:Core/Src/Hw/ICM_20648.c **** 
 194:Core/Src/Hw/ICM_20648.c **** 		//write_byte(0x01,0x06);	//	ãƒ¬ãƒ³ã‚¸Â±2000dps DLPF disable
 195:Core/Src/Hw/ICM_20648.c **** 		//write_byte(0x01,0x07);	//rangeÂ±2000dps DLPF enable DLPFCFG = 0
 196:Core/Src/Hw/ICM_20648.c **** 		//write_byte(0x01,0x0F);	//rangeÂ±2000dps DLPF enable DLPFCFG = 1
 197:Core/Src/Hw/ICM_20648.c **** 		write_byte(0x01,0x17);	//rangeÂ±2000dps DLPF enable DLPFCFG = 2
 198:Core/Src/Hw/ICM_20648.c **** 		//2:1 GYRO_FS_SEL[1:0] 00:Â±250	01:Â±500 10:Â±1000 11:Â±2000
 199:Core/Src/Hw/ICM_20648.c **** 
 200:Core/Src/Hw/ICM_20648.c **** 		write_byte(0x14,0x17);	//	ãƒ¬ãƒ³ã‚¸Â±16g 0x06
 201:Core/Src/Hw/ICM_20648.c **** 		//2:1 ACCEL_FS_SEL[1:0] 00:Â±2	01:Â±4 10:Â±8 11:Â±16
 202:Core/Src/Hw/ICM_20648.c **** 
 203:Core/Src/Hw/ICM_20648.c **** 		write_byte(0x7F,0x00);	//USER_BANK0
 204:Core/Src/Hw/ICM_20648.c **** 	}
 205:Core/Src/Hw/ICM_20648.c **** 	return ret;
 697              		.loc 1 205 2 is_stmt 1 view .LVU152
 206:Core/Src/Hw/ICM_20648.c **** 	//0x14, 0x7F : 0000 1110, 0111 1111
 207:Core/Src/Hw/ICM_20648.c **** 	//retã¯regã®ã¾ã¾ã€‚
 208:Core/Src/Hw/ICM_20648.c **** }
 698              		.loc 1 208 1 is_stmt 0 view .LVU153
 699 0046 0120     		movs	r0, #1
 700 0048 03B0     		add	sp, sp, #12
 701              	.LCFI17:
 702              		.cfi_remember_state
 703              		.cfi_def_cfa_offset 12
 704              		@ sp needed
 705 004a 30BD     		pop	{r4, r5, pc}
 706              	.LVL66:
 707              	.L28:
 708              	.LCFI18:
 709              		.cfi_restore_state
 189:Core/Src/Hw/ICM_20648.c **** 		ret = 1;
 710              		.loc 1 189 3 is_stmt 1 view .LVU154
 190:Core/Src/Hw/ICM_20648.c **** 		write_byte(0x03,0x10);	//USER_CTRL	è«¸ã€…æ©Ÿèƒ½ç„¡åŠ¹ã€€SPIonly
 711              		.loc 1 190 3 view .LVU155
 712 004c 0121     		movs	r1, #1
 713 004e 0620     		movs	r0, #6
 714 0050 FFF7FEFF 		bl	write_byte
 715              	.LVL67:
ARM GAS  C:\Users\leopi\AppData\Local\Temp\ccpKCpQH.s 			page 18


 191:Core/Src/Hw/ICM_20648.c **** 		write_byte(0x7F,0x20);	//USER_BANK2
 716              		.loc 1 191 3 view .LVU156
 717 0054 1021     		movs	r1, #16
 718 0056 0320     		movs	r0, #3
 719 0058 FFF7FEFF 		bl	write_byte
 720              	.LVL68:
 192:Core/Src/Hw/ICM_20648.c **** 
 721              		.loc 1 192 3 view .LVU157
 722 005c 2021     		movs	r1, #32
 723 005e 7F20     		movs	r0, #127
 724 0060 FFF7FEFF 		bl	write_byte
 725              	.LVL69:
 197:Core/Src/Hw/ICM_20648.c **** 		//2:1 GYRO_FS_SEL[1:0] 00:Â±250	01:Â±500 10:Â±1000 11:Â±2000
 726              		.loc 1 197 3 view .LVU158
 727 0064 1721     		movs	r1, #23
 728 0066 0120     		movs	r0, #1
 729 0068 FFF7FEFF 		bl	write_byte
 730              	.LVL70:
 200:Core/Src/Hw/ICM_20648.c **** 		//2:1 ACCEL_FS_SEL[1:0] 00:Â±2	01:Â±4 10:Â±8 11:Â±16
 731              		.loc 1 200 3 view .LVU159
 732 006c 1721     		movs	r1, #23
 733 006e 1420     		movs	r0, #20
 734 0070 FFF7FEFF 		bl	write_byte
 735              	.LVL71:
 203:Core/Src/Hw/ICM_20648.c **** 	}
 736              		.loc 1 203 3 view .LVU160
 737 0074 0021     		movs	r1, #0
 738 0076 7F20     		movs	r0, #127
 739 0078 FFF7FEFF 		bl	write_byte
 740              	.LVL72:
 741 007c E3E7     		b	.L26
 742              	.L30:
 743 007e 00BF     		.align	2
 744              	.L29:
 745 0080 000C0240 		.word	1073875968
 746 0084 00000000 		.word	hspi3
 747              		.cfi_endproc
 748              	.LFE244:
 750              		.section	.text.read_gyro_data,"ax",%progbits
 751              		.align	1
 752              		.global	read_gyro_data
 753              		.syntax unified
 754              		.thumb
 755              		.thumb_func
 757              	read_gyro_data:
 758              	.LFB245:
 209:Core/Src/Hw/ICM_20648.c **** 
 210:Core/Src/Hw/ICM_20648.c **** void read_gyro_data() {
 759              		.loc 1 210 23 view -0
 760              		.cfi_startproc
 761              		@ args = 0, pretend = 0, frame = 8
 762              		@ frame_needed = 0, uses_anonymous_args = 0
 763 0000 70B5     		push	{r4, r5, r6, lr}
 764              	.LCFI19:
 765              		.cfi_def_cfa_offset 16
 766              		.cfi_offset 4, -16
 767              		.cfi_offset 5, -12
ARM GAS  C:\Users\leopi\AppData\Local\Temp\ccpKCpQH.s 			page 19


 768              		.cfi_offset 6, -8
 769              		.cfi_offset 14, -4
 770 0002 82B0     		sub	sp, sp, #8
 771              	.LCFI20:
 772              		.cfi_def_cfa_offset 24
 211:Core/Src/Hw/ICM_20648.c **** 	xg = ((uint16_t)read_byte(0x33) << 8) | ((uint16_t)read_byte(0x34));
 773              		.loc 1 211 2 view .LVU162
 774              	.LVL73:
 775              	.LBB18:
 776              	.LBI18:
  45:Core/Src/Hw/ICM_20648.c **** 
 777              		.loc 1 45 16 view .LVU163
 778              	.LBB19:
  47:Core/Src/Hw/ICM_20648.c **** 
 779              		.loc 1 47 2 view .LVU164
  49:Core/Src/Hw/ICM_20648.c **** 	CS_RESET;
 780              		.loc 1 49 2 view .LVU165
  49:Core/Src/Hw/ICM_20648.c **** 	CS_RESET;
 781              		.loc 1 49 6 is_stmt 0 view .LVU166
 782 0004 B323     		movs	r3, #179
 783 0006 8DF80630 		strb	r3, [sp, #6]
  50:Core/Src/Hw/ICM_20648.c **** 	HAL_SPI_Transmit(&hspi3,&ret,1,100);
 784              		.loc 1 50 2 is_stmt 1 view .LVU167
 785 000a 5F4C     		ldr	r4, .L33
 786 000c 0022     		movs	r2, #0
 787 000e 0421     		movs	r1, #4
 788 0010 2046     		mov	r0, r4
 789 0012 FFF7FEFF 		bl	HAL_GPIO_WritePin
 790              	.LVL74:
  51:Core/Src/Hw/ICM_20648.c **** 	HAL_SPI_Receive(&hspi3,&val,1,100);
 791              		.loc 1 51 2 view .LVU168
 792 0016 5D4D     		ldr	r5, .L33+4
 793 0018 6423     		movs	r3, #100
 794 001a 0122     		movs	r2, #1
 795 001c 0DF10601 		add	r1, sp, #6
 796 0020 2846     		mov	r0, r5
 797 0022 FFF7FEFF 		bl	HAL_SPI_Transmit
 798              	.LVL75:
  52:Core/Src/Hw/ICM_20648.c **** 	CS_SET;
 799              		.loc 1 52 2 view .LVU169
 800 0026 6423     		movs	r3, #100
 801 0028 0122     		movs	r2, #1
 802 002a 0DF10701 		add	r1, sp, #7
 803 002e 2846     		mov	r0, r5
 804 0030 FFF7FEFF 		bl	HAL_SPI_Receive
 805              	.LVL76:
  53:Core/Src/Hw/ICM_20648.c **** 	//1å›žã®å–å¾—ã¯0.2msã ã£ãŸ
 806              		.loc 1 53 2 view .LVU170
 807 0034 0122     		movs	r2, #1
 808 0036 0421     		movs	r1, #4
 809 0038 2046     		mov	r0, r4
 810 003a FFF7FEFF 		bl	HAL_GPIO_WritePin
 811              	.LVL77:
  57:Core/Src/Hw/ICM_20648.c **** }
 812              		.loc 1 57 2 view .LVU171
  57:Core/Src/Hw/ICM_20648.c **** }
 813              		.loc 1 57 9 is_stmt 0 view .LVU172
ARM GAS  C:\Users\leopi\AppData\Local\Temp\ccpKCpQH.s 			page 20


 814 003e 9DF80730 		ldrb	r3, [sp, #7]	@ zero_extendqisi2
 815              	.LVL78:
  57:Core/Src/Hw/ICM_20648.c **** }
 816              		.loc 1 57 9 view .LVU173
 817              	.LBE19:
 818              	.LBE18:
 819              		.loc 1 211 34 view .LVU174
 820 0042 1E02     		lsls	r6, r3, #8
 821              	.LVL79:
 822              	.LBB20:
 823              	.LBI20:
  45:Core/Src/Hw/ICM_20648.c **** 
 824              		.loc 1 45 16 is_stmt 1 view .LVU175
 825              	.LBB21:
  47:Core/Src/Hw/ICM_20648.c **** 
 826              		.loc 1 47 2 view .LVU176
  49:Core/Src/Hw/ICM_20648.c **** 	CS_RESET;
 827              		.loc 1 49 2 view .LVU177
  49:Core/Src/Hw/ICM_20648.c **** 	CS_RESET;
 828              		.loc 1 49 6 is_stmt 0 view .LVU178
 829 0044 B423     		movs	r3, #180
 830 0046 8DF80630 		strb	r3, [sp, #6]
  50:Core/Src/Hw/ICM_20648.c **** 	HAL_SPI_Transmit(&hspi3,&ret,1,100);
 831              		.loc 1 50 2 is_stmt 1 view .LVU179
 832 004a 0022     		movs	r2, #0
 833 004c 0421     		movs	r1, #4
 834 004e 2046     		mov	r0, r4
 835 0050 FFF7FEFF 		bl	HAL_GPIO_WritePin
 836              	.LVL80:
  51:Core/Src/Hw/ICM_20648.c **** 	HAL_SPI_Receive(&hspi3,&val,1,100);
 837              		.loc 1 51 2 view .LVU180
 838 0054 6423     		movs	r3, #100
 839 0056 0122     		movs	r2, #1
 840 0058 0DF10601 		add	r1, sp, #6
 841 005c 2846     		mov	r0, r5
 842 005e FFF7FEFF 		bl	HAL_SPI_Transmit
 843              	.LVL81:
  52:Core/Src/Hw/ICM_20648.c **** 	CS_SET;
 844              		.loc 1 52 2 view .LVU181
 845 0062 6423     		movs	r3, #100
 846 0064 0122     		movs	r2, #1
 847 0066 0DF10701 		add	r1, sp, #7
 848 006a 2846     		mov	r0, r5
 849 006c FFF7FEFF 		bl	HAL_SPI_Receive
 850              	.LVL82:
  53:Core/Src/Hw/ICM_20648.c **** 	//1å›žã®å–å¾—ã¯0.2msã ã£ãŸ
 851              		.loc 1 53 2 view .LVU182
 852 0070 0122     		movs	r2, #1
 853 0072 0421     		movs	r1, #4
 854 0074 2046     		mov	r0, r4
 855 0076 FFF7FEFF 		bl	HAL_GPIO_WritePin
 856              	.LVL83:
  57:Core/Src/Hw/ICM_20648.c **** }
 857              		.loc 1 57 2 view .LVU183
  57:Core/Src/Hw/ICM_20648.c **** }
 858              		.loc 1 57 2 is_stmt 0 view .LVU184
 859              	.LBE21:
ARM GAS  C:\Users\leopi\AppData\Local\Temp\ccpKCpQH.s 			page 21


 860              	.LBE20:
 861              		.loc 1 211 53 view .LVU185
 862 007a 9DF80730 		ldrb	r3, [sp, #7]	@ zero_extendqisi2
 863              		.loc 1 211 40 view .LVU186
 864 007e 3343     		orrs	r3, r3, r6
 865 0080 1BB2     		sxth	r3, r3
 866              		.loc 1 211 5 view .LVU187
 867 0082 434A     		ldr	r2, .L33+8
 868 0084 1380     		strh	r3, [r2]	@ movhi
 212:Core/Src/Hw/ICM_20648.c **** 	yg = ((uint16_t)read_byte(0x35) << 8) | ((uint16_t)read_byte(0x36));
 869              		.loc 1 212 2 is_stmt 1 view .LVU188
 870              	.LVL84:
 871              	.LBB22:
 872              	.LBI22:
  45:Core/Src/Hw/ICM_20648.c **** 
 873              		.loc 1 45 16 view .LVU189
 874              	.LBB23:
  47:Core/Src/Hw/ICM_20648.c **** 
 875              		.loc 1 47 2 view .LVU190
  49:Core/Src/Hw/ICM_20648.c **** 	CS_RESET;
 876              		.loc 1 49 2 view .LVU191
  49:Core/Src/Hw/ICM_20648.c **** 	CS_RESET;
 877              		.loc 1 49 6 is_stmt 0 view .LVU192
 878 0086 B523     		movs	r3, #181
 879 0088 8DF80630 		strb	r3, [sp, #6]
  50:Core/Src/Hw/ICM_20648.c **** 	HAL_SPI_Transmit(&hspi3,&ret,1,100);
 880              		.loc 1 50 2 is_stmt 1 view .LVU193
 881 008c 0022     		movs	r2, #0
 882 008e 0421     		movs	r1, #4
 883 0090 2046     		mov	r0, r4
 884 0092 FFF7FEFF 		bl	HAL_GPIO_WritePin
 885              	.LVL85:
  51:Core/Src/Hw/ICM_20648.c **** 	HAL_SPI_Receive(&hspi3,&val,1,100);
 886              		.loc 1 51 2 view .LVU194
 887 0096 6423     		movs	r3, #100
 888 0098 0122     		movs	r2, #1
 889 009a 0DF10601 		add	r1, sp, #6
 890 009e 2846     		mov	r0, r5
 891 00a0 FFF7FEFF 		bl	HAL_SPI_Transmit
 892              	.LVL86:
  52:Core/Src/Hw/ICM_20648.c **** 	CS_SET;
 893              		.loc 1 52 2 view .LVU195
 894 00a4 6423     		movs	r3, #100
 895 00a6 0122     		movs	r2, #1
 896 00a8 0DF10701 		add	r1, sp, #7
 897 00ac 2846     		mov	r0, r5
 898 00ae FFF7FEFF 		bl	HAL_SPI_Receive
 899              	.LVL87:
  53:Core/Src/Hw/ICM_20648.c **** 	//1å›žã®å–å¾—ã¯0.2msã ã£ãŸ
 900              		.loc 1 53 2 view .LVU196
 901 00b2 0122     		movs	r2, #1
 902 00b4 0421     		movs	r1, #4
 903 00b6 2046     		mov	r0, r4
 904 00b8 FFF7FEFF 		bl	HAL_GPIO_WritePin
 905              	.LVL88:
  57:Core/Src/Hw/ICM_20648.c **** }
 906              		.loc 1 57 2 view .LVU197
ARM GAS  C:\Users\leopi\AppData\Local\Temp\ccpKCpQH.s 			page 22


  57:Core/Src/Hw/ICM_20648.c **** }
 907              		.loc 1 57 9 is_stmt 0 view .LVU198
 908 00bc 9DF80730 		ldrb	r3, [sp, #7]	@ zero_extendqisi2
 909              	.LVL89:
  57:Core/Src/Hw/ICM_20648.c **** }
 910              		.loc 1 57 9 view .LVU199
 911              	.LBE23:
 912              	.LBE22:
 913              		.loc 1 212 34 view .LVU200
 914 00c0 1E02     		lsls	r6, r3, #8
 915              	.LVL90:
 916              	.LBB24:
 917              	.LBI24:
  45:Core/Src/Hw/ICM_20648.c **** 
 918              		.loc 1 45 16 is_stmt 1 view .LVU201
 919              	.LBB25:
  47:Core/Src/Hw/ICM_20648.c **** 
 920              		.loc 1 47 2 view .LVU202
  49:Core/Src/Hw/ICM_20648.c **** 	CS_RESET;
 921              		.loc 1 49 2 view .LVU203
  49:Core/Src/Hw/ICM_20648.c **** 	CS_RESET;
 922              		.loc 1 49 6 is_stmt 0 view .LVU204
 923 00c2 B623     		movs	r3, #182
 924 00c4 8DF80630 		strb	r3, [sp, #6]
  50:Core/Src/Hw/ICM_20648.c **** 	HAL_SPI_Transmit(&hspi3,&ret,1,100);
 925              		.loc 1 50 2 is_stmt 1 view .LVU205
 926 00c8 0022     		movs	r2, #0
 927 00ca 0421     		movs	r1, #4
 928 00cc 2046     		mov	r0, r4
 929 00ce FFF7FEFF 		bl	HAL_GPIO_WritePin
 930              	.LVL91:
  51:Core/Src/Hw/ICM_20648.c **** 	HAL_SPI_Receive(&hspi3,&val,1,100);
 931              		.loc 1 51 2 view .LVU206
 932 00d2 6423     		movs	r3, #100
 933 00d4 0122     		movs	r2, #1
 934 00d6 0DF10601 		add	r1, sp, #6
 935 00da 2846     		mov	r0, r5
 936 00dc FFF7FEFF 		bl	HAL_SPI_Transmit
 937              	.LVL92:
  52:Core/Src/Hw/ICM_20648.c **** 	CS_SET;
 938              		.loc 1 52 2 view .LVU207
 939 00e0 6423     		movs	r3, #100
 940 00e2 0122     		movs	r2, #1
 941 00e4 0DF10701 		add	r1, sp, #7
 942 00e8 2846     		mov	r0, r5
 943 00ea FFF7FEFF 		bl	HAL_SPI_Receive
 944              	.LVL93:
  53:Core/Src/Hw/ICM_20648.c **** 	//1å›žã®å–å¾—ã¯0.2msã ã£ãŸ
 945              		.loc 1 53 2 view .LVU208
 946 00ee 0122     		movs	r2, #1
 947 00f0 0421     		movs	r1, #4
 948 00f2 2046     		mov	r0, r4
 949 00f4 FFF7FEFF 		bl	HAL_GPIO_WritePin
 950              	.LVL94:
  57:Core/Src/Hw/ICM_20648.c **** }
 951              		.loc 1 57 2 view .LVU209
  57:Core/Src/Hw/ICM_20648.c **** }
ARM GAS  C:\Users\leopi\AppData\Local\Temp\ccpKCpQH.s 			page 23


 952              		.loc 1 57 2 is_stmt 0 view .LVU210
 953              	.LBE25:
 954              	.LBE24:
 955              		.loc 1 212 53 view .LVU211
 956 00f8 9DF80730 		ldrb	r3, [sp, #7]	@ zero_extendqisi2
 957              		.loc 1 212 40 view .LVU212
 958 00fc 3343     		orrs	r3, r3, r6
 959 00fe 1BB2     		sxth	r3, r3
 960              		.loc 1 212 5 view .LVU213
 961 0100 244A     		ldr	r2, .L33+12
 962 0102 1380     		strh	r3, [r2]	@ movhi
 213:Core/Src/Hw/ICM_20648.c **** 	zg = ((uint16_t)read_byte(0x37) << 8) | ((uint16_t)read_byte(0x38));
 963              		.loc 1 213 2 is_stmt 1 view .LVU214
 964              	.LVL95:
 965              	.LBB26:
 966              	.LBI26:
  45:Core/Src/Hw/ICM_20648.c **** 
 967              		.loc 1 45 16 view .LVU215
 968              	.LBB27:
  47:Core/Src/Hw/ICM_20648.c **** 
 969              		.loc 1 47 2 view .LVU216
  49:Core/Src/Hw/ICM_20648.c **** 	CS_RESET;
 970              		.loc 1 49 2 view .LVU217
  49:Core/Src/Hw/ICM_20648.c **** 	CS_RESET;
 971              		.loc 1 49 6 is_stmt 0 view .LVU218
 972 0104 B723     		movs	r3, #183
 973 0106 8DF80630 		strb	r3, [sp, #6]
  50:Core/Src/Hw/ICM_20648.c **** 	HAL_SPI_Transmit(&hspi3,&ret,1,100);
 974              		.loc 1 50 2 is_stmt 1 view .LVU219
 975 010a 0022     		movs	r2, #0
 976 010c 0421     		movs	r1, #4
 977 010e 2046     		mov	r0, r4
 978 0110 FFF7FEFF 		bl	HAL_GPIO_WritePin
 979              	.LVL96:
  51:Core/Src/Hw/ICM_20648.c **** 	HAL_SPI_Receive(&hspi3,&val,1,100);
 980              		.loc 1 51 2 view .LVU220
 981 0114 6423     		movs	r3, #100
 982 0116 0122     		movs	r2, #1
 983 0118 0DF10601 		add	r1, sp, #6
 984 011c 2846     		mov	r0, r5
 985 011e FFF7FEFF 		bl	HAL_SPI_Transmit
 986              	.LVL97:
  52:Core/Src/Hw/ICM_20648.c **** 	CS_SET;
 987              		.loc 1 52 2 view .LVU221
 988 0122 6423     		movs	r3, #100
 989 0124 0122     		movs	r2, #1
 990 0126 0DF10701 		add	r1, sp, #7
 991 012a 2846     		mov	r0, r5
 992 012c FFF7FEFF 		bl	HAL_SPI_Receive
 993              	.LVL98:
  53:Core/Src/Hw/ICM_20648.c **** 	//1å›žã®å–å¾—ã¯0.2msã ã£ãŸ
 994              		.loc 1 53 2 view .LVU222
 995 0130 0122     		movs	r2, #1
 996 0132 0421     		movs	r1, #4
 997 0134 2046     		mov	r0, r4
 998 0136 FFF7FEFF 		bl	HAL_GPIO_WritePin
 999              	.LVL99:
ARM GAS  C:\Users\leopi\AppData\Local\Temp\ccpKCpQH.s 			page 24


  57:Core/Src/Hw/ICM_20648.c **** }
 1000              		.loc 1 57 2 view .LVU223
  57:Core/Src/Hw/ICM_20648.c **** }
 1001              		.loc 1 57 9 is_stmt 0 view .LVU224
 1002 013a 9DF80730 		ldrb	r3, [sp, #7]	@ zero_extendqisi2
 1003              	.LVL100:
  57:Core/Src/Hw/ICM_20648.c **** }
 1004              		.loc 1 57 9 view .LVU225
 1005              	.LBE27:
 1006              	.LBE26:
 1007              		.loc 1 213 34 view .LVU226
 1008 013e 1E02     		lsls	r6, r3, #8
 1009              	.LVL101:
 1010              	.LBB28:
 1011              	.LBI28:
  45:Core/Src/Hw/ICM_20648.c **** 
 1012              		.loc 1 45 16 is_stmt 1 view .LVU227
 1013              	.LBB29:
  47:Core/Src/Hw/ICM_20648.c **** 
 1014              		.loc 1 47 2 view .LVU228
  49:Core/Src/Hw/ICM_20648.c **** 	CS_RESET;
 1015              		.loc 1 49 2 view .LVU229
  49:Core/Src/Hw/ICM_20648.c **** 	CS_RESET;
 1016              		.loc 1 49 6 is_stmt 0 view .LVU230
 1017 0140 B823     		movs	r3, #184
 1018 0142 8DF80630 		strb	r3, [sp, #6]
  50:Core/Src/Hw/ICM_20648.c **** 	HAL_SPI_Transmit(&hspi3,&ret,1,100);
 1019              		.loc 1 50 2 is_stmt 1 view .LVU231
 1020 0146 0022     		movs	r2, #0
 1021 0148 0421     		movs	r1, #4
 1022 014a 2046     		mov	r0, r4
 1023 014c FFF7FEFF 		bl	HAL_GPIO_WritePin
 1024              	.LVL102:
  51:Core/Src/Hw/ICM_20648.c **** 	HAL_SPI_Receive(&hspi3,&val,1,100);
 1025              		.loc 1 51 2 view .LVU232
 1026 0150 6423     		movs	r3, #100
 1027 0152 0122     		movs	r2, #1
 1028 0154 0DF10601 		add	r1, sp, #6
 1029 0158 2846     		mov	r0, r5
 1030 015a FFF7FEFF 		bl	HAL_SPI_Transmit
 1031              	.LVL103:
  52:Core/Src/Hw/ICM_20648.c **** 	CS_SET;
 1032              		.loc 1 52 2 view .LVU233
 1033 015e 6423     		movs	r3, #100
 1034 0160 0122     		movs	r2, #1
 1035 0162 0DF10701 		add	r1, sp, #7
 1036 0166 2846     		mov	r0, r5
 1037 0168 FFF7FEFF 		bl	HAL_SPI_Receive
 1038              	.LVL104:
  53:Core/Src/Hw/ICM_20648.c **** 	//1å›žã®å–å¾—ã¯0.2msã ã£ãŸ
 1039              		.loc 1 53 2 view .LVU234
 1040 016c 0122     		movs	r2, #1
 1041 016e 0421     		movs	r1, #4
 1042 0170 2046     		mov	r0, r4
 1043 0172 FFF7FEFF 		bl	HAL_GPIO_WritePin
 1044              	.LVL105:
  57:Core/Src/Hw/ICM_20648.c **** }
ARM GAS  C:\Users\leopi\AppData\Local\Temp\ccpKCpQH.s 			page 25


 1045              		.loc 1 57 2 view .LVU235
  57:Core/Src/Hw/ICM_20648.c **** }
 1046              		.loc 1 57 2 is_stmt 0 view .LVU236
 1047              	.LBE29:
 1048              	.LBE28:
 1049              		.loc 1 213 53 view .LVU237
 1050 0176 9DF80730 		ldrb	r3, [sp, #7]	@ zero_extendqisi2
 1051              		.loc 1 213 40 view .LVU238
 1052 017a 3343     		orrs	r3, r3, r6
 1053 017c 1BB2     		sxth	r3, r3
 1054              		.loc 1 213 5 view .LVU239
 1055 017e 064A     		ldr	r2, .L33+16
 1056 0180 1380     		strh	r3, [r2]	@ movhi
 214:Core/Src/Hw/ICM_20648.c **** }
 1057              		.loc 1 214 1 view .LVU240
 1058 0182 02B0     		add	sp, sp, #8
 1059              	.LCFI21:
 1060              		.cfi_def_cfa_offset 16
 1061              		@ sp needed
 1062 0184 70BD     		pop	{r4, r5, r6, pc}
 1063              	.L34:
 1064 0186 00BF     		.align	2
 1065              	.L33:
 1066 0188 000C0240 		.word	1073875968
 1067 018c 00000000 		.word	hspi3
 1068 0190 00000000 		.word	.LANCHOR3
 1069 0194 00000000 		.word	.LANCHOR4
 1070 0198 00000000 		.word	.LANCHOR5
 1071              		.cfi_endproc
 1072              	.LFE245:
 1074              		.section	.text.read_zg_data,"ax",%progbits
 1075              		.align	1
 1076              		.global	read_zg_data
 1077              		.syntax unified
 1078              		.thumb
 1079              		.thumb_func
 1081              	read_zg_data:
 1082              	.LFB246:
 215:Core/Src/Hw/ICM_20648.c **** void read_zg_data()
 216:Core/Src/Hw/ICM_20648.c **** {
 1083              		.loc 1 216 1 is_stmt 1 view -0
 1084              		.cfi_startproc
 1085              		@ args = 0, pretend = 0, frame = 8
 1086              		@ frame_needed = 0, uses_anonymous_args = 0
 1087 0000 70B5     		push	{r4, r5, r6, lr}
 1088              	.LCFI22:
 1089              		.cfi_def_cfa_offset 16
 1090              		.cfi_offset 4, -16
 1091              		.cfi_offset 5, -12
 1092              		.cfi_offset 6, -8
 1093              		.cfi_offset 14, -4
 1094 0002 82B0     		sub	sp, sp, #8
 1095              	.LCFI23:
 1096              		.cfi_def_cfa_offset 24
 217:Core/Src/Hw/ICM_20648.c **** 	zg = ((uint16_t)read_byte(0x37) << 8) | ((uint16_t)read_byte(0x38));
 1097              		.loc 1 217 2 view .LVU242
 1098              	.LVL106:
ARM GAS  C:\Users\leopi\AppData\Local\Temp\ccpKCpQH.s 			page 26


 1099              	.LBB34:
 1100              	.LBI34:
  45:Core/Src/Hw/ICM_20648.c **** 
 1101              		.loc 1 45 16 view .LVU243
 1102              	.LBB35:
  47:Core/Src/Hw/ICM_20648.c **** 
 1103              		.loc 1 47 2 view .LVU244
  49:Core/Src/Hw/ICM_20648.c **** 	CS_RESET;
 1104              		.loc 1 49 2 view .LVU245
  49:Core/Src/Hw/ICM_20648.c **** 	CS_RESET;
 1105              		.loc 1 49 6 is_stmt 0 view .LVU246
 1106 0004 B723     		movs	r3, #183
 1107 0006 8DF80630 		strb	r3, [sp, #6]
  50:Core/Src/Hw/ICM_20648.c **** 	HAL_SPI_Transmit(&hspi3,&ret,1,100);
 1108              		.loc 1 50 2 is_stmt 1 view .LVU247
 1109 000a 204C     		ldr	r4, .L37
 1110 000c 0022     		movs	r2, #0
 1111 000e 0421     		movs	r1, #4
 1112 0010 2046     		mov	r0, r4
 1113 0012 FFF7FEFF 		bl	HAL_GPIO_WritePin
 1114              	.LVL107:
  51:Core/Src/Hw/ICM_20648.c **** 	HAL_SPI_Receive(&hspi3,&val,1,100);
 1115              		.loc 1 51 2 view .LVU248
 1116 0016 1E4D     		ldr	r5, .L37+4
 1117 0018 6423     		movs	r3, #100
 1118 001a 0122     		movs	r2, #1
 1119 001c 0DF10601 		add	r1, sp, #6
 1120 0020 2846     		mov	r0, r5
 1121 0022 FFF7FEFF 		bl	HAL_SPI_Transmit
 1122              	.LVL108:
  52:Core/Src/Hw/ICM_20648.c **** 	CS_SET;
 1123              		.loc 1 52 2 view .LVU249
 1124 0026 6423     		movs	r3, #100
 1125 0028 0122     		movs	r2, #1
 1126 002a 0DF10701 		add	r1, sp, #7
 1127 002e 2846     		mov	r0, r5
 1128 0030 FFF7FEFF 		bl	HAL_SPI_Receive
 1129              	.LVL109:
  53:Core/Src/Hw/ICM_20648.c **** 	//1å›žã®å–å¾—ã¯0.2msã ã£ãŸ
 1130              		.loc 1 53 2 view .LVU250
 1131 0034 0122     		movs	r2, #1
 1132 0036 0421     		movs	r1, #4
 1133 0038 2046     		mov	r0, r4
 1134 003a FFF7FEFF 		bl	HAL_GPIO_WritePin
 1135              	.LVL110:
  57:Core/Src/Hw/ICM_20648.c **** }
 1136              		.loc 1 57 2 view .LVU251
  57:Core/Src/Hw/ICM_20648.c **** }
 1137              		.loc 1 57 9 is_stmt 0 view .LVU252
 1138 003e 9DF80730 		ldrb	r3, [sp, #7]	@ zero_extendqisi2
 1139              	.LVL111:
  57:Core/Src/Hw/ICM_20648.c **** }
 1140              		.loc 1 57 9 view .LVU253
 1141              	.LBE35:
 1142              	.LBE34:
 1143              		.loc 1 217 34 view .LVU254
 1144 0042 1E02     		lsls	r6, r3, #8
ARM GAS  C:\Users\leopi\AppData\Local\Temp\ccpKCpQH.s 			page 27


 1145              	.LVL112:
 1146              	.LBB36:
 1147              	.LBI36:
  45:Core/Src/Hw/ICM_20648.c **** 
 1148              		.loc 1 45 16 is_stmt 1 view .LVU255
 1149              	.LBB37:
  47:Core/Src/Hw/ICM_20648.c **** 
 1150              		.loc 1 47 2 view .LVU256
  49:Core/Src/Hw/ICM_20648.c **** 	CS_RESET;
 1151              		.loc 1 49 2 view .LVU257
  49:Core/Src/Hw/ICM_20648.c **** 	CS_RESET;
 1152              		.loc 1 49 6 is_stmt 0 view .LVU258
 1153 0044 B823     		movs	r3, #184
 1154 0046 8DF80630 		strb	r3, [sp, #6]
  50:Core/Src/Hw/ICM_20648.c **** 	HAL_SPI_Transmit(&hspi3,&ret,1,100);
 1155              		.loc 1 50 2 is_stmt 1 view .LVU259
 1156 004a 0022     		movs	r2, #0
 1157 004c 0421     		movs	r1, #4
 1158 004e 2046     		mov	r0, r4
 1159 0050 FFF7FEFF 		bl	HAL_GPIO_WritePin
 1160              	.LVL113:
  51:Core/Src/Hw/ICM_20648.c **** 	HAL_SPI_Receive(&hspi3,&val,1,100);
 1161              		.loc 1 51 2 view .LVU260
 1162 0054 6423     		movs	r3, #100
 1163 0056 0122     		movs	r2, #1
 1164 0058 0DF10601 		add	r1, sp, #6
 1165 005c 2846     		mov	r0, r5
 1166 005e FFF7FEFF 		bl	HAL_SPI_Transmit
 1167              	.LVL114:
  52:Core/Src/Hw/ICM_20648.c **** 	CS_SET;
 1168              		.loc 1 52 2 view .LVU261
 1169 0062 6423     		movs	r3, #100
 1170 0064 0122     		movs	r2, #1
 1171 0066 0DF10701 		add	r1, sp, #7
 1172 006a 2846     		mov	r0, r5
 1173 006c FFF7FEFF 		bl	HAL_SPI_Receive
 1174              	.LVL115:
  53:Core/Src/Hw/ICM_20648.c **** 	//1å›žã®å–å¾—ã¯0.2msã ã£ãŸ
 1175              		.loc 1 53 2 view .LVU262
 1176 0070 0122     		movs	r2, #1
 1177 0072 0421     		movs	r1, #4
 1178 0074 2046     		mov	r0, r4
 1179 0076 FFF7FEFF 		bl	HAL_GPIO_WritePin
 1180              	.LVL116:
  57:Core/Src/Hw/ICM_20648.c **** }
 1181              		.loc 1 57 2 view .LVU263
  57:Core/Src/Hw/ICM_20648.c **** }
 1182              		.loc 1 57 2 is_stmt 0 view .LVU264
 1183              	.LBE37:
 1184              	.LBE36:
 1185              		.loc 1 217 53 view .LVU265
 1186 007a 9DF80730 		ldrb	r3, [sp, #7]	@ zero_extendqisi2
 1187              		.loc 1 217 40 view .LVU266
 1188 007e 3343     		orrs	r3, r3, r6
 1189 0080 1BB2     		sxth	r3, r3
 1190              		.loc 1 217 5 view .LVU267
 1191 0082 044A     		ldr	r2, .L37+8
ARM GAS  C:\Users\leopi\AppData\Local\Temp\ccpKCpQH.s 			page 28


 1192 0084 1380     		strh	r3, [r2]	@ movhi
 218:Core/Src/Hw/ICM_20648.c **** }
 1193              		.loc 1 218 1 view .LVU268
 1194 0086 02B0     		add	sp, sp, #8
 1195              	.LCFI24:
 1196              		.cfi_def_cfa_offset 16
 1197              		@ sp needed
 1198 0088 70BD     		pop	{r4, r5, r6, pc}
 1199              	.L38:
 1200 008a 00BF     		.align	2
 1201              	.L37:
 1202 008c 000C0240 		.word	1073875968
 1203 0090 00000000 		.word	hspi3
 1204 0094 00000000 		.word	.LANCHOR5
 1205              		.cfi_endproc
 1206              	.LFE246:
 1208              		.section	.text.read_accel_data,"ax",%progbits
 1209              		.align	1
 1210              		.global	read_accel_data
 1211              		.syntax unified
 1212              		.thumb
 1213              		.thumb_func
 1215              	read_accel_data:
 1216              	.LFB247:
 219:Core/Src/Hw/ICM_20648.c **** 
 220:Core/Src/Hw/ICM_20648.c **** void read_accel_data() {
 1217              		.loc 1 220 24 is_stmt 1 view -0
 1218              		.cfi_startproc
 1219              		@ args = 0, pretend = 0, frame = 8
 1220              		@ frame_needed = 0, uses_anonymous_args = 0
 1221 0000 70B5     		push	{r4, r5, r6, lr}
 1222              	.LCFI25:
 1223              		.cfi_def_cfa_offset 16
 1224              		.cfi_offset 4, -16
 1225              		.cfi_offset 5, -12
 1226              		.cfi_offset 6, -8
 1227              		.cfi_offset 14, -4
 1228 0002 82B0     		sub	sp, sp, #8
 1229              	.LCFI26:
 1230              		.cfi_def_cfa_offset 24
 221:Core/Src/Hw/ICM_20648.c **** 
 222:Core/Src/Hw/ICM_20648.c **** 	xa = ((uint16_t)read_byte(0x2D) << 8) | ((uint16_t)read_byte(0x2E));
 1231              		.loc 1 222 2 view .LVU270
 1232              	.LVL117:
 1233              	.LBB50:
 1234              	.LBI50:
  45:Core/Src/Hw/ICM_20648.c **** 
 1235              		.loc 1 45 16 view .LVU271
 1236              	.LBB51:
  47:Core/Src/Hw/ICM_20648.c **** 
 1237              		.loc 1 47 2 view .LVU272
  49:Core/Src/Hw/ICM_20648.c **** 	CS_RESET;
 1238              		.loc 1 49 2 view .LVU273
  49:Core/Src/Hw/ICM_20648.c **** 	CS_RESET;
 1239              		.loc 1 49 6 is_stmt 0 view .LVU274
 1240 0004 AD23     		movs	r3, #173
 1241 0006 8DF80630 		strb	r3, [sp, #6]
ARM GAS  C:\Users\leopi\AppData\Local\Temp\ccpKCpQH.s 			page 29


  50:Core/Src/Hw/ICM_20648.c **** 	HAL_SPI_Transmit(&hspi3,&ret,1,100);
 1242              		.loc 1 50 2 is_stmt 1 view .LVU275
 1243 000a 5F4C     		ldr	r4, .L41
 1244 000c 0022     		movs	r2, #0
 1245 000e 0421     		movs	r1, #4
 1246 0010 2046     		mov	r0, r4
 1247 0012 FFF7FEFF 		bl	HAL_GPIO_WritePin
 1248              	.LVL118:
  51:Core/Src/Hw/ICM_20648.c **** 	HAL_SPI_Receive(&hspi3,&val,1,100);
 1249              		.loc 1 51 2 view .LVU276
 1250 0016 5D4D     		ldr	r5, .L41+4
 1251 0018 6423     		movs	r3, #100
 1252 001a 0122     		movs	r2, #1
 1253 001c 0DF10601 		add	r1, sp, #6
 1254 0020 2846     		mov	r0, r5
 1255 0022 FFF7FEFF 		bl	HAL_SPI_Transmit
 1256              	.LVL119:
  52:Core/Src/Hw/ICM_20648.c **** 	CS_SET;
 1257              		.loc 1 52 2 view .LVU277
 1258 0026 6423     		movs	r3, #100
 1259 0028 0122     		movs	r2, #1
 1260 002a 0DF10701 		add	r1, sp, #7
 1261 002e 2846     		mov	r0, r5
 1262 0030 FFF7FEFF 		bl	HAL_SPI_Receive
 1263              	.LVL120:
  53:Core/Src/Hw/ICM_20648.c **** 	//1å›žã®å–å¾—ã¯0.2msã ã£ãŸ
 1264              		.loc 1 53 2 view .LVU278
 1265 0034 0122     		movs	r2, #1
 1266 0036 0421     		movs	r1, #4
 1267 0038 2046     		mov	r0, r4
 1268 003a FFF7FEFF 		bl	HAL_GPIO_WritePin
 1269              	.LVL121:
  57:Core/Src/Hw/ICM_20648.c **** }
 1270              		.loc 1 57 2 view .LVU279
  57:Core/Src/Hw/ICM_20648.c **** }
 1271              		.loc 1 57 9 is_stmt 0 view .LVU280
 1272 003e 9DF80730 		ldrb	r3, [sp, #7]	@ zero_extendqisi2
 1273              	.LVL122:
  57:Core/Src/Hw/ICM_20648.c **** }
 1274              		.loc 1 57 9 view .LVU281
 1275              	.LBE51:
 1276              	.LBE50:
 1277              		.loc 1 222 34 view .LVU282
 1278 0042 1E02     		lsls	r6, r3, #8
 1279              	.LVL123:
 1280              	.LBB52:
 1281              	.LBI52:
  45:Core/Src/Hw/ICM_20648.c **** 
 1282              		.loc 1 45 16 is_stmt 1 view .LVU283
 1283              	.LBB53:
  47:Core/Src/Hw/ICM_20648.c **** 
 1284              		.loc 1 47 2 view .LVU284
  49:Core/Src/Hw/ICM_20648.c **** 	CS_RESET;
 1285              		.loc 1 49 2 view .LVU285
  49:Core/Src/Hw/ICM_20648.c **** 	CS_RESET;
 1286              		.loc 1 49 6 is_stmt 0 view .LVU286
 1287 0044 AE23     		movs	r3, #174
ARM GAS  C:\Users\leopi\AppData\Local\Temp\ccpKCpQH.s 			page 30


 1288 0046 8DF80630 		strb	r3, [sp, #6]
  50:Core/Src/Hw/ICM_20648.c **** 	HAL_SPI_Transmit(&hspi3,&ret,1,100);
 1289              		.loc 1 50 2 is_stmt 1 view .LVU287
 1290 004a 0022     		movs	r2, #0
 1291 004c 0421     		movs	r1, #4
 1292 004e 2046     		mov	r0, r4
 1293 0050 FFF7FEFF 		bl	HAL_GPIO_WritePin
 1294              	.LVL124:
  51:Core/Src/Hw/ICM_20648.c **** 	HAL_SPI_Receive(&hspi3,&val,1,100);
 1295              		.loc 1 51 2 view .LVU288
 1296 0054 6423     		movs	r3, #100
 1297 0056 0122     		movs	r2, #1
 1298 0058 0DF10601 		add	r1, sp, #6
 1299 005c 2846     		mov	r0, r5
 1300 005e FFF7FEFF 		bl	HAL_SPI_Transmit
 1301              	.LVL125:
  52:Core/Src/Hw/ICM_20648.c **** 	CS_SET;
 1302              		.loc 1 52 2 view .LVU289
 1303 0062 6423     		movs	r3, #100
 1304 0064 0122     		movs	r2, #1
 1305 0066 0DF10701 		add	r1, sp, #7
 1306 006a 2846     		mov	r0, r5
 1307 006c FFF7FEFF 		bl	HAL_SPI_Receive
 1308              	.LVL126:
  53:Core/Src/Hw/ICM_20648.c **** 	//1å›žã®å–å¾—ã¯0.2msã ã£ãŸ
 1309              		.loc 1 53 2 view .LVU290
 1310 0070 0122     		movs	r2, #1
 1311 0072 0421     		movs	r1, #4
 1312 0074 2046     		mov	r0, r4
 1313 0076 FFF7FEFF 		bl	HAL_GPIO_WritePin
 1314              	.LVL127:
  57:Core/Src/Hw/ICM_20648.c **** }
 1315              		.loc 1 57 2 view .LVU291
  57:Core/Src/Hw/ICM_20648.c **** }
 1316              		.loc 1 57 2 is_stmt 0 view .LVU292
 1317              	.LBE53:
 1318              	.LBE52:
 1319              		.loc 1 222 53 view .LVU293
 1320 007a 9DF80730 		ldrb	r3, [sp, #7]	@ zero_extendqisi2
 1321              		.loc 1 222 40 view .LVU294
 1322 007e 3343     		orrs	r3, r3, r6
 1323 0080 1BB2     		sxth	r3, r3
 1324              		.loc 1 222 5 view .LVU295
 1325 0082 434A     		ldr	r2, .L41+8
 1326 0084 1380     		strh	r3, [r2]	@ movhi
 223:Core/Src/Hw/ICM_20648.c **** 	ya = ((uint16_t)read_byte(0x2F) << 8) | ((uint16_t)read_byte(0x30));
 1327              		.loc 1 223 2 is_stmt 1 view .LVU296
 1328              	.LVL128:
 1329              	.LBB54:
 1330              	.LBI54:
  45:Core/Src/Hw/ICM_20648.c **** 
 1331              		.loc 1 45 16 view .LVU297
 1332              	.LBB55:
  47:Core/Src/Hw/ICM_20648.c **** 
 1333              		.loc 1 47 2 view .LVU298
  49:Core/Src/Hw/ICM_20648.c **** 	CS_RESET;
 1334              		.loc 1 49 2 view .LVU299
ARM GAS  C:\Users\leopi\AppData\Local\Temp\ccpKCpQH.s 			page 31


  49:Core/Src/Hw/ICM_20648.c **** 	CS_RESET;
 1335              		.loc 1 49 6 is_stmt 0 view .LVU300
 1336 0086 AF23     		movs	r3, #175
 1337 0088 8DF80630 		strb	r3, [sp, #6]
  50:Core/Src/Hw/ICM_20648.c **** 	HAL_SPI_Transmit(&hspi3,&ret,1,100);
 1338              		.loc 1 50 2 is_stmt 1 view .LVU301
 1339 008c 0022     		movs	r2, #0
 1340 008e 0421     		movs	r1, #4
 1341 0090 2046     		mov	r0, r4
 1342 0092 FFF7FEFF 		bl	HAL_GPIO_WritePin
 1343              	.LVL129:
  51:Core/Src/Hw/ICM_20648.c **** 	HAL_SPI_Receive(&hspi3,&val,1,100);
 1344              		.loc 1 51 2 view .LVU302
 1345 0096 6423     		movs	r3, #100
 1346 0098 0122     		movs	r2, #1
 1347 009a 0DF10601 		add	r1, sp, #6
 1348 009e 2846     		mov	r0, r5
 1349 00a0 FFF7FEFF 		bl	HAL_SPI_Transmit
 1350              	.LVL130:
  52:Core/Src/Hw/ICM_20648.c **** 	CS_SET;
 1351              		.loc 1 52 2 view .LVU303
 1352 00a4 6423     		movs	r3, #100
 1353 00a6 0122     		movs	r2, #1
 1354 00a8 0DF10701 		add	r1, sp, #7
 1355 00ac 2846     		mov	r0, r5
 1356 00ae FFF7FEFF 		bl	HAL_SPI_Receive
 1357              	.LVL131:
  53:Core/Src/Hw/ICM_20648.c **** 	//1å›žã®å–å¾—ã¯0.2msã ã£ãŸ
 1358              		.loc 1 53 2 view .LVU304
 1359 00b2 0122     		movs	r2, #1
 1360 00b4 0421     		movs	r1, #4
 1361 00b6 2046     		mov	r0, r4
 1362 00b8 FFF7FEFF 		bl	HAL_GPIO_WritePin
 1363              	.LVL132:
  57:Core/Src/Hw/ICM_20648.c **** }
 1364              		.loc 1 57 2 view .LVU305
  57:Core/Src/Hw/ICM_20648.c **** }
 1365              		.loc 1 57 9 is_stmt 0 view .LVU306
 1366 00bc 9DF80730 		ldrb	r3, [sp, #7]	@ zero_extendqisi2
 1367              	.LVL133:
  57:Core/Src/Hw/ICM_20648.c **** }
 1368              		.loc 1 57 9 view .LVU307
 1369              	.LBE55:
 1370              	.LBE54:
 1371              		.loc 1 223 34 view .LVU308
 1372 00c0 1E02     		lsls	r6, r3, #8
 1373              	.LVL134:
 1374              	.LBB56:
 1375              	.LBI56:
  45:Core/Src/Hw/ICM_20648.c **** 
 1376              		.loc 1 45 16 is_stmt 1 view .LVU309
 1377              	.LBB57:
  47:Core/Src/Hw/ICM_20648.c **** 
 1378              		.loc 1 47 2 view .LVU310
  49:Core/Src/Hw/ICM_20648.c **** 	CS_RESET;
 1379              		.loc 1 49 2 view .LVU311
  49:Core/Src/Hw/ICM_20648.c **** 	CS_RESET;
ARM GAS  C:\Users\leopi\AppData\Local\Temp\ccpKCpQH.s 			page 32


 1380              		.loc 1 49 6 is_stmt 0 view .LVU312
 1381 00c2 B023     		movs	r3, #176
 1382 00c4 8DF80630 		strb	r3, [sp, #6]
  50:Core/Src/Hw/ICM_20648.c **** 	HAL_SPI_Transmit(&hspi3,&ret,1,100);
 1383              		.loc 1 50 2 is_stmt 1 view .LVU313
 1384 00c8 0022     		movs	r2, #0
 1385 00ca 0421     		movs	r1, #4
 1386 00cc 2046     		mov	r0, r4
 1387 00ce FFF7FEFF 		bl	HAL_GPIO_WritePin
 1388              	.LVL135:
  51:Core/Src/Hw/ICM_20648.c **** 	HAL_SPI_Receive(&hspi3,&val,1,100);
 1389              		.loc 1 51 2 view .LVU314
 1390 00d2 6423     		movs	r3, #100
 1391 00d4 0122     		movs	r2, #1
 1392 00d6 0DF10601 		add	r1, sp, #6
 1393 00da 2846     		mov	r0, r5
 1394 00dc FFF7FEFF 		bl	HAL_SPI_Transmit
 1395              	.LVL136:
  52:Core/Src/Hw/ICM_20648.c **** 	CS_SET;
 1396              		.loc 1 52 2 view .LVU315
 1397 00e0 6423     		movs	r3, #100
 1398 00e2 0122     		movs	r2, #1
 1399 00e4 0DF10701 		add	r1, sp, #7
 1400 00e8 2846     		mov	r0, r5
 1401 00ea FFF7FEFF 		bl	HAL_SPI_Receive
 1402              	.LVL137:
  53:Core/Src/Hw/ICM_20648.c **** 	//1å›žã®å–å¾—ã¯0.2msã ã£ãŸ
 1403              		.loc 1 53 2 view .LVU316
 1404 00ee 0122     		movs	r2, #1
 1405 00f0 0421     		movs	r1, #4
 1406 00f2 2046     		mov	r0, r4
 1407 00f4 FFF7FEFF 		bl	HAL_GPIO_WritePin
 1408              	.LVL138:
  57:Core/Src/Hw/ICM_20648.c **** }
 1409              		.loc 1 57 2 view .LVU317
  57:Core/Src/Hw/ICM_20648.c **** }
 1410              		.loc 1 57 2 is_stmt 0 view .LVU318
 1411              	.LBE57:
 1412              	.LBE56:
 1413              		.loc 1 223 53 view .LVU319
 1414 00f8 9DF80730 		ldrb	r3, [sp, #7]	@ zero_extendqisi2
 1415              		.loc 1 223 40 view .LVU320
 1416 00fc 3343     		orrs	r3, r3, r6
 1417 00fe 1BB2     		sxth	r3, r3
 1418              		.loc 1 223 5 view .LVU321
 1419 0100 244A     		ldr	r2, .L41+12
 1420 0102 1380     		strh	r3, [r2]	@ movhi
 224:Core/Src/Hw/ICM_20648.c **** 	za = ((uint16_t)read_byte(0x31) << 8) | ((uint16_t)read_byte(0x32));
 1421              		.loc 1 224 2 is_stmt 1 view .LVU322
 1422              	.LVL139:
 1423              	.LBB58:
 1424              	.LBI58:
  45:Core/Src/Hw/ICM_20648.c **** 
 1425              		.loc 1 45 16 view .LVU323
 1426              	.LBB59:
  47:Core/Src/Hw/ICM_20648.c **** 
 1427              		.loc 1 47 2 view .LVU324
ARM GAS  C:\Users\leopi\AppData\Local\Temp\ccpKCpQH.s 			page 33


  49:Core/Src/Hw/ICM_20648.c **** 	CS_RESET;
 1428              		.loc 1 49 2 view .LVU325
  49:Core/Src/Hw/ICM_20648.c **** 	CS_RESET;
 1429              		.loc 1 49 6 is_stmt 0 view .LVU326
 1430 0104 B123     		movs	r3, #177
 1431 0106 8DF80630 		strb	r3, [sp, #6]
  50:Core/Src/Hw/ICM_20648.c **** 	HAL_SPI_Transmit(&hspi3,&ret,1,100);
 1432              		.loc 1 50 2 is_stmt 1 view .LVU327
 1433 010a 0022     		movs	r2, #0
 1434 010c 0421     		movs	r1, #4
 1435 010e 2046     		mov	r0, r4
 1436 0110 FFF7FEFF 		bl	HAL_GPIO_WritePin
 1437              	.LVL140:
  51:Core/Src/Hw/ICM_20648.c **** 	HAL_SPI_Receive(&hspi3,&val,1,100);
 1438              		.loc 1 51 2 view .LVU328
 1439 0114 6423     		movs	r3, #100
 1440 0116 0122     		movs	r2, #1
 1441 0118 0DF10601 		add	r1, sp, #6
 1442 011c 2846     		mov	r0, r5
 1443 011e FFF7FEFF 		bl	HAL_SPI_Transmit
 1444              	.LVL141:
  52:Core/Src/Hw/ICM_20648.c **** 	CS_SET;
 1445              		.loc 1 52 2 view .LVU329
 1446 0122 6423     		movs	r3, #100
 1447 0124 0122     		movs	r2, #1
 1448 0126 0DF10701 		add	r1, sp, #7
 1449 012a 2846     		mov	r0, r5
 1450 012c FFF7FEFF 		bl	HAL_SPI_Receive
 1451              	.LVL142:
  53:Core/Src/Hw/ICM_20648.c **** 	//1å›žã®å–å¾—ã¯0.2msã ã£ãŸ
 1452              		.loc 1 53 2 view .LVU330
 1453 0130 0122     		movs	r2, #1
 1454 0132 0421     		movs	r1, #4
 1455 0134 2046     		mov	r0, r4
 1456 0136 FFF7FEFF 		bl	HAL_GPIO_WritePin
 1457              	.LVL143:
  57:Core/Src/Hw/ICM_20648.c **** }
 1458              		.loc 1 57 2 view .LVU331
  57:Core/Src/Hw/ICM_20648.c **** }
 1459              		.loc 1 57 9 is_stmt 0 view .LVU332
 1460 013a 9DF80730 		ldrb	r3, [sp, #7]	@ zero_extendqisi2
 1461              	.LVL144:
  57:Core/Src/Hw/ICM_20648.c **** }
 1462              		.loc 1 57 9 view .LVU333
 1463              	.LBE59:
 1464              	.LBE58:
 1465              		.loc 1 224 34 view .LVU334
 1466 013e 1E02     		lsls	r6, r3, #8
 1467              	.LVL145:
 1468              	.LBB60:
 1469              	.LBI60:
  45:Core/Src/Hw/ICM_20648.c **** 
 1470              		.loc 1 45 16 is_stmt 1 view .LVU335
 1471              	.LBB61:
  47:Core/Src/Hw/ICM_20648.c **** 
 1472              		.loc 1 47 2 view .LVU336
  49:Core/Src/Hw/ICM_20648.c **** 	CS_RESET;
ARM GAS  C:\Users\leopi\AppData\Local\Temp\ccpKCpQH.s 			page 34


 1473              		.loc 1 49 2 view .LVU337
  49:Core/Src/Hw/ICM_20648.c **** 	CS_RESET;
 1474              		.loc 1 49 6 is_stmt 0 view .LVU338
 1475 0140 B223     		movs	r3, #178
 1476 0142 8DF80630 		strb	r3, [sp, #6]
  50:Core/Src/Hw/ICM_20648.c **** 	HAL_SPI_Transmit(&hspi3,&ret,1,100);
 1477              		.loc 1 50 2 is_stmt 1 view .LVU339
 1478 0146 0022     		movs	r2, #0
 1479 0148 0421     		movs	r1, #4
 1480 014a 2046     		mov	r0, r4
 1481 014c FFF7FEFF 		bl	HAL_GPIO_WritePin
 1482              	.LVL146:
  51:Core/Src/Hw/ICM_20648.c **** 	HAL_SPI_Receive(&hspi3,&val,1,100);
 1483              		.loc 1 51 2 view .LVU340
 1484 0150 6423     		movs	r3, #100
 1485 0152 0122     		movs	r2, #1
 1486 0154 0DF10601 		add	r1, sp, #6
 1487 0158 2846     		mov	r0, r5
 1488 015a FFF7FEFF 		bl	HAL_SPI_Transmit
 1489              	.LVL147:
  52:Core/Src/Hw/ICM_20648.c **** 	CS_SET;
 1490              		.loc 1 52 2 view .LVU341
 1491 015e 6423     		movs	r3, #100
 1492 0160 0122     		movs	r2, #1
 1493 0162 0DF10701 		add	r1, sp, #7
 1494 0166 2846     		mov	r0, r5
 1495 0168 FFF7FEFF 		bl	HAL_SPI_Receive
 1496              	.LVL148:
  53:Core/Src/Hw/ICM_20648.c **** 	//1å›žã®å–å¾—ã¯0.2msã ã£ãŸ
 1497              		.loc 1 53 2 view .LVU342
 1498 016c 0122     		movs	r2, #1
 1499 016e 0421     		movs	r1, #4
 1500 0170 2046     		mov	r0, r4
 1501 0172 FFF7FEFF 		bl	HAL_GPIO_WritePin
 1502              	.LVL149:
  57:Core/Src/Hw/ICM_20648.c **** }
 1503              		.loc 1 57 2 view .LVU343
  57:Core/Src/Hw/ICM_20648.c **** }
 1504              		.loc 1 57 2 is_stmt 0 view .LVU344
 1505              	.LBE61:
 1506              	.LBE60:
 1507              		.loc 1 224 53 view .LVU345
 1508 0176 9DF80730 		ldrb	r3, [sp, #7]	@ zero_extendqisi2
 1509              		.loc 1 224 40 view .LVU346
 1510 017a 3343     		orrs	r3, r3, r6
 1511 017c 1BB2     		sxth	r3, r3
 1512              		.loc 1 224 5 view .LVU347
 1513 017e 064A     		ldr	r2, .L41+16
 1514 0180 1380     		strh	r3, [r2]	@ movhi
 225:Core/Src/Hw/ICM_20648.c **** }
 1515              		.loc 1 225 1 view .LVU348
 1516 0182 02B0     		add	sp, sp, #8
 1517              	.LCFI27:
 1518              		.cfi_def_cfa_offset 16
 1519              		@ sp needed
 1520 0184 70BD     		pop	{r4, r5, r6, pc}
 1521              	.L42:
ARM GAS  C:\Users\leopi\AppData\Local\Temp\ccpKCpQH.s 			page 35


 1522 0186 00BF     		.align	2
 1523              	.L41:
 1524 0188 000C0240 		.word	1073875968
 1525 018c 00000000 		.word	hspi3
 1526 0190 00000000 		.word	.LANCHOR6
 1527 0194 00000000 		.word	.LANCHOR7
 1528 0198 00000000 		.word	.LANCHOR8
 1529              		.cfi_endproc
 1530              	.LFE247:
 1532              		.section	.text.IMU_Calib,"ax",%progbits
 1533              		.align	1
 1534              		.global	IMU_Calib
 1535              		.syntax unified
 1536              		.thumb
 1537              		.thumb_func
 1539              	IMU_Calib:
 1540              	.LFB248:
 226:Core/Src/Hw/ICM_20648.c **** 
 227:Core/Src/Hw/ICM_20648.c **** void IMU_Calib(){
 1541              		.loc 1 227 17 is_stmt 1 view -0
 1542              		.cfi_startproc
 1543              		@ args = 0, pretend = 0, frame = 8000
 1544              		@ frame_needed = 0, uses_anonymous_args = 0
 1545 0000 10B5     		push	{r4, lr}
 1546              	.LCFI28:
 1547              		.cfi_def_cfa_offset 8
 1548              		.cfi_offset 4, -8
 1549              		.cfi_offset 14, -4
 1550 0002 2DED028B 		vpush.64	{d8}
 1551              	.LCFI29:
 1552              		.cfi_def_cfa_offset 16
 1553              		.cfi_offset 80, -16
 1554              		.cfi_offset 81, -12
 1555 0006 ADF5FA5D 		sub	sp, sp, #8000
 1556              	.LCFI30:
 1557              		.cfi_def_cfa_offset 8016
 228:Core/Src/Hw/ICM_20648.c **** 
 229:Core/Src/Hw/ICM_20648.c **** 
 230:Core/Src/Hw/ICM_20648.c **** 	HAL_Delay(100);
 1558              		.loc 1 230 2 view .LVU350
 1559 000a 6420     		movs	r0, #100
 1560 000c FFF7FEFF 		bl	HAL_Delay
 1561              	.LVL150:
 231:Core/Src/Hw/ICM_20648.c **** 
 232:Core/Src/Hw/ICM_20648.c **** 	int num = 2000;
 1562              		.loc 1 232 2 view .LVU351
 233:Core/Src/Hw/ICM_20648.c **** 	float zg_vals[2000]={0.0f};
 1563              		.loc 1 233 2 view .LVU352
 1564              		.loc 1 233 8 is_stmt 0 view .LVU353
 1565 0010 4FF4FA52 		mov	r2, #8000
 1566 0014 0021     		movs	r1, #0
 1567 0016 6846     		mov	r0, sp
 1568 0018 FFF7FEFF 		bl	memset
 1569              	.LVL151:
 234:Core/Src/Hw/ICM_20648.c **** 	float sum=0;
 1570              		.loc 1 234 2 is_stmt 1 view .LVU354
 235:Core/Src/Hw/ICM_20648.c **** 	for(int i = 0; i < num; i++){
ARM GAS  C:\Users\leopi\AppData\Local\Temp\ccpKCpQH.s 			page 36


 1571              		.loc 1 235 2 view .LVU355
 1572              	.LBB62:
 1573              		.loc 1 235 6 view .LVU356
 1574              		.loc 1 235 10 is_stmt 0 view .LVU357
 1575 001c 0024     		movs	r4, #0
 1576              	.LBE62:
 234:Core/Src/Hw/ICM_20648.c **** 	float sum=0;
 1577              		.loc 1 234 8 view .LVU358
 1578 001e 9FED0F8A 		vldr.32	s16, .L47
 1579              	.LBB63:
 1580              		.loc 1 235 2 view .LVU359
 1581 0022 0CE0     		b	.L44
 1582              	.LVL152:
 1583              	.L45:
 236:Core/Src/Hw/ICM_20648.c **** 		zg_vals[i] = ZGyro;
 1584              		.loc 1 236 3 is_stmt 1 discriminator 3 view .LVU360
 1585              		.loc 1 236 14 is_stmt 0 discriminator 3 view .LVU361
 1586 0024 0E4B     		ldr	r3, .L47+4
 1587 0026 D3ED007A 		vldr.32	s15, [r3]
 1588 002a 0DEB8403 		add	r3, sp, r4, lsl #2
 1589 002e C3ED007A 		vstr.32	s15, [r3]
 237:Core/Src/Hw/ICM_20648.c **** 		sum += zg_vals[i];
 1590              		.loc 1 237 3 is_stmt 1 discriminator 3 view .LVU362
 1591              		.loc 1 237 7 is_stmt 0 discriminator 3 view .LVU363
 1592 0032 38EE278A 		vadd.f32	s16, s16, s15
 1593              	.LVL153:
 238:Core/Src/Hw/ICM_20648.c **** 		HAL_Delay(2);
 1594              		.loc 1 238 3 is_stmt 1 discriminator 3 view .LVU364
 1595 0036 0220     		movs	r0, #2
 1596 0038 FFF7FEFF 		bl	HAL_Delay
 1597              	.LVL154:
 235:Core/Src/Hw/ICM_20648.c **** 		zg_vals[i] = ZGyro;
 1598              		.loc 1 235 26 discriminator 3 view .LVU365
 235:Core/Src/Hw/ICM_20648.c **** 		zg_vals[i] = ZGyro;
 1599              		.loc 1 235 27 is_stmt 0 discriminator 3 view .LVU366
 1600 003c 0134     		adds	r4, r4, #1
 1601              	.LVL155:
 1602              	.L44:
 235:Core/Src/Hw/ICM_20648.c **** 		zg_vals[i] = ZGyro;
 1603              		.loc 1 235 17 is_stmt 1 discriminator 1 view .LVU367
 235:Core/Src/Hw/ICM_20648.c **** 		zg_vals[i] = ZGyro;
 1604              		.loc 1 235 2 is_stmt 0 discriminator 1 view .LVU368
 1605 003e B4F5FA6F 		cmp	r4, #2000
 1606 0042 EFDB     		blt	.L45
 1607              	.LBE63:
 239:Core/Src/Hw/ICM_20648.c **** 	}
 240:Core/Src/Hw/ICM_20648.c **** //	for(int i=0; i < num; i++)
 241:Core/Src/Hw/ICM_20648.c **** //	{
 242:Core/Src/Hw/ICM_20648.c **** //		printf("zg_vals[%d]: %lf\r\n",i,zg_vals[i]);
 243:Core/Src/Hw/ICM_20648.c **** //	}
 244:Core/Src/Hw/ICM_20648.c **** //	printf("sum:%lf",sum);
 245:Core/Src/Hw/ICM_20648.c **** 	zg_offset = sum / 2000.0f;
 1608              		.loc 1 245 2 is_stmt 1 view .LVU369
 1609              		.loc 1 245 18 is_stmt 0 view .LVU370
 1610 0044 9FED077A 		vldr.32	s14, .L47+8
 1611 0048 C8EE077A 		vdiv.f32	s15, s16, s14
 1612              		.loc 1 245 12 view .LVU371
ARM GAS  C:\Users\leopi\AppData\Local\Temp\ccpKCpQH.s 			page 37


 1613 004c 064B     		ldr	r3, .L47+12
 1614 004e C3ED007A 		vstr.32	s15, [r3]
 246:Core/Src/Hw/ICM_20648.c **** }
 1615              		.loc 1 246 1 view .LVU372
 1616 0052 0DF5FA5D 		add	sp, sp, #8000
 1617              	.LCFI31:
 1618              		.cfi_def_cfa_offset 16
 1619              		@ sp needed
 1620 0056 BDEC028B 		vldm	sp!, {d8}
 1621              	.LCFI32:
 1622              		.cfi_restore 80
 1623              		.cfi_restore 81
 1624              		.cfi_def_cfa_offset 8
 1625              	.LVL156:
 1626              		.loc 1 246 1 view .LVU373
 1627 005a 10BD     		pop	{r4, pc}
 1628              	.LVL157:
 1629              	.L48:
 1630              		.loc 1 246 1 view .LVU374
 1631              		.align	2
 1632              	.L47:
 1633 005c 00000000 		.word	0
 1634 0060 00000000 		.word	.LANCHOR2
 1635 0064 0000FA44 		.word	1157234688
 1636 0068 00000000 		.word	.LANCHOR9
 1637              		.cfi_endproc
 1638              	.LFE248:
 1640              		.section	.text.lowpass_filter_double,"ax",%progbits
 1641              		.align	1
 1642              		.global	lowpass_filter_double
 1643              		.syntax unified
 1644              		.thumb
 1645              		.thumb_func
 1647              	lowpass_filter_double:
 1648              	.LVL158:
 1649              	.LFB249:
 247:Core/Src/Hw/ICM_20648.c **** double lowpass_filter_double(double x, double x0, double r)
 248:Core/Src/Hw/ICM_20648.c **** {
 1650              		.loc 1 248 1 is_stmt 1 view -0
 1651              		.cfi_startproc
 1652              		@ args = 0, pretend = 0, frame = 0
 1653              		@ frame_needed = 0, uses_anonymous_args = 0
 1654              		.loc 1 248 1 is_stmt 0 view .LVU376
 1655 0000 2DE9F843 		push	{r3, r4, r5, r6, r7, r8, r9, lr}
 1656              	.LCFI33:
 1657              		.cfi_def_cfa_offset 32
 1658              		.cfi_offset 3, -32
 1659              		.cfi_offset 4, -28
 1660              		.cfi_offset 5, -24
 1661              		.cfi_offset 6, -20
 1662              		.cfi_offset 7, -16
 1663              		.cfi_offset 8, -12
 1664              		.cfi_offset 9, -8
 1665              		.cfi_offset 14, -4
 1666 0004 53EC102B 		vmov	r2, r3, d0
 1667 0008 59EC118B 		vmov	r8, r9, d1
 1668 000c 55EC124B 		vmov	r4, r5, d2
ARM GAS  C:\Users\leopi\AppData\Local\Temp\ccpKCpQH.s 			page 38


 249:Core/Src/Hw/ICM_20648.c **** 	return ((r)*(x) + (1.0 - (r))* (x0));
 1669              		.loc 1 249 2 is_stmt 1 view .LVU377
 1670              		.loc 1 249 13 is_stmt 0 view .LVU378
 1671 0010 12EE100A 		vmov	r0, s4	@ int
 1672 0014 2946     		mov	r1, r5
 1673 0016 FFF7FEFF 		bl	__aeabi_dmul
 1674              	.LVL159:
 1675              		.loc 1 249 13 view .LVU379
 1676 001a 0646     		mov	r6, r0
 1677 001c 0F46     		mov	r7, r1
 1678              		.loc 1 249 25 view .LVU380
 1679 001e 2246     		mov	r2, r4
 1680 0020 2B46     		mov	r3, r5
 1681 0022 0020     		movs	r0, #0
 1682 0024 0849     		ldr	r1, .L51
 1683 0026 FFF7FEFF 		bl	__aeabi_dsub
 1684              	.LVL160:
 1685              		.loc 1 249 31 view .LVU381
 1686 002a 4246     		mov	r2, r8
 1687 002c 4B46     		mov	r3, r9
 1688 002e FFF7FEFF 		bl	__aeabi_dmul
 1689              	.LVL161:
 1690 0032 0246     		mov	r2, r0
 1691 0034 0B46     		mov	r3, r1
 1692              		.loc 1 249 18 view .LVU382
 1693 0036 3046     		mov	r0, r6
 1694 0038 3946     		mov	r1, r7
 1695 003a FFF7FEFF 		bl	__aeabi_dadd
 1696              	.LVL162:
 250:Core/Src/Hw/ICM_20648.c **** }
 1697              		.loc 1 250 1 view .LVU383
 1698 003e 41EC100B 		vmov	d0, r0, r1
 1699 0042 BDE8F883 		pop	{r3, r4, r5, r6, r7, r8, r9, pc}
 1700              	.LVL163:
 1701              	.L52:
 1702              		.loc 1 250 1 view .LVU384
 1703 0046 00BF     		.align	2
 1704              	.L51:
 1705 0048 0000F03F 		.word	1072693248
 1706              		.cfi_endproc
 1707              	.LFE249:
 1709              		.section	.text.lowpass_filter_float,"ax",%progbits
 1710              		.align	1
 1711              		.global	lowpass_filter_float
 1712              		.syntax unified
 1713              		.thumb
 1714              		.thumb_func
 1716              	lowpass_filter_float:
 1717              	.LVL164:
 1718              	.LFB250:
 251:Core/Src/Hw/ICM_20648.c **** float lowpass_filter_float(float x, float x0, float r)
 252:Core/Src/Hw/ICM_20648.c **** {
 1719              		.loc 1 252 1 is_stmt 1 view -0
 1720              		.cfi_startproc
 1721              		@ args = 0, pretend = 0, frame = 0
 1722              		@ frame_needed = 0, uses_anonymous_args = 0
 1723              		.loc 1 252 1 is_stmt 0 view .LVU386
ARM GAS  C:\Users\leopi\AppData\Local\Temp\ccpKCpQH.s 			page 39


 1724 0000 2DE9F041 		push	{r4, r5, r6, r7, r8, lr}
 1725              	.LCFI34:
 1726              		.cfi_def_cfa_offset 24
 1727              		.cfi_offset 4, -24
 1728              		.cfi_offset 5, -20
 1729              		.cfi_offset 6, -16
 1730              		.cfi_offset 7, -12
 1731              		.cfi_offset 8, -8
 1732              		.cfi_offset 14, -4
 1733 0004 2DED028B 		vpush.64	{d8}
 1734              	.LCFI35:
 1735              		.cfi_def_cfa_offset 32
 1736              		.cfi_offset 80, -32
 1737              		.cfi_offset 81, -28
 1738 0008 10EE908A 		vmov	r8, s1
 1739 000c B0EE418A 		vmov.f32	s16, s2
 253:Core/Src/Hw/ICM_20648.c **** 	return ((r)*(x) + (1.0 - (r))* (x0));
 1740              		.loc 1 253 2 is_stmt 1 view .LVU387
 1741              		.loc 1 253 13 is_stmt 0 view .LVU388
 1742 0010 61EE007A 		vmul.f32	s15, s2, s0
 1743 0014 17EE900A 		vmov	r0, s15
 1744 0018 FFF7FEFF 		bl	__aeabi_f2d
 1745              	.LVL165:
 1746              		.loc 1 253 13 view .LVU389
 1747 001c 0446     		mov	r4, r0
 1748 001e 0D46     		mov	r5, r1
 1749              		.loc 1 253 25 view .LVU390
 1750 0020 18EE100A 		vmov	r0, s16
 1751 0024 FFF7FEFF 		bl	__aeabi_f2d
 1752              	.LVL166:
 1753 0028 0246     		mov	r2, r0
 1754 002a 0B46     		mov	r3, r1
 1755 002c 0020     		movs	r0, #0
 1756 002e 0D49     		ldr	r1, .L55
 1757 0030 FFF7FEFF 		bl	__aeabi_dsub
 1758              	.LVL167:
 1759 0034 0646     		mov	r6, r0
 1760 0036 0F46     		mov	r7, r1
 1761              		.loc 1 253 31 view .LVU391
 1762 0038 4046     		mov	r0, r8	@ float
 1763 003a FFF7FEFF 		bl	__aeabi_f2d
 1764              	.LVL168:
 1765 003e 3246     		mov	r2, r6
 1766 0040 3B46     		mov	r3, r7
 1767 0042 FFF7FEFF 		bl	__aeabi_dmul
 1768              	.LVL169:
 1769 0046 0246     		mov	r2, r0
 1770 0048 0B46     		mov	r3, r1
 1771              		.loc 1 253 18 view .LVU392
 1772 004a 2046     		mov	r0, r4
 1773 004c 2946     		mov	r1, r5
 1774 004e FFF7FEFF 		bl	__aeabi_dadd
 1775              	.LVL170:
 1776 0052 FFF7FEFF 		bl	__aeabi_d2f
 1777              	.LVL171:
 254:Core/Src/Hw/ICM_20648.c **** }
 1778              		.loc 1 254 1 view .LVU393
ARM GAS  C:\Users\leopi\AppData\Local\Temp\ccpKCpQH.s 			page 40


 1779 0056 00EE100A 		vmov	s0, r0
 1780 005a BDEC028B 		vldm	sp!, {d8}
 1781              	.LCFI36:
 1782              		.cfi_restore 80
 1783              		.cfi_restore 81
 1784              		.cfi_def_cfa_offset 24
 1785              	.LVL172:
 1786              		.loc 1 254 1 view .LVU394
 1787 005e BDE8F081 		pop	{r4, r5, r6, r7, r8, pc}
 1788              	.LVL173:
 1789              	.L56:
 1790              		.loc 1 254 1 view .LVU395
 1791 0062 00BF     		.align	2
 1792              	.L55:
 1793 0064 0000F03F 		.word	1072693248
 1794              		.cfi_endproc
 1795              	.LFE250:
 1797              		.global	convert_to_imu_angv
 1798              		.global	ZGFilterd
 1799              		.global	YAccel
 1800              		.global	ZGyro
 1801              		.global	ya_offset
 1802              		.global	zg_offset
 1803              		.global	plot_angle
 1804              		.global	zg
 1805              		.global	yg
 1806              		.global	xg
 1807              		.global	za
 1808              		.global	ya
 1809              		.global	xa
 1810              		.section	.bss.YAccel,"aw",%nobits
 1811              		.align	2
 1814              	YAccel:
 1815 0000 00000000 		.space	4
 1816              		.section	.bss.ZGFilterd,"aw",%nobits
 1817              		.align	1
 1818              		.set	.LANCHOR1,. + 0
 1821              	ZGFilterd:
 1822 0000 0000     		.space	2
 1823              		.section	.bss.ZGyro,"aw",%nobits
 1824              		.align	2
 1825              		.set	.LANCHOR2,. + 0
 1828              	ZGyro:
 1829 0000 00000000 		.space	4
 1830              		.section	.bss.filter.0,"aw",%nobits
 1831              		.align	2
 1832              		.set	.LANCHOR0,. + 0
 1835              	filter.0:
 1836 0000 00000000 		.space	6
 1836      0000
 1837              		.section	.bss.plot_angle,"aw",%nobits
 1838              		.align	2
 1841              	plot_angle:
 1842 0000 00000000 		.space	4
 1843              		.section	.bss.xa,"aw",%nobits
 1844              		.align	1
 1845              		.set	.LANCHOR6,. + 0
ARM GAS  C:\Users\leopi\AppData\Local\Temp\ccpKCpQH.s 			page 41


 1848              	xa:
 1849 0000 0000     		.space	2
 1850              		.section	.bss.xg,"aw",%nobits
 1851              		.align	1
 1852              		.set	.LANCHOR3,. + 0
 1855              	xg:
 1856 0000 0000     		.space	2
 1857              		.section	.bss.ya,"aw",%nobits
 1858              		.align	1
 1859              		.set	.LANCHOR7,. + 0
 1862              	ya:
 1863 0000 0000     		.space	2
 1864              		.section	.bss.ya_offset,"aw",%nobits
 1865              		.align	2
 1868              	ya_offset:
 1869 0000 00000000 		.space	4
 1870              		.section	.bss.yg,"aw",%nobits
 1871              		.align	1
 1872              		.set	.LANCHOR4,. + 0
 1875              	yg:
 1876 0000 0000     		.space	2
 1877              		.section	.bss.za,"aw",%nobits
 1878              		.align	1
 1879              		.set	.LANCHOR8,. + 0
 1882              	za:
 1883 0000 0000     		.space	2
 1884              		.section	.bss.zg,"aw",%nobits
 1885              		.align	1
 1886              		.set	.LANCHOR5,. + 0
 1889              	zg:
 1890 0000 0000     		.space	2
 1891              		.section	.bss.zg_offset,"aw",%nobits
 1892              		.align	2
 1893              		.set	.LANCHOR9,. + 0
 1896              	zg_offset:
 1897 0000 00000000 		.space	4
 1898              		.section	.rodata.convert_to_imu_angv,"a"
 1899              		.align	2
 1902              	convert_to_imu_angv:
 1903 0000 787D8B3A 		.word	982220152
 1904              		.text
 1905              	.Letext0:
 1906              		.file 2 "c:\\tools\\gcc-arm-none-eabi-10_2021.10\\arm-none-eabi\\include\\machine\\_default_types.
 1907              		.file 3 "c:\\tools\\gcc-arm-none-eabi-10_2021.10\\arm-none-eabi\\include\\sys\\_stdint.h"
 1908              		.file 4 "Drivers/CMSIS/Device/ST/STM32F4xx/Include/stm32f405xx.h"
 1909              		.file 5 "Drivers/STM32F4xx_HAL_Driver/Inc/stm32f4xx_hal_def.h"
 1910              		.file 6 "Drivers/STM32F4xx_HAL_Driver/Inc/stm32f4xx_hal_gpio.h"
 1911              		.file 7 "Drivers/STM32F4xx_HAL_Driver/Inc/stm32f4xx_hal_dma.h"
 1912              		.file 8 "Drivers/STM32F4xx_HAL_Driver/Inc/stm32f4xx_hal_spi.h"
 1913              		.file 9 "Core/Inc/Hw/ICM_20648.h"
 1914              		.file 10 "Drivers/STM32F4xx_HAL_Driver/Inc/stm32f4xx_hal.h"
 1915              		.file 11 "c:\\tools\\gcc-arm-none-eabi-10_2021.10\\arm-none-eabi\\include\\stdlib.h"
 1916              		.file 12 "<built-in>"
ARM GAS  C:\Users\leopi\AppData\Local\Temp\ccpKCpQH.s 			page 42


DEFINED SYMBOLS
                            *ABS*:00000000 ICM_20648.c
C:\Users\leopi\AppData\Local\Temp\ccpKCpQH.s:20     .text.compare_num:00000000 $t
C:\Users\leopi\AppData\Local\Temp\ccpKCpQH.s:26     .text.compare_num:00000000 compare_num
C:\Users\leopi\AppData\Local\Temp\ccpKCpQH.s:69     .text.read_byte:00000000 $t
C:\Users\leopi\AppData\Local\Temp\ccpKCpQH.s:75     .text.read_byte:00000000 read_byte
C:\Users\leopi\AppData\Local\Temp\ccpKCpQH.s:138    .text.read_byte:00000048 $d
C:\Users\leopi\AppData\Local\Temp\ccpKCpQH.s:144    .text.ReadIMU:00000000 $t
C:\Users\leopi\AppData\Local\Temp\ccpKCpQH.s:150    .text.ReadIMU:00000000 ReadIMU
C:\Users\leopi\AppData\Local\Temp\ccpKCpQH.s:270    .text.ReadIMU:00000098 $d
C:\Users\leopi\AppData\Local\Temp\ccpKCpQH.s:276    .text.median_filter:00000000 $t
C:\Users\leopi\AppData\Local\Temp\ccpKCpQH.s:282    .text.median_filter:00000000 median_filter
C:\Users\leopi\AppData\Local\Temp\ccpKCpQH.s:348    .text.median_filter:00000044 $d
C:\Users\leopi\AppData\Local\Temp\ccpKCpQH.s:359    .text.Update_IMU:00000000 $t
C:\Users\leopi\AppData\Local\Temp\ccpKCpQH.s:365    .text.Update_IMU:00000000 Update_IMU
C:\Users\leopi\AppData\Local\Temp\ccpKCpQH.s:534    .text.Update_IMU:000000f8 $d
C:\Users\leopi\AppData\Local\Temp\ccpKCpQH.s:547    .text.write_byte:00000000 $t
C:\Users\leopi\AppData\Local\Temp\ccpKCpQH.s:553    .text.write_byte:00000000 write_byte
C:\Users\leopi\AppData\Local\Temp\ccpKCpQH.s:617    .text.write_byte:00000048 $d
C:\Users\leopi\AppData\Local\Temp\ccpKCpQH.s:623    .text.IMU_init:00000000 $t
C:\Users\leopi\AppData\Local\Temp\ccpKCpQH.s:629    .text.IMU_init:00000000 IMU_init
C:\Users\leopi\AppData\Local\Temp\ccpKCpQH.s:745    .text.IMU_init:00000080 $d
C:\Users\leopi\AppData\Local\Temp\ccpKCpQH.s:751    .text.read_gyro_data:00000000 $t
C:\Users\leopi\AppData\Local\Temp\ccpKCpQH.s:757    .text.read_gyro_data:00000000 read_gyro_data
C:\Users\leopi\AppData\Local\Temp\ccpKCpQH.s:1066   .text.read_gyro_data:00000188 $d
C:\Users\leopi\AppData\Local\Temp\ccpKCpQH.s:1075   .text.read_zg_data:00000000 $t
C:\Users\leopi\AppData\Local\Temp\ccpKCpQH.s:1081   .text.read_zg_data:00000000 read_zg_data
C:\Users\leopi\AppData\Local\Temp\ccpKCpQH.s:1202   .text.read_zg_data:0000008c $d
C:\Users\leopi\AppData\Local\Temp\ccpKCpQH.s:1209   .text.read_accel_data:00000000 $t
C:\Users\leopi\AppData\Local\Temp\ccpKCpQH.s:1215   .text.read_accel_data:00000000 read_accel_data
C:\Users\leopi\AppData\Local\Temp\ccpKCpQH.s:1524   .text.read_accel_data:00000188 $d
C:\Users\leopi\AppData\Local\Temp\ccpKCpQH.s:1533   .text.IMU_Calib:00000000 $t
C:\Users\leopi\AppData\Local\Temp\ccpKCpQH.s:1539   .text.IMU_Calib:00000000 IMU_Calib
C:\Users\leopi\AppData\Local\Temp\ccpKCpQH.s:1633   .text.IMU_Calib:0000005c $d
C:\Users\leopi\AppData\Local\Temp\ccpKCpQH.s:1641   .text.lowpass_filter_double:00000000 $t
C:\Users\leopi\AppData\Local\Temp\ccpKCpQH.s:1647   .text.lowpass_filter_double:00000000 lowpass_filter_double
C:\Users\leopi\AppData\Local\Temp\ccpKCpQH.s:1705   .text.lowpass_filter_double:00000048 $d
C:\Users\leopi\AppData\Local\Temp\ccpKCpQH.s:1710   .text.lowpass_filter_float:00000000 $t
C:\Users\leopi\AppData\Local\Temp\ccpKCpQH.s:1716   .text.lowpass_filter_float:00000000 lowpass_filter_float
C:\Users\leopi\AppData\Local\Temp\ccpKCpQH.s:1793   .text.lowpass_filter_float:00000064 $d
C:\Users\leopi\AppData\Local\Temp\ccpKCpQH.s:1902   .rodata.convert_to_imu_angv:00000000 convert_to_imu_angv
C:\Users\leopi\AppData\Local\Temp\ccpKCpQH.s:1821   .bss.ZGFilterd:00000000 ZGFilterd
C:\Users\leopi\AppData\Local\Temp\ccpKCpQH.s:1814   .bss.YAccel:00000000 YAccel
C:\Users\leopi\AppData\Local\Temp\ccpKCpQH.s:1828   .bss.ZGyro:00000000 ZGyro
C:\Users\leopi\AppData\Local\Temp\ccpKCpQH.s:1868   .bss.ya_offset:00000000 ya_offset
C:\Users\leopi\AppData\Local\Temp\ccpKCpQH.s:1896   .bss.zg_offset:00000000 zg_offset
C:\Users\leopi\AppData\Local\Temp\ccpKCpQH.s:1841   .bss.plot_angle:00000000 plot_angle
C:\Users\leopi\AppData\Local\Temp\ccpKCpQH.s:1889   .bss.zg:00000000 zg
C:\Users\leopi\AppData\Local\Temp\ccpKCpQH.s:1875   .bss.yg:00000000 yg
C:\Users\leopi\AppData\Local\Temp\ccpKCpQH.s:1855   .bss.xg:00000000 xg
C:\Users\leopi\AppData\Local\Temp\ccpKCpQH.s:1882   .bss.za:00000000 za
C:\Users\leopi\AppData\Local\Temp\ccpKCpQH.s:1862   .bss.ya:00000000 ya
C:\Users\leopi\AppData\Local\Temp\ccpKCpQH.s:1848   .bss.xa:00000000 xa
C:\Users\leopi\AppData\Local\Temp\ccpKCpQH.s:1811   .bss.YAccel:00000000 $d
C:\Users\leopi\AppData\Local\Temp\ccpKCpQH.s:1817   .bss.ZGFilterd:00000000 $d
C:\Users\leopi\AppData\Local\Temp\ccpKCpQH.s:1824   .bss.ZGyro:00000000 $d
C:\Users\leopi\AppData\Local\Temp\ccpKCpQH.s:1831   .bss.filter.0:00000000 $d
ARM GAS  C:\Users\leopi\AppData\Local\Temp\ccpKCpQH.s 			page 43


C:\Users\leopi\AppData\Local\Temp\ccpKCpQH.s:1835   .bss.filter.0:00000000 filter.0
C:\Users\leopi\AppData\Local\Temp\ccpKCpQH.s:1838   .bss.plot_angle:00000000 $d
C:\Users\leopi\AppData\Local\Temp\ccpKCpQH.s:1844   .bss.xa:00000000 $d
C:\Users\leopi\AppData\Local\Temp\ccpKCpQH.s:1851   .bss.xg:00000000 $d
C:\Users\leopi\AppData\Local\Temp\ccpKCpQH.s:1858   .bss.ya:00000000 $d
C:\Users\leopi\AppData\Local\Temp\ccpKCpQH.s:1865   .bss.ya_offset:00000000 $d
C:\Users\leopi\AppData\Local\Temp\ccpKCpQH.s:1871   .bss.yg:00000000 $d
C:\Users\leopi\AppData\Local\Temp\ccpKCpQH.s:1878   .bss.za:00000000 $d
C:\Users\leopi\AppData\Local\Temp\ccpKCpQH.s:1885   .bss.zg:00000000 $d
C:\Users\leopi\AppData\Local\Temp\ccpKCpQH.s:1892   .bss.zg_offset:00000000 $d
C:\Users\leopi\AppData\Local\Temp\ccpKCpQH.s:1899   .rodata.convert_to_imu_angv:00000000 $d

UNDEFINED SYMBOLS
HAL_GPIO_WritePin
HAL_SPI_Transmit
HAL_SPI_Receive
hspi3
qsort
__aeabi_f2d
__aeabi_dmul
__aeabi_dsub
__aeabi_dadd
__aeabi_d2f
HAL_Delay
memset
