ARM GAS  C:\Users\leopi\AppData\Local\Temp\ccoicnCl.s 			page 1


   1              		.cpu cortex-m4
   2              		.arch armv7e-m
   3              		.fpu fpv4-sp-d16
   4              		.eabi_attribute 27, 1
   5              		.eabi_attribute 28, 1
   6              		.eabi_attribute 20, 1
   7              		.eabi_attribute 21, 1
   8              		.eabi_attribute 23, 3
   9              		.eabi_attribute 24, 1
  10              		.eabi_attribute 25, 1
  11              		.eabi_attribute 26, 1
  12              		.eabi_attribute 30, 1
  13              		.eabi_attribute 34, 1
  14              		.eabi_attribute 18, 4
  15              		.file	"Interrupt.c"
  16              		.text
  17              	.Ltext0:
  18              		.cfi_sections	.debug_frame
  19              		.global	__aeabi_f2d
  20              		.global	__aeabi_dmul
  21              		.global	__aeabi_dadd
  22              		.global	__aeabi_d2f
  23              		.global	__aeabi_ddiv
  24              		.section	.text.Explore_IT,"ax",%progbits
  25              		.align	1
  26              		.syntax unified
  27              		.thumb
  28              		.thumb_func
  30              	Explore_IT:
  31              	.LFB243:
  32              		.file 1 "Core/Src/Main/Interrupt.c"
   1:Core/Src/Main/Interrupt.c **** /*
   2:Core/Src/Main/Interrupt.c ****  * Interrupt.c
   3:Core/Src/Main/Interrupt.c ****  *
   4:Core/Src/Main/Interrupt.c ****  *  Created on: 2022/02/15
   5:Core/Src/Main/Interrupt.c ****  *      Author: leopi
   6:Core/Src/Main/Interrupt.c ****  */
   7:Core/Src/Main/Interrupt.c **** #include "Interrupt.h"
   8:Core/Src/Main/Interrupt.c **** 
   9:Core/Src/Main/Interrupt.c **** #include "Action.h"
  10:Core/Src/Main/Interrupt.c **** #include "MicroMouse.h"
  11:Core/Src/Main/Interrupt.c **** 
  12:Core/Src/Main/Interrupt.c **** #include <math.h>
  13:Core/Src/Main/Interrupt.c **** // #include "Convert.h"
  14:Core/Src/Main/Interrupt.c **** #include "UI.h"
  15:Core/Src/Main/Interrupt.c **** #include "PID_Control.h"
  16:Core/Src/Main/Interrupt.c **** 
  17:Core/Src/Main/Interrupt.c **** #include "mouse_ADC.h"
  18:Core/Src/Main/Interrupt.c **** //#include "LED_Driver.h"
  19:Core/Src/Main/Interrupt.c **** #include "IR_Emitter.h"
  20:Core/Src/Main/Interrupt.c **** #include "Motor_Driver.h"
  21:Core/Src/Main/Interrupt.c **** #include "ICM_20648.h"
  22:Core/Src/Main/Interrupt.c **** #include "Mode.h"
  23:Core/Src/Main/Interrupt.c **** // #include "Sampling.h"
  24:Core/Src/Main/Interrupt.c **** 
  25:Core/Src/Main/Interrupt.c **** int timer1,timer8, t;
  26:Core/Src/Main/Interrupt.c **** timer_mouse tim_search;
ARM GAS  C:\Users\leopi\AppData\Local\Temp\ccoicnCl.s 			page 2


  27:Core/Src/Main/Interrupt.c **** int IT_mode;
  28:Core/Src/Main/Interrupt.c **** logger_f identify[2];
  29:Core/Src/Main/Interrupt.c **** 
  30:Core/Src/Main/Interrupt.c **** const float convert_to_velocity = MM_PER_PULSE/T1;
  31:Core/Src/Main/Interrupt.c **** const float convert_to_angularv = 1/TREAD_WIDTH;
  32:Core/Src/Main/Interrupt.c **** //const float convert_to_imu_angv = M_PI/(16.4f*180.0f);
  33:Core/Src/Main/Interrupt.c **** const float convert_to_imu_yaccel = 1000*9.80392157f / 2048.0f; //1000*„Å™„Çì„Å°„ÇÉ„Çâg√ó9.80392157
  34:Core/Src/Main/Interrupt.c **** // const float maintain_output_valtage = 1/(BATTERY_MAX;
  35:Core/Src/Main/Interrupt.c **** // PID„ÅßË®àÁÆó„Åó„ÅüÂÄ§ = ÈõªÂúßÂÄ§„ÄÅ„Çí„ÄÅ„Ç´„Ç¶„É≥„ÇøÂÄ§„Å´Â§âÊèõ„Åô„ÇãÂá¶ÁêÜ„ÅåË¶Å„Çã
  36:Core/Src/Main/Interrupt.c **** 
  37:Core/Src/Main/Interrupt.c **** logger_f log_velocity;
  38:Core/Src/Main/Interrupt.c **** logger run_log={
  39:Core/Src/Main/Interrupt.c **** 	false,
  40:Core/Src/Main/Interrupt.c **** 	3*250*218,
  41:Core/Src/Main/Interrupt.c **** 	0
  42:Core/Src/Main/Interrupt.c **** };
  43:Core/Src/Main/Interrupt.c **** 
  44:Core/Src/Main/Interrupt.c **** 
  45:Core/Src/Main/Interrupt.c **** inline void calcVelocity(){
  46:Core/Src/Main/Interrupt.c **** 	PulseDisplacement[LEFT] = - (TIM3->CNT - INITIAL_PULSE);
  47:Core/Src/Main/Interrupt.c **** 	TIM3->CNT = INITIAL_PULSE;
  48:Core/Src/Main/Interrupt.c **** 	PulseDisplacement[RIGHT] = - (TIM4->CNT - INITIAL_PULSE);
  49:Core/Src/Main/Interrupt.c **** 	TIM4->CNT = INITIAL_PULSE;
  50:Core/Src/Main/Interrupt.c **** 
  51:Core/Src/Main/Interrupt.c **** 	//ÈÄüÂ∫¶ mm/s
  52:Core/Src/Main/Interrupt.c **** 	Current.Velocity[LEFT] =  (float)PulseDisplacement[LEFT] * convert_to_velocity;
  53:Core/Src/Main/Interrupt.c **** 	Current.Velocity[RIGHT] =  (float)PulseDisplacement[RIGHT] * convert_to_velocity;
  54:Core/Src/Main/Interrupt.c **** 	Current.Velocity[BODY] = (Current.Velocity[LEFT] + Current.Velocity[RIGHT] )*0.5f;
  55:Core/Src/Main/Interrupt.c **** 
  56:Core/Src/Main/Interrupt.c **** 	//ÁßªÂãïÈáè mm/ms„ÇíÁ©çÁÆó
  57:Core/Src/Main/Interrupt.c **** 	TotalPulse[LEFT] += PulseDisplacement[LEFT];
  58:Core/Src/Main/Interrupt.c **** 	TotalPulse[RIGHT] += PulseDisplacement[RIGHT];
  59:Core/Src/Main/Interrupt.c **** 	TotalPulse[BODY] = TotalPulse[LEFT]+TotalPulse[RIGHT];
  60:Core/Src/Main/Interrupt.c **** }
  61:Core/Src/Main/Interrupt.c **** 
  62:Core/Src/Main/Interrupt.c **** static void SystemIdentify_IT(){
  63:Core/Src/Main/Interrupt.c **** 	
  64:Core/Src/Main/Interrupt.c **** 	calcVelocity();
  65:Core/Src/Main/Interrupt.c **** 
  66:Core/Src/Main/Interrupt.c **** 	Update_IMU(&(Current.AngularV), &(Current.Angle));
  67:Core/Src/Main/Interrupt.c **** 
  68:Core/Src/Main/Interrupt.c **** 	static int identify_count=0;
  69:Core/Src/Main/Interrupt.c **** 	static int count=0;
  70:Core/Src/Main/Interrupt.c **** 	float output[2] ={
  71:Core/Src/Main/Interrupt.c **** 		Current.Velocity[BODY],
  72:Core/Src/Main/Interrupt.c **** 		Current.AngularV
  73:Core/Src/Main/Interrupt.c **** 	};
  74:Core/Src/Main/Interrupt.c **** 	float input[2]={0};
  75:Core/Src/Main/Interrupt.c **** 	_Bool identify_mode_v_or_angv = getIdentifyMode();
  76:Core/Src/Main/Interrupt.c **** 	float battery_voltage = ADCToBatteryVoltage( adc1[2], V_SPLIT_NUM, PIN_V_MAX ,ADC_RESOLUTION );
  77:Core/Src/Main/Interrupt.c **** 	float convert_to_reg_counter = 840/battery_voltage;;
  78:Core/Src/Main/Interrupt.c **** 	if(getLoggerFlag(&(identify[identify_mode_v_or_angv].f)) == true){
  79:Core/Src/Main/Interrupt.c **** 		if( (count%20) == 0 ){
  80:Core/Src/Main/Interrupt.c **** 			getFloatLog(&identify[identify_mode_v_or_angv], output[identify_mode_v_or_angv]);
  81:Core/Src/Main/Interrupt.c **** 		}
  82:Core/Src/Main/Interrupt.c **** 		if( (count%40) == 0 ){ //15„Çí„ÅÑ„Åò„Çå„Çã„Çà„ÅÜ„Å´„Åô„Çã
  83:Core/Src/Main/Interrupt.c **** 			getIdentifyInputCount(identify_count, &input[0] ,identify_mode_v_or_angv);
ARM GAS  C:\Users\leopi\AppData\Local\Temp\ccoicnCl.s 			page 3


  84:Core/Src/Main/Interrupt.c **** 			input[0] *= convert_to_reg_counter;
  85:Core/Src/Main/Interrupt.c **** 			input[1] *= convert_to_reg_counter;
  86:Core/Src/Main/Interrupt.c **** 			Motor_Switch(input[0], input[1]);
  87:Core/Src/Main/Interrupt.c **** 			identify_count++;
  88:Core/Src/Main/Interrupt.c **** 			
  89:Core/Src/Main/Interrupt.c **** 		}
  90:Core/Src/Main/Interrupt.c **** 		count++;
  91:Core/Src/Main/Interrupt.c **** 	}
  92:Core/Src/Main/Interrupt.c **** 	else{
  93:Core/Src/Main/Interrupt.c **** 		Motor_Switch(0,0);
  94:Core/Src/Main/Interrupt.c **** 		count = 0;
  95:Core/Src/Main/Interrupt.c **** 	}
  96:Core/Src/Main/Interrupt.c **** 	
  97:Core/Src/Main/Interrupt.c **** }
  98:Core/Src/Main/Interrupt.c **** static void ControlTest_IT(){
  99:Core/Src/Main/Interrupt.c **** 
 100:Core/Src/Main/Interrupt.c **** 	calcVelocity();
 101:Core/Src/Main/Interrupt.c **** 	// getFloatLog(&log_velocity, Current.Velocity[BODY]);
 102:Core/Src/Main/Interrupt.c **** 	
 103:Core/Src/Main/Interrupt.c **** 	
 104:Core/Src/Main/Interrupt.c **** 	//ËßíÈÄüÂ∫¶ rad/s
 105:Core/Src/Main/Interrupt.c **** 
 106:Core/Src/Main/Interrupt.c **** #if 0
 107:Core/Src/Main/Interrupt.c **** 	//static float angle=0;
 108:Core/Src/Main/Interrupt.c **** 	volatile static float zg_last=0;
 109:Core/Src/Main/Interrupt.c **** 	volatile float zg_law;
 110:Core/Src/Main/Interrupt.c **** 	//uint8_t zgb,zgf;
 111:Core/Src/Main/Interrupt.c **** 	ZGyro = ReadIMU(0x37, 0x38);
 112:Core/Src/Main/Interrupt.c ****     zg_law =  ( ZGyro - zg_offset )*convert_to_imu_angv;//16.4 * 180;//rad/s or rad/0.001s
 113:Core/Src/Main/Interrupt.c ****     Current.AngularV = -((0.01*zg_law) + (0.99)* (zg_last));
 114:Core/Src/Main/Interrupt.c ****     zg_last = zg_law;
 115:Core/Src/Main/Interrupt.c **** 	Angle += AngularV * T1;
 116:Core/Src/Main/Interrupt.c **** 
 117:Core/Src/Main/Interrupt.c **** #else
 118:Core/Src/Main/Interrupt.c **** 	Update_IMU(&(Current.AngularV), &(Current.Angle)); //„É°„Éá„Ç£„Ç¢„É≥„Éï„Ç£„É´„Çø„Å®„Ç™„Éï„Çª„ÉÉ„Éà
 119:Core/Src/Main/Interrupt.c **** 	// getFloatLog(&log_velocity, AngularV);
 120:Core/Src/Main/Interrupt.c **** //	AngularV = ( Current.Velocity[LEFT] - Current.Velocity[RIGHT] ) *convert_to_angularv;
 121:Core/Src/Main/Interrupt.c **** //	Angle += AngularV * T1;
 122:Core/Src/Main/Interrupt.c **** 
 123:Core/Src/Main/Interrupt.c **** #endif
 124:Core/Src/Main/Interrupt.c **** 	int wall_d =0,wall_l =0,wall_r =0, wall_f=0;
 125:Core/Src/Main/Interrupt.c **** 		int ang_out=0;
 126:Core/Src/Main/Interrupt.c **** 
 127:Core/Src/Main/Interrupt.c **** 
 128:Core/Src/Main/Interrupt.c **** 		ang_out = PIDControl( A_VELO_PID,  Target.AngularV, Current.AngularV); //ÈõªÂúßÂÄ§
 129:Core/Src/Main/Interrupt.c **** 
 130:Core/Src/Main/Interrupt.c **** 	#if 0
 131:Core/Src/Main/Interrupt.c **** 			// VelocityLeftOut = PIDControl( L_VELO_PID, Target.Velocity[BODY], Current.Velocity[LEFT]);
 132:Core/Src/Main/Interrupt.c **** 			// VelocityRightOut = PIDControl( R_VELO_PID, Target.Velocity[BODY], Current.Velocity[RIGHT]);
 133:Core/Src/Main/Interrupt.c **** 
 134:Core/Src/Main/Interrupt.c **** 			float battery_voltage = ADCToBatteryVoltage( adc1[2], V_SPLIT_NUM, PIN_V_MAX ,ADC_RESOLUTION );
 135:Core/Src/Main/Interrupt.c **** 			float duty = 1/ battery_voltage;
 136:Core/Src/Main/Interrupt.c **** 
 137:Core/Src/Main/Interrupt.c **** 			VelocityLeftOut = (((float)ang_out)) * 840*duty;
 138:Core/Src/Main/Interrupt.c **** 			VelocityRightOut = (((float)ang_out))* 840 *duty * (-1);
 139:Core/Src/Main/Interrupt.c **** 	#else
 140:Core/Src/Main/Interrupt.c **** 		
ARM GAS  C:\Users\leopi\AppData\Local\Temp\ccoicnCl.s 			page 4


 141:Core/Src/Main/Interrupt.c **** 		VelocityLeftOut = PIDControl( L_VELO_PID, Target.Velocity[BODY], Current.Velocity[LEFT]);
 142:Core/Src/Main/Interrupt.c **** 		VelocityRightOut = PIDControl( R_VELO_PID, Target.Velocity[BODY], Current.Velocity[RIGHT]);
 143:Core/Src/Main/Interrupt.c **** 		float battery_voltage = ADCToBatteryVoltage( adc1[2], V_SPLIT_NUM, PIN_V_MAX ,ADC_RESOLUTION );
 144:Core/Src/Main/Interrupt.c **** 		float duty = 840/ battery_voltage;
 145:Core/Src/Main/Interrupt.c **** 		// VelocityLeftOut = voltage_maintainer * PIDControl( L_VELO_PID, Target.Velocity[LEFT], Current.
 146:Core/Src/Main/Interrupt.c **** 		// VelocityRightOut = voltage_maintainer * PIDControl( R_VELO_PID, Target.Velocity[RIGHT], Curren
 147:Core/Src/Main/Interrupt.c **** 		VelocityLeftOut = ((float)(VelocityLeftOut + ang_out)) * duty;
 148:Core/Src/Main/Interrupt.c **** 		VelocityRightOut = ((float)(VelocityRightOut + (ang_out* (-1)) ))* duty;
 149:Core/Src/Main/Interrupt.c **** 
 150:Core/Src/Main/Interrupt.c **** 		/* ËßíÈÄüÂ∫¶„ÅÆË™øÊï¥
 151:Core/Src/Main/Interrupt.c **** 		VelocityLeftOut = 0;
 152:Core/Src/Main/Interrupt.c **** 		VelocityRightOut = 0;
 153:Core/Src/Main/Interrupt.c **** 		float battery_voltage = ADCToBatteryVoltage( adc1[2], V_SPLIT_NUM, PIN_V_MAX ,ADC_RESOLUTION );
 154:Core/Src/Main/Interrupt.c **** 		float duty = 840/ battery_voltage;
 155:Core/Src/Main/Interrupt.c **** 		VelocityLeftOut = ((float)(VelocityLeftOut + ang_out)) * duty;
 156:Core/Src/Main/Interrupt.c **** 		VelocityRightOut = ((float)(VelocityRightOut+ (ang_out* (-1)) ))* duty;
 157:Core/Src/Main/Interrupt.c **** 		*/
 158:Core/Src/Main/Interrupt.c **** 	#endif
 159:Core/Src/Main/Interrupt.c **** 	//„É¢„Éº„Çø„Å´Âá∫Âäõ
 160:Core/Src/Main/Interrupt.c **** 	Motor_Switch( VelocityLeftOut, VelocityRightOut );
 161:Core/Src/Main/Interrupt.c **** }
 162:Core/Src/Main/Interrupt.c **** 
 163:Core/Src/Main/Interrupt.c **** 
 164:Core/Src/Main/Interrupt.c **** inline static void Kanayama_Calc(kanayama_control *next, physical *current, physical *target){
 165:Core/Src/Main/Interrupt.c **** 	// Ëá™Â∑±‰ΩçÁΩÆxy
 166:Core/Src/Main/Interrupt.c **** 	current->X += current->Velocity[BODY]*T1*cos(current->Angle);
 167:Core/Src/Main/Interrupt.c **** 	current->Y += current->Velocity[BODY]*T1*sin(current->Angle);
 168:Core/Src/Main/Interrupt.c **** 
 169:Core/Src/Main/Interrupt.c **** 	if(run_log.flag == true)
 170:Core/Src/Main/Interrupt.c **** 		flashFloatLog(&run_log, current->X, current->Y, current->Angle); //‰ΩçÁΩÆ„Å®ËßíÂ∫¶
 171:Core/Src/Main/Interrupt.c **** 	
 172:Core/Src/Main/Interrupt.c **** 	// float ang_v=0;
 173:Core/Src/Main/Interrupt.c **** 	
 174:Core/Src/Main/Interrupt.c **** 	
 175:Core/Src/Main/Interrupt.c **** 	next->Velocity += target->Acceleration;
 176:Core/Src/Main/Interrupt.c **** 	next->Ang_V += target->AngularAcceleration;
 177:Core/Src/Main/Interrupt.c **** 	next->Angle += (next->Ang_V *T1);
 178:Core/Src/Main/Interrupt.c **** 	next->X += next->Velocity * T1 * cos(next->Angle); // rad„Åã„ÉÅ„Çß„ÉÉ„ÇØ
 179:Core/Src/Main/Interrupt.c **** 	next->Y += next->Velocity * T1 * sin(next->Angle);
 180:Core/Src/Main/Interrupt.c **** 	
 181:Core/Src/Main/Interrupt.c **** 	float x_e=0, y_e=0, ang_e=0;
 182:Core/Src/Main/Interrupt.c **** 	x_e = ((next->X-current->X)*cos(current->Angle)) + ((next->Y-current->Y)*sin(current->Angle));
 183:Core/Src/Main/Interrupt.c **** 	y_e = ((next->X-current->X)*-sin(current->Angle)) + ((next->Y-current->Y)*cos(current->Angle));
 184:Core/Src/Main/Interrupt.c **** 	ang_e = next->Angle-(current->Angle);
 185:Core/Src/Main/Interrupt.c **** 
 186:Core/Src/Main/Interrupt.c **** 	// Â£ÅÂà∂Âæ°
 187:Core/Src/Main/Interrupt.c **** 	float l_wall_out = 0;
 188:Core/Src/Main/Interrupt.c **** 	float r_wall_out = 0;
 189:Core/Src/Main/Interrupt.c **** 	l_wall_out = 0.0001*M_PI*(float)(PIDGetFlag(L_WALL_PID)*(PIDControl(L_WALL_PID, Target.Photo[SL], 
 190:Core/Src/Main/Interrupt.c **** 	r_wall_out = 0.0001*M_PI*(float)(PIDGetFlag(R_WALL_PID)*(PIDControl(R_WALL_PID, Target.Photo[SIDE_
 191:Core/Src/Main/Interrupt.c **** 
 192:Core/Src/Main/Interrupt.c **** 	target->Velocity[BODY] = (next->Velocity*cos(ang_e)) + (next->Kx*x_e);
 193:Core/Src/Main/Interrupt.c **** 	target->AngularV = l_wall_out - r_wall_out + next->Ang_V + (next->Velocity*((next->Ky*y_e) + (next
 194:Core/Src/Main/Interrupt.c **** 
 195:Core/Src/Main/Interrupt.c **** 	
 196:Core/Src/Main/Interrupt.c **** }
 197:Core/Src/Main/Interrupt.c **** static void Kanayama_IT(){
ARM GAS  C:\Users\leopi\AppData\Local\Temp\ccoicnCl.s 			page 5


 198:Core/Src/Main/Interrupt.c **** 	countTimElapsed(&tim_search);
 199:Core/Src/Main/Interrupt.c **** 
 200:Core/Src/Main/Interrupt.c **** 	calcVelocity();
 201:Core/Src/Main/Interrupt.c **** 
 202:Core/Src/Main/Interrupt.c **** 	Update_IMU(&(Current.AngularV), &(Current.Angle));
 203:Core/Src/Main/Interrupt.c **** 	
 204:Core/Src/Main/Interrupt.c **** 	// int a_velo_out = PIDControl(A_VELO_PID, target->Angle, current->Angle);
 205:Core/Src/Main/Interrupt.c **** 	if(PIDGetFlag(A_VELO_PID) == 1/* || (PIDGetFlag(F_WALL_PID) == 1)*/){
 206:Core/Src/Main/Interrupt.c **** 		// target->AngularV = (float)a_velo_out;
 207:Core/Src/Main/Interrupt.c **** 		Target.AngularV += Target.AngularAcceleration;
 208:Core/Src/Main/Interrupt.c **** 		Target.Velocity[BODY] += Target.Acceleration;
 209:Core/Src/Main/Interrupt.c **** 		// target->Velocity[BODY] = 0.001*PIDGetFlag(F_WALL_PID)*PIDControl(F_WALL_PID, 3800, (Current.Ph
 210:Core/Src/Main/Interrupt.c **** 	}
 211:Core/Src/Main/Interrupt.c **** 	else{
 212:Core/Src/Main/Interrupt.c **** 		Kanayama_Calc(&Next, &Current, &Target);
 213:Core/Src/Main/Interrupt.c **** 	}
 214:Core/Src/Main/Interrupt.c **** 
 215:Core/Src/Main/Interrupt.c **** 	Target.Velocity[RIGHT] = ( Target.Velocity[BODY] + Target.AngularV * TREAD_WIDTH * 0.5f );
 216:Core/Src/Main/Interrupt.c **** 	Target.Velocity[LEFT] = ( -Target.AngularV *TREAD_WIDTH ) + Target.Velocity[RIGHT];
 217:Core/Src/Main/Interrupt.c **** 
 218:Core/Src/Main/Interrupt.c **** 	
 219:Core/Src/Main/Interrupt.c **** 	float battery_voltage = ADCToBatteryVoltage( adc1[2], V_SPLIT_NUM, PIN_V_MAX ,ADC_RESOLUTION );
 220:Core/Src/Main/Interrupt.c **** 	float convert_to_reg_counter = BATTERY_MAX/battery_voltage;
 221:Core/Src/Main/Interrupt.c **** 	VelocityLeftOut = convert_to_reg_counter * PIDControl( L_VELO_PID, Target.Velocity[LEFT], Current.
 222:Core/Src/Main/Interrupt.c **** 	VelocityRightOut = convert_to_reg_counter * PIDControl( R_VELO_PID, Target.Velocity[RIGHT], Curren
 223:Core/Src/Main/Interrupt.c **** 
 224:Core/Src/Main/Interrupt.c **** 	//„É¢„Éº„Çø„Å´Âá∫Âäõ
 225:Core/Src/Main/Interrupt.c **** 	Motor_Switch( VelocityLeftOut, VelocityRightOut);
 226:Core/Src/Main/Interrupt.c **** }
 227:Core/Src/Main/Interrupt.c **** static void Explore_IT()
 228:Core/Src/Main/Interrupt.c **** {
  33              		.loc 1 228 1 view -0
  34              		.cfi_startproc
  35              		@ args = 0, pretend = 0, frame = 0
  36              		@ frame_needed = 0, uses_anonymous_args = 0
  37 0000 F8B5     		push	{r3, r4, r5, r6, r7, lr}
  38              	.LCFI0:
  39              		.cfi_def_cfa_offset 24
  40              		.cfi_offset 3, -24
  41              		.cfi_offset 4, -20
  42              		.cfi_offset 5, -16
  43              		.cfi_offset 6, -12
  44              		.cfi_offset 7, -8
  45              		.cfi_offset 14, -4
  46 0002 2DED028B 		vpush.64	{d8}
  47              	.LCFI1:
  48              		.cfi_def_cfa_offset 32
  49              		.cfi_offset 80, -32
  50              		.cfi_offset 81, -28
 229:Core/Src/Main/Interrupt.c **** 	countTimElapsed(&tim_search);
  51              		.loc 1 229 2 view .LVU1
  52 0006 CA48     		ldr	r0, .L15+16
  53 0008 FFF7FEFF 		bl	countTimElapsed
  54              	.LVL0:
 230:Core/Src/Main/Interrupt.c **** 
 231:Core/Src/Main/Interrupt.c **** 	calcVelocity();
  55              		.loc 1 231 2 view .LVU2
ARM GAS  C:\Users\leopi\AppData\Local\Temp\ccoicnCl.s 			page 6


  56              	.LBB4:
  57              	.LBI4:
  45:Core/Src/Main/Interrupt.c **** 	PulseDisplacement[LEFT] = - (TIM3->CNT - INITIAL_PULSE);
  58              		.loc 1 45 13 view .LVU3
  59              	.LBB5:
  46:Core/Src/Main/Interrupt.c **** 	TIM3->CNT = INITIAL_PULSE;
  60              		.loc 1 46 2 view .LVU4
  46:Core/Src/Main/Interrupt.c **** 	TIM3->CNT = INITIAL_PULSE;
  61              		.loc 1 46 35 is_stmt 0 view .LVU5
  62 000c C94A     		ldr	r2, .L15+20
  63 000e 516A     		ldr	r1, [r2, #36]
  46:Core/Src/Main/Interrupt.c **** 	TIM3->CNT = INITIAL_PULSE;
  64              		.loc 1 46 28 view .LVU6
  65 0010 47F22F53 		movw	r3, #29999
  66 0014 591A     		subs	r1, r3, r1
  46:Core/Src/Main/Interrupt.c **** 	TIM3->CNT = INITIAL_PULSE;
  67              		.loc 1 46 26 view .LVU7
  68 0016 C84C     		ldr	r4, .L15+24
  69 0018 2160     		str	r1, [r4]
  47:Core/Src/Main/Interrupt.c **** 	PulseDisplacement[RIGHT] = - (TIM4->CNT - INITIAL_PULSE);
  70              		.loc 1 47 2 is_stmt 1 view .LVU8
  47:Core/Src/Main/Interrupt.c **** 	PulseDisplacement[RIGHT] = - (TIM4->CNT - INITIAL_PULSE);
  71              		.loc 1 47 12 is_stmt 0 view .LVU9
  72 001a 5362     		str	r3, [r2, #36]
  48:Core/Src/Main/Interrupt.c **** 	TIM4->CNT = INITIAL_PULSE;
  73              		.loc 1 48 2 is_stmt 1 view .LVU10
  48:Core/Src/Main/Interrupt.c **** 	TIM4->CNT = INITIAL_PULSE;
  74              		.loc 1 48 36 is_stmt 0 view .LVU11
  75 001c C748     		ldr	r0, .L15+28
  76 001e 426A     		ldr	r2, [r0, #36]
  48:Core/Src/Main/Interrupt.c **** 	TIM4->CNT = INITIAL_PULSE;
  77              		.loc 1 48 29 view .LVU12
  78 0020 9A1A     		subs	r2, r3, r2
  48:Core/Src/Main/Interrupt.c **** 	TIM4->CNT = INITIAL_PULSE;
  79              		.loc 1 48 27 view .LVU13
  80 0022 6260     		str	r2, [r4, #4]
  49:Core/Src/Main/Interrupt.c **** 
  81              		.loc 1 49 2 is_stmt 1 view .LVU14
  49:Core/Src/Main/Interrupt.c **** 
  82              		.loc 1 49 12 is_stmt 0 view .LVU15
  83 0024 4362     		str	r3, [r0, #36]
  52:Core/Src/Main/Interrupt.c **** 	Current.Velocity[RIGHT] =  (float)PulseDisplacement[RIGHT] * convert_to_velocity;
  84              		.loc 1 52 2 is_stmt 1 view .LVU16
  52:Core/Src/Main/Interrupt.c **** 	Current.Velocity[RIGHT] =  (float)PulseDisplacement[RIGHT] * convert_to_velocity;
  85              		.loc 1 52 28 is_stmt 0 view .LVU17
  86 0026 07EE901A 		vmov	s15, r1	@ int
  87 002a B8EEE77A 		vcvt.f32.s32	s14, s15
  52:Core/Src/Main/Interrupt.c **** 	Current.Velocity[RIGHT] =  (float)PulseDisplacement[RIGHT] * convert_to_velocity;
  88              		.loc 1 52 59 view .LVU18
  89 002e DFEDC46A 		vldr.32	s13, .L15+32
  90 0032 27EE267A 		vmul.f32	s14, s14, s13
  52:Core/Src/Main/Interrupt.c **** 	Current.Velocity[RIGHT] =  (float)PulseDisplacement[RIGHT] * convert_to_velocity;
  91              		.loc 1 52 25 view .LVU19
  92 0036 C34C     		ldr	r4, .L15+36
  93 0038 84ED007A 		vstr.32	s14, [r4]
  53:Core/Src/Main/Interrupt.c **** 	Current.Velocity[BODY] = (Current.Velocity[LEFT] + Current.Velocity[RIGHT] )*0.5f;
  94              		.loc 1 53 2 is_stmt 1 view .LVU20
ARM GAS  C:\Users\leopi\AppData\Local\Temp\ccoicnCl.s 			page 7


  53:Core/Src/Main/Interrupt.c **** 	Current.Velocity[BODY] = (Current.Velocity[LEFT] + Current.Velocity[RIGHT] )*0.5f;
  95              		.loc 1 53 29 is_stmt 0 view .LVU21
  96 003c 07EE902A 		vmov	s15, r2	@ int
  97 0040 F8EEE77A 		vcvt.f32.s32	s15, s15
  53:Core/Src/Main/Interrupt.c **** 	Current.Velocity[BODY] = (Current.Velocity[LEFT] + Current.Velocity[RIGHT] )*0.5f;
  98              		.loc 1 53 61 view .LVU22
  99 0044 67EEA67A 		vmul.f32	s15, s15, s13
  53:Core/Src/Main/Interrupt.c **** 	Current.Velocity[BODY] = (Current.Velocity[LEFT] + Current.Velocity[RIGHT] )*0.5f;
 100              		.loc 1 53 26 view .LVU23
 101 0048 C4ED017A 		vstr.32	s15, [r4, #4]
  54:Core/Src/Main/Interrupt.c **** 
 102              		.loc 1 54 2 is_stmt 1 view .LVU24
  54:Core/Src/Main/Interrupt.c **** 
 103              		.loc 1 54 44 is_stmt 0 view .LVU25
 104 004c D4ED007A 		vldr.32	s15, [r4]
  54:Core/Src/Main/Interrupt.c **** 
 105              		.loc 1 54 69 view .LVU26
 106 0050 94ED017A 		vldr.32	s14, [r4, #4]
  54:Core/Src/Main/Interrupt.c **** 
 107              		.loc 1 54 51 view .LVU27
 108 0054 77EE877A 		vadd.f32	s15, s15, s14
  54:Core/Src/Main/Interrupt.c **** 
 109              		.loc 1 54 78 view .LVU28
 110 0058 B6EE007A 		vmov.f32	s14, #5.0e-1
 111 005c 67EE877A 		vmul.f32	s15, s15, s14
  54:Core/Src/Main/Interrupt.c **** 
 112              		.loc 1 54 25 view .LVU29
 113 0060 C4ED027A 		vstr.32	s15, [r4, #8]
  57:Core/Src/Main/Interrupt.c **** 	TotalPulse[RIGHT] += PulseDisplacement[RIGHT];
 114              		.loc 1 57 2 is_stmt 1 view .LVU30
  57:Core/Src/Main/Interrupt.c **** 	TotalPulse[RIGHT] += PulseDisplacement[RIGHT];
 115              		.loc 1 57 19 is_stmt 0 view .LVU31
 116 0064 B84B     		ldr	r3, .L15+40
 117 0066 1868     		ldr	r0, [r3]
 118 0068 0144     		add	r1, r1, r0
 119 006a 1960     		str	r1, [r3]
  58:Core/Src/Main/Interrupt.c **** 	TotalPulse[BODY] = TotalPulse[LEFT]+TotalPulse[RIGHT];
 120              		.loc 1 58 2 is_stmt 1 view .LVU32
  58:Core/Src/Main/Interrupt.c **** 	TotalPulse[BODY] = TotalPulse[LEFT]+TotalPulse[RIGHT];
 121              		.loc 1 58 20 is_stmt 0 view .LVU33
 122 006c 5968     		ldr	r1, [r3, #4]
 123 006e 0A44     		add	r2, r2, r1
 124 0070 5A60     		str	r2, [r3, #4]
  59:Core/Src/Main/Interrupt.c **** }
 125              		.loc 1 59 2 is_stmt 1 view .LVU34
  59:Core/Src/Main/Interrupt.c **** }
 126              		.loc 1 59 31 is_stmt 0 view .LVU35
 127 0072 1A68     		ldr	r2, [r3]
  59:Core/Src/Main/Interrupt.c **** }
 128              		.loc 1 59 48 view .LVU36
 129 0074 5968     		ldr	r1, [r3, #4]
  59:Core/Src/Main/Interrupt.c **** }
 130              		.loc 1 59 37 view .LVU37
 131 0076 0A44     		add	r2, r2, r1
  59:Core/Src/Main/Interrupt.c **** }
 132              		.loc 1 59 19 view .LVU38
 133 0078 9A60     		str	r2, [r3, #8]
ARM GAS  C:\Users\leopi\AppData\Local\Temp\ccoicnCl.s 			page 8


 134              	.LBE5:
 135              	.LBE4:
 232:Core/Src/Main/Interrupt.c **** 	
 233:Core/Src/Main/Interrupt.c **** 	// getFloatLog(&log_velocity, Current.Velocity[BODY]);
 234:Core/Src/Main/Interrupt.c **** 	
 235:Core/Src/Main/Interrupt.c **** 	//ÁßªÂãïÈáè mm/ms„ÇíÁ©çÁÆó
 236:Core/Src/Main/Interrupt.c **** 
 237:Core/Src/Main/Interrupt.c **** 
 238:Core/Src/Main/Interrupt.c **** 	//ËßíÈÄüÂ∫¶ rad/s
 239:Core/Src/Main/Interrupt.c **** 
 240:Core/Src/Main/Interrupt.c **** #if 0
 241:Core/Src/Main/Interrupt.c **** 	//static float angle=0;
 242:Core/Src/Main/Interrupt.c **** 	volatile static float zg_last=0;
 243:Core/Src/Main/Interrupt.c **** 	volatile float zg_law;
 244:Core/Src/Main/Interrupt.c **** 	//uint8_t zgb,zgf;
 245:Core/Src/Main/Interrupt.c **** 	ZGyro = ReadIMU(0x37, 0x38);
 246:Core/Src/Main/Interrupt.c ****     zg_law =  ( ZGyro - zg_offset )*convert_to_imu_angv;//16.4 * 180;//rad/s or rad/0.001s
 247:Core/Src/Main/Interrupt.c ****     Current.AngularV = -((0.01*zg_law) + (0.99)* (zg_last));
 248:Core/Src/Main/Interrupt.c ****     zg_last = zg_law;
 249:Core/Src/Main/Interrupt.c **** 	Angle += AngularV * T1;
 250:Core/Src/Main/Interrupt.c **** 
 251:Core/Src/Main/Interrupt.c **** #else
 252:Core/Src/Main/Interrupt.c **** 	Update_IMU(&(Current.AngularV), &(Current.Angle)); //„É°„Éá„Ç£„Ç¢„É≥„Éï„Ç£„É´„Çø„Å®„Ç™„Éï„Çª„ÉÉ„Éà
 136              		.loc 1 252 2 is_stmt 1 view .LVU39
 137 007a 04F11801 		add	r1, r4, #24
 138 007e 04F10C00 		add	r0, r4, #12
 139 0082 FFF7FEFF 		bl	Update_IMU
 140              	.LVL1:
 253:Core/Src/Main/Interrupt.c **** 	// getFloatLog(&log_velocity, AngularV);
 254:Core/Src/Main/Interrupt.c **** //	AngularV = ( Current.Velocity[LEFT] - Current.Velocity[RIGHT] ) *convert_to_angularv;
 255:Core/Src/Main/Interrupt.c **** //	Angle += AngularV * T1;
 256:Core/Src/Main/Interrupt.c **** 	static float x=0,y=0; // Ëá™Â∑±‰ΩçÁΩÆxy
 141              		.loc 1 256 2 view .LVU40
 257:Core/Src/Main/Interrupt.c **** 	x += Current.Velocity[BODY]*T1*sin(Current.Angle);
 142              		.loc 1 257 2 view .LVU41
 143              		.loc 1 257 23 is_stmt 0 view .LVU42
 144 0086 D4ED027A 		vldr.32	s15, [r4, #8]
 145              		.loc 1 257 29 view .LVU43
 146 008a DFEDB08A 		vldr.32	s17, .L15+44
 147 008e 67EEA87A 		vmul.f32	s15, s15, s17
 148 0092 17EE900A 		vmov	r0, s15
 149 0096 FFF7FEFF 		bl	__aeabi_f2d
 150              	.LVL2:
 151 009a 0646     		mov	r6, r0
 152 009c 0F46     		mov	r7, r1
 153              		.loc 1 257 44 view .LVU44
 154 009e A069     		ldr	r0, [r4, #24]	@ float
 155              		.loc 1 257 33 view .LVU45
 156 00a0 FFF7FEFF 		bl	__aeabi_f2d
 157              	.LVL3:
 158 00a4 41EC100B 		vmov	d0, r0, r1
 159 00a8 FFF7FEFF 		bl	sin
 160              	.LVL4:
 161 00ac 53EC102B 		vmov	r2, r3, d0
 162              		.loc 1 257 32 view .LVU46
 163 00b0 3046     		mov	r0, r6
 164 00b2 3946     		mov	r1, r7
ARM GAS  C:\Users\leopi\AppData\Local\Temp\ccoicnCl.s 			page 9


 165 00b4 FFF7FEFF 		bl	__aeabi_dmul
 166              	.LVL5:
 167 00b8 0646     		mov	r6, r0
 168 00ba 0F46     		mov	r7, r1
 169              		.loc 1 257 4 view .LVU47
 170 00bc A44D     		ldr	r5, .L15+48
 171 00be 2868     		ldr	r0, [r5]	@ float
 172 00c0 FFF7FEFF 		bl	__aeabi_f2d
 173              	.LVL6:
 174 00c4 3246     		mov	r2, r6
 175 00c6 3B46     		mov	r3, r7
 176 00c8 FFF7FEFF 		bl	__aeabi_dadd
 177              	.LVL7:
 178 00cc FFF7FEFF 		bl	__aeabi_d2f
 179              	.LVL8:
 180 00d0 08EE100A 		vmov	s16, r0
 181 00d4 2860     		str	r0, [r5]	@ float
 258:Core/Src/Main/Interrupt.c **** 	y += Current.Velocity[BODY]*T1*cos(Current.Angle);
 182              		.loc 1 258 2 is_stmt 1 view .LVU48
 183              		.loc 1 258 23 is_stmt 0 view .LVU49
 184 00d6 D4ED027A 		vldr.32	s15, [r4, #8]
 185              		.loc 1 258 29 view .LVU50
 186 00da 67EEA87A 		vmul.f32	s15, s15, s17
 187 00de 17EE900A 		vmov	r0, s15
 188 00e2 FFF7FEFF 		bl	__aeabi_f2d
 189              	.LVL9:
 190 00e6 0646     		mov	r6, r0
 191 00e8 0F46     		mov	r7, r1
 192              		.loc 1 258 44 view .LVU51
 193 00ea A069     		ldr	r0, [r4, #24]	@ float
 194              		.loc 1 258 33 view .LVU52
 195 00ec FFF7FEFF 		bl	__aeabi_f2d
 196              	.LVL10:
 197 00f0 41EC100B 		vmov	d0, r0, r1
 198 00f4 FFF7FEFF 		bl	cos
 199              	.LVL11:
 200 00f8 53EC102B 		vmov	r2, r3, d0
 201              		.loc 1 258 32 view .LVU53
 202 00fc 3046     		mov	r0, r6
 203 00fe 3946     		mov	r1, r7
 204 0100 FFF7FEFF 		bl	__aeabi_dmul
 205              	.LVL12:
 206 0104 0446     		mov	r4, r0
 207 0106 0D46     		mov	r5, r1
 208              		.loc 1 258 4 view .LVU54
 209 0108 924E     		ldr	r6, .L15+52
 210 010a 3068     		ldr	r0, [r6]	@ float
 211 010c FFF7FEFF 		bl	__aeabi_f2d
 212              	.LVL13:
 213 0110 2246     		mov	r2, r4
 214 0112 2B46     		mov	r3, r5
 215 0114 FFF7FEFF 		bl	__aeabi_dadd
 216              	.LVL14:
 217 0118 FFF7FEFF 		bl	__aeabi_d2f
 218              	.LVL15:
 219 011c 3060     		str	r0, [r6]	@ float
 259:Core/Src/Main/Interrupt.c **** 	if(run_log.flag == true)
ARM GAS  C:\Users\leopi\AppData\Local\Temp\ccoicnCl.s 			page 10


 220              		.loc 1 259 2 is_stmt 1 view .LVU55
 221              		.loc 1 259 12 is_stmt 0 view .LVU56
 222 011e 8E4B     		ldr	r3, .L15+56
 223 0120 1B78     		ldrb	r3, [r3]	@ zero_extendqisi2
 224              		.loc 1 259 4 view .LVU57
 225 0122 002B     		cmp	r3, #0
 226 0124 40F08D80 		bne	.L9
 227              	.L2:
 260:Core/Src/Main/Interrupt.c **** 		flashFloatLog(&run_log, x, y, Current.Angle); //‰ΩçÁΩÆ„Å®ËßíÂ∫¶
 261:Core/Src/Main/Interrupt.c **** #endif
 262:Core/Src/Main/Interrupt.c **** 	int wall_d =0,wall_l =0,wall_r =0, wall_f=0;
 228              		.loc 1 262 2 is_stmt 1 view .LVU58
 229              	.LVL16:
 263:Core/Src/Main/Interrupt.c **** 		int ang_out=0;
 230              		.loc 1 263 3 view .LVU59
 264:Core/Src/Main/Interrupt.c **** #if 1
 265:Core/Src/Main/Interrupt.c **** 
 266:Core/Src/Main/Interrupt.c **** 	if( Pid[A_VELO_PID].flag == 1 )
 231              		.loc 1 266 2 view .LVU60
 232              		.loc 1 266 21 is_stmt 0 view .LVU61
 233 0128 8C4B     		ldr	r3, .L15+60
 234 012a 9B6A     		ldr	r3, [r3, #40]
 235              		.loc 1 266 4 view .LVU62
 236 012c 012B     		cmp	r3, #1
 237 012e 00F09380 		beq	.L10
 267:Core/Src/Main/Interrupt.c **** 	{
 268:Core/Src/Main/Interrupt.c **** 		ang_out = PIDControl( A_VELO_PID,  Target.Angle, Current.Angle);
 269:Core/Src/Main/Interrupt.c **** 		Target.AngularV = (float)ang_out;
 270:Core/Src/Main/Interrupt.c **** 	}
 271:Core/Src/Main/Interrupt.c **** 	else if( Pid[D_WALL_PID].flag == 1 )
 238              		.loc 1 271 7 is_stmt 1 view .LVU63
 239              		.loc 1 271 26 is_stmt 0 view .LVU64
 240 0132 8A4B     		ldr	r3, .L15+60
 241 0134 5B6D     		ldr	r3, [r3, #84]
 242              		.loc 1 271 9 view .LVU65
 243 0136 012B     		cmp	r3, #1
 244 0138 00F09E80 		beq	.L11
 272:Core/Src/Main/Interrupt.c **** 	{
 273:Core/Src/Main/Interrupt.c **** 		wall_d = PIDControl( D_WALL_PID,Current.Photo[SL],Current.Photo[SIDE_R]+PhotoDiff);
 274:Core/Src/Main/Interrupt.c **** 		Target.AngularV = (float)wall_d*0.001;
 275:Core/Src/Main/Interrupt.c **** 	}
 276:Core/Src/Main/Interrupt.c **** 	else if( Pid[L_WALL_PID].flag == 1 )
 245              		.loc 1 276 7 is_stmt 1 view .LVU66
 246              		.loc 1 276 26 is_stmt 0 view .LVU67
 247 013c 874B     		ldr	r3, .L15+60
 248 013e D3F88030 		ldr	r3, [r3, #128]
 249              		.loc 1 276 9 view .LVU68
 250 0142 012B     		cmp	r3, #1
 251 0144 00F0B780 		beq	.L12
 277:Core/Src/Main/Interrupt.c **** 	{
 278:Core/Src/Main/Interrupt.c **** 		wall_l = PIDControl( L_WALL_PID, Current.Photo[SL], Target.Photo[SL]);
 279:Core/Src/Main/Interrupt.c **** 		Target.AngularV = (float)wall_l*0.001;
 280:Core/Src/Main/Interrupt.c **** 	}
 281:Core/Src/Main/Interrupt.c **** 	else if( Pid[R_WALL_PID].flag == 1 )
 252              		.loc 1 281 7 is_stmt 1 view .LVU69
 253              		.loc 1 281 26 is_stmt 0 view .LVU70
 254 0148 844B     		ldr	r3, .L15+60
ARM GAS  C:\Users\leopi\AppData\Local\Temp\ccoicnCl.s 			page 11


 255 014a D3F8AC30 		ldr	r3, [r3, #172]
 256              		.loc 1 281 9 view .LVU71
 257 014e 012B     		cmp	r3, #1
 258 0150 00F0CB80 		beq	.L13
 282:Core/Src/Main/Interrupt.c **** 	{
 283:Core/Src/Main/Interrupt.c **** 		wall_r = PIDControl( R_WALL_PID,  Target.Photo[SIDE_R],Current.Photo[SIDE_R]);
 284:Core/Src/Main/Interrupt.c **** 		Target.AngularV = (float)wall_r*0.001;
 285:Core/Src/Main/Interrupt.c **** 	}
 286:Core/Src/Main/Interrupt.c **** 	else if( Pid[F_WALL_PID].flag == 1)
 259              		.loc 1 286 7 is_stmt 1 view .LVU72
 260              		.loc 1 286 26 is_stmt 0 view .LVU73
 261 0154 814B     		ldr	r3, .L15+60
 262 0156 D3F88831 		ldr	r3, [r3, #392]
 263              		.loc 1 286 9 view .LVU74
 264 015a 012B     		cmp	r3, #1
 265 015c 00F01081 		beq	.L14
 266              	.LVL17:
 267              	.L4:
 287:Core/Src/Main/Interrupt.c **** 	{
 288:Core/Src/Main/Interrupt.c **** 		wall_f = PIDControl( F_WALL_PID,   3800, (	(Current.Photo[FR]+Current.Photo[FL])));
 289:Core/Src/Main/Interrupt.c **** 		Target.Velocity[BODY] = (float)wall_f*0.001;
 290:Core/Src/Main/Interrupt.c **** 		ang_out = PIDControl( A_VELO_PID,  Target.Angle, Current.Angle);
 291:Core/Src/Main/Interrupt.c **** 		Target.AngularV = (float)ang_out;
 292:Core/Src/Main/Interrupt.c **** 		//Target.Velocity[BODY] = 0.1*PIDControl( FD_WALL_PID,  Current.Photo[FR]+Photo[FL],4000);
 293:Core/Src/Main/Interrupt.c **** 	}
 294:Core/Src/Main/Interrupt.c **** #else
 295:Core/Src/Main/Interrupt.c **** 	switch(Control_Mode)
 296:Core/Src/Main/Interrupt.c **** 	{
 297:Core/Src/Main/Interrupt.c **** 	case A_VELO_PID:
 298:Core/Src/Main/Interrupt.c **** 		ang_out = PIDControl( Control_Mode,  Target.Angle, Current.Angle);
 299:Core/Src/Main/Interrupt.c **** 		Target.AngularV = (float)ang_out;	//„Å≤„Å®„Åæ„Åö„Åì„ÅÆËæ∫„ÅÆÂÄ§„ÅÆÂæÆË™øÊï¥„ÅØÁΩÆ„ÅÑ„Å¶„Åä„Åè„ÄÇÂ
 300:Core/Src/Main/Interrupt.c **** 		ChangeLED(7);
 301:Core/Src/Main/Interrupt.c **** 		break;
 302:Core/Src/Main/Interrupt.c **** 	case D_WALL_PID:
 303:Core/Src/Main/Interrupt.c **** 		wall_d = PIDControl( Control_Mode,Current.Photo[SL],Current.Photo[SIDE_R]+PhotoDiff);	//Â∑¶„Å´ÂØÑ
 304:Core/Src/Main/Interrupt.c **** 		Target.AngularV = (float)wall_d*0.001;//0.002 „Å†„Å®ÈÄü„Åï„ÅØ„Å°„Çá„ÅÜ„Å©„ÅÑ„ÅÑ„Åë„Å©Á¥∞„Åã„Åï„Åå
 305:Core/Src/Main/Interrupt.c **** 		ChangeLED(5);
 306:Core/Src/Main/Interrupt.c **** 		break;
 307:Core/Src/Main/Interrupt.c **** 	case L_WALL_PID:
 308:Core/Src/Main/Interrupt.c **** 		wall_l = PIDControl( Control_Mode, Current.Photo[SL], Target.Photo[SL]);
 309:Core/Src/Main/Interrupt.c **** 		Target.AngularV = (float)wall_l*0.001;//0.002 „Å†„Å®ÈÄü„Åï„ÅØ„Å°„Çá„ÅÜ„Å©„ÅÑ„ÅÑ„Åë„Å©Á¥∞„Åã„Åï„Åå
 310:Core/Src/Main/Interrupt.c **** 		ChangeLED(4);
 311:Core/Src/Main/Interrupt.c **** 		break;
 312:Core/Src/Main/Interrupt.c **** 	case R_WALL_PID :
 313:Core/Src/Main/Interrupt.c **** 		wall_r = PIDControl( Control_Mode,  Target.Photo[SIDE_R],Current.Photo[SIDE_R]);			//Âè≥„Å´ÂØÑ„Å£
 314:Core/Src/Main/Interrupt.c **** 		Target.AngularV = (float)wall_r*0.001;//0.002 „Å†„Å®ÈÄü„Åï„ÅØ„Å°„Çá„ÅÜ„Å©„ÅÑ„ÅÑ„Åë„Å©Á¥∞„Åã„Åï„Åå
 315:Core/Src/Main/Interrupt.c **** 		ChangeLED(1);
 316:Core/Src/Main/Interrupt.c **** 		break;
 317:Core/Src/Main/Interrupt.c **** 	case F_WALL_PID : //ÂâçÂ£ÅË£úÊ≠£„ÅÆ„Åü„ÇÅ„ÅÆÂà∂Âæ°. „Éü„ÉÉ„ÇØ„Çπ„ÅØ„Çà„Åè„Å™„ÅÑ.
 318:Core/Src/Main/Interrupt.c **** 		wall_f = PIDControl( Control_Mode,   3500, (	(Current.Photo[FR]+Photo[FL])));
 319:Core/Src/Main/Interrupt.c **** 		Target.Velocity[BODY] = (float)wall_f*0.001;
 320:Core/Src/Main/Interrupt.c **** 		ChangeLED(2);
 321:Core/Src/Main/Interrupt.c **** 
 322:Core/Src/Main/Interrupt.c **** 		break;
 323:Core/Src/Main/Interrupt.c **** 	case NOT_CTRL_PID:
 324:Core/Src/Main/Interrupt.c **** 		break;
 325:Core/Src/Main/Interrupt.c **** 	default :
ARM GAS  C:\Users\leopi\AppData\Local\Temp\ccoicnCl.s 			page 12


 326:Core/Src/Main/Interrupt.c **** 		break;
 327:Core/Src/Main/Interrupt.c **** 	}
 328:Core/Src/Main/Interrupt.c **** #endif
 329:Core/Src/Main/Interrupt.c **** 	Target.Velocity[BODY] += Target.Acceleration;
 268              		.loc 1 329 2 is_stmt 1 view .LVU75
 269              		.loc 1 329 33 is_stmt 0 view .LVU76
 270 0160 7F4C     		ldr	r4, .L15+64
 271 0162 94ED0B7A 		vldr.32	s14, [r4, #44]
 272              		.loc 1 329 24 view .LVU77
 273 0166 D4ED027A 		vldr.32	s15, [r4, #8]
 274 016a 77EE877A 		vadd.f32	s15, s15, s14
 275 016e C4ED027A 		vstr.32	s15, [r4, #8]
 330:Core/Src/Main/Interrupt.c **** 	//AngularAcceleration += AngularLeapsity;
 331:Core/Src/Main/Interrupt.c **** 	Target.AngularV += Target.AngularAcceleration;
 276              		.loc 1 331 2 is_stmt 1 view .LVU78
 277              		.loc 1 331 27 is_stmt 0 view .LVU79
 278 0172 94ED0C7A 		vldr.32	s14, [r4, #48]
 279              		.loc 1 331 18 view .LVU80
 280 0176 D4ED037A 		vldr.32	s15, [r4, #12]
 281 017a 77EE877A 		vadd.f32	s15, s15, s14
 282 017e C4ED037A 		vstr.32	s15, [r4, #12]
 332:Core/Src/Main/Interrupt.c **** 	//Target.AngularV += AngularAcceleration;
 333:Core/Src/Main/Interrupt.c **** 	Target.Velocity[RIGHT] = ( Target.Velocity[BODY] - Target.AngularV * TREAD_WIDTH * 0.5f );
 283              		.loc 1 333 2 is_stmt 1 view .LVU81
 284              		.loc 1 333 44 is_stmt 0 view .LVU82
 285 0182 D4ED026A 		vldr.32	s13, [r4, #8]
 286              		.loc 1 333 59 view .LVU83
 287 0186 94ED037A 		vldr.32	s14, [r4, #12]
 288              		.loc 1 333 69 view .LVU84
 289 018a 9FED766A 		vldr.32	s12, .L15+68
 290 018e 27EE067A 		vmul.f32	s14, s14, s12
 291              		.loc 1 333 83 view .LVU85
 292 0192 F6EE007A 		vmov.f32	s15, #5.0e-1
 293 0196 27EE277A 		vmul.f32	s14, s14, s15
 294              		.loc 1 333 51 view .LVU86
 295 019a 36EEC77A 		vsub.f32	s14, s13, s14
 296              		.loc 1 333 25 view .LVU87
 297 019e 84ED017A 		vstr.32	s14, [r4, #4]
 334:Core/Src/Main/Interrupt.c **** 	Target.Velocity[LEFT] = ( Target.AngularV *TREAD_WIDTH ) + Target.Velocity[RIGHT];
 298              		.loc 1 334 2 is_stmt 1 view .LVU88
 299              		.loc 1 334 34 is_stmt 0 view .LVU89
 300 01a2 D4ED037A 		vldr.32	s15, [r4, #12]
 301              		.loc 1 334 44 view .LVU90
 302 01a6 67EE867A 		vmul.f32	s15, s15, s12
 303              		.loc 1 334 76 view .LVU91
 304 01aa 94ED017A 		vldr.32	s14, [r4, #4]
 305              		.loc 1 334 59 view .LVU92
 306 01ae 77EE877A 		vadd.f32	s15, s15, s14
 307              		.loc 1 334 24 view .LVU93
 308 01b2 C4ED007A 		vstr.32	s15, [r4]
 335:Core/Src/Main/Interrupt.c **** 
 336:Core/Src/Main/Interrupt.c **** #if 0
 337:Core/Src/Main/Interrupt.c **** 	float battery_voltage = ADCToBatteryVoltage( adc1[2], V_SPLIT_NUM, PIN_V_MAX ,ADC_RESOLUTION );
 338:Core/Src/Main/Interrupt.c **** 	float voltage_maintainer = BATTERY_MAX/battery_voltage;
 339:Core/Src/Main/Interrupt.c **** 	
 340:Core/Src/Main/Interrupt.c **** 	VelocityLeftOut = voltage_maintainer * PIDControl( L_VELO_PID, Target.Velocity[LEFT], Current.Velo
 341:Core/Src/Main/Interrupt.c **** 	VelocityRightOut = voltage_maintainer * PIDControl( R_VELO_PID, Target.Velocity[RIGHT], Current.Ve
ARM GAS  C:\Users\leopi\AppData\Local\Temp\ccoicnCl.s 			page 13


 342:Core/Src/Main/Interrupt.c **** 	// VelocityLeftOut = PIDControl( L_VELO_PID, Target.Velocity[LEFT], Current.Velocity[LEFT]);
 343:Core/Src/Main/Interrupt.c **** 	// VelocityRightOut = PIDControl( R_VELO_PID, Target.Velocity[RIGHT], Current.Velocity[RIGHT]);
 344:Core/Src/Main/Interrupt.c **** 
 345:Core/Src/Main/Interrupt.c **** #else //„Ç∑„Çπ„ÉÜ„É†ÂêåÂÆö„ÅßÂæó„Åü„Ç≤„Ç§„É≥Áî®„ÅÆÂ§âÊèõÂá¶ÁêÜ
 346:Core/Src/Main/Interrupt.c **** 	float battery_voltage = ADCToBatteryVoltage( adc1[2], V_SPLIT_NUM, PIN_V_MAX ,ADC_RESOLUTION );
 309              		.loc 1 346 2 is_stmt 1 view .LVU94
 310              		.loc 1 346 26 is_stmt 0 view .LVU95
 311 01b6 9FED6C1A 		vldr.32	s2, .L15+72
 312 01ba DFED6C0A 		vldr.32	s1, .L15+76
 313 01be B0EE080A 		vmov.f32	s0, #3.0e+0
 314 01c2 6B4B     		ldr	r3, .L15+80
 315 01c4 9868     		ldr	r0, [r3, #8]
 316 01c6 FFF7FEFF 		bl	ADCToBatteryVoltage
 317              	.LVL18:
 318 01ca 10EE100A 		vmov	r0, s0
 319              	.LVL19:
 347:Core/Src/Main/Interrupt.c **** 	float convert_to_reg_counter = BATTERY_MAX/battery_voltage;
 320              		.loc 1 347 2 is_stmt 1 view .LVU96
 321              		.loc 1 347 44 is_stmt 0 view .LVU97
 322 01ce FFF7FEFF 		bl	__aeabi_f2d
 323              	.LVL20:
 324              		.loc 1 347 44 view .LVU98
 325 01d2 0246     		mov	r2, r0
 326 01d4 0B46     		mov	r3, r1
 327 01d6 52A1     		adr	r1, .L15
 328 01d8 D1E90001 		ldrd	r0, [r1]
 329 01dc FFF7FEFF 		bl	__aeabi_ddiv
 330              	.LVL21:
 331              		.loc 1 347 8 view .LVU99
 332 01e0 FFF7FEFF 		bl	__aeabi_d2f
 333              	.LVL22:
 334 01e4 08EE100A 		vmov	s16, r0
 335              	.LVL23:
 348:Core/Src/Main/Interrupt.c **** 	VelocityLeftOut = convert_to_reg_counter * PIDControl( L_VELO_PID, Target.Velocity[LEFT], Current.
 336              		.loc 1 348 2 is_stmt 1 view .LVU100
 337              		.loc 1 348 45 is_stmt 0 view .LVU101
 338 01e8 94ED000A 		vldr.32	s0, [r4]
 339 01ec 554E     		ldr	r6, .L15+36
 340 01ee D6ED000A 		vldr.32	s1, [r6]
 341 01f2 0420     		movs	r0, #4
 342              	.LVL24:
 343              		.loc 1 348 45 view .LVU102
 344 01f4 FFF7FEFF 		bl	PIDControl
 345              	.LVL25:
 346 01f8 07EE900A 		vmov	s15, r0	@ int
 347              		.loc 1 348 43 view .LVU103
 348 01fc F8EEE77A 		vcvt.f32.s32	s15, s15
 349 0200 67EE887A 		vmul.f32	s15, s15, s16
 350              		.loc 1 348 18 view .LVU104
 351 0204 5B4D     		ldr	r5, .L15+84
 352 0206 FDEEE77A 		vcvt.s32.f32	s15, s15
 353 020a C5ED007A 		vstr.32	s15, [r5]	@ int
 349:Core/Src/Main/Interrupt.c **** 	VelocityRightOut = convert_to_reg_counter * PIDControl( R_VELO_PID, Target.Velocity[RIGHT], Curren
 354              		.loc 1 349 2 is_stmt 1 view .LVU105
 355              		.loc 1 349 46 is_stmt 0 view .LVU106
 356 020e 94ED010A 		vldr.32	s0, [r4, #4]
 357 0212 D6ED010A 		vldr.32	s1, [r6, #4]
ARM GAS  C:\Users\leopi\AppData\Local\Temp\ccoicnCl.s 			page 14


 358 0216 0520     		movs	r0, #5
 359 0218 FFF7FEFF 		bl	PIDControl
 360              	.LVL26:
 361 021c 07EE900A 		vmov	s15, r0	@ int
 362              		.loc 1 349 44 view .LVU107
 363 0220 F8EEE77A 		vcvt.f32.s32	s15, s15
 364 0224 67EE887A 		vmul.f32	s15, s15, s16
 365              		.loc 1 349 19 view .LVU108
 366 0228 FDEEE77A 		vcvt.s32.f32	s15, s15
 367 022c 17EE901A 		vmov	r1, s15	@ int
 368 0230 514B     		ldr	r3, .L15+88
 369 0232 C3ED007A 		vstr.32	s15, [r3]	@ int
 350:Core/Src/Main/Interrupt.c **** #endif
 351:Core/Src/Main/Interrupt.c **** 	//„É¢„Éº„Çø„Å´Âá∫Âäõ
 352:Core/Src/Main/Interrupt.c **** 	Motor_Switch( VelocityLeftOut, VelocityRightOut );
 370              		.loc 1 352 2 is_stmt 1 view .LVU109
 371 0236 2868     		ldr	r0, [r5]
 372 0238 FFF7FEFF 		bl	Motor_Switch
 373              	.LVL27:
 353:Core/Src/Main/Interrupt.c **** 	
 354:Core/Src/Main/Interrupt.c **** }
 374              		.loc 1 354 1 is_stmt 0 view .LVU110
 375 023c BDEC028B 		vldm	sp!, {d8}
 376              	.LCFI2:
 377              		.cfi_remember_state
 378              		.cfi_restore 80
 379              		.cfi_restore 81
 380              		.cfi_def_cfa_offset 24
 381              	.LVL28:
 382              		.loc 1 354 1 view .LVU111
 383 0240 F8BD     		pop	{r3, r4, r5, r6, r7, pc}
 384              	.L9:
 385              	.LCFI3:
 386              		.cfi_restore_state
 387              		.loc 1 354 1 view .LVU112
 388 0242 00EE900A 		vmov	s1, r0
 260:Core/Src/Main/Interrupt.c **** #endif
 389              		.loc 1 260 3 is_stmt 1 view .LVU113
 390 0246 3F4B     		ldr	r3, .L15+36
 391 0248 93ED061A 		vldr.32	s2, [r3, #24]
 392 024c B0EE480A 		vmov.f32	s0, s16
 393 0250 4148     		ldr	r0, .L15+56
 394 0252 FFF7FEFF 		bl	flashFloatLog
 395              	.LVL29:
 396 0256 67E7     		b	.L2
 397              	.LVL30:
 398              	.L10:
 268:Core/Src/Main/Interrupt.c **** 		Target.AngularV = (float)ang_out;
 399              		.loc 1 268 3 view .LVU114
 268:Core/Src/Main/Interrupt.c **** 		Target.AngularV = (float)ang_out;
 400              		.loc 1 268 13 is_stmt 0 view .LVU115
 401 0258 414C     		ldr	r4, .L15+64
 402 025a 94ED060A 		vldr.32	s0, [r4, #24]
 403 025e 394B     		ldr	r3, .L15+36
 404 0260 D3ED060A 		vldr.32	s1, [r3, #24]
 405 0264 0020     		movs	r0, #0
 406 0266 FFF7FEFF 		bl	PIDControl
ARM GAS  C:\Users\leopi\AppData\Local\Temp\ccoicnCl.s 			page 15


 407              	.LVL31:
 408 026a 07EE900A 		vmov	s15, r0	@ int
 409              	.LVL32:
 269:Core/Src/Main/Interrupt.c **** 	}
 410              		.loc 1 269 3 is_stmt 1 view .LVU116
 269:Core/Src/Main/Interrupt.c **** 	}
 411              		.loc 1 269 21 is_stmt 0 view .LVU117
 412 026e F8EEE77A 		vcvt.f32.s32	s15, s15
 269:Core/Src/Main/Interrupt.c **** 	}
 413              		.loc 1 269 19 view .LVU118
 414 0272 C4ED037A 		vstr.32	s15, [r4, #12]
 415 0276 73E7     		b	.L4
 416              	.LVL33:
 417              	.L11:
 273:Core/Src/Main/Interrupt.c **** 		Target.AngularV = (float)wall_d*0.001;
 418              		.loc 1 273 3 is_stmt 1 view .LVU119
 273:Core/Src/Main/Interrupt.c **** 		Target.AngularV = (float)wall_d*0.001;
 419              		.loc 1 273 12 is_stmt 0 view .LVU120
 420 0278 324B     		ldr	r3, .L15+36
 421 027a 93ED090A 		vldr.32	s0, [r3, #36]
 273:Core/Src/Main/Interrupt.c **** 		Target.AngularV = (float)wall_d*0.001;
 422              		.loc 1 273 66 view .LVU121
 423 027e D3ED080A 		vldr.32	s1, [r3, #32]
 273:Core/Src/Main/Interrupt.c **** 		Target.AngularV = (float)wall_d*0.001;
 424              		.loc 1 273 12 view .LVU122
 425 0282 3E4B     		ldr	r3, .L15+92
 426 0284 D3ED007A 		vldr.32	s15, [r3]
 427 0288 70EEA70A 		vadd.f32	s1, s1, s15
 428 028c 0120     		movs	r0, #1
 429 028e FFF7FEFF 		bl	PIDControl
 430              	.LVL34:
 431 0292 07EE900A 		vmov	s15, r0	@ int
 432              	.LVL35:
 274:Core/Src/Main/Interrupt.c **** 	}
 433              		.loc 1 274 3 is_stmt 1 view .LVU123
 274:Core/Src/Main/Interrupt.c **** 	}
 434              		.loc 1 274 21 is_stmt 0 view .LVU124
 435 0296 F8EEE77A 		vcvt.f32.s32	s15, s15
 436 029a 17EE900A 		vmov	r0, s15
 437              	.LVL36:
 274:Core/Src/Main/Interrupt.c **** 	}
 438              		.loc 1 274 21 view .LVU125
 439 029e FFF7FEFF 		bl	__aeabi_f2d
 440              	.LVL37:
 274:Core/Src/Main/Interrupt.c **** 	}
 441              		.loc 1 274 34 view .LVU126
 442 02a2 21A3     		adr	r3, .L15+8
 443 02a4 D3E90023 		ldrd	r2, [r3]
 444 02a8 FFF7FEFF 		bl	__aeabi_dmul
 445              	.LVL38:
 446 02ac FFF7FEFF 		bl	__aeabi_d2f
 447              	.LVL39:
 274:Core/Src/Main/Interrupt.c **** 	}
 448              		.loc 1 274 19 view .LVU127
 449 02b0 2B4B     		ldr	r3, .L15+64
 450 02b2 D860     		str	r0, [r3, #12]	@ float
 451 02b4 54E7     		b	.L4
ARM GAS  C:\Users\leopi\AppData\Local\Temp\ccoicnCl.s 			page 16


 452              	.LVL40:
 453              	.L12:
 278:Core/Src/Main/Interrupt.c **** 		Target.AngularV = (float)wall_l*0.001;
 454              		.loc 1 278 3 is_stmt 1 view .LVU128
 278:Core/Src/Main/Interrupt.c **** 		Target.AngularV = (float)wall_l*0.001;
 455              		.loc 1 278 12 is_stmt 0 view .LVU129
 456 02b6 234B     		ldr	r3, .L15+36
 457 02b8 93ED090A 		vldr.32	s0, [r3, #36]
 458 02bc 284C     		ldr	r4, .L15+64
 459 02be D4ED090A 		vldr.32	s1, [r4, #36]
 460 02c2 0220     		movs	r0, #2
 461 02c4 FFF7FEFF 		bl	PIDControl
 462              	.LVL41:
 463 02c8 07EE900A 		vmov	s15, r0	@ int
 464              	.LVL42:
 279:Core/Src/Main/Interrupt.c **** 	}
 465              		.loc 1 279 3 is_stmt 1 view .LVU130
 279:Core/Src/Main/Interrupt.c **** 	}
 466              		.loc 1 279 21 is_stmt 0 view .LVU131
 467 02cc F8EEE77A 		vcvt.f32.s32	s15, s15
 468 02d0 17EE900A 		vmov	r0, s15
 469              	.LVL43:
 279:Core/Src/Main/Interrupt.c **** 	}
 470              		.loc 1 279 21 view .LVU132
 471 02d4 FFF7FEFF 		bl	__aeabi_f2d
 472              	.LVL44:
 279:Core/Src/Main/Interrupt.c **** 	}
 473              		.loc 1 279 34 view .LVU133
 474 02d8 13A3     		adr	r3, .L15+8
 475 02da D3E90023 		ldrd	r2, [r3]
 476 02de FFF7FEFF 		bl	__aeabi_dmul
 477              	.LVL45:
 478 02e2 FFF7FEFF 		bl	__aeabi_d2f
 479              	.LVL46:
 279:Core/Src/Main/Interrupt.c **** 	}
 480              		.loc 1 279 19 view .LVU134
 481 02e6 E060     		str	r0, [r4, #12]	@ float
 482 02e8 3AE7     		b	.L4
 483              	.LVL47:
 484              	.L13:
 283:Core/Src/Main/Interrupt.c **** 		Target.AngularV = (float)wall_r*0.001;
 485              		.loc 1 283 3 is_stmt 1 view .LVU135
 283:Core/Src/Main/Interrupt.c **** 		Target.AngularV = (float)wall_r*0.001;
 486              		.loc 1 283 12 is_stmt 0 view .LVU136
 487 02ea 1D4C     		ldr	r4, .L15+64
 488 02ec 94ED080A 		vldr.32	s0, [r4, #32]
 489 02f0 144B     		ldr	r3, .L15+36
 490 02f2 D3ED080A 		vldr.32	s1, [r3, #32]
 491 02f6 0320     		movs	r0, #3
 492 02f8 FFF7FEFF 		bl	PIDControl
 493              	.LVL48:
 494 02fc 07EE900A 		vmov	s15, r0	@ int
 495              	.LVL49:
 284:Core/Src/Main/Interrupt.c **** 	}
 496              		.loc 1 284 3 is_stmt 1 view .LVU137
 284:Core/Src/Main/Interrupt.c **** 	}
 497              		.loc 1 284 21 is_stmt 0 view .LVU138
ARM GAS  C:\Users\leopi\AppData\Local\Temp\ccoicnCl.s 			page 17


 498 0300 F8EEE77A 		vcvt.f32.s32	s15, s15
 499 0304 17EE900A 		vmov	r0, s15
 500              	.LVL50:
 284:Core/Src/Main/Interrupt.c **** 	}
 501              		.loc 1 284 21 view .LVU139
 502 0308 FFF7FEFF 		bl	__aeabi_f2d
 503              	.LVL51:
 284:Core/Src/Main/Interrupt.c **** 	}
 504              		.loc 1 284 34 view .LVU140
 505 030c 06A3     		adr	r3, .L15+8
 506 030e D3E90023 		ldrd	r2, [r3]
 507 0312 FFF7FEFF 		bl	__aeabi_dmul
 508              	.LVL52:
 509 0316 FFF7FEFF 		bl	__aeabi_d2f
 510              	.LVL53:
 284:Core/Src/Main/Interrupt.c **** 	}
 511              		.loc 1 284 19 view .LVU141
 512 031a E060     		str	r0, [r4, #12]	@ float
 513 031c 20E7     		b	.L4
 514              	.L16:
 515 031e 00BF     		.align	3
 516              	.L15:
 517 0320 CDCCCCCC 		.word	-858993459
 518 0324 CCCC2040 		.word	1075891404
 519 0328 FCA9F1D2 		.word	-755914244
 520 032c 4D62503F 		.word	1062232653
 521 0330 00000000 		.word	.LANCHOR0
 522 0334 00040040 		.word	1073742848
 523 0338 00000000 		.word	PulseDisplacement
 524 033c 00080040 		.word	1073743872
 525 0340 CD77813F 		.word	1065449421
 526 0344 00000000 		.word	Current
 527 0348 00000000 		.word	TotalPulse
 528 034c 6F12833A 		.word	981668463
 529 0350 00000000 		.word	.LANCHOR1
 530 0354 00000000 		.word	.LANCHOR2
 531 0358 00000000 		.word	.LANCHOR3
 532 035c 00000000 		.word	Pid
 533 0360 00000000 		.word	Target
 534 0364 9A990942 		.word	1107925402
 535 0368 00008045 		.word	1166016512
 536 036c 33335340 		.word	1079194419
 537 0370 00000000 		.word	adc1
 538 0374 00000000 		.word	VelocityLeftOut
 539 0378 00000000 		.word	VelocityRightOut
 540 037c 00000000 		.word	PhotoDiff
 541              	.LVL54:
 542              	.L14:
 288:Core/Src/Main/Interrupt.c **** 		Target.Velocity[BODY] = (float)wall_f*0.001;
 543              		.loc 1 288 3 is_stmt 1 view .LVU142
 288:Core/Src/Main/Interrupt.c **** 		Target.Velocity[BODY] = (float)wall_f*0.001;
 544              		.loc 1 288 60 is_stmt 0 view .LVU143
 545 0380 174D     		ldr	r5, .L17+8
 546 0382 D5ED0A0A 		vldr.32	s1, [r5, #40]
 288:Core/Src/Main/Interrupt.c **** 		Target.Velocity[BODY] = (float)wall_f*0.001;
 547              		.loc 1 288 78 view .LVU144
 548 0386 D5ED077A 		vldr.32	s15, [r5, #28]
ARM GAS  C:\Users\leopi\AppData\Local\Temp\ccoicnCl.s 			page 18


 288:Core/Src/Main/Interrupt.c **** 		Target.Velocity[BODY] = (float)wall_f*0.001;
 549              		.loc 1 288 12 view .LVU145
 550 038a 70EEA70A 		vadd.f32	s1, s1, s15
 551 038e 9FED150A 		vldr.32	s0, .L17+12
 552 0392 0820     		movs	r0, #8
 553 0394 FFF7FEFF 		bl	PIDControl
 554              	.LVL55:
 555 0398 07EE900A 		vmov	s15, r0	@ int
 556              	.LVL56:
 289:Core/Src/Main/Interrupt.c **** 		ang_out = PIDControl( A_VELO_PID,  Target.Angle, Current.Angle);
 557              		.loc 1 289 3 is_stmt 1 view .LVU146
 289:Core/Src/Main/Interrupt.c **** 		ang_out = PIDControl( A_VELO_PID,  Target.Angle, Current.Angle);
 558              		.loc 1 289 27 is_stmt 0 view .LVU147
 559 039c F8EEE77A 		vcvt.f32.s32	s15, s15
 560 03a0 17EE900A 		vmov	r0, s15
 561              	.LVL57:
 289:Core/Src/Main/Interrupt.c **** 		ang_out = PIDControl( A_VELO_PID,  Target.Angle, Current.Angle);
 562              		.loc 1 289 27 view .LVU148
 563 03a4 FFF7FEFF 		bl	__aeabi_f2d
 564              	.LVL58:
 289:Core/Src/Main/Interrupt.c **** 		ang_out = PIDControl( A_VELO_PID,  Target.Angle, Current.Angle);
 565              		.loc 1 289 40 view .LVU149
 566 03a8 0BA3     		adr	r3, .L17
 567 03aa D3E90023 		ldrd	r2, [r3]
 568 03ae FFF7FEFF 		bl	__aeabi_dmul
 569              	.LVL59:
 570 03b2 FFF7FEFF 		bl	__aeabi_d2f
 571              	.LVL60:
 289:Core/Src/Main/Interrupt.c **** 		ang_out = PIDControl( A_VELO_PID,  Target.Angle, Current.Angle);
 572              		.loc 1 289 25 view .LVU150
 573 03b6 0C4C     		ldr	r4, .L17+16
 574 03b8 A060     		str	r0, [r4, #8]	@ float
 290:Core/Src/Main/Interrupt.c **** 		Target.AngularV = (float)ang_out;
 575              		.loc 1 290 3 is_stmt 1 view .LVU151
 290:Core/Src/Main/Interrupt.c **** 		Target.AngularV = (float)ang_out;
 576              		.loc 1 290 13 is_stmt 0 view .LVU152
 577 03ba 94ED060A 		vldr.32	s0, [r4, #24]
 578 03be D5ED060A 		vldr.32	s1, [r5, #24]
 579 03c2 0020     		movs	r0, #0
 580 03c4 FFF7FEFF 		bl	PIDControl
 581              	.LVL61:
 582 03c8 07EE900A 		vmov	s15, r0	@ int
 583              	.LVL62:
 291:Core/Src/Main/Interrupt.c **** 		//Target.Velocity[BODY] = 0.1*PIDControl( FD_WALL_PID,  Current.Photo[FR]+Photo[FL],4000);
 584              		.loc 1 291 3 is_stmt 1 view .LVU153
 291:Core/Src/Main/Interrupt.c **** 		//Target.Velocity[BODY] = 0.1*PIDControl( FD_WALL_PID,  Current.Photo[FR]+Photo[FL],4000);
 585              		.loc 1 291 21 is_stmt 0 view .LVU154
 586 03cc F8EEE77A 		vcvt.f32.s32	s15, s15
 291:Core/Src/Main/Interrupt.c **** 		//Target.Velocity[BODY] = 0.1*PIDControl( FD_WALL_PID,  Current.Photo[FR]+Photo[FL],4000);
 587              		.loc 1 291 19 view .LVU155
 588 03d0 C4ED037A 		vstr.32	s15, [r4, #12]
 589 03d4 C4E6     		b	.L4
 590              	.L18:
 591 03d6 00BF     		.align	3
 592              	.L17:
 593 03d8 FCA9F1D2 		.word	-755914244
 594 03dc 4D62503F 		.word	1062232653
ARM GAS  C:\Users\leopi\AppData\Local\Temp\ccoicnCl.s 			page 19


 595 03e0 00000000 		.word	Current
 596 03e4 00806D45 		.word	1164804096
 597 03e8 00000000 		.word	Target
 598              		.cfi_endproc
 599              	.LFE243:
 601              		.section	.text.Kanayama_Calc,"ax",%progbits
 602              		.align	1
 603              		.syntax unified
 604              		.thumb
 605              		.thumb_func
 607              	Kanayama_Calc:
 608              	.LVL63:
 609              	.LFB241:
 164:Core/Src/Main/Interrupt.c **** 	// Ëá™Â∑±‰ΩçÁΩÆxy
 610              		.loc 1 164 94 is_stmt 1 view -0
 611              		.cfi_startproc
 612              		@ args = 0, pretend = 0, frame = 16
 613              		@ frame_needed = 0, uses_anonymous_args = 0
 164:Core/Src/Main/Interrupt.c **** 	// Ëá™Â∑±‰ΩçÁΩÆxy
 614              		.loc 1 164 94 is_stmt 0 view .LVU157
 615 0000 2DE9F04F 		push	{r4, r5, r6, r7, r8, r9, r10, fp, lr}
 616              	.LCFI4:
 617              		.cfi_def_cfa_offset 36
 618              		.cfi_offset 4, -36
 619              		.cfi_offset 5, -32
 620              		.cfi_offset 6, -28
 621              		.cfi_offset 7, -24
 622              		.cfi_offset 8, -20
 623              		.cfi_offset 9, -16
 624              		.cfi_offset 10, -12
 625              		.cfi_offset 11, -8
 626              		.cfi_offset 14, -4
 627 0004 2DED088B 		vpush.64	{d8, d9, d10, d11}
 628              	.LCFI5:
 629              		.cfi_def_cfa_offset 68
 630              		.cfi_offset 80, -68
 631              		.cfi_offset 81, -64
 632              		.cfi_offset 82, -60
 633              		.cfi_offset 83, -56
 634              		.cfi_offset 84, -52
 635              		.cfi_offset 85, -48
 636              		.cfi_offset 86, -44
 637              		.cfi_offset 87, -40
 638 0008 85B0     		sub	sp, sp, #20
 639              	.LCFI6:
 640              		.cfi_def_cfa_offset 88
 641 000a 8246     		mov	r10, r0
 642 000c 8846     		mov	r8, r1
 643 000e 9346     		mov	fp, r2
 166:Core/Src/Main/Interrupt.c **** 	current->Y += current->Velocity[BODY]*T1*sin(current->Angle);
 644              		.loc 1 166 2 is_stmt 1 view .LVU158
 166:Core/Src/Main/Interrupt.c **** 	current->Y += current->Velocity[BODY]*T1*sin(current->Angle);
 645              		.loc 1 166 33 is_stmt 0 view .LVU159
 646 0010 91ED027A 		vldr.32	s14, [r1, #8]
 166:Core/Src/Main/Interrupt.c **** 	current->Y += current->Velocity[BODY]*T1*sin(current->Angle);
 647              		.loc 1 166 39 view .LVU160
 648 0014 DFEDE27A 		vldr.32	s15, .L23+8
ARM GAS  C:\Users\leopi\AppData\Local\Temp\ccoicnCl.s 			page 20


 649 0018 67EE277A 		vmul.f32	s15, s14, s15
 650 001c 17EE900A 		vmov	r0, s15
 651              	.LVL64:
 166:Core/Src/Main/Interrupt.c **** 	current->Y += current->Velocity[BODY]*T1*sin(current->Angle);
 652              		.loc 1 166 39 view .LVU161
 653 0020 FFF7FEFF 		bl	__aeabi_f2d
 654              	.LVL65:
 166:Core/Src/Main/Interrupt.c **** 	current->Y += current->Velocity[BODY]*T1*sin(current->Angle);
 655              		.loc 1 166 39 view .LVU162
 656 0024 0446     		mov	r4, r0
 657 0026 0D46     		mov	r5, r1
 166:Core/Src/Main/Interrupt.c **** 	current->Y += current->Velocity[BODY]*T1*sin(current->Angle);
 658              		.loc 1 166 54 view .LVU163
 659 0028 D8F81890 		ldr	r9, [r8, #24]	@ float
 166:Core/Src/Main/Interrupt.c **** 	current->Y += current->Velocity[BODY]*T1*sin(current->Angle);
 660              		.loc 1 166 43 view .LVU164
 661 002c 4846     		mov	r0, r9	@ float
 662 002e FFF7FEFF 		bl	__aeabi_f2d
 663              	.LVL66:
 664 0032 41EC180B 		vmov	d8, r0, r1
 665 0036 41EC100B 		vmov	d0, r0, r1
 666 003a FFF7FEFF 		bl	cos
 667              	.LVL67:
 668 003e 53EC102B 		vmov	r2, r3, d0
 166:Core/Src/Main/Interrupt.c **** 	current->Y += current->Velocity[BODY]*T1*sin(current->Angle);
 669              		.loc 1 166 42 view .LVU165
 670 0042 2046     		mov	r0, r4
 671 0044 2946     		mov	r1, r5
 672 0046 FFF7FEFF 		bl	__aeabi_dmul
 673              	.LVL68:
 674 004a 0646     		mov	r6, r0
 675 004c 0F46     		mov	r7, r1
 166:Core/Src/Main/Interrupt.c **** 	current->Y += current->Velocity[BODY]*T1*sin(current->Angle);
 676              		.loc 1 166 13 view .LVU166
 677 004e D8F81000 		ldr	r0, [r8, #16]	@ float
 678 0052 FFF7FEFF 		bl	__aeabi_f2d
 679              	.LVL69:
 680 0056 3246     		mov	r2, r6
 681 0058 3B46     		mov	r3, r7
 682 005a FFF7FEFF 		bl	__aeabi_dadd
 683              	.LVL70:
 684 005e FFF7FEFF 		bl	__aeabi_d2f
 685              	.LVL71:
 686 0062 09EE100A 		vmov	s18, r0
 687 0066 C8F81000 		str	r0, [r8, #16]	@ float
 167:Core/Src/Main/Interrupt.c **** 
 688              		.loc 1 167 2 is_stmt 1 view .LVU167
 167:Core/Src/Main/Interrupt.c **** 
 689              		.loc 1 167 43 is_stmt 0 view .LVU168
 690 006a B0EE480A 		vmov.f32	s0, s16
 691 006e F0EE680A 		vmov.f32	s1, s17
 692 0072 FFF7FEFF 		bl	sin
 693              	.LVL72:
 694 0076 53EC102B 		vmov	r2, r3, d0
 167:Core/Src/Main/Interrupt.c **** 
 695              		.loc 1 167 42 view .LVU169
 696 007a 2046     		mov	r0, r4
ARM GAS  C:\Users\leopi\AppData\Local\Temp\ccoicnCl.s 			page 21


 697 007c 2946     		mov	r1, r5
 698 007e FFF7FEFF 		bl	__aeabi_dmul
 699              	.LVL73:
 700 0082 0446     		mov	r4, r0
 701 0084 0D46     		mov	r5, r1
 167:Core/Src/Main/Interrupt.c **** 
 702              		.loc 1 167 13 view .LVU170
 703 0086 D8F81400 		ldr	r0, [r8, #20]	@ float
 704 008a FFF7FEFF 		bl	__aeabi_f2d
 705              	.LVL74:
 706 008e 2246     		mov	r2, r4
 707 0090 2B46     		mov	r3, r5
 708 0092 FFF7FEFF 		bl	__aeabi_dadd
 709              	.LVL75:
 710 0096 FFF7FEFF 		bl	__aeabi_d2f
 711              	.LVL76:
 712 009a C8F81400 		str	r0, [r8, #20]	@ float
 169:Core/Src/Main/Interrupt.c **** 		flashFloatLog(&run_log, current->X, current->Y, current->Angle); //‰ΩçÁΩÆ„Å®ËßíÂ∫¶
 713              		.loc 1 169 2 is_stmt 1 view .LVU171
 169:Core/Src/Main/Interrupt.c **** 		flashFloatLog(&run_log, current->X, current->Y, current->Angle); //‰ΩçÁΩÆ„Å®ËßíÂ∫¶
 714              		.loc 1 169 12 is_stmt 0 view .LVU172
 715 009e C14B     		ldr	r3, .L23+12
 716 00a0 1B78     		ldrb	r3, [r3]	@ zero_extendqisi2
 169:Core/Src/Main/Interrupt.c **** 		flashFloatLog(&run_log, current->X, current->Y, current->Angle); //‰ΩçÁΩÆ„Å®ËßíÂ∫¶
 717              		.loc 1 169 4 view .LVU173
 718 00a2 002B     		cmp	r3, #0
 719 00a4 40F06D81 		bne	.L22
 720              	.L20:
 175:Core/Src/Main/Interrupt.c **** 	next->Ang_V += target->AngularAcceleration;
 721              		.loc 1 175 2 is_stmt 1 view .LVU174
 175:Core/Src/Main/Interrupt.c **** 	next->Ang_V += target->AngularAcceleration;
 722              		.loc 1 175 26 is_stmt 0 view .LVU175
 723 00a8 DBED0B7A 		vldr.32	s15, [fp, #44]
 175:Core/Src/Main/Interrupt.c **** 	next->Ang_V += target->AngularAcceleration;
 724              		.loc 1 175 17 view .LVU176
 725 00ac 9AED037A 		vldr.32	s14, [r10, #12]
 726 00b0 77EE877A 		vadd.f32	s15, s15, s14
 727 00b4 CAED037A 		vstr.32	s15, [r10, #12]
 176:Core/Src/Main/Interrupt.c **** 	next->Angle += (next->Ang_V *T1);
 728              		.loc 1 176 2 is_stmt 1 view .LVU177
 176:Core/Src/Main/Interrupt.c **** 	next->Angle += (next->Ang_V *T1);
 729              		.loc 1 176 23 is_stmt 0 view .LVU178
 730 00b8 9BED0C8A 		vldr.32	s16, [fp, #48]
 176:Core/Src/Main/Interrupt.c **** 	next->Angle += (next->Ang_V *T1);
 731              		.loc 1 176 14 view .LVU179
 732 00bc 9AED047A 		vldr.32	s14, [r10, #16]
 733 00c0 38EE078A 		vadd.f32	s16, s16, s14
 734 00c4 8AED048A 		vstr.32	s16, [r10, #16]
 177:Core/Src/Main/Interrupt.c **** 	next->X += next->Velocity * T1 * cos(next->Angle); // rad„Åã„ÉÅ„Çß„ÉÉ„ÇØ
 735              		.loc 1 177 2 is_stmt 1 view .LVU180
 177:Core/Src/Main/Interrupt.c **** 	next->X += next->Velocity * T1 * cos(next->Angle); // rad„Åã„ÉÅ„Çß„ÉÉ„ÇØ
 736              		.loc 1 177 30 is_stmt 0 view .LVU181
 737 00c8 9FEDB57A 		vldr.32	s14, .L23+8
 738 00cc 28EE078A 		vmul.f32	s16, s16, s14
 177:Core/Src/Main/Interrupt.c **** 	next->X += next->Velocity * T1 * cos(next->Angle); // rad„Åã„ÉÅ„Çß„ÉÉ„ÇØ
 739              		.loc 1 177 14 view .LVU182
 740 00d0 DAED026A 		vldr.32	s13, [r10, #8]
ARM GAS  C:\Users\leopi\AppData\Local\Temp\ccoicnCl.s 			page 22


 741 00d4 38EE268A 		vadd.f32	s16, s16, s13
 742 00d8 8AED028A 		vstr.32	s16, [r10, #8]
 178:Core/Src/Main/Interrupt.c **** 	next->Y += next->Velocity * T1 * sin(next->Angle);
 743              		.loc 1 178 2 is_stmt 1 view .LVU183
 178:Core/Src/Main/Interrupt.c **** 	next->Y += next->Velocity * T1 * sin(next->Angle);
 744              		.loc 1 178 28 is_stmt 0 view .LVU184
 745 00dc 67EE877A 		vmul.f32	s15, s15, s14
 746 00e0 17EE900A 		vmov	r0, s15
 747 00e4 FFF7FEFF 		bl	__aeabi_f2d
 748              	.LVL77:
 749 00e8 0446     		mov	r4, r0
 750 00ea 0D46     		mov	r5, r1
 178:Core/Src/Main/Interrupt.c **** 	next->Y += next->Velocity * T1 * sin(next->Angle);
 751              		.loc 1 178 35 view .LVU185
 752 00ec 18EE100A 		vmov	r0, s16
 753 00f0 FFF7FEFF 		bl	__aeabi_f2d
 754              	.LVL78:
 755 00f4 41EC1A0B 		vmov	d10, r0, r1
 756 00f8 41EC100B 		vmov	d0, r0, r1
 757 00fc FFF7FEFF 		bl	cos
 758              	.LVL79:
 759 0100 53EC102B 		vmov	r2, r3, d0
 178:Core/Src/Main/Interrupt.c **** 	next->Y += next->Velocity * T1 * sin(next->Angle);
 760              		.loc 1 178 33 view .LVU186
 761 0104 2046     		mov	r0, r4
 762 0106 2946     		mov	r1, r5
 763 0108 FFF7FEFF 		bl	__aeabi_dmul
 764              	.LVL80:
 765 010c 0646     		mov	r6, r0
 766 010e 0F46     		mov	r7, r1
 178:Core/Src/Main/Interrupt.c **** 	next->Y += next->Velocity * T1 * sin(next->Angle);
 767              		.loc 1 178 10 view .LVU187
 768 0110 DAF80000 		ldr	r0, [r10]	@ float
 769 0114 FFF7FEFF 		bl	__aeabi_f2d
 770              	.LVL81:
 771 0118 3246     		mov	r2, r6
 772 011a 3B46     		mov	r3, r7
 773 011c FFF7FEFF 		bl	__aeabi_dadd
 774              	.LVL82:
 775 0120 FFF7FEFF 		bl	__aeabi_d2f
 776              	.LVL83:
 777 0124 09EE100A 		vmov	s18, r0
 778 0128 CAF80000 		str	r0, [r10]	@ float
 179:Core/Src/Main/Interrupt.c **** 	
 779              		.loc 1 179 2 is_stmt 1 view .LVU188
 179:Core/Src/Main/Interrupt.c **** 	
 780              		.loc 1 179 35 is_stmt 0 view .LVU189
 781 012c B0EE4A0A 		vmov.f32	s0, s20
 782 0130 F0EE6A0A 		vmov.f32	s1, s21
 783 0134 FFF7FEFF 		bl	sin
 784              	.LVL84:
 785 0138 53EC102B 		vmov	r2, r3, d0
 179:Core/Src/Main/Interrupt.c **** 	
 786              		.loc 1 179 33 view .LVU190
 787 013c 2046     		mov	r0, r4
 788 013e 2946     		mov	r1, r5
 789 0140 FFF7FEFF 		bl	__aeabi_dmul
ARM GAS  C:\Users\leopi\AppData\Local\Temp\ccoicnCl.s 			page 23


 790              	.LVL85:
 791 0144 0446     		mov	r4, r0
 792 0146 0D46     		mov	r5, r1
 179:Core/Src/Main/Interrupt.c **** 	
 793              		.loc 1 179 10 view .LVU191
 794 0148 DAF80400 		ldr	r0, [r10, #4]	@ float
 795 014c FFF7FEFF 		bl	__aeabi_f2d
 796              	.LVL86:
 797 0150 2246     		mov	r2, r4
 798 0152 2B46     		mov	r3, r5
 799 0154 FFF7FEFF 		bl	__aeabi_dadd
 800              	.LVL87:
 801 0158 FFF7FEFF 		bl	__aeabi_d2f
 802              	.LVL88:
 803 015c 08EE900A 		vmov	s17, r0
 804 0160 CAF80400 		str	r0, [r10, #4]	@ float
 181:Core/Src/Main/Interrupt.c **** 	x_e = ((next->X-current->X)*cos(current->Angle)) + ((next->Y-current->Y)*sin(current->Angle));
 805              		.loc 1 181 2 is_stmt 1 view .LVU192
 806              	.LVL89:
 182:Core/Src/Main/Interrupt.c **** 	y_e = ((next->X-current->X)*-sin(current->Angle)) + ((next->Y-current->Y)*cos(current->Angle));
 807              		.loc 1 182 2 view .LVU193
 182:Core/Src/Main/Interrupt.c **** 	y_e = ((next->X-current->X)*-sin(current->Angle)) + ((next->Y-current->Y)*cos(current->Angle));
 808              		.loc 1 182 25 is_stmt 0 view .LVU194
 809 0164 D8ED047A 		vldr.32	s15, [r8, #16]
 182:Core/Src/Main/Interrupt.c **** 	y_e = ((next->X-current->X)*-sin(current->Angle)) + ((next->Y-current->Y)*cos(current->Angle));
 810              		.loc 1 182 17 view .LVU195
 811 0168 79EE677A 		vsub.f32	s15, s18, s15
 812 016c 17EE900A 		vmov	r0, s15
 813 0170 FFF7FEFF 		bl	__aeabi_f2d
 814              	.LVL90:
 815 0174 0446     		mov	r4, r0
 816 0176 0D46     		mov	r5, r1
 182:Core/Src/Main/Interrupt.c **** 	y_e = ((next->X-current->X)*-sin(current->Angle)) + ((next->Y-current->Y)*cos(current->Angle));
 817              		.loc 1 182 41 view .LVU196
 818 0178 D8ED06AA 		vldr.32	s21, [r8, #24]
 182:Core/Src/Main/Interrupt.c **** 	y_e = ((next->X-current->X)*-sin(current->Angle)) + ((next->Y-current->Y)*cos(current->Angle));
 819              		.loc 1 182 30 view .LVU197
 820 017c 1AEE900A 		vmov	r0, s21
 821 0180 FFF7FEFF 		bl	__aeabi_f2d
 822              	.LVL91:
 823 0184 41EC190B 		vmov	d9, r0, r1
 824 0188 41EC100B 		vmov	d0, r0, r1
 825 018c FFF7FEFF 		bl	cos
 826              	.LVL92:
 827 0190 53EC102B 		vmov	r2, r3, d0
 182:Core/Src/Main/Interrupt.c **** 	y_e = ((next->X-current->X)*-sin(current->Angle)) + ((next->Y-current->Y)*cos(current->Angle));
 828              		.loc 1 182 29 view .LVU198
 829 0194 8DED000B 		vstr.64	d0, [sp]
 830 0198 2046     		mov	r0, r4
 831 019a 2946     		mov	r1, r5
 832 019c FFF7FEFF 		bl	__aeabi_dmul
 833              	.LVL93:
 834 01a0 CDE90201 		strd	r0, [sp, #8]
 182:Core/Src/Main/Interrupt.c **** 	y_e = ((next->X-current->X)*-sin(current->Angle)) + ((next->Y-current->Y)*cos(current->Angle));
 835              		.loc 1 182 70 view .LVU199
 836 01a4 D8ED057A 		vldr.32	s15, [r8, #20]
 182:Core/Src/Main/Interrupt.c **** 	y_e = ((next->X-current->X)*-sin(current->Angle)) + ((next->Y-current->Y)*cos(current->Angle));
ARM GAS  C:\Users\leopi\AppData\Local\Temp\ccoicnCl.s 			page 24


 837              		.loc 1 182 62 view .LVU200
 838 01a8 78EEE77A 		vsub.f32	s15, s17, s15
 839 01ac 17EE900A 		vmov	r0, s15
 840 01b0 FFF7FEFF 		bl	__aeabi_f2d
 841              	.LVL94:
 842 01b4 0646     		mov	r6, r0
 843 01b6 0F46     		mov	r7, r1
 182:Core/Src/Main/Interrupt.c **** 	y_e = ((next->X-current->X)*-sin(current->Angle)) + ((next->Y-current->Y)*cos(current->Angle));
 844              		.loc 1 182 75 view .LVU201
 845 01b8 B0EE490A 		vmov.f32	s0, s18
 846 01bc F0EE690A 		vmov.f32	s1, s19
 847 01c0 FFF7FEFF 		bl	sin
 848              	.LVL95:
 849 01c4 59EC108B 		vmov	r8, r9, d0
 850              	.LVL96:
 182:Core/Src/Main/Interrupt.c **** 	y_e = ((next->X-current->X)*-sin(current->Angle)) + ((next->Y-current->Y)*cos(current->Angle));
 851              		.loc 1 182 74 view .LVU202
 852 01c8 10EE102A 		vmov	r2, s0	@ int
 853 01cc 4B46     		mov	r3, r9
 854 01ce 3046     		mov	r0, r6
 855 01d0 3946     		mov	r1, r7
 856 01d2 FFF7FEFF 		bl	__aeabi_dmul
 857              	.LVL97:
 858 01d6 0246     		mov	r2, r0
 859 01d8 0B46     		mov	r3, r1
 182:Core/Src/Main/Interrupt.c **** 	y_e = ((next->X-current->X)*-sin(current->Angle)) + ((next->Y-current->Y)*cos(current->Angle));
 860              		.loc 1 182 51 view .LVU203
 861 01da DDE90201 		ldrd	r0, [sp, #8]
 862 01de FFF7FEFF 		bl	__aeabi_dadd
 863              	.LVL98:
 182:Core/Src/Main/Interrupt.c **** 	y_e = ((next->X-current->X)*-sin(current->Angle)) + ((next->Y-current->Y)*cos(current->Angle));
 864              		.loc 1 182 6 view .LVU204
 865 01e2 FFF7FEFF 		bl	__aeabi_d2f
 866              	.LVL99:
 867 01e6 0BEE100A 		vmov	s22, r0
 868              	.LVL100:
 183:Core/Src/Main/Interrupt.c **** 	ang_e = next->Angle-(current->Angle);
 869              		.loc 1 183 2 is_stmt 1 view .LVU205
 183:Core/Src/Main/Interrupt.c **** 	ang_e = next->Angle-(current->Angle);
 870              		.loc 1 183 30 is_stmt 0 view .LVU206
 871 01ea 4246     		mov	r2, r8
 872 01ec 09F10043 		add	r3, r9, #-2147483648
 183:Core/Src/Main/Interrupt.c **** 	ang_e = next->Angle-(current->Angle);
 873              		.loc 1 183 29 view .LVU207
 874 01f0 2046     		mov	r0, r4
 875              	.LVL101:
 183:Core/Src/Main/Interrupt.c **** 	ang_e = next->Angle-(current->Angle);
 876              		.loc 1 183 29 view .LVU208
 877 01f2 2946     		mov	r1, r5
 878 01f4 FFF7FEFF 		bl	__aeabi_dmul
 879              	.LVL102:
 880 01f8 0446     		mov	r4, r0
 881 01fa 0D46     		mov	r5, r1
 183:Core/Src/Main/Interrupt.c **** 	ang_e = next->Angle-(current->Angle);
 882              		.loc 1 183 75 view .LVU209
 883 01fc 3246     		mov	r2, r6
 884 01fe 3B46     		mov	r3, r7
ARM GAS  C:\Users\leopi\AppData\Local\Temp\ccoicnCl.s 			page 25


 885 0200 DDE90001 		ldrd	r0, [sp]
 886 0204 FFF7FEFF 		bl	__aeabi_dmul
 887              	.LVL103:
 888 0208 0246     		mov	r2, r0
 889 020a 0B46     		mov	r3, r1
 183:Core/Src/Main/Interrupt.c **** 	ang_e = next->Angle-(current->Angle);
 890              		.loc 1 183 52 view .LVU210
 891 020c 2046     		mov	r0, r4
 892 020e 2946     		mov	r1, r5
 893 0210 FFF7FEFF 		bl	__aeabi_dadd
 894              	.LVL104:
 183:Core/Src/Main/Interrupt.c **** 	ang_e = next->Angle-(current->Angle);
 895              		.loc 1 183 6 view .LVU211
 896 0214 FFF7FEFF 		bl	__aeabi_d2f
 897              	.LVL105:
 898 0218 0AEE100A 		vmov	s20, r0
 899              	.LVL106:
 184:Core/Src/Main/Interrupt.c **** 
 900              		.loc 1 184 2 is_stmt 1 view .LVU212
 184:Core/Src/Main/Interrupt.c **** 
 901              		.loc 1 184 8 is_stmt 0 view .LVU213
 902 021c 38EE6A8A 		vsub.f32	s16, s16, s21
 903              	.LVL107:
 187:Core/Src/Main/Interrupt.c **** 	float r_wall_out = 0;
 904              		.loc 1 187 2 is_stmt 1 view .LVU214
 188:Core/Src/Main/Interrupt.c **** 	l_wall_out = 0.0001*M_PI*(float)(PIDGetFlag(L_WALL_PID)*(PIDControl(L_WALL_PID, Target.Photo[SL], 
 905              		.loc 1 188 2 view .LVU215
 189:Core/Src/Main/Interrupt.c **** 	r_wall_out = 0.0001*M_PI*(float)(PIDGetFlag(R_WALL_PID)*(PIDControl(R_WALL_PID, Target.Photo[SIDE_
 906              		.loc 1 189 2 view .LVU216
 189:Core/Src/Main/Interrupt.c **** 	r_wall_out = 0.0001*M_PI*(float)(PIDGetFlag(R_WALL_PID)*(PIDControl(R_WALL_PID, Target.Photo[SIDE_
 907              		.loc 1 189 35 is_stmt 0 view .LVU217
 908 0220 0220     		movs	r0, #2
 909              	.LVL108:
 189:Core/Src/Main/Interrupt.c **** 	r_wall_out = 0.0001*M_PI*(float)(PIDGetFlag(R_WALL_PID)*(PIDControl(R_WALL_PID, Target.Photo[SIDE_
 910              		.loc 1 189 35 view .LVU218
 911 0222 FFF7FEFF 		bl	PIDGetFlag
 912              	.LVL109:
 913 0226 0446     		mov	r4, r0
 189:Core/Src/Main/Interrupt.c **** 	r_wall_out = 0.0001*M_PI*(float)(PIDGetFlag(R_WALL_PID)*(PIDControl(R_WALL_PID, Target.Photo[SIDE_
 914              		.loc 1 189 59 view .LVU219
 915 0228 5F4E     		ldr	r6, .L23+16
 916 022a 96ED090A 		vldr.32	s0, [r6, #36]
 917 022e 5F4D     		ldr	r5, .L23+20
 918 0230 D5ED090A 		vldr.32	s1, [r5, #36]
 919 0234 0220     		movs	r0, #2
 920 0236 FFF7FEFF 		bl	PIDControl
 921              	.LVL110:
 189:Core/Src/Main/Interrupt.c **** 	r_wall_out = 0.0001*M_PI*(float)(PIDGetFlag(R_WALL_PID)*(PIDControl(R_WALL_PID, Target.Photo[SIDE_
 922              		.loc 1 189 57 view .LVU220
 923 023a 04FB00F0 		mul	r0, r4, r0
 189:Core/Src/Main/Interrupt.c **** 	r_wall_out = 0.0001*M_PI*(float)(PIDGetFlag(R_WALL_PID)*(PIDControl(R_WALL_PID, Target.Photo[SIDE_
 924              		.loc 1 189 27 view .LVU221
 925 023e 07EE900A 		vmov	s15, r0	@ int
 926 0242 F8EEE77A 		vcvt.f32.s32	s15, s15
 927 0246 17EE900A 		vmov	r0, s15
 928 024a FFF7FEFF 		bl	__aeabi_f2d
 929              	.LVL111:
ARM GAS  C:\Users\leopi\AppData\Local\Temp\ccoicnCl.s 			page 26


 189:Core/Src/Main/Interrupt.c **** 	r_wall_out = 0.0001*M_PI*(float)(PIDGetFlag(R_WALL_PID)*(PIDControl(R_WALL_PID, Target.Photo[SIDE_
 930              		.loc 1 189 26 view .LVU222
 931 024e 52A3     		adr	r3, .L23
 932 0250 D3E90023 		ldrd	r2, [r3]
 933 0254 FFF7FEFF 		bl	__aeabi_dmul
 934              	.LVL112:
 189:Core/Src/Main/Interrupt.c **** 	r_wall_out = 0.0001*M_PI*(float)(PIDGetFlag(R_WALL_PID)*(PIDControl(R_WALL_PID, Target.Photo[SIDE_
 935              		.loc 1 189 13 view .LVU223
 936 0258 FFF7FEFF 		bl	__aeabi_d2f
 937              	.LVL113:
 938 025c 08EE900A 		vmov	s17, r0
 939              	.LVL114:
 190:Core/Src/Main/Interrupt.c **** 
 940              		.loc 1 190 2 is_stmt 1 view .LVU224
 190:Core/Src/Main/Interrupt.c **** 
 941              		.loc 1 190 35 is_stmt 0 view .LVU225
 942 0260 0320     		movs	r0, #3
 943              	.LVL115:
 190:Core/Src/Main/Interrupt.c **** 
 944              		.loc 1 190 35 view .LVU226
 945 0262 FFF7FEFF 		bl	PIDGetFlag
 946              	.LVL116:
 947 0266 0446     		mov	r4, r0
 190:Core/Src/Main/Interrupt.c **** 
 948              		.loc 1 190 59 view .LVU227
 949 0268 96ED080A 		vldr.32	s0, [r6, #32]
 950 026c D5ED080A 		vldr.32	s1, [r5, #32]
 951 0270 0320     		movs	r0, #3
 952 0272 FFF7FEFF 		bl	PIDControl
 953              	.LVL117:
 190:Core/Src/Main/Interrupt.c **** 
 954              		.loc 1 190 57 view .LVU228
 955 0276 04FB00F0 		mul	r0, r4, r0
 190:Core/Src/Main/Interrupt.c **** 
 956              		.loc 1 190 27 view .LVU229
 957 027a 07EE900A 		vmov	s15, r0	@ int
 958 027e F8EEE77A 		vcvt.f32.s32	s15, s15
 959 0282 17EE900A 		vmov	r0, s15
 960 0286 FFF7FEFF 		bl	__aeabi_f2d
 961              	.LVL118:
 190:Core/Src/Main/Interrupt.c **** 
 962              		.loc 1 190 26 view .LVU230
 963 028a 43A3     		adr	r3, .L23
 964 028c D3E90023 		ldrd	r2, [r3]
 965 0290 FFF7FEFF 		bl	__aeabi_dmul
 966              	.LVL119:
 190:Core/Src/Main/Interrupt.c **** 
 967              		.loc 1 190 13 view .LVU231
 968 0294 FFF7FEFF 		bl	__aeabi_d2f
 969              	.LVL120:
 970 0298 0AEE900A 		vmov	s21, r0
 971              	.LVL121:
 192:Core/Src/Main/Interrupt.c **** 	target->AngularV = l_wall_out - r_wall_out + next->Ang_V + (next->Velocity*((next->Ky*y_e) + (next
 972              		.loc 1 192 2 is_stmt 1 view .LVU232
 192:Core/Src/Main/Interrupt.c **** 	target->AngularV = l_wall_out - r_wall_out + next->Ang_V + (next->Velocity*((next->Ky*y_e) + (next
 973              		.loc 1 192 32 is_stmt 0 view .LVU233
 974 029c DAF80C00 		ldr	r0, [r10, #12]	@ float
ARM GAS  C:\Users\leopi\AppData\Local\Temp\ccoicnCl.s 			page 27


 975              	.LVL122:
 192:Core/Src/Main/Interrupt.c **** 	target->AngularV = l_wall_out - r_wall_out + next->Ang_V + (next->Velocity*((next->Ky*y_e) + (next
 976              		.loc 1 192 32 view .LVU234
 977 02a0 FFF7FEFF 		bl	__aeabi_f2d
 978              	.LVL123:
 979 02a4 0446     		mov	r4, r0
 980 02a6 0D46     		mov	r5, r1
 192:Core/Src/Main/Interrupt.c **** 	target->AngularV = l_wall_out - r_wall_out + next->Ang_V + (next->Velocity*((next->Ky*y_e) + (next
 981              		.loc 1 192 43 view .LVU235
 982 02a8 18EE100A 		vmov	r0, s16
 983 02ac FFF7FEFF 		bl	__aeabi_f2d
 984              	.LVL124:
 985 02b0 41EC190B 		vmov	d9, r0, r1
 986 02b4 41EC100B 		vmov	d0, r0, r1
 987 02b8 FFF7FEFF 		bl	cos
 988              	.LVL125:
 989 02bc 53EC102B 		vmov	r2, r3, d0
 192:Core/Src/Main/Interrupt.c **** 	target->AngularV = l_wall_out - r_wall_out + next->Ang_V + (next->Velocity*((next->Ky*y_e) + (next
 990              		.loc 1 192 42 view .LVU236
 991 02c0 2046     		mov	r0, r4
 992 02c2 2946     		mov	r1, r5
 993 02c4 FFF7FEFF 		bl	__aeabi_dmul
 994              	.LVL126:
 995 02c8 0446     		mov	r4, r0
 996 02ca 0D46     		mov	r5, r1
 192:Core/Src/Main/Interrupt.c **** 	target->AngularV = l_wall_out - r_wall_out + next->Ang_V + (next->Velocity*((next->Ky*y_e) + (next
 997              		.loc 1 192 62 view .LVU237
 998 02cc DAED057A 		vldr.32	s15, [r10, #20]
 192:Core/Src/Main/Interrupt.c **** 	target->AngularV = l_wall_out - r_wall_out + next->Ang_V + (next->Velocity*((next->Ky*y_e) + (next
 999              		.loc 1 192 66 view .LVU238
 1000 02d0 67EE8B7A 		vmul.f32	s15, s15, s22
 1001 02d4 17EE900A 		vmov	r0, s15
 1002 02d8 FFF7FEFF 		bl	__aeabi_f2d
 1003              	.LVL127:
 1004 02dc 0246     		mov	r2, r0
 1005 02de 0B46     		mov	r3, r1
 192:Core/Src/Main/Interrupt.c **** 	target->AngularV = l_wall_out - r_wall_out + next->Ang_V + (next->Velocity*((next->Ky*y_e) + (next
 1006              		.loc 1 192 55 view .LVU239
 1007 02e0 2046     		mov	r0, r4
 1008 02e2 2946     		mov	r1, r5
 1009 02e4 FFF7FEFF 		bl	__aeabi_dadd
 1010              	.LVL128:
 1011 02e8 FFF7FEFF 		bl	__aeabi_d2f
 1012              	.LVL129:
 192:Core/Src/Main/Interrupt.c **** 	target->AngularV = l_wall_out - r_wall_out + next->Ang_V + (next->Velocity*((next->Ky*y_e) + (next
 1013              		.loc 1 192 25 view .LVU240
 1014 02ec CBF80800 		str	r0, [fp, #8]	@ float
 193:Core/Src/Main/Interrupt.c **** 
 1015              		.loc 1 193 2 is_stmt 1 view .LVU241
 193:Core/Src/Main/Interrupt.c **** 
 1016              		.loc 1 193 32 is_stmt 0 view .LVU242
 1017 02f0 78EEEA8A 		vsub.f32	s17, s17, s21
 1018              	.LVL130:
 193:Core/Src/Main/Interrupt.c **** 
 1019              		.loc 1 193 51 view .LVU243
 1020 02f4 DAED047A 		vldr.32	s15, [r10, #16]
 193:Core/Src/Main/Interrupt.c **** 
ARM GAS  C:\Users\leopi\AppData\Local\Temp\ccoicnCl.s 			page 28


 1021              		.loc 1 193 45 view .LVU244
 1022 02f8 78EEA77A 		vadd.f32	s15, s17, s15
 1023 02fc 17EE900A 		vmov	r0, s15
 1024 0300 FFF7FEFF 		bl	__aeabi_f2d
 1025              	.LVL131:
 1026 0304 0446     		mov	r4, r0
 1027 0306 0D46     		mov	r5, r1
 193:Core/Src/Main/Interrupt.c **** 
 1028              		.loc 1 193 66 view .LVU245
 1029 0308 DAF80C00 		ldr	r0, [r10, #12]	@ float
 1030 030c FFF7FEFF 		bl	__aeabi_f2d
 1031              	.LVL132:
 1032 0310 0646     		mov	r6, r0
 1033 0312 0F46     		mov	r7, r1
 193:Core/Src/Main/Interrupt.c **** 
 1034              		.loc 1 193 83 view .LVU246
 1035 0314 DAED067A 		vldr.32	s15, [r10, #24]
 193:Core/Src/Main/Interrupt.c **** 
 1036              		.loc 1 193 87 view .LVU247
 1037 0318 67EE8A7A 		vmul.f32	s15, s15, s20
 1038 031c 17EE900A 		vmov	r0, s15
 1039 0320 FFF7FEFF 		bl	__aeabi_f2d
 1040              	.LVL133:
 1041 0324 8046     		mov	r8, r0
 1042 0326 8946     		mov	r9, r1
 193:Core/Src/Main/Interrupt.c **** 
 1043              		.loc 1 193 100 view .LVU248
 1044 0328 DAF81C00 		ldr	r0, [r10, #28]	@ float
 1045 032c FFF7FEFF 		bl	__aeabi_f2d
 1046              	.LVL134:
 1047 0330 CDE90001 		strd	r0, [sp]
 193:Core/Src/Main/Interrupt.c **** 
 1048              		.loc 1 193 109 view .LVU249
 1049 0334 B0EE490A 		vmov.f32	s0, s18
 1050 0338 F0EE690A 		vmov.f32	s1, s19
 1051 033c FFF7FEFF 		bl	sin
 1052              	.LVL135:
 1053 0340 53EC102B 		vmov	r2, r3, d0
 193:Core/Src/Main/Interrupt.c **** 
 1054              		.loc 1 193 108 view .LVU250
 1055 0344 DDE90001 		ldrd	r0, [sp]
 1056 0348 FFF7FEFF 		bl	__aeabi_dmul
 1057              	.LVL136:
 1058 034c 0246     		mov	r2, r0
 1059 034e 0B46     		mov	r3, r1
 193:Core/Src/Main/Interrupt.c **** 
 1060              		.loc 1 193 93 view .LVU251
 1061 0350 4046     		mov	r0, r8
 1062 0352 4946     		mov	r1, r9
 1063 0354 FFF7FEFF 		bl	__aeabi_dadd
 1064              	.LVL137:
 1065 0358 0246     		mov	r2, r0
 1066 035a 0B46     		mov	r3, r1
 193:Core/Src/Main/Interrupt.c **** 
 1067              		.loc 1 193 76 view .LVU252
 1068 035c 3046     		mov	r0, r6
 1069 035e 3946     		mov	r1, r7
ARM GAS  C:\Users\leopi\AppData\Local\Temp\ccoicnCl.s 			page 29


 1070 0360 FFF7FEFF 		bl	__aeabi_dmul
 1071              	.LVL138:
 1072 0364 0246     		mov	r2, r0
 1073 0366 0B46     		mov	r3, r1
 193:Core/Src/Main/Interrupt.c **** 
 1074              		.loc 1 193 59 view .LVU253
 1075 0368 2046     		mov	r0, r4
 1076 036a 2946     		mov	r1, r5
 1077 036c FFF7FEFF 		bl	__aeabi_dadd
 1078              	.LVL139:
 1079 0370 FFF7FEFF 		bl	__aeabi_d2f
 1080              	.LVL140:
 193:Core/Src/Main/Interrupt.c **** 
 1081              		.loc 1 193 19 view .LVU254
 1082 0374 CBF80C00 		str	r0, [fp, #12]	@ float
 196:Core/Src/Main/Interrupt.c **** static void Kanayama_IT(){
 1083              		.loc 1 196 1 view .LVU255
 1084 0378 05B0     		add	sp, sp, #20
 1085              	.LCFI7:
 1086              		.cfi_remember_state
 1087              		.cfi_def_cfa_offset 68
 1088              		@ sp needed
 1089 037a BDEC088B 		vldm	sp!, {d8-d11}
 1090              	.LCFI8:
 1091              		.cfi_restore 86
 1092              		.cfi_restore 87
 1093              		.cfi_restore 84
 1094              		.cfi_restore 85
 1095              		.cfi_restore 82
 1096              		.cfi_restore 83
 1097              		.cfi_restore 80
 1098              		.cfi_restore 81
 1099              		.cfi_def_cfa_offset 36
 1100              	.LVL141:
 196:Core/Src/Main/Interrupt.c **** static void Kanayama_IT(){
 1101              		.loc 1 196 1 view .LVU256
 1102 037e BDE8F08F 		pop	{r4, r5, r6, r7, r8, r9, r10, fp, pc}
 1103              	.LVL142:
 1104              	.L22:
 1105              	.LCFI9:
 1106              		.cfi_restore_state
 196:Core/Src/Main/Interrupt.c **** static void Kanayama_IT(){
 1107              		.loc 1 196 1 view .LVU257
 1108 0382 00EE900A 		vmov	s1, r0
 170:Core/Src/Main/Interrupt.c **** 	
 1109              		.loc 1 170 3 is_stmt 1 view .LVU258
 1110 0386 01EE109A 		vmov	s2, r9
 1111 038a B0EE490A 		vmov.f32	s0, s18
 1112 038e 0548     		ldr	r0, .L23+12
 1113 0390 FFF7FEFF 		bl	flashFloatLog
 1114              	.LVL143:
 1115 0394 88E6     		b	.L20
 1116              	.L24:
 1117 0396 00BF     		.align	3
 1118              	.L23:
 1119 0398 025B3CC5 		.word	-985900286
 1120 039c B796343F 		.word	1060411063
ARM GAS  C:\Users\leopi\AppData\Local\Temp\ccoicnCl.s 			page 30


 1121 03a0 6F12833A 		.word	981668463
 1122 03a4 00000000 		.word	.LANCHOR3
 1123 03a8 00000000 		.word	Target
 1124 03ac 00000000 		.word	Current
 1125              		.cfi_endproc
 1126              	.LFE241:
 1128              		.section	.text.ControlTest_IT,"ax",%progbits
 1129              		.align	1
 1130              		.syntax unified
 1131              		.thumb
 1132              		.thumb_func
 1134              	ControlTest_IT:
 1135              	.LFB240:
  98:Core/Src/Main/Interrupt.c **** 
 1136              		.loc 1 98 29 view -0
 1137              		.cfi_startproc
 1138              		@ args = 0, pretend = 0, frame = 0
 1139              		@ frame_needed = 0, uses_anonymous_args = 0
 1140 0000 F8B5     		push	{r3, r4, r5, r6, r7, lr}
 1141              	.LCFI10:
 1142              		.cfi_def_cfa_offset 24
 1143              		.cfi_offset 3, -24
 1144              		.cfi_offset 4, -20
 1145              		.cfi_offset 5, -16
 1146              		.cfi_offset 6, -12
 1147              		.cfi_offset 7, -8
 1148              		.cfi_offset 14, -4
 100:Core/Src/Main/Interrupt.c **** 	// getFloatLog(&log_velocity, Current.Velocity[BODY]);
 1149              		.loc 1 100 2 view .LVU260
 1150              	.LBB8:
 1151              	.LBI8:
  45:Core/Src/Main/Interrupt.c **** 	PulseDisplacement[LEFT] = - (TIM3->CNT - INITIAL_PULSE);
 1152              		.loc 1 45 13 view .LVU261
 1153              	.LBB9:
  46:Core/Src/Main/Interrupt.c **** 	TIM3->CNT = INITIAL_PULSE;
 1154              		.loc 1 46 2 view .LVU262
  46:Core/Src/Main/Interrupt.c **** 	TIM3->CNT = INITIAL_PULSE;
 1155              		.loc 1 46 35 is_stmt 0 view .LVU263
 1156 0002 424A     		ldr	r2, .L27
 1157 0004 516A     		ldr	r1, [r2, #36]
  46:Core/Src/Main/Interrupt.c **** 	TIM3->CNT = INITIAL_PULSE;
 1158              		.loc 1 46 28 view .LVU264
 1159 0006 47F22F53 		movw	r3, #29999
 1160 000a 591A     		subs	r1, r3, r1
  46:Core/Src/Main/Interrupt.c **** 	TIM3->CNT = INITIAL_PULSE;
 1161              		.loc 1 46 26 view .LVU265
 1162 000c 404C     		ldr	r4, .L27+4
 1163 000e 2160     		str	r1, [r4]
  47:Core/Src/Main/Interrupt.c **** 	PulseDisplacement[RIGHT] = - (TIM4->CNT - INITIAL_PULSE);
 1164              		.loc 1 47 2 is_stmt 1 view .LVU266
  47:Core/Src/Main/Interrupt.c **** 	PulseDisplacement[RIGHT] = - (TIM4->CNT - INITIAL_PULSE);
 1165              		.loc 1 47 12 is_stmt 0 view .LVU267
 1166 0010 5362     		str	r3, [r2, #36]
  48:Core/Src/Main/Interrupt.c **** 	TIM4->CNT = INITIAL_PULSE;
 1167              		.loc 1 48 2 is_stmt 1 view .LVU268
  48:Core/Src/Main/Interrupt.c **** 	TIM4->CNT = INITIAL_PULSE;
 1168              		.loc 1 48 36 is_stmt 0 view .LVU269
ARM GAS  C:\Users\leopi\AppData\Local\Temp\ccoicnCl.s 			page 31


 1169 0012 4048     		ldr	r0, .L27+8
 1170 0014 426A     		ldr	r2, [r0, #36]
  48:Core/Src/Main/Interrupt.c **** 	TIM4->CNT = INITIAL_PULSE;
 1171              		.loc 1 48 29 view .LVU270
 1172 0016 9A1A     		subs	r2, r3, r2
  48:Core/Src/Main/Interrupt.c **** 	TIM4->CNT = INITIAL_PULSE;
 1173              		.loc 1 48 27 view .LVU271
 1174 0018 6260     		str	r2, [r4, #4]
  49:Core/Src/Main/Interrupt.c **** 
 1175              		.loc 1 49 2 is_stmt 1 view .LVU272
  49:Core/Src/Main/Interrupt.c **** 
 1176              		.loc 1 49 12 is_stmt 0 view .LVU273
 1177 001a 4362     		str	r3, [r0, #36]
  52:Core/Src/Main/Interrupt.c **** 	Current.Velocity[RIGHT] =  (float)PulseDisplacement[RIGHT] * convert_to_velocity;
 1178              		.loc 1 52 2 is_stmt 1 view .LVU274
  52:Core/Src/Main/Interrupt.c **** 	Current.Velocity[RIGHT] =  (float)PulseDisplacement[RIGHT] * convert_to_velocity;
 1179              		.loc 1 52 28 is_stmt 0 view .LVU275
 1180 001c 07EE901A 		vmov	s15, r1	@ int
 1181 0020 B8EEE77A 		vcvt.f32.s32	s14, s15
  52:Core/Src/Main/Interrupt.c **** 	Current.Velocity[RIGHT] =  (float)PulseDisplacement[RIGHT] * convert_to_velocity;
 1182              		.loc 1 52 59 view .LVU276
 1183 0024 DFED3C6A 		vldr.32	s13, .L27+12
 1184 0028 27EE267A 		vmul.f32	s14, s14, s13
  52:Core/Src/Main/Interrupt.c **** 	Current.Velocity[RIGHT] =  (float)PulseDisplacement[RIGHT] * convert_to_velocity;
 1185              		.loc 1 52 25 view .LVU277
 1186 002c 3B4C     		ldr	r4, .L27+16
 1187 002e 84ED007A 		vstr.32	s14, [r4]
  53:Core/Src/Main/Interrupt.c **** 	Current.Velocity[BODY] = (Current.Velocity[LEFT] + Current.Velocity[RIGHT] )*0.5f;
 1188              		.loc 1 53 2 is_stmt 1 view .LVU278
  53:Core/Src/Main/Interrupt.c **** 	Current.Velocity[BODY] = (Current.Velocity[LEFT] + Current.Velocity[RIGHT] )*0.5f;
 1189              		.loc 1 53 29 is_stmt 0 view .LVU279
 1190 0032 07EE902A 		vmov	s15, r2	@ int
 1191 0036 F8EEE77A 		vcvt.f32.s32	s15, s15
  53:Core/Src/Main/Interrupt.c **** 	Current.Velocity[BODY] = (Current.Velocity[LEFT] + Current.Velocity[RIGHT] )*0.5f;
 1192              		.loc 1 53 61 view .LVU280
 1193 003a 67EEA67A 		vmul.f32	s15, s15, s13
  53:Core/Src/Main/Interrupt.c **** 	Current.Velocity[BODY] = (Current.Velocity[LEFT] + Current.Velocity[RIGHT] )*0.5f;
 1194              		.loc 1 53 26 view .LVU281
 1195 003e C4ED017A 		vstr.32	s15, [r4, #4]
  54:Core/Src/Main/Interrupt.c **** 
 1196              		.loc 1 54 2 is_stmt 1 view .LVU282
  54:Core/Src/Main/Interrupt.c **** 
 1197              		.loc 1 54 44 is_stmt 0 view .LVU283
 1198 0042 D4ED007A 		vldr.32	s15, [r4]
  54:Core/Src/Main/Interrupt.c **** 
 1199              		.loc 1 54 69 view .LVU284
 1200 0046 94ED017A 		vldr.32	s14, [r4, #4]
  54:Core/Src/Main/Interrupt.c **** 
 1201              		.loc 1 54 51 view .LVU285
 1202 004a 77EE877A 		vadd.f32	s15, s15, s14
  54:Core/Src/Main/Interrupt.c **** 
 1203              		.loc 1 54 78 view .LVU286
 1204 004e B6EE007A 		vmov.f32	s14, #5.0e-1
 1205 0052 67EE877A 		vmul.f32	s15, s15, s14
  54:Core/Src/Main/Interrupt.c **** 
 1206              		.loc 1 54 25 view .LVU287
 1207 0056 C4ED027A 		vstr.32	s15, [r4, #8]
ARM GAS  C:\Users\leopi\AppData\Local\Temp\ccoicnCl.s 			page 32


  57:Core/Src/Main/Interrupt.c **** 	TotalPulse[RIGHT] += PulseDisplacement[RIGHT];
 1208              		.loc 1 57 2 is_stmt 1 view .LVU288
  57:Core/Src/Main/Interrupt.c **** 	TotalPulse[RIGHT] += PulseDisplacement[RIGHT];
 1209              		.loc 1 57 19 is_stmt 0 view .LVU289
 1210 005a 314B     		ldr	r3, .L27+20
 1211 005c 1868     		ldr	r0, [r3]
 1212 005e 0144     		add	r1, r1, r0
 1213 0060 1960     		str	r1, [r3]
  58:Core/Src/Main/Interrupt.c **** 	TotalPulse[BODY] = TotalPulse[LEFT]+TotalPulse[RIGHT];
 1214              		.loc 1 58 2 is_stmt 1 view .LVU290
  58:Core/Src/Main/Interrupt.c **** 	TotalPulse[BODY] = TotalPulse[LEFT]+TotalPulse[RIGHT];
 1215              		.loc 1 58 20 is_stmt 0 view .LVU291
 1216 0062 5968     		ldr	r1, [r3, #4]
 1217 0064 0A44     		add	r2, r2, r1
 1218 0066 5A60     		str	r2, [r3, #4]
  59:Core/Src/Main/Interrupt.c **** }
 1219              		.loc 1 59 2 is_stmt 1 view .LVU292
  59:Core/Src/Main/Interrupt.c **** }
 1220              		.loc 1 59 31 is_stmt 0 view .LVU293
 1221 0068 1A68     		ldr	r2, [r3]
  59:Core/Src/Main/Interrupt.c **** }
 1222              		.loc 1 59 48 view .LVU294
 1223 006a 5968     		ldr	r1, [r3, #4]
  59:Core/Src/Main/Interrupt.c **** }
 1224              		.loc 1 59 37 view .LVU295
 1225 006c 0A44     		add	r2, r2, r1
  59:Core/Src/Main/Interrupt.c **** }
 1226              		.loc 1 59 19 view .LVU296
 1227 006e 9A60     		str	r2, [r3, #8]
 1228              	.LBE9:
 1229              	.LBE8:
 118:Core/Src/Main/Interrupt.c **** 	// getFloatLog(&log_velocity, AngularV);
 1230              		.loc 1 118 2 is_stmt 1 view .LVU297
 1231 0070 04F11801 		add	r1, r4, #24
 1232 0074 04F10C00 		add	r0, r4, #12
 1233 0078 FFF7FEFF 		bl	Update_IMU
 1234              	.LVL144:
 124:Core/Src/Main/Interrupt.c **** 		int ang_out=0;
 1235              		.loc 1 124 2 view .LVU298
 125:Core/Src/Main/Interrupt.c **** 
 1236              		.loc 1 125 3 view .LVU299
 128:Core/Src/Main/Interrupt.c **** 
 1237              		.loc 1 128 3 view .LVU300
 128:Core/Src/Main/Interrupt.c **** 
 1238              		.loc 1 128 13 is_stmt 0 view .LVU301
 1239 007c 294F     		ldr	r7, .L27+24
 1240 007e 97ED030A 		vldr.32	s0, [r7, #12]
 1241 0082 D4ED030A 		vldr.32	s1, [r4, #12]
 1242 0086 0020     		movs	r0, #0
 1243 0088 FFF7FEFF 		bl	PIDControl
 1244              	.LVL145:
 1245 008c 0546     		mov	r5, r0
 1246              	.LVL146:
 141:Core/Src/Main/Interrupt.c **** 		VelocityRightOut = PIDControl( R_VELO_PID, Target.Velocity[BODY], Current.Velocity[RIGHT]);
 1247              		.loc 1 141 3 is_stmt 1 view .LVU302
 141:Core/Src/Main/Interrupt.c **** 		VelocityRightOut = PIDControl( R_VELO_PID, Target.Velocity[BODY], Current.Velocity[RIGHT]);
 1248              		.loc 1 141 21 is_stmt 0 view .LVU303
ARM GAS  C:\Users\leopi\AppData\Local\Temp\ccoicnCl.s 			page 33


 1249 008e 97ED020A 		vldr.32	s0, [r7, #8]
 1250 0092 D4ED000A 		vldr.32	s1, [r4]
 1251 0096 0420     		movs	r0, #4
 1252              	.LVL147:
 141:Core/Src/Main/Interrupt.c **** 		VelocityRightOut = PIDControl( R_VELO_PID, Target.Velocity[BODY], Current.Velocity[RIGHT]);
 1253              		.loc 1 141 21 view .LVU304
 1254 0098 FFF7FEFF 		bl	PIDControl
 1255              	.LVL148:
 141:Core/Src/Main/Interrupt.c **** 		VelocityRightOut = PIDControl( R_VELO_PID, Target.Velocity[BODY], Current.Velocity[RIGHT]);
 1256              		.loc 1 141 19 view .LVU305
 1257 009c 224E     		ldr	r6, .L27+28
 1258 009e 3060     		str	r0, [r6]
 142:Core/Src/Main/Interrupt.c **** 		float battery_voltage = ADCToBatteryVoltage( adc1[2], V_SPLIT_NUM, PIN_V_MAX ,ADC_RESOLUTION );
 1259              		.loc 1 142 3 is_stmt 1 view .LVU306
 142:Core/Src/Main/Interrupt.c **** 		float battery_voltage = ADCToBatteryVoltage( adc1[2], V_SPLIT_NUM, PIN_V_MAX ,ADC_RESOLUTION );
 1260              		.loc 1 142 22 is_stmt 0 view .LVU307
 1261 00a0 97ED020A 		vldr.32	s0, [r7, #8]
 1262 00a4 D4ED010A 		vldr.32	s1, [r4, #4]
 1263 00a8 0520     		movs	r0, #5
 1264 00aa FFF7FEFF 		bl	PIDControl
 1265              	.LVL149:
 142:Core/Src/Main/Interrupt.c **** 		float battery_voltage = ADCToBatteryVoltage( adc1[2], V_SPLIT_NUM, PIN_V_MAX ,ADC_RESOLUTION );
 1266              		.loc 1 142 20 view .LVU308
 1267 00ae 1F4C     		ldr	r4, .L27+32
 1268 00b0 2060     		str	r0, [r4]
 143:Core/Src/Main/Interrupt.c **** 		float duty = 840/ battery_voltage;
 1269              		.loc 1 143 3 is_stmt 1 view .LVU309
 143:Core/Src/Main/Interrupt.c **** 		float duty = 840/ battery_voltage;
 1270              		.loc 1 143 27 is_stmt 0 view .LVU310
 1271 00b2 9FED1F1A 		vldr.32	s2, .L27+36
 1272 00b6 DFED1F0A 		vldr.32	s1, .L27+40
 1273 00ba B0EE080A 		vmov.f32	s0, #3.0e+0
 1274 00be 1E4B     		ldr	r3, .L27+44
 1275 00c0 9868     		ldr	r0, [r3, #8]
 1276 00c2 FFF7FEFF 		bl	ADCToBatteryVoltage
 1277              	.LVL150:
 144:Core/Src/Main/Interrupt.c **** 		// VelocityLeftOut = voltage_maintainer * PIDControl( L_VELO_PID, Target.Velocity[LEFT], Current.
 1278              		.loc 1 144 3 is_stmt 1 view .LVU311
 144:Core/Src/Main/Interrupt.c **** 		// VelocityLeftOut = voltage_maintainer * PIDControl( L_VELO_PID, Target.Velocity[LEFT], Current.
 1279              		.loc 1 144 9 is_stmt 0 view .LVU312
 1280 00c6 DFED1D7A 		vldr.32	s15, .L27+48
 1281 00ca 87EE807A 		vdiv.f32	s14, s15, s0
 1282              	.LVL151:
 147:Core/Src/Main/Interrupt.c **** 		VelocityRightOut = ((float)(VelocityRightOut + (ang_out* (-1)) ))* duty;
 1283              		.loc 1 147 3 is_stmt 1 view .LVU313
 147:Core/Src/Main/Interrupt.c **** 		VelocityRightOut = ((float)(VelocityRightOut + (ang_out* (-1)) ))* duty;
 1284              		.loc 1 147 46 is_stmt 0 view .LVU314
 1285 00ce 3368     		ldr	r3, [r6]
 1286 00d0 EB18     		adds	r3, r5, r3
 1287 00d2 07EE903A 		vmov	s15, r3	@ int
 147:Core/Src/Main/Interrupt.c **** 		VelocityRightOut = ((float)(VelocityRightOut + (ang_out* (-1)) ))* duty;
 1288              		.loc 1 147 22 view .LVU315
 1289 00d6 F8EEE77A 		vcvt.f32.s32	s15, s15
 147:Core/Src/Main/Interrupt.c **** 		VelocityRightOut = ((float)(VelocityRightOut + (ang_out* (-1)) ))* duty;
 1290              		.loc 1 147 58 view .LVU316
 1291 00da 67EE877A 		vmul.f32	s15, s15, s14
 147:Core/Src/Main/Interrupt.c **** 		VelocityRightOut = ((float)(VelocityRightOut + (ang_out* (-1)) ))* duty;
ARM GAS  C:\Users\leopi\AppData\Local\Temp\ccoicnCl.s 			page 34


 1292              		.loc 1 147 19 view .LVU317
 1293 00de FDEEE77A 		vcvt.s32.f32	s15, s15
 1294 00e2 17EE900A 		vmov	r0, s15	@ int
 1295 00e6 C6ED007A 		vstr.32	s15, [r6]	@ int
 148:Core/Src/Main/Interrupt.c **** 
 1296              		.loc 1 148 3 is_stmt 1 view .LVU318
 148:Core/Src/Main/Interrupt.c **** 
 1297              		.loc 1 148 48 is_stmt 0 view .LVU319
 1298 00ea 2368     		ldr	r3, [r4]
 1299 00ec 5B1B     		subs	r3, r3, r5
 1300 00ee 07EE903A 		vmov	s15, r3	@ int
 148:Core/Src/Main/Interrupt.c **** 
 1301              		.loc 1 148 23 view .LVU320
 1302 00f2 F8EEE77A 		vcvt.f32.s32	s15, s15
 148:Core/Src/Main/Interrupt.c **** 
 1303              		.loc 1 148 68 view .LVU321
 1304 00f6 67EE877A 		vmul.f32	s15, s15, s14
 148:Core/Src/Main/Interrupt.c **** 
 1305              		.loc 1 148 20 view .LVU322
 1306 00fa FDEEE77A 		vcvt.s32.f32	s15, s15
 1307 00fe 17EE901A 		vmov	r1, s15	@ int
 1308 0102 C4ED007A 		vstr.32	s15, [r4]	@ int
 160:Core/Src/Main/Interrupt.c **** }
 1309              		.loc 1 160 2 is_stmt 1 view .LVU323
 1310 0106 FFF7FEFF 		bl	Motor_Switch
 1311              	.LVL152:
 161:Core/Src/Main/Interrupt.c **** 
 1312              		.loc 1 161 1 is_stmt 0 view .LVU324
 1313 010a F8BD     		pop	{r3, r4, r5, r6, r7, pc}
 1314              	.LVL153:
 1315              	.L28:
 161:Core/Src/Main/Interrupt.c **** 
 1316              		.loc 1 161 1 view .LVU325
 1317              		.align	2
 1318              	.L27:
 1319 010c 00040040 		.word	1073742848
 1320 0110 00000000 		.word	PulseDisplacement
 1321 0114 00080040 		.word	1073743872
 1322 0118 CD77813F 		.word	1065449421
 1323 011c 00000000 		.word	Current
 1324 0120 00000000 		.word	TotalPulse
 1325 0124 00000000 		.word	Target
 1326 0128 00000000 		.word	VelocityLeftOut
 1327 012c 00000000 		.word	VelocityRightOut
 1328 0130 00008045 		.word	1166016512
 1329 0134 33335340 		.word	1079194419
 1330 0138 00000000 		.word	adc1
 1331 013c 00005244 		.word	1146224640
 1332              		.cfi_endproc
 1333              	.LFE240:
 1335              		.section	.text.WritingFree_IT,"ax",%progbits
 1336              		.align	1
 1337              		.syntax unified
 1338              		.thumb
 1339              		.thumb_func
 1341              	WritingFree_IT:
 1342              	.LFB244:
ARM GAS  C:\Users\leopi\AppData\Local\Temp\ccoicnCl.s 			page 35


 355:Core/Src/Main/Interrupt.c **** static void WritingFree_IT()
 356:Core/Src/Main/Interrupt.c **** {
 1343              		.loc 1 356 1 is_stmt 1 view -0
 1344              		.cfi_startproc
 1345              		@ args = 0, pretend = 0, frame = 0
 1346              		@ frame_needed = 0, uses_anonymous_args = 0
 1347 0000 F8B5     		push	{r3, r4, r5, r6, r7, lr}
 1348              	.LCFI11:
 1349              		.cfi_def_cfa_offset 24
 1350              		.cfi_offset 3, -24
 1351              		.cfi_offset 4, -20
 1352              		.cfi_offset 5, -16
 1353              		.cfi_offset 6, -12
 1354              		.cfi_offset 7, -8
 1355              		.cfi_offset 14, -4
 1356 0002 2DED028B 		vpush.64	{d8}
 1357              	.LCFI12:
 1358              		.cfi_def_cfa_offset 32
 1359              		.cfi_offset 80, -32
 1360              		.cfi_offset 81, -28
 357:Core/Src/Main/Interrupt.c **** 	calcVelocity();
 1361              		.loc 1 357 2 view .LVU327
 1362              	.LBB12:
 1363              	.LBI12:
  45:Core/Src/Main/Interrupt.c **** 	PulseDisplacement[LEFT] = - (TIM3->CNT - INITIAL_PULSE);
 1364              		.loc 1 45 13 view .LVU328
 1365              	.LBB13:
  46:Core/Src/Main/Interrupt.c **** 	TIM3->CNT = INITIAL_PULSE;
 1366              		.loc 1 46 2 view .LVU329
  46:Core/Src/Main/Interrupt.c **** 	TIM3->CNT = INITIAL_PULSE;
 1367              		.loc 1 46 35 is_stmt 0 view .LVU330
 1368 0006 624A     		ldr	r2, .L31+16
 1369 0008 516A     		ldr	r1, [r2, #36]
  46:Core/Src/Main/Interrupt.c **** 	TIM3->CNT = INITIAL_PULSE;
 1370              		.loc 1 46 28 view .LVU331
 1371 000a 47F22F53 		movw	r3, #29999
 1372 000e 591A     		subs	r1, r3, r1
  46:Core/Src/Main/Interrupt.c **** 	TIM3->CNT = INITIAL_PULSE;
 1373              		.loc 1 46 26 view .LVU332
 1374 0010 604C     		ldr	r4, .L31+20
 1375 0012 2160     		str	r1, [r4]
  47:Core/Src/Main/Interrupt.c **** 	PulseDisplacement[RIGHT] = - (TIM4->CNT - INITIAL_PULSE);
 1376              		.loc 1 47 2 is_stmt 1 view .LVU333
  47:Core/Src/Main/Interrupt.c **** 	PulseDisplacement[RIGHT] = - (TIM4->CNT - INITIAL_PULSE);
 1377              		.loc 1 47 12 is_stmt 0 view .LVU334
 1378 0014 5362     		str	r3, [r2, #36]
  48:Core/Src/Main/Interrupt.c **** 	TIM4->CNT = INITIAL_PULSE;
 1379              		.loc 1 48 2 is_stmt 1 view .LVU335
  48:Core/Src/Main/Interrupt.c **** 	TIM4->CNT = INITIAL_PULSE;
 1380              		.loc 1 48 36 is_stmt 0 view .LVU336
 1381 0016 6048     		ldr	r0, .L31+24
 1382 0018 426A     		ldr	r2, [r0, #36]
  48:Core/Src/Main/Interrupt.c **** 	TIM4->CNT = INITIAL_PULSE;
 1383              		.loc 1 48 29 view .LVU337
 1384 001a 9A1A     		subs	r2, r3, r2
  48:Core/Src/Main/Interrupt.c **** 	TIM4->CNT = INITIAL_PULSE;
 1385              		.loc 1 48 27 view .LVU338
ARM GAS  C:\Users\leopi\AppData\Local\Temp\ccoicnCl.s 			page 36


 1386 001c 6260     		str	r2, [r4, #4]
  49:Core/Src/Main/Interrupt.c **** 
 1387              		.loc 1 49 2 is_stmt 1 view .LVU339
  49:Core/Src/Main/Interrupt.c **** 
 1388              		.loc 1 49 12 is_stmt 0 view .LVU340
 1389 001e 4362     		str	r3, [r0, #36]
  52:Core/Src/Main/Interrupt.c **** 	Current.Velocity[RIGHT] =  (float)PulseDisplacement[RIGHT] * convert_to_velocity;
 1390              		.loc 1 52 2 is_stmt 1 view .LVU341
  52:Core/Src/Main/Interrupt.c **** 	Current.Velocity[RIGHT] =  (float)PulseDisplacement[RIGHT] * convert_to_velocity;
 1391              		.loc 1 52 28 is_stmt 0 view .LVU342
 1392 0020 07EE901A 		vmov	s15, r1	@ int
 1393 0024 B8EEE77A 		vcvt.f32.s32	s14, s15
  52:Core/Src/Main/Interrupt.c **** 	Current.Velocity[RIGHT] =  (float)PulseDisplacement[RIGHT] * convert_to_velocity;
 1394              		.loc 1 52 59 view .LVU343
 1395 0028 DFED5C6A 		vldr.32	s13, .L31+28
 1396 002c 27EE267A 		vmul.f32	s14, s14, s13
  52:Core/Src/Main/Interrupt.c **** 	Current.Velocity[RIGHT] =  (float)PulseDisplacement[RIGHT] * convert_to_velocity;
 1397              		.loc 1 52 25 view .LVU344
 1398 0030 5B4D     		ldr	r5, .L31+32
 1399 0032 85ED007A 		vstr.32	s14, [r5]
  53:Core/Src/Main/Interrupt.c **** 	Current.Velocity[BODY] = (Current.Velocity[LEFT] + Current.Velocity[RIGHT] )*0.5f;
 1400              		.loc 1 53 2 is_stmt 1 view .LVU345
  53:Core/Src/Main/Interrupt.c **** 	Current.Velocity[BODY] = (Current.Velocity[LEFT] + Current.Velocity[RIGHT] )*0.5f;
 1401              		.loc 1 53 29 is_stmt 0 view .LVU346
 1402 0036 07EE902A 		vmov	s15, r2	@ int
 1403 003a F8EEE77A 		vcvt.f32.s32	s15, s15
  53:Core/Src/Main/Interrupt.c **** 	Current.Velocity[BODY] = (Current.Velocity[LEFT] + Current.Velocity[RIGHT] )*0.5f;
 1404              		.loc 1 53 61 view .LVU347
 1405 003e 67EEA67A 		vmul.f32	s15, s15, s13
  53:Core/Src/Main/Interrupt.c **** 	Current.Velocity[BODY] = (Current.Velocity[LEFT] + Current.Velocity[RIGHT] )*0.5f;
 1406              		.loc 1 53 26 view .LVU348
 1407 0042 C5ED017A 		vstr.32	s15, [r5, #4]
  54:Core/Src/Main/Interrupt.c **** 
 1408              		.loc 1 54 2 is_stmt 1 view .LVU349
  54:Core/Src/Main/Interrupt.c **** 
 1409              		.loc 1 54 44 is_stmt 0 view .LVU350
 1410 0046 D5ED007A 		vldr.32	s15, [r5]
  54:Core/Src/Main/Interrupt.c **** 
 1411              		.loc 1 54 69 view .LVU351
 1412 004a 95ED017A 		vldr.32	s14, [r5, #4]
  54:Core/Src/Main/Interrupt.c **** 
 1413              		.loc 1 54 51 view .LVU352
 1414 004e 77EE877A 		vadd.f32	s15, s15, s14
  54:Core/Src/Main/Interrupt.c **** 
 1415              		.loc 1 54 78 view .LVU353
 1416 0052 F6EE008A 		vmov.f32	s17, #5.0e-1
 1417 0056 67EEA87A 		vmul.f32	s15, s15, s17
  54:Core/Src/Main/Interrupt.c **** 
 1418              		.loc 1 54 25 view .LVU354
 1419 005a C5ED027A 		vstr.32	s15, [r5, #8]
  57:Core/Src/Main/Interrupt.c **** 	TotalPulse[RIGHT] += PulseDisplacement[RIGHT];
 1420              		.loc 1 57 2 is_stmt 1 view .LVU355
  57:Core/Src/Main/Interrupt.c **** 	TotalPulse[RIGHT] += PulseDisplacement[RIGHT];
 1421              		.loc 1 57 19 is_stmt 0 view .LVU356
 1422 005e 514B     		ldr	r3, .L31+36
 1423 0060 1868     		ldr	r0, [r3]
 1424 0062 0144     		add	r1, r1, r0
ARM GAS  C:\Users\leopi\AppData\Local\Temp\ccoicnCl.s 			page 37


 1425 0064 1960     		str	r1, [r3]
  58:Core/Src/Main/Interrupt.c **** 	TotalPulse[BODY] = TotalPulse[LEFT]+TotalPulse[RIGHT];
 1426              		.loc 1 58 2 is_stmt 1 view .LVU357
  58:Core/Src/Main/Interrupt.c **** 	TotalPulse[BODY] = TotalPulse[LEFT]+TotalPulse[RIGHT];
 1427              		.loc 1 58 20 is_stmt 0 view .LVU358
 1428 0066 5968     		ldr	r1, [r3, #4]
 1429 0068 0A44     		add	r2, r2, r1
 1430 006a 5A60     		str	r2, [r3, #4]
  59:Core/Src/Main/Interrupt.c **** }
 1431              		.loc 1 59 2 is_stmt 1 view .LVU359
  59:Core/Src/Main/Interrupt.c **** }
 1432              		.loc 1 59 31 is_stmt 0 view .LVU360
 1433 006c 1A68     		ldr	r2, [r3]
  59:Core/Src/Main/Interrupt.c **** }
 1434              		.loc 1 59 48 view .LVU361
 1435 006e 5968     		ldr	r1, [r3, #4]
  59:Core/Src/Main/Interrupt.c **** }
 1436              		.loc 1 59 37 view .LVU362
 1437 0070 0A44     		add	r2, r2, r1
  59:Core/Src/Main/Interrupt.c **** }
 1438              		.loc 1 59 19 view .LVU363
 1439 0072 9A60     		str	r2, [r3, #8]
 1440              	.LBE13:
 1441              	.LBE12:
 358:Core/Src/Main/Interrupt.c **** 
 359:Core/Src/Main/Interrupt.c **** #if 0
 360:Core/Src/Main/Interrupt.c **** 	static int count=0;
 361:Core/Src/Main/Interrupt.c **** 
 362:Core/Src/Main/Interrupt.c **** 	if(count < 2000)
 363:Core/Src/Main/Interrupt.c **** 	{
 364:Core/Src/Main/Interrupt.c **** 		data[count] = Current.Velocity[LEFT];
 365:Core/Src/Main/Interrupt.c **** 	}
 366:Core/Src/Main/Interrupt.c **** 	count ++;
 367:Core/Src/Main/Interrupt.c **** #endif
 368:Core/Src/Main/Interrupt.c **** 
 369:Core/Src/Main/Interrupt.c **** #if 1
 370:Core/Src/Main/Interrupt.c **** 
 371:Core/Src/Main/Interrupt.c **** 	static float zg_last=0;
 1442              		.loc 1 371 2 is_stmt 1 view .LVU364
 372:Core/Src/Main/Interrupt.c **** 	float zg_law;
 1443              		.loc 1 372 2 view .LVU365
 373:Core/Src/Main/Interrupt.c **** 	//uint8_t zgb,zgf;
 374:Core/Src/Main/Interrupt.c **** 	ZGyro = ReadIMU(0x37, 0x38);
 1444              		.loc 1 374 2 view .LVU366
 1445              		.loc 1 374 10 is_stmt 0 view .LVU367
 1446 0074 3821     		movs	r1, #56
 1447 0076 3720     		movs	r0, #55
 1448 0078 FFF7FEFF 		bl	ReadIMU
 1449              	.LVL154:
 1450              		.loc 1 374 8 view .LVU368
 1451 007c 4A4B     		ldr	r3, .L31+40
 1452 007e 83ED000A 		vstr.32	s0, [r3]
 375:Core/Src/Main/Interrupt.c ****     zg_law =  ( ZGyro - zg_offset )*convert_to_imu_angv;//16.4 * 180;//rad/s or rad/0.001s
 1453              		.loc 1 375 5 is_stmt 1 view .LVU369
 1454              		.loc 1 375 23 is_stmt 0 view .LVU370
 1455 0082 93ED008A 		vldr.32	s16, [r3]
 1456 0086 494B     		ldr	r3, .L31+44
ARM GAS  C:\Users\leopi\AppData\Local\Temp\ccoicnCl.s 			page 38


 1457 0088 D3ED007A 		vldr.32	s15, [r3]
 1458 008c 38EE678A 		vsub.f32	s16, s16, s15
 1459              		.loc 1 375 36 view .LVU371
 1460 0090 474B     		ldr	r3, .L31+48
 1461 0092 D3ED007A 		vldr.32	s15, [r3]
 1462              		.loc 1 375 12 view .LVU372
 1463 0096 28EE278A 		vmul.f32	s16, s16, s15
 1464              	.LVL155:
 376:Core/Src/Main/Interrupt.c ****     Current.AngularV = -((0.01*zg_law) + (0.99)* (zg_last));
 1465              		.loc 1 376 5 is_stmt 1 view .LVU373
 1466              		.loc 1 376 31 is_stmt 0 view .LVU374
 1467 009a 18EE100A 		vmov	r0, s16
 1468 009e FFF7FEFF 		bl	__aeabi_f2d
 1469              	.LVL156:
 1470 00a2 37A3     		adr	r3, .L31
 1471 00a4 D3E90023 		ldrd	r2, [r3]
 1472 00a8 FFF7FEFF 		bl	__aeabi_dmul
 1473              	.LVL157:
 1474 00ac 0646     		mov	r6, r0
 1475 00ae 0F46     		mov	r7, r1
 1476              		.loc 1 376 48 view .LVU375
 1477 00b0 404C     		ldr	r4, .L31+52
 1478 00b2 2068     		ldr	r0, [r4]	@ float
 1479 00b4 FFF7FEFF 		bl	__aeabi_f2d
 1480              	.LVL158:
 1481 00b8 33A3     		adr	r3, .L31+8
 1482 00ba D3E90023 		ldrd	r2, [r3]
 1483 00be FFF7FEFF 		bl	__aeabi_dmul
 1484              	.LVL159:
 1485 00c2 0246     		mov	r2, r0
 1486 00c4 0B46     		mov	r3, r1
 1487              		.loc 1 376 40 view .LVU376
 1488 00c6 3046     		mov	r0, r6
 1489 00c8 3946     		mov	r1, r7
 1490 00ca FFF7FEFF 		bl	__aeabi_dadd
 1491              	.LVL160:
 1492 00ce FFF7FEFF 		bl	__aeabi_d2f
 1493              	.LVL161:
 1494              		.loc 1 376 22 view .LVU377
 1495 00d2 07EE900A 		vmov	s15, r0
 1496 00d6 F1EE677A 		vneg.f32	s15, s15
 1497 00da C5ED037A 		vstr.32	s15, [r5, #12]
 377:Core/Src/Main/Interrupt.c ****     zg_last = zg_law;
 1498              		.loc 1 377 5 is_stmt 1 view .LVU378
 1499              		.loc 1 377 13 is_stmt 0 view .LVU379
 1500 00de 84ED008A 		vstr.32	s16, [r4]
 378:Core/Src/Main/Interrupt.c **** 	Current.Angle += Current.AngularV * T1;
 1501              		.loc 1 378 2 is_stmt 1 view .LVU380
 1502              		.loc 1 378 26 is_stmt 0 view .LVU381
 1503 00e2 D5ED037A 		vldr.32	s15, [r5, #12]
 1504              		.loc 1 378 36 view .LVU382
 1505 00e6 9FED347A 		vldr.32	s14, .L31+56
 1506 00ea 27EE877A 		vmul.f32	s14, s15, s14
 1507              		.loc 1 378 16 view .LVU383
 1508 00ee D5ED067A 		vldr.32	s15, [r5, #24]
 1509 00f2 77EE877A 		vadd.f32	s15, s15, s14
 1510 00f6 C5ED067A 		vstr.32	s15, [r5, #24]
ARM GAS  C:\Users\leopi\AppData\Local\Temp\ccoicnCl.s 			page 39


 379:Core/Src/Main/Interrupt.c **** 
 380:Core/Src/Main/Interrupt.c **** #else
 381:Core/Src/Main/Interrupt.c **** 	AngularV = ( Current.Velocity[LEFT] - Current.Velocity[RIGHT] ) *convert_to_angularv;
 382:Core/Src/Main/Interrupt.c **** 	Angle += AngularV * T1;
 383:Core/Src/Main/Interrupt.c **** 
 384:Core/Src/Main/Interrupt.c **** #endif
 385:Core/Src/Main/Interrupt.c **** 	Target.Velocity[BODY] += Target.Acceleration;
 1511              		.loc 1 385 2 is_stmt 1 view .LVU384
 1512              		.loc 1 385 33 is_stmt 0 view .LVU385
 1513 00fa 304C     		ldr	r4, .L31+60
 1514 00fc 94ED0B7A 		vldr.32	s14, [r4, #44]
 1515              		.loc 1 385 24 view .LVU386
 1516 0100 D4ED027A 		vldr.32	s15, [r4, #8]
 1517 0104 77EE877A 		vadd.f32	s15, s15, s14
 1518 0108 C4ED027A 		vstr.32	s15, [r4, #8]
 386:Core/Src/Main/Interrupt.c **** 	Target.AngularV += Target.AngularAcceleration;
 1519              		.loc 1 386 2 is_stmt 1 view .LVU387
 1520              		.loc 1 386 27 is_stmt 0 view .LVU388
 1521 010c 94ED0C7A 		vldr.32	s14, [r4, #48]
 1522              		.loc 1 386 18 view .LVU389
 1523 0110 D4ED037A 		vldr.32	s15, [r4, #12]
 1524 0114 77EE877A 		vadd.f32	s15, s15, s14
 1525 0118 C4ED037A 		vstr.32	s15, [r4, #12]
 387:Core/Src/Main/Interrupt.c **** 
 388:Core/Src/Main/Interrupt.c **** 	Target.Velocity[RIGHT] = ( Target.Velocity[BODY] - Target.AngularV * TREAD_WIDTH * 0.5f );
 1526              		.loc 1 388 2 is_stmt 1 view .LVU390
 1527              		.loc 1 388 44 is_stmt 0 view .LVU391
 1528 011c D4ED026A 		vldr.32	s13, [r4, #8]
 1529              		.loc 1 388 59 view .LVU392
 1530 0120 94ED037A 		vldr.32	s14, [r4, #12]
 1531              		.loc 1 388 69 view .LVU393
 1532 0124 9FED266A 		vldr.32	s12, .L31+64
 1533 0128 27EE067A 		vmul.f32	s14, s14, s12
 1534              		.loc 1 388 83 view .LVU394
 1535 012c 27EE287A 		vmul.f32	s14, s14, s17
 1536              		.loc 1 388 51 view .LVU395
 1537 0130 36EEC77A 		vsub.f32	s14, s13, s14
 1538              		.loc 1 388 25 view .LVU396
 1539 0134 84ED017A 		vstr.32	s14, [r4, #4]
 389:Core/Src/Main/Interrupt.c **** 	Target.Velocity[LEFT] = ( Target.AngularV *TREAD_WIDTH ) + Target.Velocity[RIGHT];
 1540              		.loc 1 389 2 is_stmt 1 view .LVU397
 1541              		.loc 1 389 34 is_stmt 0 view .LVU398
 1542 0138 D4ED037A 		vldr.32	s15, [r4, #12]
 1543              		.loc 1 389 44 view .LVU399
 1544 013c 67EE867A 		vmul.f32	s15, s15, s12
 1545              		.loc 1 389 76 view .LVU400
 1546 0140 94ED017A 		vldr.32	s14, [r4, #4]
 1547              		.loc 1 389 59 view .LVU401
 1548 0144 77EE877A 		vadd.f32	s15, s15, s14
 1549              		.loc 1 389 24 view .LVU402
 1550 0148 C4ED007A 		vstr.32	s15, [r4]
 390:Core/Src/Main/Interrupt.c **** 
 391:Core/Src/Main/Interrupt.c **** 	VelocityLeftOut = PIDControl( L_VELO_PID, Target.Velocity[LEFT], Current.Velocity[LEFT]);
 1551              		.loc 1 391 2 is_stmt 1 view .LVU403
 1552              		.loc 1 391 20 is_stmt 0 view .LVU404
 1553 014c 94ED000A 		vldr.32	s0, [r4]
 1554 0150 D5ED000A 		vldr.32	s1, [r5]
ARM GAS  C:\Users\leopi\AppData\Local\Temp\ccoicnCl.s 			page 40


 1555 0154 0420     		movs	r0, #4
 1556 0156 FFF7FEFF 		bl	PIDControl
 1557              	.LVL162:
 1558              		.loc 1 391 18 view .LVU405
 1559 015a 1A4E     		ldr	r6, .L31+68
 1560 015c 3060     		str	r0, [r6]
 392:Core/Src/Main/Interrupt.c **** 	VelocityRightOut = PIDControl( R_VELO_PID, Target.Velocity[RIGHT], Current.Velocity[RIGHT]);
 1561              		.loc 1 392 2 is_stmt 1 view .LVU406
 1562              		.loc 1 392 21 is_stmt 0 view .LVU407
 1563 015e 94ED010A 		vldr.32	s0, [r4, #4]
 1564 0162 D5ED010A 		vldr.32	s1, [r5, #4]
 1565 0166 0520     		movs	r0, #5
 1566 0168 FFF7FEFF 		bl	PIDControl
 1567              	.LVL163:
 1568 016c 0146     		mov	r1, r0
 1569              		.loc 1 392 19 view .LVU408
 1570 016e 164B     		ldr	r3, .L31+72
 1571 0170 1860     		str	r0, [r3]
 393:Core/Src/Main/Interrupt.c **** 
 394:Core/Src/Main/Interrupt.c **** 	Motor_Switch( VelocityLeftOut, VelocityRightOut );
 1572              		.loc 1 394 2 is_stmt 1 view .LVU409
 1573 0172 3068     		ldr	r0, [r6]
 1574 0174 FFF7FEFF 		bl	Motor_Switch
 1575              	.LVL164:
 395:Core/Src/Main/Interrupt.c **** }
 1576              		.loc 1 395 1 is_stmt 0 view .LVU410
 1577 0178 BDEC028B 		vldm	sp!, {d8}
 1578              	.LCFI13:
 1579              		.cfi_restore 80
 1580              		.cfi_restore 81
 1581              		.cfi_def_cfa_offset 24
 1582              	.LVL165:
 1583              		.loc 1 395 1 view .LVU411
 1584 017c F8BD     		pop	{r3, r4, r5, r6, r7, pc}
 1585              	.L32:
 1586 017e 00BF     		.align	3
 1587              	.L31:
 1588 0180 7B14AE47 		.word	1202590843
 1589 0184 E17A843F 		.word	1065646817
 1590 0188 AE47E17A 		.word	2061584302
 1591 018c 14AEEF3F 		.word	1072672276
 1592 0190 00040040 		.word	1073742848
 1593 0194 00000000 		.word	PulseDisplacement
 1594 0198 00080040 		.word	1073743872
 1595 019c CD77813F 		.word	1065449421
 1596 01a0 00000000 		.word	Current
 1597 01a4 00000000 		.word	TotalPulse
 1598 01a8 00000000 		.word	ZGyro
 1599 01ac 00000000 		.word	zg_offset
 1600 01b0 00000000 		.word	convert_to_imu_angv
 1601 01b4 00000000 		.word	.LANCHOR4
 1602 01b8 6F12833A 		.word	981668463
 1603 01bc 00000000 		.word	Target
 1604 01c0 9A990942 		.word	1107925402
 1605 01c4 00000000 		.word	VelocityLeftOut
 1606 01c8 00000000 		.word	VelocityRightOut
 1607              		.cfi_endproc
ARM GAS  C:\Users\leopi\AppData\Local\Temp\ccoicnCl.s 			page 41


 1608              	.LFE244:
 1610              		.section	.text.SystemIdentify_IT,"ax",%progbits
 1611              		.align	1
 1612              		.syntax unified
 1613              		.thumb
 1614              		.thumb_func
 1616              	SystemIdentify_IT:
 1617              	.LFB239:
  62:Core/Src/Main/Interrupt.c **** 	
 1618              		.loc 1 62 32 is_stmt 1 view -0
 1619              		.cfi_startproc
 1620              		@ args = 0, pretend = 0, frame = 16
 1621              		@ frame_needed = 0, uses_anonymous_args = 0
 1622 0000 30B5     		push	{r4, r5, lr}
 1623              	.LCFI14:
 1624              		.cfi_def_cfa_offset 12
 1625              		.cfi_offset 4, -12
 1626              		.cfi_offset 5, -8
 1627              		.cfi_offset 14, -4
 1628 0002 2DED028B 		vpush.64	{d8}
 1629              	.LCFI15:
 1630              		.cfi_def_cfa_offset 20
 1631              		.cfi_offset 80, -20
 1632              		.cfi_offset 81, -16
 1633 0006 85B0     		sub	sp, sp, #20
 1634              	.LCFI16:
 1635              		.cfi_def_cfa_offset 40
  64:Core/Src/Main/Interrupt.c **** 
 1636              		.loc 1 64 2 view .LVU413
 1637              	.LBB16:
 1638              	.LBI16:
  45:Core/Src/Main/Interrupt.c **** 	PulseDisplacement[LEFT] = - (TIM3->CNT - INITIAL_PULSE);
 1639              		.loc 1 45 13 view .LVU414
 1640              	.LBB17:
  46:Core/Src/Main/Interrupt.c **** 	TIM3->CNT = INITIAL_PULSE;
 1641              		.loc 1 46 2 view .LVU415
  46:Core/Src/Main/Interrupt.c **** 	TIM3->CNT = INITIAL_PULSE;
 1642              		.loc 1 46 35 is_stmt 0 view .LVU416
 1643 0008 584A     		ldr	r2, .L41
 1644 000a 516A     		ldr	r1, [r2, #36]
  46:Core/Src/Main/Interrupt.c **** 	TIM3->CNT = INITIAL_PULSE;
 1645              		.loc 1 46 28 view .LVU417
 1646 000c 47F22F53 		movw	r3, #29999
 1647 0010 591A     		subs	r1, r3, r1
  46:Core/Src/Main/Interrupt.c **** 	TIM3->CNT = INITIAL_PULSE;
 1648              		.loc 1 46 26 view .LVU418
 1649 0012 574C     		ldr	r4, .L41+4
 1650 0014 2160     		str	r1, [r4]
  47:Core/Src/Main/Interrupt.c **** 	PulseDisplacement[RIGHT] = - (TIM4->CNT - INITIAL_PULSE);
 1651              		.loc 1 47 2 is_stmt 1 view .LVU419
  47:Core/Src/Main/Interrupt.c **** 	PulseDisplacement[RIGHT] = - (TIM4->CNT - INITIAL_PULSE);
 1652              		.loc 1 47 12 is_stmt 0 view .LVU420
 1653 0016 5362     		str	r3, [r2, #36]
  48:Core/Src/Main/Interrupt.c **** 	TIM4->CNT = INITIAL_PULSE;
 1654              		.loc 1 48 2 is_stmt 1 view .LVU421
  48:Core/Src/Main/Interrupt.c **** 	TIM4->CNT = INITIAL_PULSE;
 1655              		.loc 1 48 36 is_stmt 0 view .LVU422
ARM GAS  C:\Users\leopi\AppData\Local\Temp\ccoicnCl.s 			page 42


 1656 0018 5648     		ldr	r0, .L41+8
 1657 001a 426A     		ldr	r2, [r0, #36]
  48:Core/Src/Main/Interrupt.c **** 	TIM4->CNT = INITIAL_PULSE;
 1658              		.loc 1 48 29 view .LVU423
 1659 001c 9A1A     		subs	r2, r3, r2
  48:Core/Src/Main/Interrupt.c **** 	TIM4->CNT = INITIAL_PULSE;
 1660              		.loc 1 48 27 view .LVU424
 1661 001e 6260     		str	r2, [r4, #4]
  49:Core/Src/Main/Interrupt.c **** 
 1662              		.loc 1 49 2 is_stmt 1 view .LVU425
  49:Core/Src/Main/Interrupt.c **** 
 1663              		.loc 1 49 12 is_stmt 0 view .LVU426
 1664 0020 4362     		str	r3, [r0, #36]
  52:Core/Src/Main/Interrupt.c **** 	Current.Velocity[RIGHT] =  (float)PulseDisplacement[RIGHT] * convert_to_velocity;
 1665              		.loc 1 52 2 is_stmt 1 view .LVU427
  52:Core/Src/Main/Interrupt.c **** 	Current.Velocity[RIGHT] =  (float)PulseDisplacement[RIGHT] * convert_to_velocity;
 1666              		.loc 1 52 28 is_stmt 0 view .LVU428
 1667 0022 07EE901A 		vmov	s15, r1	@ int
 1668 0026 B8EEE77A 		vcvt.f32.s32	s14, s15
  52:Core/Src/Main/Interrupt.c **** 	Current.Velocity[RIGHT] =  (float)PulseDisplacement[RIGHT] * convert_to_velocity;
 1669              		.loc 1 52 59 view .LVU429
 1670 002a DFED536A 		vldr.32	s13, .L41+12
 1671 002e 27EE267A 		vmul.f32	s14, s14, s13
  52:Core/Src/Main/Interrupt.c **** 	Current.Velocity[RIGHT] =  (float)PulseDisplacement[RIGHT] * convert_to_velocity;
 1672              		.loc 1 52 25 view .LVU430
 1673 0032 524C     		ldr	r4, .L41+16
 1674 0034 84ED007A 		vstr.32	s14, [r4]
  53:Core/Src/Main/Interrupt.c **** 	Current.Velocity[BODY] = (Current.Velocity[LEFT] + Current.Velocity[RIGHT] )*0.5f;
 1675              		.loc 1 53 2 is_stmt 1 view .LVU431
  53:Core/Src/Main/Interrupt.c **** 	Current.Velocity[BODY] = (Current.Velocity[LEFT] + Current.Velocity[RIGHT] )*0.5f;
 1676              		.loc 1 53 29 is_stmt 0 view .LVU432
 1677 0038 07EE902A 		vmov	s15, r2	@ int
 1678 003c F8EEE77A 		vcvt.f32.s32	s15, s15
  53:Core/Src/Main/Interrupt.c **** 	Current.Velocity[BODY] = (Current.Velocity[LEFT] + Current.Velocity[RIGHT] )*0.5f;
 1679              		.loc 1 53 61 view .LVU433
 1680 0040 67EEA67A 		vmul.f32	s15, s15, s13
  53:Core/Src/Main/Interrupt.c **** 	Current.Velocity[BODY] = (Current.Velocity[LEFT] + Current.Velocity[RIGHT] )*0.5f;
 1681              		.loc 1 53 26 view .LVU434
 1682 0044 C4ED017A 		vstr.32	s15, [r4, #4]
  54:Core/Src/Main/Interrupt.c **** 
 1683              		.loc 1 54 2 is_stmt 1 view .LVU435
  54:Core/Src/Main/Interrupt.c **** 
 1684              		.loc 1 54 44 is_stmt 0 view .LVU436
 1685 0048 D4ED007A 		vldr.32	s15, [r4]
  54:Core/Src/Main/Interrupt.c **** 
 1686              		.loc 1 54 69 view .LVU437
 1687 004c 94ED017A 		vldr.32	s14, [r4, #4]
  54:Core/Src/Main/Interrupt.c **** 
 1688              		.loc 1 54 51 view .LVU438
 1689 0050 77EE877A 		vadd.f32	s15, s15, s14
  54:Core/Src/Main/Interrupt.c **** 
 1690              		.loc 1 54 78 view .LVU439
 1691 0054 B6EE007A 		vmov.f32	s14, #5.0e-1
 1692 0058 67EE877A 		vmul.f32	s15, s15, s14
  54:Core/Src/Main/Interrupt.c **** 
 1693              		.loc 1 54 25 view .LVU440
 1694 005c C4ED027A 		vstr.32	s15, [r4, #8]
ARM GAS  C:\Users\leopi\AppData\Local\Temp\ccoicnCl.s 			page 43


  57:Core/Src/Main/Interrupt.c **** 	TotalPulse[RIGHT] += PulseDisplacement[RIGHT];
 1695              		.loc 1 57 2 is_stmt 1 view .LVU441
  57:Core/Src/Main/Interrupt.c **** 	TotalPulse[RIGHT] += PulseDisplacement[RIGHT];
 1696              		.loc 1 57 19 is_stmt 0 view .LVU442
 1697 0060 474B     		ldr	r3, .L41+20
 1698 0062 1868     		ldr	r0, [r3]
 1699 0064 0144     		add	r1, r1, r0
 1700 0066 1960     		str	r1, [r3]
  58:Core/Src/Main/Interrupt.c **** 	TotalPulse[BODY] = TotalPulse[LEFT]+TotalPulse[RIGHT];
 1701              		.loc 1 58 2 is_stmt 1 view .LVU443
  58:Core/Src/Main/Interrupt.c **** 	TotalPulse[BODY] = TotalPulse[LEFT]+TotalPulse[RIGHT];
 1702              		.loc 1 58 20 is_stmt 0 view .LVU444
 1703 0068 5968     		ldr	r1, [r3, #4]
 1704 006a 0A44     		add	r2, r2, r1
 1705 006c 5A60     		str	r2, [r3, #4]
  59:Core/Src/Main/Interrupt.c **** }
 1706              		.loc 1 59 2 is_stmt 1 view .LVU445
  59:Core/Src/Main/Interrupt.c **** }
 1707              		.loc 1 59 31 is_stmt 0 view .LVU446
 1708 006e 1A68     		ldr	r2, [r3]
  59:Core/Src/Main/Interrupt.c **** }
 1709              		.loc 1 59 48 view .LVU447
 1710 0070 5968     		ldr	r1, [r3, #4]
  59:Core/Src/Main/Interrupt.c **** }
 1711              		.loc 1 59 37 view .LVU448
 1712 0072 0A44     		add	r2, r2, r1
  59:Core/Src/Main/Interrupt.c **** }
 1713              		.loc 1 59 19 view .LVU449
 1714 0074 9A60     		str	r2, [r3, #8]
 1715              	.LBE17:
 1716              	.LBE16:
  66:Core/Src/Main/Interrupt.c **** 
 1717              		.loc 1 66 2 is_stmt 1 view .LVU450
 1718 0076 04F11801 		add	r1, r4, #24
 1719 007a 04F10C00 		add	r0, r4, #12
 1720 007e FFF7FEFF 		bl	Update_IMU
 1721              	.LVL166:
  68:Core/Src/Main/Interrupt.c **** 	static int count=0;
 1722              		.loc 1 68 2 view .LVU451
  69:Core/Src/Main/Interrupt.c **** 	float output[2] ={
 1723              		.loc 1 69 2 view .LVU452
  70:Core/Src/Main/Interrupt.c **** 		Current.Velocity[BODY],
 1724              		.loc 1 70 2 view .LVU453
  71:Core/Src/Main/Interrupt.c **** 		Current.AngularV
 1725              		.loc 1 71 19 is_stmt 0 view .LVU454
 1726 0082 A368     		ldr	r3, [r4, #8]	@ float
  70:Core/Src/Main/Interrupt.c **** 		Current.Velocity[BODY],
 1727              		.loc 1 70 8 view .LVU455
 1728 0084 0293     		str	r3, [sp, #8]	@ float
  72:Core/Src/Main/Interrupt.c **** 	};
 1729              		.loc 1 72 10 view .LVU456
 1730 0086 E368     		ldr	r3, [r4, #12]	@ float
  70:Core/Src/Main/Interrupt.c **** 		Current.Velocity[BODY],
 1731              		.loc 1 70 8 view .LVU457
 1732 0088 0393     		str	r3, [sp, #12]	@ float
  74:Core/Src/Main/Interrupt.c **** 	_Bool identify_mode_v_or_angv = getIdentifyMode();
 1733              		.loc 1 74 2 is_stmt 1 view .LVU458
ARM GAS  C:\Users\leopi\AppData\Local\Temp\ccoicnCl.s 			page 44


  74:Core/Src/Main/Interrupt.c **** 	_Bool identify_mode_v_or_angv = getIdentifyMode();
 1734              		.loc 1 74 8 is_stmt 0 view .LVU459
 1735 008a 0023     		movs	r3, #0
 1736 008c 0093     		str	r3, [sp]
 1737 008e 0193     		str	r3, [sp, #4]
  75:Core/Src/Main/Interrupt.c **** 	float battery_voltage = ADCToBatteryVoltage( adc1[2], V_SPLIT_NUM, PIN_V_MAX ,ADC_RESOLUTION );
 1738              		.loc 1 75 2 is_stmt 1 view .LVU460
  75:Core/Src/Main/Interrupt.c **** 	float battery_voltage = ADCToBatteryVoltage( adc1[2], V_SPLIT_NUM, PIN_V_MAX ,ADC_RESOLUTION );
 1739              		.loc 1 75 34 is_stmt 0 view .LVU461
 1740 0090 FFF7FEFF 		bl	getIdentifyMode
 1741              	.LVL167:
 1742 0094 0446     		mov	r4, r0
 1743              	.LVL168:
  76:Core/Src/Main/Interrupt.c **** 	float convert_to_reg_counter = 840/battery_voltage;;
 1744              		.loc 1 76 2 is_stmt 1 view .LVU462
  76:Core/Src/Main/Interrupt.c **** 	float convert_to_reg_counter = 840/battery_voltage;;
 1745              		.loc 1 76 26 is_stmt 0 view .LVU463
 1746 0096 9FED3B1A 		vldr.32	s2, .L41+24
 1747 009a DFED3B0A 		vldr.32	s1, .L41+28
 1748 009e B0EE080A 		vmov.f32	s0, #3.0e+0
 1749 00a2 3A4B     		ldr	r3, .L41+32
 1750 00a4 9868     		ldr	r0, [r3, #8]
 1751 00a6 FFF7FEFF 		bl	ADCToBatteryVoltage
 1752              	.LVL169:
  77:Core/Src/Main/Interrupt.c **** 	if(getLoggerFlag(&(identify[identify_mode_v_or_angv].f)) == true){
 1753              		.loc 1 77 2 is_stmt 1 view .LVU464
  77:Core/Src/Main/Interrupt.c **** 	if(getLoggerFlag(&(identify[identify_mode_v_or_angv].f)) == true){
 1754              		.loc 1 77 8 is_stmt 0 view .LVU465
 1755 00aa DFED397A 		vldr.32	s15, .L41+36
 1756 00ae 87EE808A 		vdiv.f32	s16, s15, s0
 1757              	.LVL170:
  77:Core/Src/Main/Interrupt.c **** 	if(getLoggerFlag(&(identify[identify_mode_v_or_angv].f)) == true){
 1758              		.loc 1 77 53 is_stmt 1 view .LVU466
  78:Core/Src/Main/Interrupt.c **** 		if( (count%20) == 0 ){
 1759              		.loc 1 78 2 view .LVU467
  78:Core/Src/Main/Interrupt.c **** 		if( (count%20) == 0 ){
 1760              		.loc 1 78 5 is_stmt 0 view .LVU468
 1761 00b2 3848     		ldr	r0, .L41+40
 1762 00b4 00EB0410 		add	r0, r0, r4, lsl #4
 1763 00b8 FFF7FEFF 		bl	getLoggerFlag
 1764              	.LVL171:
  78:Core/Src/Main/Interrupt.c **** 		if( (count%20) == 0 ){
 1765              		.loc 1 78 4 view .LVU469
 1766 00bc 0028     		cmp	r0, #0
 1767 00be 4CD0     		beq	.L34
  79:Core/Src/Main/Interrupt.c **** 			getFloatLog(&identify[identify_mode_v_or_angv], output[identify_mode_v_or_angv]);
 1768              		.loc 1 79 3 is_stmt 1 view .LVU470
  79:Core/Src/Main/Interrupt.c **** 			getFloatLog(&identify[identify_mode_v_or_angv], output[identify_mode_v_or_angv]);
 1769              		.loc 1 79 13 is_stmt 0 view .LVU471
 1770 00c0 354B     		ldr	r3, .L41+44
 1771 00c2 1A68     		ldr	r2, [r3]
 1772 00c4 3549     		ldr	r1, .L41+48
 1773 00c6 81FB0231 		smull	r3, r1, r1, r2
 1774 00ca D317     		asrs	r3, r2, #31
 1775 00cc C3EBE103 		rsb	r3, r3, r1, asr #3
 1776 00d0 03EB8303 		add	r3, r3, r3, lsl #2
  79:Core/Src/Main/Interrupt.c **** 			getFloatLog(&identify[identify_mode_v_or_angv], output[identify_mode_v_or_angv]);
ARM GAS  C:\Users\leopi\AppData\Local\Temp\ccoicnCl.s 			page 45


 1777              		.loc 1 79 5 view .LVU472
 1778 00d4 B2EB830F 		cmp	r2, r3, lsl #2
 1779 00d8 14D0     		beq	.L39
 1780              	.L35:
  82:Core/Src/Main/Interrupt.c **** 			getIdentifyInputCount(identify_count, &input[0] ,identify_mode_v_or_angv);
 1781              		.loc 1 82 3 is_stmt 1 view .LVU473
  82:Core/Src/Main/Interrupt.c **** 			getIdentifyInputCount(identify_count, &input[0] ,identify_mode_v_or_angv);
 1782              		.loc 1 82 13 is_stmt 0 view .LVU474
 1783 00da 2F4B     		ldr	r3, .L41+44
 1784 00dc 1A68     		ldr	r2, [r3]
 1785 00de 2F49     		ldr	r1, .L41+48
 1786 00e0 81FB0231 		smull	r3, r1, r1, r2
 1787 00e4 D317     		asrs	r3, r2, #31
 1788 00e6 C3EB2113 		rsb	r3, r3, r1, asr #4
 1789 00ea 03EB8303 		add	r3, r3, r3, lsl #2
  82:Core/Src/Main/Interrupt.c **** 			getIdentifyInputCount(identify_count, &input[0] ,identify_mode_v_or_angv);
 1790              		.loc 1 82 5 view .LVU475
 1791 00ee B2EBC30F 		cmp	r2, r3, lsl #3
 1792 00f2 12D0     		beq	.L40
 1793              	.LVL172:
 1794              	.L36:
  90:Core/Src/Main/Interrupt.c **** 	}
 1795              		.loc 1 90 3 is_stmt 1 view .LVU476
  90:Core/Src/Main/Interrupt.c **** 	}
 1796              		.loc 1 90 8 is_stmt 0 view .LVU477
 1797 00f4 284A     		ldr	r2, .L41+44
 1798 00f6 1368     		ldr	r3, [r2]
 1799 00f8 0133     		adds	r3, r3, #1
 1800 00fa 1360     		str	r3, [r2]
 1801              	.L33:
  97:Core/Src/Main/Interrupt.c **** static void ControlTest_IT(){
 1802              		.loc 1 97 1 view .LVU478
 1803 00fc 05B0     		add	sp, sp, #20
 1804              	.LCFI17:
 1805              		.cfi_remember_state
 1806              		.cfi_def_cfa_offset 20
 1807              		@ sp needed
 1808 00fe BDEC028B 		vldm	sp!, {d8}
 1809              	.LCFI18:
 1810              		.cfi_restore 80
 1811              		.cfi_restore 81
 1812              		.cfi_def_cfa_offset 12
 1813 0102 30BD     		pop	{r4, r5, pc}
 1814              	.LVL173:
 1815              	.L39:
 1816              	.LCFI19:
 1817              		.cfi_restore_state
  80:Core/Src/Main/Interrupt.c **** 		}
 1818              		.loc 1 80 4 is_stmt 1 view .LVU479
 1819 0104 04AB     		add	r3, sp, #16
 1820 0106 03EB8403 		add	r3, r3, r4, lsl #2
 1821 010a 13ED020A 		vldr.32	s0, [r3, #-8]
 1822 010e 2148     		ldr	r0, .L41+40
 1823 0110 00EB0410 		add	r0, r0, r4, lsl #4
 1824 0114 FFF7FEFF 		bl	getFloatLog
 1825              	.LVL174:
 1826 0118 DFE7     		b	.L35
ARM GAS  C:\Users\leopi\AppData\Local\Temp\ccoicnCl.s 			page 46


 1827              	.L40:
  83:Core/Src/Main/Interrupt.c **** 			input[0] *= convert_to_reg_counter;
 1828              		.loc 1 83 4 view .LVU480
 1829 011a 214D     		ldr	r5, .L41+52
 1830 011c 2246     		mov	r2, r4
 1831 011e 6946     		mov	r1, sp
 1832 0120 2868     		ldr	r0, [r5]
 1833 0122 FFF7FEFF 		bl	getIdentifyInputCount
 1834              	.LVL175:
  84:Core/Src/Main/Interrupt.c **** 			input[1] *= convert_to_reg_counter;
 1835              		.loc 1 84 4 view .LVU481
  84:Core/Src/Main/Interrupt.c **** 			input[1] *= convert_to_reg_counter;
 1836              		.loc 1 84 13 is_stmt 0 view .LVU482
 1837 0126 DDED007A 		vldr.32	s15, [sp]
 1838 012a 68EE277A 		vmul.f32	s15, s16, s15
 1839 012e CDED007A 		vstr.32	s15, [sp]
  85:Core/Src/Main/Interrupt.c **** 			Motor_Switch(input[0], input[1]);
 1840              		.loc 1 85 4 is_stmt 1 view .LVU483
  85:Core/Src/Main/Interrupt.c **** 			Motor_Switch(input[0], input[1]);
 1841              		.loc 1 85 13 is_stmt 0 view .LVU484
 1842 0132 9DED017A 		vldr.32	s14, [sp, #4]
 1843 0136 28EE078A 		vmul.f32	s16, s16, s14
 1844              	.LVL176:
  85:Core/Src/Main/Interrupt.c **** 			Motor_Switch(input[0], input[1]);
 1845              		.loc 1 85 13 view .LVU485
 1846 013a 8DED018A 		vstr.32	s16, [sp, #4]
  86:Core/Src/Main/Interrupt.c **** 			identify_count++;
 1847              		.loc 1 86 4 is_stmt 1 view .LVU486
 1848 013e BDEEC87A 		vcvt.s32.f32	s14, s16
 1849 0142 17EE101A 		vmov	r1, s14	@ int
 1850 0146 FDEEE77A 		vcvt.s32.f32	s15, s15
 1851 014a 17EE900A 		vmov	r0, s15	@ int
 1852 014e FFF7FEFF 		bl	Motor_Switch
 1853              	.LVL177:
  87:Core/Src/Main/Interrupt.c **** 			
 1854              		.loc 1 87 4 view .LVU487
  87:Core/Src/Main/Interrupt.c **** 			
 1855              		.loc 1 87 18 is_stmt 0 view .LVU488
 1856 0152 2B68     		ldr	r3, [r5]
 1857 0154 0133     		adds	r3, r3, #1
 1858 0156 2B60     		str	r3, [r5]
 1859 0158 CCE7     		b	.L36
 1860              	.LVL178:
 1861              	.L34:
  93:Core/Src/Main/Interrupt.c **** 		count = 0;
 1862              		.loc 1 93 3 is_stmt 1 view .LVU489
 1863 015a 0021     		movs	r1, #0
 1864 015c 0846     		mov	r0, r1
 1865 015e FFF7FEFF 		bl	Motor_Switch
 1866              	.LVL179:
  94:Core/Src/Main/Interrupt.c **** 	}
 1867              		.loc 1 94 3 view .LVU490
  94:Core/Src/Main/Interrupt.c **** 	}
 1868              		.loc 1 94 9 is_stmt 0 view .LVU491
 1869 0162 0D4B     		ldr	r3, .L41+44
 1870 0164 0022     		movs	r2, #0
 1871 0166 1A60     		str	r2, [r3]
ARM GAS  C:\Users\leopi\AppData\Local\Temp\ccoicnCl.s 			page 47


  97:Core/Src/Main/Interrupt.c **** static void ControlTest_IT(){
 1872              		.loc 1 97 1 view .LVU492
 1873 0168 C8E7     		b	.L33
 1874              	.L42:
 1875 016a 00BF     		.align	2
 1876              	.L41:
 1877 016c 00040040 		.word	1073742848
 1878 0170 00000000 		.word	PulseDisplacement
 1879 0174 00080040 		.word	1073743872
 1880 0178 CD77813F 		.word	1065449421
 1881 017c 00000000 		.word	Current
 1882 0180 00000000 		.word	TotalPulse
 1883 0184 00008045 		.word	1166016512
 1884 0188 33335340 		.word	1079194419
 1885 018c 00000000 		.word	adc1
 1886 0190 00005244 		.word	1146224640
 1887 0194 00000000 		.word	.LANCHOR5
 1888 0198 00000000 		.word	.LANCHOR6
 1889 019c 67666666 		.word	1717986919
 1890 01a0 00000000 		.word	.LANCHOR7
 1891              		.cfi_endproc
 1892              	.LFE239:
 1894              		.section	.text.Kanayama_IT,"ax",%progbits
 1895              		.align	1
 1896              		.syntax unified
 1897              		.thumb
 1898              		.thumb_func
 1900              	Kanayama_IT:
 1901              	.LFB242:
 197:Core/Src/Main/Interrupt.c **** 	countTimElapsed(&tim_search);
 1902              		.loc 1 197 26 is_stmt 1 view -0
 1903              		.cfi_startproc
 1904              		@ args = 0, pretend = 0, frame = 0
 1905              		@ frame_needed = 0, uses_anonymous_args = 0
 1906 0000 70B5     		push	{r4, r5, r6, lr}
 1907              	.LCFI20:
 1908              		.cfi_def_cfa_offset 16
 1909              		.cfi_offset 4, -16
 1910              		.cfi_offset 5, -12
 1911              		.cfi_offset 6, -8
 1912              		.cfi_offset 14, -4
 1913 0002 2DED028B 		vpush.64	{d8}
 1914              	.LCFI21:
 1915              		.cfi_def_cfa_offset 24
 1916              		.cfi_offset 80, -24
 1917              		.cfi_offset 81, -20
 198:Core/Src/Main/Interrupt.c **** 
 1918              		.loc 1 198 2 view .LVU494
 1919 0006 6048     		ldr	r0, .L47+8
 1920 0008 FFF7FEFF 		bl	countTimElapsed
 1921              	.LVL180:
 200:Core/Src/Main/Interrupt.c **** 
 1922              		.loc 1 200 2 view .LVU495
 1923              	.LBB20:
 1924              	.LBI20:
  45:Core/Src/Main/Interrupt.c **** 	PulseDisplacement[LEFT] = - (TIM3->CNT - INITIAL_PULSE);
 1925              		.loc 1 45 13 view .LVU496
ARM GAS  C:\Users\leopi\AppData\Local\Temp\ccoicnCl.s 			page 48


 1926              	.LBB21:
  46:Core/Src/Main/Interrupt.c **** 	TIM3->CNT = INITIAL_PULSE;
 1927              		.loc 1 46 2 view .LVU497
  46:Core/Src/Main/Interrupt.c **** 	TIM3->CNT = INITIAL_PULSE;
 1928              		.loc 1 46 35 is_stmt 0 view .LVU498
 1929 000c 5F4A     		ldr	r2, .L47+12
 1930 000e 516A     		ldr	r1, [r2, #36]
  46:Core/Src/Main/Interrupt.c **** 	TIM3->CNT = INITIAL_PULSE;
 1931              		.loc 1 46 28 view .LVU499
 1932 0010 47F22F53 		movw	r3, #29999
 1933 0014 591A     		subs	r1, r3, r1
  46:Core/Src/Main/Interrupt.c **** 	TIM3->CNT = INITIAL_PULSE;
 1934              		.loc 1 46 26 view .LVU500
 1935 0016 5E4C     		ldr	r4, .L47+16
 1936 0018 2160     		str	r1, [r4]
  47:Core/Src/Main/Interrupt.c **** 	PulseDisplacement[RIGHT] = - (TIM4->CNT - INITIAL_PULSE);
 1937              		.loc 1 47 2 is_stmt 1 view .LVU501
  47:Core/Src/Main/Interrupt.c **** 	PulseDisplacement[RIGHT] = - (TIM4->CNT - INITIAL_PULSE);
 1938              		.loc 1 47 12 is_stmt 0 view .LVU502
 1939 001a 5362     		str	r3, [r2, #36]
  48:Core/Src/Main/Interrupt.c **** 	TIM4->CNT = INITIAL_PULSE;
 1940              		.loc 1 48 2 is_stmt 1 view .LVU503
  48:Core/Src/Main/Interrupt.c **** 	TIM4->CNT = INITIAL_PULSE;
 1941              		.loc 1 48 36 is_stmt 0 view .LVU504
 1942 001c 5D48     		ldr	r0, .L47+20
 1943 001e 426A     		ldr	r2, [r0, #36]
  48:Core/Src/Main/Interrupt.c **** 	TIM4->CNT = INITIAL_PULSE;
 1944              		.loc 1 48 29 view .LVU505
 1945 0020 9A1A     		subs	r2, r3, r2
  48:Core/Src/Main/Interrupt.c **** 	TIM4->CNT = INITIAL_PULSE;
 1946              		.loc 1 48 27 view .LVU506
 1947 0022 6260     		str	r2, [r4, #4]
  49:Core/Src/Main/Interrupt.c **** 
 1948              		.loc 1 49 2 is_stmt 1 view .LVU507
  49:Core/Src/Main/Interrupt.c **** 
 1949              		.loc 1 49 12 is_stmt 0 view .LVU508
 1950 0024 4362     		str	r3, [r0, #36]
  52:Core/Src/Main/Interrupt.c **** 	Current.Velocity[RIGHT] =  (float)PulseDisplacement[RIGHT] * convert_to_velocity;
 1951              		.loc 1 52 2 is_stmt 1 view .LVU509
  52:Core/Src/Main/Interrupt.c **** 	Current.Velocity[RIGHT] =  (float)PulseDisplacement[RIGHT] * convert_to_velocity;
 1952              		.loc 1 52 28 is_stmt 0 view .LVU510
 1953 0026 07EE901A 		vmov	s15, r1	@ int
 1954 002a B8EEE77A 		vcvt.f32.s32	s14, s15
  52:Core/Src/Main/Interrupt.c **** 	Current.Velocity[RIGHT] =  (float)PulseDisplacement[RIGHT] * convert_to_velocity;
 1955              		.loc 1 52 59 view .LVU511
 1956 002e DFED5A6A 		vldr.32	s13, .L47+24
 1957 0032 27EE267A 		vmul.f32	s14, s14, s13
  52:Core/Src/Main/Interrupt.c **** 	Current.Velocity[RIGHT] =  (float)PulseDisplacement[RIGHT] * convert_to_velocity;
 1958              		.loc 1 52 25 view .LVU512
 1959 0036 5948     		ldr	r0, .L47+28
 1960 0038 80ED007A 		vstr.32	s14, [r0]
  53:Core/Src/Main/Interrupt.c **** 	Current.Velocity[BODY] = (Current.Velocity[LEFT] + Current.Velocity[RIGHT] )*0.5f;
 1961              		.loc 1 53 2 is_stmt 1 view .LVU513
  53:Core/Src/Main/Interrupt.c **** 	Current.Velocity[BODY] = (Current.Velocity[LEFT] + Current.Velocity[RIGHT] )*0.5f;
 1962              		.loc 1 53 29 is_stmt 0 view .LVU514
 1963 003c 07EE902A 		vmov	s15, r2	@ int
 1964 0040 F8EEE77A 		vcvt.f32.s32	s15, s15
ARM GAS  C:\Users\leopi\AppData\Local\Temp\ccoicnCl.s 			page 49


  53:Core/Src/Main/Interrupt.c **** 	Current.Velocity[BODY] = (Current.Velocity[LEFT] + Current.Velocity[RIGHT] )*0.5f;
 1965              		.loc 1 53 61 view .LVU515
 1966 0044 67EEA67A 		vmul.f32	s15, s15, s13
  53:Core/Src/Main/Interrupt.c **** 	Current.Velocity[BODY] = (Current.Velocity[LEFT] + Current.Velocity[RIGHT] )*0.5f;
 1967              		.loc 1 53 26 view .LVU516
 1968 0048 C0ED017A 		vstr.32	s15, [r0, #4]
  54:Core/Src/Main/Interrupt.c **** 
 1969              		.loc 1 54 2 is_stmt 1 view .LVU517
  54:Core/Src/Main/Interrupt.c **** 
 1970              		.loc 1 54 44 is_stmt 0 view .LVU518
 1971 004c D0ED007A 		vldr.32	s15, [r0]
  54:Core/Src/Main/Interrupt.c **** 
 1972              		.loc 1 54 69 view .LVU519
 1973 0050 90ED017A 		vldr.32	s14, [r0, #4]
  54:Core/Src/Main/Interrupt.c **** 
 1974              		.loc 1 54 51 view .LVU520
 1975 0054 77EE877A 		vadd.f32	s15, s15, s14
  54:Core/Src/Main/Interrupt.c **** 
 1976              		.loc 1 54 78 view .LVU521
 1977 0058 B6EE007A 		vmov.f32	s14, #5.0e-1
 1978 005c 67EE877A 		vmul.f32	s15, s15, s14
  54:Core/Src/Main/Interrupt.c **** 
 1979              		.loc 1 54 25 view .LVU522
 1980 0060 C0ED027A 		vstr.32	s15, [r0, #8]
  57:Core/Src/Main/Interrupt.c **** 	TotalPulse[RIGHT] += PulseDisplacement[RIGHT];
 1981              		.loc 1 57 2 is_stmt 1 view .LVU523
  57:Core/Src/Main/Interrupt.c **** 	TotalPulse[RIGHT] += PulseDisplacement[RIGHT];
 1982              		.loc 1 57 19 is_stmt 0 view .LVU524
 1983 0064 4E4B     		ldr	r3, .L47+32
 1984 0066 1C68     		ldr	r4, [r3]
 1985 0068 2144     		add	r1, r1, r4
 1986 006a 1960     		str	r1, [r3]
  58:Core/Src/Main/Interrupt.c **** 	TotalPulse[BODY] = TotalPulse[LEFT]+TotalPulse[RIGHT];
 1987              		.loc 1 58 2 is_stmt 1 view .LVU525
  58:Core/Src/Main/Interrupt.c **** 	TotalPulse[BODY] = TotalPulse[LEFT]+TotalPulse[RIGHT];
 1988              		.loc 1 58 20 is_stmt 0 view .LVU526
 1989 006c 5968     		ldr	r1, [r3, #4]
 1990 006e 0A44     		add	r2, r2, r1
 1991 0070 5A60     		str	r2, [r3, #4]
  59:Core/Src/Main/Interrupt.c **** }
 1992              		.loc 1 59 2 is_stmt 1 view .LVU527
  59:Core/Src/Main/Interrupt.c **** }
 1993              		.loc 1 59 31 is_stmt 0 view .LVU528
 1994 0072 1A68     		ldr	r2, [r3]
  59:Core/Src/Main/Interrupt.c **** }
 1995              		.loc 1 59 48 view .LVU529
 1996 0074 5968     		ldr	r1, [r3, #4]
  59:Core/Src/Main/Interrupt.c **** }
 1997              		.loc 1 59 37 view .LVU530
 1998 0076 0A44     		add	r2, r2, r1
  59:Core/Src/Main/Interrupt.c **** }
 1999              		.loc 1 59 19 view .LVU531
 2000 0078 9A60     		str	r2, [r3, #8]
 2001              	.LBE21:
 2002              	.LBE20:
 202:Core/Src/Main/Interrupt.c **** 	
 2003              		.loc 1 202 2 is_stmt 1 view .LVU532
ARM GAS  C:\Users\leopi\AppData\Local\Temp\ccoicnCl.s 			page 50


 2004 007a 00F11801 		add	r1, r0, #24
 2005 007e 0C30     		adds	r0, r0, #12
 2006 0080 FFF7FEFF 		bl	Update_IMU
 2007              	.LVL181:
 205:Core/Src/Main/Interrupt.c **** 		// target->AngularV = (float)a_velo_out;
 2008              		.loc 1 205 2 view .LVU533
 205:Core/Src/Main/Interrupt.c **** 		// target->AngularV = (float)a_velo_out;
 2009              		.loc 1 205 5 is_stmt 0 view .LVU534
 2010 0084 0020     		movs	r0, #0
 2011 0086 FFF7FEFF 		bl	PIDGetFlag
 2012              	.LVL182:
 205:Core/Src/Main/Interrupt.c **** 		// target->AngularV = (float)a_velo_out;
 2013              		.loc 1 205 4 view .LVU535
 2014 008a 0128     		cmp	r0, #1
 2015 008c 71D1     		bne	.L44
 207:Core/Src/Main/Interrupt.c **** 		Target.Velocity[BODY] += Target.Acceleration;
 2016              		.loc 1 207 3 is_stmt 1 view .LVU536
 207:Core/Src/Main/Interrupt.c **** 		Target.Velocity[BODY] += Target.Acceleration;
 2017              		.loc 1 207 28 is_stmt 0 view .LVU537
 2018 008e 454B     		ldr	r3, .L47+36
 2019 0090 93ED0C7A 		vldr.32	s14, [r3, #48]
 207:Core/Src/Main/Interrupt.c **** 		Target.Velocity[BODY] += Target.Acceleration;
 2020              		.loc 1 207 19 view .LVU538
 2021 0094 D3ED037A 		vldr.32	s15, [r3, #12]
 2022 0098 77EE877A 		vadd.f32	s15, s15, s14
 2023 009c C3ED037A 		vstr.32	s15, [r3, #12]
 208:Core/Src/Main/Interrupt.c **** 		// target->Velocity[BODY] = 0.001*PIDGetFlag(F_WALL_PID)*PIDControl(F_WALL_PID, 3800, (Current.Ph
 2024              		.loc 1 208 3 is_stmt 1 view .LVU539
 208:Core/Src/Main/Interrupt.c **** 		// target->Velocity[BODY] = 0.001*PIDGetFlag(F_WALL_PID)*PIDControl(F_WALL_PID, 3800, (Current.Ph
 2025              		.loc 1 208 34 is_stmt 0 view .LVU540
 2026 00a0 93ED0B7A 		vldr.32	s14, [r3, #44]
 208:Core/Src/Main/Interrupt.c **** 		// target->Velocity[BODY] = 0.001*PIDGetFlag(F_WALL_PID)*PIDControl(F_WALL_PID, 3800, (Current.Ph
 2027              		.loc 1 208 25 view .LVU541
 2028 00a4 D3ED027A 		vldr.32	s15, [r3, #8]
 2029 00a8 77EE877A 		vadd.f32	s15, s15, s14
 2030 00ac C3ED027A 		vstr.32	s15, [r3, #8]
 2031              	.L45:
 215:Core/Src/Main/Interrupt.c **** 	Target.Velocity[LEFT] = ( -Target.AngularV *TREAD_WIDTH ) + Target.Velocity[RIGHT];
 2032              		.loc 1 215 2 is_stmt 1 view .LVU542
 215:Core/Src/Main/Interrupt.c **** 	Target.Velocity[LEFT] = ( -Target.AngularV *TREAD_WIDTH ) + Target.Velocity[RIGHT];
 2033              		.loc 1 215 44 is_stmt 0 view .LVU543
 2034 00b0 3C4C     		ldr	r4, .L47+36
 2035 00b2 D4ED026A 		vldr.32	s13, [r4, #8]
 215:Core/Src/Main/Interrupt.c **** 	Target.Velocity[LEFT] = ( -Target.AngularV *TREAD_WIDTH ) + Target.Velocity[RIGHT];
 2036              		.loc 1 215 59 view .LVU544
 2037 00b6 94ED037A 		vldr.32	s14, [r4, #12]
 215:Core/Src/Main/Interrupt.c **** 	Target.Velocity[LEFT] = ( -Target.AngularV *TREAD_WIDTH ) + Target.Velocity[RIGHT];
 2038              		.loc 1 215 69 view .LVU545
 2039 00ba 9FED3B6A 		vldr.32	s12, .L47+40
 2040 00be 27EE067A 		vmul.f32	s14, s14, s12
 215:Core/Src/Main/Interrupt.c **** 	Target.Velocity[LEFT] = ( -Target.AngularV *TREAD_WIDTH ) + Target.Velocity[RIGHT];
 2041              		.loc 1 215 83 view .LVU546
 2042 00c2 F6EE007A 		vmov.f32	s15, #5.0e-1
 2043 00c6 27EE277A 		vmul.f32	s14, s14, s15
 215:Core/Src/Main/Interrupt.c **** 	Target.Velocity[LEFT] = ( -Target.AngularV *TREAD_WIDTH ) + Target.Velocity[RIGHT];
 2044              		.loc 1 215 51 view .LVU547
 2045 00ca 36EE877A 		vadd.f32	s14, s13, s14
ARM GAS  C:\Users\leopi\AppData\Local\Temp\ccoicnCl.s 			page 51


 215:Core/Src/Main/Interrupt.c **** 	Target.Velocity[LEFT] = ( -Target.AngularV *TREAD_WIDTH ) + Target.Velocity[RIGHT];
 2046              		.loc 1 215 25 view .LVU548
 2047 00ce 84ED017A 		vstr.32	s14, [r4, #4]
 216:Core/Src/Main/Interrupt.c **** 
 2048              		.loc 1 216 2 is_stmt 1 view .LVU549
 216:Core/Src/Main/Interrupt.c **** 
 2049              		.loc 1 216 35 is_stmt 0 view .LVU550
 2050 00d2 D4ED037A 		vldr.32	s15, [r4, #12]
 216:Core/Src/Main/Interrupt.c **** 
 2051              		.loc 1 216 45 view .LVU551
 2052 00d6 67EEC67A 		vnmul.f32	s15, s15, s12
 216:Core/Src/Main/Interrupt.c **** 
 2053              		.loc 1 216 77 view .LVU552
 2054 00da 94ED017A 		vldr.32	s14, [r4, #4]
 216:Core/Src/Main/Interrupt.c **** 
 2055              		.loc 1 216 60 view .LVU553
 2056 00de 77EE877A 		vadd.f32	s15, s15, s14
 216:Core/Src/Main/Interrupt.c **** 
 2057              		.loc 1 216 24 view .LVU554
 2058 00e2 C4ED007A 		vstr.32	s15, [r4]
 219:Core/Src/Main/Interrupt.c **** 	float convert_to_reg_counter = BATTERY_MAX/battery_voltage;
 2059              		.loc 1 219 2 is_stmt 1 view .LVU555
 219:Core/Src/Main/Interrupt.c **** 	float convert_to_reg_counter = BATTERY_MAX/battery_voltage;
 2060              		.loc 1 219 26 is_stmt 0 view .LVU556
 2061 00e6 9FED311A 		vldr.32	s2, .L47+44
 2062 00ea DFED310A 		vldr.32	s1, .L47+48
 2063 00ee B0EE080A 		vmov.f32	s0, #3.0e+0
 2064 00f2 304B     		ldr	r3, .L47+52
 2065 00f4 9868     		ldr	r0, [r3, #8]
 2066 00f6 FFF7FEFF 		bl	ADCToBatteryVoltage
 2067              	.LVL183:
 2068 00fa 10EE100A 		vmov	r0, s0
 2069              	.LVL184:
 220:Core/Src/Main/Interrupt.c **** 	VelocityLeftOut = convert_to_reg_counter * PIDControl( L_VELO_PID, Target.Velocity[LEFT], Current.
 2070              		.loc 1 220 2 is_stmt 1 view .LVU557
 220:Core/Src/Main/Interrupt.c **** 	VelocityLeftOut = convert_to_reg_counter * PIDControl( L_VELO_PID, Target.Velocity[LEFT], Current.
 2071              		.loc 1 220 44 is_stmt 0 view .LVU558
 2072 00fe FFF7FEFF 		bl	__aeabi_f2d
 2073              	.LVL185:
 220:Core/Src/Main/Interrupt.c **** 	VelocityLeftOut = convert_to_reg_counter * PIDControl( L_VELO_PID, Target.Velocity[LEFT], Current.
 2074              		.loc 1 220 44 view .LVU559
 2075 0102 0246     		mov	r2, r0
 2076 0104 0B46     		mov	r3, r1
 2077 0106 1EA1     		adr	r1, .L47
 2078 0108 D1E90001 		ldrd	r0, [r1]
 2079 010c FFF7FEFF 		bl	__aeabi_ddiv
 2080              	.LVL186:
 220:Core/Src/Main/Interrupt.c **** 	VelocityLeftOut = convert_to_reg_counter * PIDControl( L_VELO_PID, Target.Velocity[LEFT], Current.
 2081              		.loc 1 220 8 view .LVU560
 2082 0110 FFF7FEFF 		bl	__aeabi_d2f
 2083              	.LVL187:
 2084 0114 08EE100A 		vmov	s16, r0
 2085              	.LVL188:
 221:Core/Src/Main/Interrupt.c **** 	VelocityRightOut = convert_to_reg_counter * PIDControl( R_VELO_PID, Target.Velocity[RIGHT], Curren
 2086              		.loc 1 221 2 is_stmt 1 view .LVU561
 221:Core/Src/Main/Interrupt.c **** 	VelocityRightOut = convert_to_reg_counter * PIDControl( R_VELO_PID, Target.Velocity[RIGHT], Curren
 2087              		.loc 1 221 45 is_stmt 0 view .LVU562
ARM GAS  C:\Users\leopi\AppData\Local\Temp\ccoicnCl.s 			page 52


 2088 0118 94ED000A 		vldr.32	s0, [r4]
 2089 011c 1F4E     		ldr	r6, .L47+28
 2090 011e D6ED000A 		vldr.32	s1, [r6]
 2091 0122 0420     		movs	r0, #4
 2092              	.LVL189:
 221:Core/Src/Main/Interrupt.c **** 	VelocityRightOut = convert_to_reg_counter * PIDControl( R_VELO_PID, Target.Velocity[RIGHT], Curren
 2093              		.loc 1 221 45 view .LVU563
 2094 0124 FFF7FEFF 		bl	PIDControl
 2095              	.LVL190:
 2096 0128 07EE900A 		vmov	s15, r0	@ int
 221:Core/Src/Main/Interrupt.c **** 	VelocityRightOut = convert_to_reg_counter * PIDControl( R_VELO_PID, Target.Velocity[RIGHT], Curren
 2097              		.loc 1 221 43 view .LVU564
 2098 012c F8EEE77A 		vcvt.f32.s32	s15, s15
 2099 0130 67EE887A 		vmul.f32	s15, s15, s16
 221:Core/Src/Main/Interrupt.c **** 	VelocityRightOut = convert_to_reg_counter * PIDControl( R_VELO_PID, Target.Velocity[RIGHT], Curren
 2100              		.loc 1 221 18 view .LVU565
 2101 0134 204D     		ldr	r5, .L47+56
 2102 0136 FDEEE77A 		vcvt.s32.f32	s15, s15
 2103 013a C5ED007A 		vstr.32	s15, [r5]	@ int
 222:Core/Src/Main/Interrupt.c **** 
 2104              		.loc 1 222 2 is_stmt 1 view .LVU566
 222:Core/Src/Main/Interrupt.c **** 
 2105              		.loc 1 222 46 is_stmt 0 view .LVU567
 2106 013e 94ED010A 		vldr.32	s0, [r4, #4]
 2107 0142 D6ED010A 		vldr.32	s1, [r6, #4]
 2108 0146 0520     		movs	r0, #5
 2109 0148 FFF7FEFF 		bl	PIDControl
 2110              	.LVL191:
 2111 014c 07EE900A 		vmov	s15, r0	@ int
 222:Core/Src/Main/Interrupt.c **** 
 2112              		.loc 1 222 44 view .LVU568
 2113 0150 F8EEE77A 		vcvt.f32.s32	s15, s15
 2114 0154 67EE887A 		vmul.f32	s15, s15, s16
 222:Core/Src/Main/Interrupt.c **** 
 2115              		.loc 1 222 19 view .LVU569
 2116 0158 FDEEE77A 		vcvt.s32.f32	s15, s15
 2117 015c 17EE901A 		vmov	r1, s15	@ int
 2118 0160 164B     		ldr	r3, .L47+60
 2119 0162 C3ED007A 		vstr.32	s15, [r3]	@ int
 225:Core/Src/Main/Interrupt.c **** }
 2120              		.loc 1 225 2 is_stmt 1 view .LVU570
 2121 0166 2868     		ldr	r0, [r5]
 2122 0168 FFF7FEFF 		bl	Motor_Switch
 2123              	.LVL192:
 226:Core/Src/Main/Interrupt.c **** static void Explore_IT()
 2124              		.loc 1 226 1 is_stmt 0 view .LVU571
 2125 016c BDEC028B 		vldm	sp!, {d8}
 2126              	.LCFI22:
 2127              		.cfi_remember_state
 2128              		.cfi_restore 80
 2129              		.cfi_restore 81
 2130              		.cfi_def_cfa_offset 16
 2131              	.LVL193:
 226:Core/Src/Main/Interrupt.c **** static void Explore_IT()
 2132              		.loc 1 226 1 view .LVU572
 2133 0170 70BD     		pop	{r4, r5, r6, pc}
 2134              	.L44:
ARM GAS  C:\Users\leopi\AppData\Local\Temp\ccoicnCl.s 			page 53


 2135              	.LCFI23:
 2136              		.cfi_restore_state
 212:Core/Src/Main/Interrupt.c **** 	}
 2137              		.loc 1 212 3 is_stmt 1 view .LVU573
 2138 0172 0C4A     		ldr	r2, .L47+36
 2139 0174 0949     		ldr	r1, .L47+28
 2140 0176 1248     		ldr	r0, .L47+64
 2141 0178 FFF7FEFF 		bl	Kanayama_Calc
 2142              	.LVL194:
 2143 017c 98E7     		b	.L45
 2144              	.L48:
 2145 017e 00BF     		.align	3
 2146              	.L47:
 2147 0180 CDCCCCCC 		.word	-858993459
 2148 0184 CCCC2040 		.word	1075891404
 2149 0188 00000000 		.word	.LANCHOR0
 2150 018c 00040040 		.word	1073742848
 2151 0190 00000000 		.word	PulseDisplacement
 2152 0194 00080040 		.word	1073743872
 2153 0198 CD77813F 		.word	1065449421
 2154 019c 00000000 		.word	Current
 2155 01a0 00000000 		.word	TotalPulse
 2156 01a4 00000000 		.word	Target
 2157 01a8 9A990942 		.word	1107925402
 2158 01ac 00008045 		.word	1166016512
 2159 01b0 33335340 		.word	1079194419
 2160 01b4 00000000 		.word	adc1
 2161 01b8 00000000 		.word	VelocityLeftOut
 2162 01bc 00000000 		.word	VelocityRightOut
 2163 01c0 00000000 		.word	Next
 2164              		.cfi_endproc
 2165              	.LFE242:
 2167              		.section	.text.HAL_TIM_PeriodElapsedCallback,"ax",%progbits
 2168              		.align	1
 2169              		.global	HAL_TIM_PeriodElapsedCallback
 2170              		.syntax unified
 2171              		.thumb
 2172              		.thumb_func
 2174              	HAL_TIM_PeriodElapsedCallback:
 2175              	.LVL195:
 2176              	.LFB245:
 396:Core/Src/Main/Interrupt.c **** 
 397:Core/Src/Main/Interrupt.c **** void HAL_TIM_PeriodElapsedCallback(TIM_HandleTypeDef *htim)
 398:Core/Src/Main/Interrupt.c **** {
 2177              		.loc 1 398 1 view -0
 2178              		.cfi_startproc
 2179              		@ args = 0, pretend = 0, frame = 16
 2180              		@ frame_needed = 0, uses_anonymous_args = 0
 2181              		.loc 1 398 1 is_stmt 0 view .LVU575
 2182 0000 70B5     		push	{r4, r5, r6, lr}
 2183              	.LCFI24:
 2184              		.cfi_def_cfa_offset 16
 2185              		.cfi_offset 4, -16
 2186              		.cfi_offset 5, -12
 2187              		.cfi_offset 6, -8
 2188              		.cfi_offset 14, -4
 2189 0002 84B0     		sub	sp, sp, #16
ARM GAS  C:\Users\leopi\AppData\Local\Temp\ccoicnCl.s 			page 54


 2190              	.LCFI25:
 2191              		.cfi_def_cfa_offset 32
 2192 0004 0446     		mov	r4, r0
 399:Core/Src/Main/Interrupt.c **** 	if( htim == &htim1)
 2193              		.loc 1 399 2 is_stmt 1 view .LVU576
 2194              		.loc 1 399 4 is_stmt 0 view .LVU577
 2195 0006 364B     		ldr	r3, .L64
 2196 0008 9842     		cmp	r0, r3
 2197 000a 04D0     		beq	.L61
 2198              	.LVL196:
 2199              	.L50:
 400:Core/Src/Main/Interrupt.c **** 	{
 401:Core/Src/Main/Interrupt.c **** 
 402:Core/Src/Main/Interrupt.c **** 		switch(IT_mode){
 403:Core/Src/Main/Interrupt.c **** 		case IT_EXPLORE:
 404:Core/Src/Main/Interrupt.c **** 			Explore_IT();
 405:Core/Src/Main/Interrupt.c **** 			break;
 406:Core/Src/Main/Interrupt.c **** 		case IT_FREE:
 407:Core/Src/Main/Interrupt.c **** 			WritingFree_IT();
 408:Core/Src/Main/Interrupt.c **** 			break;
 409:Core/Src/Main/Interrupt.c **** 		case IT_IMU_TEST:
 410:Core/Src/Main/Interrupt.c **** 
 411:Core/Src/Main/Interrupt.c **** 			if(timer1 < 5000)
 412:Core/Src/Main/Interrupt.c **** 			{
 413:Core/Src/Main/Interrupt.c **** 
 414:Core/Src/Main/Interrupt.c **** 				Update_IMU(&(Current.AngularV), &(Current.Angle));
 415:Core/Src/Main/Interrupt.c **** //				debugVL[timer1] = Angle;
 416:Core/Src/Main/Interrupt.c **** 				timer1 += t;
 417:Core/Src/Main/Interrupt.c **** 			}
 418:Core/Src/Main/Interrupt.c **** 			else t = 0;
 419:Core/Src/Main/Interrupt.c **** 			break;
 420:Core/Src/Main/Interrupt.c **** 		case IT_IDENTIFY:
 421:Core/Src/Main/Interrupt.c **** 			SystemIdentify_IT();
 422:Core/Src/Main/Interrupt.c **** 			break;
 423:Core/Src/Main/Interrupt.c **** 		case IT_STEP_RESPONSE:
 424:Core/Src/Main/Interrupt.c **** 
 425:Core/Src/Main/Interrupt.c **** 			break;
 426:Core/Src/Main/Interrupt.c **** 		case IT_CONTROL_TEST:
 427:Core/Src/Main/Interrupt.c **** 			ControlTest_IT();
 428:Core/Src/Main/Interrupt.c **** 			break;
 429:Core/Src/Main/Interrupt.c **** 		case IT_KANAYAMA:
 430:Core/Src/Main/Interrupt.c **** 			Kanayama_IT();
 431:Core/Src/Main/Interrupt.c **** 			break;
 432:Core/Src/Main/Interrupt.c **** 
 433:Core/Src/Main/Interrupt.c **** 		default :
 434:Core/Src/Main/Interrupt.c **** 			break;
 435:Core/Src/Main/Interrupt.c **** 		}
 436:Core/Src/Main/Interrupt.c **** 	}
 437:Core/Src/Main/Interrupt.c **** 
 438:Core/Src/Main/Interrupt.c **** 	if( htim == &htim8)
 2200              		.loc 1 438 2 is_stmt 1 view .LVU578
 2201              		.loc 1 438 4 is_stmt 0 view .LVU579
 2202 000c 354B     		ldr	r3, .L64+4
 2203 000e 9C42     		cmp	r4, r3
 2204 0010 3BD0     		beq	.L62
 2205              	.LVL197:
 2206              	.L49:
ARM GAS  C:\Users\leopi\AppData\Local\Temp\ccoicnCl.s 			page 55


 439:Core/Src/Main/Interrupt.c **** 	{
 440:Core/Src/Main/Interrupt.c **** 		//timer8 += t;
 441:Core/Src/Main/Interrupt.c **** 
 442:Core/Src/Main/Interrupt.c **** 		//Â£Å„Çª„É≥„Çµ„Éá„Éº„Çø„ÅÆÊõ¥Êñ∞
 443:Core/Src/Main/Interrupt.c **** 		Current.Photo[FL] = GetWallDataAverage(10, adc1[0], FL);	//adc1_IN10
 444:Core/Src/Main/Interrupt.c **** 		Current.Photo[SIDE_R] = GetWallDataAverage(10, adc1[1], SIDE_R);	//adc1_IN14
 445:Core/Src/Main/Interrupt.c **** 		Current.Photo[SL] = GetWallDataAverage(10, adc2[0], SL);	//adc2_IN11
 446:Core/Src/Main/Interrupt.c **** 		Current.Photo[FR] = GetWallDataAverage(10, adc2[1], FR);	//adc2_IN15
 447:Core/Src/Main/Interrupt.c **** 		#if 1
 448:Core/Src/Main/Interrupt.c **** 			uint32_t sample[4]={
 449:Core/Src/Main/Interrupt.c **** 				adc2[0],
 450:Core/Src/Main/Interrupt.c **** 				adc1[0],
 451:Core/Src/Main/Interrupt.c **** 				adc2[1],
 452:Core/Src/Main/Interrupt.c **** 				adc1[1]
 453:Core/Src/Main/Interrupt.c **** 			};
 454:Core/Src/Main/Interrupt.c **** 			getPhotoSampleValue_uint32(&sample[0]);
 455:Core/Src/Main/Interrupt.c **** 		#else
 456:Core/Src/Main/Interrupt.c **** 			getPhotoSampleValue_float(&Photo[0]);
 457:Core/Src/Main/Interrupt.c **** 		#endif
 458:Core/Src/Main/Interrupt.c **** 	}
 459:Core/Src/Main/Interrupt.c **** }
 2207              		.loc 1 459 1 view .LVU580
 2208 0012 04B0     		add	sp, sp, #16
 2209              	.LCFI26:
 2210              		.cfi_remember_state
 2211              		.cfi_def_cfa_offset 16
 2212              		@ sp needed
 2213 0014 70BD     		pop	{r4, r5, r6, pc}
 2214              	.LVL198:
 2215              	.L61:
 2216              	.LCFI27:
 2217              		.cfi_restore_state
 402:Core/Src/Main/Interrupt.c **** 		case IT_EXPLORE:
 2218              		.loc 1 402 3 is_stmt 1 view .LVU581
 2219 0016 344B     		ldr	r3, .L64+8
 2220 0018 1B68     		ldr	r3, [r3]
 2221 001a 062B     		cmp	r3, #6
 2222 001c F6D8     		bhi	.L50
 2223 001e 01A2     		adr	r2, .L52
 2224 0020 52F823F0 		ldr	pc, [r2, r3, lsl #2]
 2225              		.p2align 2
 2226              	.L52:
 2227 0024 41000000 		.word	.L57+1
 2228 0028 47000000 		.word	.L56+1
 2229 002c 4D000000 		.word	.L55+1
 2230 0030 79000000 		.word	.L54+1
 2231 0034 0D000000 		.word	.L50+1
 2232 0038 7F000000 		.word	.L53+1
 2233 003c 85000000 		.word	.L51+1
 2234              		.p2align 1
 2235              	.L57:
 404:Core/Src/Main/Interrupt.c **** 			break;
 2236              		.loc 1 404 4 view .LVU582
 2237 0040 FFF7FEFF 		bl	Explore_IT
 2238              	.LVL199:
 405:Core/Src/Main/Interrupt.c **** 		case IT_FREE:
 2239              		.loc 1 405 4 view .LVU583
ARM GAS  C:\Users\leopi\AppData\Local\Temp\ccoicnCl.s 			page 56


 2240 0044 E2E7     		b	.L50
 2241              	.LVL200:
 2242              	.L56:
 407:Core/Src/Main/Interrupt.c **** 			break;
 2243              		.loc 1 407 4 view .LVU584
 2244 0046 FFF7FEFF 		bl	WritingFree_IT
 2245              	.LVL201:
 408:Core/Src/Main/Interrupt.c **** 		case IT_IMU_TEST:
 2246              		.loc 1 408 4 view .LVU585
 2247 004a DFE7     		b	.L50
 2248              	.LVL202:
 2249              	.L55:
 411:Core/Src/Main/Interrupt.c **** 			{
 2250              		.loc 1 411 4 view .LVU586
 411:Core/Src/Main/Interrupt.c **** 			{
 2251              		.loc 1 411 14 is_stmt 0 view .LVU587
 2252 004c 274B     		ldr	r3, .L64+12
 2253 004e 1A68     		ldr	r2, [r3]
 411:Core/Src/Main/Interrupt.c **** 			{
 2254              		.loc 1 411 6 view .LVU588
 2255 0050 41F28733 		movw	r3, #4999
 2256 0054 9A42     		cmp	r2, r3
 2257 0056 03DD     		ble	.L63
 418:Core/Src/Main/Interrupt.c **** 			break;
 2258              		.loc 1 418 9 is_stmt 1 view .LVU589
 418:Core/Src/Main/Interrupt.c **** 			break;
 2259              		.loc 1 418 11 is_stmt 0 view .LVU590
 2260 0058 254B     		ldr	r3, .L64+16
 2261 005a 0022     		movs	r2, #0
 2262 005c 1A60     		str	r2, [r3]
 2263 005e D5E7     		b	.L50
 2264              	.L63:
 414:Core/Src/Main/Interrupt.c **** //				debugVL[timer1] = Angle;
 2265              		.loc 1 414 5 is_stmt 1 view .LVU591
 2266 0060 2449     		ldr	r1, .L64+20
 2267 0062 A1F10C00 		sub	r0, r1, #12
 2268              	.LVL203:
 414:Core/Src/Main/Interrupt.c **** //				debugVL[timer1] = Angle;
 2269              		.loc 1 414 5 is_stmt 0 view .LVU592
 2270 0066 FFF7FEFF 		bl	Update_IMU
 2271              	.LVL204:
 416:Core/Src/Main/Interrupt.c **** 			}
 2272              		.loc 1 416 5 is_stmt 1 view .LVU593
 416:Core/Src/Main/Interrupt.c **** 			}
 2273              		.loc 1 416 12 is_stmt 0 view .LVU594
 2274 006a 204A     		ldr	r2, .L64+12
 2275 006c 1368     		ldr	r3, [r2]
 2276 006e 2049     		ldr	r1, .L64+16
 2277 0070 0968     		ldr	r1, [r1]
 2278 0072 0B44     		add	r3, r3, r1
 2279 0074 1360     		str	r3, [r2]
 2280 0076 C9E7     		b	.L50
 2281              	.LVL205:
 2282              	.L54:
 421:Core/Src/Main/Interrupt.c **** 			break;
 2283              		.loc 1 421 4 is_stmt 1 view .LVU595
 2284 0078 FFF7FEFF 		bl	SystemIdentify_IT
ARM GAS  C:\Users\leopi\AppData\Local\Temp\ccoicnCl.s 			page 57


 2285              	.LVL206:
 422:Core/Src/Main/Interrupt.c **** 		case IT_STEP_RESPONSE:
 2286              		.loc 1 422 4 view .LVU596
 2287 007c C6E7     		b	.L50
 2288              	.LVL207:
 2289              	.L53:
 427:Core/Src/Main/Interrupt.c **** 			break;
 2290              		.loc 1 427 4 view .LVU597
 2291 007e FFF7FEFF 		bl	ControlTest_IT
 2292              	.LVL208:
 428:Core/Src/Main/Interrupt.c **** 		case IT_KANAYAMA:
 2293              		.loc 1 428 4 view .LVU598
 2294 0082 C3E7     		b	.L50
 2295              	.LVL209:
 2296              	.L51:
 430:Core/Src/Main/Interrupt.c **** 			break;
 2297              		.loc 1 430 4 view .LVU599
 2298 0084 FFF7FEFF 		bl	Kanayama_IT
 2299              	.LVL210:
 431:Core/Src/Main/Interrupt.c **** 
 2300              		.loc 1 431 4 view .LVU600
 2301 0088 C0E7     		b	.L50
 2302              	.L62:
 2303              	.LBB22:
 443:Core/Src/Main/Interrupt.c **** 		Current.Photo[SIDE_R] = GetWallDataAverage(10, adc1[1], SIDE_R);	//adc1_IN14
 2304              		.loc 1 443 3 view .LVU601
 443:Core/Src/Main/Interrupt.c **** 		Current.Photo[SIDE_R] = GetWallDataAverage(10, adc1[1], SIDE_R);	//adc1_IN14
 2305              		.loc 1 443 50 is_stmt 0 view .LVU602
 2306 008a 1B4C     		ldr	r4, .L64+24
 2307              	.LVL211:
 443:Core/Src/Main/Interrupt.c **** 		Current.Photo[SIDE_R] = GetWallDataAverage(10, adc1[1], SIDE_R);	//adc1_IN14
 2308              		.loc 1 443 23 view .LVU603
 2309 008c 0022     		movs	r2, #0
 2310 008e 2168     		ldr	r1, [r4]
 2311 0090 0A20     		movs	r0, #10
 2312 0092 FFF7FEFF 		bl	GetWallDataAverage
 2313              	.LVL212:
 443:Core/Src/Main/Interrupt.c **** 		Current.Photo[SIDE_R] = GetWallDataAverage(10, adc1[1], SIDE_R);	//adc1_IN14
 2314              		.loc 1 443 21 view .LVU604
 2315 0096 194E     		ldr	r6, .L64+28
 2316 0098 86ED070A 		vstr.32	s0, [r6, #28]
 444:Core/Src/Main/Interrupt.c **** 		Current.Photo[SL] = GetWallDataAverage(10, adc2[0], SL);	//adc2_IN11
 2317              		.loc 1 444 3 is_stmt 1 view .LVU605
 444:Core/Src/Main/Interrupt.c **** 		Current.Photo[SL] = GetWallDataAverage(10, adc2[0], SL);	//adc2_IN11
 2318              		.loc 1 444 27 is_stmt 0 view .LVU606
 2319 009c 0122     		movs	r2, #1
 2320 009e 6168     		ldr	r1, [r4, #4]
 2321 00a0 0A20     		movs	r0, #10
 2322 00a2 FFF7FEFF 		bl	GetWallDataAverage
 2323              	.LVL213:
 444:Core/Src/Main/Interrupt.c **** 		Current.Photo[SL] = GetWallDataAverage(10, adc2[0], SL);	//adc2_IN11
 2324              		.loc 1 444 25 view .LVU607
 2325 00a6 86ED080A 		vstr.32	s0, [r6, #32]
 445:Core/Src/Main/Interrupt.c **** 		Current.Photo[FR] = GetWallDataAverage(10, adc2[1], FR);	//adc2_IN15
 2326              		.loc 1 445 3 is_stmt 1 view .LVU608
 445:Core/Src/Main/Interrupt.c **** 		Current.Photo[FR] = GetWallDataAverage(10, adc2[1], FR);	//adc2_IN15
 2327              		.loc 1 445 50 is_stmt 0 view .LVU609
ARM GAS  C:\Users\leopi\AppData\Local\Temp\ccoicnCl.s 			page 58


 2328 00aa 154D     		ldr	r5, .L64+32
 445:Core/Src/Main/Interrupt.c **** 		Current.Photo[FR] = GetWallDataAverage(10, adc2[1], FR);	//adc2_IN15
 2329              		.loc 1 445 23 view .LVU610
 2330 00ac 0222     		movs	r2, #2
 2331 00ae 2968     		ldr	r1, [r5]
 2332 00b0 0A20     		movs	r0, #10
 2333 00b2 FFF7FEFF 		bl	GetWallDataAverage
 2334              	.LVL214:
 445:Core/Src/Main/Interrupt.c **** 		Current.Photo[FR] = GetWallDataAverage(10, adc2[1], FR);	//adc2_IN15
 2335              		.loc 1 445 21 view .LVU611
 2336 00b6 86ED090A 		vstr.32	s0, [r6, #36]
 446:Core/Src/Main/Interrupt.c **** 		#if 1
 2337              		.loc 1 446 3 is_stmt 1 view .LVU612
 446:Core/Src/Main/Interrupt.c **** 		#if 1
 2338              		.loc 1 446 23 is_stmt 0 view .LVU613
 2339 00ba 0322     		movs	r2, #3
 2340 00bc 6968     		ldr	r1, [r5, #4]
 2341 00be 0A20     		movs	r0, #10
 2342 00c0 FFF7FEFF 		bl	GetWallDataAverage
 2343              	.LVL215:
 446:Core/Src/Main/Interrupt.c **** 		#if 1
 2344              		.loc 1 446 21 view .LVU614
 2345 00c4 86ED0A0A 		vstr.32	s0, [r6, #40]
 448:Core/Src/Main/Interrupt.c **** 				adc2[0],
 2346              		.loc 1 448 4 is_stmt 1 view .LVU615
 449:Core/Src/Main/Interrupt.c **** 				adc1[0],
 2347              		.loc 1 449 9 is_stmt 0 view .LVU616
 2348 00c8 2B68     		ldr	r3, [r5]
 448:Core/Src/Main/Interrupt.c **** 				adc2[0],
 2349              		.loc 1 448 13 view .LVU617
 2350 00ca 0093     		str	r3, [sp]
 450:Core/Src/Main/Interrupt.c **** 				adc2[1],
 2351              		.loc 1 450 9 view .LVU618
 2352 00cc 2368     		ldr	r3, [r4]
 448:Core/Src/Main/Interrupt.c **** 				adc2[0],
 2353              		.loc 1 448 13 view .LVU619
 2354 00ce 0193     		str	r3, [sp, #4]
 451:Core/Src/Main/Interrupt.c **** 				adc1[1]
 2355              		.loc 1 451 9 view .LVU620
 2356 00d0 6B68     		ldr	r3, [r5, #4]
 448:Core/Src/Main/Interrupt.c **** 				adc2[0],
 2357              		.loc 1 448 13 view .LVU621
 2358 00d2 0293     		str	r3, [sp, #8]
 452:Core/Src/Main/Interrupt.c **** 			};
 2359              		.loc 1 452 9 view .LVU622
 2360 00d4 6368     		ldr	r3, [r4, #4]
 448:Core/Src/Main/Interrupt.c **** 				adc2[0],
 2361              		.loc 1 448 13 view .LVU623
 2362 00d6 0393     		str	r3, [sp, #12]
 454:Core/Src/Main/Interrupt.c **** 		#else
 2363              		.loc 1 454 4 is_stmt 1 view .LVU624
 2364 00d8 6846     		mov	r0, sp
 2365 00da FFF7FEFF 		bl	getPhotoSampleValue_uint32
 2366              	.LVL216:
 2367              	.LBE22:
 2368              		.loc 1 459 1 is_stmt 0 view .LVU625
 2369 00de 98E7     		b	.L49
ARM GAS  C:\Users\leopi\AppData\Local\Temp\ccoicnCl.s 			page 59


 2370              	.L65:
 2371              		.align	2
 2372              	.L64:
 2373 00e0 00000000 		.word	htim1
 2374 00e4 00000000 		.word	htim8
 2375 00e8 00000000 		.word	.LANCHOR8
 2376 00ec 00000000 		.word	.LANCHOR9
 2377 00f0 00000000 		.word	.LANCHOR10
 2378 00f4 18000000 		.word	Current+24
 2379 00f8 00000000 		.word	adc1
 2380 00fc 00000000 		.word	Current
 2381 0100 00000000 		.word	adc2
 2382              		.cfi_endproc
 2383              	.LFE245:
 2385              		.global	run_log
 2386              		.global	log_velocity
 2387              		.global	convert_to_imu_yaccel
 2388              		.global	convert_to_angularv
 2389              		.global	convert_to_velocity
 2390              		.global	identify
 2391              		.global	IT_mode
 2392              		.global	tim_search
 2393              		.global	t
 2394              		.global	timer8
 2395              		.global	timer1
 2396              		.section	.bss.IT_mode,"aw",%nobits
 2397              		.align	2
 2398              		.set	.LANCHOR8,. + 0
 2401              	IT_mode:
 2402 0000 00000000 		.space	4
 2403              		.section	.bss.count.1,"aw",%nobits
 2404              		.align	2
 2405              		.set	.LANCHOR6,. + 0
 2408              	count.1:
 2409 0000 00000000 		.space	4
 2410              		.section	.bss.identify,"aw",%nobits
 2411              		.align	2
 2412              		.set	.LANCHOR5,. + 0
 2415              	identify:
 2416 0000 00000000 		.space	32
 2416      00000000 
 2416      00000000 
 2416      00000000 
 2416      00000000 
 2417              		.section	.bss.identify_count.0,"aw",%nobits
 2418              		.align	2
 2419              		.set	.LANCHOR7,. + 0
 2422              	identify_count.0:
 2423 0000 00000000 		.space	4
 2424              		.section	.bss.log_velocity,"aw",%nobits
 2425              		.align	2
 2428              	log_velocity:
 2429 0000 00000000 		.space	16
 2429      00000000 
 2429      00000000 
 2429      00000000 
 2430              		.section	.bss.t,"aw",%nobits
ARM GAS  C:\Users\leopi\AppData\Local\Temp\ccoicnCl.s 			page 60


 2431              		.align	2
 2432              		.set	.LANCHOR10,. + 0
 2435              	t:
 2436 0000 00000000 		.space	4
 2437              		.section	.bss.tim_search,"aw",%nobits
 2438              		.align	2
 2439              		.set	.LANCHOR0,. + 0
 2442              	tim_search:
 2443 0000 00000000 		.space	12
 2443      00000000 
 2443      00000000 
 2444              		.section	.bss.timer1,"aw",%nobits
 2445              		.align	2
 2446              		.set	.LANCHOR9,. + 0
 2449              	timer1:
 2450 0000 00000000 		.space	4
 2451              		.section	.bss.timer8,"aw",%nobits
 2452              		.align	2
 2455              	timer8:
 2456 0000 00000000 		.space	4
 2457              		.section	.bss.x.4,"aw",%nobits
 2458              		.align	2
 2459              		.set	.LANCHOR1,. + 0
 2462              	x.4:
 2463 0000 00000000 		.space	4
 2464              		.section	.bss.y.3,"aw",%nobits
 2465              		.align	2
 2466              		.set	.LANCHOR2,. + 0
 2469              	y.3:
 2470 0000 00000000 		.space	4
 2471              		.section	.bss.zg_last.2,"aw",%nobits
 2472              		.align	2
 2473              		.set	.LANCHOR4,. + 0
 2476              	zg_last.2:
 2477 0000 00000000 		.space	4
 2478              		.section	.data.run_log,"aw"
 2479              		.align	2
 2480              		.set	.LANCHOR3,. + 0
 2483              	run_log:
 2484 0000 00       		.byte	0
 2485 0001 000000   		.space	3
 2486 0004 AC7E0200 		.word	163500
 2487 0008 00000000 		.word	0
 2488              		.section	.rodata.convert_to_angularv,"a"
 2489              		.align	2
 2492              	convert_to_angularv:
 2493 0000 B823EE3C 		.word	1022239672
 2494              		.section	.rodata.convert_to_imu_yaccel,"a"
 2495              		.align	2
 2498              	convert_to_imu_yaccel:
 2499 0000 B02F9940 		.word	1083781040
 2500              		.section	.rodata.convert_to_velocity,"a"
 2501              		.align	2
 2504              	convert_to_velocity:
 2505 0000 CD77813F 		.word	1065449421
 2506              		.text
 2507              	.Letext0:
ARM GAS  C:\Users\leopi\AppData\Local\Temp\ccoicnCl.s 			page 61


 2508              		.file 2 "c:\\tools\\gcc-arm-none-eabi-10_2021.10\\arm-none-eabi\\include\\machine\\_default_types.
 2509              		.file 3 "c:\\tools\\gcc-arm-none-eabi-10_2021.10\\arm-none-eabi\\include\\sys\\_stdint.h"
 2510              		.file 4 "Drivers/CMSIS/Device/ST/STM32F4xx/Include/stm32f405xx.h"
 2511              		.file 5 "Drivers/STM32F4xx_HAL_Driver/Inc/stm32f4xx_hal_def.h"
 2512              		.file 6 "Drivers/STM32F4xx_HAL_Driver/Inc/stm32f4xx_hal_dma.h"
 2513              		.file 7 "Drivers/STM32F4xx_HAL_Driver/Inc/stm32f4xx_hal_tim.h"
 2514              		.file 8 "Core/Inc/Tools/Sampling.h"
 2515              		.file 9 "Core/Inc/Main/Interrupt.h"
 2516              		.file 10 "/Users/leopi/Documents/vs/S-Reo/MazeLibrary/Searching.h"
 2517              		.file 11 "Core/Inc/Main/MicroMouse.h"
 2518              		.file 12 "Core/Inc/Main/Action.h"
 2519              		.file 13 "Core/Inc/Tools/PID_Control.h"
 2520              		.file 14 "Core/Inc/HardWare/mouse_ADC.h"
 2521              		.file 15 "Core/Inc/HardWare/ICM_20648.h"
 2522              		.file 16 "Core/Inc/Tools/Convert.h"
 2523              		.file 17 "Core/Inc/HardWare/Motor_Driver.h"
 2524              		.file 18 "c:\\tools\\gcc-arm-none-eabi-10_2021.10\\arm-none-eabi\\include\\math.h"
ARM GAS  C:\Users\leopi\AppData\Local\Temp\ccoicnCl.s 			page 62


DEFINED SYMBOLS
                            *ABS*:00000000 Interrupt.c
C:\Users\leopi\AppData\Local\Temp\ccoicnCl.s:25     .text.Explore_IT:00000000 $t
C:\Users\leopi\AppData\Local\Temp\ccoicnCl.s:30     .text.Explore_IT:00000000 Explore_IT
C:\Users\leopi\AppData\Local\Temp\ccoicnCl.s:517    .text.Explore_IT:00000320 $d
C:\Users\leopi\AppData\Local\Temp\ccoicnCl.s:545    .text.Explore_IT:00000380 $t
C:\Users\leopi\AppData\Local\Temp\ccoicnCl.s:593    .text.Explore_IT:000003d8 $d
C:\Users\leopi\AppData\Local\Temp\ccoicnCl.s:602    .text.Kanayama_Calc:00000000 $t
C:\Users\leopi\AppData\Local\Temp\ccoicnCl.s:607    .text.Kanayama_Calc:00000000 Kanayama_Calc
C:\Users\leopi\AppData\Local\Temp\ccoicnCl.s:1119   .text.Kanayama_Calc:00000398 $d
C:\Users\leopi\AppData\Local\Temp\ccoicnCl.s:1129   .text.ControlTest_IT:00000000 $t
C:\Users\leopi\AppData\Local\Temp\ccoicnCl.s:1134   .text.ControlTest_IT:00000000 ControlTest_IT
C:\Users\leopi\AppData\Local\Temp\ccoicnCl.s:1319   .text.ControlTest_IT:0000010c $d
C:\Users\leopi\AppData\Local\Temp\ccoicnCl.s:1336   .text.WritingFree_IT:00000000 $t
C:\Users\leopi\AppData\Local\Temp\ccoicnCl.s:1341   .text.WritingFree_IT:00000000 WritingFree_IT
C:\Users\leopi\AppData\Local\Temp\ccoicnCl.s:1588   .text.WritingFree_IT:00000180 $d
C:\Users\leopi\AppData\Local\Temp\ccoicnCl.s:1611   .text.SystemIdentify_IT:00000000 $t
C:\Users\leopi\AppData\Local\Temp\ccoicnCl.s:1616   .text.SystemIdentify_IT:00000000 SystemIdentify_IT
C:\Users\leopi\AppData\Local\Temp\ccoicnCl.s:1877   .text.SystemIdentify_IT:0000016c $d
C:\Users\leopi\AppData\Local\Temp\ccoicnCl.s:1895   .text.Kanayama_IT:00000000 $t
C:\Users\leopi\AppData\Local\Temp\ccoicnCl.s:1900   .text.Kanayama_IT:00000000 Kanayama_IT
C:\Users\leopi\AppData\Local\Temp\ccoicnCl.s:2147   .text.Kanayama_IT:00000180 $d
C:\Users\leopi\AppData\Local\Temp\ccoicnCl.s:2168   .text.HAL_TIM_PeriodElapsedCallback:00000000 $t
C:\Users\leopi\AppData\Local\Temp\ccoicnCl.s:2174   .text.HAL_TIM_PeriodElapsedCallback:00000000 HAL_TIM_PeriodElapsedCallback
C:\Users\leopi\AppData\Local\Temp\ccoicnCl.s:2227   .text.HAL_TIM_PeriodElapsedCallback:00000024 $d
C:\Users\leopi\AppData\Local\Temp\ccoicnCl.s:2234   .text.HAL_TIM_PeriodElapsedCallback:00000040 $t
C:\Users\leopi\AppData\Local\Temp\ccoicnCl.s:2373   .text.HAL_TIM_PeriodElapsedCallback:000000e0 $d
C:\Users\leopi\AppData\Local\Temp\ccoicnCl.s:2483   .data.run_log:00000000 run_log
C:\Users\leopi\AppData\Local\Temp\ccoicnCl.s:2428   .bss.log_velocity:00000000 log_velocity
C:\Users\leopi\AppData\Local\Temp\ccoicnCl.s:2498   .rodata.convert_to_imu_yaccel:00000000 convert_to_imu_yaccel
C:\Users\leopi\AppData\Local\Temp\ccoicnCl.s:2492   .rodata.convert_to_angularv:00000000 convert_to_angularv
C:\Users\leopi\AppData\Local\Temp\ccoicnCl.s:2504   .rodata.convert_to_velocity:00000000 convert_to_velocity
C:\Users\leopi\AppData\Local\Temp\ccoicnCl.s:2415   .bss.identify:00000000 identify
C:\Users\leopi\AppData\Local\Temp\ccoicnCl.s:2401   .bss.IT_mode:00000000 IT_mode
C:\Users\leopi\AppData\Local\Temp\ccoicnCl.s:2442   .bss.tim_search:00000000 tim_search
C:\Users\leopi\AppData\Local\Temp\ccoicnCl.s:2435   .bss.t:00000000 t
C:\Users\leopi\AppData\Local\Temp\ccoicnCl.s:2455   .bss.timer8:00000000 timer8
C:\Users\leopi\AppData\Local\Temp\ccoicnCl.s:2449   .bss.timer1:00000000 timer1
C:\Users\leopi\AppData\Local\Temp\ccoicnCl.s:2397   .bss.IT_mode:00000000 $d
C:\Users\leopi\AppData\Local\Temp\ccoicnCl.s:2404   .bss.count.1:00000000 $d
C:\Users\leopi\AppData\Local\Temp\ccoicnCl.s:2408   .bss.count.1:00000000 count.1
C:\Users\leopi\AppData\Local\Temp\ccoicnCl.s:2411   .bss.identify:00000000 $d
C:\Users\leopi\AppData\Local\Temp\ccoicnCl.s:2418   .bss.identify_count.0:00000000 $d
C:\Users\leopi\AppData\Local\Temp\ccoicnCl.s:2422   .bss.identify_count.0:00000000 identify_count.0
C:\Users\leopi\AppData\Local\Temp\ccoicnCl.s:2425   .bss.log_velocity:00000000 $d
C:\Users\leopi\AppData\Local\Temp\ccoicnCl.s:2431   .bss.t:00000000 $d
C:\Users\leopi\AppData\Local\Temp\ccoicnCl.s:2438   .bss.tim_search:00000000 $d
C:\Users\leopi\AppData\Local\Temp\ccoicnCl.s:2445   .bss.timer1:00000000 $d
C:\Users\leopi\AppData\Local\Temp\ccoicnCl.s:2452   .bss.timer8:00000000 $d
C:\Users\leopi\AppData\Local\Temp\ccoicnCl.s:2458   .bss.x.4:00000000 $d
C:\Users\leopi\AppData\Local\Temp\ccoicnCl.s:2462   .bss.x.4:00000000 x.4
C:\Users\leopi\AppData\Local\Temp\ccoicnCl.s:2465   .bss.y.3:00000000 $d
C:\Users\leopi\AppData\Local\Temp\ccoicnCl.s:2469   .bss.y.3:00000000 y.3
C:\Users\leopi\AppData\Local\Temp\ccoicnCl.s:2472   .bss.zg_last.2:00000000 $d
C:\Users\leopi\AppData\Local\Temp\ccoicnCl.s:2476   .bss.zg_last.2:00000000 zg_last.2
C:\Users\leopi\AppData\Local\Temp\ccoicnCl.s:2479   .data.run_log:00000000 $d
C:\Users\leopi\AppData\Local\Temp\ccoicnCl.s:2489   .rodata.convert_to_angularv:00000000 $d
ARM GAS  C:\Users\leopi\AppData\Local\Temp\ccoicnCl.s 			page 63


C:\Users\leopi\AppData\Local\Temp\ccoicnCl.s:2495   .rodata.convert_to_imu_yaccel:00000000 $d
C:\Users\leopi\AppData\Local\Temp\ccoicnCl.s:2501   .rodata.convert_to_velocity:00000000 $d

UNDEFINED SYMBOLS
__aeabi_f2d
__aeabi_dmul
__aeabi_dadd
__aeabi_d2f
__aeabi_ddiv
countTimElapsed
Update_IMU
sin
cos
ADCToBatteryVoltage
PIDControl
Motor_Switch
flashFloatLog
PulseDisplacement
Current
TotalPulse
Pid
Target
adc1
VelocityLeftOut
VelocityRightOut
PhotoDiff
PIDGetFlag
ReadIMU
ZGyro
zg_offset
convert_to_imu_angv
getIdentifyMode
getLoggerFlag
getFloatLog
getIdentifyInputCount
Next
GetWallDataAverage
getPhotoSampleValue_uint32
htim1
htim8
adc2
