ARM GAS  C:\Users\leopi\AppData\Local\Temp\ccCucymd.s 			page 1


   1              		.cpu cortex-m4
   2              		.arch armv7e-m
   3              		.fpu fpv4-sp-d16
   4              		.eabi_attribute 27, 1
   5              		.eabi_attribute 28, 1
   6              		.eabi_attribute 20, 1
   7              		.eabi_attribute 21, 1
   8              		.eabi_attribute 23, 3
   9              		.eabi_attribute 24, 1
  10              		.eabi_attribute 25, 1
  11              		.eabi_attribute 26, 1
  12              		.eabi_attribute 30, 1
  13              		.eabi_attribute 34, 1
  14              		.eabi_attribute 18, 4
  15              		.file	"IR_Emitter.c"
  16              		.text
  17              	.Ltext0:
  18              		.cfi_sections	.debug_frame
  19              		.section	.text.EmitterON,"ax",%progbits
  20              		.align	1
  21              		.global	EmitterON
  22              		.syntax unified
  23              		.thumb
  24              		.thumb_func
  26              	EmitterON:
  27              	.LFB235:
  28              		.file 1 "Core/Src/Hw/IR_Emitter.c"
   1:Core/Src/Hw/IR_Emitter.c **** /*
   2:Core/Src/Hw/IR_Emitter.c ****  * IR_Emitter.c
   3:Core/Src/Hw/IR_Emitter.c ****  *
   4:Core/Src/Hw/IR_Emitter.c ****  *  Created on: 2022/02/15
   5:Core/Src/Hw/IR_Emitter.c ****  *      Author: leopi
   6:Core/Src/Hw/IR_Emitter.c ****  */
   7:Core/Src/Hw/IR_Emitter.c **** 
   8:Core/Src/Hw/IR_Emitter.c **** #include "IR_Emitter.h"
   9:Core/Src/Hw/IR_Emitter.c **** 
  10:Core/Src/Hw/IR_Emitter.c **** void EmitterON()
  11:Core/Src/Hw/IR_Emitter.c **** {
  29              		.loc 1 11 1 view -0
  30              		.cfi_startproc
  31              		@ args = 0, pretend = 0, frame = 0
  32              		@ frame_needed = 0, uses_anonymous_args = 0
  33 0000 10B5     		push	{r4, lr}
  34              	.LCFI0:
  35              		.cfi_def_cfa_offset 8
  36              		.cfi_offset 4, -8
  37              		.cfi_offset 14, -4
  12:Core/Src/Hw/IR_Emitter.c **** 	  HAL_TIM_OC_Start_IT(&htim8,TIM_CHANNEL_1);
  38              		.loc 1 12 4 view .LVU1
  39 0002 054C     		ldr	r4, .L3
  40 0004 0021     		movs	r1, #0
  41 0006 2046     		mov	r0, r4
  42 0008 FFF7FEFF 		bl	HAL_TIM_OC_Start_IT
  43              	.LVL0:
  13:Core/Src/Hw/IR_Emitter.c **** 	  HAL_TIMEx_OCN_Start_IT(&htim8, TIM_CHANNEL_1); // 位相
  44              		.loc 1 13 4 view .LVU2
  45 000c 0021     		movs	r1, #0
ARM GAS  C:\Users\leopi\AppData\Local\Temp\ccCucymd.s 			page 2


  46 000e 2046     		mov	r0, r4
  47 0010 FFF7FEFF 		bl	HAL_TIMEx_OCN_Start_IT
  48              	.LVL1:
  14:Core/Src/Hw/IR_Emitter.c **** 
  15:Core/Src/Hw/IR_Emitter.c **** }
  49              		.loc 1 15 1 is_stmt 0 view .LVU3
  50 0014 10BD     		pop	{r4, pc}
  51              	.L4:
  52 0016 00BF     		.align	2
  53              	.L3:
  54 0018 00000000 		.word	htim8
  55              		.cfi_endproc
  56              	.LFE235:
  58              		.section	.text.EmitterOFF,"ax",%progbits
  59              		.align	1
  60              		.global	EmitterOFF
  61              		.syntax unified
  62              		.thumb
  63              		.thumb_func
  65              	EmitterOFF:
  66              	.LFB236:
  16:Core/Src/Hw/IR_Emitter.c **** void EmitterOFF()
  17:Core/Src/Hw/IR_Emitter.c **** {
  67              		.loc 1 17 1 is_stmt 1 view -0
  68              		.cfi_startproc
  69              		@ args = 0, pretend = 0, frame = 0
  70              		@ frame_needed = 0, uses_anonymous_args = 0
  71 0000 10B5     		push	{r4, lr}
  72              	.LCFI1:
  73              		.cfi_def_cfa_offset 8
  74              		.cfi_offset 4, -8
  75              		.cfi_offset 14, -4
  18:Core/Src/Hw/IR_Emitter.c **** 	  HAL_TIM_OC_Stop_IT(&htim8,TIM_CHANNEL_1);
  76              		.loc 1 18 4 view .LVU5
  77 0002 054C     		ldr	r4, .L7
  78 0004 0021     		movs	r1, #0
  79 0006 2046     		mov	r0, r4
  80 0008 FFF7FEFF 		bl	HAL_TIM_OC_Stop_IT
  81              	.LVL2:
  19:Core/Src/Hw/IR_Emitter.c **** 	  HAL_TIMEx_OCN_Stop_IT(&htim8, TIM_CHANNEL_1); // 位相
  82              		.loc 1 19 4 view .LVU6
  83 000c 0021     		movs	r1, #0
  84 000e 2046     		mov	r0, r4
  85 0010 FFF7FEFF 		bl	HAL_TIMEx_OCN_Stop_IT
  86              	.LVL3:
  20:Core/Src/Hw/IR_Emitter.c **** 
  21:Core/Src/Hw/IR_Emitter.c **** }
  87              		.loc 1 21 1 is_stmt 0 view .LVU7
  88 0014 10BD     		pop	{r4, pc}
  89              	.L8:
  90 0016 00BF     		.align	2
  91              	.L7:
  92 0018 00000000 		.word	htim8
  93              		.cfi_endproc
  94              	.LFE236:
  96              		.text
  97              	.Letext0:
ARM GAS  C:\Users\leopi\AppData\Local\Temp\ccCucymd.s 			page 3


  98              		.file 2 "c:\\tools\\gcc-arm-none-eabi-10_2021.10\\arm-none-eabi\\include\\machine\\_default_types.
  99              		.file 3 "c:\\tools\\gcc-arm-none-eabi-10_2021.10\\arm-none-eabi\\include\\sys\\_stdint.h"
 100              		.file 4 "Drivers/CMSIS/Device/ST/STM32F4xx/Include/stm32f405xx.h"
 101              		.file 5 "Drivers/STM32F4xx_HAL_Driver/Inc/stm32f4xx_hal_def.h"
 102              		.file 6 "Drivers/STM32F4xx_HAL_Driver/Inc/stm32f4xx_hal_dma.h"
 103              		.file 7 "Drivers/STM32F4xx_HAL_Driver/Inc/stm32f4xx_hal_tim.h"
 104              		.file 8 "Drivers/STM32F4xx_HAL_Driver/Inc/stm32f4xx_hal_tim_ex.h"
 105              		.file 9 "Core/Inc/Hw/IR_Emitter.h"
ARM GAS  C:\Users\leopi\AppData\Local\Temp\ccCucymd.s 			page 4

