ARM GAS  C:\Users\leopi\AppData\Local\Temp\ccXD2Jgg.s 			page 1


   1              		.cpu cortex-m4
   2              		.arch armv7e-m
   3              		.fpu fpv4-sp-d16
   4              		.eabi_attribute 27, 1
   5              		.eabi_attribute 28, 1
   6              		.eabi_attribute 20, 1
   7              		.eabi_attribute 21, 1
   8              		.eabi_attribute 23, 3
   9              		.eabi_attribute 24, 1
  10              		.eabi_attribute 25, 1
  11              		.eabi_attribute 26, 1
  12              		.eabi_attribute 30, 1
  13              		.eabi_attribute 34, 1
  14              		.eabi_attribute 18, 4
  15              		.file	"main.c"
  16              		.text
  17              	.Ltext0:
  18              		.cfi_sections	.debug_frame
  19              		.section	.text.HAL_UART_RxCpltCallback,"ax",%progbits
  20              		.align	1
  21              		.global	HAL_UART_RxCpltCallback
  22              		.syntax unified
  23              		.thumb
  24              		.thumb_func
  26              	HAL_UART_RxCpltCallback:
  27              	.LVL0:
  28              	.LFB238:
  29              		.file 1 "Core/Src/main.c"
   1:Core/Src/main.c **** /* USER CODE BEGIN Header */
   2:Core/Src/main.c **** /* Variable rules */
   3:Core/Src/main.c **** // Grobal Variable  :  grobal, variable...
   4:Core/Src/main.c **** // Local Variable  :  Local, Variable...
   5:Core/Src/main.c **** // Macro  :  MACRO, DEIFNE...
   6:Core/Src/main.c **** /**
   7:Core/Src/main.c ****   ******************************************************************************
   8:Core/Src/main.c ****   * @file           : main.c
   9:Core/Src/main.c ****   * @brief          : Main program body
  10:Core/Src/main.c ****   ******************************************************************************
  11:Core/Src/main.c ****   * @attention
  12:Core/Src/main.c ****   *
  13:Core/Src/main.c ****   * <h2><center>&copy; Copyright (c) 2021 STMicroelectronics.
  14:Core/Src/main.c ****   * All rights reserved.</center></h2>
  15:Core/Src/main.c ****   *
  16:Core/Src/main.c ****   * This software component is licensed by ST under BSD 3-Clause license,
  17:Core/Src/main.c ****   * the "License"; You may not use this file except in compliance with the
  18:Core/Src/main.c ****   * License. You may obtain a copy of the License at:
  19:Core/Src/main.c ****   *                        opensource.org/licenses/BSD-3-Clause
  20:Core/Src/main.c ****   *
  21:Core/Src/main.c ****   ******************************************************************************
  22:Core/Src/main.c ****   */
  23:Core/Src/main.c **** /* USER CODE END Header */
  24:Core/Src/main.c **** /* Includes ------------------------------------------------------------------*/
  25:Core/Src/main.c **** #include "main.h"
  26:Core/Src/main.c **** #include "adc.h"
  27:Core/Src/main.c **** #include "dma.h"
  28:Core/Src/main.c **** #include "spi.h"
  29:Core/Src/main.c **** #include "tim.h"
ARM GAS  C:\Users\leopi\AppData\Local\Temp\ccXD2Jgg.s 			page 2


  30:Core/Src/main.c **** #include "usart.h"
  31:Core/Src/main.c **** #include "gpio.h"
  32:Core/Src/main.c **** 
  33:Core/Src/main.c **** /* Private includes ----------------------------------------------------------*/
  34:Core/Src/main.c **** /* USER CODE BEGIN Includes */
  35:Core/Src/main.c **** #include "math.h"
  36:Core/Src/main.c **** #include "stdlib.h"
  37:Core/Src/main.c **** #include "stdio.h"
  38:Core/Src/main.c **** #include "stdbool.h"
  39:Core/Src/main.c **** #include "string.h"
  40:Core/Src/main.c **** #include "stdint.h"
  41:Core/Src/main.c **** #include "stm32f4xx_hal_tim.h"
  42:Core/Src/main.c **** 
  43:Core/Src/main.c **** #include "mouse_ADC.h"
  44:Core/Src/main.c **** #include "UI.h"
  45:Core/Src/main.c **** #include "Mode.h"
  46:Core/Src/main.c **** #include "PID_Control.h"
  47:Core/Src/main.c **** #include "MicroMouse.h"
  48:Core/Src/main.c **** #include "Running.h"
  49:Core/Src/main.c **** 
  50:Core/Src/main.c **** // #include "LED_Driver.h"
  51:Core/Src/main.c **** #include "IR_Emitter.h"
  52:Core/Src/main.c **** // #include "Motor_Driver.h"
  53:Core/Src/main.c **** // #include "ICM_20648.h"
  54:Core/Src/main.c **** // #include "IEH2_4096.h"
  55:Core/Src/main.c **** // #include "Convert.h"
  56:Core/Src/main.c **** // #include "Interrupt.h"
  57:Core/Src/main.c **** //#include <HPP/wrapper.hpp>
  58:Core/Src/main.c **** /* USER CODE END Includes */
  59:Core/Src/main.c **** 
  60:Core/Src/main.c **** /* Private typedef -----------------------------------------------------------*/
  61:Core/Src/main.c **** /* USER CODE BEGIN PTD */
  62:Core/Src/main.c **** 
  63:Core/Src/main.c **** /* USER CODE END PTD */
  64:Core/Src/main.c **** 
  65:Core/Src/main.c **** /* Private define ------------------------------------------------------------*/
  66:Core/Src/main.c **** /* USER CODE BEGIN PD */
  67:Core/Src/main.c **** 
  68:Core/Src/main.c **** /* USER CODE END PD */
  69:Core/Src/main.c **** 
  70:Core/Src/main.c **** /* Private macro -------------------------------------------------------------*/
  71:Core/Src/main.c **** /* USER CODE BEGIN PM */
  72:Core/Src/main.c **** 
  73:Core/Src/main.c **** /* USER CODE END PM */
  74:Core/Src/main.c **** 
  75:Core/Src/main.c **** /* Private variables ---------------------------------------------------------*/
  76:Core/Src/main.c **** 
  77:Core/Src/main.c **** /* USER CODE BEGIN PV */
  78:Core/Src/main.c **** 
  79:Core/Src/main.c **** /* USER CODE END PV */
  80:Core/Src/main.c **** 
  81:Core/Src/main.c **** /* Private function prototypes -----------------------------------------------*/
  82:Core/Src/main.c **** void SystemClock_Config(void);
  83:Core/Src/main.c **** /* USER CODE BEGIN PFP */
  84:Core/Src/main.c **** extern void TIM5Init();
  85:Core/Src/main.c **** /* USER CODE END PFP */
  86:Core/Src/main.c **** 
ARM GAS  C:\Users\leopi\AppData\Local\Temp\ccXD2Jgg.s 			page 3


  87:Core/Src/main.c **** /* Private user code ---------------------------------------------------------*/
  88:Core/Src/main.c **** /* USER CODE BEGIN 0 */
  89:Core/Src/main.c **** 
  90:Core/Src/main.c **** /*---- DEFINING FUNCTION ----*/
  91:Core/Src/main.c **** uint8_t buf[1]={0};
  92:Core/Src/main.c **** void HAL_UART_RxCpltCallback(UART_HandleTypeDef *huart){
  30              		.loc 1 92 56 view -0
  31              		.cfi_startproc
  32              		@ args = 0, pretend = 0, frame = 0
  33              		@ frame_needed = 0, uses_anonymous_args = 0
  34              		.loc 1 92 56 is_stmt 0 view .LVU1
  35 0000 38B5     		push	{r3, r4, r5, lr}
  36              	.LCFI0:
  37              		.cfi_def_cfa_offset 16
  38              		.cfi_offset 3, -16
  39              		.cfi_offset 4, -12
  40              		.cfi_offset 5, -8
  41              		.cfi_offset 14, -4
  93:Core/Src/main.c ****   HAL_UART_Transmit_IT(&huart1, (uint8_t*)buf, sizeof(buf)/sizeof(buf[0]));
  42              		.loc 1 93 3 is_stmt 1 view .LVU2
  43 0002 084C     		ldr	r4, .L3
  44 0004 084D     		ldr	r5, .L3+4
  45 0006 0122     		movs	r2, #1
  46 0008 2146     		mov	r1, r4
  47 000a 2846     		mov	r0, r5
  48              	.LVL1:
  49              		.loc 1 93 3 is_stmt 0 view .LVU3
  50 000c FFF7FEFF 		bl	HAL_UART_Transmit_IT
  51              	.LVL2:
  94:Core/Src/main.c **** 	HAL_UART_Receive_IT(&huart1, (uint8_t*)buf, sizeof(buf)/sizeof(buf[0]));
  52              		.loc 1 94 2 is_stmt 1 view .LVU4
  53 0010 0122     		movs	r2, #1
  54 0012 2146     		mov	r1, r4
  55 0014 2846     		mov	r0, r5
  56 0016 FFF7FEFF 		bl	HAL_UART_Receive_IT
  57              	.LVL3:
  95:Core/Src/main.c ****   buf[0] += 1;
  58              		.loc 1 95 3 view .LVU5
  59              		.loc 1 95 10 is_stmt 0 view .LVU6
  60 001a 2378     		ldrb	r3, [r4]	@ zero_extendqisi2
  61 001c 0133     		adds	r3, r3, #1
  62 001e 2370     		strb	r3, [r4]
  96:Core/Src/main.c **** }
  63              		.loc 1 96 1 view .LVU7
  64 0020 38BD     		pop	{r3, r4, r5, pc}
  65              	.L4:
  66 0022 00BF     		.align	2
  67              	.L3:
  68 0024 00000000 		.word	.LANCHOR0
  69 0028 00000000 		.word	huart1
  70              		.cfi_endproc
  71              	.LFE238:
  73              		.section	.text.__io_putchar,"ax",%progbits
  74              		.align	1
  75              		.global	__io_putchar
  76              		.syntax unified
  77              		.thumb
ARM GAS  C:\Users\leopi\AppData\Local\Temp\ccXD2Jgg.s 			page 4


  78              		.thumb_func
  80              	__io_putchar:
  81              	.LVL4:
  82              	.LFB241:
  97:Core/Src/main.c **** /*---- DEFINING FUNCTION END----*/
  98:Core/Src/main.c **** 
  99:Core/Src/main.c **** /* USER CODE END 0 */
 100:Core/Src/main.c **** 
 101:Core/Src/main.c **** /**
 102:Core/Src/main.c ****   * @brief  The application entry point.
 103:Core/Src/main.c ****   * @retval int
 104:Core/Src/main.c ****   */
 105:Core/Src/main.c **** int main(void)
 106:Core/Src/main.c **** {
 107:Core/Src/main.c ****   /* USER CODE BEGIN 1 */
 108:Core/Src/main.c **** 
 109:Core/Src/main.c ****   /* USER CODE END 1 */
 110:Core/Src/main.c **** 
 111:Core/Src/main.c ****   /* MCU Configuration--------------------------------------------------------*/
 112:Core/Src/main.c **** 
 113:Core/Src/main.c ****   /* Reset of all peripherals, Initializes the Flash interface and the Systick. */
 114:Core/Src/main.c ****   HAL_Init();
 115:Core/Src/main.c **** 
 116:Core/Src/main.c ****   /* USER CODE BEGIN Init */
 117:Core/Src/main.c **** 
 118:Core/Src/main.c ****   MX_GPIO_Init();
 119:Core/Src/main.c ****   MX_DMA_Init();
 120:Core/Src/main.c ****   MX_ADC1_Init();
 121:Core/Src/main.c ****   MX_ADC2_Init();
 122:Core/Src/main.c ****   MX_USART1_UART_Init();
 123:Core/Src/main.c **** 
 124:Core/Src/main.c **** 	ADCStart();
 125:Core/Src/main.c **** 	MX_TIM3_Init();
 126:Core/Src/main.c **** 	BatteryCheck( (int)adc1[2] );
 127:Core/Src/main.c **** 	ADCStop();
 128:Core/Src/main.c **** 
 129:Core/Src/main.c ****  
 130:Core/Src/main.c **** 	int8_t startup_mode;
 131:Core/Src/main.c **** 	ModeSelect(0, 7, &startup_mode);
 132:Core/Src/main.c **** 	Signal( startup_mode );
 133:Core/Src/main.c ****   //printf("adc1[2] : %lu\r\n ",adc1[2]);
 134:Core/Src/main.c **** 
 135:Core/Src/main.c **** 
 136:Core/Src/main.c ****   /* USER CODE END Init */
 137:Core/Src/main.c **** 
 138:Core/Src/main.c ****   /* Configure the system clock */
 139:Core/Src/main.c ****   SystemClock_Config();
 140:Core/Src/main.c **** 
 141:Core/Src/main.c ****   /* USER CODE BEGIN SysInit */
 142:Core/Src/main.c **** 
 143:Core/Src/main.c ****   /* USER CODE END SysInit */
 144:Core/Src/main.c **** 
 145:Core/Src/main.c ****   /* Initialize all configured peripherals */
 146:Core/Src/main.c ****   MX_GPIO_Init();
 147:Core/Src/main.c ****   MX_DMA_Init();
 148:Core/Src/main.c ****   MX_ADC1_Init();
 149:Core/Src/main.c ****   MX_ADC2_Init();
ARM GAS  C:\Users\leopi\AppData\Local\Temp\ccXD2Jgg.s 			page 5


 150:Core/Src/main.c ****   MX_TIM3_Init();
 151:Core/Src/main.c ****   MX_TIM2_Init();
 152:Core/Src/main.c ****   MX_SPI3_Init();
 153:Core/Src/main.c ****   MX_USART1_UART_Init();
 154:Core/Src/main.c ****   MX_TIM5_Init();
 155:Core/Src/main.c ****   MX_TIM4_Init();
 156:Core/Src/main.c ****   MX_TIM8_Init();
 157:Core/Src/main.c ****   MX_TIM1_Init();
 158:Core/Src/main.c ****   /* USER CODE BEGIN 2 */
 159:Core/Src/main.c ****   HAL_UART_Receive_IT(&huart1, (uint8_t*)buf, sizeof(buf)/sizeof(buf[0]));
 160:Core/Src/main.c ****   /* USER CODE END 2 */
 161:Core/Src/main.c **** 
 162:Core/Src/main.c ****   /* Infinite loop */
 163:Core/Src/main.c ****   /* USER CODE BEGIN WHILE */
 164:Core/Src/main.c **** 
 165:Core/Src/main.c **** //  PIDSetGain(L_VELO_PID, 14.6, 2800,0.001); //今まで
 166:Core/Src/main.c **** //  PIDSetGain(R_VELO_PID, 14.6, 2800,0.001);
 167:Core/Src/main.c ****   
 168:Core/Src/main.c **** #if 0// 20kHzのゲイン
 169:Core/Src/main.c ****   PIDSetGain(L_VELO_PID, 16.35,5000,0);
 170:Core/Src/main.c ****   PIDSetGain(R_VELO_PID, 16.35,5000,0);
 171:Core/Src/main.c **** 
 172:Core/Src/main.c ****   PIDSetGain(A_VELO_PID, 37.5, 80, 0); //42 //P=14.6
 173:Core/Src/main.c ****   PIDSetGain(F_WALL_PID, 14.6*2.5,0, 0);
 174:Core/Src/main.c ****   PIDSetGain(D_WALL_PID, 6,1,0);//8,2,0);//8, 4,0);//6, 0,0);
 175:Core/Src/main.c ****   PIDSetGain(L_WALL_PID, 12,1,0);//14,4,0);//14,8,0);//12, 0,0);
 176:Core/Src/main.c ****   PIDSetGain(R_WALL_PID, 12,1,0);//14,4,0);//14,8,0);//12, 0,0);
 177:Core/Src/main.c **** #else
 178:Core/Src/main.c ****   //100kHzのゲイン:カウンタ840
 179:Core/Src/main.c ****   PIDSetGain(L_VELO_PID, 3.3,1000,0);
 180:Core/Src/main.c ****   PIDSetGain(R_VELO_PID, 3.3,1000,0);
 181:Core/Src/main.c **** 
 182:Core/Src/main.c ****   PIDSetGain(A_VELO_PID, 7.7, 18, 0); //42 //P=14.6
 183:Core/Src/main.c ****   PIDSetGain(F_WALL_PID, 14.6*2.5,0, 0);
 184:Core/Src/main.c ****   PIDSetGain(D_WALL_PID, 6,1,0);//8,2,0);//8, 4,0);//6, 0,0);
 185:Core/Src/main.c ****   PIDSetGain(L_WALL_PID, 12,1,0);//14,4,0);//14,8,0);//12, 0,0);
 186:Core/Src/main.c ****   PIDSetGain(R_WALL_PID, 12,1,0);//14,4,0);//14,8,0);//12, 0,0);
 187:Core/Src/main.c **** 
 188:Core/Src/main.c ****   // システム同定から得たゲイン
 189:Core/Src/main.c ****   // 制御周期とか合ってないのでは?
 190:Core/Src/main.c ****   // PIDSetGain(A_VELO_PID, 3.2113, 38.4531, 0.00046009); //42 //P=14.6
 191:Core/Src/main.c ****   
 192:Core/Src/main.c ****   #endif
 193:Core/Src/main.c **** 
 194:Core/Src/main.c ****   // hogehoge2
 195:Core/Src/main.c ****   // while(1){
 196:Core/Src/main.c ****   //   printf("ok! buf: %u\r\n", buf[0]);
 197:Core/Src/main.c ****   //   HAL_Delay(1000);
 198:Core/Src/main.c ****   // }
 199:Core/Src/main.c ****   while (1)
 200:Core/Src/main.c ****   {
 201:Core/Src/main.c **** 	  switch( startup_mode )
 202:Core/Src/main.c **** 	  {
 203:Core/Src/main.c **** 	  case PARAMETERSETTING:
 204:Core/Src/main.c **** 		//wall_flash_print();
 205:Core/Src/main.c **** 		  break;
 206:Core/Src/main.c **** 	  case 1:
ARM GAS  C:\Users\leopi\AppData\Local\Temp\ccXD2Jgg.s 			page 6


 207:Core/Src/main.c **** 		  GainSetting(1);
 208:Core/Src/main.c **** 		  break;
 209:Core/Src/main.c **** 	  case GAINTEST:
 210:Core/Src/main.c **** 		  GainTest();
 211:Core/Src/main.c **** 		  break;
 212:Core/Src/main.c **** 	  case DEBUGGER:
 213:Core/Src/main.c **** 		  Debug();
 214:Core/Src/main.c **** 		  break;
 215:Core/Src/main.c **** 	  case FASTEST_RUN:
 216:Core/Src/main.c **** //		  FlashReadTest();
 217:Core/Src/main.c **** 		  FastestRun();
 218:Core/Src/main.c **** 		  break;
 219:Core/Src/main.c **** 	  case IMU_TEST:
 220:Core/Src/main.c **** 		  TestIMU();
 221:Core/Src/main.c **** 		  break;
 222:Core/Src/main.c **** 	  case EXPLORE:
 223:Core/Src/main.c **** //		  FlashWriteTe87y st();
 224:Core/Src/main.c **** 		  Explore();
 225:Core/Src/main.c **** 		  break;
 226:Core/Src/main.c **** 	  case WRITINGFREE:
 227:Core/Src/main.c **** 		  WritingFree();
 228:Core/Src/main.c **** 		  break;
 229:Core/Src/main.c **** 	  default :
 230:Core/Src/main.c **** 		  break;
 231:Core/Src/main.c **** 	  }
 232:Core/Src/main.c **** 	  printf("モード選択\r\n");
 233:Core/Src/main.c **** 		ModeSelect(0, 7, &startup_mode);
 234:Core/Src/main.c **** 		Signal( startup_mode );
 235:Core/Src/main.c ****     /* USER CODE END WHILE */
 236:Core/Src/main.c **** 
 237:Core/Src/main.c ****     /* USER CODE BEGIN 3 */
 238:Core/Src/main.c ****   }
 239:Core/Src/main.c ****   /* USER CODE END 3 */
 240:Core/Src/main.c **** }
 241:Core/Src/main.c **** 
 242:Core/Src/main.c **** /**
 243:Core/Src/main.c ****   * @brief System Clock Configuration
 244:Core/Src/main.c ****   * @retval None
 245:Core/Src/main.c ****   */
 246:Core/Src/main.c **** void SystemClock_Config(void)
 247:Core/Src/main.c **** {
 248:Core/Src/main.c ****   RCC_OscInitTypeDef RCC_OscInitStruct = {0};
 249:Core/Src/main.c ****   RCC_ClkInitTypeDef RCC_ClkInitStruct = {0};
 250:Core/Src/main.c **** 
 251:Core/Src/main.c ****   /** Configure the main internal regulator output voltage
 252:Core/Src/main.c ****   */
 253:Core/Src/main.c ****   __HAL_RCC_PWR_CLK_ENABLE();
 254:Core/Src/main.c ****   __HAL_PWR_VOLTAGESCALING_CONFIG(PWR_REGULATOR_VOLTAGE_SCALE1);
 255:Core/Src/main.c **** 
 256:Core/Src/main.c ****   /** Initializes the RCC Oscillators according to the specified parameters
 257:Core/Src/main.c ****   * in the RCC_OscInitTypeDef structure.
 258:Core/Src/main.c ****   */
 259:Core/Src/main.c ****   RCC_OscInitStruct.OscillatorType = RCC_OSCILLATORTYPE_HSE;
 260:Core/Src/main.c ****   RCC_OscInitStruct.HSEState = RCC_HSE_BYPASS;
 261:Core/Src/main.c ****   RCC_OscInitStruct.PLL.PLLState = RCC_PLL_ON;
 262:Core/Src/main.c ****   RCC_OscInitStruct.PLL.PLLSource = RCC_PLLSOURCE_HSE;
 263:Core/Src/main.c ****   RCC_OscInitStruct.PLL.PLLM = 4;
ARM GAS  C:\Users\leopi\AppData\Local\Temp\ccXD2Jgg.s 			page 7


 264:Core/Src/main.c ****   RCC_OscInitStruct.PLL.PLLN = 168;
 265:Core/Src/main.c ****   RCC_OscInitStruct.PLL.PLLP = RCC_PLLP_DIV2;
 266:Core/Src/main.c ****   RCC_OscInitStruct.PLL.PLLQ = 4;
 267:Core/Src/main.c ****   if (HAL_RCC_OscConfig(&RCC_OscInitStruct) != HAL_OK)
 268:Core/Src/main.c ****   {
 269:Core/Src/main.c ****     Error_Handler();
 270:Core/Src/main.c ****   }
 271:Core/Src/main.c **** 
 272:Core/Src/main.c ****   /** Initializes the CPU, AHB and APB buses clocks
 273:Core/Src/main.c ****   */
 274:Core/Src/main.c ****   RCC_ClkInitStruct.ClockType = RCC_CLOCKTYPE_HCLK|RCC_CLOCKTYPE_SYSCLK
 275:Core/Src/main.c ****                               |RCC_CLOCKTYPE_PCLK1|RCC_CLOCKTYPE_PCLK2;
 276:Core/Src/main.c ****   RCC_ClkInitStruct.SYSCLKSource = RCC_SYSCLKSOURCE_PLLCLK;
 277:Core/Src/main.c ****   RCC_ClkInitStruct.AHBCLKDivider = RCC_SYSCLK_DIV1;
 278:Core/Src/main.c ****   RCC_ClkInitStruct.APB1CLKDivider = RCC_HCLK_DIV4;
 279:Core/Src/main.c ****   RCC_ClkInitStruct.APB2CLKDivider = RCC_HCLK_DIV2;
 280:Core/Src/main.c **** 
 281:Core/Src/main.c ****   if (HAL_RCC_ClockConfig(&RCC_ClkInitStruct, FLASH_LATENCY_5) != HAL_OK)
 282:Core/Src/main.c ****   {
 283:Core/Src/main.c ****     Error_Handler();
 284:Core/Src/main.c ****   }
 285:Core/Src/main.c **** }
 286:Core/Src/main.c **** 
 287:Core/Src/main.c **** /* USER CODE BEGIN 4 */
 288:Core/Src/main.c **** #ifdef __GNUC__
 289:Core/Src/main.c **** 	#define PUTCHAR_PROTOTYPE int __io_putchar(int ch)
 290:Core/Src/main.c **** 	#define GETCHAR_PROTOTYPE int __io_getchar(void)
 291:Core/Src/main.c **** #else
 292:Core/Src/main.c **** 	#define PUTCHAR_PROTOTYPE int fputc(int ch, FILE *f)
 293:Core/Src/main.c **** 	#define GETCHAR_PROTOTYPE int f getc(FILE* f)
 294:Core/Src/main.c **** #endif /*__GNUC__*/
 295:Core/Src/main.c **** PUTCHAR_PROTOTYPE {
  83              		.loc 1 295 19 is_stmt 1 view -0
  84              		.cfi_startproc
  85              		@ args = 0, pretend = 0, frame = 8
  86              		@ frame_needed = 0, uses_anonymous_args = 0
  87              		.loc 1 295 19 is_stmt 0 view .LVU9
  88 0000 00B5     		push	{lr}
  89              	.LCFI1:
  90              		.cfi_def_cfa_offset 4
  91              		.cfi_offset 14, -4
  92 0002 83B0     		sub	sp, sp, #12
  93              	.LCFI2:
  94              		.cfi_def_cfa_offset 16
  95 0004 0190     		str	r0, [sp, #4]
 296:Core/Src/main.c **** 	HAL_UART_Transmit(&huart1, (uint8_t*)&ch, 1, 0xFFFF);
  96              		.loc 1 296 2 is_stmt 1 view .LVU10
  97 0006 4FF6FF73 		movw	r3, #65535
  98 000a 0122     		movs	r2, #1
  99 000c 01A9     		add	r1, sp, #4
 100 000e 0348     		ldr	r0, .L7
 101              	.LVL5:
 102              		.loc 1 296 2 is_stmt 0 view .LVU11
 103 0010 FFF7FEFF 		bl	HAL_UART_Transmit
 104              	.LVL6:
 297:Core/Src/main.c **** 	return ch;
 105              		.loc 1 297 2 is_stmt 1 view .LVU12
ARM GAS  C:\Users\leopi\AppData\Local\Temp\ccXD2Jgg.s 			page 8


 298:Core/Src/main.c **** }
 106              		.loc 1 298 1 is_stmt 0 view .LVU13
 107 0014 0198     		ldr	r0, [sp, #4]
 108 0016 03B0     		add	sp, sp, #12
 109              	.LCFI3:
 110              		.cfi_def_cfa_offset 4
 111              		@ sp needed
 112 0018 5DF804FB 		ldr	pc, [sp], #4
 113              	.L8:
 114              		.align	2
 115              	.L7:
 116 001c 00000000 		.word	huart1
 117              		.cfi_endproc
 118              	.LFE241:
 120              		.section	.text.__io_getchar,"ax",%progbits
 121              		.align	1
 122              		.global	__io_getchar
 123              		.syntax unified
 124              		.thumb
 125              		.thumb_func
 127              	__io_getchar:
 128              	.LFB242:
 299:Core/Src/main.c **** int __io_getchar(void) {
 129              		.loc 1 299 24 is_stmt 1 view -0
 130              		.cfi_startproc
 131              		@ args = 0, pretend = 0, frame = 8
 132              		@ frame_needed = 0, uses_anonymous_args = 0
 133 0000 00B5     		push	{lr}
 134              	.LCFI4:
 135              		.cfi_def_cfa_offset 4
 136              		.cfi_offset 14, -4
 137 0002 83B0     		sub	sp, sp, #12
 138              	.LCFI5:
 139              		.cfi_def_cfa_offset 16
 300:Core/Src/main.c **** HAL_StatusTypeDef Status = HAL_BUSY;
 140              		.loc 1 300 1 view .LVU15
 141              	.LVL7:
 301:Core/Src/main.c **** uint8_t Data;
 142              		.loc 1 301 1 view .LVU16
 302:Core/Src/main.c **** 
 303:Core/Src/main.c **** while(Status != HAL_OK)
 143              		.loc 1 303 1 view .LVU17
 300:Core/Src/main.c **** uint8_t Data;
 144              		.loc 1 300 19 is_stmt 0 view .LVU18
 145 0004 0220     		movs	r0, #2
 146              		.loc 1 303 6 view .LVU19
 147 0006 06E0     		b	.L10
 148              	.LVL8:
 149              	.L11:
 304:Core/Src/main.c **** {
 305:Core/Src/main.c **** Status = HAL_UART_Receive(&huart1, &Data, sizeof(Data), 10);
 150              		.loc 1 305 1 is_stmt 1 view .LVU20
 151              		.loc 1 305 10 is_stmt 0 view .LVU21
 152 0008 0A23     		movs	r3, #10
 153 000a 0122     		movs	r2, #1
 154 000c 0DF10701 		add	r1, sp, #7
 155 0010 0448     		ldr	r0, .L13
ARM GAS  C:\Users\leopi\AppData\Local\Temp\ccXD2Jgg.s 			page 9


 156              	.LVL9:
 157              		.loc 1 305 10 view .LVU22
 158 0012 FFF7FEFF 		bl	HAL_UART_Receive
 159              	.LVL10:
 160              	.L10:
 303:Core/Src/main.c **** {
 161              		.loc 1 303 6 is_stmt 1 view .LVU23
 162 0016 0028     		cmp	r0, #0
 163 0018 F6D1     		bne	.L11
 306:Core/Src/main.c **** //if(Status == HAL_ERROR)
 307:Core/Src/main.c **** //{
 308:Core/Src/main.c **** //	return 0;
 309:Core/Src/main.c **** //	break;
 310:Core/Src/main.c **** //}
 311:Core/Src/main.c **** }
 312:Core/Src/main.c **** return(Data);
 164              		.loc 1 312 1 view .LVU24
 313:Core/Src/main.c **** }
 165              		.loc 1 313 1 is_stmt 0 view .LVU25
 166 001a 9DF80700 		ldrb	r0, [sp, #7]	@ zero_extendqisi2
 167              	.LVL11:
 168              		.loc 1 313 1 view .LVU26
 169 001e 03B0     		add	sp, sp, #12
 170              	.LCFI6:
 171              		.cfi_def_cfa_offset 4
 172              		@ sp needed
 173 0020 5DF804FB 		ldr	pc, [sp], #4
 174              	.L14:
 175              		.align	2
 176              	.L13:
 177 0024 00000000 		.word	huart1
 178              		.cfi_endproc
 179              	.LFE242:
 181              		.section	.text.Error_Handler,"ax",%progbits
 182              		.align	1
 183              		.global	Error_Handler
 184              		.syntax unified
 185              		.thumb
 186              		.thumb_func
 188              	Error_Handler:
 189              	.LFB243:
 314:Core/Src/main.c **** /* USER CODE END 4 */
 315:Core/Src/main.c **** 
 316:Core/Src/main.c **** /**
 317:Core/Src/main.c ****   * @brief  This function is executed in case of error occurrence.
 318:Core/Src/main.c ****   * @retval None
 319:Core/Src/main.c ****   */
 320:Core/Src/main.c **** void Error_Handler(void)
 321:Core/Src/main.c **** {
 190              		.loc 1 321 1 is_stmt 1 view -0
 191              		.cfi_startproc
 192              		@ Volatile: function does not return.
 193              		@ args = 0, pretend = 0, frame = 0
 194              		@ frame_needed = 0, uses_anonymous_args = 0
 195              		@ link register save eliminated.
 322:Core/Src/main.c ****   /* USER CODE BEGIN Error_Handler_Debug */
 323:Core/Src/main.c ****   /* User can add his own implementation to report the HAL error return state */
ARM GAS  C:\Users\leopi\AppData\Local\Temp\ccXD2Jgg.s 			page 10


 324:Core/Src/main.c ****   __disable_irq();
 196              		.loc 1 324 3 view .LVU28
 197              	.LBB4:
 198              	.LBI4:
 199              		.file 2 "Drivers/CMSIS/Include/cmsis_gcc.h"
   1:Drivers/CMSIS/Include/cmsis_gcc.h **** /**************************************************************************//**
   2:Drivers/CMSIS/Include/cmsis_gcc.h ****  * @file     cmsis_gcc.h
   3:Drivers/CMSIS/Include/cmsis_gcc.h ****  * @brief    CMSIS compiler GCC header file
   4:Drivers/CMSIS/Include/cmsis_gcc.h ****  * @version  V5.0.4
   5:Drivers/CMSIS/Include/cmsis_gcc.h ****  * @date     09. April 2018
   6:Drivers/CMSIS/Include/cmsis_gcc.h ****  ******************************************************************************/
   7:Drivers/CMSIS/Include/cmsis_gcc.h **** /*
   8:Drivers/CMSIS/Include/cmsis_gcc.h ****  * Copyright (c) 2009-2018 Arm Limited. All rights reserved.
   9:Drivers/CMSIS/Include/cmsis_gcc.h ****  *
  10:Drivers/CMSIS/Include/cmsis_gcc.h ****  * SPDX-License-Identifier: Apache-2.0
  11:Drivers/CMSIS/Include/cmsis_gcc.h ****  *
  12:Drivers/CMSIS/Include/cmsis_gcc.h ****  * Licensed under the Apache License, Version 2.0 (the License); you may
  13:Drivers/CMSIS/Include/cmsis_gcc.h ****  * not use this file except in compliance with the License.
  14:Drivers/CMSIS/Include/cmsis_gcc.h ****  * You may obtain a copy of the License at
  15:Drivers/CMSIS/Include/cmsis_gcc.h ****  *
  16:Drivers/CMSIS/Include/cmsis_gcc.h ****  * www.apache.org/licenses/LICENSE-2.0
  17:Drivers/CMSIS/Include/cmsis_gcc.h ****  *
  18:Drivers/CMSIS/Include/cmsis_gcc.h ****  * Unless required by applicable law or agreed to in writing, software
  19:Drivers/CMSIS/Include/cmsis_gcc.h ****  * distributed under the License is distributed on an AS IS BASIS, WITHOUT
  20:Drivers/CMSIS/Include/cmsis_gcc.h ****  * WARRANTIES OR CONDITIONS OF ANY KIND, either express or implied.
  21:Drivers/CMSIS/Include/cmsis_gcc.h ****  * See the License for the specific language governing permissions and
  22:Drivers/CMSIS/Include/cmsis_gcc.h ****  * limitations under the License.
  23:Drivers/CMSIS/Include/cmsis_gcc.h ****  */
  24:Drivers/CMSIS/Include/cmsis_gcc.h **** 
  25:Drivers/CMSIS/Include/cmsis_gcc.h **** #ifndef __CMSIS_GCC_H
  26:Drivers/CMSIS/Include/cmsis_gcc.h **** #define __CMSIS_GCC_H
  27:Drivers/CMSIS/Include/cmsis_gcc.h **** 
  28:Drivers/CMSIS/Include/cmsis_gcc.h **** /* ignore some GCC warnings */
  29:Drivers/CMSIS/Include/cmsis_gcc.h **** #pragma GCC diagnostic push
  30:Drivers/CMSIS/Include/cmsis_gcc.h **** #pragma GCC diagnostic ignored "-Wsign-conversion"
  31:Drivers/CMSIS/Include/cmsis_gcc.h **** #pragma GCC diagnostic ignored "-Wconversion"
  32:Drivers/CMSIS/Include/cmsis_gcc.h **** #pragma GCC diagnostic ignored "-Wunused-parameter"
  33:Drivers/CMSIS/Include/cmsis_gcc.h **** 
  34:Drivers/CMSIS/Include/cmsis_gcc.h **** /* Fallback for __has_builtin */
  35:Drivers/CMSIS/Include/cmsis_gcc.h **** #ifndef __has_builtin
  36:Drivers/CMSIS/Include/cmsis_gcc.h ****   #define __has_builtin(x) (0)
  37:Drivers/CMSIS/Include/cmsis_gcc.h **** #endif
  38:Drivers/CMSIS/Include/cmsis_gcc.h **** 
  39:Drivers/CMSIS/Include/cmsis_gcc.h **** /* CMSIS compiler specific defines */
  40:Drivers/CMSIS/Include/cmsis_gcc.h **** #ifndef   __ASM
  41:Drivers/CMSIS/Include/cmsis_gcc.h ****   #define __ASM                                  __asm
  42:Drivers/CMSIS/Include/cmsis_gcc.h **** #endif
  43:Drivers/CMSIS/Include/cmsis_gcc.h **** #ifndef   __INLINE
  44:Drivers/CMSIS/Include/cmsis_gcc.h ****   #define __INLINE                               inline
  45:Drivers/CMSIS/Include/cmsis_gcc.h **** #endif
  46:Drivers/CMSIS/Include/cmsis_gcc.h **** #ifndef   __STATIC_INLINE
  47:Drivers/CMSIS/Include/cmsis_gcc.h ****   #define __STATIC_INLINE                        static inline
  48:Drivers/CMSIS/Include/cmsis_gcc.h **** #endif
  49:Drivers/CMSIS/Include/cmsis_gcc.h **** #ifndef   __STATIC_FORCEINLINE                 
  50:Drivers/CMSIS/Include/cmsis_gcc.h ****   #define __STATIC_FORCEINLINE                   __attribute__((always_inline)) static inline
  51:Drivers/CMSIS/Include/cmsis_gcc.h **** #endif                                           
  52:Drivers/CMSIS/Include/cmsis_gcc.h **** #ifndef   __NO_RETURN
ARM GAS  C:\Users\leopi\AppData\Local\Temp\ccXD2Jgg.s 			page 11


  53:Drivers/CMSIS/Include/cmsis_gcc.h ****   #define __NO_RETURN                            __attribute__((__noreturn__))
  54:Drivers/CMSIS/Include/cmsis_gcc.h **** #endif
  55:Drivers/CMSIS/Include/cmsis_gcc.h **** #ifndef   __USED
  56:Drivers/CMSIS/Include/cmsis_gcc.h ****   #define __USED                                 __attribute__((used))
  57:Drivers/CMSIS/Include/cmsis_gcc.h **** #endif
  58:Drivers/CMSIS/Include/cmsis_gcc.h **** #ifndef   __WEAK
  59:Drivers/CMSIS/Include/cmsis_gcc.h ****   #define __WEAK                                 __attribute__((weak))
  60:Drivers/CMSIS/Include/cmsis_gcc.h **** #endif
  61:Drivers/CMSIS/Include/cmsis_gcc.h **** #ifndef   __PACKED
  62:Drivers/CMSIS/Include/cmsis_gcc.h ****   #define __PACKED                               __attribute__((packed, aligned(1)))
  63:Drivers/CMSIS/Include/cmsis_gcc.h **** #endif
  64:Drivers/CMSIS/Include/cmsis_gcc.h **** #ifndef   __PACKED_STRUCT
  65:Drivers/CMSIS/Include/cmsis_gcc.h ****   #define __PACKED_STRUCT                        struct __attribute__((packed, aligned(1)))
  66:Drivers/CMSIS/Include/cmsis_gcc.h **** #endif
  67:Drivers/CMSIS/Include/cmsis_gcc.h **** #ifndef   __PACKED_UNION
  68:Drivers/CMSIS/Include/cmsis_gcc.h ****   #define __PACKED_UNION                         union __attribute__((packed, aligned(1)))
  69:Drivers/CMSIS/Include/cmsis_gcc.h **** #endif
  70:Drivers/CMSIS/Include/cmsis_gcc.h **** #ifndef   __UNALIGNED_UINT32        /* deprecated */
  71:Drivers/CMSIS/Include/cmsis_gcc.h ****   #pragma GCC diagnostic push
  72:Drivers/CMSIS/Include/cmsis_gcc.h ****   #pragma GCC diagnostic ignored "-Wpacked"
  73:Drivers/CMSIS/Include/cmsis_gcc.h ****   #pragma GCC diagnostic ignored "-Wattributes"
  74:Drivers/CMSIS/Include/cmsis_gcc.h ****   struct __attribute__((packed)) T_UINT32 { uint32_t v; };
  75:Drivers/CMSIS/Include/cmsis_gcc.h ****   #pragma GCC diagnostic pop
  76:Drivers/CMSIS/Include/cmsis_gcc.h ****   #define __UNALIGNED_UINT32(x)                  (((struct T_UINT32 *)(x))->v)
  77:Drivers/CMSIS/Include/cmsis_gcc.h **** #endif
  78:Drivers/CMSIS/Include/cmsis_gcc.h **** #ifndef   __UNALIGNED_UINT16_WRITE
  79:Drivers/CMSIS/Include/cmsis_gcc.h ****   #pragma GCC diagnostic push
  80:Drivers/CMSIS/Include/cmsis_gcc.h ****   #pragma GCC diagnostic ignored "-Wpacked"
  81:Drivers/CMSIS/Include/cmsis_gcc.h ****   #pragma GCC diagnostic ignored "-Wattributes"
  82:Drivers/CMSIS/Include/cmsis_gcc.h ****   __PACKED_STRUCT T_UINT16_WRITE { uint16_t v; };
  83:Drivers/CMSIS/Include/cmsis_gcc.h ****   #pragma GCC diagnostic pop
  84:Drivers/CMSIS/Include/cmsis_gcc.h ****   #define __UNALIGNED_UINT16_WRITE(addr, val)    (void)((((struct T_UINT16_WRITE *)(void *)(addr))-
  85:Drivers/CMSIS/Include/cmsis_gcc.h **** #endif
  86:Drivers/CMSIS/Include/cmsis_gcc.h **** #ifndef   __UNALIGNED_UINT16_READ
  87:Drivers/CMSIS/Include/cmsis_gcc.h ****   #pragma GCC diagnostic push
  88:Drivers/CMSIS/Include/cmsis_gcc.h ****   #pragma GCC diagnostic ignored "-Wpacked"
  89:Drivers/CMSIS/Include/cmsis_gcc.h ****   #pragma GCC diagnostic ignored "-Wattributes"
  90:Drivers/CMSIS/Include/cmsis_gcc.h ****   __PACKED_STRUCT T_UINT16_READ { uint16_t v; };
  91:Drivers/CMSIS/Include/cmsis_gcc.h ****   #pragma GCC diagnostic pop
  92:Drivers/CMSIS/Include/cmsis_gcc.h ****   #define __UNALIGNED_UINT16_READ(addr)          (((const struct T_UINT16_READ *)(const void *)(add
  93:Drivers/CMSIS/Include/cmsis_gcc.h **** #endif
  94:Drivers/CMSIS/Include/cmsis_gcc.h **** #ifndef   __UNALIGNED_UINT32_WRITE
  95:Drivers/CMSIS/Include/cmsis_gcc.h ****   #pragma GCC diagnostic push
  96:Drivers/CMSIS/Include/cmsis_gcc.h ****   #pragma GCC diagnostic ignored "-Wpacked"
  97:Drivers/CMSIS/Include/cmsis_gcc.h ****   #pragma GCC diagnostic ignored "-Wattributes"
  98:Drivers/CMSIS/Include/cmsis_gcc.h ****   __PACKED_STRUCT T_UINT32_WRITE { uint32_t v; };
  99:Drivers/CMSIS/Include/cmsis_gcc.h ****   #pragma GCC diagnostic pop
 100:Drivers/CMSIS/Include/cmsis_gcc.h ****   #define __UNALIGNED_UINT32_WRITE(addr, val)    (void)((((struct T_UINT32_WRITE *)(void *)(addr))-
 101:Drivers/CMSIS/Include/cmsis_gcc.h **** #endif
 102:Drivers/CMSIS/Include/cmsis_gcc.h **** #ifndef   __UNALIGNED_UINT32_READ
 103:Drivers/CMSIS/Include/cmsis_gcc.h ****   #pragma GCC diagnostic push
 104:Drivers/CMSIS/Include/cmsis_gcc.h ****   #pragma GCC diagnostic ignored "-Wpacked"
 105:Drivers/CMSIS/Include/cmsis_gcc.h ****   #pragma GCC diagnostic ignored "-Wattributes"
 106:Drivers/CMSIS/Include/cmsis_gcc.h ****   __PACKED_STRUCT T_UINT32_READ { uint32_t v; };
 107:Drivers/CMSIS/Include/cmsis_gcc.h ****   #pragma GCC diagnostic pop
 108:Drivers/CMSIS/Include/cmsis_gcc.h ****   #define __UNALIGNED_UINT32_READ(addr)          (((const struct T_UINT32_READ *)(const void *)(add
 109:Drivers/CMSIS/Include/cmsis_gcc.h **** #endif
ARM GAS  C:\Users\leopi\AppData\Local\Temp\ccXD2Jgg.s 			page 12


 110:Drivers/CMSIS/Include/cmsis_gcc.h **** #ifndef   __ALIGNED
 111:Drivers/CMSIS/Include/cmsis_gcc.h ****   #define __ALIGNED(x)                           __attribute__((aligned(x)))
 112:Drivers/CMSIS/Include/cmsis_gcc.h **** #endif
 113:Drivers/CMSIS/Include/cmsis_gcc.h **** #ifndef   __RESTRICT
 114:Drivers/CMSIS/Include/cmsis_gcc.h ****   #define __RESTRICT                             __restrict
 115:Drivers/CMSIS/Include/cmsis_gcc.h **** #endif
 116:Drivers/CMSIS/Include/cmsis_gcc.h **** 
 117:Drivers/CMSIS/Include/cmsis_gcc.h **** 
 118:Drivers/CMSIS/Include/cmsis_gcc.h **** /* ###########################  Core Function Access  ########################### */
 119:Drivers/CMSIS/Include/cmsis_gcc.h **** /** \ingroup  CMSIS_Core_FunctionInterface
 120:Drivers/CMSIS/Include/cmsis_gcc.h ****     \defgroup CMSIS_Core_RegAccFunctions CMSIS Core Register Access Functions
 121:Drivers/CMSIS/Include/cmsis_gcc.h ****   @{
 122:Drivers/CMSIS/Include/cmsis_gcc.h ****  */
 123:Drivers/CMSIS/Include/cmsis_gcc.h **** 
 124:Drivers/CMSIS/Include/cmsis_gcc.h **** /**
 125:Drivers/CMSIS/Include/cmsis_gcc.h ****   \brief   Enable IRQ Interrupts
 126:Drivers/CMSIS/Include/cmsis_gcc.h ****   \details Enables IRQ interrupts by clearing the I-bit in the CPSR.
 127:Drivers/CMSIS/Include/cmsis_gcc.h ****            Can only be executed in Privileged modes.
 128:Drivers/CMSIS/Include/cmsis_gcc.h ****  */
 129:Drivers/CMSIS/Include/cmsis_gcc.h **** __STATIC_FORCEINLINE void __enable_irq(void)
 130:Drivers/CMSIS/Include/cmsis_gcc.h **** {
 131:Drivers/CMSIS/Include/cmsis_gcc.h ****   __ASM volatile ("cpsie i" : : : "memory");
 132:Drivers/CMSIS/Include/cmsis_gcc.h **** }
 133:Drivers/CMSIS/Include/cmsis_gcc.h **** 
 134:Drivers/CMSIS/Include/cmsis_gcc.h **** 
 135:Drivers/CMSIS/Include/cmsis_gcc.h **** /**
 136:Drivers/CMSIS/Include/cmsis_gcc.h ****   \brief   Disable IRQ Interrupts
 137:Drivers/CMSIS/Include/cmsis_gcc.h ****   \details Disables IRQ interrupts by setting the I-bit in the CPSR.
 138:Drivers/CMSIS/Include/cmsis_gcc.h ****            Can only be executed in Privileged modes.
 139:Drivers/CMSIS/Include/cmsis_gcc.h ****  */
 140:Drivers/CMSIS/Include/cmsis_gcc.h **** __STATIC_FORCEINLINE void __disable_irq(void)
 200              		.loc 2 140 27 view .LVU29
 201              	.LBB5:
 141:Drivers/CMSIS/Include/cmsis_gcc.h **** {
 142:Drivers/CMSIS/Include/cmsis_gcc.h ****   __ASM volatile ("cpsid i" : : : "memory");
 202              		.loc 2 142 3 view .LVU30
 203              		.syntax unified
 204              	@ 142 "Drivers/CMSIS/Include/cmsis_gcc.h" 1
 205 0000 72B6     		cpsid i
 206              	@ 0 "" 2
 207              		.thumb
 208              		.syntax unified
 209              	.L16:
 210              	.LBE5:
 211              	.LBE4:
 325:Core/Src/main.c ****   while (1)
 212              		.loc 1 325 3 discriminator 1 view .LVU31
 326:Core/Src/main.c ****   {
 327:Core/Src/main.c ****   }
 213              		.loc 1 327 3 discriminator 1 view .LVU32
 325:Core/Src/main.c ****   while (1)
 214              		.loc 1 325 9 discriminator 1 view .LVU33
 215 0002 FEE7     		b	.L16
 216              		.cfi_endproc
 217              	.LFE243:
 219              		.section	.text.SystemClock_Config,"ax",%progbits
 220              		.align	1
ARM GAS  C:\Users\leopi\AppData\Local\Temp\ccXD2Jgg.s 			page 13


 221              		.global	SystemClock_Config
 222              		.syntax unified
 223              		.thumb
 224              		.thumb_func
 226              	SystemClock_Config:
 227              	.LFB240:
 247:Core/Src/main.c ****   RCC_OscInitTypeDef RCC_OscInitStruct = {0};
 228              		.loc 1 247 1 view -0
 229              		.cfi_startproc
 230              		@ args = 0, pretend = 0, frame = 80
 231              		@ frame_needed = 0, uses_anonymous_args = 0
 232 0000 00B5     		push	{lr}
 233              	.LCFI7:
 234              		.cfi_def_cfa_offset 4
 235              		.cfi_offset 14, -4
 236 0002 95B0     		sub	sp, sp, #84
 237              	.LCFI8:
 238              		.cfi_def_cfa_offset 88
 248:Core/Src/main.c ****   RCC_ClkInitTypeDef RCC_ClkInitStruct = {0};
 239              		.loc 1 248 3 view .LVU35
 248:Core/Src/main.c ****   RCC_ClkInitTypeDef RCC_ClkInitStruct = {0};
 240              		.loc 1 248 22 is_stmt 0 view .LVU36
 241 0004 3022     		movs	r2, #48
 242 0006 0021     		movs	r1, #0
 243 0008 08A8     		add	r0, sp, #32
 244 000a FFF7FEFF 		bl	memset
 245              	.LVL12:
 249:Core/Src/main.c **** 
 246              		.loc 1 249 3 is_stmt 1 view .LVU37
 249:Core/Src/main.c **** 
 247              		.loc 1 249 22 is_stmt 0 view .LVU38
 248 000e 0023     		movs	r3, #0
 249 0010 0393     		str	r3, [sp, #12]
 250 0012 0493     		str	r3, [sp, #16]
 251 0014 0593     		str	r3, [sp, #20]
 252 0016 0693     		str	r3, [sp, #24]
 253 0018 0793     		str	r3, [sp, #28]
 253:Core/Src/main.c ****   __HAL_PWR_VOLTAGESCALING_CONFIG(PWR_REGULATOR_VOLTAGE_SCALE1);
 254              		.loc 1 253 3 is_stmt 1 view .LVU39
 255              	.LBB6:
 253:Core/Src/main.c ****   __HAL_PWR_VOLTAGESCALING_CONFIG(PWR_REGULATOR_VOLTAGE_SCALE1);
 256              		.loc 1 253 3 view .LVU40
 257 001a 0193     		str	r3, [sp, #4]
 253:Core/Src/main.c ****   __HAL_PWR_VOLTAGESCALING_CONFIG(PWR_REGULATOR_VOLTAGE_SCALE1);
 258              		.loc 1 253 3 view .LVU41
 259 001c 204A     		ldr	r2, .L23
 260 001e 116C     		ldr	r1, [r2, #64]
 261 0020 41F08051 		orr	r1, r1, #268435456
 262 0024 1164     		str	r1, [r2, #64]
 253:Core/Src/main.c ****   __HAL_PWR_VOLTAGESCALING_CONFIG(PWR_REGULATOR_VOLTAGE_SCALE1);
 263              		.loc 1 253 3 view .LVU42
 264 0026 126C     		ldr	r2, [r2, #64]
 265 0028 02F08052 		and	r2, r2, #268435456
 266 002c 0192     		str	r2, [sp, #4]
 253:Core/Src/main.c ****   __HAL_PWR_VOLTAGESCALING_CONFIG(PWR_REGULATOR_VOLTAGE_SCALE1);
 267              		.loc 1 253 3 view .LVU43
 268 002e 019A     		ldr	r2, [sp, #4]
ARM GAS  C:\Users\leopi\AppData\Local\Temp\ccXD2Jgg.s 			page 14


 269              	.LBE6:
 253:Core/Src/main.c ****   __HAL_PWR_VOLTAGESCALING_CONFIG(PWR_REGULATOR_VOLTAGE_SCALE1);
 270              		.loc 1 253 3 view .LVU44
 254:Core/Src/main.c **** 
 271              		.loc 1 254 3 view .LVU45
 272              	.LBB7:
 254:Core/Src/main.c **** 
 273              		.loc 1 254 3 view .LVU46
 274 0030 0293     		str	r3, [sp, #8]
 254:Core/Src/main.c **** 
 275              		.loc 1 254 3 view .LVU47
 276 0032 1C4B     		ldr	r3, .L23+4
 277 0034 1A68     		ldr	r2, [r3]
 278 0036 42F48042 		orr	r2, r2, #16384
 279 003a 1A60     		str	r2, [r3]
 254:Core/Src/main.c **** 
 280              		.loc 1 254 3 view .LVU48
 281 003c 1B68     		ldr	r3, [r3]
 282 003e 03F48043 		and	r3, r3, #16384
 283 0042 0293     		str	r3, [sp, #8]
 254:Core/Src/main.c **** 
 284              		.loc 1 254 3 view .LVU49
 285 0044 029B     		ldr	r3, [sp, #8]
 286              	.LBE7:
 254:Core/Src/main.c **** 
 287              		.loc 1 254 3 view .LVU50
 259:Core/Src/main.c ****   RCC_OscInitStruct.HSEState = RCC_HSE_BYPASS;
 288              		.loc 1 259 3 view .LVU51
 259:Core/Src/main.c ****   RCC_OscInitStruct.HSEState = RCC_HSE_BYPASS;
 289              		.loc 1 259 36 is_stmt 0 view .LVU52
 290 0046 0123     		movs	r3, #1
 291 0048 0893     		str	r3, [sp, #32]
 260:Core/Src/main.c ****   RCC_OscInitStruct.PLL.PLLState = RCC_PLL_ON;
 292              		.loc 1 260 3 is_stmt 1 view .LVU53
 260:Core/Src/main.c ****   RCC_OscInitStruct.PLL.PLLState = RCC_PLL_ON;
 293              		.loc 1 260 30 is_stmt 0 view .LVU54
 294 004a 4FF4A023 		mov	r3, #327680
 295 004e 0993     		str	r3, [sp, #36]
 261:Core/Src/main.c ****   RCC_OscInitStruct.PLL.PLLSource = RCC_PLLSOURCE_HSE;
 296              		.loc 1 261 3 is_stmt 1 view .LVU55
 261:Core/Src/main.c ****   RCC_OscInitStruct.PLL.PLLSource = RCC_PLLSOURCE_HSE;
 297              		.loc 1 261 34 is_stmt 0 view .LVU56
 298 0050 0222     		movs	r2, #2
 299 0052 0E92     		str	r2, [sp, #56]
 262:Core/Src/main.c ****   RCC_OscInitStruct.PLL.PLLM = 4;
 300              		.loc 1 262 3 is_stmt 1 view .LVU57
 262:Core/Src/main.c ****   RCC_OscInitStruct.PLL.PLLM = 4;
 301              		.loc 1 262 35 is_stmt 0 view .LVU58
 302 0054 4FF48003 		mov	r3, #4194304
 303 0058 0F93     		str	r3, [sp, #60]
 263:Core/Src/main.c ****   RCC_OscInitStruct.PLL.PLLN = 168;
 304              		.loc 1 263 3 is_stmt 1 view .LVU59
 263:Core/Src/main.c ****   RCC_OscInitStruct.PLL.PLLN = 168;
 305              		.loc 1 263 30 is_stmt 0 view .LVU60
 306 005a 0423     		movs	r3, #4
 307 005c 1093     		str	r3, [sp, #64]
 264:Core/Src/main.c ****   RCC_OscInitStruct.PLL.PLLP = RCC_PLLP_DIV2;
ARM GAS  C:\Users\leopi\AppData\Local\Temp\ccXD2Jgg.s 			page 15


 308              		.loc 1 264 3 is_stmt 1 view .LVU61
 264:Core/Src/main.c ****   RCC_OscInitStruct.PLL.PLLP = RCC_PLLP_DIV2;
 309              		.loc 1 264 30 is_stmt 0 view .LVU62
 310 005e A821     		movs	r1, #168
 311 0060 1191     		str	r1, [sp, #68]
 265:Core/Src/main.c ****   RCC_OscInitStruct.PLL.PLLQ = 4;
 312              		.loc 1 265 3 is_stmt 1 view .LVU63
 265:Core/Src/main.c ****   RCC_OscInitStruct.PLL.PLLQ = 4;
 313              		.loc 1 265 30 is_stmt 0 view .LVU64
 314 0062 1292     		str	r2, [sp, #72]
 266:Core/Src/main.c ****   if (HAL_RCC_OscConfig(&RCC_OscInitStruct) != HAL_OK)
 315              		.loc 1 266 3 is_stmt 1 view .LVU65
 266:Core/Src/main.c ****   if (HAL_RCC_OscConfig(&RCC_OscInitStruct) != HAL_OK)
 316              		.loc 1 266 30 is_stmt 0 view .LVU66
 317 0064 1393     		str	r3, [sp, #76]
 267:Core/Src/main.c ****   {
 318              		.loc 1 267 3 is_stmt 1 view .LVU67
 267:Core/Src/main.c ****   {
 319              		.loc 1 267 7 is_stmt 0 view .LVU68
 320 0066 08A8     		add	r0, sp, #32
 321 0068 FFF7FEFF 		bl	HAL_RCC_OscConfig
 322              	.LVL13:
 267:Core/Src/main.c ****   {
 323              		.loc 1 267 6 view .LVU69
 324 006c 98B9     		cbnz	r0, .L21
 274:Core/Src/main.c ****                               |RCC_CLOCKTYPE_PCLK1|RCC_CLOCKTYPE_PCLK2;
 325              		.loc 1 274 3 is_stmt 1 view .LVU70
 274:Core/Src/main.c ****                               |RCC_CLOCKTYPE_PCLK1|RCC_CLOCKTYPE_PCLK2;
 326              		.loc 1 274 31 is_stmt 0 view .LVU71
 327 006e 0F23     		movs	r3, #15
 328 0070 0393     		str	r3, [sp, #12]
 276:Core/Src/main.c ****   RCC_ClkInitStruct.AHBCLKDivider = RCC_SYSCLK_DIV1;
 329              		.loc 1 276 3 is_stmt 1 view .LVU72
 276:Core/Src/main.c ****   RCC_ClkInitStruct.AHBCLKDivider = RCC_SYSCLK_DIV1;
 330              		.loc 1 276 34 is_stmt 0 view .LVU73
 331 0072 0223     		movs	r3, #2
 332 0074 0493     		str	r3, [sp, #16]
 277:Core/Src/main.c ****   RCC_ClkInitStruct.APB1CLKDivider = RCC_HCLK_DIV4;
 333              		.loc 1 277 3 is_stmt 1 view .LVU74
 277:Core/Src/main.c ****   RCC_ClkInitStruct.APB1CLKDivider = RCC_HCLK_DIV4;
 334              		.loc 1 277 35 is_stmt 0 view .LVU75
 335 0076 0023     		movs	r3, #0
 336 0078 0593     		str	r3, [sp, #20]
 278:Core/Src/main.c ****   RCC_ClkInitStruct.APB2CLKDivider = RCC_HCLK_DIV2;
 337              		.loc 1 278 3 is_stmt 1 view .LVU76
 278:Core/Src/main.c ****   RCC_ClkInitStruct.APB2CLKDivider = RCC_HCLK_DIV2;
 338              		.loc 1 278 36 is_stmt 0 view .LVU77
 339 007a 4FF4A053 		mov	r3, #5120
 340 007e 0693     		str	r3, [sp, #24]
 279:Core/Src/main.c **** 
 341              		.loc 1 279 3 is_stmt 1 view .LVU78
 279:Core/Src/main.c **** 
 342              		.loc 1 279 36 is_stmt 0 view .LVU79
 343 0080 4FF48053 		mov	r3, #4096
 344 0084 0793     		str	r3, [sp, #28]
 281:Core/Src/main.c ****   {
 345              		.loc 1 281 3 is_stmt 1 view .LVU80
ARM GAS  C:\Users\leopi\AppData\Local\Temp\ccXD2Jgg.s 			page 16


 281:Core/Src/main.c ****   {
 346              		.loc 1 281 7 is_stmt 0 view .LVU81
 347 0086 0521     		movs	r1, #5
 348 0088 03A8     		add	r0, sp, #12
 349 008a FFF7FEFF 		bl	HAL_RCC_ClockConfig
 350              	.LVL14:
 281:Core/Src/main.c ****   {
 351              		.loc 1 281 6 view .LVU82
 352 008e 20B9     		cbnz	r0, .L22
 285:Core/Src/main.c **** 
 353              		.loc 1 285 1 view .LVU83
 354 0090 15B0     		add	sp, sp, #84
 355              	.LCFI9:
 356              		.cfi_remember_state
 357              		.cfi_def_cfa_offset 4
 358              		@ sp needed
 359 0092 5DF804FB 		ldr	pc, [sp], #4
 360              	.L21:
 361              	.LCFI10:
 362              		.cfi_restore_state
 269:Core/Src/main.c ****   }
 363              		.loc 1 269 5 is_stmt 1 view .LVU84
 364 0096 FFF7FEFF 		bl	Error_Handler
 365              	.LVL15:
 366              	.L22:
 283:Core/Src/main.c ****   }
 367              		.loc 1 283 5 view .LVU85
 368 009a FFF7FEFF 		bl	Error_Handler
 369              	.LVL16:
 370              	.L24:
 371 009e 00BF     		.align	2
 372              	.L23:
 373 00a0 00380240 		.word	1073887232
 374 00a4 00700040 		.word	1073770496
 375              		.cfi_endproc
 376              	.LFE240:
 378              		.section	.rodata.main.str1.4,"aMS",%progbits,1
 379              		.align	2
 380              	.LC0:
 381 0000 E383A2E3 		.ascii	"\343\203\242\343\203\274\343\203\211\351\201\270\346"
 381      83BCE383 
 381      89E981B8 
 381      E6
 382 000d 8A9E0D00 		.ascii	"\212\236\015\000"
 383              		.section	.text.main,"ax",%progbits
 384              		.align	1
 385              		.global	main
 386              		.syntax unified
 387              		.thumb
 388              		.thumb_func
 390              	main:
 391              	.LFB239:
 106:Core/Src/main.c ****   /* USER CODE BEGIN 1 */
 392              		.loc 1 106 1 view -0
 393              		.cfi_startproc
 394              		@ Volatile: function does not return.
 395              		@ args = 0, pretend = 0, frame = 8
ARM GAS  C:\Users\leopi\AppData\Local\Temp\ccXD2Jgg.s 			page 17


 396              		@ frame_needed = 0, uses_anonymous_args = 0
 397 0000 00B5     		push	{lr}
 398              	.LCFI11:
 399              		.cfi_def_cfa_offset 4
 400              		.cfi_offset 14, -4
 401 0002 83B0     		sub	sp, sp, #12
 402              	.LCFI12:
 403              		.cfi_def_cfa_offset 16
 114:Core/Src/main.c **** 
 404              		.loc 1 114 3 view .LVU87
 405 0004 FFF7FEFF 		bl	HAL_Init
 406              	.LVL17:
 118:Core/Src/main.c ****   MX_DMA_Init();
 407              		.loc 1 118 3 view .LVU88
 408 0008 FFF7FEFF 		bl	MX_GPIO_Init
 409              	.LVL18:
 119:Core/Src/main.c ****   MX_ADC1_Init();
 410              		.loc 1 119 3 view .LVU89
 411 000c FFF7FEFF 		bl	MX_DMA_Init
 412              	.LVL19:
 120:Core/Src/main.c ****   MX_ADC2_Init();
 413              		.loc 1 120 3 view .LVU90
 414 0010 FFF7FEFF 		bl	MX_ADC1_Init
 415              	.LVL20:
 121:Core/Src/main.c ****   MX_USART1_UART_Init();
 416              		.loc 1 121 3 view .LVU91
 417 0014 FFF7FEFF 		bl	MX_ADC2_Init
 418              	.LVL21:
 122:Core/Src/main.c **** 
 419              		.loc 1 122 3 view .LVU92
 420 0018 FFF7FEFF 		bl	MX_USART1_UART_Init
 421              	.LVL22:
 124:Core/Src/main.c **** 	MX_TIM3_Init();
 422              		.loc 1 124 2 view .LVU93
 423 001c FFF7FEFF 		bl	ADCStart
 424              	.LVL23:
 125:Core/Src/main.c **** 	BatteryCheck( (int)adc1[2] );
 425              		.loc 1 125 2 view .LVU94
 426 0020 FFF7FEFF 		bl	MX_TIM3_Init
 427              	.LVL24:
 126:Core/Src/main.c **** 	ADCStop();
 428              		.loc 1 126 2 view .LVU95
 429 0024 564B     		ldr	r3, .L37
 430 0026 9868     		ldr	r0, [r3, #8]
 431 0028 FFF7FEFF 		bl	BatteryCheck
 432              	.LVL25:
 127:Core/Src/main.c **** 
 433              		.loc 1 127 2 view .LVU96
 434 002c FFF7FEFF 		bl	ADCStop
 435              	.LVL26:
 130:Core/Src/main.c **** 	ModeSelect(0, 7, &startup_mode);
 436              		.loc 1 130 2 view .LVU97
 131:Core/Src/main.c **** 	Signal( startup_mode );
 437              		.loc 1 131 2 view .LVU98
 438 0030 0DF10702 		add	r2, sp, #7
 439 0034 0721     		movs	r1, #7
 440 0036 0020     		movs	r0, #0
ARM GAS  C:\Users\leopi\AppData\Local\Temp\ccXD2Jgg.s 			page 18


 441 0038 FFF7FEFF 		bl	ModeSelect
 442              	.LVL27:
 132:Core/Src/main.c ****   //printf("adc1[2] : %lu\r\n ",adc1[2]);
 443              		.loc 1 132 2 view .LVU99
 444 003c 9DF90700 		ldrsb	r0, [sp, #7]
 445 0040 FFF7FEFF 		bl	Signal
 446              	.LVL28:
 139:Core/Src/main.c **** 
 447              		.loc 1 139 3 view .LVU100
 448 0044 FFF7FEFF 		bl	SystemClock_Config
 449              	.LVL29:
 146:Core/Src/main.c ****   MX_DMA_Init();
 450              		.loc 1 146 3 view .LVU101
 451 0048 FFF7FEFF 		bl	MX_GPIO_Init
 452              	.LVL30:
 147:Core/Src/main.c ****   MX_ADC1_Init();
 453              		.loc 1 147 3 view .LVU102
 454 004c FFF7FEFF 		bl	MX_DMA_Init
 455              	.LVL31:
 148:Core/Src/main.c ****   MX_ADC2_Init();
 456              		.loc 1 148 3 view .LVU103
 457 0050 FFF7FEFF 		bl	MX_ADC1_Init
 458              	.LVL32:
 149:Core/Src/main.c ****   MX_TIM3_Init();
 459              		.loc 1 149 3 view .LVU104
 460 0054 FFF7FEFF 		bl	MX_ADC2_Init
 461              	.LVL33:
 150:Core/Src/main.c ****   MX_TIM2_Init();
 462              		.loc 1 150 3 view .LVU105
 463 0058 FFF7FEFF 		bl	MX_TIM3_Init
 464              	.LVL34:
 151:Core/Src/main.c ****   MX_SPI3_Init();
 465              		.loc 1 151 3 view .LVU106
 466 005c FFF7FEFF 		bl	MX_TIM2_Init
 467              	.LVL35:
 152:Core/Src/main.c ****   MX_USART1_UART_Init();
 468              		.loc 1 152 3 view .LVU107
 469 0060 FFF7FEFF 		bl	MX_SPI3_Init
 470              	.LVL36:
 153:Core/Src/main.c ****   MX_TIM5_Init();
 471              		.loc 1 153 3 view .LVU108
 472 0064 FFF7FEFF 		bl	MX_USART1_UART_Init
 473              	.LVL37:
 154:Core/Src/main.c ****   MX_TIM4_Init();
 474              		.loc 1 154 3 view .LVU109
 475 0068 FFF7FEFF 		bl	MX_TIM5_Init
 476              	.LVL38:
 155:Core/Src/main.c ****   MX_TIM8_Init();
 477              		.loc 1 155 3 view .LVU110
 478 006c FFF7FEFF 		bl	MX_TIM4_Init
 479              	.LVL39:
 156:Core/Src/main.c ****   MX_TIM1_Init();
 480              		.loc 1 156 3 view .LVU111
 481 0070 FFF7FEFF 		bl	MX_TIM8_Init
 482              	.LVL40:
 157:Core/Src/main.c ****   /* USER CODE BEGIN 2 */
 483              		.loc 1 157 3 view .LVU112
ARM GAS  C:\Users\leopi\AppData\Local\Temp\ccXD2Jgg.s 			page 19


 484 0074 FFF7FEFF 		bl	MX_TIM1_Init
 485              	.LVL41:
 159:Core/Src/main.c ****   /* USER CODE END 2 */
 486              		.loc 1 159 3 view .LVU113
 487 0078 0122     		movs	r2, #1
 488 007a 4249     		ldr	r1, .L37+4
 489 007c 4248     		ldr	r0, .L37+8
 490 007e FFF7FEFF 		bl	HAL_UART_Receive_IT
 491              	.LVL42:
 179:Core/Src/main.c ****   PIDSetGain(R_VELO_PID, 3.3,1000,0);
 492              		.loc 1 179 3 view .LVU114
 493 0082 9FED428A 		vldr.32	s16, .L37+12
 494 0086 9FED429A 		vldr.32	s18, .L37+16
 495 008a DFED428A 		vldr.32	s17, .L37+20
 496 008e B0EE481A 		vmov.f32	s2, s16
 497 0092 F0EE490A 		vmov.f32	s1, s18
 498 0096 B0EE680A 		vmov.f32	s0, s17
 499 009a 0420     		movs	r0, #4
 500 009c FFF7FEFF 		bl	PIDSetGain
 501              	.LVL43:
 180:Core/Src/main.c **** 
 502              		.loc 1 180 3 view .LVU115
 503 00a0 B0EE481A 		vmov.f32	s2, s16
 504 00a4 F0EE490A 		vmov.f32	s1, s18
 505 00a8 B0EE680A 		vmov.f32	s0, s17
 506 00ac 0520     		movs	r0, #5
 507 00ae FFF7FEFF 		bl	PIDSetGain
 508              	.LVL44:
 182:Core/Src/main.c ****   PIDSetGain(F_WALL_PID, 14.6*2.5,0, 0);
 509              		.loc 1 182 3 view .LVU116
 510 00b2 B0EE481A 		vmov.f32	s2, s16
 511 00b6 F3EE020A 		vmov.f32	s1, #1.8e+1
 512 00ba 9FED370A 		vldr.32	s0, .L37+24
 513 00be 0020     		movs	r0, #0
 514 00c0 FFF7FEFF 		bl	PIDSetGain
 515              	.LVL45:
 183:Core/Src/main.c ****   PIDSetGain(D_WALL_PID, 6,1,0);//8,2,0);//8, 4,0);//6, 0,0);
 516              		.loc 1 183 3 view .LVU117
 517 00c4 B0EE481A 		vmov.f32	s2, s16
 518 00c8 F0EE480A 		vmov.f32	s1, s16
 519 00cc 9FED330A 		vldr.32	s0, .L37+28
 520 00d0 0820     		movs	r0, #8
 521 00d2 FFF7FEFF 		bl	PIDSetGain
 522              	.LVL46:
 184:Core/Src/main.c ****   PIDSetGain(L_WALL_PID, 12,1,0);//14,4,0);//14,8,0);//12, 0,0);
 523              		.loc 1 184 3 view .LVU118
 524 00d6 B0EE481A 		vmov.f32	s2, s16
 525 00da F7EE000A 		vmov.f32	s1, #1.0e+0
 526 00de B1EE080A 		vmov.f32	s0, #6.0e+0
 527 00e2 0120     		movs	r0, #1
 528 00e4 FFF7FEFF 		bl	PIDSetGain
 529              	.LVL47:
 185:Core/Src/main.c ****   PIDSetGain(R_WALL_PID, 12,1,0);//14,4,0);//14,8,0);//12, 0,0);
 530              		.loc 1 185 3 view .LVU119
 531 00e8 B0EE481A 		vmov.f32	s2, s16
 532 00ec F7EE000A 		vmov.f32	s1, #1.0e+0
 533 00f0 B2EE080A 		vmov.f32	s0, #1.2e+1
ARM GAS  C:\Users\leopi\AppData\Local\Temp\ccXD2Jgg.s 			page 20


 534 00f4 0220     		movs	r0, #2
 535 00f6 FFF7FEFF 		bl	PIDSetGain
 536              	.LVL48:
 186:Core/Src/main.c **** 
 537              		.loc 1 186 3 view .LVU120
 538 00fa B0EE481A 		vmov.f32	s2, s16
 539 00fe F7EE000A 		vmov.f32	s1, #1.0e+0
 540 0102 B2EE080A 		vmov.f32	s0, #1.2e+1
 541 0106 0320     		movs	r0, #3
 542 0108 FFF7FEFF 		bl	PIDSetGain
 543              	.LVL49:
 544 010c 0FE0     		b	.L35
 545              	.L34:
 207:Core/Src/main.c **** 		  break;
 546              		.loc 1 207 5 view .LVU121
 547 010e 0120     		movs	r0, #1
 548 0110 FFF7FEFF 		bl	GainSetting
 549              	.LVL50:
 208:Core/Src/main.c **** 	  case GAINTEST:
 550              		.loc 1 208 5 view .LVU122
 551              	.L26:
 232:Core/Src/main.c **** 		ModeSelect(0, 7, &startup_mode);
 552              		.loc 1 232 4 view .LVU123
 553 0114 2248     		ldr	r0, .L37+32
 554 0116 FFF7FEFF 		bl	puts
 555              	.LVL51:
 233:Core/Src/main.c **** 		Signal( startup_mode );
 556              		.loc 1 233 3 view .LVU124
 557 011a 0DF10702 		add	r2, sp, #7
 558 011e 0721     		movs	r1, #7
 559 0120 0020     		movs	r0, #0
 560 0122 FFF7FEFF 		bl	ModeSelect
 561              	.LVL52:
 234:Core/Src/main.c ****     /* USER CODE END WHILE */
 562              		.loc 1 234 3 view .LVU125
 563 0126 9DF90700 		ldrsb	r0, [sp, #7]
 564 012a FFF7FEFF 		bl	Signal
 565              	.LVL53:
 199:Core/Src/main.c ****   {
 566              		.loc 1 199 9 view .LVU126
 567              	.L35:
 199:Core/Src/main.c ****   {
 568              		.loc 1 199 3 view .LVU127
 201:Core/Src/main.c **** 	  {
 569              		.loc 1 201 4 view .LVU128
 570 012e 9DF90730 		ldrsb	r3, [sp, #7]
 571 0132 013B     		subs	r3, r3, #1
 572 0134 062B     		cmp	r3, #6
 573 0136 EDD8     		bhi	.L26
 574 0138 01A2     		adr	r2, .L28
 575 013a 52F823F0 		ldr	pc, [r2, r3, lsl #2]
 576 013e 00BF     		.p2align 2
 577              	.L28:
 578 0140 0F010000 		.word	.L34+1
 579 0144 5D010000 		.word	.L33+1
 580 0148 63010000 		.word	.L32+1
 581 014c 69010000 		.word	.L31+1
ARM GAS  C:\Users\leopi\AppData\Local\Temp\ccXD2Jgg.s 			page 21


 582 0150 6F010000 		.word	.L30+1
 583 0154 75010000 		.word	.L29+1
 584 0158 7B010000 		.word	.L27+1
 585              		.p2align 1
 586              	.L33:
 210:Core/Src/main.c **** 		  break;
 587              		.loc 1 210 5 view .LVU129
 588 015c FFF7FEFF 		bl	GainTest
 589              	.LVL54:
 211:Core/Src/main.c **** 	  case DEBUGGER:
 590              		.loc 1 211 5 view .LVU130
 591 0160 D8E7     		b	.L26
 592              	.L32:
 213:Core/Src/main.c **** 		  break;
 593              		.loc 1 213 5 view .LVU131
 594 0162 FFF7FEFF 		bl	Debug
 595              	.LVL55:
 214:Core/Src/main.c **** 	  case FASTEST_RUN:
 596              		.loc 1 214 5 view .LVU132
 597 0166 D5E7     		b	.L26
 598              	.L31:
 217:Core/Src/main.c **** 		  break;
 599              		.loc 1 217 5 view .LVU133
 600 0168 FFF7FEFF 		bl	FastestRun
 601              	.LVL56:
 218:Core/Src/main.c **** 	  case IMU_TEST:
 602              		.loc 1 218 5 view .LVU134
 603 016c D2E7     		b	.L26
 604              	.L30:
 220:Core/Src/main.c **** 		  break;
 605              		.loc 1 220 5 view .LVU135
 606 016e FFF7FEFF 		bl	TestIMU
 607              	.LVL57:
 221:Core/Src/main.c **** 	  case EXPLORE:
 608              		.loc 1 221 5 view .LVU136
 609 0172 CFE7     		b	.L26
 610              	.L29:
 224:Core/Src/main.c **** 		  break;
 611              		.loc 1 224 5 view .LVU137
 612 0174 FFF7FEFF 		bl	Explore
 613              	.LVL58:
 225:Core/Src/main.c **** 	  case WRITINGFREE:
 614              		.loc 1 225 5 view .LVU138
 615 0178 CCE7     		b	.L26
 616              	.L27:
 227:Core/Src/main.c **** 		  break;
 617              		.loc 1 227 5 view .LVU139
 618 017a FFF7FEFF 		bl	WritingFree
 619              	.LVL59:
 228:Core/Src/main.c **** 	  default :
 620              		.loc 1 228 5 view .LVU140
 621 017e C9E7     		b	.L26
 622              	.L38:
 623              		.align	2
 624              	.L37:
 625 0180 00000000 		.word	adc1
 626 0184 00000000 		.word	.LANCHOR0
ARM GAS  C:\Users\leopi\AppData\Local\Temp\ccXD2Jgg.s 			page 22


 627 0188 00000000 		.word	huart1
 628 018c 00000000 		.word	0
 629 0190 00007A44 		.word	1148846080
 630 0194 33335340 		.word	1079194419
 631 0198 6666F640 		.word	1089889894
 632 019c 00001242 		.word	1108475904
 633 01a0 00000000 		.word	.LC0
 634              		.cfi_endproc
 635              	.LFE239:
 637              		.global	buf
 638              		.section	.bss.buf,"aw",%nobits
 639              		.align	2
 640              		.set	.LANCHOR0,. + 0
 643              	buf:
 644 0000 00       		.space	1
 645              		.text
 646              	.Letext0:
 647              		.file 3 "c:\\tools\\gcc-arm-none-eabi-10_2021.10\\arm-none-eabi\\include\\machine\\_default_types.
 648              		.file 4 "c:\\tools\\gcc-arm-none-eabi-10_2021.10\\arm-none-eabi\\include\\sys\\_stdint.h"
 649              		.file 5 "Drivers/CMSIS/Device/ST/STM32F4xx/Include/stm32f405xx.h"
 650              		.file 6 "Drivers/STM32F4xx_HAL_Driver/Inc/stm32f4xx_hal_def.h"
 651              		.file 7 "Drivers/STM32F4xx_HAL_Driver/Inc/stm32f4xx_hal_rcc_ex.h"
 652              		.file 8 "Drivers/STM32F4xx_HAL_Driver/Inc/stm32f4xx_hal_rcc.h"
 653              		.file 9 "Drivers/STM32F4xx_HAL_Driver/Inc/stm32f4xx_hal_dma.h"
 654              		.file 10 "Drivers/STM32F4xx_HAL_Driver/Inc/stm32f4xx_hal_uart.h"
 655              		.file 11 "Core/Inc/usart.h"
 656              		.file 12 "Core/Inc/HardWare/mouse_ADC.h"
 657              		.file 13 "Drivers/STM32F4xx_HAL_Driver/Inc/stm32f4xx_hal.h"
 658              		.file 14 "Core/Inc/gpio.h"
 659              		.file 15 "Core/Inc/dma.h"
 660              		.file 16 "Core/Inc/adc.h"
 661              		.file 17 "Core/Inc/tim.h"
 662              		.file 18 "Core/Inc/Tools/UI.h"
 663              		.file 19 "Core/Inc/spi.h"
 664              		.file 20 "Core/Inc/Tools/PID_Control.h"
 665              		.file 21 "Core/Inc/Main/Mode.h"
 666              		.file 22 "<built-in>"
 667              		.file 23 "Core/Inc/Main/Running.h"
 668              		.file 24 "Core/Inc/Main/MicroMouse.h"
ARM GAS  C:\Users\leopi\AppData\Local\Temp\ccXD2Jgg.s 			page 23


DEFINED SYMBOLS
                            *ABS*:00000000 main.c
C:\Users\leopi\AppData\Local\Temp\ccXD2Jgg.s:20     .text.HAL_UART_RxCpltCallback:00000000 $t
C:\Users\leopi\AppData\Local\Temp\ccXD2Jgg.s:26     .text.HAL_UART_RxCpltCallback:00000000 HAL_UART_RxCpltCallback
C:\Users\leopi\AppData\Local\Temp\ccXD2Jgg.s:68     .text.HAL_UART_RxCpltCallback:00000024 $d
C:\Users\leopi\AppData\Local\Temp\ccXD2Jgg.s:74     .text.__io_putchar:00000000 $t
C:\Users\leopi\AppData\Local\Temp\ccXD2Jgg.s:80     .text.__io_putchar:00000000 __io_putchar
C:\Users\leopi\AppData\Local\Temp\ccXD2Jgg.s:116    .text.__io_putchar:0000001c $d
C:\Users\leopi\AppData\Local\Temp\ccXD2Jgg.s:121    .text.__io_getchar:00000000 $t
C:\Users\leopi\AppData\Local\Temp\ccXD2Jgg.s:127    .text.__io_getchar:00000000 __io_getchar
C:\Users\leopi\AppData\Local\Temp\ccXD2Jgg.s:177    .text.__io_getchar:00000024 $d
C:\Users\leopi\AppData\Local\Temp\ccXD2Jgg.s:182    .text.Error_Handler:00000000 $t
C:\Users\leopi\AppData\Local\Temp\ccXD2Jgg.s:188    .text.Error_Handler:00000000 Error_Handler
C:\Users\leopi\AppData\Local\Temp\ccXD2Jgg.s:220    .text.SystemClock_Config:00000000 $t
C:\Users\leopi\AppData\Local\Temp\ccXD2Jgg.s:226    .text.SystemClock_Config:00000000 SystemClock_Config
C:\Users\leopi\AppData\Local\Temp\ccXD2Jgg.s:373    .text.SystemClock_Config:000000a0 $d
C:\Users\leopi\AppData\Local\Temp\ccXD2Jgg.s:379    .rodata.main.str1.4:00000000 $d
C:\Users\leopi\AppData\Local\Temp\ccXD2Jgg.s:384    .text.main:00000000 $t
C:\Users\leopi\AppData\Local\Temp\ccXD2Jgg.s:390    .text.main:00000000 main
C:\Users\leopi\AppData\Local\Temp\ccXD2Jgg.s:578    .text.main:00000140 $d
C:\Users\leopi\AppData\Local\Temp\ccXD2Jgg.s:585    .text.main:0000015c $t
C:\Users\leopi\AppData\Local\Temp\ccXD2Jgg.s:625    .text.main:00000180 $d
C:\Users\leopi\AppData\Local\Temp\ccXD2Jgg.s:643    .bss.buf:00000000 buf
C:\Users\leopi\AppData\Local\Temp\ccXD2Jgg.s:639    .bss.buf:00000000 $d

UNDEFINED SYMBOLS
HAL_UART_Transmit_IT
HAL_UART_Receive_IT
huart1
HAL_UART_Transmit
HAL_UART_Receive
memset
HAL_RCC_OscConfig
HAL_RCC_ClockConfig
HAL_Init
MX_GPIO_Init
MX_DMA_Init
MX_ADC1_Init
MX_ADC2_Init
MX_USART1_UART_Init
ADCStart
MX_TIM3_Init
BatteryCheck
ADCStop
ModeSelect
Signal
MX_TIM2_Init
MX_SPI3_Init
MX_TIM5_Init
MX_TIM4_Init
MX_TIM8_Init
MX_TIM1_Init
PIDSetGain
GainSetting
puts
GainTest
Debug
ARM GAS  C:\Users\leopi\AppData\Local\Temp\ccXD2Jgg.s 			page 24


FastestRun
TestIMU
Explore
WritingFree
adc1
