ARM GAS  C:\Users\leopi\AppData\Local\Temp\ccilUBL0.s 			page 1


   1              		.cpu cortex-m4
   2              		.arch armv7e-m
   3              		.fpu fpv4-sp-d16
   4              		.eabi_attribute 27, 1
   5              		.eabi_attribute 28, 1
   6              		.eabi_attribute 20, 1
   7              		.eabi_attribute 21, 1
   8              		.eabi_attribute 23, 3
   9              		.eabi_attribute 24, 1
  10              		.eabi_attribute 25, 1
  11              		.eabi_attribute 26, 1
  12              		.eabi_attribute 30, 1
  13              		.eabi_attribute 34, 1
  14              		.eabi_attribute 18, 4
  15              		.file	"MazeLib.c"
  16              		.text
  17              	.Ltext0:
  18              		.cfi_sections	.debug_frame
  19              		.section	.text.judgeRawNodeGoal,"ax",%progbits
  20              		.align	1
  21              		.syntax unified
  22              		.thumb
  23              		.thumb_func
  25              	judgeRawNodeGoal:
  26              	.LVL0:
  27              	.LFB7:
  28              		.file 1 "C:/Users/leopi/Documents/vs/S-Reo/MazeLibrary/MazeLib.c"
   1:C:/Users/leopi/Documents/vs/S-Reo/MazeLibrary\MazeLib.c **** #include "MazeLib.h"
   2:C:/Users/leopi/Documents/vs/S-Reo/MazeLibrary\MazeLib.c **** 
   3:C:/Users/leopi/Documents/vs/S-Reo/MazeLibrary\MazeLib.c **** #include "string.h"
   4:C:/Users/leopi/Documents/vs/S-Reo/MazeLibrary\MazeLib.c **** //è¿·è·¯ãƒ‡ãƒ¼ã‚¿ã‚’ç®¡ç†ã™ã‚‹æ©Ÿèƒ½ã‚’æ‹…ã†(æ¢ç´¢è€…ãƒ•ã‚¡ã‚¤ãƒ«ã¨åˆ†ã‘ã‚‹å¿…è¦ãŒã‚ã‚‹)
   5:C:/Users/leopi/Documents/vs/S-Reo/MazeLibrary\MazeLib.c **** // åˆæœŸåŒ–
   6:C:/Users/leopi/Documents/vs/S-Reo/MazeLibrary\MazeLib.c **** // è¡¨ç¤º
   7:C:/Users/leopi/Documents/vs/S-Reo/MazeLibrary\MazeLib.c **** // å–å¾—
   8:C:/Users/leopi/Documents/vs/S-Reo/MazeLibrary\MazeLib.c **** // æ›´æ–°
   9:C:/Users/leopi/Documents/vs/S-Reo/MazeLibrary\MazeLib.c **** 
  10:C:/Users/leopi/Documents/vs/S-Reo/MazeLibrary\MazeLib.c **** int WALL_MASK;
  11:C:/Users/leopi/Documents/vs/S-Reo/MazeLibrary\MazeLib.c **** 
  12:C:/Users/leopi/Documents/vs/S-Reo/MazeLibrary\MazeLib.c **** //åˆæœŸåŒ–å‡¦ç†
  13:C:/Users/leopi/Documents/vs/S-Reo/MazeLibrary\MazeLib.c **** void initWeight(maze_node *maze)
  14:C:/Users/leopi/Documents/vs/S-Reo/MazeLibrary\MazeLib.c **** {
  15:C:/Users/leopi/Documents/vs/S-Reo/MazeLibrary\MazeLib.c ****     for(int i=0; i < NUMBER_OF_SQUARES_X; i++)
  16:C:/Users/leopi/Documents/vs/S-Reo/MazeLibrary\MazeLib.c ****     {
  17:C:/Users/leopi/Documents/vs/S-Reo/MazeLibrary\MazeLib.c ****         for(int j=0; j < NUMBER_OF_SQUARES_Y+1; j++)
  18:C:/Users/leopi/Documents/vs/S-Reo/MazeLibrary\MazeLib.c ****         {
  19:C:/Users/leopi/Documents/vs/S-Reo/MazeLibrary\MazeLib.c ****             maze->RawNode[i][j].weight = MAX_WEIGHT;  
  20:C:/Users/leopi/Documents/vs/S-Reo/MazeLibrary\MazeLib.c ****         }
  21:C:/Users/leopi/Documents/vs/S-Reo/MazeLibrary\MazeLib.c ****     }
  22:C:/Users/leopi/Documents/vs/S-Reo/MazeLibrary\MazeLib.c ****     for(int i=0; i < NUMBER_OF_SQUARES_X+1; i++)
  23:C:/Users/leopi/Documents/vs/S-Reo/MazeLibrary\MazeLib.c ****     {
  24:C:/Users/leopi/Documents/vs/S-Reo/MazeLibrary\MazeLib.c ****         for(int j=0; j < NUMBER_OF_SQUARES_Y; j++)
  25:C:/Users/leopi/Documents/vs/S-Reo/MazeLibrary\MazeLib.c ****         {
  26:C:/Users/leopi/Documents/vs/S-Reo/MazeLibrary\MazeLib.c ****             maze->ColumnNode[i][j].weight = MAX_WEIGHT;
  27:C:/Users/leopi/Documents/vs/S-Reo/MazeLibrary\MazeLib.c ****         }
  28:C:/Users/leopi/Documents/vs/S-Reo/MazeLibrary\MazeLib.c ****     }
  29:C:/Users/leopi/Documents/vs/S-Reo/MazeLibrary\MazeLib.c **** }
  30:C:/Users/leopi/Documents/vs/S-Reo/MazeLibrary\MazeLib.c **** void initMaze(maze_node *maze) //é‡ã¿ã¯åˆ¥ã§åˆæœŸåŒ–
ARM GAS  C:\Users\leopi\AppData\Local\Temp\ccilUBL0.s 			page 2


  31:C:/Users/leopi/Documents/vs/S-Reo/MazeLibrary\MazeLib.c **** {
  32:C:/Users/leopi/Documents/vs/S-Reo/MazeLibrary\MazeLib.c ****     //ã¾ãšæœªæ¢ç´¢çŠ¶æ…‹ã«ã™ã‚‹
  33:C:/Users/leopi/Documents/vs/S-Reo/MazeLibrary\MazeLib.c ****     for(int i=0; i < NUMBER_OF_SQUARES_X; i++)
  34:C:/Users/leopi/Documents/vs/S-Reo/MazeLibrary\MazeLib.c ****     {
  35:C:/Users/leopi/Documents/vs/S-Reo/MazeLibrary\MazeLib.c ****         for(int j=1; j < NUMBER_OF_SQUARES_Y; j++)
  36:C:/Users/leopi/Documents/vs/S-Reo/MazeLibrary\MazeLib.c ****         {
  37:C:/Users/leopi/Documents/vs/S-Reo/MazeLibrary\MazeLib.c ****             maze->RawNode[i][j].existence = UNKNOWN;
  38:C:/Users/leopi/Documents/vs/S-Reo/MazeLibrary\MazeLib.c ****             maze->RawNode[i][j].draw = false;//æœªçŸ¥å£ã¯æç”»ã®ã¨ãã«ç„¡ã„ã‚‚ã®ã¨ã™ã‚‹
  39:C:/Users/leopi/Documents/vs/S-Reo/MazeLibrary\MazeLib.c ****             maze->RawNode[i][j].rc = 0;
  40:C:/Users/leopi/Documents/vs/S-Reo/MazeLibrary\MazeLib.c ****             maze->RawNode[i][j].pos.x = i;
  41:C:/Users/leopi/Documents/vs/S-Reo/MazeLibrary\MazeLib.c ****             maze->RawNode[i][j].pos.y = j;
  42:C:/Users/leopi/Documents/vs/S-Reo/MazeLibrary\MazeLib.c **** //            maze->RawNode[i][j].visit = false;
  43:C:/Users/leopi/Documents/vs/S-Reo/MazeLibrary\MazeLib.c ****         }
  44:C:/Users/leopi/Documents/vs/S-Reo/MazeLibrary\MazeLib.c ****     }
  45:C:/Users/leopi/Documents/vs/S-Reo/MazeLibrary\MazeLib.c ****     for(int i=0; i < NUMBER_OF_SQUARES_X; i++) //å¤–å£
  46:C:/Users/leopi/Documents/vs/S-Reo/MazeLibrary\MazeLib.c ****     {
  47:C:/Users/leopi/Documents/vs/S-Reo/MazeLibrary\MazeLib.c ****             maze->RawNode[i][0].existence = WALL;
  48:C:/Users/leopi/Documents/vs/S-Reo/MazeLibrary\MazeLib.c ****             maze->RawNode[i][0].draw = true;//æœªçŸ¥å£ã¯æç”»ã®ã¨ãã«ç„¡ã„ã‚‚ã®ã¨ã™ã‚‹
  49:C:/Users/leopi/Documents/vs/S-Reo/MazeLibrary\MazeLib.c ****             maze->RawNode[i][0].rc = 0;
  50:C:/Users/leopi/Documents/vs/S-Reo/MazeLibrary\MazeLib.c ****             maze->RawNode[i][0].pos.x = i;
  51:C:/Users/leopi/Documents/vs/S-Reo/MazeLibrary\MazeLib.c ****             maze->RawNode[i][0].pos.y = 0;
  52:C:/Users/leopi/Documents/vs/S-Reo/MazeLibrary\MazeLib.c **** //            maze->RawNode[i][0].visit = true; //ä¾¿å®œçš„ã«è¨ªå•æ¸ˆã¿ã¨ã™ã‚‹
  53:C:/Users/leopi/Documents/vs/S-Reo/MazeLibrary\MazeLib.c ****             maze->RawNode[i][NUMBER_OF_SQUARES_Y].existence = WALL;
  54:C:/Users/leopi/Documents/vs/S-Reo/MazeLibrary\MazeLib.c ****             maze->RawNode[i][NUMBER_OF_SQUARES_Y].draw = true;//æœªçŸ¥å£ã¯æç”»ã®ã¨ãã«ç„¡ã
  55:C:/Users/leopi/Documents/vs/S-Reo/MazeLibrary\MazeLib.c ****             maze->RawNode[i][NUMBER_OF_SQUARES_Y].rc = 0;
  56:C:/Users/leopi/Documents/vs/S-Reo/MazeLibrary\MazeLib.c ****             maze->RawNode[i][NUMBER_OF_SQUARES_Y].pos.x = i;
  57:C:/Users/leopi/Documents/vs/S-Reo/MazeLibrary\MazeLib.c ****             maze->RawNode[i][NUMBER_OF_SQUARES_Y].pos.y = NUMBER_OF_SQUARES_Y;
  58:C:/Users/leopi/Documents/vs/S-Reo/MazeLibrary\MazeLib.c **** //            maze->RawNode[i][NUMBER_OF_SQUARES_Y].visit = true; //ä¾¿å®œçš„ã«è¨ªå•æ¸ˆã¿ã¨ã™ã
  59:C:/Users/leopi/Documents/vs/S-Reo/MazeLibrary\MazeLib.c ****     }
  60:C:/Users/leopi/Documents/vs/S-Reo/MazeLibrary\MazeLib.c ****     for(int i=1; i < NUMBER_OF_SQUARES_X; i++)
  61:C:/Users/leopi/Documents/vs/S-Reo/MazeLibrary\MazeLib.c ****     {
  62:C:/Users/leopi/Documents/vs/S-Reo/MazeLibrary\MazeLib.c ****         for(int j=0; j < NUMBER_OF_SQUARES_Y; j++)
  63:C:/Users/leopi/Documents/vs/S-Reo/MazeLibrary\MazeLib.c ****         {
  64:C:/Users/leopi/Documents/vs/S-Reo/MazeLibrary\MazeLib.c ****             maze->ColumnNode[i][j].existence = UNKNOWN;
  65:C:/Users/leopi/Documents/vs/S-Reo/MazeLibrary\MazeLib.c ****             maze->ColumnNode[i][j].draw = false;
  66:C:/Users/leopi/Documents/vs/S-Reo/MazeLibrary\MazeLib.c ****             maze->ColumnNode[i][j].rc = 1;
  67:C:/Users/leopi/Documents/vs/S-Reo/MazeLibrary\MazeLib.c ****             maze->ColumnNode[i][j].pos.x = i;
  68:C:/Users/leopi/Documents/vs/S-Reo/MazeLibrary\MazeLib.c ****             maze->ColumnNode[i][j].pos.y = j;
  69:C:/Users/leopi/Documents/vs/S-Reo/MazeLibrary\MazeLib.c **** //            maze->ColumnNode[i][j].visit = false;
  70:C:/Users/leopi/Documents/vs/S-Reo/MazeLibrary\MazeLib.c ****         }
  71:C:/Users/leopi/Documents/vs/S-Reo/MazeLibrary\MazeLib.c ****     }
  72:C:/Users/leopi/Documents/vs/S-Reo/MazeLibrary\MazeLib.c ****     for(int j=0; j < NUMBER_OF_SQUARES_Y; j++)
  73:C:/Users/leopi/Documents/vs/S-Reo/MazeLibrary\MazeLib.c ****     {
  74:C:/Users/leopi/Documents/vs/S-Reo/MazeLibrary\MazeLib.c ****             maze->ColumnNode[0][j].existence = WALL;
  75:C:/Users/leopi/Documents/vs/S-Reo/MazeLibrary\MazeLib.c ****             maze->ColumnNode[0][j].draw = true;
  76:C:/Users/leopi/Documents/vs/S-Reo/MazeLibrary\MazeLib.c ****             maze->ColumnNode[0][j].rc = 1;
  77:C:/Users/leopi/Documents/vs/S-Reo/MazeLibrary\MazeLib.c ****             maze->ColumnNode[0][j].pos.x = 0;
  78:C:/Users/leopi/Documents/vs/S-Reo/MazeLibrary\MazeLib.c ****             maze->ColumnNode[0][j].pos.y = j;
  79:C:/Users/leopi/Documents/vs/S-Reo/MazeLibrary\MazeLib.c **** //            maze->ColumnNode[0][j].visit = true;
  80:C:/Users/leopi/Documents/vs/S-Reo/MazeLibrary\MazeLib.c ****             maze->ColumnNode[NUMBER_OF_SQUARES_X][j].existence = WALL;
  81:C:/Users/leopi/Documents/vs/S-Reo/MazeLibrary\MazeLib.c ****             maze->ColumnNode[NUMBER_OF_SQUARES_X][j].draw = true;
  82:C:/Users/leopi/Documents/vs/S-Reo/MazeLibrary\MazeLib.c ****             maze->ColumnNode[NUMBER_OF_SQUARES_X][j].rc = 1;
  83:C:/Users/leopi/Documents/vs/S-Reo/MazeLibrary\MazeLib.c ****             maze->ColumnNode[NUMBER_OF_SQUARES_X][j].pos.x = NUMBER_OF_SQUARES_X;
  84:C:/Users/leopi/Documents/vs/S-Reo/MazeLibrary\MazeLib.c ****             maze->ColumnNode[NUMBER_OF_SQUARES_X][j].pos.y = j;
  85:C:/Users/leopi/Documents/vs/S-Reo/MazeLibrary\MazeLib.c **** //            maze->ColumnNode[NUMBER_OF_SQUARES_X][j].visit = true;
  86:C:/Users/leopi/Documents/vs/S-Reo/MazeLibrary\MazeLib.c ****     }
  87:C:/Users/leopi/Documents/vs/S-Reo/MazeLibrary\MazeLib.c ****     maze->ColumnNode[1][0].existence = WALL;    //æ±1
ARM GAS  C:\Users\leopi\AppData\Local\Temp\ccilUBL0.s 			page 3


  88:C:/Users/leopi/Documents/vs/S-Reo/MazeLibrary\MazeLib.c ****     maze->RawNode[0][1].existence = NOWALL;     //åŒ—0
  89:C:/Users/leopi/Documents/vs/S-Reo/MazeLibrary\MazeLib.c **** 
  90:C:/Users/leopi/Documents/vs/S-Reo/MazeLibrary\MazeLib.c ****     maze->ColumnNode[1][0].draw = true;    //æ±1
  91:C:/Users/leopi/Documents/vs/S-Reo/MazeLibrary\MazeLib.c ****     maze->RawNode[0][1].draw = false;     //åŒ—0
  92:C:/Users/leopi/Documents/vs/S-Reo/MazeLibrary\MazeLib.c **** 
  93:C:/Users/leopi/Documents/vs/S-Reo/MazeLibrary\MazeLib.c ****     //visitã¯ã€å£ãŒã‚ã‚‹ã¨ã“ã‚ã¨è¨ªå•æ¸ˆã¿ã®ã¨ã“ã‚ã‚’1ã€ã¾ã ã®ã¨ã“ã‚ã‚’0
  94:C:/Users/leopi/Documents/vs/S-Reo/MazeLibrary\MazeLib.c **** //    maze->ColumnNode[1][0].visit = true;    //æ±1
  95:C:/Users/leopi/Documents/vs/S-Reo/MazeLibrary\MazeLib.c **** //	maze->RawNode[0][1].visit = false;     //åŒ—0
  96:C:/Users/leopi/Documents/vs/S-Reo/MazeLibrary\MazeLib.c **** }
  97:C:/Users/leopi/Documents/vs/S-Reo/MazeLibrary\MazeLib.c **** void initTargetAreaWeight(maze_node *maze, position *target_pos, position *target_size)
  98:C:/Users/leopi/Documents/vs/S-Reo/MazeLibrary\MazeLib.c **** {
  99:C:/Users/leopi/Documents/vs/S-Reo/MazeLibrary\MazeLib.c ****     uint8_t x = target_pos->x;
 100:C:/Users/leopi/Documents/vs/S-Reo/MazeLibrary\MazeLib.c ****     uint8_t y = target_pos->y;
 101:C:/Users/leopi/Documents/vs/S-Reo/MazeLibrary\MazeLib.c ****     //ã‚´ãƒ¼ãƒ«ã‚¨ãƒªã‚¢ã®å¤–å €ã¨ä¸­ã®ãƒãƒ¼ãƒ‰ã¯å…¨ã¦0ã€å£ãŒã‚ã‚Œã°MAXã€‚
 102:C:/Users/leopi/Documents/vs/S-Reo/MazeLibrary\MazeLib.c ****     for(int i=0; i < target_size->x; i++)
 103:C:/Users/leopi/Documents/vs/S-Reo/MazeLibrary\MazeLib.c ****     {
 104:C:/Users/leopi/Documents/vs/S-Reo/MazeLibrary\MazeLib.c ****         for(int j=0; j < target_size->y; j++)
 105:C:/Users/leopi/Documents/vs/S-Reo/MazeLibrary\MazeLib.c ****         {
 106:C:/Users/leopi/Documents/vs/S-Reo/MazeLibrary\MazeLib.c ****             // maze->RawNode[x+i][y+1+j].weight = (maze->RawNode[x+i][y+1+j].weight == MAX_WEIGHT) 
 107:C:/Users/leopi/Documents/vs/S-Reo/MazeLibrary\MazeLib.c ****             // maze->ColumnNode[x+1+i][y+j].weight = (maze->ColumnNode[x+1+i][y+j].weight == MAX_WE
 108:C:/Users/leopi/Documents/vs/S-Reo/MazeLibrary\MazeLib.c ****             // maze->RawNode[x+i][y+j].weight = (maze->RawNode[x+i][y+j].weight == MAX_WEIGHT) ? MA
 109:C:/Users/leopi/Documents/vs/S-Reo/MazeLibrary\MazeLib.c ****             // maze->ColumnNode[x+i][y+j].weight = (maze->ColumnNode[x+i][y+j].weight == MAX_WEIGHT
 110:C:/Users/leopi/Documents/vs/S-Reo/MazeLibrary\MazeLib.c **** 
 111:C:/Users/leopi/Documents/vs/S-Reo/MazeLibrary\MazeLib.c ****         	//ãªãœdraw == trueã§ã‚„ã£ã¦ã„ãŸã‹ã‚ã‹ã‚‰ãªã„
 112:C:/Users/leopi/Documents/vs/S-Reo/MazeLibrary\MazeLib.c ****             maze->RawNode[x+i][y+1+j].weight = (maze->RawNode[x+i][y+1+j].existence == WALL) ? MAX_
 113:C:/Users/leopi/Documents/vs/S-Reo/MazeLibrary\MazeLib.c ****             maze->ColumnNode[x+1+i][y+j].weight = (maze->ColumnNode[x+1+i][y+j].existence == WALL) 
 114:C:/Users/leopi/Documents/vs/S-Reo/MazeLibrary\MazeLib.c ****             maze->RawNode[x+i][y+j].weight = (maze->RawNode[x+i][y+j].existence == WALL) ? MAX_WEIG
 115:C:/Users/leopi/Documents/vs/S-Reo/MazeLibrary\MazeLib.c ****             maze->ColumnNode[x+i][y+j].weight = (maze->ColumnNode[x+i][y+j].existence == WALL) ? MA
 116:C:/Users/leopi/Documents/vs/S-Reo/MazeLibrary\MazeLib.c ****         }
 117:C:/Users/leopi/Documents/vs/S-Reo/MazeLibrary\MazeLib.c ****     }
 118:C:/Users/leopi/Documents/vs/S-Reo/MazeLibrary\MazeLib.c **** }
 119:C:/Users/leopi/Documents/vs/S-Reo/MazeLibrary\MazeLib.c **** 
 120:C:/Users/leopi/Documents/vs/S-Reo/MazeLibrary\MazeLib.c **** /* é‡ã¿ãƒãƒƒãƒ—ã‚’å«ã‚€ã€ãƒãƒ¼ãƒ‰ã®æ›´æ–°å‡¦ç† */
 121:C:/Users/leopi/Documents/vs/S-Reo/MazeLibrary\MazeLib.c **** #define WEIGHT_NANAME   1
 122:C:/Users/leopi/Documents/vs/S-Reo/MazeLibrary\MazeLib.c **** #define WEIGHT_STRAIGHT 3
 123:C:/Users/leopi/Documents/vs/S-Reo/MazeLibrary\MazeLib.c **** 
 124:C:/Users/leopi/Documents/vs/S-Reo/MazeLibrary\MazeLib.c **** void updateAllNodeWeight(maze_node *maze,position *target_pos, position *target_size, int mask)
 125:C:/Users/leopi/Documents/vs/S-Reo/MazeLibrary\MazeLib.c **** {
 126:C:/Users/leopi/Documents/vs/S-Reo/MazeLibrary\MazeLib.c **** 	//å…¨ä½“ã«154/20ms = 7.7ms
 127:C:/Users/leopi/Documents/vs/S-Reo/MazeLibrary\MazeLib.c ****     //æ–°ã—ã„åŒºç”»ã«å…¥ã£ãŸã¨ãã«ã€æ›´æ–°
 128:C:/Users/leopi/Documents/vs/S-Reo/MazeLibrary\MazeLib.c **** 
 129:C:/Users/leopi/Documents/vs/S-Reo/MazeLibrary\MazeLib.c ****     initWeight(maze); //3/20ms
 130:C:/Users/leopi/Documents/vs/S-Reo/MazeLibrary\MazeLib.c **** 
 131:C:/Users/leopi/Documents/vs/S-Reo/MazeLibrary\MazeLib.c ****     initTargetAreaWeight(maze, target_pos, target_size);
 132:C:/Users/leopi/Documents/vs/S-Reo/MazeLibrary\MazeLib.c **** 
 133:C:/Users/leopi/Documents/vs/S-Reo/MazeLibrary\MazeLib.c ****     int i,j; //ã‚³ãƒ³ãƒ‘ã‚¤ãƒ©ã‚ªãƒ—ã‚·ãƒ§ãƒ³ã§-Ofastã‚’ä»˜ã‘ã‚Œã°ã€registerä¿®é£¾å­ã¯è¦ã‚‰ã
 134:C:/Users/leopi/Documents/vs/S-Reo/MazeLibrary\MazeLib.c ****     _Bool change_flag;
 135:C:/Users/leopi/Documents/vs/S-Reo/MazeLibrary\MazeLib.c ****     int skip_raw=0, skip_column=0;
 136:C:/Users/leopi/Documents/vs/S-Reo/MazeLibrary\MazeLib.c **** 
 137:C:/Users/leopi/Documents/vs/S-Reo/MazeLibrary\MazeLib.c **** 	do //(6,9)(7,10)ã«å¯¾ã—ã¦ã€7,11ãŒãŠã‹ã—ã„ã€‚
 138:C:/Users/leopi/Documents/vs/S-Reo/MazeLibrary\MazeLib.c **** 	{
 139:C:/Users/leopi/Documents/vs/S-Reo/MazeLibrary\MazeLib.c **** 		change_flag = false;
 140:C:/Users/leopi/Documents/vs/S-Reo/MazeLibrary\MazeLib.c ****         
 141:C:/Users/leopi/Documents/vs/S-Reo/MazeLibrary\MazeLib.c ****         //åˆ—
 142:C:/Users/leopi/Documents/vs/S-Reo/MazeLibrary\MazeLib.c ****         for(i = 1; i < NUMBER_OF_SQUARES_X; i++)
 143:C:/Users/leopi/Documents/vs/S-Reo/MazeLibrary\MazeLib.c **** 		{
 144:C:/Users/leopi/Documents/vs/S-Reo/MazeLibrary\MazeLib.c **** 			for( j = 0; j < NUMBER_OF_SQUARES_Y; j++)
ARM GAS  C:\Users\leopi\AppData\Local\Temp\ccilUBL0.s 			page 4


 145:C:/Users/leopi/Documents/vs/S-Reo/MazeLibrary\MazeLib.c **** 			{
 146:C:/Users/leopi/Documents/vs/S-Reo/MazeLibrary\MazeLib.c ****                 if(maze->ColumnNode[i][j].weight == MAX_WEIGHT)		//MAXã®å ´åˆã¯æ¬¡ã¸
 147:C:/Users/leopi/Documents/vs/S-Reo/MazeLibrary\MazeLib.c **** 				{
 148:C:/Users/leopi/Documents/vs/S-Reo/MazeLibrary\MazeLib.c ****                 	skip_column++;
 149:C:/Users/leopi/Documents/vs/S-Reo/MazeLibrary\MazeLib.c **** 					continue;
 150:C:/Users/leopi/Documents/vs/S-Reo/MazeLibrary\MazeLib.c **** 				}
 151:C:/Users/leopi/Documents/vs/S-Reo/MazeLibrary\MazeLib.c ****                 // printf("continueã¯ã‚¯ãƒªã‚¢. Column[%d][%d]\r\n",i,j);
 152:C:/Users/leopi/Documents/vs/S-Reo/MazeLibrary\MazeLib.c **** 
 153:C:/Users/leopi/Documents/vs/S-Reo/MazeLibrary\MazeLib.c ****                 //æ±å´ãƒãƒ¼ãƒ‰
 154:C:/Users/leopi/Documents/vs/S-Reo/MazeLibrary\MazeLib.c **** 				if(i < NUMBER_OF_SQUARES_X-1)					//ç¯„å›²ãƒã‚§ãƒƒã‚¯
 155:C:/Users/leopi/Documents/vs/S-Reo/MazeLibrary\MazeLib.c **** 				{
 156:C:/Users/leopi/Documents/vs/S-Reo/MazeLibrary\MazeLib.c ****                     // printf("åˆ—æ±%d,mask: %d, result: %d\r\n",maze->ColumnNode[i+1][j].existenc
 157:C:/Users/leopi/Documents/vs/S-Reo/MazeLibrary\MazeLib.c **** 					if( ((maze->ColumnNode[i+1][j].existence & mask) == NOWALL) && (maze->ColumnNode[i+1][j].weigh
 158:C:/Users/leopi/Documents/vs/S-Reo/MazeLibrary\MazeLib.c **** 					{
 159:C:/Users/leopi/Documents/vs/S-Reo/MazeLibrary\MazeLib.c **** 						maze->ColumnNode[i+1][j].weight = maze->ColumnNode[i][j].weight + WEIGHT_STRAIGHT;	//å€¤ã‚’ä»
 160:C:/Users/leopi/Documents/vs/S-Reo/MazeLibrary\MazeLib.c **** 						change_flag = true;		//å€¤ãŒæ›´æ–°ã•ã‚ŒãŸã“ã¨ã‚’ç¤ºã™
 161:C:/Users/leopi/Documents/vs/S-Reo/MazeLibrary\MazeLib.c **** 					}
 162:C:/Users/leopi/Documents/vs/S-Reo/MazeLibrary\MazeLib.c ****                 }
 163:C:/Users/leopi/Documents/vs/S-Reo/MazeLibrary\MazeLib.c ****                 //è¥¿å´ãƒãƒ¼ãƒ‰
 164:C:/Users/leopi/Documents/vs/S-Reo/MazeLibrary\MazeLib.c **** 				if(1 < i)						//ç¯„å›²ãƒã‚§ãƒƒã‚¯
 165:C:/Users/leopi/Documents/vs/S-Reo/MazeLibrary\MazeLib.c **** 				{
 166:C:/Users/leopi/Documents/vs/S-Reo/MazeLibrary\MazeLib.c **** 					if( ((maze->ColumnNode[i-1][j].existence & mask) == NOWALL) && (maze->ColumnNode[i-1][j].weigh
 167:C:/Users/leopi/Documents/vs/S-Reo/MazeLibrary\MazeLib.c **** 					{
 168:C:/Users/leopi/Documents/vs/S-Reo/MazeLibrary\MazeLib.c **** 						maze->ColumnNode[i-1][j].weight = maze->ColumnNode[i][j].weight + WEIGHT_STRAIGHT;	//å€¤ã‚’ä»
 169:C:/Users/leopi/Documents/vs/S-Reo/MazeLibrary\MazeLib.c **** 						change_flag = true;		//å€¤ãŒæ›´æ–°ã•ã‚ŒãŸã“ã¨ã‚’ç¤ºã™
 170:C:/Users/leopi/Documents/vs/S-Reo/MazeLibrary\MazeLib.c **** 					}
 171:C:/Users/leopi/Documents/vs/S-Reo/MazeLibrary\MazeLib.c **** 				}
 172:C:/Users/leopi/Documents/vs/S-Reo/MazeLibrary\MazeLib.c ****                 //åŒ—å´ã«æ–œã‚ãŒ2æ–¹å‘
 173:C:/Users/leopi/Documents/vs/S-Reo/MazeLibrary\MazeLib.c **** 				if(j < NUMBER_OF_SQUARES_Y-1)					//ç¯„å›²ãƒã‚§ãƒƒã‚¯
 174:C:/Users/leopi/Documents/vs/S-Reo/MazeLibrary\MazeLib.c **** 				{
 175:C:/Users/leopi/Documents/vs/S-Reo/MazeLibrary\MazeLib.c ****                     //åŒ—æ±
 176:C:/Users/leopi/Documents/vs/S-Reo/MazeLibrary\MazeLib.c **** 					if(i < NUMBER_OF_SQUARES_X)
 177:C:/Users/leopi/Documents/vs/S-Reo/MazeLibrary\MazeLib.c **** 					{
 178:C:/Users/leopi/Documents/vs/S-Reo/MazeLibrary\MazeLib.c **** 						if( ((maze->RawNode[i][j+1].existence & mask) == NOWALL) && (maze->RawNode[i][j+1].weight == 
 179:C:/Users/leopi/Documents/vs/S-Reo/MazeLibrary\MazeLib.c **** 						{
 180:C:/Users/leopi/Documents/vs/S-Reo/MazeLibrary\MazeLib.c **** 							maze->RawNode[i][j+1].weight = maze->ColumnNode[i][j].weight + WEIGHT_NANAME;	//å€¤ã‚’ä»£å…¥
 181:C:/Users/leopi/Documents/vs/S-Reo/MazeLibrary\MazeLib.c **** 							change_flag = true;		//å€¤ãŒæ›´æ–°ã•ã‚ŒãŸã“ã¨ã‚’ç¤ºã™
 182:C:/Users/leopi/Documents/vs/S-Reo/MazeLibrary\MazeLib.c **** 						}
 183:C:/Users/leopi/Documents/vs/S-Reo/MazeLibrary\MazeLib.c **** 					}
 184:C:/Users/leopi/Documents/vs/S-Reo/MazeLibrary\MazeLib.c ****                     //åŒ—è¥¿
 185:C:/Users/leopi/Documents/vs/S-Reo/MazeLibrary\MazeLib.c **** 					if(0 < i)
 186:C:/Users/leopi/Documents/vs/S-Reo/MazeLibrary\MazeLib.c **** 					{
 187:C:/Users/leopi/Documents/vs/S-Reo/MazeLibrary\MazeLib.c **** 						if( ((maze->RawNode[i-1][j+1].existence & mask) == NOWALL) && (maze->RawNode[i-1][j+1].weight
 188:C:/Users/leopi/Documents/vs/S-Reo/MazeLibrary\MazeLib.c **** 						{
 189:C:/Users/leopi/Documents/vs/S-Reo/MazeLibrary\MazeLib.c **** 							maze->RawNode[i-1][j+1].weight = maze->ColumnNode[i][j].weight + WEIGHT_NANAME;	//å€¤ã‚’ä»£å
 190:C:/Users/leopi/Documents/vs/S-Reo/MazeLibrary\MazeLib.c **** 							change_flag = true;		//å€¤ãŒæ›´æ–°ã•ã‚ŒãŸã“ã¨ã‚’ç¤ºã™
 191:C:/Users/leopi/Documents/vs/S-Reo/MazeLibrary\MazeLib.c **** 						}
 192:C:/Users/leopi/Documents/vs/S-Reo/MazeLibrary\MazeLib.c **** 					}
 193:C:/Users/leopi/Documents/vs/S-Reo/MazeLibrary\MazeLib.c **** 				}
 194:C:/Users/leopi/Documents/vs/S-Reo/MazeLibrary\MazeLib.c **** 
 195:C:/Users/leopi/Documents/vs/S-Reo/MazeLibrary\MazeLib.c ****                 //å—å´ã«æ–œã‚ãŒ2æ–¹å‘
 196:C:/Users/leopi/Documents/vs/S-Reo/MazeLibrary\MazeLib.c **** 				if(0 < j)
 197:C:/Users/leopi/Documents/vs/S-Reo/MazeLibrary\MazeLib.c **** 				{
 198:C:/Users/leopi/Documents/vs/S-Reo/MazeLibrary\MazeLib.c **** 					if( i < NUMBER_OF_SQUARES_X )//j > 0)						//ç¯„å›²ãƒã‚§ãƒƒã‚¯
 199:C:/Users/leopi/Documents/vs/S-Reo/MazeLibrary\MazeLib.c **** 					{
 200:C:/Users/leopi/Documents/vs/S-Reo/MazeLibrary\MazeLib.c **** 						//å—æ±
 201:C:/Users/leopi/Documents/vs/S-Reo/MazeLibrary\MazeLib.c **** 						if( ((maze->RawNode[i][j].existence & mask) == NOWALL) && (maze->RawNode[i][j].weight == MAX_
ARM GAS  C:\Users\leopi\AppData\Local\Temp\ccilUBL0.s 			page 5


 202:C:/Users/leopi/Documents/vs/S-Reo/MazeLibrary\MazeLib.c **** 						{
 203:C:/Users/leopi/Documents/vs/S-Reo/MazeLibrary\MazeLib.c **** 							maze->RawNode[i][j].weight = maze->ColumnNode[i][j].weight + WEIGHT_NANAME;	//å€¤ã‚’ä»£å…¥
 204:C:/Users/leopi/Documents/vs/S-Reo/MazeLibrary\MazeLib.c **** 							change_flag = true;		//å€¤ãŒæ›´æ–°ã•ã‚ŒãŸã“ã¨ã‚’ç¤ºã™
 205:C:/Users/leopi/Documents/vs/S-Reo/MazeLibrary\MazeLib.c **** 						}
 206:C:/Users/leopi/Documents/vs/S-Reo/MazeLibrary\MazeLib.c **** 					}
 207:C:/Users/leopi/Documents/vs/S-Reo/MazeLibrary\MazeLib.c **** 					if(0 < i ){
 208:C:/Users/leopi/Documents/vs/S-Reo/MazeLibrary\MazeLib.c **** 						//å—è¥¿
 209:C:/Users/leopi/Documents/vs/S-Reo/MazeLibrary\MazeLib.c **** 						if( ((maze->RawNode[i-1][j].existence & mask) == NOWALL) && (maze->RawNode[i-1][j].weight == 
 210:C:/Users/leopi/Documents/vs/S-Reo/MazeLibrary\MazeLib.c **** 						{
 211:C:/Users/leopi/Documents/vs/S-Reo/MazeLibrary\MazeLib.c **** 								maze->RawNode[i-1][j].weight = maze->ColumnNode[i][j].weight + WEIGHT_NANAME;	//å€¤ã‚’ä»£å…
 212:C:/Users/leopi/Documents/vs/S-Reo/MazeLibrary\MazeLib.c **** 								change_flag = true;		//å€¤ãŒæ›´æ–°ã•ã‚ŒãŸã“ã¨ã‚’ç¤ºã™
 213:C:/Users/leopi/Documents/vs/S-Reo/MazeLibrary\MazeLib.c **** 						}
 214:C:/Users/leopi/Documents/vs/S-Reo/MazeLibrary\MazeLib.c **** 					}
 215:C:/Users/leopi/Documents/vs/S-Reo/MazeLibrary\MazeLib.c **** 				}
 216:C:/Users/leopi/Documents/vs/S-Reo/MazeLibrary\MazeLib.c ****             }
 217:C:/Users/leopi/Documents/vs/S-Reo/MazeLibrary\MazeLib.c ****         }
 218:C:/Users/leopi/Documents/vs/S-Reo/MazeLibrary\MazeLib.c ****         //è¡Œã¨åˆ—ã§ã‚ã‘ã¦ã€ä¸€å‘¨
 219:C:/Users/leopi/Documents/vs/S-Reo/MazeLibrary\MazeLib.c ****          //è¡Œã‹ã‚‰
 220:C:/Users/leopi/Documents/vs/S-Reo/MazeLibrary\MazeLib.c ****  		for( i = 0; i < NUMBER_OF_SQUARES_X; i++)			//è¿·è·¯ã®å¤§ãã•åˆ†ãƒ«ãƒ¼ãƒ—(xåº§æ¨™)
 221:C:/Users/leopi/Documents/vs/S-Reo/MazeLibrary\MazeLib.c ****  		{
 222:C:/Users/leopi/Documents/vs/S-Reo/MazeLibrary\MazeLib.c ****  			for(j = 1; j < NUMBER_OF_SQUARES_Y; j++)		//è¿·è·¯ã®å¤§ãã•åˆ†ãƒ«ãƒ¼ãƒ—(yåº§æ¨™)
 223:C:/Users/leopi/Documents/vs/S-Reo/MazeLibrary\MazeLib.c ****  			{
 224:C:/Users/leopi/Documents/vs/S-Reo/MazeLibrary\MazeLib.c ****                  //1ãƒãƒ¼ãƒ‰ãšã¤è¦‹ã‚‹.ãã“ã‹ã‚‰åŠ ç®—å¯¾è±¡ãŒæœ€å¤§6å€‹
 225:C:/Users/leopi/Documents/vs/S-Reo/MazeLibrary\MazeLib.c ****                  //ç«¯ã‚’è¦‹ãªã„ã®ã§ã€ä¸€ç•ªä¸Šã®åˆ—ã‹ã‚‰ã‚¹ã‚¿ãƒ¼ãƒˆ j=N; j >= 0, xã‚’1ã‹ã
 226:C:/Users/leopi/Documents/vs/S-Reo/MazeLibrary\MazeLib.c ****                  //æ¬¡ã«è¡Œ j=N-1ã‹ã‚‰1ã¾ã§ xã‚’0ã‹ã‚‰N-1ã¾ã§
 227:C:/Users/leopi/Documents/vs/S-Reo/MazeLibrary\MazeLib.c ****  				if(maze->RawNode[i][j].weight == MAX_WEIGHT)		//MAXã®å ´åˆã¯æ¬¡ã¸
 228:C:/Users/leopi/Documents/vs/S-Reo/MazeLibrary\MazeLib.c ****  				{
 229:C:/Users/leopi/Documents/vs/S-Reo/MazeLibrary\MazeLib.c ****  					skip_raw ++;
 230:C:/Users/leopi/Documents/vs/S-Reo/MazeLibrary\MazeLib.c ****  					continue;
 231:C:/Users/leopi/Documents/vs/S-Reo/MazeLibrary\MazeLib.c ****  				}
 232:C:/Users/leopi/Documents/vs/S-Reo/MazeLibrary\MazeLib.c ****  				// printf("continueã¯ã‚¯ãƒªã‚¢. Raw[%d][%d]\r\n",i,j);
 233:C:/Users/leopi/Documents/vs/S-Reo/MazeLibrary\MazeLib.c ****                  //åŒ—å´ãƒãƒ¼ãƒ‰
 234:C:/Users/leopi/Documents/vs/S-Reo/MazeLibrary\MazeLib.c ****  				if(j < NUMBER_OF_SQUARES_Y-1)   //ç¯„å›²ãƒã‚§ãƒƒã‚¯. åº§æ¨™ã®xyã§ã¯ãªãã€ãƒãƒ¼ãƒ‰ã®xy
 235:C:/Users/leopi/Documents/vs/S-Reo/MazeLibrary\MazeLib.c ****  				{
 236:C:/Users/leopi/Documents/vs/S-Reo/MazeLibrary\MazeLib.c ****  					if( ((maze->RawNode[i][j+1].existence & mask) == NOWALL) && (maze->RawNode[i][j+1].weight == 
 237:C:/Users/leopi/Documents/vs/S-Reo/MazeLibrary\MazeLib.c ****  					{
 238:C:/Users/leopi/Documents/vs/S-Reo/MazeLibrary\MazeLib.c ****  						maze->RawNode[i][j+1].weight = maze->RawNode[i][j].weight + WEIGHT_STRAIGHT;	//å€¤ã‚’ä»£å…¥
 239:C:/Users/leopi/Documents/vs/S-Reo/MazeLibrary\MazeLib.c ****  						change_flag = true;		//å€¤ãŒæ›´æ–°ã•ã‚ŒãŸã“ã¨ã‚’ç¤ºã™
 240:C:/Users/leopi/Documents/vs/S-Reo/MazeLibrary\MazeLib.c ****  					}
 241:C:/Users/leopi/Documents/vs/S-Reo/MazeLibrary\MazeLib.c ****                  }
 242:C:/Users/leopi/Documents/vs/S-Reo/MazeLibrary\MazeLib.c ****                  //å—å´ãƒãƒ¼ãƒ‰
 243:C:/Users/leopi/Documents/vs/S-Reo/MazeLibrary\MazeLib.c ****  				if(j > 1)						//ç¯„å›²ãƒã‚§ãƒƒã‚¯.ãƒŸã‚¹ã£ã¦ãŸ
 244:C:/Users/leopi/Documents/vs/S-Reo/MazeLibrary\MazeLib.c ****  				{
 245:C:/Users/leopi/Documents/vs/S-Reo/MazeLibrary\MazeLib.c ****  					if( ((maze->RawNode[i][j-1].existence & mask) == NOWALL) && (maze->RawNode[i][j-1].weight == 
 246:C:/Users/leopi/Documents/vs/S-Reo/MazeLibrary\MazeLib.c ****  					{
 247:C:/Users/leopi/Documents/vs/S-Reo/MazeLibrary\MazeLib.c ****  						maze->RawNode[i][j-1].weight = maze->RawNode[i][j].weight + WEIGHT_STRAIGHT;	//å€¤ã‚’ä»£å…¥
 248:C:/Users/leopi/Documents/vs/S-Reo/MazeLibrary\MazeLib.c ****  						change_flag = true;		//å€¤ãŒæ›´æ–°ã•ã‚ŒãŸã“ã¨ã‚’ç¤ºã™
 249:C:/Users/leopi/Documents/vs/S-Reo/MazeLibrary\MazeLib.c ****  					}
 250:C:/Users/leopi/Documents/vs/S-Reo/MazeLibrary\MazeLib.c ****  				}
 251:C:/Users/leopi/Documents/vs/S-Reo/MazeLibrary\MazeLib.c ****                  //æ±å´ã«æ–œã‚ãŒ2æ–¹å‘
 252:C:/Users/leopi/Documents/vs/S-Reo/MazeLibrary\MazeLib.c ****  				if(i < NUMBER_OF_SQUARES_X-1)					//ç¯„å›²ãƒã‚§ãƒƒã‚¯
 253:C:/Users/leopi/Documents/vs/S-Reo/MazeLibrary\MazeLib.c ****  				{
 254:C:/Users/leopi/Documents/vs/S-Reo/MazeLibrary\MazeLib.c ****                      //yæ–¹å‘ã®åˆ¶é™ã¯ï¼Ÿ
 255:C:/Users/leopi/Documents/vs/S-Reo/MazeLibrary\MazeLib.c ****                      //åŒ—æ±
 256:C:/Users/leopi/Documents/vs/S-Reo/MazeLibrary\MazeLib.c ****  					if( j < NUMBER_OF_SQUARES_Y )
 257:C:/Users/leopi/Documents/vs/S-Reo/MazeLibrary\MazeLib.c ****  					{
 258:C:/Users/leopi/Documents/vs/S-Reo/MazeLibrary\MazeLib.c ****  						if( ((maze->ColumnNode[i+1][j].existence & mask) == NOWALL) && (maze->ColumnNode[i+1][j].wei
ARM GAS  C:\Users\leopi\AppData\Local\Temp\ccilUBL0.s 			page 6


 259:C:/Users/leopi/Documents/vs/S-Reo/MazeLibrary\MazeLib.c ****  						{
 260:C:/Users/leopi/Documents/vs/S-Reo/MazeLibrary\MazeLib.c ****  							maze->ColumnNode[i+1][j].weight = maze->RawNode[i][j].weight + WEIGHT_NANAME;	//å€¤ã‚’ä»£å…
 261:C:/Users/leopi/Documents/vs/S-Reo/MazeLibrary\MazeLib.c ****  							change_flag = true;		//å€¤ãŒæ›´æ–°ã•ã‚ŒãŸã“ã¨ã‚’ç¤ºã™
 262:C:/Users/leopi/Documents/vs/S-Reo/MazeLibrary\MazeLib.c ****  						}
 263:C:/Users/leopi/Documents/vs/S-Reo/MazeLibrary\MazeLib.c ****  					}
 264:C:/Users/leopi/Documents/vs/S-Reo/MazeLibrary\MazeLib.c ****  					if( 0 < j )
 265:C:/Users/leopi/Documents/vs/S-Reo/MazeLibrary\MazeLib.c ****  					{
 266:C:/Users/leopi/Documents/vs/S-Reo/MazeLibrary\MazeLib.c ****  						//å—æ±
 267:C:/Users/leopi/Documents/vs/S-Reo/MazeLibrary\MazeLib.c ****  						if( ((maze->ColumnNode[i+1][j-1].existence & mask) == NOWALL) && (maze->ColumnNode[i+1][j-1]
 268:C:/Users/leopi/Documents/vs/S-Reo/MazeLibrary\MazeLib.c ****  						{
 269:C:/Users/leopi/Documents/vs/S-Reo/MazeLibrary\MazeLib.c ****  							maze->ColumnNode[i+1][j-1].weight = maze->RawNode[i][j].weight + WEIGHT_NANAME;	//å€¤ã‚’ä»£
 270:C:/Users/leopi/Documents/vs/S-Reo/MazeLibrary\MazeLib.c ****  							change_flag = true;		//å€¤ãŒæ›´æ–°ã•ã‚ŒãŸã“ã¨ã‚’ç¤ºã™
 271:C:/Users/leopi/Documents/vs/S-Reo/MazeLibrary\MazeLib.c ****  						}
 272:C:/Users/leopi/Documents/vs/S-Reo/MazeLibrary\MazeLib.c ****  					}
 273:C:/Users/leopi/Documents/vs/S-Reo/MazeLibrary\MazeLib.c ****  				}
 274:C:/Users/leopi/Documents/vs/S-Reo/MazeLibrary\MazeLib.c **** 
 275:C:/Users/leopi/Documents/vs/S-Reo/MazeLibrary\MazeLib.c ****                  //è¥¿å´ã«æ–œã‚ãŒ2æ–¹å‘
 276:C:/Users/leopi/Documents/vs/S-Reo/MazeLibrary\MazeLib.c ****  				if(i > 0)						//ç¯„å›²ãƒã‚§ãƒƒã‚¯
 277:C:/Users/leopi/Documents/vs/S-Reo/MazeLibrary\MazeLib.c ****  				{
 278:C:/Users/leopi/Documents/vs/S-Reo/MazeLibrary\MazeLib.c ****                      //åŒ—è¥¿
 279:C:/Users/leopi/Documents/vs/S-Reo/MazeLibrary\MazeLib.c ****  					if( j < NUMBER_OF_SQUARES_Y )
 280:C:/Users/leopi/Documents/vs/S-Reo/MazeLibrary\MazeLib.c ****  					{
 281:C:/Users/leopi/Documents/vs/S-Reo/MazeLibrary\MazeLib.c ****  						if( ((maze->ColumnNode[i][j].existence & mask) == NOWALL)  && (maze->ColumnNode[i][j].weight
 282:C:/Users/leopi/Documents/vs/S-Reo/MazeLibrary\MazeLib.c ****  						{
 283:C:/Users/leopi/Documents/vs/S-Reo/MazeLibrary\MazeLib.c ****  								maze->ColumnNode[i][j].weight = maze->RawNode[i][j].weight + WEIGHT_NANAME;	//å€¤ã‚’ä»£å…¥
 284:C:/Users/leopi/Documents/vs/S-Reo/MazeLibrary\MazeLib.c ****  								change_flag = true;		//å€¤ãŒæ›´æ–°ã•ã‚ŒãŸã“ã¨ã‚’ç¤ºã™
 285:C:/Users/leopi/Documents/vs/S-Reo/MazeLibrary\MazeLib.c **** 
 286:C:/Users/leopi/Documents/vs/S-Reo/MazeLibrary\MazeLib.c ****  						}
 287:C:/Users/leopi/Documents/vs/S-Reo/MazeLibrary\MazeLib.c ****  					}
 288:C:/Users/leopi/Documents/vs/S-Reo/MazeLibrary\MazeLib.c ****  					if( 0 < j )
 289:C:/Users/leopi/Documents/vs/S-Reo/MazeLibrary\MazeLib.c ****  					{
 290:C:/Users/leopi/Documents/vs/S-Reo/MazeLibrary\MazeLib.c ****  						//å—è¥¿
 291:C:/Users/leopi/Documents/vs/S-Reo/MazeLibrary\MazeLib.c ****  						if( ((maze->ColumnNode[i][j-1].existence & mask) == NOWALL) && (maze->ColumnNode[i][j-1].wei
 292:C:/Users/leopi/Documents/vs/S-Reo/MazeLibrary\MazeLib.c ****  						{
 293:C:/Users/leopi/Documents/vs/S-Reo/MazeLibrary\MazeLib.c ****  							maze->ColumnNode[i][j-1].weight = maze->RawNode[i][j].weight + WEIGHT_NANAME;	//å€¤ã‚’ä»£å…
 294:C:/Users/leopi/Documents/vs/S-Reo/MazeLibrary\MazeLib.c ****  							change_flag = true;		//å€¤ãŒæ›´æ–°ã•ã‚ŒãŸã“ã¨ã‚’ç¤ºã™
 295:C:/Users/leopi/Documents/vs/S-Reo/MazeLibrary\MazeLib.c ****  						}
 296:C:/Users/leopi/Documents/vs/S-Reo/MazeLibrary\MazeLib.c ****  					}
 297:C:/Users/leopi/Documents/vs/S-Reo/MazeLibrary\MazeLib.c **** 
 298:C:/Users/leopi/Documents/vs/S-Reo/MazeLibrary\MazeLib.c ****  				}
 299:C:/Users/leopi/Documents/vs/S-Reo/MazeLibrary\MazeLib.c ****  			}
 300:C:/Users/leopi/Documents/vs/S-Reo/MazeLibrary\MazeLib.c ****  		}
 301:C:/Users/leopi/Documents/vs/S-Reo/MazeLibrary\MazeLib.c ****         //printf("é‡ã¿ã®æ›´æ–°\r\n");//ä¸€å›ã—ã‹å‘¼ã°ã‚Œã¦ã„ãªã„
 302:C:/Users/leopi/Documents/vs/S-Reo/MazeLibrary\MazeLib.c ****         //cnt++;
 303:C:/Users/leopi/Documents/vs/S-Reo/MazeLibrary\MazeLib.c **** 	}while(change_flag == true);	//å…¨ä½“ã‚’ä½œã‚Šçµ‚ã‚ã‚‹ã¾ã§å¾…ã¤
 304:C:/Users/leopi/Documents/vs/S-Reo/MazeLibrary\MazeLib.c **** //    t = 0;
 305:C:/Users/leopi/Documents/vs/S-Reo/MazeLibrary\MazeLib.c **** //	HAL_TIM_Base_Stop_IT(&htim8);
 306:C:/Users/leopi/Documents/vs/S-Reo/MazeLibrary\MazeLib.c **** //	printf("%d/20ms, %d, %d\r\n\r\n",timer8, skip_raw, skip_column);
 307:C:/Users/leopi/Documents/vs/S-Reo/MazeLibrary\MazeLib.c **** }
 308:C:/Users/leopi/Documents/vs/S-Reo/MazeLibrary\MazeLib.c **** 
 309:C:/Users/leopi/Documents/vs/S-Reo/MazeLibrary\MazeLib.c **** 
 310:C:/Users/leopi/Documents/vs/S-Reo/MazeLibrary\MazeLib.c **** /* ãƒãƒ¼ãƒ‰ã®ä¸­èº«ç¢ºèª */
 311:C:/Users/leopi/Documents/vs/S-Reo/MazeLibrary\MazeLib.c **** static _Bool judgeRawNodeGoal(maze_node *maze, uint8_t x, uint8_t y)
 312:C:/Users/leopi/Documents/vs/S-Reo/MazeLibrary\MazeLib.c **** {
  29              		.loc 1 312 1 view -0
  30              		.cfi_startproc
  31              		@ args = 0, pretend = 0, frame = 0
ARM GAS  C:\Users\leopi\AppData\Local\Temp\ccilUBL0.s 			page 7


  32              		@ frame_needed = 0, uses_anonymous_args = 0
  33              		@ link register save eliminated.
 313:C:/Users/leopi/Documents/vs/S-Reo/MazeLibrary\MazeLib.c ****     //é‡ã¿ãŒ0ã‹ã©ã†ã‹
 314:C:/Users/leopi/Documents/vs/S-Reo/MazeLibrary\MazeLib.c ****     if(maze->RawNode[x][y].weight == 0)
  34              		.loc 1 314 5 view .LVU1
  35              		.loc 1 314 27 is_stmt 0 view .LVU2
  36 0000 01EB4113 		add	r3, r1, r1, lsl #5
  37 0004 1344     		add	r3, r3, r2
  38 0006 00EBC300 		add	r0, r0, r3, lsl #3
  39              	.LVL1:
  40              		.loc 1 314 27 view .LVU3
  41 000a 4388     		ldrh	r3, [r0, #2]
  42              		.loc 1 314 7 view .LVU4
  43 000c 4BB9     		cbnz	r3, .L3
 315:C:/Users/leopi/Documents/vs/S-Reo/MazeLibrary\MazeLib.c ****     {
 316:C:/Users/leopi/Documents/vs/S-Reo/MazeLibrary\MazeLib.c ****         //ã‚´ãƒ¼ãƒ«ãƒãƒ¼ãƒ‰ã§ã‚ã‚‹ã‹ã©ã†ã‹:ãƒã‚¯ãƒ­ä½œã£ãŸ
 317:C:/Users/leopi/Documents/vs/S-Reo/MazeLibrary\MazeLib.c **** 
 318:C:/Users/leopi/Documents/vs/S-Reo/MazeLibrary\MazeLib.c ****         if ( __JUDGE_GOAL__ (x,y) || __JUDGE_GOAL__(x,y-1) )
  44              		.loc 1 318 9 is_stmt 1 view .LVU5
  45              		.loc 1 318 14 is_stmt 0 view .LVU6
  46 000e 0239     		subs	r1, r1, #2
  47              	.LVL2:
  48              		.loc 1 318 14 view .LVU7
  49 0010 C9B2     		uxtb	r1, r1
  50              		.loc 1 318 12 view .LVU8
  51 0012 0129     		cmp	r1, #1
  52 0014 07D8     		bhi	.L4
  53              		.loc 1 318 35 discriminator 1 view .LVU9
  54 0016 023A     		subs	r2, r2, #2
  55              	.LVL3:
  56              		.loc 1 318 35 discriminator 1 view .LVU10
  57 0018 D2B2     		uxtb	r2, r2
  58 001a 022A     		cmp	r2, #2
  59 001c 05D9     		bls	.L5
 319:C:/Users/leopi/Documents/vs/S-Reo/MazeLibrary\MazeLib.c ****             return true;
 320:C:/Users/leopi/Documents/vs/S-Reo/MazeLibrary\MazeLib.c **** 
 321:C:/Users/leopi/Documents/vs/S-Reo/MazeLibrary\MazeLib.c ****         return false;
  60              		.loc 1 321 16 view .LVU11
  61 001e 0020     		movs	r0, #0
  62 0020 7047     		bx	lr
  63              	.LVL4:
  64              	.L3:
 322:C:/Users/leopi/Documents/vs/S-Reo/MazeLibrary\MazeLib.c ****     }
 323:C:/Users/leopi/Documents/vs/S-Reo/MazeLibrary\MazeLib.c ****     else
 324:C:/Users/leopi/Documents/vs/S-Reo/MazeLibrary\MazeLib.c ****     {
 325:C:/Users/leopi/Documents/vs/S-Reo/MazeLibrary\MazeLib.c ****         return false;
  65              		.loc 1 325 16 view .LVU12
  66 0022 0020     		movs	r0, #0
  67 0024 7047     		bx	lr
  68              	.LVL5:
  69              	.L4:
 321:C:/Users/leopi/Documents/vs/S-Reo/MazeLibrary\MazeLib.c ****     }
  70              		.loc 1 321 16 view .LVU13
  71 0026 0020     		movs	r0, #0
  72 0028 7047     		bx	lr
  73              	.LVL6:
  74              	.L5:
ARM GAS  C:\Users\leopi\AppData\Local\Temp\ccilUBL0.s 			page 8


 319:C:/Users/leopi/Documents/vs/S-Reo/MazeLibrary\MazeLib.c ****             return true;
  75              		.loc 1 319 20 view .LVU14
  76 002a 0120     		movs	r0, #1
 326:C:/Users/leopi/Documents/vs/S-Reo/MazeLibrary\MazeLib.c ****     }
 327:C:/Users/leopi/Documents/vs/S-Reo/MazeLibrary\MazeLib.c **** }
  77              		.loc 1 327 1 view .LVU15
  78 002c 7047     		bx	lr
  79              		.cfi_endproc
  80              	.LFE7:
  82              		.section	.text.judgeColumnNodeGoal,"ax",%progbits
  83              		.align	1
  84              		.syntax unified
  85              		.thumb
  86              		.thumb_func
  88              	judgeColumnNodeGoal:
  89              	.LVL7:
  90              	.LFB8:
 328:C:/Users/leopi/Documents/vs/S-Reo/MazeLibrary\MazeLib.c **** static _Bool judgeColumnNodeGoal(maze_node *maze, uint8_t x, uint8_t y)
 329:C:/Users/leopi/Documents/vs/S-Reo/MazeLibrary\MazeLib.c **** {
  91              		.loc 1 329 1 is_stmt 1 view -0
  92              		.cfi_startproc
  93              		@ args = 0, pretend = 0, frame = 0
  94              		@ frame_needed = 0, uses_anonymous_args = 0
  95              		@ link register save eliminated.
 330:C:/Users/leopi/Documents/vs/S-Reo/MazeLibrary\MazeLib.c ****     //é‡ã¿ãŒ0ã‹ã©ã†ã‹
 331:C:/Users/leopi/Documents/vs/S-Reo/MazeLibrary\MazeLib.c ****     if(maze->ColumnNode[x][y].weight == 0)
  96              		.loc 1 331 5 view .LVU17
  97              		.loc 1 331 30 is_stmt 0 view .LVU18
  98 0000 02EB4113 		add	r3, r2, r1, lsl #5
  99 0004 03F58463 		add	r3, r3, #1056
 100 0008 00EBC300 		add	r0, r0, r3, lsl #3
 101              	.LVL8:
 102              		.loc 1 331 30 view .LVU19
 103 000c 4388     		ldrh	r3, [r0, #2]
 104              		.loc 1 331 7 view .LVU20
 105 000e 4BB9     		cbnz	r3, .L8
 332:C:/Users/leopi/Documents/vs/S-Reo/MazeLibrary\MazeLib.c ****     {
 333:C:/Users/leopi/Documents/vs/S-Reo/MazeLibrary\MazeLib.c ****         //ã‚´ãƒ¼ãƒ«ãƒãƒ¼ãƒ‰ã§ã‚ã‚‹ã‹ã©ã†ã‹:ãƒã‚¯ãƒ­ä½œã£ãŸ
 334:C:/Users/leopi/Documents/vs/S-Reo/MazeLibrary\MazeLib.c **** 
 335:C:/Users/leopi/Documents/vs/S-Reo/MazeLibrary\MazeLib.c ****         if ( __JUDGE_GOAL__ (x,y) || __JUDGE_GOAL__(x-1,y) )
 106              		.loc 1 335 9 is_stmt 1 view .LVU21
 107              		.loc 1 335 35 is_stmt 0 view .LVU22
 108 0010 0239     		subs	r1, r1, #2
 109              	.LVL9:
 110              		.loc 1 335 35 view .LVU23
 111 0012 C9B2     		uxtb	r1, r1
 112              		.loc 1 335 12 view .LVU24
 113 0014 0229     		cmp	r1, #2
 114 0016 07D8     		bhi	.L9
 115              		.loc 1 335 14 discriminator 1 view .LVU25
 116 0018 023A     		subs	r2, r2, #2
 117              	.LVL10:
 118              		.loc 1 335 14 discriminator 1 view .LVU26
 119 001a D2B2     		uxtb	r2, r2
 120              		.loc 1 335 35 discriminator 1 view .LVU27
 121 001c 012A     		cmp	r2, #1
 122 001e 05D9     		bls	.L10
ARM GAS  C:\Users\leopi\AppData\Local\Temp\ccilUBL0.s 			page 9


 336:C:/Users/leopi/Documents/vs/S-Reo/MazeLibrary\MazeLib.c ****             return true;
 337:C:/Users/leopi/Documents/vs/S-Reo/MazeLibrary\MazeLib.c **** 
 338:C:/Users/leopi/Documents/vs/S-Reo/MazeLibrary\MazeLib.c ****         return false;
 123              		.loc 1 338 16 view .LVU28
 124 0020 0020     		movs	r0, #0
 125 0022 7047     		bx	lr
 126              	.LVL11:
 127              	.L8:
 339:C:/Users/leopi/Documents/vs/S-Reo/MazeLibrary\MazeLib.c ****     }
 340:C:/Users/leopi/Documents/vs/S-Reo/MazeLibrary\MazeLib.c ****     else
 341:C:/Users/leopi/Documents/vs/S-Reo/MazeLibrary\MazeLib.c ****     {
 342:C:/Users/leopi/Documents/vs/S-Reo/MazeLibrary\MazeLib.c ****         return false;
 128              		.loc 1 342 16 view .LVU29
 129 0024 0020     		movs	r0, #0
 130 0026 7047     		bx	lr
 131              	.LVL12:
 132              	.L9:
 338:C:/Users/leopi/Documents/vs/S-Reo/MazeLibrary\MazeLib.c ****     }
 133              		.loc 1 338 16 view .LVU30
 134 0028 0020     		movs	r0, #0
 135 002a 7047     		bx	lr
 136              	.LVL13:
 137              	.L10:
 336:C:/Users/leopi/Documents/vs/S-Reo/MazeLibrary\MazeLib.c ****             return true;
 138              		.loc 1 336 20 view .LVU31
 139 002c 0120     		movs	r0, #1
 343:C:/Users/leopi/Documents/vs/S-Reo/MazeLibrary\MazeLib.c ****     }
 344:C:/Users/leopi/Documents/vs/S-Reo/MazeLibrary\MazeLib.c **** }
 140              		.loc 1 344 1 view .LVU32
 141 002e 7047     		bx	lr
 142              		.cfi_endproc
 143              	.LFE8:
 145              		.section	.text.convertNodeTo16Value,"ax",%progbits
 146              		.align	1
 147              		.syntax unified
 148              		.thumb
 149              		.thumb_func
 151              	convertNodeTo16Value:
 152              	.LVL14:
 153              	.LFB14:
 345:C:/Users/leopi/Documents/vs/S-Reo/MazeLibrary\MazeLib.c **** 
 346:C:/Users/leopi/Documents/vs/S-Reo/MazeLibrary\MazeLib.c **** void printAllWeight(maze_node *maze, position *pos)
 347:C:/Users/leopi/Documents/vs/S-Reo/MazeLibrary\MazeLib.c **** {
 348:C:/Users/leopi/Documents/vs/S-Reo/MazeLibrary\MazeLib.c ****     //è¦‹ã‚„ã™ã„å½¢ã«æˆå‹ã—ã¦è¡¨ç¤ºã™ã‚‹
 349:C:/Users/leopi/Documents/vs/S-Reo/MazeLibrary\MazeLib.c ****     //å…¨å‡ºåŠ›ã‚’3æ¡ã«ãã‚ãˆã‚Œã°ã‚ˆã•ãã†
 350:C:/Users/leopi/Documents/vs/S-Reo/MazeLibrary\MazeLib.c ****     //é‡ã¿ãŒ0ã‹ã¤ã‚´ãƒ¼ãƒ«ã‚¨ãƒªã‚¢å†…ã®åº§æ¨™ãªã‚‰èµ¤è‰²ã§å‡ºåŠ› 31;1m
 351:C:/Users/leopi/Documents/vs/S-Reo/MazeLibrary\MazeLib.c ****     //è¡Œã‹ã‚‰è¡¨ç¤ºã—ã¦ã€
 352:C:/Users/leopi/Documents/vs/S-Reo/MazeLibrary\MazeLib.c ****     //åˆ—ã‚’è¡¨ç¤º
 353:C:/Users/leopi/Documents/vs/S-Reo/MazeLibrary\MazeLib.c ****     //äº¤äº’ã«
 354:C:/Users/leopi/Documents/vs/S-Reo/MazeLibrary\MazeLib.c ****     printf("å…¨ãƒãƒ¼ãƒ‰ã®é‡ã¿\r\n");
 355:C:/Users/leopi/Documents/vs/S-Reo/MazeLibrary\MazeLib.c **** 
 356:C:/Users/leopi/Documents/vs/S-Reo/MazeLibrary\MazeLib.c ****     for(int y=NUMBER_OF_SQUARES_Y; y > 0; y--)
 357:C:/Users/leopi/Documents/vs/S-Reo/MazeLibrary\MazeLib.c ****     {
 358:C:/Users/leopi/Documents/vs/S-Reo/MazeLibrary\MazeLib.c ****         //è¡Œ
 359:C:/Users/leopi/Documents/vs/S-Reo/MazeLibrary\MazeLib.c ****         printf("  +  ");
 360:C:/Users/leopi/Documents/vs/S-Reo/MazeLibrary\MazeLib.c ****         for(int x=0; x < NUMBER_OF_SQUARES_X; x++)
 361:C:/Users/leopi/Documents/vs/S-Reo/MazeLibrary\MazeLib.c ****         {
ARM GAS  C:\Users\leopi\AppData\Local\Temp\ccilUBL0.s 			page 10


 362:C:/Users/leopi/Documents/vs/S-Reo/MazeLibrary\MazeLib.c ****             if(judgeRawNodeGoal(maze, x,y) == true || ((pos->x == x) && (pos->y == y)))//è¾¿ã£ãŸç
 363:C:/Users/leopi/Documents/vs/S-Reo/MazeLibrary\MazeLib.c ****             {
 364:C:/Users/leopi/Documents/vs/S-Reo/MazeLibrary\MazeLib.c ****                 printf(" \x1B[31;1m%3x\x1B[37;m ",maze->RawNode[x][y].weight);
 365:C:/Users/leopi/Documents/vs/S-Reo/MazeLibrary\MazeLib.c ****             }
 366:C:/Users/leopi/Documents/vs/S-Reo/MazeLibrary\MazeLib.c ****             else
 367:C:/Users/leopi/Documents/vs/S-Reo/MazeLibrary\MazeLib.c ****             {
 368:C:/Users/leopi/Documents/vs/S-Reo/MazeLibrary\MazeLib.c ****                 printf(" %3x ",maze->RawNode[x][y].weight);
 369:C:/Users/leopi/Documents/vs/S-Reo/MazeLibrary\MazeLib.c ****             }
 370:C:/Users/leopi/Documents/vs/S-Reo/MazeLibrary\MazeLib.c ****             if(x < NUMBER_OF_SQUARES_X-1)
 371:C:/Users/leopi/Documents/vs/S-Reo/MazeLibrary\MazeLib.c ****                  printf("  +  ");
 372:C:/Users/leopi/Documents/vs/S-Reo/MazeLibrary\MazeLib.c ****         }
 373:C:/Users/leopi/Documents/vs/S-Reo/MazeLibrary\MazeLib.c ****         printf("\r\n");
 374:C:/Users/leopi/Documents/vs/S-Reo/MazeLibrary\MazeLib.c **** 
 375:C:/Users/leopi/Documents/vs/S-Reo/MazeLibrary\MazeLib.c ****         //åˆ—
 376:C:/Users/leopi/Documents/vs/S-Reo/MazeLibrary\MazeLib.c ****         for(int x=0; x < NUMBER_OF_SQUARES_X+1; x++)
 377:C:/Users/leopi/Documents/vs/S-Reo/MazeLibrary\MazeLib.c ****         {
 378:C:/Users/leopi/Documents/vs/S-Reo/MazeLibrary\MazeLib.c ****             if(judgeColumnNodeGoal(maze, x,y-1) == true || ((pos->x == x) && (pos->y == y)))
 379:C:/Users/leopi/Documents/vs/S-Reo/MazeLibrary\MazeLib.c ****             {
 380:C:/Users/leopi/Documents/vs/S-Reo/MazeLibrary\MazeLib.c ****                 printf(" \x1B[31;1m%3x\x1B[37;m ",maze->ColumnNode[x][y-1].weight);
 381:C:/Users/leopi/Documents/vs/S-Reo/MazeLibrary\MazeLib.c ****             }
 382:C:/Users/leopi/Documents/vs/S-Reo/MazeLibrary\MazeLib.c ****             else
 383:C:/Users/leopi/Documents/vs/S-Reo/MazeLibrary\MazeLib.c ****             {
 384:C:/Users/leopi/Documents/vs/S-Reo/MazeLibrary\MazeLib.c ****                 printf(" %3x ",maze->ColumnNode[x][y-1].weight);
 385:C:/Users/leopi/Documents/vs/S-Reo/MazeLibrary\MazeLib.c ****             }
 386:C:/Users/leopi/Documents/vs/S-Reo/MazeLibrary\MazeLib.c ****             if(x < NUMBER_OF_SQUARES_X)
 387:C:/Users/leopi/Documents/vs/S-Reo/MazeLibrary\MazeLib.c ****                 printf("     ");
 388:C:/Users/leopi/Documents/vs/S-Reo/MazeLibrary\MazeLib.c ****         }
 389:C:/Users/leopi/Documents/vs/S-Reo/MazeLibrary\MazeLib.c ****         printf("\r\n");
 390:C:/Users/leopi/Documents/vs/S-Reo/MazeLibrary\MazeLib.c ****     }
 391:C:/Users/leopi/Documents/vs/S-Reo/MazeLibrary\MazeLib.c ****     //y ãŒ0ã®ã¨ãã®è¡Œã ã‘è¡¨ç¤º
 392:C:/Users/leopi/Documents/vs/S-Reo/MazeLibrary\MazeLib.c ****     printf("  +  ");
 393:C:/Users/leopi/Documents/vs/S-Reo/MazeLibrary\MazeLib.c ****     for(int x=0; x < NUMBER_OF_SQUARES_X; x++)
 394:C:/Users/leopi/Documents/vs/S-Reo/MazeLibrary\MazeLib.c ****     {
 395:C:/Users/leopi/Documents/vs/S-Reo/MazeLibrary\MazeLib.c ****         printf(" %3x ",maze->RawNode[x][0].weight);
 396:C:/Users/leopi/Documents/vs/S-Reo/MazeLibrary\MazeLib.c ****         if(x < NUMBER_OF_SQUARES_X-1)
 397:C:/Users/leopi/Documents/vs/S-Reo/MazeLibrary\MazeLib.c ****                 printf("  +  ");
 398:C:/Users/leopi/Documents/vs/S-Reo/MazeLibrary\MazeLib.c ****     }
 399:C:/Users/leopi/Documents/vs/S-Reo/MazeLibrary\MazeLib.c ****     printf("\r\n");
 400:C:/Users/leopi/Documents/vs/S-Reo/MazeLibrary\MazeLib.c **** 
 401:C:/Users/leopi/Documents/vs/S-Reo/MazeLibrary\MazeLib.c **** 
 402:C:/Users/leopi/Documents/vs/S-Reo/MazeLibrary\MazeLib.c **** }
 403:C:/Users/leopi/Documents/vs/S-Reo/MazeLibrary\MazeLib.c **** void printSingleNode(maze_node *mn, uint8_t x, uint8_t y)
 404:C:/Users/leopi/Documents/vs/S-Reo/MazeLibrary\MazeLib.c **** {
 405:C:/Users/leopi/Documents/vs/S-Reo/MazeLibrary\MazeLib.c ****     printf("è¡Œãƒãƒ¼ãƒ‰ %d, %d : å£ %u, é‡ã¿ %u, draw %u\r\n", x,y, mn->RawNode[x][y].existence
 406:C:/Users/leopi/Documents/vs/S-Reo/MazeLibrary\MazeLib.c ****     printf("åˆ—ãƒãƒ¼ãƒ‰ %d, %d : å£ %u, é‡ã¿ %u, draw %u\r\n", x,y, mn->ColumnNode[x][y].existe
 407:C:/Users/leopi/Documents/vs/S-Reo/MazeLibrary\MazeLib.c **** }
 408:C:/Users/leopi/Documents/vs/S-Reo/MazeLibrary\MazeLib.c **** 
 409:C:/Users/leopi/Documents/vs/S-Reo/MazeLibrary\MazeLib.c **** void printAllNode(maze_node *mn)
 410:C:/Users/leopi/Documents/vs/S-Reo/MazeLibrary\MazeLib.c **** {
 411:C:/Users/leopi/Documents/vs/S-Reo/MazeLibrary\MazeLib.c ****     printf("å…¨ãƒãƒ¼ãƒ‰\r\n");
 412:C:/Users/leopi/Documents/vs/S-Reo/MazeLibrary\MazeLib.c ****     //é–“é•ã£ã¦ã‚‹ã‹ã‚‚
 413:C:/Users/leopi/Documents/vs/S-Reo/MazeLibrary\MazeLib.c ****     //MATLABã§ä¿å­˜ã™ã‚‹ã¨ãã¨åŒã˜ãƒ‘ã‚¿ãƒ¼ãƒ³ã§å‡ºåŠ›ã™ã‚‹
 414:C:/Users/leopi/Documents/vs/S-Reo/MazeLibrary\MazeLib.c ****     //Raw
 415:C:/Users/leopi/Documents/vs/S-Reo/MazeLibrary\MazeLib.c ****     //Column
 416:C:/Users/leopi/Documents/vs/S-Reo/MazeLibrary\MazeLib.c ****     //Rawã‚’1åˆ—å‡ºåŠ›ã—ã€æ”¹è¡Œã›ãšColumnã®1åˆ—å‡ºåŠ›ã€‚
 417:C:/Users/leopi/Documents/vs/S-Reo/MazeLibrary\MazeLib.c ****     //è¡Œã‚’å¢—ã‚„ã—ã¦åŒã˜å‡¦ç†
 418:C:/Users/leopi/Documents/vs/S-Reo/MazeLibrary\MazeLib.c ****     for(int i=0; i < NUMBER_OF_SQUARES_X; i++)
ARM GAS  C:\Users\leopi\AppData\Local\Temp\ccilUBL0.s 			page 11


 419:C:/Users/leopi/Documents/vs/S-Reo/MazeLibrary\MazeLib.c ****     {
 420:C:/Users/leopi/Documents/vs/S-Reo/MazeLibrary\MazeLib.c ****         for(int j=1; j < NUMBER_OF_SQUARES_Y+1; j++)
 421:C:/Users/leopi/Documents/vs/S-Reo/MazeLibrary\MazeLib.c ****         {
 422:C:/Users/leopi/Documents/vs/S-Reo/MazeLibrary\MazeLib.c ****             printf("%u,",mn->RawNode[i][j].draw);
 423:C:/Users/leopi/Documents/vs/S-Reo/MazeLibrary\MazeLib.c ****         }
 424:C:/Users/leopi/Documents/vs/S-Reo/MazeLibrary\MazeLib.c ****         for(int j=0; j < NUMBER_OF_SQUARES_Y; j++)
 425:C:/Users/leopi/Documents/vs/S-Reo/MazeLibrary\MazeLib.c ****         {
 426:C:/Users/leopi/Documents/vs/S-Reo/MazeLibrary\MazeLib.c ****             printf("%u",mn->ColumnNode[i+1][j].draw);
 427:C:/Users/leopi/Documents/vs/S-Reo/MazeLibrary\MazeLib.c ****             if(j < NUMBER_OF_SQUARES_Y-1)
 428:C:/Users/leopi/Documents/vs/S-Reo/MazeLibrary\MazeLib.c ****                 printf(",");
 429:C:/Users/leopi/Documents/vs/S-Reo/MazeLibrary\MazeLib.c ****         }
 430:C:/Users/leopi/Documents/vs/S-Reo/MazeLibrary\MazeLib.c ****         printf("\r\n");
 431:C:/Users/leopi/Documents/vs/S-Reo/MazeLibrary\MazeLib.c ****     }
 432:C:/Users/leopi/Documents/vs/S-Reo/MazeLibrary\MazeLib.c ****     printf("\r\n");
 433:C:/Users/leopi/Documents/vs/S-Reo/MazeLibrary\MazeLib.c **** }
 434:C:/Users/leopi/Documents/vs/S-Reo/MazeLibrary\MazeLib.c **** void printAllNodeExistence(maze_node *mn)
 435:C:/Users/leopi/Documents/vs/S-Reo/MazeLibrary\MazeLib.c **** {
 436:C:/Users/leopi/Documents/vs/S-Reo/MazeLibrary\MazeLib.c ****     printf("å…¨ãƒãƒ¼ãƒ‰ã®å£ã®å­˜åœ¨\r\n");
 437:C:/Users/leopi/Documents/vs/S-Reo/MazeLibrary\MazeLib.c ****     //é–“é•ã£ã¦ã‚‹ã‹ã‚‚
 438:C:/Users/leopi/Documents/vs/S-Reo/MazeLibrary\MazeLib.c ****     //MATLABã§ä¿å­˜ã™ã‚‹ã¨ãã¨åŒã˜ãƒ‘ã‚¿ãƒ¼ãƒ³ã§å‡ºåŠ›ã™ã‚‹
 439:C:/Users/leopi/Documents/vs/S-Reo/MazeLibrary\MazeLib.c ****     //Raw
 440:C:/Users/leopi/Documents/vs/S-Reo/MazeLibrary\MazeLib.c ****     //Column
 441:C:/Users/leopi/Documents/vs/S-Reo/MazeLibrary\MazeLib.c ****     //Rawã‚’1åˆ—å‡ºåŠ›ã—ã€æ”¹è¡Œã›ãšColumnã®1åˆ—å‡ºåŠ›ã€‚
 442:C:/Users/leopi/Documents/vs/S-Reo/MazeLibrary\MazeLib.c ****     //è¡Œã‚’å¢—ã‚„ã—ã¦åŒã˜å‡¦ç†
 443:C:/Users/leopi/Documents/vs/S-Reo/MazeLibrary\MazeLib.c ****     for(int i=0; i < NUMBER_OF_SQUARES_X; i++)
 444:C:/Users/leopi/Documents/vs/S-Reo/MazeLibrary\MazeLib.c ****     {
 445:C:/Users/leopi/Documents/vs/S-Reo/MazeLibrary\MazeLib.c ****         for(int j=1; j < NUMBER_OF_SQUARES_Y+1; j++)
 446:C:/Users/leopi/Documents/vs/S-Reo/MazeLibrary\MazeLib.c ****         {
 447:C:/Users/leopi/Documents/vs/S-Reo/MazeLibrary\MazeLib.c ****             printf("%u,",mn->RawNode[i][j].existence);
 448:C:/Users/leopi/Documents/vs/S-Reo/MazeLibrary\MazeLib.c ****         }
 449:C:/Users/leopi/Documents/vs/S-Reo/MazeLibrary\MazeLib.c ****         for(int j=0; j < NUMBER_OF_SQUARES_Y; j++)
 450:C:/Users/leopi/Documents/vs/S-Reo/MazeLibrary\MazeLib.c ****         {
 451:C:/Users/leopi/Documents/vs/S-Reo/MazeLibrary\MazeLib.c ****             printf("%u",mn->ColumnNode[i+1][j].existence);
 452:C:/Users/leopi/Documents/vs/S-Reo/MazeLibrary\MazeLib.c ****             if(j < NUMBER_OF_SQUARES_Y-1)
 453:C:/Users/leopi/Documents/vs/S-Reo/MazeLibrary\MazeLib.c ****                 printf(",");
 454:C:/Users/leopi/Documents/vs/S-Reo/MazeLibrary\MazeLib.c ****         }
 455:C:/Users/leopi/Documents/vs/S-Reo/MazeLibrary\MazeLib.c ****         printf("\r\n");
 456:C:/Users/leopi/Documents/vs/S-Reo/MazeLibrary\MazeLib.c ****     }
 457:C:/Users/leopi/Documents/vs/S-Reo/MazeLibrary\MazeLib.c ****     printf("\r\n");
 458:C:/Users/leopi/Documents/vs/S-Reo/MazeLibrary\MazeLib.c **** }
 459:C:/Users/leopi/Documents/vs/S-Reo/MazeLibrary\MazeLib.c **** 
 460:C:/Users/leopi/Documents/vs/S-Reo/MazeLibrary\MazeLib.c **** _Bool outputDataToFile(maze_node *maze, char *name)
 461:C:/Users/leopi/Documents/vs/S-Reo/MazeLibrary\MazeLib.c **** {
 462:C:/Users/leopi/Documents/vs/S-Reo/MazeLibrary\MazeLib.c ****     char weight_file[20]={0};
 463:C:/Users/leopi/Documents/vs/S-Reo/MazeLibrary\MazeLib.c ****     strcpy_s(&weight_file[0], 20,name);
 464:C:/Users/leopi/Documents/vs/S-Reo/MazeLibrary\MazeLib.c ****     FILE*fp;
 465:C:/Users/leopi/Documents/vs/S-Reo/MazeLibrary\MazeLib.c ****     fp = fopen(weight_file,"w");
 466:C:/Users/leopi/Documents/vs/S-Reo/MazeLibrary\MazeLib.c ****     if(fp == NULL) {
 467:C:/Users/leopi/Documents/vs/S-Reo/MazeLibrary\MazeLib.c **** 		printf("%s file not open!\n", weight_file);
 468:C:/Users/leopi/Documents/vs/S-Reo/MazeLibrary\MazeLib.c **** 		return false;
 469:C:/Users/leopi/Documents/vs/S-Reo/MazeLibrary\MazeLib.c **** 	} else {
 470:C:/Users/leopi/Documents/vs/S-Reo/MazeLibrary\MazeLib.c **** 		printf("%s file opened!\n", weight_file);
 471:C:/Users/leopi/Documents/vs/S-Reo/MazeLibrary\MazeLib.c **** 	}
 472:C:/Users/leopi/Documents/vs/S-Reo/MazeLibrary\MazeLib.c ****     
 473:C:/Users/leopi/Documents/vs/S-Reo/MazeLibrary\MazeLib.c ****     for(int y=NUMBER_OF_SQUARES_Y; y > 0; y--)
 474:C:/Users/leopi/Documents/vs/S-Reo/MazeLibrary\MazeLib.c ****     {
 475:C:/Users/leopi/Documents/vs/S-Reo/MazeLibrary\MazeLib.c ****         //è¡Œ
ARM GAS  C:\Users\leopi\AppData\Local\Temp\ccilUBL0.s 			page 12


 476:C:/Users/leopi/Documents/vs/S-Reo/MazeLibrary\MazeLib.c ****         fprintf(fp,"     ");
 477:C:/Users/leopi/Documents/vs/S-Reo/MazeLibrary\MazeLib.c ****         for(int x=0; x < NUMBER_OF_SQUARES_X; x++)
 478:C:/Users/leopi/Documents/vs/S-Reo/MazeLibrary\MazeLib.c ****         {
 479:C:/Users/leopi/Documents/vs/S-Reo/MazeLibrary\MazeLib.c ****             if(judgeRawNodeGoal(maze, x,y) == true)
 480:C:/Users/leopi/Documents/vs/S-Reo/MazeLibrary\MazeLib.c ****             {
 481:C:/Users/leopi/Documents/vs/S-Reo/MazeLibrary\MazeLib.c ****                 fprintf(fp," GGG ");
 482:C:/Users/leopi/Documents/vs/S-Reo/MazeLibrary\MazeLib.c ****             }
 483:C:/Users/leopi/Documents/vs/S-Reo/MazeLibrary\MazeLib.c ****             else
 484:C:/Users/leopi/Documents/vs/S-Reo/MazeLibrary\MazeLib.c ****             {
 485:C:/Users/leopi/Documents/vs/S-Reo/MazeLibrary\MazeLib.c ****                 fprintf(fp," %3x ",maze->RawNode[x][y].weight);
 486:C:/Users/leopi/Documents/vs/S-Reo/MazeLibrary\MazeLib.c ****             }
 487:C:/Users/leopi/Documents/vs/S-Reo/MazeLibrary\MazeLib.c ****             if(x < NUMBER_OF_SQUARES_X-1)
 488:C:/Users/leopi/Documents/vs/S-Reo/MazeLibrary\MazeLib.c ****                 fprintf(fp,"     ");
 489:C:/Users/leopi/Documents/vs/S-Reo/MazeLibrary\MazeLib.c ****         }
 490:C:/Users/leopi/Documents/vs/S-Reo/MazeLibrary\MazeLib.c ****         fprintf(fp,"\r\n");
 491:C:/Users/leopi/Documents/vs/S-Reo/MazeLibrary\MazeLib.c ****                 
 492:C:/Users/leopi/Documents/vs/S-Reo/MazeLibrary\MazeLib.c ****         //åˆ—
 493:C:/Users/leopi/Documents/vs/S-Reo/MazeLibrary\MazeLib.c ****         for(int x=0; x < NUMBER_OF_SQUARES_X+1; x++)
 494:C:/Users/leopi/Documents/vs/S-Reo/MazeLibrary\MazeLib.c ****         {
 495:C:/Users/leopi/Documents/vs/S-Reo/MazeLibrary\MazeLib.c ****             if(judgeColumnNodeGoal(maze, x,y-1) == true)
 496:C:/Users/leopi/Documents/vs/S-Reo/MazeLibrary\MazeLib.c ****             {
 497:C:/Users/leopi/Documents/vs/S-Reo/MazeLibrary\MazeLib.c ****                 fprintf(fp," GGG ");
 498:C:/Users/leopi/Documents/vs/S-Reo/MazeLibrary\MazeLib.c ****             }
 499:C:/Users/leopi/Documents/vs/S-Reo/MazeLibrary\MazeLib.c ****             else
 500:C:/Users/leopi/Documents/vs/S-Reo/MazeLibrary\MazeLib.c ****             {
 501:C:/Users/leopi/Documents/vs/S-Reo/MazeLibrary\MazeLib.c ****                 fprintf(fp," %3x ",maze->ColumnNode[x][y-1].weight);
 502:C:/Users/leopi/Documents/vs/S-Reo/MazeLibrary\MazeLib.c ****             }
 503:C:/Users/leopi/Documents/vs/S-Reo/MazeLibrary\MazeLib.c ****             if(x < NUMBER_OF_SQUARES_X)
 504:C:/Users/leopi/Documents/vs/S-Reo/MazeLibrary\MazeLib.c ****                 fprintf(fp,"     ");
 505:C:/Users/leopi/Documents/vs/S-Reo/MazeLibrary\MazeLib.c ****         }
 506:C:/Users/leopi/Documents/vs/S-Reo/MazeLibrary\MazeLib.c ****         fprintf(fp,"\r\n");
 507:C:/Users/leopi/Documents/vs/S-Reo/MazeLibrary\MazeLib.c ****     }
 508:C:/Users/leopi/Documents/vs/S-Reo/MazeLibrary\MazeLib.c ****     //y ãŒ0ã®ã¨ãã®è¡Œã ã‘è¡¨ç¤º
 509:C:/Users/leopi/Documents/vs/S-Reo/MazeLibrary\MazeLib.c ****     fprintf(fp,"     ");
 510:C:/Users/leopi/Documents/vs/S-Reo/MazeLibrary\MazeLib.c ****     for(int x=0; x < NUMBER_OF_SQUARES_X; x++)
 511:C:/Users/leopi/Documents/vs/S-Reo/MazeLibrary\MazeLib.c ****     {
 512:C:/Users/leopi/Documents/vs/S-Reo/MazeLibrary\MazeLib.c ****         fprintf(fp," %3x ",maze->RawNode[x][0].weight);
 513:C:/Users/leopi/Documents/vs/S-Reo/MazeLibrary\MazeLib.c ****         if(x < NUMBER_OF_SQUARES_X-1)
 514:C:/Users/leopi/Documents/vs/S-Reo/MazeLibrary\MazeLib.c ****                 fprintf(fp,"     ");
 515:C:/Users/leopi/Documents/vs/S-Reo/MazeLibrary\MazeLib.c ****     }
 516:C:/Users/leopi/Documents/vs/S-Reo/MazeLibrary\MazeLib.c ****     fprintf(fp,"\r\n");
 517:C:/Users/leopi/Documents/vs/S-Reo/MazeLibrary\MazeLib.c ****     fclose(fp);
 518:C:/Users/leopi/Documents/vs/S-Reo/MazeLibrary\MazeLib.c ****     return true;
 519:C:/Users/leopi/Documents/vs/S-Reo/MazeLibrary\MazeLib.c **** 
 520:C:/Users/leopi/Documents/vs/S-Reo/MazeLibrary\MazeLib.c **** }
 521:C:/Users/leopi/Documents/vs/S-Reo/MazeLibrary\MazeLib.c **** static uint8_t convertNodeTo16Value(maze_node *maze, int x, int y)
 522:C:/Users/leopi/Documents/vs/S-Reo/MazeLibrary\MazeLib.c **** {
 154              		.loc 1 522 1 is_stmt 1 view -0
 155              		.cfi_startproc
 156              		@ args = 0, pretend = 0, frame = 0
 157              		@ frame_needed = 0, uses_anonymous_args = 0
 158              		.loc 1 522 1 is_stmt 0 view .LVU34
 159 0000 00B5     		push	{lr}
 160              	.LCFI0:
 161              		.cfi_def_cfa_offset 4
 162              		.cfi_offset 14, -4
 523:C:/Users/leopi/Documents/vs/S-Reo/MazeLibrary\MazeLib.c ****     //xyåº§æ¨™ã‚’å…¥åŠ›
ARM GAS  C:\Users\leopi\AppData\Local\Temp\ccilUBL0.s 			page 13


 524:C:/Users/leopi/Documents/vs/S-Reo/MazeLibrary\MazeLib.c ****     //å„ãƒã‚¹ã®16é€²æ•°ã‚’å‡ºåŠ›ã€‚
 525:C:/Users/leopi/Documents/vs/S-Reo/MazeLibrary\MazeLib.c ****     uint8_t val=0;
 163              		.loc 1 525 5 is_stmt 1 view .LVU35
 164              	.LVL15:
 526:C:/Users/leopi/Documents/vs/S-Reo/MazeLibrary\MazeLib.c ****     val += 1 * maze->RawNode[x][y+1].draw;      //åŒ—
 165              		.loc 1 526 5 view .LVU36
 166              		.loc 1 526 34 is_stmt 0 view .LVU37
 167 0002 531C     		adds	r3, r2, #1
 168              		.loc 1 526 37 view .LVU38
 169 0004 01EB411E 		add	lr, r1, r1, lsl #5
 170 0008 7344     		add	r3, r3, lr
 171 000a 00EBC303 		add	r3, r0, r3, lsl #3
 172 000e 1B79     		ldrb	r3, [r3, #4]	@ zero_extendqisi2
 173              	.LVL16:
 527:C:/Users/leopi/Documents/vs/S-Reo/MazeLibrary\MazeLib.c ****     val += 2 * maze->ColumnNode[x+1][y].draw;   //æ±
 174              		.loc 1 527 5 is_stmt 1 view .LVU39
 175              		.loc 1 527 34 is_stmt 0 view .LVU40
 176 0010 01F1010C 		add	ip, r1, #1
 177              		.loc 1 527 40 view .LVU41
 178 0014 02EB4C1C 		add	ip, r2, ip, lsl #5
 179 0018 0CF5846C 		add	ip, ip, #1056
 180 001c 00EBCC0C 		add	ip, r0, ip, lsl #3
 181 0020 9CF804C0 		ldrb	ip, [ip, #4]	@ zero_extendqisi2
 182              		.loc 1 527 9 view .LVU42
 183 0024 03EB4C03 		add	r3, r3, ip, lsl #1
 184              	.LVL17:
 528:C:/Users/leopi/Documents/vs/S-Reo/MazeLibrary\MazeLib.c ****     val += 4 * maze->RawNode[x][y].draw;        //å—
 185              		.loc 1 528 5 is_stmt 1 view .LVU43
 186              		.loc 1 528 35 is_stmt 0 view .LVU44
 187 0028 9644     		add	lr, lr, r2
 188 002a 00EBCE0E 		add	lr, r0, lr, lsl #3
 189 002e 9EF804C0 		ldrb	ip, [lr, #4]	@ zero_extendqisi2
 190              		.loc 1 528 9 view .LVU45
 191 0032 4FEA8C0C 		lsl	ip, ip, #2
 192 0036 5CFA83F3 		uxtab	r3, ip, r3
 193              	.LVL18:
 529:C:/Users/leopi/Documents/vs/S-Reo/MazeLibrary\MazeLib.c ****     val += 8 * maze->ColumnNode[x][y].draw;     //è¥¿
 194              		.loc 1 529 5 is_stmt 1 view .LVU46
 195              		.loc 1 529 38 is_stmt 0 view .LVU47
 196 003a 02EB4112 		add	r2, r2, r1, lsl #5
 197              	.LVL19:
 198              		.loc 1 529 38 view .LVU48
 199 003e 02F58462 		add	r2, r2, #1056
 200 0042 00EBC202 		add	r2, r0, r2, lsl #3
 201 0046 1079     		ldrb	r0, [r2, #4]	@ zero_extendqisi2
 202              	.LVL20:
 203              		.loc 1 529 9 view .LVU49
 204 0048 C000     		lsls	r0, r0, #3
 205 004a 50FA83F0 		uxtab	r0, r0, r3
 206              	.LVL21:
 530:C:/Users/leopi/Documents/vs/S-Reo/MazeLibrary\MazeLib.c ****     return val;
 207              		.loc 1 530 5 is_stmt 1 view .LVU50
 531:C:/Users/leopi/Documents/vs/S-Reo/MazeLibrary\MazeLib.c **** }
 208              		.loc 1 531 1 is_stmt 0 view .LVU51
 209 004e C0B2     		uxtb	r0, r0
 210              		.loc 1 531 1 view .LVU52
 211 0050 5DF804FB 		ldr	pc, [sp], #4
ARM GAS  C:\Users\leopi\AppData\Local\Temp\ccilUBL0.s 			page 14


 212              		.cfi_endproc
 213              	.LFE14:
 215              		.section	.text.initWeight,"ax",%progbits
 216              		.align	1
 217              		.global	initWeight
 218              		.syntax unified
 219              		.thumb
 220              		.thumb_func
 222              	initWeight:
 223              	.LVL22:
 224              	.LFB3:
  14:C:/Users/leopi/Documents/vs/S-Reo/MazeLibrary\MazeLib.c ****     for(int i=0; i < NUMBER_OF_SQUARES_X; i++)
 225              		.loc 1 14 1 is_stmt 1 view -0
 226              		.cfi_startproc
 227              		@ args = 0, pretend = 0, frame = 0
 228              		@ frame_needed = 0, uses_anonymous_args = 0
 229              		@ link register save eliminated.
  15:C:/Users/leopi/Documents/vs/S-Reo/MazeLibrary\MazeLib.c ****     {
 230              		.loc 1 15 5 view .LVU54
 231              	.LBB2:
  15:C:/Users/leopi/Documents/vs/S-Reo/MazeLibrary\MazeLib.c ****     {
 232              		.loc 1 15 9 view .LVU55
  15:C:/Users/leopi/Documents/vs/S-Reo/MazeLibrary\MazeLib.c ****     {
 233              		.loc 1 15 13 is_stmt 0 view .LVU56
 234 0000 0021     		movs	r1, #0
  15:C:/Users/leopi/Documents/vs/S-Reo/MazeLibrary\MazeLib.c ****     {
 235              		.loc 1 15 5 view .LVU57
 236 0002 0CE0     		b	.L14
 237              	.LVL23:
 238              	.L15:
 239              	.LBB3:
  19:C:/Users/leopi/Documents/vs/S-Reo/MazeLibrary\MazeLib.c ****         }
 240              		.loc 1 19 13 is_stmt 1 discriminator 3 view .LVU58
  19:C:/Users/leopi/Documents/vs/S-Reo/MazeLibrary\MazeLib.c ****         }
 241              		.loc 1 19 40 is_stmt 0 discriminator 3 view .LVU59
 242 0004 01EB4113 		add	r3, r1, r1, lsl #5
 243 0008 1344     		add	r3, r3, r2
 244 000a 00EBC303 		add	r3, r0, r3, lsl #3
 245 000e 40F6FF7C 		movw	ip, #4095
 246 0012 A3F802C0 		strh	ip, [r3, #2]	@ movhi
  17:C:/Users/leopi/Documents/vs/S-Reo/MazeLibrary\MazeLib.c ****         {
 247              		.loc 1 17 49 is_stmt 1 discriminator 3 view .LVU60
  17:C:/Users/leopi/Documents/vs/S-Reo/MazeLibrary\MazeLib.c ****         {
 248              		.loc 1 17 50 is_stmt 0 discriminator 3 view .LVU61
 249 0016 0132     		adds	r2, r2, #1
 250              	.LVL24:
 251              	.L16:
  17:C:/Users/leopi/Documents/vs/S-Reo/MazeLibrary\MazeLib.c ****         {
 252              		.loc 1 17 22 is_stmt 1 discriminator 1 view .LVU62
  17:C:/Users/leopi/Documents/vs/S-Reo/MazeLibrary\MazeLib.c ****         {
 253              		.loc 1 17 9 is_stmt 0 discriminator 1 view .LVU63
 254 0018 202A     		cmp	r2, #32
 255 001a F3DD     		ble	.L15
 256              	.LBE3:
  15:C:/Users/leopi/Documents/vs/S-Reo/MazeLibrary\MazeLib.c ****     {
 257              		.loc 1 15 43 is_stmt 1 discriminator 2 view .LVU64
  15:C:/Users/leopi/Documents/vs/S-Reo/MazeLibrary\MazeLib.c ****     {
ARM GAS  C:\Users\leopi\AppData\Local\Temp\ccilUBL0.s 			page 15


 258              		.loc 1 15 44 is_stmt 0 discriminator 2 view .LVU65
 259 001c 0131     		adds	r1, r1, #1
 260              	.LVL25:
 261              	.L14:
  15:C:/Users/leopi/Documents/vs/S-Reo/MazeLibrary\MazeLib.c ****     {
 262              		.loc 1 15 18 is_stmt 1 discriminator 1 view .LVU66
  15:C:/Users/leopi/Documents/vs/S-Reo/MazeLibrary\MazeLib.c ****     {
 263              		.loc 1 15 5 is_stmt 0 discriminator 1 view .LVU67
 264 001e 1F29     		cmp	r1, #31
 265 0020 01DC     		bgt	.L22
 266              	.LBB4:
  17:C:/Users/leopi/Documents/vs/S-Reo/MazeLibrary\MazeLib.c ****         {
 267              		.loc 1 17 17 view .LVU68
 268 0022 0022     		movs	r2, #0
 269 0024 F8E7     		b	.L16
 270              	.L22:
 271              	.LBE4:
 272              	.LBE2:
 273              	.LBB5:
  22:C:/Users/leopi/Documents/vs/S-Reo/MazeLibrary\MazeLib.c ****     {
 274              		.loc 1 22 13 view .LVU69
 275 0026 4FF0000C 		mov	ip, #0
 276 002a 0DE0     		b	.L17
 277              	.LVL26:
 278              	.L18:
 279              	.LBB6:
  26:C:/Users/leopi/Documents/vs/S-Reo/MazeLibrary\MazeLib.c ****         }
 280              		.loc 1 26 13 is_stmt 1 discriminator 3 view .LVU70
  26:C:/Users/leopi/Documents/vs/S-Reo/MazeLibrary\MazeLib.c ****         }
 281              		.loc 1 26 43 is_stmt 0 discriminator 3 view .LVU71
 282 002c 02EB4C13 		add	r3, r2, ip, lsl #5
 283 0030 03F58463 		add	r3, r3, #1056
 284 0034 00EBC303 		add	r3, r0, r3, lsl #3
 285 0038 40F6FF71 		movw	r1, #4095
 286 003c 5980     		strh	r1, [r3, #2]	@ movhi
  24:C:/Users/leopi/Documents/vs/S-Reo/MazeLibrary\MazeLib.c ****         {
 287              		.loc 1 24 47 is_stmt 1 discriminator 3 view .LVU72
  24:C:/Users/leopi/Documents/vs/S-Reo/MazeLibrary\MazeLib.c ****         {
 288              		.loc 1 24 48 is_stmt 0 discriminator 3 view .LVU73
 289 003e 0132     		adds	r2, r2, #1
 290              	.LVL27:
 291              	.L19:
  24:C:/Users/leopi/Documents/vs/S-Reo/MazeLibrary\MazeLib.c ****         {
 292              		.loc 1 24 22 is_stmt 1 discriminator 1 view .LVU74
  24:C:/Users/leopi/Documents/vs/S-Reo/MazeLibrary\MazeLib.c ****         {
 293              		.loc 1 24 9 is_stmt 0 discriminator 1 view .LVU75
 294 0040 1F2A     		cmp	r2, #31
 295 0042 F3DD     		ble	.L18
 296              	.LBE6:
  22:C:/Users/leopi/Documents/vs/S-Reo/MazeLibrary\MazeLib.c ****     {
 297              		.loc 1 22 45 is_stmt 1 discriminator 2 view .LVU76
  22:C:/Users/leopi/Documents/vs/S-Reo/MazeLibrary\MazeLib.c ****     {
 298              		.loc 1 22 46 is_stmt 0 discriminator 2 view .LVU77
 299 0044 0CF1010C 		add	ip, ip, #1
 300              	.LVL28:
 301              	.L17:
  22:C:/Users/leopi/Documents/vs/S-Reo/MazeLibrary\MazeLib.c ****     {
ARM GAS  C:\Users\leopi\AppData\Local\Temp\ccilUBL0.s 			page 16


 302              		.loc 1 22 18 is_stmt 1 discriminator 1 view .LVU78
  22:C:/Users/leopi/Documents/vs/S-Reo/MazeLibrary\MazeLib.c ****     {
 303              		.loc 1 22 5 is_stmt 0 discriminator 1 view .LVU79
 304 0048 BCF1200F 		cmp	ip, #32
 305 004c 01DC     		bgt	.L23
 306              	.LBB7:
  24:C:/Users/leopi/Documents/vs/S-Reo/MazeLibrary\MazeLib.c ****         {
 307              		.loc 1 24 17 view .LVU80
 308 004e 0022     		movs	r2, #0
 309 0050 F6E7     		b	.L19
 310              	.L23:
 311              	.LBE7:
 312              	.LBE5:
  29:C:/Users/leopi/Documents/vs/S-Reo/MazeLibrary\MazeLib.c **** void initMaze(maze_node *maze) //é‡ã¿ã¯åˆ¥ã§åˆæœŸåŒ–
 313              		.loc 1 29 1 view .LVU81
 314 0052 7047     		bx	lr
 315              		.cfi_endproc
 316              	.LFE3:
 318              		.section	.text.initMaze,"ax",%progbits
 319              		.align	1
 320              		.global	initMaze
 321              		.syntax unified
 322              		.thumb
 323              		.thumb_func
 325              	initMaze:
 326              	.LVL29:
 327              	.LFB4:
  31:C:/Users/leopi/Documents/vs/S-Reo/MazeLibrary\MazeLib.c ****     //ã¾ãšæœªæ¢ç´¢çŠ¶æ…‹ã«ã™ã‚‹
 328              		.loc 1 31 1 is_stmt 1 view -0
 329              		.cfi_startproc
 330              		@ args = 0, pretend = 0, frame = 0
 331              		@ frame_needed = 0, uses_anonymous_args = 0
  31:C:/Users/leopi/Documents/vs/S-Reo/MazeLibrary\MazeLib.c ****     //ã¾ãšæœªæ¢ç´¢çŠ¶æ…‹ã«ã™ã‚‹
 332              		.loc 1 31 1 is_stmt 0 view .LVU83
 333 0000 00B5     		push	{lr}
 334              	.LCFI1:
 335              		.cfi_def_cfa_offset 4
 336              		.cfi_offset 14, -4
 337 0002 0146     		mov	r1, r0
  33:C:/Users/leopi/Documents/vs/S-Reo/MazeLibrary\MazeLib.c ****     {
 338              		.loc 1 33 5 is_stmt 1 view .LVU84
 339              	.LBB8:
  33:C:/Users/leopi/Documents/vs/S-Reo/MazeLibrary\MazeLib.c ****     {
 340              		.loc 1 33 9 view .LVU85
 341              	.LVL30:
  33:C:/Users/leopi/Documents/vs/S-Reo/MazeLibrary\MazeLib.c ****     {
 342              		.loc 1 33 13 is_stmt 0 view .LVU86
 343 0004 0020     		movs	r0, #0
 344              	.LVL31:
  33:C:/Users/leopi/Documents/vs/S-Reo/MazeLibrary\MazeLib.c ****     {
 345              		.loc 1 33 5 view .LVU87
 346 0006 14E0     		b	.L25
 347              	.LVL32:
 348              	.L26:
 349              	.LBB9:
  37:C:/Users/leopi/Documents/vs/S-Reo/MazeLibrary\MazeLib.c ****             maze->RawNode[i][j].draw = false;//æœªçŸ¥å£ã¯æç”»ã®ã¨ãã«ç„¡ã„ã‚‚ã®ã¨ã™ã‚‹
 350              		.loc 1 37 13 is_stmt 1 discriminator 3 view .LVU88
ARM GAS  C:\Users\leopi\AppData\Local\Temp\ccilUBL0.s 			page 17


  37:C:/Users/leopi/Documents/vs/S-Reo/MazeLibrary\MazeLib.c ****             maze->RawNode[i][j].draw = false;//æœªçŸ¥å£ã¯æç”»ã®ã¨ãã«ç„¡ã„ã‚‚ã®ã¨ã™ã‚‹
 351              		.loc 1 37 43 is_stmt 0 discriminator 3 view .LVU89
 352 0008 00EB4013 		add	r3, r0, r0, lsl #5
 353 000c 1344     		add	r3, r3, r2
 354 000e 4FF0020C 		mov	ip, #2
 355 0012 01F833C0 		strb	ip, [r1, r3, lsl #3]
  38:C:/Users/leopi/Documents/vs/S-Reo/MazeLibrary\MazeLib.c ****             maze->RawNode[i][j].rc = 0;
 356              		.loc 1 38 13 is_stmt 1 discriminator 3 view .LVU90
  38:C:/Users/leopi/Documents/vs/S-Reo/MazeLibrary\MazeLib.c ****             maze->RawNode[i][j].rc = 0;
 357              		.loc 1 38 38 is_stmt 0 discriminator 3 view .LVU91
 358 0016 01EBC303 		add	r3, r1, r3, lsl #3
 359 001a 4FF0000C 		mov	ip, #0
 360 001e 83F804C0 		strb	ip, [r3, #4]
  39:C:/Users/leopi/Documents/vs/S-Reo/MazeLibrary\MazeLib.c ****             maze->RawNode[i][j].pos.x = i;
 361              		.loc 1 39 13 is_stmt 1 discriminator 3 view .LVU92
  39:C:/Users/leopi/Documents/vs/S-Reo/MazeLibrary\MazeLib.c ****             maze->RawNode[i][j].pos.x = i;
 362              		.loc 1 39 36 is_stmt 0 discriminator 3 view .LVU93
 363 0022 83F805C0 		strb	ip, [r3, #5]
  40:C:/Users/leopi/Documents/vs/S-Reo/MazeLibrary\MazeLib.c ****             maze->RawNode[i][j].pos.y = j;
 364              		.loc 1 40 13 is_stmt 1 discriminator 3 view .LVU94
  40:C:/Users/leopi/Documents/vs/S-Reo/MazeLibrary\MazeLib.c ****             maze->RawNode[i][j].pos.y = j;
 365              		.loc 1 40 39 is_stmt 0 discriminator 3 view .LVU95
 366 0026 9871     		strb	r0, [r3, #6]
  41:C:/Users/leopi/Documents/vs/S-Reo/MazeLibrary\MazeLib.c **** //            maze->RawNode[i][j].visit = false;
 367              		.loc 1 41 13 is_stmt 1 discriminator 3 view .LVU96
  41:C:/Users/leopi/Documents/vs/S-Reo/MazeLibrary\MazeLib.c **** //            maze->RawNode[i][j].visit = false;
 368              		.loc 1 41 39 is_stmt 0 discriminator 3 view .LVU97
 369 0028 DA71     		strb	r2, [r3, #7]
  35:C:/Users/leopi/Documents/vs/S-Reo/MazeLibrary\MazeLib.c ****         {
 370              		.loc 1 35 47 is_stmt 1 discriminator 3 view .LVU98
  35:C:/Users/leopi/Documents/vs/S-Reo/MazeLibrary\MazeLib.c ****         {
 371              		.loc 1 35 48 is_stmt 0 discriminator 3 view .LVU99
 372 002a 0132     		adds	r2, r2, #1
 373              	.LVL33:
 374              	.L27:
  35:C:/Users/leopi/Documents/vs/S-Reo/MazeLibrary\MazeLib.c ****         {
 375              		.loc 1 35 22 is_stmt 1 discriminator 1 view .LVU100
  35:C:/Users/leopi/Documents/vs/S-Reo/MazeLibrary\MazeLib.c ****         {
 376              		.loc 1 35 9 is_stmt 0 discriminator 1 view .LVU101
 377 002c 1F2A     		cmp	r2, #31
 378 002e EBDD     		ble	.L26
 379              	.LBE9:
  33:C:/Users/leopi/Documents/vs/S-Reo/MazeLibrary\MazeLib.c ****     {
 380              		.loc 1 33 43 is_stmt 1 discriminator 2 view .LVU102
  33:C:/Users/leopi/Documents/vs/S-Reo/MazeLibrary\MazeLib.c ****     {
 381              		.loc 1 33 44 is_stmt 0 discriminator 2 view .LVU103
 382 0030 0130     		adds	r0, r0, #1
 383              	.LVL34:
 384              	.L25:
  33:C:/Users/leopi/Documents/vs/S-Reo/MazeLibrary\MazeLib.c ****     {
 385              		.loc 1 33 18 is_stmt 1 discriminator 1 view .LVU104
  33:C:/Users/leopi/Documents/vs/S-Reo/MazeLibrary\MazeLib.c ****     {
 386              		.loc 1 33 5 is_stmt 0 discriminator 1 view .LVU105
 387 0032 1F28     		cmp	r0, #31
 388 0034 01DC     		bgt	.L38
 389              	.LBB10:
  35:C:/Users/leopi/Documents/vs/S-Reo/MazeLibrary\MazeLib.c ****         {
ARM GAS  C:\Users\leopi\AppData\Local\Temp\ccilUBL0.s 			page 18


 390              		.loc 1 35 17 view .LVU106
 391 0036 0122     		movs	r2, #1
 392 0038 F8E7     		b	.L27
 393              	.L38:
 394              	.LBE10:
 395              	.LBE8:
 396              	.LBB11:
  45:C:/Users/leopi/Documents/vs/S-Reo/MazeLibrary\MazeLib.c ****     {
 397              		.loc 1 45 13 view .LVU107
 398 003a 0022     		movs	r2, #0
 399 003c 1DE0     		b	.L28
 400              	.LVL35:
 401              	.L29:
  47:C:/Users/leopi/Documents/vs/S-Reo/MazeLibrary\MazeLib.c ****             maze->RawNode[i][0].draw = true;//æœªçŸ¥å£ã¯æç”»ã®ã¨ãã«ç„¡ã„ã‚‚ã®ã¨ã™ã‚‹
 402              		.loc 1 47 13 is_stmt 1 discriminator 3 view .LVU108
  47:C:/Users/leopi/Documents/vs/S-Reo/MazeLibrary\MazeLib.c ****             maze->RawNode[i][0].draw = true;//æœªçŸ¥å£ã¯æç”»ã®ã¨ãã«ç„¡ã„ã‚‚ã®ã¨ã™ã‚‹
 403              		.loc 1 47 43 is_stmt 0 discriminator 3 view .LVU109
 404 003e 02EB421C 		add	ip, r2, r2, lsl #5
 405 0042 01EBCC03 		add	r3, r1, ip, lsl #3
 406 0046 0120     		movs	r0, #1
 407 0048 01F83C00 		strb	r0, [r1, ip, lsl #3]
  48:C:/Users/leopi/Documents/vs/S-Reo/MazeLibrary\MazeLib.c ****             maze->RawNode[i][0].rc = 0;
 408              		.loc 1 48 13 is_stmt 1 discriminator 3 view .LVU110
  48:C:/Users/leopi/Documents/vs/S-Reo/MazeLibrary\MazeLib.c ****             maze->RawNode[i][0].rc = 0;
 409              		.loc 1 48 38 is_stmt 0 discriminator 3 view .LVU111
 410 004c 1871     		strb	r0, [r3, #4]
  49:C:/Users/leopi/Documents/vs/S-Reo/MazeLibrary\MazeLib.c ****             maze->RawNode[i][0].pos.x = i;
 411              		.loc 1 49 13 is_stmt 1 discriminator 3 view .LVU112
  49:C:/Users/leopi/Documents/vs/S-Reo/MazeLibrary\MazeLib.c ****             maze->RawNode[i][0].pos.x = i;
 412              		.loc 1 49 36 is_stmt 0 discriminator 3 view .LVU113
 413 004e 4FF0000C 		mov	ip, #0
 414 0052 83F805C0 		strb	ip, [r3, #5]
  50:C:/Users/leopi/Documents/vs/S-Reo/MazeLibrary\MazeLib.c ****             maze->RawNode[i][0].pos.y = 0;
 415              		.loc 1 50 13 is_stmt 1 discriminator 3 view .LVU114
  50:C:/Users/leopi/Documents/vs/S-Reo/MazeLibrary\MazeLib.c ****             maze->RawNode[i][0].pos.y = 0;
 416              		.loc 1 50 39 is_stmt 0 discriminator 3 view .LVU115
 417 0056 5FFA82FE 		uxtb	lr, r2
 418 005a 83F806E0 		strb	lr, [r3, #6]
  51:C:/Users/leopi/Documents/vs/S-Reo/MazeLibrary\MazeLib.c **** //            maze->RawNode[i][0].visit = true; //ä¾¿å®œçš„ã«è¨ªå•æ¸ˆã¿ã¨ã™ã‚‹
 419              		.loc 1 51 13 is_stmt 1 discriminator 3 view .LVU116
  51:C:/Users/leopi/Documents/vs/S-Reo/MazeLibrary\MazeLib.c **** //            maze->RawNode[i][0].visit = true; //ä¾¿å®œçš„ã«è¨ªå•æ¸ˆã¿ã¨ã™ã‚‹
 420              		.loc 1 51 39 is_stmt 0 discriminator 3 view .LVU117
 421 005e 83F807C0 		strb	ip, [r3, #7]
  53:C:/Users/leopi/Documents/vs/S-Reo/MazeLibrary\MazeLib.c ****             maze->RawNode[i][NUMBER_OF_SQUARES_Y].draw = true;//æœªçŸ¥å£ã¯æç”»ã®ã¨ãã«ç„¡ã
 422              		.loc 1 53 13 is_stmt 1 discriminator 3 view .LVU118
  53:C:/Users/leopi/Documents/vs/S-Reo/MazeLibrary\MazeLib.c ****             maze->RawNode[i][NUMBER_OF_SQUARES_Y].draw = true;//æœªçŸ¥å£ã¯æç”»ã®ã¨ãã«ç„¡ã
 423              		.loc 1 53 61 is_stmt 0 discriminator 3 view .LVU119
 424 0062 83F80001 		strb	r0, [r3, #256]
  54:C:/Users/leopi/Documents/vs/S-Reo/MazeLibrary\MazeLib.c ****             maze->RawNode[i][NUMBER_OF_SQUARES_Y].rc = 0;
 425              		.loc 1 54 13 is_stmt 1 discriminator 3 view .LVU120
  54:C:/Users/leopi/Documents/vs/S-Reo/MazeLibrary\MazeLib.c ****             maze->RawNode[i][NUMBER_OF_SQUARES_Y].rc = 0;
 426              		.loc 1 54 56 is_stmt 0 discriminator 3 view .LVU121
 427 0066 83F80401 		strb	r0, [r3, #260]
  55:C:/Users/leopi/Documents/vs/S-Reo/MazeLibrary\MazeLib.c ****             maze->RawNode[i][NUMBER_OF_SQUARES_Y].pos.x = i;
 428              		.loc 1 55 13 is_stmt 1 discriminator 3 view .LVU122
  55:C:/Users/leopi/Documents/vs/S-Reo/MazeLibrary\MazeLib.c ****             maze->RawNode[i][NUMBER_OF_SQUARES_Y].pos.x = i;
 429              		.loc 1 55 54 is_stmt 0 discriminator 3 view .LVU123
ARM GAS  C:\Users\leopi\AppData\Local\Temp\ccilUBL0.s 			page 19


 430 006a 83F805C1 		strb	ip, [r3, #261]
  56:C:/Users/leopi/Documents/vs/S-Reo/MazeLibrary\MazeLib.c ****             maze->RawNode[i][NUMBER_OF_SQUARES_Y].pos.y = NUMBER_OF_SQUARES_Y;
 431              		.loc 1 56 13 is_stmt 1 discriminator 3 view .LVU124
  56:C:/Users/leopi/Documents/vs/S-Reo/MazeLibrary\MazeLib.c ****             maze->RawNode[i][NUMBER_OF_SQUARES_Y].pos.y = NUMBER_OF_SQUARES_Y;
 432              		.loc 1 56 57 is_stmt 0 discriminator 3 view .LVU125
 433 006e 83F806E1 		strb	lr, [r3, #262]
  57:C:/Users/leopi/Documents/vs/S-Reo/MazeLibrary\MazeLib.c **** //            maze->RawNode[i][NUMBER_OF_SQUARES_Y].visit = true; //ä¾¿å®œçš„ã«è¨ªå•æ¸ˆã¿ã¨ã™ã
 434              		.loc 1 57 13 is_stmt 1 discriminator 3 view .LVU126
  57:C:/Users/leopi/Documents/vs/S-Reo/MazeLibrary\MazeLib.c **** //            maze->RawNode[i][NUMBER_OF_SQUARES_Y].visit = true; //ä¾¿å®œçš„ã«è¨ªå•æ¸ˆã¿ã¨ã™ã
 435              		.loc 1 57 57 is_stmt 0 discriminator 3 view .LVU127
 436 0072 2020     		movs	r0, #32
 437 0074 83F80701 		strb	r0, [r3, #263]
  45:C:/Users/leopi/Documents/vs/S-Reo/MazeLibrary\MazeLib.c ****     {
 438              		.loc 1 45 43 is_stmt 1 discriminator 3 view .LVU128
  45:C:/Users/leopi/Documents/vs/S-Reo/MazeLibrary\MazeLib.c ****     {
 439              		.loc 1 45 44 is_stmt 0 discriminator 3 view .LVU129
 440 0078 0132     		adds	r2, r2, #1
 441              	.LVL36:
 442              	.L28:
  45:C:/Users/leopi/Documents/vs/S-Reo/MazeLibrary\MazeLib.c ****     {
 443              		.loc 1 45 18 is_stmt 1 discriminator 1 view .LVU130
  45:C:/Users/leopi/Documents/vs/S-Reo/MazeLibrary\MazeLib.c ****     {
 444              		.loc 1 45 5 is_stmt 0 discriminator 1 view .LVU131
 445 007a 1F2A     		cmp	r2, #31
 446 007c DFDD     		ble	.L29
 447              	.LBE11:
 448              	.LBB12:
  60:C:/Users/leopi/Documents/vs/S-Reo/MazeLibrary\MazeLib.c ****     {
 449              		.loc 1 60 13 view .LVU132
 450 007e 0120     		movs	r0, #1
 451 0080 17E0     		b	.L30
 452              	.LVL37:
 453              	.L31:
 454              	.LBB13:
  64:C:/Users/leopi/Documents/vs/S-Reo/MazeLibrary\MazeLib.c ****             maze->ColumnNode[i][j].draw = false;
 455              		.loc 1 64 13 is_stmt 1 discriminator 3 view .LVU133
  64:C:/Users/leopi/Documents/vs/S-Reo/MazeLibrary\MazeLib.c ****             maze->ColumnNode[i][j].draw = false;
 456              		.loc 1 64 46 is_stmt 0 discriminator 3 view .LVU134
 457 0082 02EB4013 		add	r3, r2, r0, lsl #5
 458 0086 03F58463 		add	r3, r3, #1056
 459 008a 4FF0020C 		mov	ip, #2
 460 008e 01F833C0 		strb	ip, [r1, r3, lsl #3]
  65:C:/Users/leopi/Documents/vs/S-Reo/MazeLibrary\MazeLib.c ****             maze->ColumnNode[i][j].rc = 1;
 461              		.loc 1 65 13 is_stmt 1 discriminator 3 view .LVU135
  65:C:/Users/leopi/Documents/vs/S-Reo/MazeLibrary\MazeLib.c ****             maze->ColumnNode[i][j].rc = 1;
 462              		.loc 1 65 41 is_stmt 0 discriminator 3 view .LVU136
 463 0092 01EBC303 		add	r3, r1, r3, lsl #3
 464 0096 4FF0000C 		mov	ip, #0
 465 009a 83F804C0 		strb	ip, [r3, #4]
  66:C:/Users/leopi/Documents/vs/S-Reo/MazeLibrary\MazeLib.c ****             maze->ColumnNode[i][j].pos.x = i;
 466              		.loc 1 66 13 is_stmt 1 discriminator 3 view .LVU137
  66:C:/Users/leopi/Documents/vs/S-Reo/MazeLibrary\MazeLib.c ****             maze->ColumnNode[i][j].pos.x = i;
 467              		.loc 1 66 39 is_stmt 0 discriminator 3 view .LVU138
 468 009e 4FF0010C 		mov	ip, #1
 469 00a2 83F805C0 		strb	ip, [r3, #5]
  67:C:/Users/leopi/Documents/vs/S-Reo/MazeLibrary\MazeLib.c ****             maze->ColumnNode[i][j].pos.y = j;
 470              		.loc 1 67 13 is_stmt 1 discriminator 3 view .LVU139
ARM GAS  C:\Users\leopi\AppData\Local\Temp\ccilUBL0.s 			page 20


  67:C:/Users/leopi/Documents/vs/S-Reo/MazeLibrary\MazeLib.c ****             maze->ColumnNode[i][j].pos.y = j;
 471              		.loc 1 67 42 is_stmt 0 discriminator 3 view .LVU140
 472 00a6 9871     		strb	r0, [r3, #6]
  68:C:/Users/leopi/Documents/vs/S-Reo/MazeLibrary\MazeLib.c **** //            maze->ColumnNode[i][j].visit = false;
 473              		.loc 1 68 13 is_stmt 1 discriminator 3 view .LVU141
  68:C:/Users/leopi/Documents/vs/S-Reo/MazeLibrary\MazeLib.c **** //            maze->ColumnNode[i][j].visit = false;
 474              		.loc 1 68 42 is_stmt 0 discriminator 3 view .LVU142
 475 00a8 DA71     		strb	r2, [r3, #7]
  62:C:/Users/leopi/Documents/vs/S-Reo/MazeLibrary\MazeLib.c ****         {
 476              		.loc 1 62 47 is_stmt 1 discriminator 3 view .LVU143
  62:C:/Users/leopi/Documents/vs/S-Reo/MazeLibrary\MazeLib.c ****         {
 477              		.loc 1 62 48 is_stmt 0 discriminator 3 view .LVU144
 478 00aa 6244     		add	r2, r2, ip
 479              	.LVL38:
 480              	.L32:
  62:C:/Users/leopi/Documents/vs/S-Reo/MazeLibrary\MazeLib.c ****         {
 481              		.loc 1 62 22 is_stmt 1 discriminator 1 view .LVU145
  62:C:/Users/leopi/Documents/vs/S-Reo/MazeLibrary\MazeLib.c ****         {
 482              		.loc 1 62 9 is_stmt 0 discriminator 1 view .LVU146
 483 00ac 1F2A     		cmp	r2, #31
 484 00ae E8DD     		ble	.L31
 485              	.LBE13:
  60:C:/Users/leopi/Documents/vs/S-Reo/MazeLibrary\MazeLib.c ****     {
 486              		.loc 1 60 43 is_stmt 1 discriminator 2 view .LVU147
  60:C:/Users/leopi/Documents/vs/S-Reo/MazeLibrary\MazeLib.c ****     {
 487              		.loc 1 60 44 is_stmt 0 discriminator 2 view .LVU148
 488 00b0 0130     		adds	r0, r0, #1
 489              	.LVL39:
 490              	.L30:
  60:C:/Users/leopi/Documents/vs/S-Reo/MazeLibrary\MazeLib.c ****     {
 491              		.loc 1 60 18 is_stmt 1 discriminator 1 view .LVU149
  60:C:/Users/leopi/Documents/vs/S-Reo/MazeLibrary\MazeLib.c ****     {
 492              		.loc 1 60 5 is_stmt 0 discriminator 1 view .LVU150
 493 00b2 1F28     		cmp	r0, #31
 494 00b4 01DC     		bgt	.L39
 495              	.LBB14:
  62:C:/Users/leopi/Documents/vs/S-Reo/MazeLibrary\MazeLib.c ****         {
 496              		.loc 1 62 17 view .LVU151
 497 00b6 0022     		movs	r2, #0
 498 00b8 F8E7     		b	.L32
 499              	.L39:
 500              	.LBE14:
 501              	.LBE12:
 502              	.LBB15:
  72:C:/Users/leopi/Documents/vs/S-Reo/MazeLibrary\MazeLib.c ****     {
 503              		.loc 1 72 13 view .LVU152
 504 00ba 0020     		movs	r0, #0
 505              	.LVL40:
  72:C:/Users/leopi/Documents/vs/S-Reo/MazeLibrary\MazeLib.c ****     {
 506              		.loc 1 72 13 view .LVU153
 507 00bc 1DE0     		b	.L33
 508              	.LVL41:
 509              	.L34:
  74:C:/Users/leopi/Documents/vs/S-Reo/MazeLibrary\MazeLib.c ****             maze->ColumnNode[0][j].draw = true;
 510              		.loc 1 74 13 is_stmt 1 discriminator 3 view .LVU154
  74:C:/Users/leopi/Documents/vs/S-Reo/MazeLibrary\MazeLib.c ****             maze->ColumnNode[0][j].draw = true;
 511              		.loc 1 74 46 is_stmt 0 discriminator 3 view .LVU155
ARM GAS  C:\Users\leopi\AppData\Local\Temp\ccilUBL0.s 			page 21


 512 00be 00F58463 		add	r3, r0, #1056
 513 00c2 0122     		movs	r2, #1
 514 00c4 01F83320 		strb	r2, [r1, r3, lsl #3]
  75:C:/Users/leopi/Documents/vs/S-Reo/MazeLibrary\MazeLib.c ****             maze->ColumnNode[0][j].rc = 1;
 515              		.loc 1 75 13 is_stmt 1 discriminator 3 view .LVU156
  75:C:/Users/leopi/Documents/vs/S-Reo/MazeLibrary\MazeLib.c ****             maze->ColumnNode[0][j].rc = 1;
 516              		.loc 1 75 41 is_stmt 0 discriminator 3 view .LVU157
 517 00c8 01EBC303 		add	r3, r1, r3, lsl #3
 518 00cc 1A71     		strb	r2, [r3, #4]
  76:C:/Users/leopi/Documents/vs/S-Reo/MazeLibrary\MazeLib.c ****             maze->ColumnNode[0][j].pos.x = 0;
 519              		.loc 1 76 13 is_stmt 1 discriminator 3 view .LVU158
  76:C:/Users/leopi/Documents/vs/S-Reo/MazeLibrary\MazeLib.c ****             maze->ColumnNode[0][j].pos.x = 0;
 520              		.loc 1 76 39 is_stmt 0 discriminator 3 view .LVU159
 521 00ce 5A71     		strb	r2, [r3, #5]
  77:C:/Users/leopi/Documents/vs/S-Reo/MazeLibrary\MazeLib.c ****             maze->ColumnNode[0][j].pos.y = j;
 522              		.loc 1 77 13 is_stmt 1 discriminator 3 view .LVU160
  77:C:/Users/leopi/Documents/vs/S-Reo/MazeLibrary\MazeLib.c ****             maze->ColumnNode[0][j].pos.y = j;
 523              		.loc 1 77 42 is_stmt 0 discriminator 3 view .LVU161
 524 00d0 4FF0000C 		mov	ip, #0
 525 00d4 83F806C0 		strb	ip, [r3, #6]
  78:C:/Users/leopi/Documents/vs/S-Reo/MazeLibrary\MazeLib.c **** //            maze->ColumnNode[0][j].visit = true;
 526              		.loc 1 78 13 is_stmt 1 discriminator 3 view .LVU162
  78:C:/Users/leopi/Documents/vs/S-Reo/MazeLibrary\MazeLib.c **** //            maze->ColumnNode[0][j].visit = true;
 527              		.loc 1 78 42 is_stmt 0 discriminator 3 view .LVU163
 528 00d8 5FFA80FC 		uxtb	ip, r0
 529 00dc 83F807C0 		strb	ip, [r3, #7]
  80:C:/Users/leopi/Documents/vs/S-Reo/MazeLibrary\MazeLib.c ****             maze->ColumnNode[NUMBER_OF_SQUARES_X][j].draw = true;
 530              		.loc 1 80 13 is_stmt 1 discriminator 3 view .LVU164
  80:C:/Users/leopi/Documents/vs/S-Reo/MazeLibrary\MazeLib.c ****             maze->ColumnNode[NUMBER_OF_SQUARES_X][j].draw = true;
 531              		.loc 1 80 64 is_stmt 0 discriminator 3 view .LVU165
 532 00e0 00F50263 		add	r3, r0, #2080
 533 00e4 01F83320 		strb	r2, [r1, r3, lsl #3]
  81:C:/Users/leopi/Documents/vs/S-Reo/MazeLibrary\MazeLib.c ****             maze->ColumnNode[NUMBER_OF_SQUARES_X][j].rc = 1;
 534              		.loc 1 81 13 is_stmt 1 discriminator 3 view .LVU166
  81:C:/Users/leopi/Documents/vs/S-Reo/MazeLibrary\MazeLib.c ****             maze->ColumnNode[NUMBER_OF_SQUARES_X][j].rc = 1;
 535              		.loc 1 81 59 is_stmt 0 discriminator 3 view .LVU167
 536 00e8 01EBC303 		add	r3, r1, r3, lsl #3
 537 00ec 1A71     		strb	r2, [r3, #4]
  82:C:/Users/leopi/Documents/vs/S-Reo/MazeLibrary\MazeLib.c ****             maze->ColumnNode[NUMBER_OF_SQUARES_X][j].pos.x = NUMBER_OF_SQUARES_X;
 538              		.loc 1 82 13 is_stmt 1 discriminator 3 view .LVU168
  82:C:/Users/leopi/Documents/vs/S-Reo/MazeLibrary\MazeLib.c ****             maze->ColumnNode[NUMBER_OF_SQUARES_X][j].pos.x = NUMBER_OF_SQUARES_X;
 539              		.loc 1 82 57 is_stmt 0 discriminator 3 view .LVU169
 540 00ee 5A71     		strb	r2, [r3, #5]
  83:C:/Users/leopi/Documents/vs/S-Reo/MazeLibrary\MazeLib.c ****             maze->ColumnNode[NUMBER_OF_SQUARES_X][j].pos.y = j;
 541              		.loc 1 83 13 is_stmt 1 discriminator 3 view .LVU170
  83:C:/Users/leopi/Documents/vs/S-Reo/MazeLibrary\MazeLib.c ****             maze->ColumnNode[NUMBER_OF_SQUARES_X][j].pos.y = j;
 542              		.loc 1 83 60 is_stmt 0 discriminator 3 view .LVU171
 543 00f0 2022     		movs	r2, #32
 544 00f2 9A71     		strb	r2, [r3, #6]
  84:C:/Users/leopi/Documents/vs/S-Reo/MazeLibrary\MazeLib.c **** //            maze->ColumnNode[NUMBER_OF_SQUARES_X][j].visit = true;
 545              		.loc 1 84 13 is_stmt 1 discriminator 3 view .LVU172
  84:C:/Users/leopi/Documents/vs/S-Reo/MazeLibrary\MazeLib.c **** //            maze->ColumnNode[NUMBER_OF_SQUARES_X][j].visit = true;
 546              		.loc 1 84 60 is_stmt 0 discriminator 3 view .LVU173
 547 00f4 83F807C0 		strb	ip, [r3, #7]
  72:C:/Users/leopi/Documents/vs/S-Reo/MazeLibrary\MazeLib.c ****     {
 548              		.loc 1 72 43 is_stmt 1 discriminator 3 view .LVU174
  72:C:/Users/leopi/Documents/vs/S-Reo/MazeLibrary\MazeLib.c ****     {
ARM GAS  C:\Users\leopi\AppData\Local\Temp\ccilUBL0.s 			page 22


 549              		.loc 1 72 44 is_stmt 0 discriminator 3 view .LVU175
 550 00f8 0130     		adds	r0, r0, #1
 551              	.LVL42:
 552              	.L33:
  72:C:/Users/leopi/Documents/vs/S-Reo/MazeLibrary\MazeLib.c ****     {
 553              		.loc 1 72 18 is_stmt 1 discriminator 1 view .LVU176
  72:C:/Users/leopi/Documents/vs/S-Reo/MazeLibrary\MazeLib.c ****     {
 554              		.loc 1 72 5 is_stmt 0 discriminator 1 view .LVU177
 555 00fa 1F28     		cmp	r0, #31
 556 00fc DFDD     		ble	.L34
 557              	.LBE15:
  87:C:/Users/leopi/Documents/vs/S-Reo/MazeLibrary\MazeLib.c ****     maze->RawNode[0][1].existence = NOWALL;     //åŒ—0
 558              		.loc 1 87 5 is_stmt 1 view .LVU178
  87:C:/Users/leopi/Documents/vs/S-Reo/MazeLibrary\MazeLib.c ****     maze->RawNode[0][1].existence = NOWALL;     //åŒ—0
 559              		.loc 1 87 38 is_stmt 0 view .LVU179
 560 00fe 01F50052 		add	r2, r1, #8192
 561 0102 0120     		movs	r0, #1
 562              	.LVL43:
  87:C:/Users/leopi/Documents/vs/S-Reo/MazeLibrary\MazeLib.c ****     maze->RawNode[0][1].existence = NOWALL;     //åŒ—0
 563              		.loc 1 87 38 view .LVU180
 564 0104 82F80002 		strb	r0, [r2, #512]
  88:C:/Users/leopi/Documents/vs/S-Reo/MazeLibrary\MazeLib.c **** 
 565              		.loc 1 88 5 is_stmt 1 view .LVU181
  88:C:/Users/leopi/Documents/vs/S-Reo/MazeLibrary\MazeLib.c **** 
 566              		.loc 1 88 35 is_stmt 0 view .LVU182
 567 0108 0023     		movs	r3, #0
 568 010a 0B72     		strb	r3, [r1, #8]
  90:C:/Users/leopi/Documents/vs/S-Reo/MazeLibrary\MazeLib.c ****     maze->RawNode[0][1].draw = false;     //åŒ—0
 569              		.loc 1 90 5 is_stmt 1 view .LVU183
  90:C:/Users/leopi/Documents/vs/S-Reo/MazeLibrary\MazeLib.c ****     maze->RawNode[0][1].draw = false;     //åŒ—0
 570              		.loc 1 90 33 is_stmt 0 view .LVU184
 571 010c 82F80402 		strb	r0, [r2, #516]
  91:C:/Users/leopi/Documents/vs/S-Reo/MazeLibrary\MazeLib.c **** 
 572              		.loc 1 91 5 is_stmt 1 view .LVU185
  91:C:/Users/leopi/Documents/vs/S-Reo/MazeLibrary\MazeLib.c **** 
 573              		.loc 1 91 30 is_stmt 0 view .LVU186
 574 0110 0B73     		strb	r3, [r1, #12]
  96:C:/Users/leopi/Documents/vs/S-Reo/MazeLibrary\MazeLib.c **** void initTargetAreaWeight(maze_node *maze, position *target_pos, position *target_size)
 575              		.loc 1 96 1 view .LVU187
 576 0112 5DF804FB 		ldr	pc, [sp], #4
 577              		.cfi_endproc
 578              	.LFE4:
 580              		.section	.text.initTargetAreaWeight,"ax",%progbits
 581              		.align	1
 582              		.global	initTargetAreaWeight
 583              		.syntax unified
 584              		.thumb
 585              		.thumb_func
 587              	initTargetAreaWeight:
 588              	.LVL44:
 589              	.LFB5:
  98:C:/Users/leopi/Documents/vs/S-Reo/MazeLibrary\MazeLib.c ****     uint8_t x = target_pos->x;
 590              		.loc 1 98 1 is_stmt 1 view -0
 591              		.cfi_startproc
 592              		@ args = 0, pretend = 0, frame = 0
 593              		@ frame_needed = 0, uses_anonymous_args = 0
  98:C:/Users/leopi/Documents/vs/S-Reo/MazeLibrary\MazeLib.c ****     uint8_t x = target_pos->x;
ARM GAS  C:\Users\leopi\AppData\Local\Temp\ccilUBL0.s 			page 23


 594              		.loc 1 98 1 is_stmt 0 view .LVU189
 595 0000 F0B5     		push	{r4, r5, r6, r7, lr}
 596              	.LCFI2:
 597              		.cfi_def_cfa_offset 20
 598              		.cfi_offset 4, -20
 599              		.cfi_offset 5, -16
 600              		.cfi_offset 6, -12
 601              		.cfi_offset 7, -8
 602              		.cfi_offset 14, -4
 603 0002 1646     		mov	r6, r2
  99:C:/Users/leopi/Documents/vs/S-Reo/MazeLibrary\MazeLib.c ****     uint8_t y = target_pos->y;
 604              		.loc 1 99 5 is_stmt 1 view .LVU190
  99:C:/Users/leopi/Documents/vs/S-Reo/MazeLibrary\MazeLib.c ****     uint8_t y = target_pos->y;
 605              		.loc 1 99 13 is_stmt 0 view .LVU191
 606 0004 0D78     		ldrb	r5, [r1]	@ zero_extendqisi2
 607              	.LVL45:
 100:C:/Users/leopi/Documents/vs/S-Reo/MazeLibrary\MazeLib.c ****     //ã‚´ãƒ¼ãƒ«ã‚¨ãƒªã‚¢ã®å¤–å €ã¨ä¸­ã®ãƒãƒ¼ãƒ‰ã¯å…¨ã¦0ã€å£ãŒã‚ã‚Œã°MAXã€‚
 608              		.loc 1 100 5 is_stmt 1 view .LVU192
 100:C:/Users/leopi/Documents/vs/S-Reo/MazeLibrary\MazeLib.c ****     //ã‚´ãƒ¼ãƒ«ã‚¨ãƒªã‚¢ã®å¤–å €ã¨ä¸­ã®ãƒãƒ¼ãƒ‰ã¯å…¨ã¦0ã€å£ãŒã‚ã‚Œã°MAXã€‚
 609              		.loc 1 100 13 is_stmt 0 view .LVU193
 610 0006 4C78     		ldrb	r4, [r1, #1]	@ zero_extendqisi2
 611              	.LVL46:
 102:C:/Users/leopi/Documents/vs/S-Reo/MazeLibrary\MazeLib.c ****     {
 612              		.loc 1 102 5 is_stmt 1 view .LVU194
 613              	.LBB16:
 102:C:/Users/leopi/Documents/vs/S-Reo/MazeLibrary\MazeLib.c ****     {
 614              		.loc 1 102 9 view .LVU195
 102:C:/Users/leopi/Documents/vs/S-Reo/MazeLibrary\MazeLib.c ****     {
 615              		.loc 1 102 13 is_stmt 0 view .LVU196
 616 0008 0022     		movs	r2, #0
 617              	.LVL47:
 102:C:/Users/leopi/Documents/vs/S-Reo/MazeLibrary\MazeLib.c ****     {
 618              		.loc 1 102 5 view .LVU197
 619 000a 58E0     		b	.L41
 620              	.LVL48:
 621              	.L58:
 622              	.LBB17:
 112:C:/Users/leopi/Documents/vs/S-Reo/MazeLibrary\MazeLib.c ****             maze->ColumnNode[x+1+i][y+j].weight = (maze->ColumnNode[x+1+i][y+j].existence == WALL) 
 623              		.loc 1 112 46 view .LVU198
 624 000c 40F6FF77 		movw	r7, #4095
 625              	.L42:
 112:C:/Users/leopi/Documents/vs/S-Reo/MazeLibrary\MazeLib.c ****             maze->ColumnNode[x+1+i][y+j].weight = (maze->ColumnNode[x+1+i][y+j].existence == WALL) 
 626              		.loc 1 112 46 discriminator 4 view .LVU199
 627 0010 01EB4113 		add	r3, r1, r1, lsl #5
 628 0014 6344     		add	r3, r3, ip
 629 0016 00EBC303 		add	r3, r0, r3, lsl #3
 630 001a 5F80     		strh	r7, [r3, #2]	@ movhi
 113:C:/Users/leopi/Documents/vs/S-Reo/MazeLibrary\MazeLib.c ****             maze->RawNode[x+i][y+j].weight = (maze->RawNode[x+i][y+j].existence == WALL) ? MAX_WEIG
 631              		.loc 1 113 13 is_stmt 1 discriminator 4 view .LVU200
 113:C:/Users/leopi/Documents/vs/S-Reo/MazeLibrary\MazeLib.c ****             maze->RawNode[x+i][y+j].weight = (maze->RawNode[x+i][y+j].existence == WALL) ? MAX_WEIG
 632              		.loc 1 113 70 is_stmt 0 discriminator 4 view .LVU201
 633 001c 05F1010C 		add	ip, r5, #1
 113:C:/Users/leopi/Documents/vs/S-Reo/MazeLibrary\MazeLib.c ****             maze->RawNode[x+i][y+j].weight = (maze->RawNode[x+i][y+j].existence == WALL) ? MAX_WEIG
 634              		.loc 1 113 72 discriminator 4 view .LVU202
 635 0020 9444     		add	ip, ip, r2
 113:C:/Users/leopi/Documents/vs/S-Reo/MazeLibrary\MazeLib.c ****             maze->RawNode[x+i][y+j].weight = (maze->RawNode[x+i][y+j].existence == WALL) ? MAX_WEIG
 636              		.loc 1 113 77 discriminator 4 view .LVU203
ARM GAS  C:\Users\leopi\AppData\Local\Temp\ccilUBL0.s 			page 24


 637 0022 04EB0E03 		add	r3, r4, lr
 113:C:/Users/leopi/Documents/vs/S-Reo/MazeLibrary\MazeLib.c ****             maze->RawNode[x+i][y+j].weight = (maze->RawNode[x+i][y+j].existence == WALL) ? MAX_WEIG
 638              		.loc 1 113 80 discriminator 4 view .LVU204
 639 0026 03EB4C17 		add	r7, r3, ip, lsl #5
 640 002a 07F58467 		add	r7, r7, #1056
 641 002e 10F83770 		ldrb	r7, [r0, r7, lsl #3]	@ zero_extendqisi2
 113:C:/Users/leopi/Documents/vs/S-Reo/MazeLibrary\MazeLib.c ****             maze->RawNode[x+i][y+j].weight = (maze->RawNode[x+i][y+j].existence == WALL) ? MAX_WEIG
 642              		.loc 1 113 49 discriminator 4 view .LVU205
 643 0032 012F     		cmp	r7, #1
 644 0034 39D0     		beq	.L54
 113:C:/Users/leopi/Documents/vs/S-Reo/MazeLibrary\MazeLib.c ****             maze->RawNode[x+i][y+j].weight = (maze->RawNode[x+i][y+j].existence == WALL) ? MAX_WEIG
 645              		.loc 1 113 49 view .LVU206
 646 0036 0027     		movs	r7, #0
 647              	.L43:
 113:C:/Users/leopi/Documents/vs/S-Reo/MazeLibrary\MazeLib.c ****             maze->RawNode[x+i][y+j].weight = (maze->RawNode[x+i][y+j].existence == WALL) ? MAX_WEIG
 648              		.loc 1 113 49 discriminator 4 view .LVU207
 649 0038 03EB4C1C 		add	ip, r3, ip, lsl #5
 650 003c 0CF5846C 		add	ip, ip, #1056
 651 0040 00EBCC0C 		add	ip, r0, ip, lsl #3
 652 0044 ACF80270 		strh	r7, [ip, #2]	@ movhi
 114:C:/Users/leopi/Documents/vs/S-Reo/MazeLibrary\MazeLib.c ****             maze->ColumnNode[x+i][y+j].weight = (maze->ColumnNode[x+i][y+j].existence == WALL) ? MA
 653              		.loc 1 114 13 is_stmt 1 discriminator 4 view .LVU208
 114:C:/Users/leopi/Documents/vs/S-Reo/MazeLibrary\MazeLib.c ****             maze->ColumnNode[x+i][y+j].weight = (maze->ColumnNode[x+i][y+j].existence == WALL) ? MA
 654              		.loc 1 114 70 is_stmt 0 discriminator 4 view .LVU209
 655 0048 01EB411C 		add	ip, r1, r1, lsl #5
 656 004c 9C44     		add	ip, ip, r3
 657 004e 10F83C70 		ldrb	r7, [r0, ip, lsl #3]	@ zero_extendqisi2
 114:C:/Users/leopi/Documents/vs/S-Reo/MazeLibrary\MazeLib.c ****             maze->ColumnNode[x+i][y+j].weight = (maze->ColumnNode[x+i][y+j].existence == WALL) ? MA
 658              		.loc 1 114 44 discriminator 4 view .LVU210
 659 0052 012F     		cmp	r7, #1
 660 0054 2CD0     		beq	.L55
 114:C:/Users/leopi/Documents/vs/S-Reo/MazeLibrary\MazeLib.c ****             maze->ColumnNode[x+i][y+j].weight = (maze->ColumnNode[x+i][y+j].existence == WALL) ? MA
 661              		.loc 1 114 44 view .LVU211
 662 0056 0027     		movs	r7, #0
 663              	.L44:
 114:C:/Users/leopi/Documents/vs/S-Reo/MazeLibrary\MazeLib.c ****             maze->ColumnNode[x+i][y+j].weight = (maze->ColumnNode[x+i][y+j].existence == WALL) ? MA
 664              		.loc 1 114 44 discriminator 4 view .LVU212
 665 0058 01EB411C 		add	ip, r1, r1, lsl #5
 666 005c 9C44     		add	ip, ip, r3
 667 005e 00EBCC0C 		add	ip, r0, ip, lsl #3
 668 0062 ACF80270 		strh	r7, [ip, #2]	@ movhi
 115:C:/Users/leopi/Documents/vs/S-Reo/MazeLibrary\MazeLib.c ****         }
 669              		.loc 1 115 13 is_stmt 1 discriminator 4 view .LVU213
 115:C:/Users/leopi/Documents/vs/S-Reo/MazeLibrary\MazeLib.c ****         }
 670              		.loc 1 115 76 is_stmt 0 discriminator 4 view .LVU214
 671 0066 03EB411C 		add	ip, r3, r1, lsl #5
 672 006a 0CF5846C 		add	ip, ip, #1056
 673 006e 10F83C70 		ldrb	r7, [r0, ip, lsl #3]	@ zero_extendqisi2
 115:C:/Users/leopi/Documents/vs/S-Reo/MazeLibrary\MazeLib.c ****         }
 674              		.loc 1 115 47 discriminator 4 view .LVU215
 675 0072 012F     		cmp	r7, #1
 676 0074 1FD0     		beq	.L56
 115:C:/Users/leopi/Documents/vs/S-Reo/MazeLibrary\MazeLib.c ****         }
 677              		.loc 1 115 47 view .LVU216
 678 0076 0027     		movs	r7, #0
 679              	.L45:
 115:C:/Users/leopi/Documents/vs/S-Reo/MazeLibrary\MazeLib.c ****         }
ARM GAS  C:\Users\leopi\AppData\Local\Temp\ccilUBL0.s 			page 25


 680              		.loc 1 115 47 discriminator 4 view .LVU217
 681 0078 03EB4113 		add	r3, r3, r1, lsl #5
 682 007c 03F58463 		add	r3, r3, #1056
 683 0080 00EBC303 		add	r3, r0, r3, lsl #3
 684 0084 5F80     		strh	r7, [r3, #2]	@ movhi
 104:C:/Users/leopi/Documents/vs/S-Reo/MazeLibrary\MazeLib.c ****         {
 685              		.loc 1 104 42 is_stmt 1 discriminator 4 view .LVU218
 104:C:/Users/leopi/Documents/vs/S-Reo/MazeLibrary\MazeLib.c ****         {
 686              		.loc 1 104 43 is_stmt 0 discriminator 4 view .LVU219
 687 0086 0EF1010E 		add	lr, lr, #1
 688              	.LVL49:
 689              	.L47:
 104:C:/Users/leopi/Documents/vs/S-Reo/MazeLibrary\MazeLib.c ****         {
 690              		.loc 1 104 22 is_stmt 1 discriminator 2 view .LVU220
 104:C:/Users/leopi/Documents/vs/S-Reo/MazeLibrary\MazeLib.c ****         {
 691              		.loc 1 104 37 is_stmt 0 discriminator 2 view .LVU221
 692 008a 7378     		ldrb	r3, [r6, #1]	@ zero_extendqisi2
 104:C:/Users/leopi/Documents/vs/S-Reo/MazeLibrary\MazeLib.c ****         {
 693              		.loc 1 104 9 discriminator 2 view .LVU222
 694 008c 7345     		cmp	r3, lr
 695 008e 15DD     		ble	.L57
 112:C:/Users/leopi/Documents/vs/S-Reo/MazeLibrary\MazeLib.c ****             maze->ColumnNode[x+1+i][y+j].weight = (maze->ColumnNode[x+1+i][y+j].existence == WALL) 
 696              		.loc 1 112 13 is_stmt 1 view .LVU223
 112:C:/Users/leopi/Documents/vs/S-Reo/MazeLibrary\MazeLib.c ****             maze->ColumnNode[x+1+i][y+j].weight = (maze->ColumnNode[x+1+i][y+j].existence == WALL) 
 697              		.loc 1 112 64 is_stmt 0 view .LVU224
 698 0090 A918     		adds	r1, r5, r2
 112:C:/Users/leopi/Documents/vs/S-Reo/MazeLibrary\MazeLib.c ****             maze->ColumnNode[x+1+i][y+j].weight = (maze->ColumnNode[x+1+i][y+j].existence == WALL) 
 699              		.loc 1 112 69 view .LVU225
 700 0092 631C     		adds	r3, r4, #1
 112:C:/Users/leopi/Documents/vs/S-Reo/MazeLibrary\MazeLib.c ****             maze->ColumnNode[x+1+i][y+j].weight = (maze->ColumnNode[x+1+i][y+j].existence == WALL) 
 701              		.loc 1 112 71 view .LVU226
 702 0094 03EB0E0C 		add	ip, r3, lr
 112:C:/Users/leopi/Documents/vs/S-Reo/MazeLibrary\MazeLib.c ****             maze->ColumnNode[x+1+i][y+j].weight = (maze->ColumnNode[x+1+i][y+j].existence == WALL) 
 703              		.loc 1 112 74 view .LVU227
 704 0098 01EB4113 		add	r3, r1, r1, lsl #5
 705 009c 6344     		add	r3, r3, ip
 706 009e 10F83330 		ldrb	r3, [r0, r3, lsl #3]	@ zero_extendqisi2
 112:C:/Users/leopi/Documents/vs/S-Reo/MazeLibrary\MazeLib.c ****             maze->ColumnNode[x+1+i][y+j].weight = (maze->ColumnNode[x+1+i][y+j].existence == WALL) 
 707              		.loc 1 112 46 view .LVU228
 708 00a2 012B     		cmp	r3, #1
 709 00a4 B2D0     		beq	.L58
 112:C:/Users/leopi/Documents/vs/S-Reo/MazeLibrary\MazeLib.c ****             maze->ColumnNode[x+1+i][y+j].weight = (maze->ColumnNode[x+1+i][y+j].existence == WALL) 
 710              		.loc 1 112 46 view .LVU229
 711 00a6 0027     		movs	r7, #0
 712 00a8 B2E7     		b	.L42
 713              	.L54:
 113:C:/Users/leopi/Documents/vs/S-Reo/MazeLibrary\MazeLib.c ****             maze->RawNode[x+i][y+j].weight = (maze->RawNode[x+i][y+j].existence == WALL) ? MAX_WEIG
 714              		.loc 1 113 49 view .LVU230
 715 00aa 40F6FF77 		movw	r7, #4095
 716 00ae C3E7     		b	.L43
 717              	.L55:
 114:C:/Users/leopi/Documents/vs/S-Reo/MazeLibrary\MazeLib.c ****             maze->ColumnNode[x+i][y+j].weight = (maze->ColumnNode[x+i][y+j].existence == WALL) ? MA
 718              		.loc 1 114 44 view .LVU231
 719 00b0 40F6FF77 		movw	r7, #4095
 720 00b4 D0E7     		b	.L44
 721              	.L56:
 115:C:/Users/leopi/Documents/vs/S-Reo/MazeLibrary\MazeLib.c ****         }
ARM GAS  C:\Users\leopi\AppData\Local\Temp\ccilUBL0.s 			page 26


 722              		.loc 1 115 47 view .LVU232
 723 00b6 40F6FF77 		movw	r7, #4095
 724 00ba DDE7     		b	.L45
 725              	.L57:
 115:C:/Users/leopi/Documents/vs/S-Reo/MazeLibrary\MazeLib.c ****         }
 726              		.loc 1 115 47 view .LVU233
 727              	.LBE17:
 102:C:/Users/leopi/Documents/vs/S-Reo/MazeLibrary\MazeLib.c ****     {
 728              		.loc 1 102 38 is_stmt 1 discriminator 2 view .LVU234
 102:C:/Users/leopi/Documents/vs/S-Reo/MazeLibrary\MazeLib.c ****     {
 729              		.loc 1 102 39 is_stmt 0 discriminator 2 view .LVU235
 730 00bc 0132     		adds	r2, r2, #1
 731              	.LVL50:
 732              	.L41:
 102:C:/Users/leopi/Documents/vs/S-Reo/MazeLibrary\MazeLib.c ****     {
 733              		.loc 1 102 18 is_stmt 1 discriminator 1 view .LVU236
 102:C:/Users/leopi/Documents/vs/S-Reo/MazeLibrary\MazeLib.c ****     {
 734              		.loc 1 102 33 is_stmt 0 discriminator 1 view .LVU237
 735 00be 3378     		ldrb	r3, [r6]	@ zero_extendqisi2
 102:C:/Users/leopi/Documents/vs/S-Reo/MazeLibrary\MazeLib.c ****     {
 736              		.loc 1 102 5 discriminator 1 view .LVU238
 737 00c0 9342     		cmp	r3, r2
 738 00c2 02DD     		ble	.L59
 739              	.LBB18:
 104:C:/Users/leopi/Documents/vs/S-Reo/MazeLibrary\MazeLib.c ****         {
 740              		.loc 1 104 17 view .LVU239
 741 00c4 4FF0000E 		mov	lr, #0
 742 00c8 DFE7     		b	.L47
 743              	.L59:
 744              	.LBE18:
 745              	.LBE16:
 118:C:/Users/leopi/Documents/vs/S-Reo/MazeLibrary\MazeLib.c **** 
 746              		.loc 1 118 1 view .LVU240
 747 00ca F0BD     		pop	{r4, r5, r6, r7, pc}
 118:C:/Users/leopi/Documents/vs/S-Reo/MazeLibrary\MazeLib.c **** 
 748              		.loc 1 118 1 view .LVU241
 749              		.cfi_endproc
 750              	.LFE5:
 752              		.section	.text.updateAllNodeWeight,"ax",%progbits
 753              		.align	1
 754              		.global	updateAllNodeWeight
 755              		.syntax unified
 756              		.thumb
 757              		.thumb_func
 759              	updateAllNodeWeight:
 760              	.LVL51:
 761              	.LFB6:
 125:C:/Users/leopi/Documents/vs/S-Reo/MazeLibrary\MazeLib.c **** 	//å…¨ä½“ã«154/20ms = 7.7ms
 762              		.loc 1 125 1 is_stmt 1 view -0
 763              		.cfi_startproc
 764              		@ args = 0, pretend = 0, frame = 0
 765              		@ frame_needed = 0, uses_anonymous_args = 0
 125:C:/Users/leopi/Documents/vs/S-Reo/MazeLibrary\MazeLib.c **** 	//å…¨ä½“ã«154/20ms = 7.7ms
 766              		.loc 1 125 1 is_stmt 0 view .LVU243
 767 0000 F8B5     		push	{r3, r4, r5, r6, r7, lr}
 768              	.LCFI3:
 769              		.cfi_def_cfa_offset 24
ARM GAS  C:\Users\leopi\AppData\Local\Temp\ccilUBL0.s 			page 27


 770              		.cfi_offset 3, -24
 771              		.cfi_offset 4, -20
 772              		.cfi_offset 5, -16
 773              		.cfi_offset 6, -12
 774              		.cfi_offset 7, -8
 775              		.cfi_offset 14, -4
 776 0002 0446     		mov	r4, r0
 777 0004 0E46     		mov	r6, r1
 778 0006 1746     		mov	r7, r2
 779 0008 1D46     		mov	r5, r3
 129:C:/Users/leopi/Documents/vs/S-Reo/MazeLibrary\MazeLib.c **** 
 780              		.loc 1 129 5 is_stmt 1 view .LVU244
 781 000a FFF7FEFF 		bl	initWeight
 782              	.LVL52:
 131:C:/Users/leopi/Documents/vs/S-Reo/MazeLibrary\MazeLib.c **** 
 783              		.loc 1 131 5 view .LVU245
 784 000e 3A46     		mov	r2, r7
 785 0010 3146     		mov	r1, r6
 786 0012 2046     		mov	r0, r4
 787 0014 FFF7FEFF 		bl	initTargetAreaWeight
 788              	.LVL53:
 133:C:/Users/leopi/Documents/vs/S-Reo/MazeLibrary\MazeLib.c ****     _Bool change_flag;
 789              		.loc 1 133 5 view .LVU246
 134:C:/Users/leopi/Documents/vs/S-Reo/MazeLibrary\MazeLib.c ****     int skip_raw=0, skip_column=0;
 790              		.loc 1 134 5 view .LVU247
 135:C:/Users/leopi/Documents/vs/S-Reo/MazeLibrary\MazeLib.c **** 
 791              		.loc 1 135 5 view .LVU248
 135:C:/Users/leopi/Documents/vs/S-Reo/MazeLibrary\MazeLib.c **** 
 792              		.loc 1 135 5 is_stmt 0 view .LVU249
 793 0018 FDE1     		b	.L79
 794              	.LVL54:
 795              	.L88:
 159:C:/Users/leopi/Documents/vs/S-Reo/MazeLibrary\MazeLib.c **** 						change_flag = true;		//å€¤ãŒæ›´æ–°ã•ã‚ŒãŸã“ã¨ã‚’ç¤ºã™
 796              		.loc 1 159 7 is_stmt 1 view .LVU250
 159:C:/Users/leopi/Documents/vs/S-Reo/MazeLibrary\MazeLib.c **** 						change_flag = true;		//å€¤ãŒæ›´æ–°ã•ã‚ŒãŸã“ã¨ã‚’ç¤ºã™
 797              		.loc 1 159 71 is_stmt 0 view .LVU251
 798 001a 0EF1030E 		add	lr, lr, #3
 159:C:/Users/leopi/Documents/vs/S-Reo/MazeLibrary\MazeLib.c **** 						change_flag = true;		//å€¤ãŒæ›´æ–°ã•ã‚ŒãŸã“ã¨ã‚’ç¤ºã™
 799              		.loc 1 159 39 view .LVU252
 800 001e 02EB4C1C 		add	ip, r2, ip, lsl #5
 801 0022 0CF5846C 		add	ip, ip, #1056
 802 0026 04EBCC0C 		add	ip, r4, ip, lsl #3
 803 002a ACF802E0 		strh	lr, [ip, #2]	@ movhi
 160:C:/Users/leopi/Documents/vs/S-Reo/MazeLibrary\MazeLib.c **** 					}
 804              		.loc 1 160 7 is_stmt 1 view .LVU253
 805              	.LVL55:
 160:C:/Users/leopi/Documents/vs/S-Reo/MazeLibrary\MazeLib.c **** 					}
 806              		.loc 1 160 19 is_stmt 0 view .LVU254
 807 002e 0120     		movs	r0, #1
 808 0030 81E0     		b	.L63
 809              	.LVL56:
 810              	.L64:
 173:C:/Users/leopi/Documents/vs/S-Reo/MazeLibrary\MazeLib.c **** 				{
 811              		.loc 1 173 5 is_stmt 1 view .LVU255
 173:C:/Users/leopi/Documents/vs/S-Reo/MazeLibrary\MazeLib.c **** 				{
 812              		.loc 1 173 7 is_stmt 0 view .LVU256
 813 0032 1E2A     		cmp	r2, #30
ARM GAS  C:\Users\leopi\AppData\Local\Temp\ccilUBL0.s 			page 28


 814 0034 2CDC     		bgt	.L65
 176:C:/Users/leopi/Documents/vs/S-Reo/MazeLibrary\MazeLib.c **** 					{
 815              		.loc 1 176 6 is_stmt 1 view .LVU257
 178:C:/Users/leopi/Documents/vs/S-Reo/MazeLibrary\MazeLib.c **** 						{
 816              		.loc 1 178 7 view .LVU258
 178:C:/Users/leopi/Documents/vs/S-Reo/MazeLibrary\MazeLib.c **** 						{
 817              		.loc 1 178 31 is_stmt 0 view .LVU259
 818 0036 02F1010C 		add	ip, r2, #1
 178:C:/Users/leopi/Documents/vs/S-Reo/MazeLibrary\MazeLib.c **** 						{
 819              		.loc 1 178 34 view .LVU260
 820 003a 03EB4311 		add	r1, r3, r3, lsl #5
 821 003e 6144     		add	r1, r1, ip
 822 0040 14F83110 		ldrb	r1, [r4, r1, lsl #3]	@ zero_extendqisi2
 178:C:/Users/leopi/Documents/vs/S-Reo/MazeLibrary\MazeLib.c **** 						{
 823              		.loc 1 178 9 view .LVU261
 824 0044 2942     		tst	r1, r5
 825 0046 0AD1     		bne	.L66
 178:C:/Users/leopi/Documents/vs/S-Reo/MazeLibrary\MazeLib.c **** 						{
 826              		.loc 1 178 89 discriminator 1 view .LVU262
 827 0048 03EB4311 		add	r1, r3, r3, lsl #5
 828 004c 6144     		add	r1, r1, ip
 829 004e 04EBC101 		add	r1, r4, r1, lsl #3
 830 0052 4E88     		ldrh	r6, [r1, #2]
 178:C:/Users/leopi/Documents/vs/S-Reo/MazeLibrary\MazeLib.c **** 						{
 831              		.loc 1 178 64 discriminator 1 view .LVU263
 832 0054 40F6FF71 		movw	r1, #4095
 833 0058 8E42     		cmp	r6, r1
 834 005a 00F09880 		beq	.L83
 835              	.LVL57:
 836              	.L66:
 185:C:/Users/leopi/Documents/vs/S-Reo/MazeLibrary\MazeLib.c **** 					{
 837              		.loc 1 185 6 is_stmt 1 view .LVU264
 185:C:/Users/leopi/Documents/vs/S-Reo/MazeLibrary\MazeLib.c **** 					{
 838              		.loc 1 185 8 is_stmt 0 view .LVU265
 839 005e 002B     		cmp	r3, #0
 840 0060 16DD     		ble	.L65
 187:C:/Users/leopi/Documents/vs/S-Reo/MazeLibrary\MazeLib.c **** 						{
 841              		.loc 1 187 7 is_stmt 1 view .LVU266
 187:C:/Users/leopi/Documents/vs/S-Reo/MazeLibrary\MazeLib.c **** 						{
 842              		.loc 1 187 28 is_stmt 0 view .LVU267
 843 0062 591E     		subs	r1, r3, #1
 187:C:/Users/leopi/Documents/vs/S-Reo/MazeLibrary\MazeLib.c **** 						{
 844              		.loc 1 187 33 view .LVU268
 845 0064 02F1010E 		add	lr, r2, #1
 187:C:/Users/leopi/Documents/vs/S-Reo/MazeLibrary\MazeLib.c **** 						{
 846              		.loc 1 187 36 view .LVU269
 847 0068 01EB411C 		add	ip, r1, r1, lsl #5
 848 006c F444     		add	ip, ip, lr
 849 006e 14F83CC0 		ldrb	ip, [r4, ip, lsl #3]	@ zero_extendqisi2
 187:C:/Users/leopi/Documents/vs/S-Reo/MazeLibrary\MazeLib.c **** 						{
 850              		.loc 1 187 9 view .LVU270
 851 0072 1CEA050F 		tst	ip, r5
 852 0076 0BD1     		bne	.L65
 187:C:/Users/leopi/Documents/vs/S-Reo/MazeLibrary\MazeLib.c **** 						{
 853              		.loc 1 187 93 discriminator 1 view .LVU271
 854 0078 01EB411C 		add	ip, r1, r1, lsl #5
 855 007c F444     		add	ip, ip, lr
ARM GAS  C:\Users\leopi\AppData\Local\Temp\ccilUBL0.s 			page 29


 856 007e 04EBCC0C 		add	ip, r4, ip, lsl #3
 857 0082 BCF802C0 		ldrh	ip, [ip, #2]
 187:C:/Users/leopi/Documents/vs/S-Reo/MazeLibrary\MazeLib.c **** 						{
 858              		.loc 1 187 66 discriminator 1 view .LVU272
 859 0086 40F6FF76 		movw	r6, #4095
 860 008a B445     		cmp	ip, r6
 861 008c 00F09080 		beq	.L84
 862              	.LVL58:
 863              	.L65:
 196:C:/Users/leopi/Documents/vs/S-Reo/MazeLibrary\MazeLib.c **** 				{
 864              		.loc 1 196 5 is_stmt 1 view .LVU273
 196:C:/Users/leopi/Documents/vs/S-Reo/MazeLibrary\MazeLib.c **** 				{
 865              		.loc 1 196 7 is_stmt 0 view .LVU274
 866 0090 002A     		cmp	r2, #0
 867 0092 28DD     		ble	.L62
 198:C:/Users/leopi/Documents/vs/S-Reo/MazeLibrary\MazeLib.c **** 					{
 868              		.loc 1 198 6 is_stmt 1 view .LVU275
 201:C:/Users/leopi/Documents/vs/S-Reo/MazeLibrary\MazeLib.c **** 						{
 869              		.loc 1 201 7 view .LVU276
 201:C:/Users/leopi/Documents/vs/S-Reo/MazeLibrary\MazeLib.c **** 						{
 870              		.loc 1 201 32 is_stmt 0 view .LVU277
 871 0094 03EB4311 		add	r1, r3, r3, lsl #5
 872 0098 1144     		add	r1, r1, r2
 873 009a 14F83110 		ldrb	r1, [r4, r1, lsl #3]	@ zero_extendqisi2
 201:C:/Users/leopi/Documents/vs/S-Reo/MazeLibrary\MazeLib.c **** 						{
 874              		.loc 1 201 9 view .LVU278
 875 009e 2942     		tst	r1, r5
 876 00a0 0AD1     		bne	.L67
 201:C:/Users/leopi/Documents/vs/S-Reo/MazeLibrary\MazeLib.c **** 						{
 877              		.loc 1 201 85 discriminator 1 view .LVU279
 878 00a2 03EB4311 		add	r1, r3, r3, lsl #5
 879 00a6 1144     		add	r1, r1, r2
 880 00a8 04EBC101 		add	r1, r4, r1, lsl #3
 881 00ac 4E88     		ldrh	r6, [r1, #2]
 201:C:/Users/leopi/Documents/vs/S-Reo/MazeLibrary\MazeLib.c **** 						{
 882              		.loc 1 201 62 discriminator 1 view .LVU280
 883 00ae 40F6FF71 		movw	r1, #4095
 884 00b2 8E42     		cmp	r6, r1
 885 00b4 00F08C80 		beq	.L85
 886              	.LVL59:
 887              	.L67:
 207:C:/Users/leopi/Documents/vs/S-Reo/MazeLibrary\MazeLib.c **** 						//å—è¥¿
 888              		.loc 1 207 6 is_stmt 1 view .LVU281
 207:C:/Users/leopi/Documents/vs/S-Reo/MazeLibrary\MazeLib.c **** 						//å—è¥¿
 889              		.loc 1 207 8 is_stmt 0 view .LVU282
 890 00b8 002B     		cmp	r3, #0
 891 00ba 14DD     		ble	.L62
 209:C:/Users/leopi/Documents/vs/S-Reo/MazeLibrary\MazeLib.c **** 						{
 892              		.loc 1 209 7 is_stmt 1 view .LVU283
 209:C:/Users/leopi/Documents/vs/S-Reo/MazeLibrary\MazeLib.c **** 						{
 893              		.loc 1 209 28 is_stmt 0 view .LVU284
 894 00bc 591E     		subs	r1, r3, #1
 209:C:/Users/leopi/Documents/vs/S-Reo/MazeLibrary\MazeLib.c **** 						{
 895              		.loc 1 209 34 view .LVU285
 896 00be 01EB411C 		add	ip, r1, r1, lsl #5
 897 00c2 9444     		add	ip, ip, r2
 898 00c4 14F83CC0 		ldrb	ip, [r4, ip, lsl #3]	@ zero_extendqisi2
ARM GAS  C:\Users\leopi\AppData\Local\Temp\ccilUBL0.s 			page 30


 209:C:/Users/leopi/Documents/vs/S-Reo/MazeLibrary\MazeLib.c **** 						{
 899              		.loc 1 209 9 view .LVU286
 900 00c8 1CEA050F 		tst	ip, r5
 901 00cc 0BD1     		bne	.L62
 209:C:/Users/leopi/Documents/vs/S-Reo/MazeLibrary\MazeLib.c **** 						{
 902              		.loc 1 209 89 discriminator 1 view .LVU287
 903 00ce 01EB411C 		add	ip, r1, r1, lsl #5
 904 00d2 9444     		add	ip, ip, r2
 905 00d4 04EBCC0C 		add	ip, r4, ip, lsl #3
 906 00d8 BCF802C0 		ldrh	ip, [ip, #2]
 209:C:/Users/leopi/Documents/vs/S-Reo/MazeLibrary\MazeLib.c **** 						{
 907              		.loc 1 209 64 discriminator 1 view .LVU288
 908 00dc 40F6FF76 		movw	r6, #4095
 909 00e0 B445     		cmp	ip, r6
 910 00e2 00F08580 		beq	.L86
 911              	.LVL60:
 912              	.L62:
 144:C:/Users/leopi/Documents/vs/S-Reo/MazeLibrary\MazeLib.c **** 			{
 913              		.loc 1 144 41 is_stmt 1 discriminator 2 view .LVU289
 144:C:/Users/leopi/Documents/vs/S-Reo/MazeLibrary\MazeLib.c **** 			{
 914              		.loc 1 144 42 is_stmt 0 discriminator 2 view .LVU290
 915 00e6 0132     		adds	r2, r2, #1
 916              	.LVL61:
 917              	.L69:
 144:C:/Users/leopi/Documents/vs/S-Reo/MazeLibrary\MazeLib.c **** 			{
 918              		.loc 1 144 16 is_stmt 1 discriminator 1 view .LVU291
 144:C:/Users/leopi/Documents/vs/S-Reo/MazeLibrary\MazeLib.c **** 			{
 919              		.loc 1 144 4 is_stmt 0 discriminator 1 view .LVU292
 920 00e8 1F2A     		cmp	r2, #31
 921 00ea 00F39180 		bgt	.L87
 146:C:/Users/leopi/Documents/vs/S-Reo/MazeLibrary\MazeLib.c **** 				{
 922              		.loc 1 146 17 is_stmt 1 view .LVU293
 146:C:/Users/leopi/Documents/vs/S-Reo/MazeLibrary\MazeLib.c **** 				{
 923              		.loc 1 146 42 is_stmt 0 view .LVU294
 924 00ee 02EB4311 		add	r1, r2, r3, lsl #5
 925 00f2 01F58461 		add	r1, r1, #1056
 926 00f6 04EBC101 		add	r1, r4, r1, lsl #3
 927 00fa B1F802E0 		ldrh	lr, [r1, #2]
 146:C:/Users/leopi/Documents/vs/S-Reo/MazeLibrary\MazeLib.c **** 				{
 928              		.loc 1 146 19 view .LVU295
 929 00fe 40F6FF71 		movw	r1, #4095
 930 0102 8E45     		cmp	lr, r1
 931 0104 EFD0     		beq	.L62
 154:C:/Users/leopi/Documents/vs/S-Reo/MazeLibrary\MazeLib.c **** 				{
 932              		.loc 1 154 5 is_stmt 1 view .LVU296
 154:C:/Users/leopi/Documents/vs/S-Reo/MazeLibrary\MazeLib.c **** 				{
 933              		.loc 1 154 7 is_stmt 0 view .LVU297
 934 0106 1E2B     		cmp	r3, #30
 935 0108 15DC     		bgt	.L63
 157:C:/Users/leopi/Documents/vs/S-Reo/MazeLibrary\MazeLib.c **** 					{
 936              		.loc 1 157 6 is_stmt 1 view .LVU298
 157:C:/Users/leopi/Documents/vs/S-Reo/MazeLibrary\MazeLib.c **** 					{
 937              		.loc 1 157 30 is_stmt 0 view .LVU299
 938 010a 03F1010C 		add	ip, r3, #1
 157:C:/Users/leopi/Documents/vs/S-Reo/MazeLibrary\MazeLib.c **** 					{
 939              		.loc 1 157 36 view .LVU300
 940 010e 02EB4C11 		add	r1, r2, ip, lsl #5
ARM GAS  C:\Users\leopi\AppData\Local\Temp\ccilUBL0.s 			page 31


 941 0112 01F58461 		add	r1, r1, #1056
 942 0116 14F83110 		ldrb	r1, [r4, r1, lsl #3]	@ zero_extendqisi2
 157:C:/Users/leopi/Documents/vs/S-Reo/MazeLibrary\MazeLib.c **** 					{
 943              		.loc 1 157 8 view .LVU301
 944 011a 2942     		tst	r1, r5
 945 011c 0BD1     		bne	.L63
 157:C:/Users/leopi/Documents/vs/S-Reo/MazeLibrary\MazeLib.c **** 					{
 946              		.loc 1 157 94 discriminator 1 view .LVU302
 947 011e 02EB4C11 		add	r1, r2, ip, lsl #5
 948 0122 01F58461 		add	r1, r1, #1056
 949 0126 04EBC101 		add	r1, r4, r1, lsl #3
 950 012a 4E88     		ldrh	r6, [r1, #2]
 157:C:/Users/leopi/Documents/vs/S-Reo/MazeLibrary\MazeLib.c **** 					{
 951              		.loc 1 157 66 discriminator 1 view .LVU303
 952 012c 40F6FF71 		movw	r1, #4095
 953 0130 8E42     		cmp	r6, r1
 954 0132 3FF472AF 		beq	.L88
 955              	.LVL62:
 956              	.L63:
 164:C:/Users/leopi/Documents/vs/S-Reo/MazeLibrary\MazeLib.c **** 				{
 957              		.loc 1 164 5 is_stmt 1 view .LVU304
 164:C:/Users/leopi/Documents/vs/S-Reo/MazeLibrary\MazeLib.c **** 				{
 958              		.loc 1 164 7 is_stmt 0 view .LVU305
 959 0136 012B     		cmp	r3, #1
 960 0138 7FF77BAF 		ble	.L64
 166:C:/Users/leopi/Documents/vs/S-Reo/MazeLibrary\MazeLib.c **** 					{
 961              		.loc 1 166 6 is_stmt 1 view .LVU306
 166:C:/Users/leopi/Documents/vs/S-Reo/MazeLibrary\MazeLib.c **** 					{
 962              		.loc 1 166 30 is_stmt 0 view .LVU307
 963 013c 03F1FF3C 		add	ip, r3, #-1
 166:C:/Users/leopi/Documents/vs/S-Reo/MazeLibrary\MazeLib.c **** 					{
 964              		.loc 1 166 36 view .LVU308
 965 0140 02EB4C11 		add	r1, r2, ip, lsl #5
 966 0144 01F58461 		add	r1, r1, #1056
 967 0148 14F83110 		ldrb	r1, [r4, r1, lsl #3]	@ zero_extendqisi2
 166:C:/Users/leopi/Documents/vs/S-Reo/MazeLibrary\MazeLib.c **** 					{
 968              		.loc 1 166 8 view .LVU309
 969 014c 2942     		tst	r1, r5
 970 014e 7FF470AF 		bne	.L64
 166:C:/Users/leopi/Documents/vs/S-Reo/MazeLibrary\MazeLib.c **** 					{
 971              		.loc 1 166 94 discriminator 1 view .LVU310
 972 0152 02EB4C11 		add	r1, r2, ip, lsl #5
 973 0156 01F58461 		add	r1, r1, #1056
 974 015a 04EBC101 		add	r1, r4, r1, lsl #3
 975 015e 4E88     		ldrh	r6, [r1, #2]
 166:C:/Users/leopi/Documents/vs/S-Reo/MazeLibrary\MazeLib.c **** 					{
 976              		.loc 1 166 66 discriminator 1 view .LVU311
 977 0160 40F6FF71 		movw	r1, #4095
 978 0164 8E42     		cmp	r6, r1
 979 0166 7FF464AF 		bne	.L64
 168:C:/Users/leopi/Documents/vs/S-Reo/MazeLibrary\MazeLib.c **** 						change_flag = true;		//å€¤ãŒæ›´æ–°ã•ã‚ŒãŸã“ã¨ã‚’ç¤ºã™
 980              		.loc 1 168 7 is_stmt 1 view .LVU312
 168:C:/Users/leopi/Documents/vs/S-Reo/MazeLibrary\MazeLib.c **** 						change_flag = true;		//å€¤ãŒæ›´æ–°ã•ã‚ŒãŸã“ã¨ã‚’ç¤ºã™
 981              		.loc 1 168 63 is_stmt 0 view .LVU313
 982 016a 02EB4311 		add	r1, r2, r3, lsl #5
 983 016e 01F58461 		add	r1, r1, #1056
 984 0172 04EBC101 		add	r1, r4, r1, lsl #3
ARM GAS  C:\Users\leopi\AppData\Local\Temp\ccilUBL0.s 			page 32


 985 0176 4988     		ldrh	r1, [r1, #2]
 168:C:/Users/leopi/Documents/vs/S-Reo/MazeLibrary\MazeLib.c **** 						change_flag = true;		//å€¤ãŒæ›´æ–°ã•ã‚ŒãŸã“ã¨ã‚’ç¤ºã™
 986              		.loc 1 168 71 view .LVU314
 987 0178 0331     		adds	r1, r1, #3
 168:C:/Users/leopi/Documents/vs/S-Reo/MazeLibrary\MazeLib.c **** 						change_flag = true;		//å€¤ãŒæ›´æ–°ã•ã‚ŒãŸã“ã¨ã‚’ç¤ºã™
 988              		.loc 1 168 39 view .LVU315
 989 017a 02EB4C1C 		add	ip, r2, ip, lsl #5
 990 017e 0CF5846C 		add	ip, ip, #1056
 991 0182 04EBCC0C 		add	ip, r4, ip, lsl #3
 992 0186 ACF80210 		strh	r1, [ip, #2]	@ movhi
 169:C:/Users/leopi/Documents/vs/S-Reo/MazeLibrary\MazeLib.c **** 					}
 993              		.loc 1 169 7 is_stmt 1 view .LVU316
 994              	.LVL63:
 169:C:/Users/leopi/Documents/vs/S-Reo/MazeLibrary\MazeLib.c **** 					}
 995              		.loc 1 169 19 is_stmt 0 view .LVU317
 996 018a 0120     		movs	r0, #1
 997 018c 51E7     		b	.L64
 998              	.LVL64:
 999              	.L83:
 180:C:/Users/leopi/Documents/vs/S-Reo/MazeLibrary\MazeLib.c **** 							change_flag = true;		//å€¤ãŒæ›´æ–°ã•ã‚ŒãŸã“ã¨ã‚’ç¤ºã™
 1000              		.loc 1 180 8 is_stmt 1 view .LVU318
 180:C:/Users/leopi/Documents/vs/S-Reo/MazeLibrary\MazeLib.c **** 							change_flag = true;		//å€¤ãŒæ›´æ–°ã•ã‚ŒãŸã“ã¨ã‚’ç¤ºã™
 1001              		.loc 1 180 61 is_stmt 0 view .LVU319
 1002 018e 02EB4311 		add	r1, r2, r3, lsl #5
 1003 0192 01F58461 		add	r1, r1, #1056
 1004 0196 04EBC101 		add	r1, r4, r1, lsl #3
 1005 019a 4888     		ldrh	r0, [r1, #2]
 1006              	.LVL65:
 180:C:/Users/leopi/Documents/vs/S-Reo/MazeLibrary\MazeLib.c **** 							change_flag = true;		//å€¤ãŒæ›´æ–°ã•ã‚ŒãŸã“ã¨ã‚’ç¤ºã™
 1007              		.loc 1 180 69 view .LVU320
 1008 019c 0130     		adds	r0, r0, #1
 180:C:/Users/leopi/Documents/vs/S-Reo/MazeLibrary\MazeLib.c **** 							change_flag = true;		//å€¤ãŒæ›´æ–°ã•ã‚ŒãŸã“ã¨ã‚’ç¤ºã™
 1009              		.loc 1 180 37 view .LVU321
 1010 019e 03EB4311 		add	r1, r3, r3, lsl #5
 1011 01a2 8C44     		add	ip, ip, r1
 1012 01a4 04EBCC0C 		add	ip, r4, ip, lsl #3
 1013 01a8 ACF80200 		strh	r0, [ip, #2]	@ movhi
 181:C:/Users/leopi/Documents/vs/S-Reo/MazeLibrary\MazeLib.c **** 						}
 1014              		.loc 1 181 8 is_stmt 1 view .LVU322
 1015              	.LVL66:
 181:C:/Users/leopi/Documents/vs/S-Reo/MazeLibrary\MazeLib.c **** 						}
 1016              		.loc 1 181 20 is_stmt 0 view .LVU323
 1017 01ac 0120     		movs	r0, #1
 1018 01ae 56E7     		b	.L66
 1019              	.LVL67:
 1020              	.L84:
 189:C:/Users/leopi/Documents/vs/S-Reo/MazeLibrary\MazeLib.c **** 							change_flag = true;		//å€¤ãŒæ›´æ–°ã•ã‚ŒãŸã“ã¨ã‚’ç¤ºã™
 1021              		.loc 1 189 8 is_stmt 1 view .LVU324
 189:C:/Users/leopi/Documents/vs/S-Reo/MazeLibrary\MazeLib.c **** 							change_flag = true;		//å€¤ãŒæ›´æ–°ã•ã‚ŒãŸã“ã¨ã‚’ç¤ºã™
 1022              		.loc 1 189 63 is_stmt 0 view .LVU325
 1023 01b0 02EB4310 		add	r0, r2, r3, lsl #5
 1024              	.LVL68:
 189:C:/Users/leopi/Documents/vs/S-Reo/MazeLibrary\MazeLib.c **** 							change_flag = true;		//å€¤ãŒæ›´æ–°ã•ã‚ŒãŸã“ã¨ã‚’ç¤ºã™
 1025              		.loc 1 189 63 view .LVU326
 1026 01b4 00F58460 		add	r0, r0, #1056
 1027 01b8 04EBC000 		add	r0, r4, r0, lsl #3
 1028 01bc 4088     		ldrh	r0, [r0, #2]
ARM GAS  C:\Users\leopi\AppData\Local\Temp\ccilUBL0.s 			page 33


 189:C:/Users/leopi/Documents/vs/S-Reo/MazeLibrary\MazeLib.c **** 							change_flag = true;		//å€¤ãŒæ›´æ–°ã•ã‚ŒãŸã“ã¨ã‚’ç¤ºã™
 1029              		.loc 1 189 71 view .LVU327
 1030 01be 0130     		adds	r0, r0, #1
 189:C:/Users/leopi/Documents/vs/S-Reo/MazeLibrary\MazeLib.c **** 							change_flag = true;		//å€¤ãŒæ›´æ–°ã•ã‚ŒãŸã“ã¨ã‚’ç¤ºã™
 1031              		.loc 1 189 39 view .LVU328
 1032 01c0 01EB4111 		add	r1, r1, r1, lsl #5
 1033 01c4 7144     		add	r1, r1, lr
 1034 01c6 04EBC101 		add	r1, r4, r1, lsl #3
 1035 01ca 4880     		strh	r0, [r1, #2]	@ movhi
 190:C:/Users/leopi/Documents/vs/S-Reo/MazeLibrary\MazeLib.c **** 						}
 1036              		.loc 1 190 8 is_stmt 1 view .LVU329
 1037              	.LVL69:
 190:C:/Users/leopi/Documents/vs/S-Reo/MazeLibrary\MazeLib.c **** 						}
 1038              		.loc 1 190 20 is_stmt 0 view .LVU330
 1039 01cc 0120     		movs	r0, #1
 1040 01ce 5FE7     		b	.L65
 1041              	.LVL70:
 1042              	.L85:
 203:C:/Users/leopi/Documents/vs/S-Reo/MazeLibrary\MazeLib.c **** 							change_flag = true;		//å€¤ãŒæ›´æ–°ã•ã‚ŒãŸã“ã¨ã‚’ç¤ºã™
 1043              		.loc 1 203 8 is_stmt 1 view .LVU331
 203:C:/Users/leopi/Documents/vs/S-Reo/MazeLibrary\MazeLib.c **** 							change_flag = true;		//å€¤ãŒæ›´æ–°ã•ã‚ŒãŸã“ã¨ã‚’ç¤ºã™
 1044              		.loc 1 203 59 is_stmt 0 view .LVU332
 1045 01d0 02EB4311 		add	r1, r2, r3, lsl #5
 1046 01d4 01F58461 		add	r1, r1, #1056
 1047 01d8 04EBC101 		add	r1, r4, r1, lsl #3
 1048 01dc 4888     		ldrh	r0, [r1, #2]
 1049              	.LVL71:
 203:C:/Users/leopi/Documents/vs/S-Reo/MazeLibrary\MazeLib.c **** 							change_flag = true;		//å€¤ãŒæ›´æ–°ã•ã‚ŒãŸã“ã¨ã‚’ç¤ºã™
 1050              		.loc 1 203 67 view .LVU333
 1051 01de 0130     		adds	r0, r0, #1
 203:C:/Users/leopi/Documents/vs/S-Reo/MazeLibrary\MazeLib.c **** 							change_flag = true;		//å€¤ãŒæ›´æ–°ã•ã‚ŒãŸã“ã¨ã‚’ç¤ºã™
 1052              		.loc 1 203 35 view .LVU334
 1053 01e0 03EB4311 		add	r1, r3, r3, lsl #5
 1054 01e4 1144     		add	r1, r1, r2
 1055 01e6 04EBC101 		add	r1, r4, r1, lsl #3
 1056 01ea 4880     		strh	r0, [r1, #2]	@ movhi
 204:C:/Users/leopi/Documents/vs/S-Reo/MazeLibrary\MazeLib.c **** 						}
 1057              		.loc 1 204 8 is_stmt 1 view .LVU335
 1058              	.LVL72:
 204:C:/Users/leopi/Documents/vs/S-Reo/MazeLibrary\MazeLib.c **** 						}
 1059              		.loc 1 204 20 is_stmt 0 view .LVU336
 1060 01ec 0120     		movs	r0, #1
 1061 01ee 63E7     		b	.L67
 1062              	.LVL73:
 1063              	.L86:
 211:C:/Users/leopi/Documents/vs/S-Reo/MazeLibrary\MazeLib.c **** 								change_flag = true;		//å€¤ãŒæ›´æ–°ã•ã‚ŒãŸã“ã¨ã‚’ç¤ºã™
 1064              		.loc 1 211 9 is_stmt 1 view .LVU337
 211:C:/Users/leopi/Documents/vs/S-Reo/MazeLibrary\MazeLib.c **** 								change_flag = true;		//å€¤ãŒæ›´æ–°ã•ã‚ŒãŸã“ã¨ã‚’ç¤ºã™
 1065              		.loc 1 211 62 is_stmt 0 view .LVU338
 1066 01f0 02EB4310 		add	r0, r2, r3, lsl #5
 1067              	.LVL74:
 211:C:/Users/leopi/Documents/vs/S-Reo/MazeLibrary\MazeLib.c **** 								change_flag = true;		//å€¤ãŒæ›´æ–°ã•ã‚ŒãŸã“ã¨ã‚’ç¤ºã™
 1068              		.loc 1 211 62 view .LVU339
 1069 01f4 00F58460 		add	r0, r0, #1056
 1070 01f8 04EBC000 		add	r0, r4, r0, lsl #3
 1071 01fc 4088     		ldrh	r0, [r0, #2]
 211:C:/Users/leopi/Documents/vs/S-Reo/MazeLibrary\MazeLib.c **** 								change_flag = true;		//å€¤ãŒæ›´æ–°ã•ã‚ŒãŸã“ã¨ã‚’ç¤ºã™
ARM GAS  C:\Users\leopi\AppData\Local\Temp\ccilUBL0.s 			page 34


 1072              		.loc 1 211 70 view .LVU340
 1073 01fe 0130     		adds	r0, r0, #1
 211:C:/Users/leopi/Documents/vs/S-Reo/MazeLibrary\MazeLib.c **** 								change_flag = true;		//å€¤ãŒæ›´æ–°ã•ã‚ŒãŸã“ã¨ã‚’ç¤ºã™
 1074              		.loc 1 211 38 view .LVU341
 1075 0200 01EB4111 		add	r1, r1, r1, lsl #5
 1076 0204 1144     		add	r1, r1, r2
 1077 0206 04EBC101 		add	r1, r4, r1, lsl #3
 1078 020a 4880     		strh	r0, [r1, #2]	@ movhi
 212:C:/Users/leopi/Documents/vs/S-Reo/MazeLibrary\MazeLib.c **** 						}
 1079              		.loc 1 212 9 is_stmt 1 view .LVU342
 1080              	.LVL75:
 212:C:/Users/leopi/Documents/vs/S-Reo/MazeLibrary\MazeLib.c **** 						}
 1081              		.loc 1 212 21 is_stmt 0 view .LVU343
 1082 020c 0120     		movs	r0, #1
 1083 020e 6AE7     		b	.L62
 1084              	.LVL76:
 1085              	.L87:
 142:C:/Users/leopi/Documents/vs/S-Reo/MazeLibrary\MazeLib.c **** 		{
 1086              		.loc 1 142 45 is_stmt 1 discriminator 2 view .LVU344
 142:C:/Users/leopi/Documents/vs/S-Reo/MazeLibrary\MazeLib.c **** 		{
 1087              		.loc 1 142 46 is_stmt 0 discriminator 2 view .LVU345
 1088 0210 0133     		adds	r3, r3, #1
 1089              	.LVL77:
 1090              	.L61:
 142:C:/Users/leopi/Documents/vs/S-Reo/MazeLibrary\MazeLib.c **** 		{
 1091              		.loc 1 142 20 is_stmt 1 discriminator 1 view .LVU346
 142:C:/Users/leopi/Documents/vs/S-Reo/MazeLibrary\MazeLib.c **** 		{
 1092              		.loc 1 142 9 is_stmt 0 discriminator 1 view .LVU347
 1093 0212 1F2B     		cmp	r3, #31
 1094 0214 01DC     		bgt	.L89
 144:C:/Users/leopi/Documents/vs/S-Reo/MazeLibrary\MazeLib.c **** 			{
 1095              		.loc 1 144 11 view .LVU348
 1096 0216 0022     		movs	r2, #0
 1097 0218 66E7     		b	.L69
 1098              	.L89:
 220:C:/Users/leopi/Documents/vs/S-Reo/MazeLibrary\MazeLib.c ****  		{
 1099              		.loc 1 220 11 view .LVU349
 1100 021a 0023     		movs	r3, #0
 1101              	.LVL78:
 220:C:/Users/leopi/Documents/vs/S-Reo/MazeLibrary\MazeLib.c ****  		{
 1102              		.loc 1 220 11 view .LVU350
 1103 021c F6E0     		b	.L70
 1104              	.LVL79:
 1105              	.L95:
 238:C:/Users/leopi/Documents/vs/S-Reo/MazeLibrary\MazeLib.c ****  						change_flag = true;		//å€¤ãŒæ›´æ–°ã•ã‚ŒãŸã“ã¨ã‚’ç¤ºã™
 1106              		.loc 1 238 8 is_stmt 1 view .LVU351
 238:C:/Users/leopi/Documents/vs/S-Reo/MazeLibrary\MazeLib.c ****  						change_flag = true;		//å€¤ãŒæ›´æ–°ã•ã‚ŒãŸã“ã¨ã‚’ç¤ºã™
 1107              		.loc 1 238 66 is_stmt 0 view .LVU352
 1108 021e 0CF1030C 		add	ip, ip, #3
 238:C:/Users/leopi/Documents/vs/S-Reo/MazeLibrary\MazeLib.c ****  						change_flag = true;		//å€¤ãŒæ›´æ–°ã•ã‚ŒãŸã“ã¨ã‚’ç¤ºã™
 1109              		.loc 1 238 37 view .LVU353
 1110 0222 03EB4311 		add	r1, r3, r3, lsl #5
 1111 0226 8E44     		add	lr, lr, r1
 1112 0228 04EBCE0E 		add	lr, r4, lr, lsl #3
 1113 022c AEF802C0 		strh	ip, [lr, #2]	@ movhi
 239:C:/Users/leopi/Documents/vs/S-Reo/MazeLibrary\MazeLib.c ****  					}
 1114              		.loc 1 239 8 is_stmt 1 view .LVU354
ARM GAS  C:\Users\leopi\AppData\Local\Temp\ccilUBL0.s 			page 35


 1115              	.LVL80:
 239:C:/Users/leopi/Documents/vs/S-Reo/MazeLibrary\MazeLib.c ****  					}
 1116              		.loc 1 239 20 is_stmt 0 view .LVU355
 1117 0230 0120     		movs	r0, #1
 1118 0232 8EE0     		b	.L72
 1119              	.LVL81:
 1120              	.L96:
 247:C:/Users/leopi/Documents/vs/S-Reo/MazeLibrary\MazeLib.c ****  						change_flag = true;		//å€¤ãŒæ›´æ–°ã•ã‚ŒãŸã“ã¨ã‚’ç¤ºã™
 1121              		.loc 1 247 8 is_stmt 1 view .LVU356
 247:C:/Users/leopi/Documents/vs/S-Reo/MazeLibrary\MazeLib.c ****  						change_flag = true;		//å€¤ãŒæ›´æ–°ã•ã‚ŒãŸã“ã¨ã‚’ç¤ºã™
 1122              		.loc 1 247 58 is_stmt 0 view .LVU357
 1123 0234 03EB4311 		add	r1, r3, r3, lsl #5
 1124 0238 8818     		adds	r0, r1, r2
 1125              	.LVL82:
 247:C:/Users/leopi/Documents/vs/S-Reo/MazeLibrary\MazeLib.c ****  						change_flag = true;		//å€¤ãŒæ›´æ–°ã•ã‚ŒãŸã“ã¨ã‚’ç¤ºã™
 1126              		.loc 1 247 58 view .LVU358
 1127 023a 04EBC000 		add	r0, r4, r0, lsl #3
 1128 023e 4088     		ldrh	r0, [r0, #2]
 247:C:/Users/leopi/Documents/vs/S-Reo/MazeLibrary\MazeLib.c ****  						change_flag = true;		//å€¤ãŒæ›´æ–°ã•ã‚ŒãŸã“ã¨ã‚’ç¤ºã™
 1129              		.loc 1 247 66 view .LVU359
 1130 0240 0330     		adds	r0, r0, #3
 247:C:/Users/leopi/Documents/vs/S-Reo/MazeLibrary\MazeLib.c ****  						change_flag = true;		//å€¤ãŒæ›´æ–°ã•ã‚ŒãŸã“ã¨ã‚’ç¤ºã™
 1131              		.loc 1 247 37 view .LVU360
 1132 0242 6144     		add	r1, r1, ip
 1133 0244 04EBC101 		add	r1, r4, r1, lsl #3
 1134 0248 4880     		strh	r0, [r1, #2]	@ movhi
 248:C:/Users/leopi/Documents/vs/S-Reo/MazeLibrary\MazeLib.c ****  					}
 1135              		.loc 1 248 8 is_stmt 1 view .LVU361
 1136              	.LVL83:
 248:C:/Users/leopi/Documents/vs/S-Reo/MazeLibrary\MazeLib.c ****  					}
 1137              		.loc 1 248 20 is_stmt 0 view .LVU362
 1138 024a 0120     		movs	r0, #1
 1139              	.LVL84:
 1140              	.L73:
 252:C:/Users/leopi/Documents/vs/S-Reo/MazeLibrary\MazeLib.c ****  				{
 1141              		.loc 1 252 6 is_stmt 1 view .LVU363
 252:C:/Users/leopi/Documents/vs/S-Reo/MazeLibrary\MazeLib.c ****  				{
 1142              		.loc 1 252 8 is_stmt 0 view .LVU364
 1143 024c 1E2B     		cmp	r3, #30
 1144 024e 2EDC     		bgt	.L74
 256:C:/Users/leopi/Documents/vs/S-Reo/MazeLibrary\MazeLib.c ****  					{
 1145              		.loc 1 256 7 is_stmt 1 view .LVU365
 258:C:/Users/leopi/Documents/vs/S-Reo/MazeLibrary\MazeLib.c ****  						{
 1146              		.loc 1 258 8 view .LVU366
 258:C:/Users/leopi/Documents/vs/S-Reo/MazeLibrary\MazeLib.c ****  						{
 1147              		.loc 1 258 32 is_stmt 0 view .LVU367
 1148 0250 03F1010C 		add	ip, r3, #1
 258:C:/Users/leopi/Documents/vs/S-Reo/MazeLibrary\MazeLib.c ****  						{
 1149              		.loc 1 258 38 view .LVU368
 1150 0254 02EB4C11 		add	r1, r2, ip, lsl #5
 1151 0258 01F58461 		add	r1, r1, #1056
 1152 025c 14F83110 		ldrb	r1, [r4, r1, lsl #3]	@ zero_extendqisi2
 258:C:/Users/leopi/Documents/vs/S-Reo/MazeLibrary\MazeLib.c ****  						{
 1153              		.loc 1 258 10 view .LVU369
 1154 0260 2942     		tst	r1, r5
 1155 0262 0BD1     		bne	.L75
 258:C:/Users/leopi/Documents/vs/S-Reo/MazeLibrary\MazeLib.c ****  						{
ARM GAS  C:\Users\leopi\AppData\Local\Temp\ccilUBL0.s 			page 36


 1156              		.loc 1 258 96 discriminator 1 view .LVU370
 1157 0264 02EB4C11 		add	r1, r2, ip, lsl #5
 1158 0268 01F58461 		add	r1, r1, #1056
 1159 026c 04EBC101 		add	r1, r4, r1, lsl #3
 1160 0270 4E88     		ldrh	r6, [r1, #2]
 258:C:/Users/leopi/Documents/vs/S-Reo/MazeLibrary\MazeLib.c ****  						{
 1161              		.loc 1 258 68 discriminator 1 view .LVU371
 1162 0272 40F6FF71 		movw	r1, #4095
 1163 0276 8E42     		cmp	r6, r1
 1164 0278 00F08480 		beq	.L90
 1165              	.LVL85:
 1166              	.L75:
 264:C:/Users/leopi/Documents/vs/S-Reo/MazeLibrary\MazeLib.c ****  					{
 1167              		.loc 1 264 7 is_stmt 1 view .LVU372
 264:C:/Users/leopi/Documents/vs/S-Reo/MazeLibrary\MazeLib.c ****  					{
 1168              		.loc 1 264 9 is_stmt 0 view .LVU373
 1169 027c 002A     		cmp	r2, #0
 1170 027e 16DD     		ble	.L74
 267:C:/Users/leopi/Documents/vs/S-Reo/MazeLibrary\MazeLib.c ****  						{
 1171              		.loc 1 267 8 is_stmt 1 view .LVU374
 267:C:/Users/leopi/Documents/vs/S-Reo/MazeLibrary\MazeLib.c ****  						{
 1172              		.loc 1 267 32 is_stmt 0 view .LVU375
 1173 0280 03F1010E 		add	lr, r3, #1
 267:C:/Users/leopi/Documents/vs/S-Reo/MazeLibrary\MazeLib.c ****  						{
 1174              		.loc 1 267 37 view .LVU376
 1175 0284 02F1FF3C 		add	ip, r2, #-1
 267:C:/Users/leopi/Documents/vs/S-Reo/MazeLibrary\MazeLib.c ****  						{
 1176              		.loc 1 267 40 view .LVU377
 1177 0288 0CEB4E11 		add	r1, ip, lr, lsl #5
 1178 028c 01F58461 		add	r1, r1, #1056
 1179 0290 14F83110 		ldrb	r1, [r4, r1, lsl #3]	@ zero_extendqisi2
 267:C:/Users/leopi/Documents/vs/S-Reo/MazeLibrary\MazeLib.c ****  						{
 1180              		.loc 1 267 10 view .LVU378
 1181 0294 2942     		tst	r1, r5
 1182 0296 0AD1     		bne	.L74
 267:C:/Users/leopi/Documents/vs/S-Reo/MazeLibrary\MazeLib.c ****  						{
 1183              		.loc 1 267 100 discriminator 1 view .LVU379
 1184 0298 0CEB4E11 		add	r1, ip, lr, lsl #5
 1185 029c 01F58461 		add	r1, r1, #1056
 1186 02a0 04EBC101 		add	r1, r4, r1, lsl #3
 1187 02a4 4E88     		ldrh	r6, [r1, #2]
 267:C:/Users/leopi/Documents/vs/S-Reo/MazeLibrary\MazeLib.c ****  						{
 1188              		.loc 1 267 70 discriminator 1 view .LVU380
 1189 02a6 40F6FF71 		movw	r1, #4095
 1190 02aa 8E42     		cmp	r6, r1
 1191 02ac 7BD0     		beq	.L91
 1192              	.LVL86:
 1193              	.L74:
 276:C:/Users/leopi/Documents/vs/S-Reo/MazeLibrary\MazeLib.c ****  				{
 1194              		.loc 1 276 6 is_stmt 1 view .LVU381
 276:C:/Users/leopi/Documents/vs/S-Reo/MazeLibrary\MazeLib.c ****  				{
 1195              		.loc 1 276 8 is_stmt 0 view .LVU382
 1196 02ae 002B     		cmp	r3, #0
 1197 02b0 2BDD     		ble	.L71
 279:C:/Users/leopi/Documents/vs/S-Reo/MazeLibrary\MazeLib.c ****  					{
 1198              		.loc 1 279 7 is_stmt 1 view .LVU383
 281:C:/Users/leopi/Documents/vs/S-Reo/MazeLibrary\MazeLib.c ****  						{
ARM GAS  C:\Users\leopi\AppData\Local\Temp\ccilUBL0.s 			page 37


 1199              		.loc 1 281 8 view .LVU384
 281:C:/Users/leopi/Documents/vs/S-Reo/MazeLibrary\MazeLib.c ****  						{
 1200              		.loc 1 281 36 is_stmt 0 view .LVU385
 1201 02b2 02EB4311 		add	r1, r2, r3, lsl #5
 1202 02b6 01F58461 		add	r1, r1, #1056
 1203 02ba 14F83110 		ldrb	r1, [r4, r1, lsl #3]	@ zero_extendqisi2
 281:C:/Users/leopi/Documents/vs/S-Reo/MazeLibrary\MazeLib.c ****  						{
 1204              		.loc 1 281 10 view .LVU386
 1205 02be 2942     		tst	r1, r5
 1206 02c0 0BD1     		bne	.L76
 281:C:/Users/leopi/Documents/vs/S-Reo/MazeLibrary\MazeLib.c ****  						{
 1207              		.loc 1 281 93 discriminator 1 view .LVU387
 1208 02c2 02EB4311 		add	r1, r2, r3, lsl #5
 1209 02c6 01F58461 		add	r1, r1, #1056
 1210 02ca 04EBC101 		add	r1, r4, r1, lsl #3
 1211 02ce B1F802C0 		ldrh	ip, [r1, #2]
 281:C:/Users/leopi/Documents/vs/S-Reo/MazeLibrary\MazeLib.c ****  						{
 1212              		.loc 1 281 67 discriminator 1 view .LVU388
 1213 02d2 40F6FF71 		movw	r1, #4095
 1214 02d6 8C45     		cmp	ip, r1
 1215 02d8 76D0     		beq	.L92
 1216              	.LVL87:
 1217              	.L76:
 288:C:/Users/leopi/Documents/vs/S-Reo/MazeLibrary\MazeLib.c ****  					{
 1218              		.loc 1 288 7 is_stmt 1 view .LVU389
 288:C:/Users/leopi/Documents/vs/S-Reo/MazeLibrary\MazeLib.c ****  					{
 1219              		.loc 1 288 9 is_stmt 0 view .LVU390
 1220 02da 002A     		cmp	r2, #0
 1221 02dc 15DD     		ble	.L71
 291:C:/Users/leopi/Documents/vs/S-Reo/MazeLibrary\MazeLib.c ****  						{
 1222              		.loc 1 291 8 is_stmt 1 view .LVU391
 291:C:/Users/leopi/Documents/vs/S-Reo/MazeLibrary\MazeLib.c ****  						{
 1223              		.loc 1 291 35 is_stmt 0 view .LVU392
 1224 02de 02F1FF3C 		add	ip, r2, #-1
 291:C:/Users/leopi/Documents/vs/S-Reo/MazeLibrary\MazeLib.c ****  						{
 1225              		.loc 1 291 38 view .LVU393
 1226 02e2 0CEB4311 		add	r1, ip, r3, lsl #5
 1227 02e6 01F58461 		add	r1, r1, #1056
 1228 02ea 14F83110 		ldrb	r1, [r4, r1, lsl #3]	@ zero_extendqisi2
 291:C:/Users/leopi/Documents/vs/S-Reo/MazeLibrary\MazeLib.c ****  						{
 1229              		.loc 1 291 10 view .LVU394
 1230 02ee 2942     		tst	r1, r5
 1231 02f0 0BD1     		bne	.L71
 291:C:/Users/leopi/Documents/vs/S-Reo/MazeLibrary\MazeLib.c ****  						{
 1232              		.loc 1 291 96 discriminator 1 view .LVU395
 1233 02f2 0CEB4311 		add	r1, ip, r3, lsl #5
 1234 02f6 01F58461 		add	r1, r1, #1056
 1235 02fa 04EBC101 		add	r1, r4, r1, lsl #3
 1236 02fe B1F802E0 		ldrh	lr, [r1, #2]
 291:C:/Users/leopi/Documents/vs/S-Reo/MazeLibrary\MazeLib.c ****  						{
 1237              		.loc 1 291 68 discriminator 1 view .LVU396
 1238 0302 40F6FF71 		movw	r1, #4095
 1239 0306 8E45     		cmp	lr, r1
 1240 0308 6ED0     		beq	.L93
 1241              	.LVL88:
 1242              	.L71:
 222:C:/Users/leopi/Documents/vs/S-Reo/MazeLibrary\MazeLib.c ****  			{
ARM GAS  C:\Users\leopi\AppData\Local\Temp\ccilUBL0.s 			page 38


 1243              		.loc 1 222 41 is_stmt 1 discriminator 2 view .LVU397
 222:C:/Users/leopi/Documents/vs/S-Reo/MazeLibrary\MazeLib.c ****  			{
 1244              		.loc 1 222 42 is_stmt 0 discriminator 2 view .LVU398
 1245 030a 0132     		adds	r2, r2, #1
 1246              	.LVL89:
 1247              	.L78:
 222:C:/Users/leopi/Documents/vs/S-Reo/MazeLibrary\MazeLib.c ****  			{
 1248              		.loc 1 222 16 is_stmt 1 discriminator 1 view .LVU399
 222:C:/Users/leopi/Documents/vs/S-Reo/MazeLibrary\MazeLib.c ****  			{
 1249              		.loc 1 222 5 is_stmt 0 discriminator 1 view .LVU400
 1250 030c 1F2A     		cmp	r2, #31
 1251 030e 7CDC     		bgt	.L94
 227:C:/Users/leopi/Documents/vs/S-Reo/MazeLibrary\MazeLib.c ****  				{
 1252              		.loc 1 227 6 is_stmt 1 view .LVU401
 227:C:/Users/leopi/Documents/vs/S-Reo/MazeLibrary\MazeLib.c ****  				{
 1253              		.loc 1 227 28 is_stmt 0 view .LVU402
 1254 0310 03EB4311 		add	r1, r3, r3, lsl #5
 1255 0314 1144     		add	r1, r1, r2
 1256 0316 04EBC101 		add	r1, r4, r1, lsl #3
 1257 031a B1F802C0 		ldrh	ip, [r1, #2]
 227:C:/Users/leopi/Documents/vs/S-Reo/MazeLibrary\MazeLib.c ****  				{
 1258              		.loc 1 227 8 view .LVU403
 1259 031e 40F6FF71 		movw	r1, #4095
 1260 0322 8C45     		cmp	ip, r1
 1261 0324 F1D0     		beq	.L71
 234:C:/Users/leopi/Documents/vs/S-Reo/MazeLibrary\MazeLib.c ****  				{
 1262              		.loc 1 234 6 is_stmt 1 view .LVU404
 234:C:/Users/leopi/Documents/vs/S-Reo/MazeLibrary\MazeLib.c ****  				{
 1263              		.loc 1 234 8 is_stmt 0 view .LVU405
 1264 0326 1E2A     		cmp	r2, #30
 1265 0328 13DC     		bgt	.L72
 236:C:/Users/leopi/Documents/vs/S-Reo/MazeLibrary\MazeLib.c ****  					{
 1266              		.loc 1 236 7 is_stmt 1 view .LVU406
 236:C:/Users/leopi/Documents/vs/S-Reo/MazeLibrary\MazeLib.c ****  					{
 1267              		.loc 1 236 31 is_stmt 0 view .LVU407
 1268 032a 02F1010E 		add	lr, r2, #1
 236:C:/Users/leopi/Documents/vs/S-Reo/MazeLibrary\MazeLib.c ****  					{
 1269              		.loc 1 236 34 view .LVU408
 1270 032e 03EB4311 		add	r1, r3, r3, lsl #5
 1271 0332 7144     		add	r1, r1, lr
 1272 0334 14F83110 		ldrb	r1, [r4, r1, lsl #3]	@ zero_extendqisi2
 236:C:/Users/leopi/Documents/vs/S-Reo/MazeLibrary\MazeLib.c ****  					{
 1273              		.loc 1 236 9 view .LVU409
 1274 0338 2942     		tst	r1, r5
 1275 033a 0AD1     		bne	.L72
 236:C:/Users/leopi/Documents/vs/S-Reo/MazeLibrary\MazeLib.c ****  					{
 1276              		.loc 1 236 89 discriminator 1 view .LVU410
 1277 033c 03EB4311 		add	r1, r3, r3, lsl #5
 1278 0340 7144     		add	r1, r1, lr
 1279 0342 04EBC101 		add	r1, r4, r1, lsl #3
 1280 0346 4E88     		ldrh	r6, [r1, #2]
 236:C:/Users/leopi/Documents/vs/S-Reo/MazeLibrary\MazeLib.c ****  					{
 1281              		.loc 1 236 64 discriminator 1 view .LVU411
 1282 0348 40F6FF71 		movw	r1, #4095
 1283 034c 8E42     		cmp	r6, r1
 1284 034e 3FF466AF 		beq	.L95
 1285              	.LVL90:
ARM GAS  C:\Users\leopi\AppData\Local\Temp\ccilUBL0.s 			page 39


 1286              	.L72:
 243:C:/Users/leopi/Documents/vs/S-Reo/MazeLibrary\MazeLib.c ****  				{
 1287              		.loc 1 243 6 is_stmt 1 view .LVU412
 243:C:/Users/leopi/Documents/vs/S-Reo/MazeLibrary\MazeLib.c ****  				{
 1288              		.loc 1 243 8 is_stmt 0 view .LVU413
 1289 0352 012A     		cmp	r2, #1
 1290 0354 7FF77AAF 		ble	.L73
 245:C:/Users/leopi/Documents/vs/S-Reo/MazeLibrary\MazeLib.c ****  					{
 1291              		.loc 1 245 7 is_stmt 1 view .LVU414
 245:C:/Users/leopi/Documents/vs/S-Reo/MazeLibrary\MazeLib.c ****  					{
 1292              		.loc 1 245 31 is_stmt 0 view .LVU415
 1293 0358 02F1FF3C 		add	ip, r2, #-1
 245:C:/Users/leopi/Documents/vs/S-Reo/MazeLibrary\MazeLib.c ****  					{
 1294              		.loc 1 245 34 view .LVU416
 1295 035c 03EB4311 		add	r1, r3, r3, lsl #5
 1296 0360 6144     		add	r1, r1, ip
 1297 0362 14F83110 		ldrb	r1, [r4, r1, lsl #3]	@ zero_extendqisi2
 245:C:/Users/leopi/Documents/vs/S-Reo/MazeLibrary\MazeLib.c ****  					{
 1298              		.loc 1 245 9 view .LVU417
 1299 0366 2942     		tst	r1, r5
 1300 0368 7FF470AF 		bne	.L73
 245:C:/Users/leopi/Documents/vs/S-Reo/MazeLibrary\MazeLib.c ****  					{
 1301              		.loc 1 245 89 discriminator 1 view .LVU418
 1302 036c 03EB4311 		add	r1, r3, r3, lsl #5
 1303 0370 6144     		add	r1, r1, ip
 1304 0372 04EBC101 		add	r1, r4, r1, lsl #3
 1305 0376 4E88     		ldrh	r6, [r1, #2]
 245:C:/Users/leopi/Documents/vs/S-Reo/MazeLibrary\MazeLib.c ****  					{
 1306              		.loc 1 245 64 discriminator 1 view .LVU419
 1307 0378 40F6FF71 		movw	r1, #4095
 1308 037c 8E42     		cmp	r6, r1
 1309 037e 7FF465AF 		bne	.L73
 1310 0382 57E7     		b	.L96
 1311              	.L90:
 260:C:/Users/leopi/Documents/vs/S-Reo/MazeLibrary\MazeLib.c ****  							change_flag = true;		//å€¤ãŒæ›´æ–°ã•ã‚ŒãŸã“ã¨ã‚’ç¤ºã™
 1312              		.loc 1 260 9 is_stmt 1 view .LVU420
 260:C:/Users/leopi/Documents/vs/S-Reo/MazeLibrary\MazeLib.c ****  							change_flag = true;		//å€¤ãŒæ›´æ–°ã•ã‚ŒãŸã“ã¨ã‚’ç¤ºã™
 1313              		.loc 1 260 62 is_stmt 0 view .LVU421
 1314 0384 03EB4311 		add	r1, r3, r3, lsl #5
 1315 0388 1144     		add	r1, r1, r2
 1316 038a 04EBC101 		add	r1, r4, r1, lsl #3
 1317 038e 4988     		ldrh	r1, [r1, #2]
 260:C:/Users/leopi/Documents/vs/S-Reo/MazeLibrary\MazeLib.c ****  							change_flag = true;		//å€¤ãŒæ›´æ–°ã•ã‚ŒãŸã“ã¨ã‚’ç¤ºã™
 1318              		.loc 1 260 70 view .LVU422
 1319 0390 0131     		adds	r1, r1, #1
 260:C:/Users/leopi/Documents/vs/S-Reo/MazeLibrary\MazeLib.c ****  							change_flag = true;		//å€¤ãŒæ›´æ–°ã•ã‚ŒãŸã“ã¨ã‚’ç¤ºã™
 1320              		.loc 1 260 41 view .LVU423
 1321 0392 02EB4C1C 		add	ip, r2, ip, lsl #5
 1322 0396 0CF5846C 		add	ip, ip, #1056
 1323 039a 04EBCC0C 		add	ip, r4, ip, lsl #3
 1324 039e ACF80210 		strh	r1, [ip, #2]	@ movhi
 261:C:/Users/leopi/Documents/vs/S-Reo/MazeLibrary\MazeLib.c ****  						}
 1325              		.loc 1 261 9 is_stmt 1 view .LVU424
 1326              	.LVL91:
 261:C:/Users/leopi/Documents/vs/S-Reo/MazeLibrary\MazeLib.c ****  						}
 1327              		.loc 1 261 21 is_stmt 0 view .LVU425
 1328 03a2 0120     		movs	r0, #1
ARM GAS  C:\Users\leopi\AppData\Local\Temp\ccilUBL0.s 			page 40


 1329 03a4 6AE7     		b	.L75
 1330              	.LVL92:
 1331              	.L91:
 269:C:/Users/leopi/Documents/vs/S-Reo/MazeLibrary\MazeLib.c ****  							change_flag = true;		//å€¤ãŒæ›´æ–°ã•ã‚ŒãŸã“ã¨ã‚’ç¤ºã™
 1332              		.loc 1 269 9 is_stmt 1 view .LVU426
 269:C:/Users/leopi/Documents/vs/S-Reo/MazeLibrary\MazeLib.c ****  							change_flag = true;		//å€¤ãŒæ›´æ–°ã•ã‚ŒãŸã“ã¨ã‚’ç¤ºã™
 1333              		.loc 1 269 64 is_stmt 0 view .LVU427
 1334 03a6 03EB4311 		add	r1, r3, r3, lsl #5
 1335 03aa 1144     		add	r1, r1, r2
 1336 03ac 04EBC101 		add	r1, r4, r1, lsl #3
 1337 03b0 4988     		ldrh	r1, [r1, #2]
 269:C:/Users/leopi/Documents/vs/S-Reo/MazeLibrary\MazeLib.c ****  							change_flag = true;		//å€¤ãŒæ›´æ–°ã•ã‚ŒãŸã“ã¨ã‚’ç¤ºã™
 1338              		.loc 1 269 72 view .LVU428
 1339 03b2 0131     		adds	r1, r1, #1
 269:C:/Users/leopi/Documents/vs/S-Reo/MazeLibrary\MazeLib.c ****  							change_flag = true;		//å€¤ãŒæ›´æ–°ã•ã‚ŒãŸã“ã¨ã‚’ç¤ºã™
 1340              		.loc 1 269 43 view .LVU429
 1341 03b4 0CEB4E1C 		add	ip, ip, lr, lsl #5
 1342 03b8 0CF5846C 		add	ip, ip, #1056
 1343 03bc 04EBCC0C 		add	ip, r4, ip, lsl #3
 1344 03c0 ACF80210 		strh	r1, [ip, #2]	@ movhi
 270:C:/Users/leopi/Documents/vs/S-Reo/MazeLibrary\MazeLib.c ****  						}
 1345              		.loc 1 270 9 is_stmt 1 view .LVU430
 1346              	.LVL93:
 270:C:/Users/leopi/Documents/vs/S-Reo/MazeLibrary\MazeLib.c ****  						}
 1347              		.loc 1 270 21 is_stmt 0 view .LVU431
 1348 03c4 0120     		movs	r0, #1
 1349 03c6 72E7     		b	.L74
 1350              	.LVL94:
 1351              	.L92:
 283:C:/Users/leopi/Documents/vs/S-Reo/MazeLibrary\MazeLib.c ****  								change_flag = true;		//å€¤ãŒæ›´æ–°ã•ã‚ŒãŸã“ã¨ã‚’ç¤ºã™
 1352              		.loc 1 283 10 is_stmt 1 view .LVU432
 283:C:/Users/leopi/Documents/vs/S-Reo/MazeLibrary\MazeLib.c ****  								change_flag = true;		//å€¤ãŒæ›´æ–°ã•ã‚ŒãŸã“ã¨ã‚’ç¤ºã™
 1353              		.loc 1 283 61 is_stmt 0 view .LVU433
 1354 03c8 03EB4311 		add	r1, r3, r3, lsl #5
 1355 03cc 1144     		add	r1, r1, r2
 1356 03ce 04EBC101 		add	r1, r4, r1, lsl #3
 1357 03d2 4888     		ldrh	r0, [r1, #2]
 1358              	.LVL95:
 283:C:/Users/leopi/Documents/vs/S-Reo/MazeLibrary\MazeLib.c ****  								change_flag = true;		//å€¤ãŒæ›´æ–°ã•ã‚ŒãŸã“ã¨ã‚’ç¤ºã™
 1359              		.loc 1 283 69 view .LVU434
 1360 03d4 0130     		adds	r0, r0, #1
 283:C:/Users/leopi/Documents/vs/S-Reo/MazeLibrary\MazeLib.c ****  								change_flag = true;		//å€¤ãŒæ›´æ–°ã•ã‚ŒãŸã“ã¨ã‚’ç¤ºã™
 1361              		.loc 1 283 40 view .LVU435
 1362 03d6 02EB4311 		add	r1, r2, r3, lsl #5
 1363 03da 01F58461 		add	r1, r1, #1056
 1364 03de 04EBC101 		add	r1, r4, r1, lsl #3
 1365 03e2 4880     		strh	r0, [r1, #2]	@ movhi
 284:C:/Users/leopi/Documents/vs/S-Reo/MazeLibrary\MazeLib.c **** 
 1366              		.loc 1 284 10 is_stmt 1 view .LVU436
 1367              	.LVL96:
 284:C:/Users/leopi/Documents/vs/S-Reo/MazeLibrary\MazeLib.c **** 
 1368              		.loc 1 284 22 is_stmt 0 view .LVU437
 1369 03e4 0120     		movs	r0, #1
 1370 03e6 78E7     		b	.L76
 1371              	.LVL97:
 1372              	.L93:
 293:C:/Users/leopi/Documents/vs/S-Reo/MazeLibrary\MazeLib.c ****  							change_flag = true;		//å€¤ãŒæ›´æ–°ã•ã‚ŒãŸã“ã¨ã‚’ç¤ºã™
ARM GAS  C:\Users\leopi\AppData\Local\Temp\ccilUBL0.s 			page 41


 1373              		.loc 1 293 9 is_stmt 1 view .LVU438
 293:C:/Users/leopi/Documents/vs/S-Reo/MazeLibrary\MazeLib.c ****  							change_flag = true;		//å€¤ãŒæ›´æ–°ã•ã‚ŒãŸã“ã¨ã‚’ç¤ºã™
 1374              		.loc 1 293 62 is_stmt 0 view .LVU439
 1375 03e8 03EB4311 		add	r1, r3, r3, lsl #5
 1376 03ec 1144     		add	r1, r1, r2
 1377 03ee 04EBC101 		add	r1, r4, r1, lsl #3
 1378 03f2 4988     		ldrh	r1, [r1, #2]
 293:C:/Users/leopi/Documents/vs/S-Reo/MazeLibrary\MazeLib.c ****  							change_flag = true;		//å€¤ãŒæ›´æ–°ã•ã‚ŒãŸã“ã¨ã‚’ç¤ºã™
 1379              		.loc 1 293 70 view .LVU440
 1380 03f4 0131     		adds	r1, r1, #1
 293:C:/Users/leopi/Documents/vs/S-Reo/MazeLibrary\MazeLib.c ****  							change_flag = true;		//å€¤ãŒæ›´æ–°ã•ã‚ŒãŸã“ã¨ã‚’ç¤ºã™
 1381              		.loc 1 293 41 view .LVU441
 1382 03f6 0CEB431C 		add	ip, ip, r3, lsl #5
 1383 03fa 0CF5846C 		add	ip, ip, #1056
 1384 03fe 04EBCC0C 		add	ip, r4, ip, lsl #3
 1385 0402 ACF80210 		strh	r1, [ip, #2]	@ movhi
 294:C:/Users/leopi/Documents/vs/S-Reo/MazeLibrary\MazeLib.c ****  						}
 1386              		.loc 1 294 9 is_stmt 1 view .LVU442
 1387              	.LVL98:
 294:C:/Users/leopi/Documents/vs/S-Reo/MazeLibrary\MazeLib.c ****  						}
 1388              		.loc 1 294 21 is_stmt 0 view .LVU443
 1389 0406 0120     		movs	r0, #1
 1390 0408 7FE7     		b	.L71
 1391              	.LVL99:
 1392              	.L94:
 220:C:/Users/leopi/Documents/vs/S-Reo/MazeLibrary\MazeLib.c ****  		{
 1393              		.loc 1 220 41 is_stmt 1 discriminator 2 view .LVU444
 220:C:/Users/leopi/Documents/vs/S-Reo/MazeLibrary\MazeLib.c ****  		{
 1394              		.loc 1 220 42 is_stmt 0 discriminator 2 view .LVU445
 1395 040a 0133     		adds	r3, r3, #1
 1396              	.LVL100:
 1397              	.L70:
 220:C:/Users/leopi/Documents/vs/S-Reo/MazeLibrary\MazeLib.c ****  		{
 1398              		.loc 1 220 16 is_stmt 1 discriminator 1 view .LVU446
 220:C:/Users/leopi/Documents/vs/S-Reo/MazeLibrary\MazeLib.c ****  		{
 1399              		.loc 1 220 4 is_stmt 0 discriminator 1 view .LVU447
 1400 040c 1F2B     		cmp	r3, #31
 1401 040e 01DC     		bgt	.L97
 222:C:/Users/leopi/Documents/vs/S-Reo/MazeLibrary\MazeLib.c ****  			{
 1402              		.loc 1 222 11 view .LVU448
 1403 0410 0122     		movs	r2, #1
 1404 0412 7BE7     		b	.L78
 1405              	.L97:
 303:C:/Users/leopi/Documents/vs/S-Reo/MazeLibrary\MazeLib.c **** //    t = 0;
 1406              		.loc 1 303 8 is_stmt 1 view .LVU449
 303:C:/Users/leopi/Documents/vs/S-Reo/MazeLibrary\MazeLib.c **** //    t = 0;
 1407              		.loc 1 303 2 is_stmt 0 view .LVU450
 1408 0414 10B1     		cbz	r0, .L98
 1409              	.LVL101:
 1410              	.L79:
 137:C:/Users/leopi/Documents/vs/S-Reo/MazeLibrary\MazeLib.c **** 	{
 1411              		.loc 1 137 2 is_stmt 1 view .LVU451
 139:C:/Users/leopi/Documents/vs/S-Reo/MazeLibrary\MazeLib.c ****         
 1412              		.loc 1 139 3 view .LVU452
 142:C:/Users/leopi/Documents/vs/S-Reo/MazeLibrary\MazeLib.c **** 		{
 1413              		.loc 1 142 9 view .LVU453
 139:C:/Users/leopi/Documents/vs/S-Reo/MazeLibrary\MazeLib.c ****         
ARM GAS  C:\Users\leopi\AppData\Local\Temp\ccilUBL0.s 			page 42


 1414              		.loc 1 139 15 is_stmt 0 view .LVU454
 1415 0416 0020     		movs	r0, #0
 142:C:/Users/leopi/Documents/vs/S-Reo/MazeLibrary\MazeLib.c **** 		{
 1416              		.loc 1 142 15 view .LVU455
 1417 0418 0123     		movs	r3, #1
 142:C:/Users/leopi/Documents/vs/S-Reo/MazeLibrary\MazeLib.c **** 		{
 1418              		.loc 1 142 9 view .LVU456
 1419 041a FAE6     		b	.L61
 1420              	.LVL102:
 1421              	.L98:
 307:C:/Users/leopi/Documents/vs/S-Reo/MazeLibrary\MazeLib.c **** 
 1422              		.loc 1 307 1 view .LVU457
 1423 041c F8BD     		pop	{r3, r4, r5, r6, r7, pc}
 307:C:/Users/leopi/Documents/vs/S-Reo/MazeLibrary\MazeLib.c **** 
 1424              		.loc 1 307 1 view .LVU458
 1425              		.cfi_endproc
 1426              	.LFE6:
 1428              		.section	.rodata.printAllWeight.str1.4,"aMS",%progbits,1
 1429              		.align	2
 1430              	.LC0:
 1431 0000 E585A8E3 		.ascii	"\345\205\250\343\203\216\343\203\274\343\203\211\343"
 1431      838EE383 
 1431      BCE38389 
 1431      E3
 1432 000d 81AEE987 		.ascii	"\201\256\351\207\215\343\201\277\015\000"
 1432      8DE381BF 
 1432      0D00
 1433 0017 00       		.align	2
 1434              	.LC1:
 1435 0018 20202B20 		.ascii	"  +  \000"
 1435      2000
 1436 001e 0000     		.align	2
 1437              	.LC2:
 1438 0020 201B5B33 		.ascii	" \033[31;1m%3x\033[37;m \000"
 1438      313B316D 
 1438      2533781B 
 1438      5B33373B 
 1438      6D2000
 1439 0033 00       		.align	2
 1440              	.LC3:
 1441 0034 20253378 		.ascii	" %3x \000"
 1441      2000
 1442 003a 0000     		.align	2
 1443              	.LC4:
 1444 003c 0D00     		.ascii	"\015\000"
 1445 003e 0000     		.align	2
 1446              	.LC5:
 1447 0040 20202020 		.ascii	"     \000"
 1447      2000
 1448              		.section	.text.printAllWeight,"ax",%progbits
 1449              		.align	1
 1450              		.global	printAllWeight
 1451              		.syntax unified
 1452              		.thumb
 1453              		.thumb_func
 1455              	printAllWeight:
 1456              	.LVL103:
ARM GAS  C:\Users\leopi\AppData\Local\Temp\ccilUBL0.s 			page 43


 1457              	.LFB9:
 347:C:/Users/leopi/Documents/vs/S-Reo/MazeLibrary\MazeLib.c ****     //è¦‹ã‚„ã™ã„å½¢ã«æˆå‹ã—ã¦è¡¨ç¤ºã™ã‚‹
 1458              		.loc 1 347 1 is_stmt 1 view -0
 1459              		.cfi_startproc
 1460              		@ args = 0, pretend = 0, frame = 0
 1461              		@ frame_needed = 0, uses_anonymous_args = 0
 347:C:/Users/leopi/Documents/vs/S-Reo/MazeLibrary\MazeLib.c ****     //è¦‹ã‚„ã™ã„å½¢ã«æˆå‹ã—ã¦è¡¨ç¤ºã™ã‚‹
 1462              		.loc 1 347 1 is_stmt 0 view .LVU460
 1463 0000 F8B5     		push	{r3, r4, r5, r6, r7, lr}
 1464              	.LCFI4:
 1465              		.cfi_def_cfa_offset 24
 1466              		.cfi_offset 3, -24
 1467              		.cfi_offset 4, -20
 1468              		.cfi_offset 5, -16
 1469              		.cfi_offset 6, -12
 1470              		.cfi_offset 7, -8
 1471              		.cfi_offset 14, -4
 1472 0002 0646     		mov	r6, r0
 1473 0004 0F46     		mov	r7, r1
 354:C:/Users/leopi/Documents/vs/S-Reo/MazeLibrary\MazeLib.c **** 
 1474              		.loc 1 354 5 is_stmt 1 view .LVU461
 1475 0006 4148     		ldr	r0, .L122
 1476              	.LVL104:
 354:C:/Users/leopi/Documents/vs/S-Reo/MazeLibrary\MazeLib.c **** 
 1477              		.loc 1 354 5 is_stmt 0 view .LVU462
 1478 0008 FFF7FEFF 		bl	puts
 1479              	.LVL105:
 356:C:/Users/leopi/Documents/vs/S-Reo/MazeLibrary\MazeLib.c ****     {
 1480              		.loc 1 356 5 is_stmt 1 view .LVU463
 1481              	.LBB19:
 356:C:/Users/leopi/Documents/vs/S-Reo/MazeLibrary\MazeLib.c ****     {
 1482              		.loc 1 356 9 view .LVU464
 356:C:/Users/leopi/Documents/vs/S-Reo/MazeLibrary\MazeLib.c ****     {
 1483              		.loc 1 356 13 is_stmt 0 view .LVU465
 1484 000c 2025     		movs	r5, #32
 356:C:/Users/leopi/Documents/vs/S-Reo/MazeLibrary\MazeLib.c ****     {
 1485              		.loc 1 356 5 view .LVU466
 1486 000e 5BE0     		b	.L100
 1487              	.LVL106:
 1488              	.L103:
 1489              	.LBB20:
 368:C:/Users/leopi/Documents/vs/S-Reo/MazeLibrary\MazeLib.c ****             }
 1490              		.loc 1 368 17 is_stmt 1 view .LVU467
 368:C:/Users/leopi/Documents/vs/S-Reo/MazeLibrary\MazeLib.c ****             }
 1491              		.loc 1 368 51 is_stmt 0 view .LVU468
 1492 0010 04EB4413 		add	r3, r4, r4, lsl #5
 1493 0014 2B44     		add	r3, r3, r5
 1494 0016 06EBC303 		add	r3, r6, r3, lsl #3
 368:C:/Users/leopi/Documents/vs/S-Reo/MazeLibrary\MazeLib.c ****             }
 1495              		.loc 1 368 17 view .LVU469
 1496 001a 5988     		ldrh	r1, [r3, #2]
 1497 001c 3C48     		ldr	r0, .L122+4
 1498 001e FFF7FEFF 		bl	printf
 1499              	.LVL107:
 1500              	.L104:
 370:C:/Users/leopi/Documents/vs/S-Reo/MazeLibrary\MazeLib.c ****                  printf("  +  ");
 1501              		.loc 1 370 13 is_stmt 1 view .LVU470
ARM GAS  C:\Users\leopi\AppData\Local\Temp\ccilUBL0.s 			page 44


 370:C:/Users/leopi/Documents/vs/S-Reo/MazeLibrary\MazeLib.c ****                  printf("  +  ");
 1502              		.loc 1 370 15 is_stmt 0 view .LVU471
 1503 0022 1E2C     		cmp	r4, #30
 1504 0024 02DC     		bgt	.L105
 371:C:/Users/leopi/Documents/vs/S-Reo/MazeLibrary\MazeLib.c ****         }
 1505              		.loc 1 371 18 is_stmt 1 view .LVU472
 1506 0026 3B48     		ldr	r0, .L122+8
 1507 0028 FFF7FEFF 		bl	printf
 1508              	.LVL108:
 1509              	.L105:
 360:C:/Users/leopi/Documents/vs/S-Reo/MazeLibrary\MazeLib.c ****         {
 1510              		.loc 1 360 47 discriminator 2 view .LVU473
 360:C:/Users/leopi/Documents/vs/S-Reo/MazeLibrary\MazeLib.c ****         {
 1511              		.loc 1 360 48 is_stmt 0 discriminator 2 view .LVU474
 1512 002c 0134     		adds	r4, r4, #1
 1513              	.LVL109:
 1514              	.L101:
 360:C:/Users/leopi/Documents/vs/S-Reo/MazeLibrary\MazeLib.c ****         {
 1515              		.loc 1 360 22 is_stmt 1 discriminator 1 view .LVU475
 360:C:/Users/leopi/Documents/vs/S-Reo/MazeLibrary\MazeLib.c ****         {
 1516              		.loc 1 360 9 is_stmt 0 discriminator 1 view .LVU476
 1517 002e 1F2C     		cmp	r4, #31
 1518 0030 15DC     		bgt	.L118
 362:C:/Users/leopi/Documents/vs/S-Reo/MazeLibrary\MazeLib.c ****             {
 1519              		.loc 1 362 13 is_stmt 1 view .LVU477
 362:C:/Users/leopi/Documents/vs/S-Reo/MazeLibrary\MazeLib.c ****             {
 1520              		.loc 1 362 16 is_stmt 0 view .LVU478
 1521 0032 EAB2     		uxtb	r2, r5
 1522 0034 E1B2     		uxtb	r1, r4
 1523 0036 3046     		mov	r0, r6
 1524 0038 FFF7FEFF 		bl	judgeRawNodeGoal
 1525              	.LVL110:
 362:C:/Users/leopi/Documents/vs/S-Reo/MazeLibrary\MazeLib.c ****             {
 1526              		.loc 1 362 15 view .LVU479
 1527 003c 28B9     		cbnz	r0, .L102
 362:C:/Users/leopi/Documents/vs/S-Reo/MazeLibrary\MazeLib.c ****             {
 1528              		.loc 1 362 60 discriminator 1 view .LVU480
 1529 003e 3B78     		ldrb	r3, [r7]	@ zero_extendqisi2
 362:C:/Users/leopi/Documents/vs/S-Reo/MazeLibrary\MazeLib.c ****             {
 1530              		.loc 1 362 52 discriminator 1 view .LVU481
 1531 0040 A342     		cmp	r3, r4
 1532 0042 E5D1     		bne	.L103
 362:C:/Users/leopi/Documents/vs/S-Reo/MazeLibrary\MazeLib.c ****             {
 1533              		.loc 1 362 77 discriminator 2 view .LVU482
 1534 0044 7B78     		ldrb	r3, [r7, #1]	@ zero_extendqisi2
 362:C:/Users/leopi/Documents/vs/S-Reo/MazeLibrary\MazeLib.c ****             {
 1535              		.loc 1 362 70 discriminator 2 view .LVU483
 1536 0046 AB42     		cmp	r3, r5
 1537 0048 E2D1     		bne	.L103
 1538              	.L102:
 364:C:/Users/leopi/Documents/vs/S-Reo/MazeLibrary\MazeLib.c ****             }
 1539              		.loc 1 364 17 is_stmt 1 view .LVU484
 364:C:/Users/leopi/Documents/vs/S-Reo/MazeLibrary\MazeLib.c ****             }
 1540              		.loc 1 364 70 is_stmt 0 view .LVU485
 1541 004a 04EB4413 		add	r3, r4, r4, lsl #5
 1542 004e 2B44     		add	r3, r3, r5
 1543 0050 06EBC303 		add	r3, r6, r3, lsl #3
ARM GAS  C:\Users\leopi\AppData\Local\Temp\ccilUBL0.s 			page 45


 364:C:/Users/leopi/Documents/vs/S-Reo/MazeLibrary\MazeLib.c ****             }
 1544              		.loc 1 364 17 view .LVU486
 1545 0054 5988     		ldrh	r1, [r3, #2]
 1546 0056 3048     		ldr	r0, .L122+12
 1547 0058 FFF7FEFF 		bl	printf
 1548              	.LVL111:
 1549 005c E1E7     		b	.L104
 1550              	.L118:
 364:C:/Users/leopi/Documents/vs/S-Reo/MazeLibrary\MazeLib.c ****             }
 1551              		.loc 1 364 17 view .LVU487
 1552              	.LBE20:
 373:C:/Users/leopi/Documents/vs/S-Reo/MazeLibrary\MazeLib.c **** 
 1553              		.loc 1 373 9 is_stmt 1 view .LVU488
 1554 005e 2F48     		ldr	r0, .L122+16
 1555 0060 FFF7FEFF 		bl	puts
 1556              	.LVL112:
 376:C:/Users/leopi/Documents/vs/S-Reo/MazeLibrary\MazeLib.c ****         {
 1557              		.loc 1 376 9 view .LVU489
 1558              	.LBB21:
 376:C:/Users/leopi/Documents/vs/S-Reo/MazeLibrary\MazeLib.c ****         {
 1559              		.loc 1 376 13 view .LVU490
 376:C:/Users/leopi/Documents/vs/S-Reo/MazeLibrary\MazeLib.c ****         {
 1560              		.loc 1 376 17 is_stmt 0 view .LVU491
 1561 0064 0024     		movs	r4, #0
 1562              	.LVL113:
 376:C:/Users/leopi/Documents/vs/S-Reo/MazeLibrary\MazeLib.c ****         {
 1563              		.loc 1 376 9 view .LVU492
 1564 0066 10E0     		b	.L107
 1565              	.LVL114:
 1566              	.L109:
 384:C:/Users/leopi/Documents/vs/S-Reo/MazeLibrary\MazeLib.c ****             }
 1567              		.loc 1 384 17 is_stmt 1 view .LVU493
 384:C:/Users/leopi/Documents/vs/S-Reo/MazeLibrary\MazeLib.c ****             }
 1568              		.loc 1 384 53 is_stmt 0 view .LVU494
 1569 0068 6B1E     		subs	r3, r5, #1
 384:C:/Users/leopi/Documents/vs/S-Reo/MazeLibrary\MazeLib.c ****             }
 1570              		.loc 1 384 56 view .LVU495
 1571 006a 03EB4413 		add	r3, r3, r4, lsl #5
 1572 006e 03F58463 		add	r3, r3, #1056
 1573 0072 06EBC303 		add	r3, r6, r3, lsl #3
 384:C:/Users/leopi/Documents/vs/S-Reo/MazeLibrary\MazeLib.c ****             }
 1574              		.loc 1 384 17 view .LVU496
 1575 0076 5988     		ldrh	r1, [r3, #2]
 1576 0078 2548     		ldr	r0, .L122+4
 1577 007a FFF7FEFF 		bl	printf
 1578              	.LVL115:
 1579              	.L110:
 386:C:/Users/leopi/Documents/vs/S-Reo/MazeLibrary\MazeLib.c ****                 printf("     ");
 1580              		.loc 1 386 13 is_stmt 1 view .LVU497
 386:C:/Users/leopi/Documents/vs/S-Reo/MazeLibrary\MazeLib.c ****                 printf("     ");
 1581              		.loc 1 386 15 is_stmt 0 view .LVU498
 1582 007e 1F2C     		cmp	r4, #31
 1583 0080 02DC     		bgt	.L111
 387:C:/Users/leopi/Documents/vs/S-Reo/MazeLibrary\MazeLib.c ****         }
 1584              		.loc 1 387 17 is_stmt 1 view .LVU499
 1585 0082 2748     		ldr	r0, .L122+20
 1586 0084 FFF7FEFF 		bl	printf
ARM GAS  C:\Users\leopi\AppData\Local\Temp\ccilUBL0.s 			page 46


 1587              	.LVL116:
 1588              	.L111:
 376:C:/Users/leopi/Documents/vs/S-Reo/MazeLibrary\MazeLib.c ****         {
 1589              		.loc 1 376 49 discriminator 2 view .LVU500
 376:C:/Users/leopi/Documents/vs/S-Reo/MazeLibrary\MazeLib.c ****         {
 1590              		.loc 1 376 50 is_stmt 0 discriminator 2 view .LVU501
 1591 0088 0134     		adds	r4, r4, #1
 1592              	.LVL117:
 1593              	.L107:
 376:C:/Users/leopi/Documents/vs/S-Reo/MazeLibrary\MazeLib.c ****         {
 1594              		.loc 1 376 22 is_stmt 1 discriminator 1 view .LVU502
 376:C:/Users/leopi/Documents/vs/S-Reo/MazeLibrary\MazeLib.c ****         {
 1595              		.loc 1 376 9 is_stmt 0 discriminator 1 view .LVU503
 1596 008a 202C     		cmp	r4, #32
 1597 008c 18DC     		bgt	.L119
 378:C:/Users/leopi/Documents/vs/S-Reo/MazeLibrary\MazeLib.c ****             {
 1598              		.loc 1 378 13 is_stmt 1 view .LVU504
 378:C:/Users/leopi/Documents/vs/S-Reo/MazeLibrary\MazeLib.c ****             {
 1599              		.loc 1 378 16 is_stmt 0 view .LVU505
 1600 008e 6A1E     		subs	r2, r5, #1
 1601 0090 D2B2     		uxtb	r2, r2
 1602 0092 E1B2     		uxtb	r1, r4
 1603 0094 3046     		mov	r0, r6
 1604 0096 FFF7FEFF 		bl	judgeColumnNodeGoal
 1605              	.LVL118:
 378:C:/Users/leopi/Documents/vs/S-Reo/MazeLibrary\MazeLib.c ****             {
 1606              		.loc 1 378 15 view .LVU506
 1607 009a 28B9     		cbnz	r0, .L108
 378:C:/Users/leopi/Documents/vs/S-Reo/MazeLibrary\MazeLib.c ****             {
 1608              		.loc 1 378 65 discriminator 1 view .LVU507
 1609 009c 3B78     		ldrb	r3, [r7]	@ zero_extendqisi2
 378:C:/Users/leopi/Documents/vs/S-Reo/MazeLibrary\MazeLib.c ****             {
 1610              		.loc 1 378 57 discriminator 1 view .LVU508
 1611 009e A342     		cmp	r3, r4
 1612 00a0 E2D1     		bne	.L109
 378:C:/Users/leopi/Documents/vs/S-Reo/MazeLibrary\MazeLib.c ****             {
 1613              		.loc 1 378 82 discriminator 2 view .LVU509
 1614 00a2 7B78     		ldrb	r3, [r7, #1]	@ zero_extendqisi2
 378:C:/Users/leopi/Documents/vs/S-Reo/MazeLibrary\MazeLib.c ****             {
 1615              		.loc 1 378 75 discriminator 2 view .LVU510
 1616 00a4 AB42     		cmp	r3, r5
 1617 00a6 DFD1     		bne	.L109
 1618              	.L108:
 380:C:/Users/leopi/Documents/vs/S-Reo/MazeLibrary\MazeLib.c ****             }
 1619              		.loc 1 380 17 is_stmt 1 view .LVU511
 380:C:/Users/leopi/Documents/vs/S-Reo/MazeLibrary\MazeLib.c ****             }
 1620              		.loc 1 380 72 is_stmt 0 view .LVU512
 1621 00a8 6B1E     		subs	r3, r5, #1
 380:C:/Users/leopi/Documents/vs/S-Reo/MazeLibrary\MazeLib.c ****             }
 1622              		.loc 1 380 75 view .LVU513
 1623 00aa 03EB4413 		add	r3, r3, r4, lsl #5
 1624 00ae 03F58463 		add	r3, r3, #1056
 1625 00b2 06EBC303 		add	r3, r6, r3, lsl #3
 380:C:/Users/leopi/Documents/vs/S-Reo/MazeLibrary\MazeLib.c ****             }
 1626              		.loc 1 380 17 view .LVU514
 1627 00b6 5988     		ldrh	r1, [r3, #2]
 1628 00b8 1748     		ldr	r0, .L122+12
ARM GAS  C:\Users\leopi\AppData\Local\Temp\ccilUBL0.s 			page 47


 1629 00ba FFF7FEFF 		bl	printf
 1630              	.LVL119:
 1631 00be DEE7     		b	.L110
 1632              	.L119:
 380:C:/Users/leopi/Documents/vs/S-Reo/MazeLibrary\MazeLib.c ****             }
 1633              		.loc 1 380 17 view .LVU515
 1634              	.LBE21:
 389:C:/Users/leopi/Documents/vs/S-Reo/MazeLibrary\MazeLib.c ****     }
 1635              		.loc 1 389 9 is_stmt 1 discriminator 2 view .LVU516
 1636 00c0 1648     		ldr	r0, .L122+16
 1637 00c2 FFF7FEFF 		bl	puts
 1638              	.LVL120:
 356:C:/Users/leopi/Documents/vs/S-Reo/MazeLibrary\MazeLib.c ****     {
 1639              		.loc 1 356 43 discriminator 2 view .LVU517
 356:C:/Users/leopi/Documents/vs/S-Reo/MazeLibrary\MazeLib.c ****     {
 1640              		.loc 1 356 44 is_stmt 0 discriminator 2 view .LVU518
 1641 00c6 013D     		subs	r5, r5, #1
 1642              	.LVL121:
 1643              	.L100:
 356:C:/Users/leopi/Documents/vs/S-Reo/MazeLibrary\MazeLib.c ****     {
 1644              		.loc 1 356 36 is_stmt 1 discriminator 1 view .LVU519
 356:C:/Users/leopi/Documents/vs/S-Reo/MazeLibrary\MazeLib.c ****     {
 1645              		.loc 1 356 5 is_stmt 0 discriminator 1 view .LVU520
 1646 00c8 002D     		cmp	r5, #0
 1647 00ca 04DD     		ble	.L120
 359:C:/Users/leopi/Documents/vs/S-Reo/MazeLibrary\MazeLib.c ****         for(int x=0; x < NUMBER_OF_SQUARES_X; x++)
 1648              		.loc 1 359 9 is_stmt 1 view .LVU521
 1649 00cc 1148     		ldr	r0, .L122+8
 1650 00ce FFF7FEFF 		bl	printf
 1651              	.LVL122:
 360:C:/Users/leopi/Documents/vs/S-Reo/MazeLibrary\MazeLib.c ****         {
 1652              		.loc 1 360 9 view .LVU522
 1653              	.LBB22:
 360:C:/Users/leopi/Documents/vs/S-Reo/MazeLibrary\MazeLib.c ****         {
 1654              		.loc 1 360 13 view .LVU523
 360:C:/Users/leopi/Documents/vs/S-Reo/MazeLibrary\MazeLib.c ****         {
 1655              		.loc 1 360 17 is_stmt 0 view .LVU524
 1656 00d2 0024     		movs	r4, #0
 360:C:/Users/leopi/Documents/vs/S-Reo/MazeLibrary\MazeLib.c ****         {
 1657              		.loc 1 360 9 view .LVU525
 1658 00d4 ABE7     		b	.L101
 1659              	.LVL123:
 1660              	.L120:
 360:C:/Users/leopi/Documents/vs/S-Reo/MazeLibrary\MazeLib.c ****         {
 1661              		.loc 1 360 9 view .LVU526
 1662              	.LBE22:
 1663              	.LBE19:
 392:C:/Users/leopi/Documents/vs/S-Reo/MazeLibrary\MazeLib.c ****     for(int x=0; x < NUMBER_OF_SQUARES_X; x++)
 1664              		.loc 1 392 5 is_stmt 1 view .LVU527
 1665 00d6 0F48     		ldr	r0, .L122+8
 1666 00d8 FFF7FEFF 		bl	printf
 1667              	.LVL124:
 393:C:/Users/leopi/Documents/vs/S-Reo/MazeLibrary\MazeLib.c ****     {
 1668              		.loc 1 393 5 view .LVU528
 1669              	.LBB23:
 393:C:/Users/leopi/Documents/vs/S-Reo/MazeLibrary\MazeLib.c ****     {
 1670              		.loc 1 393 9 view .LVU529
ARM GAS  C:\Users\leopi\AppData\Local\Temp\ccilUBL0.s 			page 48


 393:C:/Users/leopi/Documents/vs/S-Reo/MazeLibrary\MazeLib.c ****     {
 1671              		.loc 1 393 13 is_stmt 0 view .LVU530
 1672 00dc 0024     		movs	r4, #0
 393:C:/Users/leopi/Documents/vs/S-Reo/MazeLibrary\MazeLib.c ****     {
 1673              		.loc 1 393 5 view .LVU531
 1674 00de 00E0     		b	.L114
 1675              	.LVL125:
 1676              	.L115:
 393:C:/Users/leopi/Documents/vs/S-Reo/MazeLibrary\MazeLib.c ****     {
 1677              		.loc 1 393 43 is_stmt 1 discriminator 2 view .LVU532
 393:C:/Users/leopi/Documents/vs/S-Reo/MazeLibrary\MazeLib.c ****     {
 1678              		.loc 1 393 44 is_stmt 0 discriminator 2 view .LVU533
 1679 00e0 0134     		adds	r4, r4, #1
 1680              	.LVL126:
 1681              	.L114:
 393:C:/Users/leopi/Documents/vs/S-Reo/MazeLibrary\MazeLib.c ****     {
 1682              		.loc 1 393 18 is_stmt 1 discriminator 1 view .LVU534
 393:C:/Users/leopi/Documents/vs/S-Reo/MazeLibrary\MazeLib.c ****     {
 1683              		.loc 1 393 5 is_stmt 0 discriminator 1 view .LVU535
 1684 00e2 1F2C     		cmp	r4, #31
 1685 00e4 0DDC     		bgt	.L121
 395:C:/Users/leopi/Documents/vs/S-Reo/MazeLibrary\MazeLib.c ****         if(x < NUMBER_OF_SQUARES_X-1)
 1686              		.loc 1 395 9 is_stmt 1 view .LVU536
 395:C:/Users/leopi/Documents/vs/S-Reo/MazeLibrary\MazeLib.c ****         if(x < NUMBER_OF_SQUARES_X-1)
 1687              		.loc 1 395 43 is_stmt 0 view .LVU537
 1688 00e6 04EB4413 		add	r3, r4, r4, lsl #5
 1689 00ea 06EBC303 		add	r3, r6, r3, lsl #3
 395:C:/Users/leopi/Documents/vs/S-Reo/MazeLibrary\MazeLib.c ****         if(x < NUMBER_OF_SQUARES_X-1)
 1690              		.loc 1 395 9 view .LVU538
 1691 00ee 5988     		ldrh	r1, [r3, #2]
 1692 00f0 0748     		ldr	r0, .L122+4
 1693 00f2 FFF7FEFF 		bl	printf
 1694              	.LVL127:
 396:C:/Users/leopi/Documents/vs/S-Reo/MazeLibrary\MazeLib.c ****                 printf("  +  ");
 1695              		.loc 1 396 9 is_stmt 1 view .LVU539
 396:C:/Users/leopi/Documents/vs/S-Reo/MazeLibrary\MazeLib.c ****                 printf("  +  ");
 1696              		.loc 1 396 11 is_stmt 0 view .LVU540
 1697 00f6 1E2C     		cmp	r4, #30
 1698 00f8 F2DC     		bgt	.L115
 397:C:/Users/leopi/Documents/vs/S-Reo/MazeLibrary\MazeLib.c ****     }
 1699              		.loc 1 397 17 is_stmt 1 view .LVU541
 1700 00fa 0648     		ldr	r0, .L122+8
 1701 00fc FFF7FEFF 		bl	printf
 1702              	.LVL128:
 1703 0100 EEE7     		b	.L115
 1704              	.L121:
 397:C:/Users/leopi/Documents/vs/S-Reo/MazeLibrary\MazeLib.c ****     }
 1705              		.loc 1 397 17 is_stmt 0 view .LVU542
 1706              	.LBE23:
 399:C:/Users/leopi/Documents/vs/S-Reo/MazeLibrary\MazeLib.c **** 
 1707              		.loc 1 399 5 is_stmt 1 view .LVU543
 1708 0102 0648     		ldr	r0, .L122+16
 1709 0104 FFF7FEFF 		bl	puts
 1710              	.LVL129:
 402:C:/Users/leopi/Documents/vs/S-Reo/MazeLibrary\MazeLib.c **** void printSingleNode(maze_node *mn, uint8_t x, uint8_t y)
 1711              		.loc 1 402 1 is_stmt 0 view .LVU544
 1712 0108 F8BD     		pop	{r3, r4, r5, r6, r7, pc}
ARM GAS  C:\Users\leopi\AppData\Local\Temp\ccilUBL0.s 			page 49


 1713              	.LVL130:
 1714              	.L123:
 402:C:/Users/leopi/Documents/vs/S-Reo/MazeLibrary\MazeLib.c **** void printSingleNode(maze_node *mn, uint8_t x, uint8_t y)
 1715              		.loc 1 402 1 view .LVU545
 1716 010a 00BF     		.align	2
 1717              	.L122:
 1718 010c 00000000 		.word	.LC0
 1719 0110 34000000 		.word	.LC3
 1720 0114 18000000 		.word	.LC1
 1721 0118 20000000 		.word	.LC2
 1722 011c 3C000000 		.word	.LC4
 1723 0120 40000000 		.word	.LC5
 1724              		.cfi_endproc
 1725              	.LFE9:
 1727              		.section	.rodata.printSingleNode.str1.4,"aMS",%progbits,1
 1728              		.align	2
 1729              	.LC6:
 1730 0000 E8A18CE3 		.ascii	"\350\241\214\343\203\216\343\203\274\343\203\211 %d"
 1730      838EE383 
 1730      BCE38389 
 1730      202564
 1731 000f 2C202564 		.ascii	", %d : \345\243\201 %u, \351\207\215\343\201\277 %u"
 1731      203A20E5 
 1731      A3812025 
 1731      752C20E9 
 1731      878DE381 
 1732 0027 2C206472 		.ascii	", draw %u\015\012\000"
 1732      61772025 
 1732      750D0A00 
 1733 0033 00       		.align	2
 1734              	.LC7:
 1735 0034 E58897E3 		.ascii	"\345\210\227\343\203\216\343\203\274\343\203\211 %d"
 1735      838EE383 
 1735      BCE38389 
 1735      202564
 1736 0043 2C202564 		.ascii	", %d : \345\243\201 %u, \351\207\215\343\201\277 %u"
 1736      203A20E5 
 1736      A3812025 
 1736      752C20E9 
 1736      878DE381 
 1737 005b 2C206472 		.ascii	", draw %u\015\012\000"
 1737      61772025 
 1737      750D0A00 
 1738              		.section	.text.printSingleNode,"ax",%progbits
 1739              		.align	1
 1740              		.global	printSingleNode
 1741              		.syntax unified
 1742              		.thumb
 1743              		.thumb_func
 1745              	printSingleNode:
 1746              	.LVL131:
 1747              	.LFB10:
 404:C:/Users/leopi/Documents/vs/S-Reo/MazeLibrary\MazeLib.c ****     printf("è¡Œãƒãƒ¼ãƒ‰ %d, %d : å£ %u, é‡ã¿ %u, draw %u\r\n", x,y, mn->RawNode[x][y].existence
 1748              		.loc 1 404 1 is_stmt 1 view -0
 1749              		.cfi_startproc
 1750              		@ args = 0, pretend = 0, frame = 0
 1751              		@ frame_needed = 0, uses_anonymous_args = 0
ARM GAS  C:\Users\leopi\AppData\Local\Temp\ccilUBL0.s 			page 50


 404:C:/Users/leopi/Documents/vs/S-Reo/MazeLibrary\MazeLib.c ****     printf("è¡Œãƒãƒ¼ãƒ‰ %d, %d : å£ %u, é‡ã¿ %u, draw %u\r\n", x,y, mn->RawNode[x][y].existence
 1752              		.loc 1 404 1 is_stmt 0 view .LVU547
 1753 0000 F0B5     		push	{r4, r5, r6, r7, lr}
 1754              	.LCFI5:
 1755              		.cfi_def_cfa_offset 20
 1756              		.cfi_offset 4, -20
 1757              		.cfi_offset 5, -16
 1758              		.cfi_offset 6, -12
 1759              		.cfi_offset 7, -8
 1760              		.cfi_offset 14, -4
 1761 0002 83B0     		sub	sp, sp, #12
 1762              	.LCFI6:
 1763              		.cfi_def_cfa_offset 32
 1764 0004 0546     		mov	r5, r0
 1765 0006 0C46     		mov	r4, r1
 1766 0008 1746     		mov	r7, r2
 405:C:/Users/leopi/Documents/vs/S-Reo/MazeLibrary\MazeLib.c ****     printf("åˆ—ãƒãƒ¼ãƒ‰ %d, %d : å£ %u, é‡ã¿ %u, draw %u\r\n", x,y, mn->ColumnNode[x][y].existe
 1767              		.loc 1 405 5 is_stmt 1 view .LVU548
 405:C:/Users/leopi/Documents/vs/S-Reo/MazeLibrary\MazeLib.c ****     printf("åˆ—ãƒãƒ¼ãƒ‰ %d, %d : å£ %u, é‡ã¿ %u, draw %u\r\n", x,y, mn->ColumnNode[x][y].existe
 1768              		.loc 1 405 90 is_stmt 0 view .LVU549
 1769 000a 4E01     		lsls	r6, r1, #5
 1770 000c 01EB4113 		add	r3, r1, r1, lsl #5
 1771 0010 1344     		add	r3, r3, r2
 405:C:/Users/leopi/Documents/vs/S-Reo/MazeLibrary\MazeLib.c ****     printf("åˆ—ãƒãƒ¼ãƒ‰ %d, %d : å£ %u, é‡ã¿ %u, draw %u\r\n", x,y, mn->ColumnNode[x][y].existe
 1772              		.loc 1 405 118 view .LVU550
 1773 0012 00EBC300 		add	r0, r0, r3, lsl #3
 1774              	.LVL132:
 405:C:/Users/leopi/Documents/vs/S-Reo/MazeLibrary\MazeLib.c ****     printf("åˆ—ãƒãƒ¼ãƒ‰ %d, %d : å£ %u, é‡ã¿ %u, draw %u\r\n", x,y, mn->ColumnNode[x][y].existe
 1775              		.loc 1 405 118 view .LVU551
 1776 0016 B0F802C0 		ldrh	ip, [r0, #2]
 405:C:/Users/leopi/Documents/vs/S-Reo/MazeLibrary\MazeLib.c ****     printf("åˆ—ãƒãƒ¼ãƒ‰ %d, %d : å£ %u, é‡ã¿ %u, draw %u\r\n", x,y, mn->ColumnNode[x][y].existe
 1777              		.loc 1 405 143 view .LVU552
 1778 001a 0079     		ldrb	r0, [r0, #4]	@ zero_extendqisi2
 405:C:/Users/leopi/Documents/vs/S-Reo/MazeLibrary\MazeLib.c ****     printf("åˆ—ãƒãƒ¼ãƒ‰ %d, %d : å£ %u, é‡ã¿ %u, draw %u\r\n", x,y, mn->ColumnNode[x][y].existe
 1779              		.loc 1 405 5 view .LVU553
 1780 001c 0190     		str	r0, [sp, #4]
 1781 001e CDF800C0 		str	ip, [sp]
 1782 0022 15F83330 		ldrb	r3, [r5, r3, lsl #3]	@ zero_extendqisi2
 1783 0026 0A48     		ldr	r0, .L126
 1784 0028 FFF7FEFF 		bl	printf
 1785              	.LVL133:
 406:C:/Users/leopi/Documents/vs/S-Reo/MazeLibrary\MazeLib.c **** }
 1786              		.loc 1 406 5 is_stmt 1 view .LVU554
 406:C:/Users/leopi/Documents/vs/S-Reo/MazeLibrary\MazeLib.c **** }
 1787              		.loc 1 406 93 is_stmt 0 view .LVU555
 1788 002c F319     		adds	r3, r6, r7
 1789 002e 03F58463 		add	r3, r3, #1056
 406:C:/Users/leopi/Documents/vs/S-Reo/MazeLibrary\MazeLib.c **** }
 1790              		.loc 1 406 124 view .LVU556
 1791 0032 05EBC302 		add	r2, r5, r3, lsl #3
 1792 0036 5188     		ldrh	r1, [r2, #2]
 406:C:/Users/leopi/Documents/vs/S-Reo/MazeLibrary\MazeLib.c **** }
 1793              		.loc 1 406 152 view .LVU557
 1794 0038 1279     		ldrb	r2, [r2, #4]	@ zero_extendqisi2
 406:C:/Users/leopi/Documents/vs/S-Reo/MazeLibrary\MazeLib.c **** }
 1795              		.loc 1 406 5 view .LVU558
 1796 003a 0192     		str	r2, [sp, #4]
ARM GAS  C:\Users\leopi\AppData\Local\Temp\ccilUBL0.s 			page 51


 1797 003c 0091     		str	r1, [sp]
 1798 003e 15F83330 		ldrb	r3, [r5, r3, lsl #3]	@ zero_extendqisi2
 1799 0042 3A46     		mov	r2, r7
 1800 0044 2146     		mov	r1, r4
 1801 0046 0348     		ldr	r0, .L126+4
 1802 0048 FFF7FEFF 		bl	printf
 1803              	.LVL134:
 407:C:/Users/leopi/Documents/vs/S-Reo/MazeLibrary\MazeLib.c **** 
 1804              		.loc 1 407 1 view .LVU559
 1805 004c 03B0     		add	sp, sp, #12
 1806              	.LCFI7:
 1807              		.cfi_def_cfa_offset 20
 1808              		@ sp needed
 1809 004e F0BD     		pop	{r4, r5, r6, r7, pc}
 1810              	.LVL135:
 1811              	.L127:
 407:C:/Users/leopi/Documents/vs/S-Reo/MazeLibrary\MazeLib.c **** 
 1812              		.loc 1 407 1 view .LVU560
 1813              		.align	2
 1814              	.L126:
 1815 0050 00000000 		.word	.LC6
 1816 0054 34000000 		.word	.LC7
 1817              		.cfi_endproc
 1818              	.LFE10:
 1820              		.section	.rodata.printAllNode.str1.4,"aMS",%progbits,1
 1821              		.align	2
 1822              	.LC8:
 1823 0000 E585A8E3 		.ascii	"\345\205\250\343\203\216\343\203\274\343\203\211\015"
 1823      838EE383 
 1823      BCE38389 
 1823      0D
 1824 000d 00       		.ascii	"\000"
 1825 000e 0000     		.align	2
 1826              	.LC9:
 1827 0010 25752C00 		.ascii	"%u,\000"
 1828              		.align	2
 1829              	.LC10:
 1830 0014 257500   		.ascii	"%u\000"
 1831              		.section	.text.printAllNode,"ax",%progbits
 1832              		.align	1
 1833              		.global	printAllNode
 1834              		.syntax unified
 1835              		.thumb
 1836              		.thumb_func
 1838              	printAllNode:
 1839              	.LVL136:
 1840              	.LFB11:
 410:C:/Users/leopi/Documents/vs/S-Reo/MazeLibrary\MazeLib.c ****     printf("å…¨ãƒãƒ¼ãƒ‰\r\n");
 1841              		.loc 1 410 1 is_stmt 1 view -0
 1842              		.cfi_startproc
 1843              		@ args = 0, pretend = 0, frame = 0
 1844              		@ frame_needed = 0, uses_anonymous_args = 0
 410:C:/Users/leopi/Documents/vs/S-Reo/MazeLibrary\MazeLib.c ****     printf("å…¨ãƒãƒ¼ãƒ‰\r\n");
 1845              		.loc 1 410 1 is_stmt 0 view .LVU562
 1846 0000 70B5     		push	{r4, r5, r6, lr}
 1847              	.LCFI8:
 1848              		.cfi_def_cfa_offset 16
ARM GAS  C:\Users\leopi\AppData\Local\Temp\ccilUBL0.s 			page 52


 1849              		.cfi_offset 4, -16
 1850              		.cfi_offset 5, -12
 1851              		.cfi_offset 6, -8
 1852              		.cfi_offset 14, -4
 1853 0002 0546     		mov	r5, r0
 411:C:/Users/leopi/Documents/vs/S-Reo/MazeLibrary\MazeLib.c ****     //é–“é•ã£ã¦ã‚‹ã‹ã‚‚
 1854              		.loc 1 411 5 is_stmt 1 view .LVU563
 1855 0004 1948     		ldr	r0, .L139
 1856              	.LVL137:
 411:C:/Users/leopi/Documents/vs/S-Reo/MazeLibrary\MazeLib.c ****     //é–“é•ã£ã¦ã‚‹ã‹ã‚‚
 1857              		.loc 1 411 5 is_stmt 0 view .LVU564
 1858 0006 FFF7FEFF 		bl	puts
 1859              	.LVL138:
 418:C:/Users/leopi/Documents/vs/S-Reo/MazeLibrary\MazeLib.c ****     {
 1860              		.loc 1 418 5 is_stmt 1 view .LVU565
 1861              	.LBB24:
 418:C:/Users/leopi/Documents/vs/S-Reo/MazeLibrary\MazeLib.c ****     {
 1862              		.loc 1 418 9 view .LVU566
 418:C:/Users/leopi/Documents/vs/S-Reo/MazeLibrary\MazeLib.c ****     {
 1863              		.loc 1 418 13 is_stmt 0 view .LVU567
 1864 000a 0024     		movs	r4, #0
 418:C:/Users/leopi/Documents/vs/S-Reo/MazeLibrary\MazeLib.c ****     {
 1865              		.loc 1 418 5 view .LVU568
 1866 000c 25E0     		b	.L129
 1867              	.LVL139:
 1868              	.L130:
 1869              	.LBB25:
 422:C:/Users/leopi/Documents/vs/S-Reo/MazeLibrary\MazeLib.c ****         }
 1870              		.loc 1 422 13 is_stmt 1 discriminator 3 view .LVU569
 422:C:/Users/leopi/Documents/vs/S-Reo/MazeLibrary\MazeLib.c ****         }
 1871              		.loc 1 422 43 is_stmt 0 discriminator 3 view .LVU570
 1872 000e 04EB4413 		add	r3, r4, r4, lsl #5
 1873 0012 3344     		add	r3, r3, r6
 1874 0014 05EBC303 		add	r3, r5, r3, lsl #3
 422:C:/Users/leopi/Documents/vs/S-Reo/MazeLibrary\MazeLib.c ****         }
 1875              		.loc 1 422 13 discriminator 3 view .LVU571
 1876 0018 1979     		ldrb	r1, [r3, #4]	@ zero_extendqisi2
 1877 001a 1548     		ldr	r0, .L139+4
 1878 001c FFF7FEFF 		bl	printf
 1879              	.LVL140:
 420:C:/Users/leopi/Documents/vs/S-Reo/MazeLibrary\MazeLib.c ****         {
 1880              		.loc 1 420 49 is_stmt 1 discriminator 3 view .LVU572
 420:C:/Users/leopi/Documents/vs/S-Reo/MazeLibrary\MazeLib.c ****         {
 1881              		.loc 1 420 50 is_stmt 0 discriminator 3 view .LVU573
 1882 0020 0136     		adds	r6, r6, #1
 1883              	.LVL141:
 1884              	.L134:
 420:C:/Users/leopi/Documents/vs/S-Reo/MazeLibrary\MazeLib.c ****         {
 1885              		.loc 1 420 22 is_stmt 1 discriminator 1 view .LVU574
 420:C:/Users/leopi/Documents/vs/S-Reo/MazeLibrary\MazeLib.c ****         {
 1886              		.loc 1 420 9 is_stmt 0 discriminator 1 view .LVU575
 1887 0022 202E     		cmp	r6, #32
 1888 0024 F3DD     		ble	.L130
 1889              	.LBE25:
 1890              	.LBB26:
 424:C:/Users/leopi/Documents/vs/S-Reo/MazeLibrary\MazeLib.c ****         {
 1891              		.loc 1 424 17 view .LVU576
ARM GAS  C:\Users\leopi\AppData\Local\Temp\ccilUBL0.s 			page 53


 1892 0026 0026     		movs	r6, #0
 1893              	.LVL142:
 424:C:/Users/leopi/Documents/vs/S-Reo/MazeLibrary\MazeLib.c ****         {
 1894              		.loc 1 424 17 view .LVU577
 1895 0028 00E0     		b	.L131
 1896              	.LVL143:
 1897              	.L132:
 424:C:/Users/leopi/Documents/vs/S-Reo/MazeLibrary\MazeLib.c ****         {
 1898              		.loc 1 424 47 is_stmt 1 discriminator 2 view .LVU578
 424:C:/Users/leopi/Documents/vs/S-Reo/MazeLibrary\MazeLib.c ****         {
 1899              		.loc 1 424 48 is_stmt 0 discriminator 2 view .LVU579
 1900 002a 0136     		adds	r6, r6, #1
 1901              	.LVL144:
 1902              	.L131:
 424:C:/Users/leopi/Documents/vs/S-Reo/MazeLibrary\MazeLib.c ****         {
 1903              		.loc 1 424 22 is_stmt 1 discriminator 1 view .LVU580
 424:C:/Users/leopi/Documents/vs/S-Reo/MazeLibrary\MazeLib.c ****         {
 1904              		.loc 1 424 9 is_stmt 0 discriminator 1 view .LVU581
 1905 002c 1F2E     		cmp	r6, #31
 1906 002e 10DC     		bgt	.L137
 426:C:/Users/leopi/Documents/vs/S-Reo/MazeLibrary\MazeLib.c ****             if(j < NUMBER_OF_SQUARES_Y-1)
 1907              		.loc 1 426 13 is_stmt 1 view .LVU582
 426:C:/Users/leopi/Documents/vs/S-Reo/MazeLibrary\MazeLib.c ****             if(j < NUMBER_OF_SQUARES_Y-1)
 1908              		.loc 1 426 41 is_stmt 0 view .LVU583
 1909 0030 631C     		adds	r3, r4, #1
 426:C:/Users/leopi/Documents/vs/S-Reo/MazeLibrary\MazeLib.c ****             if(j < NUMBER_OF_SQUARES_Y-1)
 1910              		.loc 1 426 47 view .LVU584
 1911 0032 06EB4313 		add	r3, r6, r3, lsl #5
 1912 0036 03F58463 		add	r3, r3, #1056
 1913 003a 05EBC303 		add	r3, r5, r3, lsl #3
 426:C:/Users/leopi/Documents/vs/S-Reo/MazeLibrary\MazeLib.c ****             if(j < NUMBER_OF_SQUARES_Y-1)
 1914              		.loc 1 426 13 view .LVU585
 1915 003e 1979     		ldrb	r1, [r3, #4]	@ zero_extendqisi2
 1916 0040 0C48     		ldr	r0, .L139+8
 1917 0042 FFF7FEFF 		bl	printf
 1918              	.LVL145:
 427:C:/Users/leopi/Documents/vs/S-Reo/MazeLibrary\MazeLib.c ****                 printf(",");
 1919              		.loc 1 427 13 is_stmt 1 view .LVU586
 427:C:/Users/leopi/Documents/vs/S-Reo/MazeLibrary\MazeLib.c ****                 printf(",");
 1920              		.loc 1 427 15 is_stmt 0 view .LVU587
 1921 0046 1E2E     		cmp	r6, #30
 1922 0048 EFDC     		bgt	.L132
 428:C:/Users/leopi/Documents/vs/S-Reo/MazeLibrary\MazeLib.c ****         }
 1923              		.loc 1 428 17 is_stmt 1 view .LVU588
 1924 004a 2C20     		movs	r0, #44
 1925 004c FFF7FEFF 		bl	putchar
 1926              	.LVL146:
 1927 0050 EBE7     		b	.L132
 1928              	.L137:
 428:C:/Users/leopi/Documents/vs/S-Reo/MazeLibrary\MazeLib.c ****         }
 1929              		.loc 1 428 17 is_stmt 0 view .LVU589
 1930              	.LBE26:
 430:C:/Users/leopi/Documents/vs/S-Reo/MazeLibrary\MazeLib.c ****     }
 1931              		.loc 1 430 9 is_stmt 1 discriminator 2 view .LVU590
 1932 0052 0948     		ldr	r0, .L139+12
 1933 0054 FFF7FEFF 		bl	puts
 1934              	.LVL147:
ARM GAS  C:\Users\leopi\AppData\Local\Temp\ccilUBL0.s 			page 54


 418:C:/Users/leopi/Documents/vs/S-Reo/MazeLibrary\MazeLib.c ****     {
 1935              		.loc 1 418 43 discriminator 2 view .LVU591
 418:C:/Users/leopi/Documents/vs/S-Reo/MazeLibrary\MazeLib.c ****     {
 1936              		.loc 1 418 44 is_stmt 0 discriminator 2 view .LVU592
 1937 0058 0134     		adds	r4, r4, #1
 1938              	.LVL148:
 1939              	.L129:
 418:C:/Users/leopi/Documents/vs/S-Reo/MazeLibrary\MazeLib.c ****     {
 1940              		.loc 1 418 18 is_stmt 1 discriminator 1 view .LVU593
 418:C:/Users/leopi/Documents/vs/S-Reo/MazeLibrary\MazeLib.c ****     {
 1941              		.loc 1 418 5 is_stmt 0 discriminator 1 view .LVU594
 1942 005a 1F2C     		cmp	r4, #31
 1943 005c 01DC     		bgt	.L138
 1944              	.LBB27:
 420:C:/Users/leopi/Documents/vs/S-Reo/MazeLibrary\MazeLib.c ****         {
 1945              		.loc 1 420 17 view .LVU595
 1946 005e 0126     		movs	r6, #1
 1947 0060 DFE7     		b	.L134
 1948              	.L138:
 1949              	.LBE27:
 1950              	.LBE24:
 432:C:/Users/leopi/Documents/vs/S-Reo/MazeLibrary\MazeLib.c **** }
 1951              		.loc 1 432 5 is_stmt 1 view .LVU596
 1952 0062 0548     		ldr	r0, .L139+12
 1953 0064 FFF7FEFF 		bl	puts
 1954              	.LVL149:
 433:C:/Users/leopi/Documents/vs/S-Reo/MazeLibrary\MazeLib.c **** void printAllNodeExistence(maze_node *mn)
 1955              		.loc 1 433 1 is_stmt 0 view .LVU597
 1956 0068 70BD     		pop	{r4, r5, r6, pc}
 1957              	.LVL150:
 1958              	.L140:
 433:C:/Users/leopi/Documents/vs/S-Reo/MazeLibrary\MazeLib.c **** void printAllNodeExistence(maze_node *mn)
 1959              		.loc 1 433 1 view .LVU598
 1960 006a 00BF     		.align	2
 1961              	.L139:
 1962 006c 00000000 		.word	.LC8
 1963 0070 10000000 		.word	.LC9
 1964 0074 14000000 		.word	.LC10
 1965 0078 3C000000 		.word	.LC4
 1966              		.cfi_endproc
 1967              	.LFE11:
 1969              		.section	.rodata.printAllNodeExistence.str1.4,"aMS",%progbits,1
 1970              		.align	2
 1971              	.LC11:
 1972 0000 E585A8E3 		.ascii	"\345\205\250\343\203\216\343\203\274\343\203\211\343"
 1972      838EE383 
 1972      BCE38389 
 1972      E3
 1973 000d 81AEE5A3 		.ascii	"\201\256\345\243\201\343\201\256\345\255\230\345\234"
 1973      81E381AE 
 1973      E5AD98E5 
 1973      9C
 1974 001a A80D00   		.ascii	"\250\015\000"
 1975              		.section	.text.printAllNodeExistence,"ax",%progbits
 1976              		.align	1
 1977              		.global	printAllNodeExistence
 1978              		.syntax unified
ARM GAS  C:\Users\leopi\AppData\Local\Temp\ccilUBL0.s 			page 55


 1979              		.thumb
 1980              		.thumb_func
 1982              	printAllNodeExistence:
 1983              	.LVL151:
 1984              	.LFB12:
 435:C:/Users/leopi/Documents/vs/S-Reo/MazeLibrary\MazeLib.c ****     printf("å…¨ãƒãƒ¼ãƒ‰ã®å£ã®å­˜åœ¨\r\n");
 1985              		.loc 1 435 1 is_stmt 1 view -0
 1986              		.cfi_startproc
 1987              		@ args = 0, pretend = 0, frame = 0
 1988              		@ frame_needed = 0, uses_anonymous_args = 0
 435:C:/Users/leopi/Documents/vs/S-Reo/MazeLibrary\MazeLib.c ****     printf("å…¨ãƒãƒ¼ãƒ‰ã®å£ã®å­˜åœ¨\r\n");
 1989              		.loc 1 435 1 is_stmt 0 view .LVU600
 1990 0000 70B5     		push	{r4, r5, r6, lr}
 1991              	.LCFI9:
 1992              		.cfi_def_cfa_offset 16
 1993              		.cfi_offset 4, -16
 1994              		.cfi_offset 5, -12
 1995              		.cfi_offset 6, -8
 1996              		.cfi_offset 14, -4
 1997 0002 0646     		mov	r6, r0
 436:C:/Users/leopi/Documents/vs/S-Reo/MazeLibrary\MazeLib.c ****     //é–“é•ã£ã¦ã‚‹ã‹ã‚‚
 1998              		.loc 1 436 5 is_stmt 1 view .LVU601
 1999 0004 1848     		ldr	r0, .L152
 2000              	.LVL152:
 436:C:/Users/leopi/Documents/vs/S-Reo/MazeLibrary\MazeLib.c ****     //é–“é•ã£ã¦ã‚‹ã‹ã‚‚
 2001              		.loc 1 436 5 is_stmt 0 view .LVU602
 2002 0006 FFF7FEFF 		bl	puts
 2003              	.LVL153:
 443:C:/Users/leopi/Documents/vs/S-Reo/MazeLibrary\MazeLib.c ****     {
 2004              		.loc 1 443 5 is_stmt 1 view .LVU603
 2005              	.LBB28:
 443:C:/Users/leopi/Documents/vs/S-Reo/MazeLibrary\MazeLib.c ****     {
 2006              		.loc 1 443 9 view .LVU604
 443:C:/Users/leopi/Documents/vs/S-Reo/MazeLibrary\MazeLib.c ****     {
 2007              		.loc 1 443 13 is_stmt 0 view .LVU605
 2008 000a 0025     		movs	r5, #0
 443:C:/Users/leopi/Documents/vs/S-Reo/MazeLibrary\MazeLib.c ****     {
 2009              		.loc 1 443 5 view .LVU606
 2010 000c 23E0     		b	.L142
 2011              	.LVL154:
 2012              	.L143:
 2013              	.LBB29:
 447:C:/Users/leopi/Documents/vs/S-Reo/MazeLibrary\MazeLib.c ****         }
 2014              		.loc 1 447 13 is_stmt 1 discriminator 3 view .LVU607
 447:C:/Users/leopi/Documents/vs/S-Reo/MazeLibrary\MazeLib.c ****         }
 2015              		.loc 1 447 43 is_stmt 0 discriminator 3 view .LVU608
 2016 000e 05EB4513 		add	r3, r5, r5, lsl #5
 2017 0012 2344     		add	r3, r3, r4
 447:C:/Users/leopi/Documents/vs/S-Reo/MazeLibrary\MazeLib.c ****         }
 2018              		.loc 1 447 13 discriminator 3 view .LVU609
 2019 0014 16F83310 		ldrb	r1, [r6, r3, lsl #3]	@ zero_extendqisi2
 2020 0018 1448     		ldr	r0, .L152+4
 2021 001a FFF7FEFF 		bl	printf
 2022              	.LVL155:
 445:C:/Users/leopi/Documents/vs/S-Reo/MazeLibrary\MazeLib.c ****         {
 2023              		.loc 1 445 49 is_stmt 1 discriminator 3 view .LVU610
 445:C:/Users/leopi/Documents/vs/S-Reo/MazeLibrary\MazeLib.c ****         {
ARM GAS  C:\Users\leopi\AppData\Local\Temp\ccilUBL0.s 			page 56


 2024              		.loc 1 445 50 is_stmt 0 discriminator 3 view .LVU611
 2025 001e 0134     		adds	r4, r4, #1
 2026              	.LVL156:
 2027              	.L147:
 445:C:/Users/leopi/Documents/vs/S-Reo/MazeLibrary\MazeLib.c ****         {
 2028              		.loc 1 445 22 is_stmt 1 discriminator 1 view .LVU612
 445:C:/Users/leopi/Documents/vs/S-Reo/MazeLibrary\MazeLib.c ****         {
 2029              		.loc 1 445 9 is_stmt 0 discriminator 1 view .LVU613
 2030 0020 202C     		cmp	r4, #32
 2031 0022 F4DD     		ble	.L143
 2032              	.LBE29:
 2033              	.LBB30:
 449:C:/Users/leopi/Documents/vs/S-Reo/MazeLibrary\MazeLib.c ****         {
 2034              		.loc 1 449 17 view .LVU614
 2035 0024 0024     		movs	r4, #0
 2036              	.LVL157:
 449:C:/Users/leopi/Documents/vs/S-Reo/MazeLibrary\MazeLib.c ****         {
 2037              		.loc 1 449 17 view .LVU615
 2038 0026 00E0     		b	.L144
 2039              	.LVL158:
 2040              	.L145:
 449:C:/Users/leopi/Documents/vs/S-Reo/MazeLibrary\MazeLib.c ****         {
 2041              		.loc 1 449 47 is_stmt 1 discriminator 2 view .LVU616
 449:C:/Users/leopi/Documents/vs/S-Reo/MazeLibrary\MazeLib.c ****         {
 2042              		.loc 1 449 48 is_stmt 0 discriminator 2 view .LVU617
 2043 0028 0134     		adds	r4, r4, #1
 2044              	.LVL159:
 2045              	.L144:
 449:C:/Users/leopi/Documents/vs/S-Reo/MazeLibrary\MazeLib.c ****         {
 2046              		.loc 1 449 22 is_stmt 1 discriminator 1 view .LVU618
 449:C:/Users/leopi/Documents/vs/S-Reo/MazeLibrary\MazeLib.c ****         {
 2047              		.loc 1 449 9 is_stmt 0 discriminator 1 view .LVU619
 2048 002a 1F2C     		cmp	r4, #31
 2049 002c 0FDC     		bgt	.L150
 451:C:/Users/leopi/Documents/vs/S-Reo/MazeLibrary\MazeLib.c ****             if(j < NUMBER_OF_SQUARES_Y-1)
 2050              		.loc 1 451 13 is_stmt 1 view .LVU620
 451:C:/Users/leopi/Documents/vs/S-Reo/MazeLibrary\MazeLib.c ****             if(j < NUMBER_OF_SQUARES_Y-1)
 2051              		.loc 1 451 41 is_stmt 0 view .LVU621
 2052 002e 6B1C     		adds	r3, r5, #1
 451:C:/Users/leopi/Documents/vs/S-Reo/MazeLibrary\MazeLib.c ****             if(j < NUMBER_OF_SQUARES_Y-1)
 2053              		.loc 1 451 47 view .LVU622
 2054 0030 04EB4313 		add	r3, r4, r3, lsl #5
 2055 0034 03F58463 		add	r3, r3, #1056
 451:C:/Users/leopi/Documents/vs/S-Reo/MazeLibrary\MazeLib.c ****             if(j < NUMBER_OF_SQUARES_Y-1)
 2056              		.loc 1 451 13 view .LVU623
 2057 0038 16F83310 		ldrb	r1, [r6, r3, lsl #3]	@ zero_extendqisi2
 2058 003c 0C48     		ldr	r0, .L152+8
 2059 003e FFF7FEFF 		bl	printf
 2060              	.LVL160:
 452:C:/Users/leopi/Documents/vs/S-Reo/MazeLibrary\MazeLib.c ****                 printf(",");
 2061              		.loc 1 452 13 is_stmt 1 view .LVU624
 452:C:/Users/leopi/Documents/vs/S-Reo/MazeLibrary\MazeLib.c ****                 printf(",");
 2062              		.loc 1 452 15 is_stmt 0 view .LVU625
 2063 0042 1E2C     		cmp	r4, #30
 2064 0044 F0DC     		bgt	.L145
 453:C:/Users/leopi/Documents/vs/S-Reo/MazeLibrary\MazeLib.c ****         }
 2065              		.loc 1 453 17 is_stmt 1 view .LVU626
ARM GAS  C:\Users\leopi\AppData\Local\Temp\ccilUBL0.s 			page 57


 2066 0046 2C20     		movs	r0, #44
 2067 0048 FFF7FEFF 		bl	putchar
 2068              	.LVL161:
 2069 004c ECE7     		b	.L145
 2070              	.L150:
 453:C:/Users/leopi/Documents/vs/S-Reo/MazeLibrary\MazeLib.c ****         }
 2071              		.loc 1 453 17 is_stmt 0 view .LVU627
 2072              	.LBE30:
 455:C:/Users/leopi/Documents/vs/S-Reo/MazeLibrary\MazeLib.c ****     }
 2073              		.loc 1 455 9 is_stmt 1 discriminator 2 view .LVU628
 2074 004e 0948     		ldr	r0, .L152+12
 2075 0050 FFF7FEFF 		bl	puts
 2076              	.LVL162:
 443:C:/Users/leopi/Documents/vs/S-Reo/MazeLibrary\MazeLib.c ****     {
 2077              		.loc 1 443 43 discriminator 2 view .LVU629
 443:C:/Users/leopi/Documents/vs/S-Reo/MazeLibrary\MazeLib.c ****     {
 2078              		.loc 1 443 44 is_stmt 0 discriminator 2 view .LVU630
 2079 0054 0135     		adds	r5, r5, #1
 2080              	.LVL163:
 2081              	.L142:
 443:C:/Users/leopi/Documents/vs/S-Reo/MazeLibrary\MazeLib.c ****     {
 2082              		.loc 1 443 18 is_stmt 1 discriminator 1 view .LVU631
 443:C:/Users/leopi/Documents/vs/S-Reo/MazeLibrary\MazeLib.c ****     {
 2083              		.loc 1 443 5 is_stmt 0 discriminator 1 view .LVU632
 2084 0056 1F2D     		cmp	r5, #31
 2085 0058 01DC     		bgt	.L151
 2086              	.LBB31:
 445:C:/Users/leopi/Documents/vs/S-Reo/MazeLibrary\MazeLib.c ****         {
 2087              		.loc 1 445 17 view .LVU633
 2088 005a 0124     		movs	r4, #1
 2089 005c E0E7     		b	.L147
 2090              	.L151:
 2091              	.LBE31:
 2092              	.LBE28:
 457:C:/Users/leopi/Documents/vs/S-Reo/MazeLibrary\MazeLib.c **** }
 2093              		.loc 1 457 5 is_stmt 1 view .LVU634
 2094 005e 0548     		ldr	r0, .L152+12
 2095 0060 FFF7FEFF 		bl	puts
 2096              	.LVL164:
 458:C:/Users/leopi/Documents/vs/S-Reo/MazeLibrary\MazeLib.c **** 
 2097              		.loc 1 458 1 is_stmt 0 view .LVU635
 2098 0064 70BD     		pop	{r4, r5, r6, pc}
 2099              	.LVL165:
 2100              	.L153:
 458:C:/Users/leopi/Documents/vs/S-Reo/MazeLibrary\MazeLib.c **** 
 2101              		.loc 1 458 1 view .LVU636
 2102 0066 00BF     		.align	2
 2103              	.L152:
 2104 0068 00000000 		.word	.LC11
 2105 006c 10000000 		.word	.LC9
 2106 0070 14000000 		.word	.LC10
 2107 0074 3C000000 		.word	.LC4
 2108              		.cfi_endproc
 2109              	.LFE12:
 2111              		.section	.rodata.outputDataToFile.str1.4,"aMS",%progbits,1
 2112              		.align	2
 2113              	.LC12:
ARM GAS  C:\Users\leopi\AppData\Local\Temp\ccilUBL0.s 			page 58


 2114 0000 7700     		.ascii	"w\000"
 2115 0002 0000     		.align	2
 2116              	.LC13:
 2117 0004 25732066 		.ascii	"%s file not open!\012\000"
 2117      696C6520 
 2117      6E6F7420 
 2117      6F70656E 
 2117      210A00
 2118 0017 00       		.align	2
 2119              	.LC14:
 2120 0018 25732066 		.ascii	"%s file opened!\012\000"
 2120      696C6520 
 2120      6F70656E 
 2120      6564210A 
 2120      00
 2121 0029 000000   		.align	2
 2122              	.LC15:
 2123 002c 20474747 		.ascii	" GGG \000"
 2123      2000
 2124 0032 0000     		.align	2
 2125              	.LC16:
 2126 0034 0D0A00   		.ascii	"\015\012\000"
 2127              		.section	.text.outputDataToFile,"ax",%progbits
 2128              		.align	1
 2129              		.global	outputDataToFile
 2130              		.syntax unified
 2131              		.thumb
 2132              		.thumb_func
 2134              	outputDataToFile:
 2135              	.LVL166:
 2136              	.LFB13:
 461:C:/Users/leopi/Documents/vs/S-Reo/MazeLibrary\MazeLib.c ****     char weight_file[20]={0};
 2137              		.loc 1 461 1 is_stmt 1 view -0
 2138              		.cfi_startproc
 2139              		@ args = 0, pretend = 0, frame = 24
 2140              		@ frame_needed = 0, uses_anonymous_args = 0
 461:C:/Users/leopi/Documents/vs/S-Reo/MazeLibrary\MazeLib.c ****     char weight_file[20]={0};
 2141              		.loc 1 461 1 is_stmt 0 view .LVU638
 2142 0000 F0B5     		push	{r4, r5, r6, r7, lr}
 2143              	.LCFI10:
 2144              		.cfi_def_cfa_offset 20
 2145              		.cfi_offset 4, -20
 2146              		.cfi_offset 5, -16
 2147              		.cfi_offset 6, -12
 2148              		.cfi_offset 7, -8
 2149              		.cfi_offset 14, -4
 2150 0002 87B0     		sub	sp, sp, #28
 2151              	.LCFI11:
 2152              		.cfi_def_cfa_offset 48
 2153 0004 0746     		mov	r7, r0
 2154 0006 0A46     		mov	r2, r1
 462:C:/Users/leopi/Documents/vs/S-Reo/MazeLibrary\MazeLib.c ****     strcpy_s(&weight_file[0], 20,name);
 2155              		.loc 1 462 5 is_stmt 1 view .LVU639
 462:C:/Users/leopi/Documents/vs/S-Reo/MazeLibrary\MazeLib.c ****     strcpy_s(&weight_file[0], 20,name);
 2156              		.loc 1 462 10 is_stmt 0 view .LVU640
 2157 0008 0023     		movs	r3, #0
 2158 000a 0193     		str	r3, [sp, #4]
ARM GAS  C:\Users\leopi\AppData\Local\Temp\ccilUBL0.s 			page 59


 2159 000c 0293     		str	r3, [sp, #8]
 2160 000e 0393     		str	r3, [sp, #12]
 2161 0010 0493     		str	r3, [sp, #16]
 2162 0012 0593     		str	r3, [sp, #20]
 463:C:/Users/leopi/Documents/vs/S-Reo/MazeLibrary\MazeLib.c ****     FILE*fp;
 2163              		.loc 1 463 5 is_stmt 1 view .LVU641
 2164 0014 1421     		movs	r1, #20
 2165              	.LVL167:
 463:C:/Users/leopi/Documents/vs/S-Reo/MazeLibrary\MazeLib.c ****     FILE*fp;
 2166              		.loc 1 463 5 is_stmt 0 view .LVU642
 2167 0016 01A8     		add	r0, sp, #4
 2168              	.LVL168:
 463:C:/Users/leopi/Documents/vs/S-Reo/MazeLibrary\MazeLib.c ****     FILE*fp;
 2169              		.loc 1 463 5 view .LVU643
 2170 0018 FFF7FEFF 		bl	strcpy_s
 2171              	.LVL169:
 464:C:/Users/leopi/Documents/vs/S-Reo/MazeLibrary\MazeLib.c ****     fp = fopen(weight_file,"w");
 2172              		.loc 1 464 5 is_stmt 1 view .LVU644
 465:C:/Users/leopi/Documents/vs/S-Reo/MazeLibrary\MazeLib.c ****     if(fp == NULL) {
 2173              		.loc 1 465 5 view .LVU645
 465:C:/Users/leopi/Documents/vs/S-Reo/MazeLibrary\MazeLib.c ****     if(fp == NULL) {
 2174              		.loc 1 465 10 is_stmt 0 view .LVU646
 2175 001c 4E49     		ldr	r1, .L178
 2176 001e 01A8     		add	r0, sp, #4
 2177 0020 FFF7FEFF 		bl	fopen
 2178              	.LVL170:
 466:C:/Users/leopi/Documents/vs/S-Reo/MazeLibrary\MazeLib.c **** 		printf("%s file not open!\n", weight_file);
 2179              		.loc 1 466 5 is_stmt 1 view .LVU647
 466:C:/Users/leopi/Documents/vs/S-Reo/MazeLibrary\MazeLib.c **** 		printf("%s file not open!\n", weight_file);
 2180              		.loc 1 466 7 is_stmt 0 view .LVU648
 2181 0024 30B1     		cbz	r0, .L173
 2182 0026 0546     		mov	r5, r0
 470:C:/Users/leopi/Documents/vs/S-Reo/MazeLibrary\MazeLib.c **** 	}
 2183              		.loc 1 470 3 is_stmt 1 view .LVU649
 2184 0028 01A9     		add	r1, sp, #4
 2185 002a 4C48     		ldr	r0, .L178+4
 2186              	.LVL171:
 470:C:/Users/leopi/Documents/vs/S-Reo/MazeLibrary\MazeLib.c **** 	}
 2187              		.loc 1 470 3 is_stmt 0 view .LVU650
 2188 002c FFF7FEFF 		bl	printf
 2189              	.LVL172:
 473:C:/Users/leopi/Documents/vs/S-Reo/MazeLibrary\MazeLib.c ****     {
 2190              		.loc 1 473 5 is_stmt 1 view .LVU651
 2191              	.LBB32:
 473:C:/Users/leopi/Documents/vs/S-Reo/MazeLibrary\MazeLib.c ****     {
 2192              		.loc 1 473 9 view .LVU652
 473:C:/Users/leopi/Documents/vs/S-Reo/MazeLibrary\MazeLib.c ****     {
 2193              		.loc 1 473 13 is_stmt 0 view .LVU653
 2194 0030 2026     		movs	r6, #32
 473:C:/Users/leopi/Documents/vs/S-Reo/MazeLibrary\MazeLib.c ****     {
 2195              		.loc 1 473 5 view .LVU654
 2196 0032 5DE0     		b	.L157
 2197              	.LVL173:
 2198              	.L173:
 473:C:/Users/leopi/Documents/vs/S-Reo/MazeLibrary\MazeLib.c ****     {
 2199              		.loc 1 473 5 view .LVU655
 2200              	.LBE32:
ARM GAS  C:\Users\leopi\AppData\Local\Temp\ccilUBL0.s 			page 60


 467:C:/Users/leopi/Documents/vs/S-Reo/MazeLibrary\MazeLib.c **** 		return false;
 2201              		.loc 1 467 3 is_stmt 1 view .LVU656
 2202 0034 01A9     		add	r1, sp, #4
 2203 0036 4A48     		ldr	r0, .L178+8
 2204              	.LVL174:
 467:C:/Users/leopi/Documents/vs/S-Reo/MazeLibrary\MazeLib.c **** 		return false;
 2205              		.loc 1 467 3 is_stmt 0 view .LVU657
 2206 0038 FFF7FEFF 		bl	printf
 2207              	.LVL175:
 468:C:/Users/leopi/Documents/vs/S-Reo/MazeLibrary\MazeLib.c **** 	} else {
 2208              		.loc 1 468 3 is_stmt 1 view .LVU658
 468:C:/Users/leopi/Documents/vs/S-Reo/MazeLibrary\MazeLib.c **** 	} else {
 2209              		.loc 1 468 10 is_stmt 0 view .LVU659
 2210 003c 0020     		movs	r0, #0
 2211 003e 88E0     		b	.L156
 2212              	.LVL176:
 2213              	.L159:
 2214              	.LBB36:
 2215              	.LBB33:
 485:C:/Users/leopi/Documents/vs/S-Reo/MazeLibrary\MazeLib.c ****             }
 2216              		.loc 1 485 17 is_stmt 1 view .LVU660
 485:C:/Users/leopi/Documents/vs/S-Reo/MazeLibrary\MazeLib.c ****             }
 2217              		.loc 1 485 55 is_stmt 0 view .LVU661
 2218 0040 04EB4413 		add	r3, r4, r4, lsl #5
 2219 0044 3344     		add	r3, r3, r6
 2220 0046 07EBC303 		add	r3, r7, r3, lsl #3
 485:C:/Users/leopi/Documents/vs/S-Reo/MazeLibrary\MazeLib.c ****             }
 2221              		.loc 1 485 17 view .LVU662
 2222 004a 5A88     		ldrh	r2, [r3, #2]
 2223 004c 4549     		ldr	r1, .L178+12
 2224 004e 2846     		mov	r0, r5
 2225 0050 FFF7FEFF 		bl	fprintf
 2226              	.LVL177:
 2227              	.L160:
 487:C:/Users/leopi/Documents/vs/S-Reo/MazeLibrary\MazeLib.c ****                 fprintf(fp,"     ");
 2228              		.loc 1 487 13 is_stmt 1 view .LVU663
 487:C:/Users/leopi/Documents/vs/S-Reo/MazeLibrary\MazeLib.c ****                 fprintf(fp,"     ");
 2229              		.loc 1 487 15 is_stmt 0 view .LVU664
 2230 0054 1E2C     		cmp	r4, #30
 2231 0056 05DC     		bgt	.L161
 488:C:/Users/leopi/Documents/vs/S-Reo/MazeLibrary\MazeLib.c ****         }
 2232              		.loc 1 488 17 is_stmt 1 view .LVU665
 2233 0058 2B46     		mov	r3, r5
 2234 005a 0522     		movs	r2, #5
 2235 005c 0121     		movs	r1, #1
 2236 005e 4248     		ldr	r0, .L178+16
 2237 0060 FFF7FEFF 		bl	fwrite
 2238              	.LVL178:
 2239              	.L161:
 477:C:/Users/leopi/Documents/vs/S-Reo/MazeLibrary\MazeLib.c ****         {
 2240              		.loc 1 477 47 discriminator 2 view .LVU666
 477:C:/Users/leopi/Documents/vs/S-Reo/MazeLibrary\MazeLib.c ****         {
 2241              		.loc 1 477 48 is_stmt 0 discriminator 2 view .LVU667
 2242 0064 0134     		adds	r4, r4, #1
 2243              	.LVL179:
 2244              	.L158:
 477:C:/Users/leopi/Documents/vs/S-Reo/MazeLibrary\MazeLib.c ****         {
ARM GAS  C:\Users\leopi\AppData\Local\Temp\ccilUBL0.s 			page 61


 2245              		.loc 1 477 22 is_stmt 1 discriminator 1 view .LVU668
 477:C:/Users/leopi/Documents/vs/S-Reo/MazeLibrary\MazeLib.c ****         {
 2246              		.loc 1 477 9 is_stmt 0 discriminator 1 view .LVU669
 2247 0066 1F2C     		cmp	r4, #31
 2248 0068 0DDC     		bgt	.L174
 479:C:/Users/leopi/Documents/vs/S-Reo/MazeLibrary\MazeLib.c ****             {
 2249              		.loc 1 479 13 is_stmt 1 view .LVU670
 479:C:/Users/leopi/Documents/vs/S-Reo/MazeLibrary\MazeLib.c ****             {
 2250              		.loc 1 479 16 is_stmt 0 view .LVU671
 2251 006a F2B2     		uxtb	r2, r6
 2252 006c E1B2     		uxtb	r1, r4
 2253 006e 3846     		mov	r0, r7
 2254 0070 FFF7FEFF 		bl	judgeRawNodeGoal
 2255              	.LVL180:
 479:C:/Users/leopi/Documents/vs/S-Reo/MazeLibrary\MazeLib.c ****             {
 2256              		.loc 1 479 15 view .LVU672
 2257 0074 0028     		cmp	r0, #0
 2258 0076 E3D0     		beq	.L159
 481:C:/Users/leopi/Documents/vs/S-Reo/MazeLibrary\MazeLib.c ****             }
 2259              		.loc 1 481 17 is_stmt 1 view .LVU673
 2260 0078 2B46     		mov	r3, r5
 2261 007a 0522     		movs	r2, #5
 2262 007c 0121     		movs	r1, #1
 2263 007e 3B48     		ldr	r0, .L178+20
 2264 0080 FFF7FEFF 		bl	fwrite
 2265              	.LVL181:
 2266 0084 E6E7     		b	.L160
 2267              	.L174:
 481:C:/Users/leopi/Documents/vs/S-Reo/MazeLibrary\MazeLib.c ****             }
 2268              		.loc 1 481 17 is_stmt 0 view .LVU674
 2269              	.LBE33:
 490:C:/Users/leopi/Documents/vs/S-Reo/MazeLibrary\MazeLib.c ****                 
 2270              		.loc 1 490 9 is_stmt 1 view .LVU675
 2271 0086 2B46     		mov	r3, r5
 2272 0088 0222     		movs	r2, #2
 2273 008a 0121     		movs	r1, #1
 2274 008c 3848     		ldr	r0, .L178+24
 2275 008e FFF7FEFF 		bl	fwrite
 2276              	.LVL182:
 493:C:/Users/leopi/Documents/vs/S-Reo/MazeLibrary\MazeLib.c ****         {
 2277              		.loc 1 493 9 view .LVU676
 2278              	.LBB34:
 493:C:/Users/leopi/Documents/vs/S-Reo/MazeLibrary\MazeLib.c ****         {
 2279              		.loc 1 493 13 view .LVU677
 493:C:/Users/leopi/Documents/vs/S-Reo/MazeLibrary\MazeLib.c ****         {
 2280              		.loc 1 493 17 is_stmt 0 view .LVU678
 2281 0092 0024     		movs	r4, #0
 2282              	.LVL183:
 493:C:/Users/leopi/Documents/vs/S-Reo/MazeLibrary\MazeLib.c ****         {
 2283              		.loc 1 493 9 view .LVU679
 2284 0094 14E0     		b	.L163
 2285              	.LVL184:
 2286              	.L164:
 501:C:/Users/leopi/Documents/vs/S-Reo/MazeLibrary\MazeLib.c ****             }
 2287              		.loc 1 501 17 is_stmt 1 view .LVU680
 501:C:/Users/leopi/Documents/vs/S-Reo/MazeLibrary\MazeLib.c ****             }
 2288              		.loc 1 501 57 is_stmt 0 view .LVU681
ARM GAS  C:\Users\leopi\AppData\Local\Temp\ccilUBL0.s 			page 62


 2289 0096 731E     		subs	r3, r6, #1
 501:C:/Users/leopi/Documents/vs/S-Reo/MazeLibrary\MazeLib.c ****             }
 2290              		.loc 1 501 60 view .LVU682
 2291 0098 03EB4413 		add	r3, r3, r4, lsl #5
 2292 009c 03F58463 		add	r3, r3, #1056
 2293 00a0 07EBC303 		add	r3, r7, r3, lsl #3
 501:C:/Users/leopi/Documents/vs/S-Reo/MazeLibrary\MazeLib.c ****             }
 2294              		.loc 1 501 17 view .LVU683
 2295 00a4 5A88     		ldrh	r2, [r3, #2]
 2296 00a6 2F49     		ldr	r1, .L178+12
 2297 00a8 2846     		mov	r0, r5
 2298 00aa FFF7FEFF 		bl	fprintf
 2299              	.LVL185:
 2300              	.L165:
 503:C:/Users/leopi/Documents/vs/S-Reo/MazeLibrary\MazeLib.c ****                 fprintf(fp,"     ");
 2301              		.loc 1 503 13 is_stmt 1 view .LVU684
 503:C:/Users/leopi/Documents/vs/S-Reo/MazeLibrary\MazeLib.c ****                 fprintf(fp,"     ");
 2302              		.loc 1 503 15 is_stmt 0 view .LVU685
 2303 00ae 1F2C     		cmp	r4, #31
 2304 00b0 05DC     		bgt	.L166
 504:C:/Users/leopi/Documents/vs/S-Reo/MazeLibrary\MazeLib.c ****         }
 2305              		.loc 1 504 17 is_stmt 1 view .LVU686
 2306 00b2 2B46     		mov	r3, r5
 2307 00b4 0522     		movs	r2, #5
 2308 00b6 0121     		movs	r1, #1
 2309 00b8 2B48     		ldr	r0, .L178+16
 2310 00ba FFF7FEFF 		bl	fwrite
 2311              	.LVL186:
 2312              	.L166:
 493:C:/Users/leopi/Documents/vs/S-Reo/MazeLibrary\MazeLib.c ****         {
 2313              		.loc 1 493 49 discriminator 2 view .LVU687
 493:C:/Users/leopi/Documents/vs/S-Reo/MazeLibrary\MazeLib.c ****         {
 2314              		.loc 1 493 50 is_stmt 0 discriminator 2 view .LVU688
 2315 00be 0134     		adds	r4, r4, #1
 2316              	.LVL187:
 2317              	.L163:
 493:C:/Users/leopi/Documents/vs/S-Reo/MazeLibrary\MazeLib.c ****         {
 2318              		.loc 1 493 22 is_stmt 1 discriminator 1 view .LVU689
 493:C:/Users/leopi/Documents/vs/S-Reo/MazeLibrary\MazeLib.c ****         {
 2319              		.loc 1 493 9 is_stmt 0 discriminator 1 view .LVU690
 2320 00c0 202C     		cmp	r4, #32
 2321 00c2 0EDC     		bgt	.L175
 495:C:/Users/leopi/Documents/vs/S-Reo/MazeLibrary\MazeLib.c ****             {
 2322              		.loc 1 495 13 is_stmt 1 view .LVU691
 495:C:/Users/leopi/Documents/vs/S-Reo/MazeLibrary\MazeLib.c ****             {
 2323              		.loc 1 495 16 is_stmt 0 view .LVU692
 2324 00c4 721E     		subs	r2, r6, #1
 2325 00c6 D2B2     		uxtb	r2, r2
 2326 00c8 E1B2     		uxtb	r1, r4
 2327 00ca 3846     		mov	r0, r7
 2328 00cc FFF7FEFF 		bl	judgeColumnNodeGoal
 2329              	.LVL188:
 495:C:/Users/leopi/Documents/vs/S-Reo/MazeLibrary\MazeLib.c ****             {
 2330              		.loc 1 495 15 view .LVU693
 2331 00d0 0028     		cmp	r0, #0
 2332 00d2 E0D0     		beq	.L164
 497:C:/Users/leopi/Documents/vs/S-Reo/MazeLibrary\MazeLib.c ****             }
ARM GAS  C:\Users\leopi\AppData\Local\Temp\ccilUBL0.s 			page 63


 2333              		.loc 1 497 17 is_stmt 1 view .LVU694
 2334 00d4 2B46     		mov	r3, r5
 2335 00d6 0522     		movs	r2, #5
 2336 00d8 0121     		movs	r1, #1
 2337 00da 2448     		ldr	r0, .L178+20
 2338 00dc FFF7FEFF 		bl	fwrite
 2339              	.LVL189:
 2340 00e0 E5E7     		b	.L165
 2341              	.L175:
 497:C:/Users/leopi/Documents/vs/S-Reo/MazeLibrary\MazeLib.c ****             }
 2342              		.loc 1 497 17 is_stmt 0 view .LVU695
 2343              	.LBE34:
 506:C:/Users/leopi/Documents/vs/S-Reo/MazeLibrary\MazeLib.c ****     }
 2344              		.loc 1 506 9 is_stmt 1 discriminator 2 view .LVU696
 2345 00e2 2B46     		mov	r3, r5
 2346 00e4 0222     		movs	r2, #2
 2347 00e6 0121     		movs	r1, #1
 2348 00e8 2148     		ldr	r0, .L178+24
 2349 00ea FFF7FEFF 		bl	fwrite
 2350              	.LVL190:
 473:C:/Users/leopi/Documents/vs/S-Reo/MazeLibrary\MazeLib.c ****     {
 2351              		.loc 1 473 43 discriminator 2 view .LVU697
 473:C:/Users/leopi/Documents/vs/S-Reo/MazeLibrary\MazeLib.c ****     {
 2352              		.loc 1 473 44 is_stmt 0 discriminator 2 view .LVU698
 2353 00ee 013E     		subs	r6, r6, #1
 2354              	.LVL191:
 2355              	.L157:
 473:C:/Users/leopi/Documents/vs/S-Reo/MazeLibrary\MazeLib.c ****     {
 2356              		.loc 1 473 36 is_stmt 1 discriminator 1 view .LVU699
 473:C:/Users/leopi/Documents/vs/S-Reo/MazeLibrary\MazeLib.c ****     {
 2357              		.loc 1 473 5 is_stmt 0 discriminator 1 view .LVU700
 2358 00f0 002E     		cmp	r6, #0
 2359 00f2 07DD     		ble	.L176
 476:C:/Users/leopi/Documents/vs/S-Reo/MazeLibrary\MazeLib.c ****         for(int x=0; x < NUMBER_OF_SQUARES_X; x++)
 2360              		.loc 1 476 9 is_stmt 1 view .LVU701
 2361 00f4 2B46     		mov	r3, r5
 2362 00f6 0522     		movs	r2, #5
 2363 00f8 0121     		movs	r1, #1
 2364 00fa 1B48     		ldr	r0, .L178+16
 2365 00fc FFF7FEFF 		bl	fwrite
 2366              	.LVL192:
 477:C:/Users/leopi/Documents/vs/S-Reo/MazeLibrary\MazeLib.c ****         {
 2367              		.loc 1 477 9 view .LVU702
 2368              	.LBB35:
 477:C:/Users/leopi/Documents/vs/S-Reo/MazeLibrary\MazeLib.c ****         {
 2369              		.loc 1 477 13 view .LVU703
 477:C:/Users/leopi/Documents/vs/S-Reo/MazeLibrary\MazeLib.c ****         {
 2370              		.loc 1 477 17 is_stmt 0 view .LVU704
 2371 0100 0024     		movs	r4, #0
 477:C:/Users/leopi/Documents/vs/S-Reo/MazeLibrary\MazeLib.c ****         {
 2372              		.loc 1 477 9 view .LVU705
 2373 0102 B0E7     		b	.L158
 2374              	.LVL193:
 2375              	.L176:
 477:C:/Users/leopi/Documents/vs/S-Reo/MazeLibrary\MazeLib.c ****         {
 2376              		.loc 1 477 9 view .LVU706
 2377              	.LBE35:
ARM GAS  C:\Users\leopi\AppData\Local\Temp\ccilUBL0.s 			page 64


 2378              	.LBE36:
 509:C:/Users/leopi/Documents/vs/S-Reo/MazeLibrary\MazeLib.c ****     for(int x=0; x < NUMBER_OF_SQUARES_X; x++)
 2379              		.loc 1 509 5 is_stmt 1 view .LVU707
 2380 0104 2B46     		mov	r3, r5
 2381 0106 0522     		movs	r2, #5
 2382 0108 0121     		movs	r1, #1
 2383 010a 1748     		ldr	r0, .L178+16
 2384 010c FFF7FEFF 		bl	fwrite
 2385              	.LVL194:
 510:C:/Users/leopi/Documents/vs/S-Reo/MazeLibrary\MazeLib.c ****     {
 2386              		.loc 1 510 5 view .LVU708
 2387              	.LBB37:
 510:C:/Users/leopi/Documents/vs/S-Reo/MazeLibrary\MazeLib.c ****     {
 2388              		.loc 1 510 9 view .LVU709
 510:C:/Users/leopi/Documents/vs/S-Reo/MazeLibrary\MazeLib.c ****     {
 2389              		.loc 1 510 13 is_stmt 0 view .LVU710
 2390 0110 0024     		movs	r4, #0
 510:C:/Users/leopi/Documents/vs/S-Reo/MazeLibrary\MazeLib.c ****     {
 2391              		.loc 1 510 5 view .LVU711
 2392 0112 00E0     		b	.L169
 2393              	.LVL195:
 2394              	.L170:
 510:C:/Users/leopi/Documents/vs/S-Reo/MazeLibrary\MazeLib.c ****     {
 2395              		.loc 1 510 43 is_stmt 1 discriminator 2 view .LVU712
 510:C:/Users/leopi/Documents/vs/S-Reo/MazeLibrary\MazeLib.c ****     {
 2396              		.loc 1 510 44 is_stmt 0 discriminator 2 view .LVU713
 2397 0114 0134     		adds	r4, r4, #1
 2398              	.LVL196:
 2399              	.L169:
 510:C:/Users/leopi/Documents/vs/S-Reo/MazeLibrary\MazeLib.c ****     {
 2400              		.loc 1 510 18 is_stmt 1 discriminator 1 view .LVU714
 510:C:/Users/leopi/Documents/vs/S-Reo/MazeLibrary\MazeLib.c ****     {
 2401              		.loc 1 510 5 is_stmt 0 discriminator 1 view .LVU715
 2402 0116 1F2C     		cmp	r4, #31
 2403 0118 11DC     		bgt	.L177
 512:C:/Users/leopi/Documents/vs/S-Reo/MazeLibrary\MazeLib.c ****         if(x < NUMBER_OF_SQUARES_X-1)
 2404              		.loc 1 512 9 is_stmt 1 view .LVU716
 512:C:/Users/leopi/Documents/vs/S-Reo/MazeLibrary\MazeLib.c ****         if(x < NUMBER_OF_SQUARES_X-1)
 2405              		.loc 1 512 47 is_stmt 0 view .LVU717
 2406 011a 04EB4413 		add	r3, r4, r4, lsl #5
 2407 011e 07EBC303 		add	r3, r7, r3, lsl #3
 512:C:/Users/leopi/Documents/vs/S-Reo/MazeLibrary\MazeLib.c ****         if(x < NUMBER_OF_SQUARES_X-1)
 2408              		.loc 1 512 9 view .LVU718
 2409 0122 5A88     		ldrh	r2, [r3, #2]
 2410 0124 0F49     		ldr	r1, .L178+12
 2411 0126 2846     		mov	r0, r5
 2412 0128 FFF7FEFF 		bl	fprintf
 2413              	.LVL197:
 513:C:/Users/leopi/Documents/vs/S-Reo/MazeLibrary\MazeLib.c ****                 fprintf(fp,"     ");
 2414              		.loc 1 513 9 is_stmt 1 view .LVU719
 513:C:/Users/leopi/Documents/vs/S-Reo/MazeLibrary\MazeLib.c ****                 fprintf(fp,"     ");
 2415              		.loc 1 513 11 is_stmt 0 view .LVU720
 2416 012c 1E2C     		cmp	r4, #30
 2417 012e F1DC     		bgt	.L170
 514:C:/Users/leopi/Documents/vs/S-Reo/MazeLibrary\MazeLib.c ****     }
 2418              		.loc 1 514 17 is_stmt 1 view .LVU721
 2419 0130 2B46     		mov	r3, r5
ARM GAS  C:\Users\leopi\AppData\Local\Temp\ccilUBL0.s 			page 65


 2420 0132 0522     		movs	r2, #5
 2421 0134 0121     		movs	r1, #1
 2422 0136 0C48     		ldr	r0, .L178+16
 2423 0138 FFF7FEFF 		bl	fwrite
 2424              	.LVL198:
 2425 013c EAE7     		b	.L170
 2426              	.L177:
 514:C:/Users/leopi/Documents/vs/S-Reo/MazeLibrary\MazeLib.c ****     }
 2427              		.loc 1 514 17 is_stmt 0 view .LVU722
 2428              	.LBE37:
 516:C:/Users/leopi/Documents/vs/S-Reo/MazeLibrary\MazeLib.c ****     fclose(fp);
 2429              		.loc 1 516 5 is_stmt 1 view .LVU723
 2430 013e 2B46     		mov	r3, r5
 2431 0140 0222     		movs	r2, #2
 2432 0142 0121     		movs	r1, #1
 2433 0144 0A48     		ldr	r0, .L178+24
 2434 0146 FFF7FEFF 		bl	fwrite
 2435              	.LVL199:
 517:C:/Users/leopi/Documents/vs/S-Reo/MazeLibrary\MazeLib.c ****     return true;
 2436              		.loc 1 517 5 view .LVU724
 2437 014a 2846     		mov	r0, r5
 2438 014c FFF7FEFF 		bl	fclose
 2439              	.LVL200:
 518:C:/Users/leopi/Documents/vs/S-Reo/MazeLibrary\MazeLib.c **** 
 2440              		.loc 1 518 5 view .LVU725
 518:C:/Users/leopi/Documents/vs/S-Reo/MazeLibrary\MazeLib.c **** 
 2441              		.loc 1 518 12 is_stmt 0 view .LVU726
 2442 0150 0120     		movs	r0, #1
 2443              	.LVL201:
 2444              	.L156:
 520:C:/Users/leopi/Documents/vs/S-Reo/MazeLibrary\MazeLib.c **** static uint8_t convertNodeTo16Value(maze_node *maze, int x, int y)
 2445              		.loc 1 520 1 view .LVU727
 2446 0152 07B0     		add	sp, sp, #28
 2447              	.LCFI12:
 2448              		.cfi_def_cfa_offset 20
 2449              		@ sp needed
 2450 0154 F0BD     		pop	{r4, r5, r6, r7, pc}
 2451              	.LVL202:
 2452              	.L179:
 520:C:/Users/leopi/Documents/vs/S-Reo/MazeLibrary\MazeLib.c **** static uint8_t convertNodeTo16Value(maze_node *maze, int x, int y)
 2453              		.loc 1 520 1 view .LVU728
 2454 0156 00BF     		.align	2
 2455              	.L178:
 2456 0158 00000000 		.word	.LC12
 2457 015c 18000000 		.word	.LC14
 2458 0160 04000000 		.word	.LC13
 2459 0164 34000000 		.word	.LC3
 2460 0168 40000000 		.word	.LC5
 2461 016c 2C000000 		.word	.LC15
 2462 0170 34000000 		.word	.LC16
 2463              		.cfi_endproc
 2464              	.LFE13:
 2466              		.section	.rodata.printMatrix16ValueFromNode.str1.4,"aMS",%progbits,1
 2467              		.align	2
 2468              	.LC17:
 2469 0000 E6A99FE4 		.ascii	"\346\251\237\344\275\223\343\201\213\343\202\211Ter"
 2469      BD93E381 
ARM GAS  C:\Users\leopi\AppData\Local\Temp\ccilUBL0.s 			page 66


 2469      8BE38289 
 2469      546572
 2470 000f 61546572 		.ascii	"aTerm\343\201\270\343\201\256\345\207\272\345\212\233"
 2470      6DE381B8 
 2470      E381AEE5 
 2470      87BAE58A 
 2470      9B
 2471 0020 E794A80D 		.ascii	"\347\224\250\015\000"
 2471      00
 2472              		.section	.text.printMatrix16ValueFromNode,"ax",%progbits
 2473              		.align	1
 2474              		.global	printMatrix16ValueFromNode
 2475              		.syntax unified
 2476              		.thumb
 2477              		.thumb_func
 2479              	printMatrix16ValueFromNode:
 2480              	.LVL203:
 2481              	.LFB15:
 532:C:/Users/leopi/Documents/vs/S-Reo/MazeLibrary\MazeLib.c **** //æ©Ÿä½“ã‹ã‚‰TeraTermã§å‡ºåŠ›ã™ã‚‹ãŸã‚ã®é–¢æ•°
 533:C:/Users/leopi/Documents/vs/S-Reo/MazeLibrary\MazeLib.c **** void printMatrix16ValueFromNode(maze_node *maze)
 534:C:/Users/leopi/Documents/vs/S-Reo/MazeLibrary\MazeLib.c **** {
 2482              		.loc 1 534 1 is_stmt 1 view -0
 2483              		.cfi_startproc
 2484              		@ args = 0, pretend = 0, frame = 0
 2485              		@ frame_needed = 0, uses_anonymous_args = 0
 2486              		.loc 1 534 1 is_stmt 0 view .LVU730
 2487 0000 70B5     		push	{r4, r5, r6, lr}
 2488              	.LCFI13:
 2489              		.cfi_def_cfa_offset 16
 2490              		.cfi_offset 4, -16
 2491              		.cfi_offset 5, -12
 2492              		.cfi_offset 6, -8
 2493              		.cfi_offset 14, -4
 2494 0002 0646     		mov	r6, r0
 535:C:/Users/leopi/Documents/vs/S-Reo/MazeLibrary\MazeLib.c ****     printf("æ©Ÿä½“ã‹ã‚‰TeraTermã¸ã®å‡ºåŠ›ç”¨\r\n");
 2495              		.loc 1 535 5 is_stmt 1 view .LVU731
 2496 0004 1148     		ldr	r0, .L189
 2497              	.LVL204:
 2498              		.loc 1 535 5 is_stmt 0 view .LVU732
 2499 0006 FFF7FEFF 		bl	puts
 2500              	.LVL205:
 536:C:/Users/leopi/Documents/vs/S-Reo/MazeLibrary\MazeLib.c ****     for(int j=NUMBER_OF_SQUARES_Y-1; j >= 0; j--)
 2501              		.loc 1 536 5 is_stmt 1 view .LVU733
 2502              	.LBB38:
 2503              		.loc 1 536 9 view .LVU734
 2504              		.loc 1 536 13 is_stmt 0 view .LVU735
 2505 000a 1F25     		movs	r5, #31
 2506              		.loc 1 536 5 view .LVU736
 2507 000c 15E0     		b	.L181
 2508              	.LVL206:
 2509              	.L182:
 2510              	.LBB39:
 537:C:/Users/leopi/Documents/vs/S-Reo/MazeLibrary\MazeLib.c ****     {
 538:C:/Users/leopi/Documents/vs/S-Reo/MazeLibrary\MazeLib.c ****         for(int i=0; i < NUMBER_OF_SQUARES_X; i++)
 2511              		.loc 1 538 47 is_stmt 1 discriminator 2 view .LVU737
 2512              		.loc 1 538 48 is_stmt 0 discriminator 2 view .LVU738
 2513 000e 0134     		adds	r4, r4, #1
ARM GAS  C:\Users\leopi\AppData\Local\Temp\ccilUBL0.s 			page 67


 2514              	.LVL207:
 2515              	.L184:
 2516              		.loc 1 538 22 is_stmt 1 discriminator 1 view .LVU739
 2517              		.loc 1 538 9 is_stmt 0 discriminator 1 view .LVU740
 2518 0010 1F2C     		cmp	r4, #31
 2519 0012 0EDC     		bgt	.L187
 539:C:/Users/leopi/Documents/vs/S-Reo/MazeLibrary\MazeLib.c ****         {
 540:C:/Users/leopi/Documents/vs/S-Reo/MazeLibrary\MazeLib.c ****             printf("%u",convertNodeTo16Value(maze, i,j));
 2520              		.loc 1 540 13 is_stmt 1 view .LVU741
 2521              		.loc 1 540 25 is_stmt 0 view .LVU742
 2522 0014 2A46     		mov	r2, r5
 2523 0016 2146     		mov	r1, r4
 2524 0018 3046     		mov	r0, r6
 2525 001a FFF7FEFF 		bl	convertNodeTo16Value
 2526              	.LVL208:
 2527 001e 0146     		mov	r1, r0
 2528              		.loc 1 540 13 view .LVU743
 2529 0020 0B48     		ldr	r0, .L189+4
 2530 0022 FFF7FEFF 		bl	printf
 2531              	.LVL209:
 541:C:/Users/leopi/Documents/vs/S-Reo/MazeLibrary\MazeLib.c ****             if(i < NUMBER_OF_SQUARES_X-1)
 2532              		.loc 1 541 13 is_stmt 1 view .LVU744
 2533              		.loc 1 541 15 is_stmt 0 view .LVU745
 2534 0026 1E2C     		cmp	r4, #30
 2535 0028 F1DC     		bgt	.L182
 542:C:/Users/leopi/Documents/vs/S-Reo/MazeLibrary\MazeLib.c ****                 printf(",");
 2536              		.loc 1 542 17 is_stmt 1 view .LVU746
 2537 002a 2C20     		movs	r0, #44
 2538 002c FFF7FEFF 		bl	putchar
 2539              	.LVL210:
 2540 0030 EDE7     		b	.L182
 2541              	.L187:
 2542              		.loc 1 542 17 is_stmt 0 view .LVU747
 2543              	.LBE39:
 543:C:/Users/leopi/Documents/vs/S-Reo/MazeLibrary\MazeLib.c ****         }
 544:C:/Users/leopi/Documents/vs/S-Reo/MazeLibrary\MazeLib.c ****         printf("\r\n");
 2544              		.loc 1 544 9 is_stmt 1 discriminator 2 view .LVU748
 2545 0032 0848     		ldr	r0, .L189+8
 2546 0034 FFF7FEFF 		bl	puts
 2547              	.LVL211:
 536:C:/Users/leopi/Documents/vs/S-Reo/MazeLibrary\MazeLib.c ****     {
 2548              		.loc 1 536 46 discriminator 2 view .LVU749
 536:C:/Users/leopi/Documents/vs/S-Reo/MazeLibrary\MazeLib.c ****     {
 2549              		.loc 1 536 47 is_stmt 0 discriminator 2 view .LVU750
 2550 0038 013D     		subs	r5, r5, #1
 2551              	.LVL212:
 2552              	.L181:
 536:C:/Users/leopi/Documents/vs/S-Reo/MazeLibrary\MazeLib.c ****     {
 2553              		.loc 1 536 38 is_stmt 1 discriminator 1 view .LVU751
 536:C:/Users/leopi/Documents/vs/S-Reo/MazeLibrary\MazeLib.c ****     {
 2554              		.loc 1 536 5 is_stmt 0 discriminator 1 view .LVU752
 2555 003a 002D     		cmp	r5, #0
 2556 003c 01DB     		blt	.L188
 2557              	.LBB40:
 538:C:/Users/leopi/Documents/vs/S-Reo/MazeLibrary\MazeLib.c ****         {
 2558              		.loc 1 538 17 view .LVU753
 2559 003e 0024     		movs	r4, #0
ARM GAS  C:\Users\leopi\AppData\Local\Temp\ccilUBL0.s 			page 68


 2560 0040 E6E7     		b	.L184
 2561              	.L188:
 2562              	.LBE40:
 2563              	.LBE38:
 545:C:/Users/leopi/Documents/vs/S-Reo/MazeLibrary\MazeLib.c ****     }
 546:C:/Users/leopi/Documents/vs/S-Reo/MazeLibrary\MazeLib.c ****     printf("\r\n");
 2564              		.loc 1 546 5 is_stmt 1 view .LVU754
 2565 0042 0448     		ldr	r0, .L189+8
 2566 0044 FFF7FEFF 		bl	puts
 2567              	.LVL213:
 547:C:/Users/leopi/Documents/vs/S-Reo/MazeLibrary\MazeLib.c **** 
 548:C:/Users/leopi/Documents/vs/S-Reo/MazeLibrary\MazeLib.c **** }
 2568              		.loc 1 548 1 is_stmt 0 view .LVU755
 2569 0048 70BD     		pop	{r4, r5, r6, pc}
 2570              	.LVL214:
 2571              	.L190:
 2572              		.loc 1 548 1 view .LVU756
 2573 004a 00BF     		.align	2
 2574              	.L189:
 2575 004c 00000000 		.word	.LC17
 2576 0050 14000000 		.word	.LC10
 2577 0054 3C000000 		.word	.LC4
 2578              		.cfi_endproc
 2579              	.LFE15:
 2581              		.global	WALL_MASK
 2582              		.section	.bss.WALL_MASK,"aw",%nobits
 2583              		.align	2
 2586              	WALL_MASK:
 2587 0000 00000000 		.space	4
 2588              		.text
 2589              	.Letext0:
 2590              		.file 2 "c:\\tools\\gcc-arm-none-eabi-10_2021.10\\lib\\gcc\\arm-none-eabi\\10.3.1\\include\\stdint
 2591              		.file 3 "c:\\tools\\gcc-arm-none-eabi-10_2021.10\\lib\\gcc\\arm-none-eabi\\10.3.1\\include\\stddef
 2592              		.file 4 "c:\\tools\\gcc-arm-none-eabi-10_2021.10\\arm-none-eabi\\include\\sys\\_types.h"
 2593              		.file 5 "c:\\tools\\gcc-arm-none-eabi-10_2021.10\\arm-none-eabi\\include\\sys\\reent.h"
 2594              		.file 6 "c:\\tools\\gcc-arm-none-eabi-10_2021.10\\arm-none-eabi\\include\\sys\\lock.h"
 2595              		.file 7 "c:\\tools\\gcc-arm-none-eabi-10_2021.10\\arm-none-eabi\\include\\stdio.h"
 2596              		.file 8 "C:/Users/leopi/Documents/vs/S-Reo/MazeLibrary/MazeLib.h"
 2597              		.file 9 "<built-in>"
ARM GAS  C:\Users\leopi\AppData\Local\Temp\ccilUBL0.s 			page 69


DEFINED SYMBOLS
                            *ABS*:00000000 MazeLib.c
C:\Users\leopi\AppData\Local\Temp\ccilUBL0.s:20     .text.judgeRawNodeGoal:00000000 $t
C:\Users\leopi\AppData\Local\Temp\ccilUBL0.s:25     .text.judgeRawNodeGoal:00000000 judgeRawNodeGoal
C:\Users\leopi\AppData\Local\Temp\ccilUBL0.s:83     .text.judgeColumnNodeGoal:00000000 $t
C:\Users\leopi\AppData\Local\Temp\ccilUBL0.s:88     .text.judgeColumnNodeGoal:00000000 judgeColumnNodeGoal
C:\Users\leopi\AppData\Local\Temp\ccilUBL0.s:146    .text.convertNodeTo16Value:00000000 $t
C:\Users\leopi\AppData\Local\Temp\ccilUBL0.s:151    .text.convertNodeTo16Value:00000000 convertNodeTo16Value
C:\Users\leopi\AppData\Local\Temp\ccilUBL0.s:216    .text.initWeight:00000000 $t
C:\Users\leopi\AppData\Local\Temp\ccilUBL0.s:222    .text.initWeight:00000000 initWeight
C:\Users\leopi\AppData\Local\Temp\ccilUBL0.s:319    .text.initMaze:00000000 $t
C:\Users\leopi\AppData\Local\Temp\ccilUBL0.s:325    .text.initMaze:00000000 initMaze
C:\Users\leopi\AppData\Local\Temp\ccilUBL0.s:581    .text.initTargetAreaWeight:00000000 $t
C:\Users\leopi\AppData\Local\Temp\ccilUBL0.s:587    .text.initTargetAreaWeight:00000000 initTargetAreaWeight
C:\Users\leopi\AppData\Local\Temp\ccilUBL0.s:753    .text.updateAllNodeWeight:00000000 $t
C:\Users\leopi\AppData\Local\Temp\ccilUBL0.s:759    .text.updateAllNodeWeight:00000000 updateAllNodeWeight
C:\Users\leopi\AppData\Local\Temp\ccilUBL0.s:1429   .rodata.printAllWeight.str1.4:00000000 $d
C:\Users\leopi\AppData\Local\Temp\ccilUBL0.s:1449   .text.printAllWeight:00000000 $t
C:\Users\leopi\AppData\Local\Temp\ccilUBL0.s:1455   .text.printAllWeight:00000000 printAllWeight
C:\Users\leopi\AppData\Local\Temp\ccilUBL0.s:1718   .text.printAllWeight:0000010c $d
C:\Users\leopi\AppData\Local\Temp\ccilUBL0.s:1728   .rodata.printSingleNode.str1.4:00000000 $d
C:\Users\leopi\AppData\Local\Temp\ccilUBL0.s:1739   .text.printSingleNode:00000000 $t
C:\Users\leopi\AppData\Local\Temp\ccilUBL0.s:1745   .text.printSingleNode:00000000 printSingleNode
C:\Users\leopi\AppData\Local\Temp\ccilUBL0.s:1815   .text.printSingleNode:00000050 $d
C:\Users\leopi\AppData\Local\Temp\ccilUBL0.s:1821   .rodata.printAllNode.str1.4:00000000 $d
C:\Users\leopi\AppData\Local\Temp\ccilUBL0.s:1832   .text.printAllNode:00000000 $t
C:\Users\leopi\AppData\Local\Temp\ccilUBL0.s:1838   .text.printAllNode:00000000 printAllNode
C:\Users\leopi\AppData\Local\Temp\ccilUBL0.s:1962   .text.printAllNode:0000006c $d
C:\Users\leopi\AppData\Local\Temp\ccilUBL0.s:1970   .rodata.printAllNodeExistence.str1.4:00000000 $d
C:\Users\leopi\AppData\Local\Temp\ccilUBL0.s:1976   .text.printAllNodeExistence:00000000 $t
C:\Users\leopi\AppData\Local\Temp\ccilUBL0.s:1982   .text.printAllNodeExistence:00000000 printAllNodeExistence
C:\Users\leopi\AppData\Local\Temp\ccilUBL0.s:2104   .text.printAllNodeExistence:00000068 $d
C:\Users\leopi\AppData\Local\Temp\ccilUBL0.s:2112   .rodata.outputDataToFile.str1.4:00000000 $d
C:\Users\leopi\AppData\Local\Temp\ccilUBL0.s:2128   .text.outputDataToFile:00000000 $t
C:\Users\leopi\AppData\Local\Temp\ccilUBL0.s:2134   .text.outputDataToFile:00000000 outputDataToFile
C:\Users\leopi\AppData\Local\Temp\ccilUBL0.s:2456   .text.outputDataToFile:00000158 $d
C:\Users\leopi\AppData\Local\Temp\ccilUBL0.s:2467   .rodata.printMatrix16ValueFromNode.str1.4:00000000 $d
C:\Users\leopi\AppData\Local\Temp\ccilUBL0.s:2473   .text.printMatrix16ValueFromNode:00000000 $t
C:\Users\leopi\AppData\Local\Temp\ccilUBL0.s:2479   .text.printMatrix16ValueFromNode:00000000 printMatrix16ValueFromNode
C:\Users\leopi\AppData\Local\Temp\ccilUBL0.s:2575   .text.printMatrix16ValueFromNode:0000004c $d
C:\Users\leopi\AppData\Local\Temp\ccilUBL0.s:2586   .bss.WALL_MASK:00000000 WALL_MASK
C:\Users\leopi\AppData\Local\Temp\ccilUBL0.s:2583   .bss.WALL_MASK:00000000 $d

UNDEFINED SYMBOLS
puts
printf
putchar
strcpy_s
fopen
fprintf
fwrite
fclose
