ARM GAS  /var/folders/v_/kwz_t0cs68g1q1d733r227b80000gn/T//cc7enlx9.s 			page 1


   1              		.cpu cortex-m4
   2              		.eabi_attribute 27, 1
   3              		.eabi_attribute 28, 1
   4              		.eabi_attribute 20, 1
   5              		.eabi_attribute 21, 1
   6              		.eabi_attribute 23, 3
   7              		.eabi_attribute 24, 1
   8              		.eabi_attribute 25, 1
   9              		.eabi_attribute 26, 1
  10              		.eabi_attribute 30, 1
  11              		.eabi_attribute 34, 1
  12              		.eabi_attribute 18, 4
  13              		.file	"MazeLib.c"
  14              		.text
  15              	.Ltext0:
  16              		.cfi_sections	.debug_frame
  17              		.section	.text.judgeRawNodeGoal,"ax",%progbits
  18              		.align	1
  19              		.arch armv7e-m
  20              		.syntax unified
  21              		.thumb
  22              		.thumb_func
  23              		.fpu fpv4-sp-d16
  25              	judgeRawNodeGoal:
  26              	.LVL0:
  27              	.LFB13:
  28              		.file 1 "Core/Src/MazeLib.c"
   1:Core/Src/MazeLib.c **** #include "MazeLib.h"
   2:Core/Src/MazeLib.c **** 
   3:Core/Src/MazeLib.c **** int WALL_MASK;
   4:Core/Src/MazeLib.c **** //ç›´ãæ¶ˆã™
   5:Core/Src/MazeLib.c **** // #include "Interrupt.h"
   6:Core/Src/MazeLib.c **** 
   7:Core/Src/MazeLib.c **** //åˆæœŸåŒ–å‡¦ç†
   8:Core/Src/MazeLib.c **** void initWeight(maze_node *maze)
   9:Core/Src/MazeLib.c **** {
  10:Core/Src/MazeLib.c ****     // for(int i=0; i < NUMBER_OF_SQUARES_X; i++)
  11:Core/Src/MazeLib.c ****     // {
  12:Core/Src/MazeLib.c ****     //     for(int j=1; j < NUMBER_OF_SQUARES_Y; j++)
  13:Core/Src/MazeLib.c ****     //     {
  14:Core/Src/MazeLib.c ****     //         maze->RawNode[i][j].weight = MAX_WEIGHT;  
  15:Core/Src/MazeLib.c ****     //     }
  16:Core/Src/MazeLib.c ****     // }
  17:Core/Src/MazeLib.c ****     // for(int i=1; i < NUMBER_OF_SQUARES_X; i++)
  18:Core/Src/MazeLib.c ****     // {
  19:Core/Src/MazeLib.c ****     //     for(int j=0; j < NUMBER_OF_SQUARES_Y; j++)
  20:Core/Src/MazeLib.c ****     //     {
  21:Core/Src/MazeLib.c ****     //         maze->ColumnNode[i][j].weight = MAX_WEIGHT;
  22:Core/Src/MazeLib.c ****     //     }
  23:Core/Src/MazeLib.c ****     // }
  24:Core/Src/MazeLib.c ****     for(int i=0; i < NUMBER_OF_SQUARES_X; i++)
  25:Core/Src/MazeLib.c ****     {
  26:Core/Src/MazeLib.c ****         for(int j=0; j < NUMBER_OF_SQUARES_Y+1; j++)
  27:Core/Src/MazeLib.c ****         {
  28:Core/Src/MazeLib.c ****             maze->RawNode[i][j].weight = MAX_WEIGHT;  
  29:Core/Src/MazeLib.c ****         }
  30:Core/Src/MazeLib.c ****     }
ARM GAS  /var/folders/v_/kwz_t0cs68g1q1d733r227b80000gn/T//cc7enlx9.s 			page 2


  31:Core/Src/MazeLib.c ****     for(int i=0; i < NUMBER_OF_SQUARES_X+1; i++)
  32:Core/Src/MazeLib.c ****     {
  33:Core/Src/MazeLib.c ****         for(int j=0; j < NUMBER_OF_SQUARES_Y; j++)
  34:Core/Src/MazeLib.c ****         {
  35:Core/Src/MazeLib.c ****             maze->ColumnNode[i][j].weight = MAX_WEIGHT;
  36:Core/Src/MazeLib.c ****         }
  37:Core/Src/MazeLib.c ****     }
  38:Core/Src/MazeLib.c **** }
  39:Core/Src/MazeLib.c **** void initMaze(maze_node *maze) //é‡ã¿ã¯åˆ¥ã§åˆæœŸåŒ–
  40:Core/Src/MazeLib.c **** {
  41:Core/Src/MazeLib.c ****     //ã¾ãšæœªæ¢ç´¢çŠ¶æ…‹ã«ã™ã‚‹
  42:Core/Src/MazeLib.c ****     for(int i=0; i < NUMBER_OF_SQUARES_X; i++)
  43:Core/Src/MazeLib.c ****     {
  44:Core/Src/MazeLib.c ****         for(int j=1; j < NUMBER_OF_SQUARES_Y; j++)
  45:Core/Src/MazeLib.c ****         {
  46:Core/Src/MazeLib.c ****             maze->RawNode[i][j].existence = UNKNOWN;
  47:Core/Src/MazeLib.c ****             maze->RawNode[i][j].draw = false;//æœªçŸ¥å£ã¯æç”»ã®ã¨ãã«ç„¡ã„ã‚‚ã®ã¨ã™ã‚‹
  48:Core/Src/MazeLib.c ****             maze->RawNode[i][j].rc = 0;
  49:Core/Src/MazeLib.c ****             maze->RawNode[i][j].pos.x = i;
  50:Core/Src/MazeLib.c ****             maze->RawNode[i][j].pos.y = j;
  51:Core/Src/MazeLib.c **** //            maze->RawNode[i][j].visit = false;
  52:Core/Src/MazeLib.c ****         }
  53:Core/Src/MazeLib.c ****     }
  54:Core/Src/MazeLib.c ****     for(int i=0; i < NUMBER_OF_SQUARES_X; i++) //å¤–å£
  55:Core/Src/MazeLib.c ****     {
  56:Core/Src/MazeLib.c ****             maze->RawNode[i][0].existence = WALL;
  57:Core/Src/MazeLib.c ****             maze->RawNode[i][0].draw = true;//æœªçŸ¥å£ã¯æç”»ã®ã¨ãã«ç„¡ã„ã‚‚ã®ã¨ã™ã‚‹
  58:Core/Src/MazeLib.c ****             maze->RawNode[i][0].rc = 0;
  59:Core/Src/MazeLib.c ****             maze->RawNode[i][0].pos.x = i;
  60:Core/Src/MazeLib.c ****             maze->RawNode[i][0].pos.y = 0;
  61:Core/Src/MazeLib.c **** //            maze->RawNode[i][0].visit = true; //ä¾¿å®œçš„ã«è¨ªå•æ¸ˆã¿ã¨ã™ã‚‹
  62:Core/Src/MazeLib.c ****             maze->RawNode[i][NUMBER_OF_SQUARES_Y].existence = WALL;
  63:Core/Src/MazeLib.c ****             maze->RawNode[i][NUMBER_OF_SQUARES_Y].draw = true;//æœªçŸ¥å£ã¯æç”»ã®ã¨ãã«ç„¡ã
  64:Core/Src/MazeLib.c ****             maze->RawNode[i][NUMBER_OF_SQUARES_Y].rc = 0;
  65:Core/Src/MazeLib.c ****             maze->RawNode[i][NUMBER_OF_SQUARES_Y].pos.x = i;
  66:Core/Src/MazeLib.c ****             maze->RawNode[i][NUMBER_OF_SQUARES_Y].pos.y = NUMBER_OF_SQUARES_Y;
  67:Core/Src/MazeLib.c **** //            maze->RawNode[i][NUMBER_OF_SQUARES_Y].visit = true; //ä¾¿å®œçš„ã«è¨ªå•æ¸ˆã¿ã¨ã™ã
  68:Core/Src/MazeLib.c ****     }
  69:Core/Src/MazeLib.c ****     for(int i=1; i < NUMBER_OF_SQUARES_X; i++)
  70:Core/Src/MazeLib.c ****     {
  71:Core/Src/MazeLib.c ****         for(int j=0; j < NUMBER_OF_SQUARES_Y; j++)
  72:Core/Src/MazeLib.c ****         {
  73:Core/Src/MazeLib.c ****             maze->ColumnNode[i][j].existence = UNKNOWN;
  74:Core/Src/MazeLib.c ****             maze->ColumnNode[i][j].draw = false;
  75:Core/Src/MazeLib.c ****             maze->ColumnNode[i][j].rc = 1;
  76:Core/Src/MazeLib.c ****             maze->ColumnNode[i][j].pos.x = i;
  77:Core/Src/MazeLib.c ****             maze->ColumnNode[i][j].pos.y = j;
  78:Core/Src/MazeLib.c **** //            maze->ColumnNode[i][j].visit = false;
  79:Core/Src/MazeLib.c ****         }
  80:Core/Src/MazeLib.c ****     }
  81:Core/Src/MazeLib.c ****     for(int j=0; j < NUMBER_OF_SQUARES_Y; j++)
  82:Core/Src/MazeLib.c ****     {
  83:Core/Src/MazeLib.c ****             maze->ColumnNode[0][j].existence = WALL;
  84:Core/Src/MazeLib.c ****             maze->ColumnNode[0][j].draw = true;
  85:Core/Src/MazeLib.c ****             maze->ColumnNode[0][j].rc = 1;
  86:Core/Src/MazeLib.c ****             maze->ColumnNode[0][j].pos.x = 0;
  87:Core/Src/MazeLib.c ****             maze->ColumnNode[0][j].pos.y = j;
ARM GAS  /var/folders/v_/kwz_t0cs68g1q1d733r227b80000gn/T//cc7enlx9.s 			page 3


  88:Core/Src/MazeLib.c **** //            maze->ColumnNode[0][j].visit = true;
  89:Core/Src/MazeLib.c ****             maze->ColumnNode[NUMBER_OF_SQUARES_X][j].existence = WALL;
  90:Core/Src/MazeLib.c ****             maze->ColumnNode[NUMBER_OF_SQUARES_X][j].draw = true;
  91:Core/Src/MazeLib.c ****             maze->ColumnNode[NUMBER_OF_SQUARES_X][j].rc = 1;
  92:Core/Src/MazeLib.c ****             maze->ColumnNode[NUMBER_OF_SQUARES_X][j].pos.x = NUMBER_OF_SQUARES_X;
  93:Core/Src/MazeLib.c ****             maze->ColumnNode[NUMBER_OF_SQUARES_X][j].pos.y = j;
  94:Core/Src/MazeLib.c **** //            maze->ColumnNode[NUMBER_OF_SQUARES_X][j].visit = true;
  95:Core/Src/MazeLib.c ****     }
  96:Core/Src/MazeLib.c ****     
  97:Core/Src/MazeLib.c **** //    // å£ã®æœ‰ç„¡ã‚’åˆæœŸåŒ–
  98:Core/Src/MazeLib.c **** //    for(int i=0; i < NUMBER_OF_SQUARES_X; i++)
  99:Core/Src/MazeLib.c **** //    {
 100:Core/Src/MazeLib.c **** //        maze->RawNode[i][0].existence = WALL;                       //å—å£ã™ã¹ã¦1
 101:Core/Src/MazeLib.c **** //        maze->RawNode[i][NUMBER_OF_SQUARES_Y].existence = WALL;     //åŒ—å£ã™ã¹ã¦1
 102:Core/Src/MazeLib.c **** //
 103:Core/Src/MazeLib.c **** //        maze->RawNode[i][0].draw = true;
 104:Core/Src/MazeLib.c **** //        maze->RawNode[i][NUMBER_OF_SQUARES_Y].draw = true;
 105:Core/Src/MazeLib.c **** //
 106:Core/Src/MazeLib.c **** //        maze->RawNode[i][0].rc = 0;
 107:Core/Src/MazeLib.c **** //        maze->RawNode[i][NUMBER_OF_SQUARES_Y].rc = 0;
 108:Core/Src/MazeLib.c **** //
 109:Core/Src/MazeLib.c **** //        maze->RawNode[i][0].pos.x = i;
 110:Core/Src/MazeLib.c **** //        maze->RawNode[i][0].pos.y = 0;
 111:Core/Src/MazeLib.c **** //        maze->RawNode[i][NUMBER_OF_SQUARES_Y].pos.x = i;
 112:Core/Src/MazeLib.c **** //        maze->RawNode[i][NUMBER_OF_SQUARES_Y].pos.y = NUMBER_OF_SQUARES_Y;
 113:Core/Src/MazeLib.c **** //    }
 114:Core/Src/MazeLib.c **** //    for(int j=0; j < NUMBER_OF_SQUARES_Y; j++)
 115:Core/Src/MazeLib.c **** //    {
 116:Core/Src/MazeLib.c **** //        maze->ColumnNode[0][j].existence = WALL;                    //è¥¿å£ã™ã¹ã¦1
 117:Core/Src/MazeLib.c **** //        maze->ColumnNode[NUMBER_OF_SQUARES_X][j].existence = WALL;  //æ±å£ã™ã¹ã¦1
 118:Core/Src/MazeLib.c **** //
 119:Core/Src/MazeLib.c **** //        maze->ColumnNode[0][j].draw = true;
 120:Core/Src/MazeLib.c **** //        maze->ColumnNode[NUMBER_OF_SQUARES_X][j].draw = true;
 121:Core/Src/MazeLib.c **** //
 122:Core/Src/MazeLib.c **** //        maze->ColumnNode[0][j].rc = 1;
 123:Core/Src/MazeLib.c **** //        maze->ColumnNode[NUMBER_OF_SQUARES_X][j].rc = 1;
 124:Core/Src/MazeLib.c **** //
 125:Core/Src/MazeLib.c **** //        maze->ColumnNode[0][j].pos.x = 0;
 126:Core/Src/MazeLib.c **** //        maze->ColumnNode[0][j].pos.y = j;
 127:Core/Src/MazeLib.c **** //        maze->ColumnNode[NUMBER_OF_SQUARES_X][j].pos.x = NUMBER_OF_SQUARES_X;
 128:Core/Src/MazeLib.c **** //        maze->ColumnNode[NUMBER_OF_SQUARES_X][j].pos.y = j;
 129:Core/Src/MazeLib.c **** //    }
 130:Core/Src/MazeLib.c ****     maze->ColumnNode[1][0].existence = WALL;    //æ±1
 131:Core/Src/MazeLib.c ****     maze->RawNode[0][1].existence = NOWALL;     //åŒ—0
 132:Core/Src/MazeLib.c **** 
 133:Core/Src/MazeLib.c ****     maze->ColumnNode[1][0].draw = true;    //æ±1
 134:Core/Src/MazeLib.c ****     maze->RawNode[0][1].draw = false;     //åŒ—0
 135:Core/Src/MazeLib.c **** 
 136:Core/Src/MazeLib.c ****     //visitã¯ã€å£ãŒã‚ã‚‹ã¨ã“ã‚ã¨è¨ªå•æ¸ˆã¿ã®ã¨ã“ã‚ã‚’1ã€ã¾ã ã®ã¨ã“ã‚ã‚’0
 137:Core/Src/MazeLib.c **** //    maze->ColumnNode[1][0].visit = true;    //æ±1
 138:Core/Src/MazeLib.c **** //	maze->RawNode[0][1].visit = false;     //åŒ—0
 139:Core/Src/MazeLib.c **** }
 140:Core/Src/MazeLib.c **** void initTargetAreaWeight(maze_node *maze, uint8_t x, uint8_t y, uint8_t target_size_x, uint8_t tar
 141:Core/Src/MazeLib.c **** {
 142:Core/Src/MazeLib.c ****     //ã‚´ãƒ¼ãƒ«ã‚¨ãƒªã‚¢ã®å¤–å €ã¨ä¸­ã®ãƒãƒ¼ãƒ‰ã¯å…¨ã¦0ã€å£ãŒã‚ã‚Œã°MAXã€‚
 143:Core/Src/MazeLib.c ****     for(int i=0; i < target_size_x; i++)
 144:Core/Src/MazeLib.c ****     {
ARM GAS  /var/folders/v_/kwz_t0cs68g1q1d733r227b80000gn/T//cc7enlx9.s 			page 4


 145:Core/Src/MazeLib.c ****         for(int j=0; j < target_size_y; j++)
 146:Core/Src/MazeLib.c ****         {
 147:Core/Src/MazeLib.c ****             // maze->RawNode[x+i][y+1+j].weight = (maze->RawNode[x+i][y+1+j].weight == MAX_WEIGHT) 
 148:Core/Src/MazeLib.c ****             // maze->ColumnNode[x+1+i][y+j].weight = (maze->ColumnNode[x+1+i][y+j].weight == MAX_WE
 149:Core/Src/MazeLib.c ****             // maze->RawNode[x+i][y+j].weight = (maze->RawNode[x+i][y+j].weight == MAX_WEIGHT) ? MA
 150:Core/Src/MazeLib.c ****             // maze->ColumnNode[x+i][y+j].weight = (maze->ColumnNode[x+i][y+j].weight == MAX_WEIGHT
 151:Core/Src/MazeLib.c **** 
 152:Core/Src/MazeLib.c ****         	//ãªãœdraw == trueã§ã‚„ã£ã¦ã„ãŸã‹ã‚ã‹ã‚‰ãªã„
 153:Core/Src/MazeLib.c ****             maze->RawNode[x+i][y+1+j].weight = (maze->RawNode[x+i][y+1+j].existence == WALL) ? MAX_
 154:Core/Src/MazeLib.c ****             maze->ColumnNode[x+1+i][y+j].weight = (maze->ColumnNode[x+1+i][y+j].existence == WALL) 
 155:Core/Src/MazeLib.c ****             maze->RawNode[x+i][y+j].weight = (maze->RawNode[x+i][y+j].existence == WALL) ? MAX_WEIG
 156:Core/Src/MazeLib.c ****             maze->ColumnNode[x+i][y+j].weight = (maze->ColumnNode[x+i][y+j].existence == WALL) ? MA
 157:Core/Src/MazeLib.c ****         }
 158:Core/Src/MazeLib.c ****     }
 159:Core/Src/MazeLib.c **** }
 160:Core/Src/MazeLib.c **** 
 161:Core/Src/MazeLib.c **** //å¤–ã‹ã‚‰ã‚¢ã‚¯ã‚»ã‚¹ã™ã‚‹é–¢æ•°. xyã«åˆ¶é™ãŒå¿…è¦
 162:Core/Src/MazeLib.c **** _Bool setExistanceRawNode(maze_node *maze, uint8_t x, uint8_t y, wall_state et)
 163:Core/Src/MazeLib.c **** {
 164:Core/Src/MazeLib.c ****     if(x >= NUMBER_OF_SQUARES_X || y >= NUMBER_OF_SQUARES_Y || x < 0 || y < 0)
 165:Core/Src/MazeLib.c ****     {
 166:Core/Src/MazeLib.c ****         return false;
 167:Core/Src/MazeLib.c ****     }
 168:Core/Src/MazeLib.c ****     else
 169:Core/Src/MazeLib.c ****     {
 170:Core/Src/MazeLib.c ****         maze->RawNode[x][y].existence = et;
 171:Core/Src/MazeLib.c ****         // maze->RawNode[x][y].flag = true;
 172:Core/Src/MazeLib.c ****         return true;
 173:Core/Src/MazeLib.c ****     }
 174:Core/Src/MazeLib.c **** }
 175:Core/Src/MazeLib.c **** _Bool setExistanceColumnNode(maze_node *maze, uint8_t x, uint8_t y, wall_state et)
 176:Core/Src/MazeLib.c **** {
 177:Core/Src/MazeLib.c ****     if(x >= NUMBER_OF_SQUARES_X || y >= NUMBER_OF_SQUARES_Y || x < 0 || y < 0)
 178:Core/Src/MazeLib.c ****     {
 179:Core/Src/MazeLib.c ****         return false;
 180:Core/Src/MazeLib.c ****     }
 181:Core/Src/MazeLib.c ****     else
 182:Core/Src/MazeLib.c ****     {
 183:Core/Src/MazeLib.c ****         maze->ColumnNode[x][y].existence = et;
 184:Core/Src/MazeLib.c ****         // maze->ColumnNode[x][y].flag = true;
 185:Core/Src/MazeLib.c ****         return true;
 186:Core/Src/MazeLib.c ****     }
 187:Core/Src/MazeLib.c **** }
 188:Core/Src/MazeLib.c **** 
 189:Core/Src/MazeLib.c **** _Bool setWeightRawNode(maze_node *maze, uint8_t x, uint8_t y, uint16_t wt)
 190:Core/Src/MazeLib.c **** {
 191:Core/Src/MazeLib.c ****     if(x >= NUMBER_OF_SQUARES_X || y >= NUMBER_OF_SQUARES_Y || x < 0 || y < 0 || (wt < 0 || MAX_WEI
 192:Core/Src/MazeLib.c ****     {
 193:Core/Src/MazeLib.c ****         return false;
 194:Core/Src/MazeLib.c ****     }
 195:Core/Src/MazeLib.c ****     else
 196:Core/Src/MazeLib.c ****     {
 197:Core/Src/MazeLib.c ****         maze->RawNode[x][y].weight = wt;
 198:Core/Src/MazeLib.c ****         return true;
 199:Core/Src/MazeLib.c ****     }
 200:Core/Src/MazeLib.c **** }
 201:Core/Src/MazeLib.c **** _Bool setWeightColumnNode(maze_node *maze, uint8_t x, uint8_t y, uint16_t wt)
ARM GAS  /var/folders/v_/kwz_t0cs68g1q1d733r227b80000gn/T//cc7enlx9.s 			page 5


 202:Core/Src/MazeLib.c **** {
 203:Core/Src/MazeLib.c ****     if(x >= NUMBER_OF_SQUARES_X || y >= NUMBER_OF_SQUARES_Y || x < 0 || y < 0 || (wt < 0 || MAX_WEI
 204:Core/Src/MazeLib.c ****     {
 205:Core/Src/MazeLib.c ****         return false;
 206:Core/Src/MazeLib.c ****     }
 207:Core/Src/MazeLib.c ****     else
 208:Core/Src/MazeLib.c ****     {
 209:Core/Src/MazeLib.c ****         maze->ColumnNode[x][y].weight = wt;
 210:Core/Src/MazeLib.c ****         return true;
 211:Core/Src/MazeLib.c ****     }
 212:Core/Src/MazeLib.c **** }
 213:Core/Src/MazeLib.c **** 
 214:Core/Src/MazeLib.c **** #define WEIGHT_NANAME   3
 215:Core/Src/MazeLib.c **** #define WEIGHT_STRAIGHT 1
 216:Core/Src/MazeLib.c **** 
 217:Core/Src/MazeLib.c **** void updateAllNodeWeight(maze_node *maze, uint8_t x, uint8_t y, uint8_t area_size_x, uint8_t area_s
 218:Core/Src/MazeLib.c **** {
 219:Core/Src/MazeLib.c **** 	//å…¨ä½“ã«154/20ms = 7.7ms
 220:Core/Src/MazeLib.c ****     //æ–°ã—ã„åŒºç”»ã«å…¥ã£ãŸã¨ãã«ã€æ›´æ–°
 221:Core/Src/MazeLib.c **** 
 222:Core/Src/MazeLib.c ****     initWeight(maze); //3/20ms
 223:Core/Src/MazeLib.c **** 
 224:Core/Src/MazeLib.c ****     initTargetAreaWeight(maze, x,y, area_size_x,area_size_y);
 225:Core/Src/MazeLib.c **** 
 226:Core/Src/MazeLib.c ****     //é‡ã¿ã®è¨ˆç®—é–‹å§‹ã¯ã‚´ãƒ¼ãƒ«ã‚¨ãƒªã‚¢ã®ãƒãƒ¼ãƒ‰ã‹ã¤é‡ã¿ãŒ0ã®ã‚‚ã®
 227:Core/Src/MazeLib.c ****         //è¶³ç«‹æ³•ã§ã‚´ãƒ¼ãƒ«ã—ãŸã‚‰ã‚´ãƒ¼ãƒ«ã‚¨ãƒªã‚¢ã®é‡ã¿0ã®ãƒãƒ¼ãƒ‰ãŒå›ºå®šã•ã‚Œã‚‹.
 228:Core/Src/MazeLib.c ****         //ä¸€å›ç›®ã¯ã€é‡ã¿0ã®ãƒãƒ¼ãƒ‰ã‚’ã©ã†ã™ã‚‹ã‹.(ä¸­ã¯å£ãŒãªã„ã“ã¨ãŒç¢ºå®šã
 229:Core/Src/MazeLib.c ****     //ãƒãƒ¼ãƒ‰ã®åº§æ¨™ã®å·®ã‚’è¦‹ã¦ã€æ–œã‚ã‹ç›´é€²ã‹ã‚’æ±ºã‚ã‚‹
 230:Core/Src/MazeLib.c ****     //ã‚¿ãƒ¼ã‚²ãƒƒãƒˆã¨ã™ã‚‹ã‚¨ãƒªã‚¢ã®ã‚µã‚¤ã‚ºæƒ…å ±ãŒã„ã‚‹
 231:Core/Src/MazeLib.c ****     //ã‚¹ã‚¿ãƒ¼ãƒˆã¯ã‚¿ãƒ¼ã‚²ãƒƒãƒˆã‚¨ãƒªã‚¢ã®å¤–å €ãƒãƒ¼ãƒ‰
 232:Core/Src/MazeLib.c ****     //6å€‹å‚ç…§ã—ã¦
 233:Core/Src/MazeLib.c **** 
 234:Core/Src/MazeLib.c ****     //printf("é‡ã¿å…¨ä½“ã®æ›´æ–°\r\n");
 235:Core/Src/MazeLib.c **** //	timer8 = 0;
 236:Core/Src/MazeLib.c **** //	t = 0;
 237:Core/Src/MazeLib.c **** //	HAL_TIM_Base_Start_IT(&htim8);
 238:Core/Src/MazeLib.c **** //	t = 1;
 239:Core/Src/MazeLib.c ****     int i,j; //ã‚³ãƒ³ãƒ‘ã‚¤ãƒ©ã‚ªãƒ—ã‚·ãƒ§ãƒ³ã§-Ofastã‚’ä»˜ã‘ã‚Œã°ã€registerä¿®é£¾å­ã¯è¦ã‚‰ã
 240:Core/Src/MazeLib.c ****     _Bool change_flag;
 241:Core/Src/MazeLib.c ****     int skip_raw=0, skip_column=0;
 242:Core/Src/MazeLib.c ****     //ã›ã£ã‹ãdowhileãªã‚“ã ã‹ã‚‰ã€ã©ã“ã‹ã‚‰æ›´æ–°ã™ã‚‹ã‹ã‚’ã†ã¾ãæ“ã‚Œã°ã€conti
 243:Core/Src/MazeLib.c ****     //i,jã˜ã‚ƒãªãã¦ã€å¤‰æ•°ã‚’4ã¤ç”¨æ„ã™ã‚‹
 244:Core/Src/MazeLib.c ****     //rawã«2ã¤ã€columnã«2ã¤
 245:Core/Src/MazeLib.c ****     //int rx=x + area_size_x, ry=y + area_size_y, cx=x + area_size_x, cy=y + area_size_y;
 246:Core/Src/MazeLib.c ****     //ã‚´ãƒ¼ãƒ«åº§æ¨™ã‚’åˆæœŸãƒãƒ¼ãƒ‰ã¨ã—ã¦ã€è¿‘è¾ºã®æ›´æ–°ã•ã‚ŒãŸãƒãƒ¼ãƒ‰ã®ã„ãšã‚Œã‹
 247:Core/Src/MazeLib.c **** 
 248:Core/Src/MazeLib.c **** 	do //(6,9)(7,10)ã«å¯¾ã—ã¦ã€7,11ãŒãŠã‹ã—ã„ã€‚
 249:Core/Src/MazeLib.c **** 	{
 250:Core/Src/MazeLib.c **** 		change_flag = false;				//å¤‰æ›´ãŒãªã‹ã£ãŸå ´åˆã«ã¯ãƒ«ãƒ¼ãƒ—ã‚’æŠœã‘ã‚‹
 251:Core/Src/MazeLib.c **** //		if(rx == NUMBER_OF_SQUARES_X) rx =0;
 252:Core/Src/MazeLib.c **** //		if(ry == NUMBER_OF_SQUARES_Y) ry =1;
 253:Core/Src/MazeLib.c **** //		if(cx == NUMBER_OF_SQUARES_X) cx =1;
 254:Core/Src/MazeLib.c **** //		if(cy == NUMBER_OF_SQUARES_Y) cy =0;
 255:Core/Src/MazeLib.c **** 
 256:Core/Src/MazeLib.c **** 		//
 257:Core/Src/MazeLib.c **** 		//1é€±ç›®ã§ç¸¦æ¨ªä¸¡æ–¹ã‚„ã‚‰ãªã„ã¨ã ã‚
 258:Core/Src/MazeLib.c ****         //åˆ—
ARM GAS  /var/folders/v_/kwz_t0cs68g1q1d733r227b80000gn/T//cc7enlx9.s 			page 6


 259:Core/Src/MazeLib.c ****         for(i = 1; i < NUMBER_OF_SQUARES_X; i++)
 260:Core/Src/MazeLib.c **** 		{
 261:Core/Src/MazeLib.c **** 			for( j = 0; j < NUMBER_OF_SQUARES_Y; j++)
 262:Core/Src/MazeLib.c **** 			{
 263:Core/Src/MazeLib.c ****                 if(maze->ColumnNode[i][j].weight == MAX_WEIGHT)		//MAXã®å ´åˆã¯æ¬¡ã¸
 264:Core/Src/MazeLib.c **** 				{
 265:Core/Src/MazeLib.c ****                 	skip_column++;
 266:Core/Src/MazeLib.c **** 					continue;
 267:Core/Src/MazeLib.c **** 				}
 268:Core/Src/MazeLib.c ****                 // printf("continueã¯ã‚¯ãƒªã‚¢. Column[%d][%d]\r\n",i,j);
 269:Core/Src/MazeLib.c **** 
 270:Core/Src/MazeLib.c ****                 //æ±å´ãƒãƒ¼ãƒ‰
 271:Core/Src/MazeLib.c **** 				if(i < NUMBER_OF_SQUARES_X-1)					//ç¯„å›²ãƒã‚§ãƒƒã‚¯
 272:Core/Src/MazeLib.c **** 				{
 273:Core/Src/MazeLib.c ****                     // printf("åˆ—æ±%d,mask: %d, result: %d\r\n",maze->ColumnNode[i+1][j].existenc
 274:Core/Src/MazeLib.c **** 					if( ((maze->ColumnNode[i+1][j].existence & mask) == NOWALL) && (maze->ColumnNode[i+1][j].weigh
 275:Core/Src/MazeLib.c **** 					{
 276:Core/Src/MazeLib.c **** 						maze->ColumnNode[i+1][j].weight = maze->ColumnNode[i][j].weight + WEIGHT_STRAIGHT;	//å€¤ã‚’ä»
 277:Core/Src/MazeLib.c **** 						change_flag = true;		//å€¤ãŒæ›´æ–°ã•ã‚ŒãŸã“ã¨ã‚’ç¤ºã™
 278:Core/Src/MazeLib.c **** 					}
 279:Core/Src/MazeLib.c ****                 }
 280:Core/Src/MazeLib.c ****                 //è¥¿å´ãƒãƒ¼ãƒ‰
 281:Core/Src/MazeLib.c **** 				if(1 < i)						//ç¯„å›²ãƒã‚§ãƒƒã‚¯
 282:Core/Src/MazeLib.c **** 				{
 283:Core/Src/MazeLib.c **** 					if( ((maze->ColumnNode[i-1][j].existence & mask) == NOWALL) && (maze->ColumnNode[i-1][j].weigh
 284:Core/Src/MazeLib.c **** 					{
 285:Core/Src/MazeLib.c **** 						maze->ColumnNode[i-1][j].weight = maze->ColumnNode[i][j].weight + WEIGHT_STRAIGHT;	//å€¤ã‚’ä»
 286:Core/Src/MazeLib.c **** 						change_flag = true;		//å€¤ãŒæ›´æ–°ã•ã‚ŒãŸã“ã¨ã‚’ç¤ºã™
 287:Core/Src/MazeLib.c **** 					}
 288:Core/Src/MazeLib.c **** 				}
 289:Core/Src/MazeLib.c ****                 //åŒ—å´ã«æ–œã‚ãŒ2æ–¹å‘
 290:Core/Src/MazeLib.c **** 				if(j < NUMBER_OF_SQUARES_Y-1)					//ç¯„å›²ãƒã‚§ãƒƒã‚¯
 291:Core/Src/MazeLib.c **** 				{
 292:Core/Src/MazeLib.c ****                     //åŒ—æ±
 293:Core/Src/MazeLib.c **** 					if(i < NUMBER_OF_SQUARES_X)
 294:Core/Src/MazeLib.c **** 					{
 295:Core/Src/MazeLib.c **** 						if( ((maze->RawNode[i][j+1].existence & mask) == NOWALL) && (maze->RawNode[i][j+1].weight == 
 296:Core/Src/MazeLib.c **** 						{
 297:Core/Src/MazeLib.c **** 							maze->RawNode[i][j+1].weight = maze->ColumnNode[i][j].weight + WEIGHT_NANAME;	//å€¤ã‚’ä»£å…¥
 298:Core/Src/MazeLib.c **** 							change_flag = true;		//å€¤ãŒæ›´æ–°ã•ã‚ŒãŸã“ã¨ã‚’ç¤ºã™
 299:Core/Src/MazeLib.c **** 						}
 300:Core/Src/MazeLib.c **** 					}
 301:Core/Src/MazeLib.c ****                     //åŒ—è¥¿
 302:Core/Src/MazeLib.c **** 					if(0 < i)
 303:Core/Src/MazeLib.c **** 					{
 304:Core/Src/MazeLib.c **** 						if( ((maze->RawNode[i-1][j+1].existence & mask) == NOWALL) && (maze->RawNode[i-1][j+1].weight
 305:Core/Src/MazeLib.c **** 						{
 306:Core/Src/MazeLib.c **** 							maze->RawNode[i-1][j+1].weight = maze->ColumnNode[i][j].weight + WEIGHT_NANAME;	//å€¤ã‚’ä»£å
 307:Core/Src/MazeLib.c **** 							change_flag = true;		//å€¤ãŒæ›´æ–°ã•ã‚ŒãŸã“ã¨ã‚’ç¤ºã™
 308:Core/Src/MazeLib.c **** 						}
 309:Core/Src/MazeLib.c **** 					}
 310:Core/Src/MazeLib.c **** 				}
 311:Core/Src/MazeLib.c **** 
 312:Core/Src/MazeLib.c ****                 //å—å´ã«æ–œã‚ãŒ2æ–¹å‘
 313:Core/Src/MazeLib.c **** 				if(0 < j)
 314:Core/Src/MazeLib.c **** 				{
 315:Core/Src/MazeLib.c **** 					if( i < NUMBER_OF_SQUARES_X )//j > 0)						//ç¯„å›²ãƒã‚§ãƒƒã‚¯
ARM GAS  /var/folders/v_/kwz_t0cs68g1q1d733r227b80000gn/T//cc7enlx9.s 			page 7


 316:Core/Src/MazeLib.c **** 					{
 317:Core/Src/MazeLib.c **** 						//å—æ±
 318:Core/Src/MazeLib.c **** 						if( ((maze->RawNode[i][j].existence & mask) == NOWALL) && (maze->RawNode[i][j].weight == MAX_
 319:Core/Src/MazeLib.c **** 						{
 320:Core/Src/MazeLib.c **** 							maze->RawNode[i][j].weight = maze->ColumnNode[i][j].weight + WEIGHT_NANAME;	//å€¤ã‚’ä»£å…¥
 321:Core/Src/MazeLib.c **** 							change_flag = true;		//å€¤ãŒæ›´æ–°ã•ã‚ŒãŸã“ã¨ã‚’ç¤ºã™
 322:Core/Src/MazeLib.c **** 						}
 323:Core/Src/MazeLib.c **** 					}
 324:Core/Src/MazeLib.c **** 					if(0 < i ){
 325:Core/Src/MazeLib.c **** 						//å—è¥¿
 326:Core/Src/MazeLib.c **** 						if( ((maze->RawNode[i-1][j].existence & mask) == NOWALL) && (maze->RawNode[i-1][j].weight == 
 327:Core/Src/MazeLib.c **** 						{
 328:Core/Src/MazeLib.c **** 								maze->RawNode[i-1][j].weight = maze->ColumnNode[i][j].weight + WEIGHT_NANAME;	//å€¤ã‚’ä»£å…
 329:Core/Src/MazeLib.c **** 								change_flag = true;		//å€¤ãŒæ›´æ–°ã•ã‚ŒãŸã“ã¨ã‚’ç¤ºã™
 330:Core/Src/MazeLib.c **** 						}
 331:Core/Src/MazeLib.c **** 					}
 332:Core/Src/MazeLib.c **** 				}
 333:Core/Src/MazeLib.c ****             }
 334:Core/Src/MazeLib.c ****         }
 335:Core/Src/MazeLib.c ****         //è¡Œã¨åˆ—ã§ã‚ã‘ã¦ã€ä¸€å‘¨
 336:Core/Src/MazeLib.c ****          //è¡Œã‹ã‚‰
 337:Core/Src/MazeLib.c ****  		for( i = 0; i < NUMBER_OF_SQUARES_X; i++)			//è¿·è·¯ã®å¤§ãã•åˆ†ãƒ«ãƒ¼ãƒ—(xåº§æ¨™)
 338:Core/Src/MazeLib.c ****  		{
 339:Core/Src/MazeLib.c ****  			for(j = 1; j < NUMBER_OF_SQUARES_Y; j++)		//è¿·è·¯ã®å¤§ãã•åˆ†ãƒ«ãƒ¼ãƒ—(yåº§æ¨™)
 340:Core/Src/MazeLib.c ****  			{
 341:Core/Src/MazeLib.c ****                  //1ãƒãƒ¼ãƒ‰ãšã¤è¦‹ã‚‹.ãã“ã‹ã‚‰åŠ ç®—å¯¾è±¡ãŒæœ€å¤§6å€‹
 342:Core/Src/MazeLib.c ****                  //ç«¯ã‚’è¦‹ãªã„ã®ã§ã€ä¸€ç•ªä¸Šã®åˆ—ã‹ã‚‰ã‚¹ã‚¿ãƒ¼ãƒˆ j=N; j >= 0, xã‚’1ã‹ã
 343:Core/Src/MazeLib.c ****                  //æ¬¡ã«è¡Œ j=N-1ã‹ã‚‰1ã¾ã§ xã‚’0ã‹ã‚‰N-1ã¾ã§
 344:Core/Src/MazeLib.c ****  				if(maze->RawNode[i][j].weight == MAX_WEIGHT)		//MAXã®å ´åˆã¯æ¬¡ã¸
 345:Core/Src/MazeLib.c ****  				{
 346:Core/Src/MazeLib.c ****  					skip_raw ++;
 347:Core/Src/MazeLib.c ****  					continue;
 348:Core/Src/MazeLib.c ****  				}
 349:Core/Src/MazeLib.c ****  				// printf("continueã¯ã‚¯ãƒªã‚¢. Raw[%d][%d]\r\n",i,j);
 350:Core/Src/MazeLib.c ****                  //åŒ—å´ãƒãƒ¼ãƒ‰
 351:Core/Src/MazeLib.c ****  				if(j < NUMBER_OF_SQUARES_Y-1)   //ç¯„å›²ãƒã‚§ãƒƒã‚¯. åº§æ¨™ã®xyã§ã¯ãªãã€ãƒãƒ¼ãƒ‰ã®xy
 352:Core/Src/MazeLib.c ****  				{
 353:Core/Src/MazeLib.c ****  					if( ((maze->RawNode[i][j+1].existence & mask) == NOWALL) && (maze->RawNode[i][j+1].weight == 
 354:Core/Src/MazeLib.c ****  					{
 355:Core/Src/MazeLib.c ****  						maze->RawNode[i][j+1].weight = maze->RawNode[i][j].weight + WEIGHT_STRAIGHT;	//å€¤ã‚’ä»£å…¥
 356:Core/Src/MazeLib.c ****  						change_flag = true;		//å€¤ãŒæ›´æ–°ã•ã‚ŒãŸã“ã¨ã‚’ç¤ºã™
 357:Core/Src/MazeLib.c ****  					}
 358:Core/Src/MazeLib.c ****                  }
 359:Core/Src/MazeLib.c ****                  //å—å´ãƒãƒ¼ãƒ‰
 360:Core/Src/MazeLib.c ****  				if(j > 1)						//ç¯„å›²ãƒã‚§ãƒƒã‚¯.ãƒŸã‚¹ã£ã¦ãŸ
 361:Core/Src/MazeLib.c ****  				{
 362:Core/Src/MazeLib.c ****  					if( ((maze->RawNode[i][j-1].existence & mask) == NOWALL) && (maze->RawNode[i][j-1].weight == 
 363:Core/Src/MazeLib.c ****  					{
 364:Core/Src/MazeLib.c ****  						maze->RawNode[i][j-1].weight = maze->RawNode[i][j].weight + WEIGHT_STRAIGHT;	//å€¤ã‚’ä»£å…¥
 365:Core/Src/MazeLib.c ****  						change_flag = true;		//å€¤ãŒæ›´æ–°ã•ã‚ŒãŸã“ã¨ã‚’ç¤ºã™
 366:Core/Src/MazeLib.c ****  					}
 367:Core/Src/MazeLib.c ****  				}
 368:Core/Src/MazeLib.c ****                  //æ±å´ã«æ–œã‚ãŒ2æ–¹å‘
 369:Core/Src/MazeLib.c ****  				if(i < NUMBER_OF_SQUARES_X-1)					//ç¯„å›²ãƒã‚§ãƒƒã‚¯
 370:Core/Src/MazeLib.c ****  				{
 371:Core/Src/MazeLib.c ****                      //yæ–¹å‘ã®åˆ¶é™ã¯ï¼Ÿ
 372:Core/Src/MazeLib.c ****                      //åŒ—æ±
ARM GAS  /var/folders/v_/kwz_t0cs68g1q1d733r227b80000gn/T//cc7enlx9.s 			page 8


 373:Core/Src/MazeLib.c ****  					if( j < NUMBER_OF_SQUARES_Y )
 374:Core/Src/MazeLib.c ****  					{
 375:Core/Src/MazeLib.c ****  						if( ((maze->ColumnNode[i+1][j].existence & mask) == NOWALL) && (maze->ColumnNode[i+1][j].wei
 376:Core/Src/MazeLib.c ****  						{
 377:Core/Src/MazeLib.c ****  							maze->ColumnNode[i+1][j].weight = maze->RawNode[i][j].weight + WEIGHT_NANAME;	//å€¤ã‚’ä»£å…
 378:Core/Src/MazeLib.c ****  							change_flag = true;		//å€¤ãŒæ›´æ–°ã•ã‚ŒãŸã“ã¨ã‚’ç¤ºã™
 379:Core/Src/MazeLib.c ****  						}
 380:Core/Src/MazeLib.c ****  					}
 381:Core/Src/MazeLib.c ****  					if( 0 < j )
 382:Core/Src/MazeLib.c ****  					{
 383:Core/Src/MazeLib.c ****  						//å—æ±
 384:Core/Src/MazeLib.c ****  						if( ((maze->ColumnNode[i+1][j-1].existence & mask) == NOWALL) && (maze->ColumnNode[i+1][j-1]
 385:Core/Src/MazeLib.c ****  						{
 386:Core/Src/MazeLib.c ****  							maze->ColumnNode[i+1][j-1].weight = maze->RawNode[i][j].weight + WEIGHT_NANAME;	//å€¤ã‚’ä»£
 387:Core/Src/MazeLib.c ****  							change_flag = true;		//å€¤ãŒæ›´æ–°ã•ã‚ŒãŸã“ã¨ã‚’ç¤ºã™
 388:Core/Src/MazeLib.c ****  						}
 389:Core/Src/MazeLib.c ****  					}
 390:Core/Src/MazeLib.c ****  				}
 391:Core/Src/MazeLib.c **** 
 392:Core/Src/MazeLib.c ****                  //è¥¿å´ã«æ–œã‚ãŒ2æ–¹å‘
 393:Core/Src/MazeLib.c ****  				if(i > 0)						//ç¯„å›²ãƒã‚§ãƒƒã‚¯
 394:Core/Src/MazeLib.c ****  				{
 395:Core/Src/MazeLib.c ****                      //åŒ—è¥¿
 396:Core/Src/MazeLib.c ****  					if( j < NUMBER_OF_SQUARES_Y )
 397:Core/Src/MazeLib.c ****  					{
 398:Core/Src/MazeLib.c ****  						if( ((maze->ColumnNode[i][j].existence & mask) == NOWALL)  && (maze->ColumnNode[i][j].weight
 399:Core/Src/MazeLib.c ****  						{
 400:Core/Src/MazeLib.c ****  								maze->ColumnNode[i][j].weight = maze->RawNode[i][j].weight + WEIGHT_NANAME;	//å€¤ã‚’ä»£å…¥
 401:Core/Src/MazeLib.c ****  								change_flag = true;		//å€¤ãŒæ›´æ–°ã•ã‚ŒãŸã“ã¨ã‚’ç¤ºã™
 402:Core/Src/MazeLib.c **** 
 403:Core/Src/MazeLib.c ****  						}
 404:Core/Src/MazeLib.c ****  					}
 405:Core/Src/MazeLib.c ****  					if( 0 < j )
 406:Core/Src/MazeLib.c ****  					{
 407:Core/Src/MazeLib.c ****  						//å—è¥¿
 408:Core/Src/MazeLib.c ****  						if( ((maze->ColumnNode[i][j-1].existence & mask) == NOWALL) && (maze->ColumnNode[i][j-1].wei
 409:Core/Src/MazeLib.c ****  						{
 410:Core/Src/MazeLib.c ****  							maze->ColumnNode[i][j-1].weight = maze->RawNode[i][j].weight + WEIGHT_NANAME;	//å€¤ã‚’ä»£å…
 411:Core/Src/MazeLib.c ****  							change_flag = true;		//å€¤ãŒæ›´æ–°ã•ã‚ŒãŸã“ã¨ã‚’ç¤ºã™
 412:Core/Src/MazeLib.c ****  						}
 413:Core/Src/MazeLib.c ****  					}
 414:Core/Src/MazeLib.c **** 
 415:Core/Src/MazeLib.c ****  				}
 416:Core/Src/MazeLib.c ****  			}
 417:Core/Src/MazeLib.c ****  		}
 418:Core/Src/MazeLib.c ****         //printf("é‡ã¿ã®æ›´æ–°\r\n");//ä¸€å›ã—ã‹å‘¼ã°ã‚Œã¦ã„ãªã„
 419:Core/Src/MazeLib.c ****         //cnt++;
 420:Core/Src/MazeLib.c **** 	}while(change_flag == true);	//å…¨ä½“ã‚’ä½œã‚Šçµ‚ã‚ã‚‹ã¾ã§å¾…ã¤
 421:Core/Src/MazeLib.c **** //    t = 0;
 422:Core/Src/MazeLib.c **** //	HAL_TIM_Base_Stop_IT(&htim8);
 423:Core/Src/MazeLib.c **** //	printf("%d/20ms, %d, %d\r\n\r\n",timer8, skip_raw, skip_column);
 424:Core/Src/MazeLib.c **** }
 425:Core/Src/MazeLib.c **** void updateNodeThree(maze_node *maze, state *st, uint8_t x, uint8_t y)
 426:Core/Src/MazeLib.c **** {
 427:Core/Src/MazeLib.c ****     //å£ã®æœ‰ç„¡ã®æ›´æ–°ã€‚æ—¢çŸ¥ã®å£ã«ã¯ä¸Šæ›¸ãã—ãªã„ã€‚é‡ã¿ã®æ›´æ–°ã¯ï¼Ÿæ—¢çŸ¥ã‹
 428:Core/Src/MazeLib.c ****         //é‡ã¿ã¯ï¼Ÿå£ãŒã‚ã‚Œã°MAXå€¤ã€ãªã‘ã‚Œã°ãã®ã¾ã¾
 429:Core/Src/MazeLib.c ****     maze->RawNode[x][y+1].existence = (maze->RawNode[x][y+1].existence == UNKNOWN) ? st->wall.north
ARM GAS  /var/folders/v_/kwz_t0cs68g1q1d733r227b80000gn/T//cc7enlx9.s 			page 9


 430:Core/Src/MazeLib.c ****     maze->ColumnNode[x+1][y].existence = (maze->ColumnNode[x+1][y].existence == UNKNOWN) ? st->wall
 431:Core/Src/MazeLib.c ****     maze->RawNode[x][y].existence = (maze->RawNode[x][y].existence == UNKNOWN) ? st->wall.south : m
 432:Core/Src/MazeLib.c ****     maze->ColumnNode[x][y].existence = (maze->ColumnNode[x][y].existence == UNKNOWN) ? st->wall.wes
 433:Core/Src/MazeLib.c **** 
 434:Core/Src/MazeLib.c ****     // maze->RawNode[x][y+1].flag = true;      //åŒ—
 435:Core/Src/MazeLib.c ****     // maze->ColumnNode[x+1][y].flag = true;   //æ±
 436:Core/Src/MazeLib.c ****     // maze->RawNode[x][y].flag = true;        //å—
 437:Core/Src/MazeLib.c ****     // maze->ColumnNode[x][y].flag = true;     //è¥¿
 438:Core/Src/MazeLib.c **** 
 439:Core/Src/MazeLib.c ****     maze->RawNode[x][y+1].draw = (maze->RawNode[x][y+1].existence == WALL) ? true : false;         
 440:Core/Src/MazeLib.c ****     maze->ColumnNode[x+1][y].draw = (maze->ColumnNode[x+1][y].existence == WALL) ? true : false;   
 441:Core/Src/MazeLib.c ****     maze->RawNode[x][y].draw = (maze->RawNode[x][y].existence == WALL) ? true : false;             
 442:Core/Src/MazeLib.c ****     maze->ColumnNode[x][y].draw = (maze->ColumnNode[x][y].existence == WALL) ? true : false;       
 443:Core/Src/MazeLib.c **** }
 444:Core/Src/MazeLib.c **** void updateNodeDraw(maze_node *maze, uint8_t x, uint8_t y)
 445:Core/Src/MazeLib.c **** {
 446:Core/Src/MazeLib.c ****     maze->RawNode[x][y+1].draw = maze->RawNode[x][y+1].existence;       //åŒ—
 447:Core/Src/MazeLib.c ****     maze->ColumnNode[x+1][y].draw = maze->ColumnNode[x+1][y].existence; //æ±
 448:Core/Src/MazeLib.c ****     maze->RawNode[x][y].draw = maze->RawNode[x][y].existence;           //å—
 449:Core/Src/MazeLib.c ****     maze->ColumnNode[x][y].draw = maze->ColumnNode[x][y].existence;     //è¥¿
 450:Core/Src/MazeLib.c **** }
 451:Core/Src/MazeLib.c **** static _Bool judgeRawNodeGoal(maze_node *maze, uint8_t x, uint8_t y)
 452:Core/Src/MazeLib.c **** {
  29              		.loc 1 452 1 view -0
  30              		.cfi_startproc
  31              		@ args = 0, pretend = 0, frame = 0
  32              		@ frame_needed = 0, uses_anonymous_args = 0
  33              		@ link register save eliminated.
 453:Core/Src/MazeLib.c ****     //é‡ã¿ãŒ0ã‹ã©ã†ã‹
 454:Core/Src/MazeLib.c ****     if(maze->RawNode[x][y].weight == 0)
  34              		.loc 1 454 5 view .LVU1
  35              		.loc 1 454 27 is_stmt 0 view .LVU2
  36 0000 01EB0113 		add	r3, r1, r1, lsl #4
  37 0004 1344     		add	r3, r3, r2
  38 0006 00EBC300 		add	r0, r0, r3, lsl #3
  39              	.LVL1:
  40              		.loc 1 454 27 view .LVU3
  41 000a 4388     		ldrh	r3, [r0, #2]
  42              		.loc 1 454 7 view .LVU4
  43 000c 4BB9     		cbnz	r3, .L3
 455:Core/Src/MazeLib.c ****     {
 456:Core/Src/MazeLib.c ****         //ã‚´ãƒ¼ãƒ«ãƒãƒ¼ãƒ‰ã§ã‚ã‚‹ã‹ã©ã†ã‹:ãƒã‚¯ãƒ­ä½œã£ãŸ
 457:Core/Src/MazeLib.c **** 
 458:Core/Src/MazeLib.c ****         if ( __JUDGE_GOAL__ (x,y) || __JUDGE_GOAL__(x,y-1) )
  44              		.loc 1 458 9 is_stmt 1 view .LVU5
  45              		.loc 1 458 14 is_stmt 0 view .LVU6
  46 000e 0939     		subs	r1, r1, #9
  47              	.LVL2:
  48              		.loc 1 458 14 view .LVU7
  49 0010 C9B2     		uxtb	r1, r1
  50              		.loc 1 458 12 view .LVU8
  51 0012 0129     		cmp	r1, #1
  52 0014 07D8     		bhi	.L4
  53              		.loc 1 458 35 discriminator 1 view .LVU9
  54 0016 093A     		subs	r2, r2, #9
  55              	.LVL3:
  56              		.loc 1 458 35 discriminator 1 view .LVU10
ARM GAS  /var/folders/v_/kwz_t0cs68g1q1d733r227b80000gn/T//cc7enlx9.s 			page 10


  57 0018 D2B2     		uxtb	r2, r2
  58 001a 022A     		cmp	r2, #2
  59 001c 05D9     		bls	.L5
 459:Core/Src/MazeLib.c ****             return true;
 460:Core/Src/MazeLib.c **** 
 461:Core/Src/MazeLib.c ****         return false;
  60              		.loc 1 461 16 view .LVU11
  61 001e 0020     		movs	r0, #0
  62 0020 7047     		bx	lr
  63              	.LVL4:
  64              	.L3:
 462:Core/Src/MazeLib.c ****     }
 463:Core/Src/MazeLib.c ****     else
 464:Core/Src/MazeLib.c ****     {
 465:Core/Src/MazeLib.c ****         return false;
  65              		.loc 1 465 16 view .LVU12
  66 0022 0020     		movs	r0, #0
  67 0024 7047     		bx	lr
  68              	.LVL5:
  69              	.L4:
 461:Core/Src/MazeLib.c ****     }
  70              		.loc 1 461 16 view .LVU13
  71 0026 0020     		movs	r0, #0
  72 0028 7047     		bx	lr
  73              	.LVL6:
  74              	.L5:
 459:Core/Src/MazeLib.c ****             return true;
  75              		.loc 1 459 20 view .LVU14
  76 002a 0120     		movs	r0, #1
 466:Core/Src/MazeLib.c ****     }
 467:Core/Src/MazeLib.c **** }
  77              		.loc 1 467 1 view .LVU15
  78 002c 7047     		bx	lr
  79              		.cfi_endproc
  80              	.LFE13:
  82              		.section	.text.judgeColumnNodeGoal,"ax",%progbits
  83              		.align	1
  84              		.syntax unified
  85              		.thumb
  86              		.thumb_func
  87              		.fpu fpv4-sp-d16
  89              	judgeColumnNodeGoal:
  90              	.LVL7:
  91              	.LFB14:
 468:Core/Src/MazeLib.c **** static _Bool judgeColumnNodeGoal(maze_node *maze, uint8_t x, uint8_t y)
 469:Core/Src/MazeLib.c **** {
  92              		.loc 1 469 1 is_stmt 1 view -0
  93              		.cfi_startproc
  94              		@ args = 0, pretend = 0, frame = 0
  95              		@ frame_needed = 0, uses_anonymous_args = 0
  96              		@ link register save eliminated.
 470:Core/Src/MazeLib.c ****     //é‡ã¿ãŒ0ã‹ã©ã†ã‹
 471:Core/Src/MazeLib.c ****     if(maze->ColumnNode[x][y].weight == 0)
  97              		.loc 1 471 5 view .LVU17
  98              		.loc 1 471 30 is_stmt 0 view .LVU18
  99 0000 02EB0113 		add	r3, r2, r1, lsl #4
 100 0004 03F58873 		add	r3, r3, #272
ARM GAS  /var/folders/v_/kwz_t0cs68g1q1d733r227b80000gn/T//cc7enlx9.s 			page 11


 101 0008 00EBC300 		add	r0, r0, r3, lsl #3
 102              	.LVL8:
 103              		.loc 1 471 30 view .LVU19
 104 000c 4388     		ldrh	r3, [r0, #2]
 105              		.loc 1 471 7 view .LVU20
 106 000e 4BB9     		cbnz	r3, .L8
 472:Core/Src/MazeLib.c ****     {
 473:Core/Src/MazeLib.c ****         //ã‚´ãƒ¼ãƒ«ãƒãƒ¼ãƒ‰ã§ã‚ã‚‹ã‹ã©ã†ã‹:ãƒã‚¯ãƒ­ä½œã£ãŸ
 474:Core/Src/MazeLib.c **** 
 475:Core/Src/MazeLib.c ****         if ( __JUDGE_GOAL__ (x,y) || __JUDGE_GOAL__(x-1,y) )
 107              		.loc 1 475 9 is_stmt 1 view .LVU21
 108              		.loc 1 475 35 is_stmt 0 view .LVU22
 109 0010 0939     		subs	r1, r1, #9
 110              	.LVL9:
 111              		.loc 1 475 35 view .LVU23
 112 0012 C9B2     		uxtb	r1, r1
 113              		.loc 1 475 12 view .LVU24
 114 0014 0229     		cmp	r1, #2
 115 0016 07D8     		bhi	.L9
 116              		.loc 1 475 14 discriminator 1 view .LVU25
 117 0018 093A     		subs	r2, r2, #9
 118              	.LVL10:
 119              		.loc 1 475 14 discriminator 1 view .LVU26
 120 001a D2B2     		uxtb	r2, r2
 121              		.loc 1 475 35 discriminator 1 view .LVU27
 122 001c 012A     		cmp	r2, #1
 123 001e 05D9     		bls	.L10
 476:Core/Src/MazeLib.c ****             return true;
 477:Core/Src/MazeLib.c **** 
 478:Core/Src/MazeLib.c ****         return false;
 124              		.loc 1 478 16 view .LVU28
 125 0020 0020     		movs	r0, #0
 126 0022 7047     		bx	lr
 127              	.LVL11:
 128              	.L8:
 479:Core/Src/MazeLib.c ****     }
 480:Core/Src/MazeLib.c ****     else
 481:Core/Src/MazeLib.c ****     {
 482:Core/Src/MazeLib.c ****         return false;
 129              		.loc 1 482 16 view .LVU29
 130 0024 0020     		movs	r0, #0
 131 0026 7047     		bx	lr
 132              	.LVL12:
 133              	.L9:
 478:Core/Src/MazeLib.c ****     }
 134              		.loc 1 478 16 view .LVU30
 135 0028 0020     		movs	r0, #0
 136 002a 7047     		bx	lr
 137              	.LVL13:
 138              	.L10:
 476:Core/Src/MazeLib.c ****             return true;
 139              		.loc 1 476 20 view .LVU31
 140 002c 0120     		movs	r0, #1
 483:Core/Src/MazeLib.c ****     }
 484:Core/Src/MazeLib.c **** }
 141              		.loc 1 484 1 view .LVU32
 142 002e 7047     		bx	lr
ARM GAS  /var/folders/v_/kwz_t0cs68g1q1d733r227b80000gn/T//cc7enlx9.s 			page 12


 143              		.cfi_endproc
 144              	.LFE14:
 146              		.section	.text.convertNodeTo16Value,"ax",%progbits
 147              		.align	1
 148              		.syntax unified
 149              		.thumb
 150              		.thumb_func
 151              		.fpu fpv4-sp-d16
 153              	convertNodeTo16Value:
 154              	.LVL14:
 155              	.LFB20:
 485:Core/Src/MazeLib.c **** 
 486:Core/Src/MazeLib.c **** void printAllWeight(maze_node *maze, position *pos)
 487:Core/Src/MazeLib.c **** {
 488:Core/Src/MazeLib.c ****     //è¦‹ã‚„ã™ã„å½¢ã«æˆå‹ã—ã¦è¡¨ç¤ºã™ã‚‹
 489:Core/Src/MazeLib.c ****     //å…¨å‡ºåŠ›ã‚’3æ¡ã«ãã‚ãˆã‚Œã°ã‚ˆã•ãã†
 490:Core/Src/MazeLib.c ****     //é‡ã¿ãŒ0ã‹ã¤ã‚´ãƒ¼ãƒ«ã‚¨ãƒªã‚¢å†…ã®åº§æ¨™ãªã‚‰èµ¤è‰²ã§å‡ºåŠ› 31;1m
 491:Core/Src/MazeLib.c ****     //è¡Œã‹ã‚‰è¡¨ç¤ºã—ã¦ã€
 492:Core/Src/MazeLib.c ****     //åˆ—ã‚’è¡¨ç¤º
 493:Core/Src/MazeLib.c ****     //äº¤äº’ã«
 494:Core/Src/MazeLib.c ****     printf("å…¨ãƒãƒ¼ãƒ‰ã®é‡ã¿\r\n");
 495:Core/Src/MazeLib.c **** 
 496:Core/Src/MazeLib.c ****     for(int y=NUMBER_OF_SQUARES_Y; y > 0; y--)
 497:Core/Src/MazeLib.c ****     {
 498:Core/Src/MazeLib.c ****         //è¡Œ
 499:Core/Src/MazeLib.c ****         printf("  +  ");
 500:Core/Src/MazeLib.c ****         for(int x=0; x < NUMBER_OF_SQUARES_X; x++)
 501:Core/Src/MazeLib.c ****         {
 502:Core/Src/MazeLib.c ****             if(judgeRawNodeGoal(maze, x,y) == true || ((pos->x == x) && (pos->y == y)))//è¾¿ã£ãŸç
 503:Core/Src/MazeLib.c ****             {
 504:Core/Src/MazeLib.c ****                 printf(" \x1B[31;1m%3x\x1B[37;m ",maze->RawNode[x][y].weight);
 505:Core/Src/MazeLib.c ****             }
 506:Core/Src/MazeLib.c ****             else
 507:Core/Src/MazeLib.c ****             {
 508:Core/Src/MazeLib.c ****                 printf(" %3x ",maze->RawNode[x][y].weight);
 509:Core/Src/MazeLib.c ****             }
 510:Core/Src/MazeLib.c ****             if(x < NUMBER_OF_SQUARES_X-1)
 511:Core/Src/MazeLib.c ****                  printf("  +  ");
 512:Core/Src/MazeLib.c ****         }
 513:Core/Src/MazeLib.c ****         printf("\r\n");
 514:Core/Src/MazeLib.c **** 
 515:Core/Src/MazeLib.c ****         //åˆ—
 516:Core/Src/MazeLib.c ****         for(int x=0; x < NUMBER_OF_SQUARES_X+1; x++)
 517:Core/Src/MazeLib.c ****         {
 518:Core/Src/MazeLib.c ****             if(judgeColumnNodeGoal(maze, x,y-1) == true || ((pos->x == x) && (pos->y == y)))
 519:Core/Src/MazeLib.c ****             {
 520:Core/Src/MazeLib.c ****                 printf(" \x1B[31;1m%3x\x1B[37;m ",maze->ColumnNode[x][y-1].weight);
 521:Core/Src/MazeLib.c ****             }
 522:Core/Src/MazeLib.c ****             else
 523:Core/Src/MazeLib.c ****             {
 524:Core/Src/MazeLib.c ****                 printf(" %3x ",maze->ColumnNode[x][y-1].weight);
 525:Core/Src/MazeLib.c ****             }
 526:Core/Src/MazeLib.c ****             if(x < NUMBER_OF_SQUARES_X)
 527:Core/Src/MazeLib.c ****                 printf("     ");
 528:Core/Src/MazeLib.c ****         }
 529:Core/Src/MazeLib.c ****         printf("\r\n");
 530:Core/Src/MazeLib.c ****     }
ARM GAS  /var/folders/v_/kwz_t0cs68g1q1d733r227b80000gn/T//cc7enlx9.s 			page 13


 531:Core/Src/MazeLib.c ****     //y ãŒ0ã®ã¨ãã®è¡Œã ã‘è¡¨ç¤º
 532:Core/Src/MazeLib.c ****     printf("  +  ");
 533:Core/Src/MazeLib.c ****     for(int x=0; x < NUMBER_OF_SQUARES_X; x++)
 534:Core/Src/MazeLib.c ****     {
 535:Core/Src/MazeLib.c ****         printf(" %3x ",maze->RawNode[x][0].weight);
 536:Core/Src/MazeLib.c ****         if(x < NUMBER_OF_SQUARES_X-1)
 537:Core/Src/MazeLib.c ****                 printf("  +  ");
 538:Core/Src/MazeLib.c ****     }
 539:Core/Src/MazeLib.c ****     printf("\r\n");
 540:Core/Src/MazeLib.c **** 
 541:Core/Src/MazeLib.c **** 
 542:Core/Src/MazeLib.c **** }
 543:Core/Src/MazeLib.c **** void printSingleNode(maze_node *mn, uint8_t x, uint8_t y)
 544:Core/Src/MazeLib.c **** {
 545:Core/Src/MazeLib.c ****     printf("è¡Œãƒãƒ¼ãƒ‰ %d, %d : å£ %u, é‡ã¿ %u, draw %u\r\n", x,y, mn->RawNode[x][y].existence
 546:Core/Src/MazeLib.c ****     printf("åˆ—ãƒãƒ¼ãƒ‰ %d, %d : å£ %u, é‡ã¿ %u, draw %u\r\n", x,y, mn->ColumnNode[x][y].existe
 547:Core/Src/MazeLib.c **** }
 548:Core/Src/MazeLib.c **** 
 549:Core/Src/MazeLib.c **** void printAllNode(maze_node *mn)
 550:Core/Src/MazeLib.c **** {
 551:Core/Src/MazeLib.c ****     printf("å…¨ãƒãƒ¼ãƒ‰\r\n");
 552:Core/Src/MazeLib.c ****     //é–“é•ã£ã¦ã‚‹ã‹ã‚‚
 553:Core/Src/MazeLib.c ****     //MATLABã§ä¿å­˜ã™ã‚‹ã¨ãã¨åŒã˜ãƒ‘ã‚¿ãƒ¼ãƒ³ã§å‡ºåŠ›ã™ã‚‹
 554:Core/Src/MazeLib.c ****     //Raw
 555:Core/Src/MazeLib.c ****     //Column
 556:Core/Src/MazeLib.c ****     //Rawã‚’1åˆ—å‡ºåŠ›ã—ã€æ”¹è¡Œã›ãšColumnã®1åˆ—å‡ºåŠ›ã€‚
 557:Core/Src/MazeLib.c ****     //è¡Œã‚’å¢—ã‚„ã—ã¦åŒã˜å‡¦ç†
 558:Core/Src/MazeLib.c ****     for(int i=0; i < NUMBER_OF_SQUARES_X; i++)
 559:Core/Src/MazeLib.c ****     {
 560:Core/Src/MazeLib.c ****         for(int j=1; j < NUMBER_OF_SQUARES_Y+1; j++)
 561:Core/Src/MazeLib.c ****         {
 562:Core/Src/MazeLib.c ****             printf("%u,",mn->RawNode[i][j].draw);
 563:Core/Src/MazeLib.c ****         }
 564:Core/Src/MazeLib.c ****         for(int j=0; j < NUMBER_OF_SQUARES_Y; j++)
 565:Core/Src/MazeLib.c ****         {
 566:Core/Src/MazeLib.c ****             printf("%u",mn->ColumnNode[i+1][j].draw);
 567:Core/Src/MazeLib.c ****             if(j < NUMBER_OF_SQUARES_Y-1)
 568:Core/Src/MazeLib.c ****                 printf(",");
 569:Core/Src/MazeLib.c ****         }
 570:Core/Src/MazeLib.c ****         printf("\r\n");
 571:Core/Src/MazeLib.c ****     }
 572:Core/Src/MazeLib.c ****     printf("\r\n");
 573:Core/Src/MazeLib.c **** }
 574:Core/Src/MazeLib.c **** void printAllNodeExistence(maze_node *mn)
 575:Core/Src/MazeLib.c **** {
 576:Core/Src/MazeLib.c ****     printf("å…¨ãƒãƒ¼ãƒ‰ã®å£ã®å­˜åœ¨\r\n");
 577:Core/Src/MazeLib.c ****     //é–“é•ã£ã¦ã‚‹ã‹ã‚‚
 578:Core/Src/MazeLib.c ****     //MATLABã§ä¿å­˜ã™ã‚‹ã¨ãã¨åŒã˜ãƒ‘ã‚¿ãƒ¼ãƒ³ã§å‡ºåŠ›ã™ã‚‹
 579:Core/Src/MazeLib.c ****     //Raw
 580:Core/Src/MazeLib.c ****     //Column
 581:Core/Src/MazeLib.c ****     //Rawã‚’1åˆ—å‡ºåŠ›ã—ã€æ”¹è¡Œã›ãšColumnã®1åˆ—å‡ºåŠ›ã€‚
 582:Core/Src/MazeLib.c ****     //è¡Œã‚’å¢—ã‚„ã—ã¦åŒã˜å‡¦ç†
 583:Core/Src/MazeLib.c ****     for(int i=0; i < NUMBER_OF_SQUARES_X; i++)
 584:Core/Src/MazeLib.c ****     {
 585:Core/Src/MazeLib.c ****         for(int j=1; j < NUMBER_OF_SQUARES_Y+1; j++)
 586:Core/Src/MazeLib.c ****         {
 587:Core/Src/MazeLib.c ****             printf("%u,",mn->RawNode[i][j].existence);
ARM GAS  /var/folders/v_/kwz_t0cs68g1q1d733r227b80000gn/T//cc7enlx9.s 			page 14


 588:Core/Src/MazeLib.c ****         }
 589:Core/Src/MazeLib.c ****         for(int j=0; j < NUMBER_OF_SQUARES_Y; j++)
 590:Core/Src/MazeLib.c ****         {
 591:Core/Src/MazeLib.c ****             printf("%u",mn->ColumnNode[i+1][j].existence);
 592:Core/Src/MazeLib.c ****             if(j < NUMBER_OF_SQUARES_Y-1)
 593:Core/Src/MazeLib.c ****                 printf(",");
 594:Core/Src/MazeLib.c ****         }
 595:Core/Src/MazeLib.c ****         printf("\r\n");
 596:Core/Src/MazeLib.c ****     }
 597:Core/Src/MazeLib.c ****     printf("\r\n");
 598:Core/Src/MazeLib.c **** }
 599:Core/Src/MazeLib.c **** 
 600:Core/Src/MazeLib.c **** _Bool outputDataToFile(maze_node *maze)
 601:Core/Src/MazeLib.c **** {
 602:Core/Src/MazeLib.c ****     char weight_file[] = "weight.txt";
 603:Core/Src/MazeLib.c ****     FILE*fp;
 604:Core/Src/MazeLib.c ****     fp = fopen(weight_file,"w");
 605:Core/Src/MazeLib.c ****     if(fp == NULL) {
 606:Core/Src/MazeLib.c **** 		printf("%s file not open!\n", weight_file);
 607:Core/Src/MazeLib.c **** 		return false;
 608:Core/Src/MazeLib.c **** 	} else {
 609:Core/Src/MazeLib.c **** 		printf("%s file opened!\n", weight_file);
 610:Core/Src/MazeLib.c **** 	}
 611:Core/Src/MazeLib.c ****     
 612:Core/Src/MazeLib.c ****     for(int y=NUMBER_OF_SQUARES_Y; y > 0; y--)
 613:Core/Src/MazeLib.c ****     {
 614:Core/Src/MazeLib.c ****         //è¡Œ
 615:Core/Src/MazeLib.c ****         fprintf(fp,"     ");
 616:Core/Src/MazeLib.c ****         for(int x=0; x < NUMBER_OF_SQUARES_X; x++)
 617:Core/Src/MazeLib.c ****         {
 618:Core/Src/MazeLib.c ****             if(judgeRawNodeGoal(maze, x,y) == true)
 619:Core/Src/MazeLib.c ****             {
 620:Core/Src/MazeLib.c ****                 fprintf(fp," GGG ");
 621:Core/Src/MazeLib.c ****             }
 622:Core/Src/MazeLib.c ****             else
 623:Core/Src/MazeLib.c ****             {
 624:Core/Src/MazeLib.c ****                 fprintf(fp," %3x ",maze->RawNode[x][y].weight);
 625:Core/Src/MazeLib.c ****             }
 626:Core/Src/MazeLib.c ****             if(x < NUMBER_OF_SQUARES_X-1)
 627:Core/Src/MazeLib.c ****                 fprintf(fp,"     ");
 628:Core/Src/MazeLib.c ****         }
 629:Core/Src/MazeLib.c ****         fprintf(fp,"\r\n");
 630:Core/Src/MazeLib.c ****                 
 631:Core/Src/MazeLib.c ****         //åˆ—
 632:Core/Src/MazeLib.c ****         for(int x=0; x < NUMBER_OF_SQUARES_X+1; x++)
 633:Core/Src/MazeLib.c ****         {
 634:Core/Src/MazeLib.c ****             if(judgeColumnNodeGoal(maze, x,y-1) == true)
 635:Core/Src/MazeLib.c ****             {
 636:Core/Src/MazeLib.c ****                 fprintf(fp," GGG ");
 637:Core/Src/MazeLib.c ****             }
 638:Core/Src/MazeLib.c ****             else
 639:Core/Src/MazeLib.c ****             {
 640:Core/Src/MazeLib.c ****                 fprintf(fp," %3x ",maze->ColumnNode[x][y-1].weight);
 641:Core/Src/MazeLib.c ****             }
 642:Core/Src/MazeLib.c ****             if(x < NUMBER_OF_SQUARES_X)
 643:Core/Src/MazeLib.c ****                 fprintf(fp,"     ");
 644:Core/Src/MazeLib.c ****         }
ARM GAS  /var/folders/v_/kwz_t0cs68g1q1d733r227b80000gn/T//cc7enlx9.s 			page 15


 645:Core/Src/MazeLib.c ****         fprintf(fp,"\r\n");
 646:Core/Src/MazeLib.c ****     }
 647:Core/Src/MazeLib.c ****     //y ãŒ0ã®ã¨ãã®è¡Œã ã‘è¡¨ç¤º
 648:Core/Src/MazeLib.c ****     fprintf(fp,"     ");
 649:Core/Src/MazeLib.c ****     for(int x=0; x < NUMBER_OF_SQUARES_X; x++)
 650:Core/Src/MazeLib.c ****     {
 651:Core/Src/MazeLib.c ****         fprintf(fp," %3x ",maze->RawNode[x][0].weight);
 652:Core/Src/MazeLib.c ****         if(x < NUMBER_OF_SQUARES_X-1)
 653:Core/Src/MazeLib.c ****                 fprintf(fp,"     ");
 654:Core/Src/MazeLib.c ****     }
 655:Core/Src/MazeLib.c ****     fprintf(fp,"\r\n");
 656:Core/Src/MazeLib.c ****     fclose(fp);
 657:Core/Src/MazeLib.c ****     return true;
 658:Core/Src/MazeLib.c **** 
 659:Core/Src/MazeLib.c **** }
 660:Core/Src/MazeLib.c **** static uint8_t convertNodeTo16Value(maze_node *maze, int x, int y)
 661:Core/Src/MazeLib.c **** {
 156              		.loc 1 661 1 is_stmt 1 view -0
 157              		.cfi_startproc
 158              		@ args = 0, pretend = 0, frame = 0
 159              		@ frame_needed = 0, uses_anonymous_args = 0
 160              		.loc 1 661 1 is_stmt 0 view .LVU34
 161 0000 00B5     		push	{lr}
 162              	.LCFI0:
 163              		.cfi_def_cfa_offset 4
 164              		.cfi_offset 14, -4
 662:Core/Src/MazeLib.c ****     //xyåº§æ¨™ã‚’å…¥åŠ›
 663:Core/Src/MazeLib.c ****     //å„ãƒã‚¹ã®16é€²æ•°ã‚’å‡ºåŠ›ã€‚
 664:Core/Src/MazeLib.c ****     uint8_t val=0;
 165              		.loc 1 664 5 is_stmt 1 view .LVU35
 166              	.LVL15:
 665:Core/Src/MazeLib.c ****     val += 1 * maze->RawNode[x][y+1].draw;      //åŒ—
 167              		.loc 1 665 5 view .LVU36
 168              		.loc 1 665 34 is_stmt 0 view .LVU37
 169 0002 531C     		adds	r3, r2, #1
 170              		.loc 1 665 37 view .LVU38
 171 0004 01EB011E 		add	lr, r1, r1, lsl #4
 172 0008 7344     		add	r3, r3, lr
 173 000a 00EBC303 		add	r3, r0, r3, lsl #3
 174 000e 1B79     		ldrb	r3, [r3, #4]	@ zero_extendqisi2
 175              	.LVL16:
 666:Core/Src/MazeLib.c ****     val += 2 * maze->ColumnNode[x+1][y].draw;   //æ±
 176              		.loc 1 666 5 is_stmt 1 view .LVU39
 177              		.loc 1 666 34 is_stmt 0 view .LVU40
 178 0010 01F1010C 		add	ip, r1, #1
 179              		.loc 1 666 40 view .LVU41
 180 0014 02EB0C1C 		add	ip, r2, ip, lsl #4
 181 0018 0CF5887C 		add	ip, ip, #272
 182 001c 00EBCC0C 		add	ip, r0, ip, lsl #3
 183 0020 9CF804C0 		ldrb	ip, [ip, #4]	@ zero_extendqisi2
 184              		.loc 1 666 9 view .LVU42
 185 0024 03EB4C03 		add	r3, r3, ip, lsl #1
 186              	.LVL17:
 667:Core/Src/MazeLib.c ****     val += 4 * maze->RawNode[x][y].draw;        //å—
 187              		.loc 1 667 5 is_stmt 1 view .LVU43
 188              		.loc 1 667 35 is_stmt 0 view .LVU44
 189 0028 9644     		add	lr, lr, r2
ARM GAS  /var/folders/v_/kwz_t0cs68g1q1d733r227b80000gn/T//cc7enlx9.s 			page 16


 190 002a 00EBCE0E 		add	lr, r0, lr, lsl #3
 191 002e 9EF804C0 		ldrb	ip, [lr, #4]	@ zero_extendqisi2
 192              		.loc 1 667 9 view .LVU45
 193 0032 4FEA8C0C 		lsl	ip, ip, #2
 194 0036 5CFA83F3 		uxtab	r3, ip, r3
 195              	.LVL18:
 668:Core/Src/MazeLib.c ****     val += 8 * maze->ColumnNode[x][y].draw;     //è¥¿
 196              		.loc 1 668 5 is_stmt 1 view .LVU46
 197              		.loc 1 668 38 is_stmt 0 view .LVU47
 198 003a 02EB0112 		add	r2, r2, r1, lsl #4
 199              	.LVL19:
 200              		.loc 1 668 38 view .LVU48
 201 003e 02F58872 		add	r2, r2, #272
 202 0042 00EBC202 		add	r2, r0, r2, lsl #3
 203 0046 1079     		ldrb	r0, [r2, #4]	@ zero_extendqisi2
 204              	.LVL20:
 205              		.loc 1 668 9 view .LVU49
 206 0048 C000     		lsls	r0, r0, #3
 207 004a 50FA83F0 		uxtab	r0, r0, r3
 208              	.LVL21:
 669:Core/Src/MazeLib.c ****     return val;
 209              		.loc 1 669 5 is_stmt 1 view .LVU50
 670:Core/Src/MazeLib.c **** }
 210              		.loc 1 670 1 is_stmt 0 view .LVU51
 211 004e C0B2     		uxtb	r0, r0
 212              		.loc 1 670 1 view .LVU52
 213 0050 5DF804FB 		ldr	pc, [sp], #4
 214              		.cfi_endproc
 215              	.LFE20:
 217              		.section	.text.initWeight,"ax",%progbits
 218              		.align	1
 219              		.global	initWeight
 220              		.syntax unified
 221              		.thumb
 222              		.thumb_func
 223              		.fpu fpv4-sp-d16
 225              	initWeight:
 226              	.LVL22:
 227              	.LFB3:
   9:Core/Src/MazeLib.c ****     // for(int i=0; i < NUMBER_OF_SQUARES_X; i++)
 228              		.loc 1 9 1 is_stmt 1 view -0
 229              		.cfi_startproc
 230              		@ args = 0, pretend = 0, frame = 0
 231              		@ frame_needed = 0, uses_anonymous_args = 0
 232              		@ link register save eliminated.
  24:Core/Src/MazeLib.c ****     {
 233              		.loc 1 24 5 view .LVU54
 234              	.LBB2:
  24:Core/Src/MazeLib.c ****     {
 235              		.loc 1 24 9 view .LVU55
  24:Core/Src/MazeLib.c ****     {
 236              		.loc 1 24 13 is_stmt 0 view .LVU56
 237 0000 0021     		movs	r1, #0
  24:Core/Src/MazeLib.c ****     {
 238              		.loc 1 24 5 view .LVU57
 239 0002 0CE0     		b	.L14
 240              	.LVL23:
ARM GAS  /var/folders/v_/kwz_t0cs68g1q1d733r227b80000gn/T//cc7enlx9.s 			page 17


 241              	.L15:
 242              	.LBB3:
  28:Core/Src/MazeLib.c ****         }
 243              		.loc 1 28 13 is_stmt 1 discriminator 3 view .LVU58
  28:Core/Src/MazeLib.c ****         }
 244              		.loc 1 28 40 is_stmt 0 discriminator 3 view .LVU59
 245 0004 01EB0113 		add	r3, r1, r1, lsl #4
 246 0008 1344     		add	r3, r3, r2
 247 000a 00EBC303 		add	r3, r0, r3, lsl #3
 248 000e 40F6FF7C 		movw	ip, #4095
 249 0012 A3F802C0 		strh	ip, [r3, #2]	@ movhi
  26:Core/Src/MazeLib.c ****         {
 250              		.loc 1 26 49 is_stmt 1 discriminator 3 view .LVU60
  26:Core/Src/MazeLib.c ****         {
 251              		.loc 1 26 50 is_stmt 0 discriminator 3 view .LVU61
 252 0016 0132     		adds	r2, r2, #1
 253              	.LVL24:
 254              	.L16:
  26:Core/Src/MazeLib.c ****         {
 255              		.loc 1 26 22 is_stmt 1 discriminator 1 view .LVU62
  26:Core/Src/MazeLib.c ****         {
 256              		.loc 1 26 9 is_stmt 0 discriminator 1 view .LVU63
 257 0018 102A     		cmp	r2, #16
 258 001a F3DD     		ble	.L15
 259              	.LBE3:
  24:Core/Src/MazeLib.c ****     {
 260              		.loc 1 24 43 is_stmt 1 discriminator 2 view .LVU64
  24:Core/Src/MazeLib.c ****     {
 261              		.loc 1 24 44 is_stmt 0 discriminator 2 view .LVU65
 262 001c 0131     		adds	r1, r1, #1
 263              	.LVL25:
 264              	.L14:
  24:Core/Src/MazeLib.c ****     {
 265              		.loc 1 24 18 is_stmt 1 discriminator 1 view .LVU66
  24:Core/Src/MazeLib.c ****     {
 266              		.loc 1 24 5 is_stmt 0 discriminator 1 view .LVU67
 267 001e 0F29     		cmp	r1, #15
 268 0020 01DC     		bgt	.L22
 269              	.LBB4:
  26:Core/Src/MazeLib.c ****         {
 270              		.loc 1 26 17 view .LVU68
 271 0022 0022     		movs	r2, #0
 272 0024 F8E7     		b	.L16
 273              	.L22:
 274              	.LBE4:
 275              	.LBE2:
 276              	.LBB5:
  31:Core/Src/MazeLib.c ****     {
 277              		.loc 1 31 13 view .LVU69
 278 0026 4FF0000C 		mov	ip, #0
 279 002a 0DE0     		b	.L17
 280              	.LVL26:
 281              	.L18:
 282              	.LBB6:
  35:Core/Src/MazeLib.c ****         }
 283              		.loc 1 35 13 is_stmt 1 discriminator 3 view .LVU70
  35:Core/Src/MazeLib.c ****         }
ARM GAS  /var/folders/v_/kwz_t0cs68g1q1d733r227b80000gn/T//cc7enlx9.s 			page 18


 284              		.loc 1 35 43 is_stmt 0 discriminator 3 view .LVU71
 285 002c 02EB0C13 		add	r3, r2, ip, lsl #4
 286 0030 03F58873 		add	r3, r3, #272
 287 0034 00EBC303 		add	r3, r0, r3, lsl #3
 288 0038 40F6FF71 		movw	r1, #4095
 289 003c 5980     		strh	r1, [r3, #2]	@ movhi
  33:Core/Src/MazeLib.c ****         {
 290              		.loc 1 33 47 is_stmt 1 discriminator 3 view .LVU72
  33:Core/Src/MazeLib.c ****         {
 291              		.loc 1 33 48 is_stmt 0 discriminator 3 view .LVU73
 292 003e 0132     		adds	r2, r2, #1
 293              	.LVL27:
 294              	.L19:
  33:Core/Src/MazeLib.c ****         {
 295              		.loc 1 33 22 is_stmt 1 discriminator 1 view .LVU74
  33:Core/Src/MazeLib.c ****         {
 296              		.loc 1 33 9 is_stmt 0 discriminator 1 view .LVU75
 297 0040 0F2A     		cmp	r2, #15
 298 0042 F3DD     		ble	.L18
 299              	.LBE6:
  31:Core/Src/MazeLib.c ****     {
 300              		.loc 1 31 45 is_stmt 1 discriminator 2 view .LVU76
  31:Core/Src/MazeLib.c ****     {
 301              		.loc 1 31 46 is_stmt 0 discriminator 2 view .LVU77
 302 0044 0CF1010C 		add	ip, ip, #1
 303              	.LVL28:
 304              	.L17:
  31:Core/Src/MazeLib.c ****     {
 305              		.loc 1 31 18 is_stmt 1 discriminator 1 view .LVU78
  31:Core/Src/MazeLib.c ****     {
 306              		.loc 1 31 5 is_stmt 0 discriminator 1 view .LVU79
 307 0048 BCF1100F 		cmp	ip, #16
 308 004c 01DC     		bgt	.L23
 309              	.LBB7:
  33:Core/Src/MazeLib.c ****         {
 310              		.loc 1 33 17 view .LVU80
 311 004e 0022     		movs	r2, #0
 312 0050 F6E7     		b	.L19
 313              	.L23:
 314              	.LBE7:
 315              	.LBE5:
  38:Core/Src/MazeLib.c **** void initMaze(maze_node *maze) //é‡ã¿ã¯åˆ¥ã§åˆæœŸåŒ–
 316              		.loc 1 38 1 view .LVU81
 317 0052 7047     		bx	lr
 318              		.cfi_endproc
 319              	.LFE3:
 321              		.section	.text.initMaze,"ax",%progbits
 322              		.align	1
 323              		.global	initMaze
 324              		.syntax unified
 325              		.thumb
 326              		.thumb_func
 327              		.fpu fpv4-sp-d16
 329              	initMaze:
 330              	.LVL29:
 331              	.LFB4:
  40:Core/Src/MazeLib.c ****     //ã¾ãšæœªæ¢ç´¢çŠ¶æ…‹ã«ã™ã‚‹
ARM GAS  /var/folders/v_/kwz_t0cs68g1q1d733r227b80000gn/T//cc7enlx9.s 			page 19


 332              		.loc 1 40 1 is_stmt 1 view -0
 333              		.cfi_startproc
 334              		@ args = 0, pretend = 0, frame = 0
 335              		@ frame_needed = 0, uses_anonymous_args = 0
  40:Core/Src/MazeLib.c ****     //ã¾ãšæœªæ¢ç´¢çŠ¶æ…‹ã«ã™ã‚‹
 336              		.loc 1 40 1 is_stmt 0 view .LVU83
 337 0000 00B5     		push	{lr}
 338              	.LCFI1:
 339              		.cfi_def_cfa_offset 4
 340              		.cfi_offset 14, -4
  42:Core/Src/MazeLib.c ****     {
 341              		.loc 1 42 5 is_stmt 1 view .LVU84
 342              	.LBB8:
  42:Core/Src/MazeLib.c ****     {
 343              		.loc 1 42 9 view .LVU85
 344              	.LVL30:
  42:Core/Src/MazeLib.c ****     {
 345              		.loc 1 42 13 is_stmt 0 view .LVU86
 346 0002 0021     		movs	r1, #0
  42:Core/Src/MazeLib.c ****     {
 347              		.loc 1 42 5 view .LVU87
 348 0004 14E0     		b	.L25
 349              	.LVL31:
 350              	.L26:
 351              	.LBB9:
  46:Core/Src/MazeLib.c ****             maze->RawNode[i][j].draw = false;//æœªçŸ¥å£ã¯æç”»ã®ã¨ãã«ç„¡ã„ã‚‚ã®ã¨ã™ã‚‹
 352              		.loc 1 46 13 is_stmt 1 discriminator 3 view .LVU88
  46:Core/Src/MazeLib.c ****             maze->RawNode[i][j].draw = false;//æœªçŸ¥å£ã¯æç”»ã®ã¨ãã«ç„¡ã„ã‚‚ã®ã¨ã™ã‚‹
 353              		.loc 1 46 43 is_stmt 0 discriminator 3 view .LVU89
 354 0006 01EB0113 		add	r3, r1, r1, lsl #4
 355 000a 1344     		add	r3, r3, r2
 356 000c 4FF0020C 		mov	ip, #2
 357 0010 00F833C0 		strb	ip, [r0, r3, lsl #3]
  47:Core/Src/MazeLib.c ****             maze->RawNode[i][j].rc = 0;
 358              		.loc 1 47 13 is_stmt 1 discriminator 3 view .LVU90
  47:Core/Src/MazeLib.c ****             maze->RawNode[i][j].rc = 0;
 359              		.loc 1 47 38 is_stmt 0 discriminator 3 view .LVU91
 360 0014 00EBC303 		add	r3, r0, r3, lsl #3
 361 0018 4FF0000C 		mov	ip, #0
 362 001c 83F804C0 		strb	ip, [r3, #4]
  48:Core/Src/MazeLib.c ****             maze->RawNode[i][j].pos.x = i;
 363              		.loc 1 48 13 is_stmt 1 discriminator 3 view .LVU92
  48:Core/Src/MazeLib.c ****             maze->RawNode[i][j].pos.x = i;
 364              		.loc 1 48 36 is_stmt 0 discriminator 3 view .LVU93
 365 0020 83F805C0 		strb	ip, [r3, #5]
  49:Core/Src/MazeLib.c ****             maze->RawNode[i][j].pos.y = j;
 366              		.loc 1 49 13 is_stmt 1 discriminator 3 view .LVU94
  49:Core/Src/MazeLib.c ****             maze->RawNode[i][j].pos.y = j;
 367              		.loc 1 49 39 is_stmt 0 discriminator 3 view .LVU95
 368 0024 9971     		strb	r1, [r3, #6]
  50:Core/Src/MazeLib.c **** //            maze->RawNode[i][j].visit = false;
 369              		.loc 1 50 13 is_stmt 1 discriminator 3 view .LVU96
  50:Core/Src/MazeLib.c **** //            maze->RawNode[i][j].visit = false;
 370              		.loc 1 50 39 is_stmt 0 discriminator 3 view .LVU97
 371 0026 DA71     		strb	r2, [r3, #7]
  44:Core/Src/MazeLib.c ****         {
 372              		.loc 1 44 47 is_stmt 1 discriminator 3 view .LVU98
ARM GAS  /var/folders/v_/kwz_t0cs68g1q1d733r227b80000gn/T//cc7enlx9.s 			page 20


  44:Core/Src/MazeLib.c ****         {
 373              		.loc 1 44 48 is_stmt 0 discriminator 3 view .LVU99
 374 0028 0132     		adds	r2, r2, #1
 375              	.LVL32:
 376              	.L27:
  44:Core/Src/MazeLib.c ****         {
 377              		.loc 1 44 22 is_stmt 1 discriminator 1 view .LVU100
  44:Core/Src/MazeLib.c ****         {
 378              		.loc 1 44 9 is_stmt 0 discriminator 1 view .LVU101
 379 002a 0F2A     		cmp	r2, #15
 380 002c EBDD     		ble	.L26
 381              	.LBE9:
  42:Core/Src/MazeLib.c ****     {
 382              		.loc 1 42 43 is_stmt 1 discriminator 2 view .LVU102
  42:Core/Src/MazeLib.c ****     {
 383              		.loc 1 42 44 is_stmt 0 discriminator 2 view .LVU103
 384 002e 0131     		adds	r1, r1, #1
 385              	.LVL33:
 386              	.L25:
  42:Core/Src/MazeLib.c ****     {
 387              		.loc 1 42 18 is_stmt 1 discriminator 1 view .LVU104
  42:Core/Src/MazeLib.c ****     {
 388              		.loc 1 42 5 is_stmt 0 discriminator 1 view .LVU105
 389 0030 0F29     		cmp	r1, #15
 390 0032 01DC     		bgt	.L38
 391              	.LBB10:
  44:Core/Src/MazeLib.c ****         {
 392              		.loc 1 44 17 view .LVU106
 393 0034 0122     		movs	r2, #1
 394 0036 F8E7     		b	.L27
 395              	.L38:
 396              	.LBE10:
 397              	.LBE8:
 398              	.LBB11:
  54:Core/Src/MazeLib.c ****     {
 399              		.loc 1 54 13 view .LVU107
 400 0038 0022     		movs	r2, #0
 401 003a 1DE0     		b	.L28
 402              	.LVL34:
 403              	.L29:
  56:Core/Src/MazeLib.c ****             maze->RawNode[i][0].draw = true;//æœªçŸ¥å£ã¯æç”»ã®ã¨ãã«ç„¡ã„ã‚‚ã®ã¨ã™ã‚‹
 404              		.loc 1 56 13 is_stmt 1 discriminator 3 view .LVU108
  56:Core/Src/MazeLib.c ****             maze->RawNode[i][0].draw = true;//æœªçŸ¥å£ã¯æç”»ã®ã¨ãã«ç„¡ã„ã‚‚ã®ã¨ã™ã‚‹
 405              		.loc 1 56 43 is_stmt 0 discriminator 3 view .LVU109
 406 003c 02EB021C 		add	ip, r2, r2, lsl #4
 407 0040 00EBCC03 		add	r3, r0, ip, lsl #3
 408 0044 0121     		movs	r1, #1
 409 0046 00F83C10 		strb	r1, [r0, ip, lsl #3]
  57:Core/Src/MazeLib.c ****             maze->RawNode[i][0].rc = 0;
 410              		.loc 1 57 13 is_stmt 1 discriminator 3 view .LVU110
  57:Core/Src/MazeLib.c ****             maze->RawNode[i][0].rc = 0;
 411              		.loc 1 57 38 is_stmt 0 discriminator 3 view .LVU111
 412 004a 1971     		strb	r1, [r3, #4]
  58:Core/Src/MazeLib.c ****             maze->RawNode[i][0].pos.x = i;
 413              		.loc 1 58 13 is_stmt 1 discriminator 3 view .LVU112
  58:Core/Src/MazeLib.c ****             maze->RawNode[i][0].pos.x = i;
 414              		.loc 1 58 36 is_stmt 0 discriminator 3 view .LVU113
ARM GAS  /var/folders/v_/kwz_t0cs68g1q1d733r227b80000gn/T//cc7enlx9.s 			page 21


 415 004c 4FF0000C 		mov	ip, #0
 416 0050 83F805C0 		strb	ip, [r3, #5]
  59:Core/Src/MazeLib.c ****             maze->RawNode[i][0].pos.y = 0;
 417              		.loc 1 59 13 is_stmt 1 discriminator 3 view .LVU114
  59:Core/Src/MazeLib.c ****             maze->RawNode[i][0].pos.y = 0;
 418              		.loc 1 59 39 is_stmt 0 discriminator 3 view .LVU115
 419 0054 5FFA82FE 		uxtb	lr, r2
 420 0058 83F806E0 		strb	lr, [r3, #6]
  60:Core/Src/MazeLib.c **** //            maze->RawNode[i][0].visit = true; //ä¾¿å®œçš„ã«è¨ªå•æ¸ˆã¿ã¨ã™ã‚‹
 421              		.loc 1 60 13 is_stmt 1 discriminator 3 view .LVU116
  60:Core/Src/MazeLib.c **** //            maze->RawNode[i][0].visit = true; //ä¾¿å®œçš„ã«è¨ªå•æ¸ˆã¿ã¨ã™ã‚‹
 422              		.loc 1 60 39 is_stmt 0 discriminator 3 view .LVU117
 423 005c 83F807C0 		strb	ip, [r3, #7]
  62:Core/Src/MazeLib.c ****             maze->RawNode[i][NUMBER_OF_SQUARES_Y].draw = true;//æœªçŸ¥å£ã¯æç”»ã®ã¨ãã«ç„¡ã
 424              		.loc 1 62 13 is_stmt 1 discriminator 3 view .LVU118
  62:Core/Src/MazeLib.c ****             maze->RawNode[i][NUMBER_OF_SQUARES_Y].draw = true;//æœªçŸ¥å£ã¯æç”»ã®ã¨ãã«ç„¡ã
 425              		.loc 1 62 61 is_stmt 0 discriminator 3 view .LVU119
 426 0060 83F88010 		strb	r1, [r3, #128]
  63:Core/Src/MazeLib.c ****             maze->RawNode[i][NUMBER_OF_SQUARES_Y].rc = 0;
 427              		.loc 1 63 13 is_stmt 1 discriminator 3 view .LVU120
  63:Core/Src/MazeLib.c ****             maze->RawNode[i][NUMBER_OF_SQUARES_Y].rc = 0;
 428              		.loc 1 63 56 is_stmt 0 discriminator 3 view .LVU121
 429 0064 83F88410 		strb	r1, [r3, #132]
  64:Core/Src/MazeLib.c ****             maze->RawNode[i][NUMBER_OF_SQUARES_Y].pos.x = i;
 430              		.loc 1 64 13 is_stmt 1 discriminator 3 view .LVU122
  64:Core/Src/MazeLib.c ****             maze->RawNode[i][NUMBER_OF_SQUARES_Y].pos.x = i;
 431              		.loc 1 64 54 is_stmt 0 discriminator 3 view .LVU123
 432 0068 83F885C0 		strb	ip, [r3, #133]
  65:Core/Src/MazeLib.c ****             maze->RawNode[i][NUMBER_OF_SQUARES_Y].pos.y = NUMBER_OF_SQUARES_Y;
 433              		.loc 1 65 13 is_stmt 1 discriminator 3 view .LVU124
  65:Core/Src/MazeLib.c ****             maze->RawNode[i][NUMBER_OF_SQUARES_Y].pos.y = NUMBER_OF_SQUARES_Y;
 434              		.loc 1 65 57 is_stmt 0 discriminator 3 view .LVU125
 435 006c 83F886E0 		strb	lr, [r3, #134]
  66:Core/Src/MazeLib.c **** //            maze->RawNode[i][NUMBER_OF_SQUARES_Y].visit = true; //ä¾¿å®œçš„ã«è¨ªå•æ¸ˆã¿ã¨ã™ã
 436              		.loc 1 66 13 is_stmt 1 discriminator 3 view .LVU126
  66:Core/Src/MazeLib.c **** //            maze->RawNode[i][NUMBER_OF_SQUARES_Y].visit = true; //ä¾¿å®œçš„ã«è¨ªå•æ¸ˆã¿ã¨ã™ã
 437              		.loc 1 66 57 is_stmt 0 discriminator 3 view .LVU127
 438 0070 1021     		movs	r1, #16
 439 0072 83F88710 		strb	r1, [r3, #135]
  54:Core/Src/MazeLib.c ****     {
 440              		.loc 1 54 43 is_stmt 1 discriminator 3 view .LVU128
  54:Core/Src/MazeLib.c ****     {
 441              		.loc 1 54 44 is_stmt 0 discriminator 3 view .LVU129
 442 0076 0132     		adds	r2, r2, #1
 443              	.LVL35:
 444              	.L28:
  54:Core/Src/MazeLib.c ****     {
 445              		.loc 1 54 18 is_stmt 1 discriminator 1 view .LVU130
  54:Core/Src/MazeLib.c ****     {
 446              		.loc 1 54 5 is_stmt 0 discriminator 1 view .LVU131
 447 0078 0F2A     		cmp	r2, #15
 448 007a DFDD     		ble	.L29
 449              	.LBE11:
 450              	.LBB12:
  69:Core/Src/MazeLib.c ****     {
 451              		.loc 1 69 13 view .LVU132
 452 007c 0121     		movs	r1, #1
ARM GAS  /var/folders/v_/kwz_t0cs68g1q1d733r227b80000gn/T//cc7enlx9.s 			page 22


 453 007e 17E0     		b	.L30
 454              	.LVL36:
 455              	.L31:
 456              	.LBB13:
  73:Core/Src/MazeLib.c ****             maze->ColumnNode[i][j].draw = false;
 457              		.loc 1 73 13 is_stmt 1 discriminator 3 view .LVU133
  73:Core/Src/MazeLib.c ****             maze->ColumnNode[i][j].draw = false;
 458              		.loc 1 73 46 is_stmt 0 discriminator 3 view .LVU134
 459 0080 02EB0113 		add	r3, r2, r1, lsl #4
 460 0084 03F58873 		add	r3, r3, #272
 461 0088 4FF0020C 		mov	ip, #2
 462 008c 00F833C0 		strb	ip, [r0, r3, lsl #3]
  74:Core/Src/MazeLib.c ****             maze->ColumnNode[i][j].rc = 1;
 463              		.loc 1 74 13 is_stmt 1 discriminator 3 view .LVU135
  74:Core/Src/MazeLib.c ****             maze->ColumnNode[i][j].rc = 1;
 464              		.loc 1 74 41 is_stmt 0 discriminator 3 view .LVU136
 465 0090 00EBC303 		add	r3, r0, r3, lsl #3
 466 0094 4FF0000C 		mov	ip, #0
 467 0098 83F804C0 		strb	ip, [r3, #4]
  75:Core/Src/MazeLib.c ****             maze->ColumnNode[i][j].pos.x = i;
 468              		.loc 1 75 13 is_stmt 1 discriminator 3 view .LVU137
  75:Core/Src/MazeLib.c ****             maze->ColumnNode[i][j].pos.x = i;
 469              		.loc 1 75 39 is_stmt 0 discriminator 3 view .LVU138
 470 009c 4FF0010C 		mov	ip, #1
 471 00a0 83F805C0 		strb	ip, [r3, #5]
  76:Core/Src/MazeLib.c ****             maze->ColumnNode[i][j].pos.y = j;
 472              		.loc 1 76 13 is_stmt 1 discriminator 3 view .LVU139
  76:Core/Src/MazeLib.c ****             maze->ColumnNode[i][j].pos.y = j;
 473              		.loc 1 76 42 is_stmt 0 discriminator 3 view .LVU140
 474 00a4 9971     		strb	r1, [r3, #6]
  77:Core/Src/MazeLib.c **** //            maze->ColumnNode[i][j].visit = false;
 475              		.loc 1 77 13 is_stmt 1 discriminator 3 view .LVU141
  77:Core/Src/MazeLib.c **** //            maze->ColumnNode[i][j].visit = false;
 476              		.loc 1 77 42 is_stmt 0 discriminator 3 view .LVU142
 477 00a6 DA71     		strb	r2, [r3, #7]
  71:Core/Src/MazeLib.c ****         {
 478              		.loc 1 71 47 is_stmt 1 discriminator 3 view .LVU143
  71:Core/Src/MazeLib.c ****         {
 479              		.loc 1 71 48 is_stmt 0 discriminator 3 view .LVU144
 480 00a8 6244     		add	r2, r2, ip
 481              	.LVL37:
 482              	.L32:
  71:Core/Src/MazeLib.c ****         {
 483              		.loc 1 71 22 is_stmt 1 discriminator 1 view .LVU145
  71:Core/Src/MazeLib.c ****         {
 484              		.loc 1 71 9 is_stmt 0 discriminator 1 view .LVU146
 485 00aa 0F2A     		cmp	r2, #15
 486 00ac E8DD     		ble	.L31
 487              	.LBE13:
  69:Core/Src/MazeLib.c ****     {
 488              		.loc 1 69 43 is_stmt 1 discriminator 2 view .LVU147
  69:Core/Src/MazeLib.c ****     {
 489              		.loc 1 69 44 is_stmt 0 discriminator 2 view .LVU148
 490 00ae 0131     		adds	r1, r1, #1
 491              	.LVL38:
 492              	.L30:
  69:Core/Src/MazeLib.c ****     {
ARM GAS  /var/folders/v_/kwz_t0cs68g1q1d733r227b80000gn/T//cc7enlx9.s 			page 23


 493              		.loc 1 69 18 is_stmt 1 discriminator 1 view .LVU149
  69:Core/Src/MazeLib.c ****     {
 494              		.loc 1 69 5 is_stmt 0 discriminator 1 view .LVU150
 495 00b0 0F29     		cmp	r1, #15
 496 00b2 01DC     		bgt	.L39
 497              	.LBB14:
  71:Core/Src/MazeLib.c ****         {
 498              		.loc 1 71 17 view .LVU151
 499 00b4 0022     		movs	r2, #0
 500 00b6 F8E7     		b	.L32
 501              	.L39:
 502              	.LBE14:
 503              	.LBE12:
 504              	.LBB15:
  81:Core/Src/MazeLib.c ****     {
 505              		.loc 1 81 13 view .LVU152
 506 00b8 0021     		movs	r1, #0
 507              	.LVL39:
  81:Core/Src/MazeLib.c ****     {
 508              		.loc 1 81 13 view .LVU153
 509 00ba 1DE0     		b	.L33
 510              	.LVL40:
 511              	.L34:
  83:Core/Src/MazeLib.c ****             maze->ColumnNode[0][j].draw = true;
 512              		.loc 1 83 13 is_stmt 1 discriminator 3 view .LVU154
  83:Core/Src/MazeLib.c ****             maze->ColumnNode[0][j].draw = true;
 513              		.loc 1 83 46 is_stmt 0 discriminator 3 view .LVU155
 514 00bc 01F58873 		add	r3, r1, #272
 515 00c0 0122     		movs	r2, #1
 516 00c2 00F83320 		strb	r2, [r0, r3, lsl #3]
  84:Core/Src/MazeLib.c ****             maze->ColumnNode[0][j].rc = 1;
 517              		.loc 1 84 13 is_stmt 1 discriminator 3 view .LVU156
  84:Core/Src/MazeLib.c ****             maze->ColumnNode[0][j].rc = 1;
 518              		.loc 1 84 41 is_stmt 0 discriminator 3 view .LVU157
 519 00c6 00EBC303 		add	r3, r0, r3, lsl #3
 520 00ca 1A71     		strb	r2, [r3, #4]
  85:Core/Src/MazeLib.c ****             maze->ColumnNode[0][j].pos.x = 0;
 521              		.loc 1 85 13 is_stmt 1 discriminator 3 view .LVU158
  85:Core/Src/MazeLib.c ****             maze->ColumnNode[0][j].pos.x = 0;
 522              		.loc 1 85 39 is_stmt 0 discriminator 3 view .LVU159
 523 00cc 5A71     		strb	r2, [r3, #5]
  86:Core/Src/MazeLib.c ****             maze->ColumnNode[0][j].pos.y = j;
 524              		.loc 1 86 13 is_stmt 1 discriminator 3 view .LVU160
  86:Core/Src/MazeLib.c ****             maze->ColumnNode[0][j].pos.y = j;
 525              		.loc 1 86 42 is_stmt 0 discriminator 3 view .LVU161
 526 00ce 4FF0000C 		mov	ip, #0
 527 00d2 83F806C0 		strb	ip, [r3, #6]
  87:Core/Src/MazeLib.c **** //            maze->ColumnNode[0][j].visit = true;
 528              		.loc 1 87 13 is_stmt 1 discriminator 3 view .LVU162
  87:Core/Src/MazeLib.c **** //            maze->ColumnNode[0][j].visit = true;
 529              		.loc 1 87 42 is_stmt 0 discriminator 3 view .LVU163
 530 00d6 5FFA81FC 		uxtb	ip, r1
 531 00da 83F807C0 		strb	ip, [r3, #7]
  89:Core/Src/MazeLib.c ****             maze->ColumnNode[NUMBER_OF_SQUARES_X][j].draw = true;
 532              		.loc 1 89 13 is_stmt 1 discriminator 3 view .LVU164
  89:Core/Src/MazeLib.c ****             maze->ColumnNode[NUMBER_OF_SQUARES_X][j].draw = true;
 533              		.loc 1 89 64 is_stmt 0 discriminator 3 view .LVU165
ARM GAS  /var/folders/v_/kwz_t0cs68g1q1d733r227b80000gn/T//cc7enlx9.s 			page 24


 534 00de 01F50473 		add	r3, r1, #528
 535 00e2 00F83320 		strb	r2, [r0, r3, lsl #3]
  90:Core/Src/MazeLib.c ****             maze->ColumnNode[NUMBER_OF_SQUARES_X][j].rc = 1;
 536              		.loc 1 90 13 is_stmt 1 discriminator 3 view .LVU166
  90:Core/Src/MazeLib.c ****             maze->ColumnNode[NUMBER_OF_SQUARES_X][j].rc = 1;
 537              		.loc 1 90 59 is_stmt 0 discriminator 3 view .LVU167
 538 00e6 00EBC303 		add	r3, r0, r3, lsl #3
 539 00ea 1A71     		strb	r2, [r3, #4]
  91:Core/Src/MazeLib.c ****             maze->ColumnNode[NUMBER_OF_SQUARES_X][j].pos.x = NUMBER_OF_SQUARES_X;
 540              		.loc 1 91 13 is_stmt 1 discriminator 3 view .LVU168
  91:Core/Src/MazeLib.c ****             maze->ColumnNode[NUMBER_OF_SQUARES_X][j].pos.x = NUMBER_OF_SQUARES_X;
 541              		.loc 1 91 57 is_stmt 0 discriminator 3 view .LVU169
 542 00ec 5A71     		strb	r2, [r3, #5]
  92:Core/Src/MazeLib.c ****             maze->ColumnNode[NUMBER_OF_SQUARES_X][j].pos.y = j;
 543              		.loc 1 92 13 is_stmt 1 discriminator 3 view .LVU170
  92:Core/Src/MazeLib.c ****             maze->ColumnNode[NUMBER_OF_SQUARES_X][j].pos.y = j;
 544              		.loc 1 92 60 is_stmt 0 discriminator 3 view .LVU171
 545 00ee 1022     		movs	r2, #16
 546 00f0 9A71     		strb	r2, [r3, #6]
  93:Core/Src/MazeLib.c **** //            maze->ColumnNode[NUMBER_OF_SQUARES_X][j].visit = true;
 547              		.loc 1 93 13 is_stmt 1 discriminator 3 view .LVU172
  93:Core/Src/MazeLib.c **** //            maze->ColumnNode[NUMBER_OF_SQUARES_X][j].visit = true;
 548              		.loc 1 93 60 is_stmt 0 discriminator 3 view .LVU173
 549 00f2 83F807C0 		strb	ip, [r3, #7]
  81:Core/Src/MazeLib.c ****     {
 550              		.loc 1 81 43 is_stmt 1 discriminator 3 view .LVU174
  81:Core/Src/MazeLib.c ****     {
 551              		.loc 1 81 44 is_stmt 0 discriminator 3 view .LVU175
 552 00f6 0131     		adds	r1, r1, #1
 553              	.LVL41:
 554              	.L33:
  81:Core/Src/MazeLib.c ****     {
 555              		.loc 1 81 18 is_stmt 1 discriminator 1 view .LVU176
  81:Core/Src/MazeLib.c ****     {
 556              		.loc 1 81 5 is_stmt 0 discriminator 1 view .LVU177
 557 00f8 0F29     		cmp	r1, #15
 558 00fa DFDD     		ble	.L34
 559              	.LBE15:
 130:Core/Src/MazeLib.c ****     maze->RawNode[0][1].existence = NOWALL;     //åŒ—0
 560              		.loc 1 130 5 is_stmt 1 view .LVU178
 130:Core/Src/MazeLib.c ****     maze->RawNode[0][1].existence = NOWALL;     //åŒ—0
 561              		.loc 1 130 38 is_stmt 0 view .LVU179
 562 00fc 0122     		movs	r2, #1
 563 00fe 80F80029 		strb	r2, [r0, #2304]
 131:Core/Src/MazeLib.c **** 
 564              		.loc 1 131 5 is_stmt 1 view .LVU180
 131:Core/Src/MazeLib.c **** 
 565              		.loc 1 131 35 is_stmt 0 view .LVU181
 566 0102 0023     		movs	r3, #0
 567 0104 0372     		strb	r3, [r0, #8]
 133:Core/Src/MazeLib.c ****     maze->RawNode[0][1].draw = false;     //åŒ—0
 568              		.loc 1 133 5 is_stmt 1 view .LVU182
 133:Core/Src/MazeLib.c ****     maze->RawNode[0][1].draw = false;     //åŒ—0
 569              		.loc 1 133 33 is_stmt 0 view .LVU183
 570 0106 80F80429 		strb	r2, [r0, #2308]
 134:Core/Src/MazeLib.c **** 
 571              		.loc 1 134 5 is_stmt 1 view .LVU184
ARM GAS  /var/folders/v_/kwz_t0cs68g1q1d733r227b80000gn/T//cc7enlx9.s 			page 25


 134:Core/Src/MazeLib.c **** 
 572              		.loc 1 134 30 is_stmt 0 view .LVU185
 573 010a 0373     		strb	r3, [r0, #12]
 139:Core/Src/MazeLib.c **** void initTargetAreaWeight(maze_node *maze, uint8_t x, uint8_t y, uint8_t target_size_x, uint8_t tar
 574              		.loc 1 139 1 view .LVU186
 575 010c 5DF804FB 		ldr	pc, [sp], #4
 576              		.cfi_endproc
 577              	.LFE4:
 579              		.section	.text.initTargetAreaWeight,"ax",%progbits
 580              		.align	1
 581              		.global	initTargetAreaWeight
 582              		.syntax unified
 583              		.thumb
 584              		.thumb_func
 585              		.fpu fpv4-sp-d16
 587              	initTargetAreaWeight:
 588              	.LVL42:
 589              	.LFB5:
 141:Core/Src/MazeLib.c ****     //ã‚´ãƒ¼ãƒ«ã‚¨ãƒªã‚¢ã®å¤–å €ã¨ä¸­ã®ãƒãƒ¼ãƒ‰ã¯å…¨ã¦0ã€å£ãŒã‚ã‚Œã°MAXã€‚
 590              		.loc 1 141 1 is_stmt 1 view -0
 591              		.cfi_startproc
 592              		@ args = 4, pretend = 0, frame = 0
 593              		@ frame_needed = 0, uses_anonymous_args = 0
 141:Core/Src/MazeLib.c ****     //ã‚´ãƒ¼ãƒ«ã‚¨ãƒªã‚¢ã®å¤–å €ã¨ä¸­ã®ãƒãƒ¼ãƒ‰ã¯å…¨ã¦0ã€å£ãŒã‚ã‚Œã°MAXã€‚
 594              		.loc 1 141 1 is_stmt 0 view .LVU188
 595 0000 2DE9F041 		push	{r4, r5, r6, r7, r8, lr}
 596              	.LCFI2:
 597              		.cfi_def_cfa_offset 24
 598              		.cfi_offset 4, -24
 599              		.cfi_offset 5, -20
 600              		.cfi_offset 6, -16
 601              		.cfi_offset 7, -12
 602              		.cfi_offset 8, -8
 603              		.cfi_offset 14, -4
 604 0004 0D46     		mov	r5, r1
 605 0006 1446     		mov	r4, r2
 606 0008 1F46     		mov	r7, r3
 607 000a 9DF81860 		ldrb	r6, [sp, #24]	@ zero_extendqisi2
 143:Core/Src/MazeLib.c ****     {
 608              		.loc 1 143 5 is_stmt 1 view .LVU189
 609              	.LBB16:
 143:Core/Src/MazeLib.c ****     {
 610              		.loc 1 143 9 view .LVU190
 611              	.LVL43:
 143:Core/Src/MazeLib.c ****     {
 612              		.loc 1 143 13 is_stmt 0 view .LVU191
 613 000e 0021     		movs	r1, #0
 614              	.LVL44:
 143:Core/Src/MazeLib.c ****     {
 615              		.loc 1 143 5 view .LVU192
 616 0010 5CE0     		b	.L41
 617              	.LVL45:
 618              	.L58:
 619              	.LBB17:
 153:Core/Src/MazeLib.c ****             maze->ColumnNode[x+1+i][y+j].weight = (maze->ColumnNode[x+1+i][y+j].existence == WALL) 
 620              		.loc 1 153 46 view .LVU193
 621 0012 40F6FF78 		movw	r8, #4095
ARM GAS  /var/folders/v_/kwz_t0cs68g1q1d733r227b80000gn/T//cc7enlx9.s 			page 26


 622              	.L42:
 153:Core/Src/MazeLib.c ****             maze->ColumnNode[x+1+i][y+j].weight = (maze->ColumnNode[x+1+i][y+j].existence == WALL) 
 623              		.loc 1 153 46 discriminator 4 view .LVU194
 624 0016 0EEB0E13 		add	r3, lr, lr, lsl #4
 625 001a 6344     		add	r3, r3, ip
 626 001c 00EBC303 		add	r3, r0, r3, lsl #3
 627 0020 A3F80280 		strh	r8, [r3, #2]	@ movhi
 154:Core/Src/MazeLib.c ****             maze->RawNode[x+i][y+j].weight = (maze->RawNode[x+i][y+j].existence == WALL) ? MAX_WEIG
 628              		.loc 1 154 13 is_stmt 1 discriminator 4 view .LVU195
 154:Core/Src/MazeLib.c ****             maze->RawNode[x+i][y+j].weight = (maze->RawNode[x+i][y+j].existence == WALL) ? MAX_WEIG
 629              		.loc 1 154 70 is_stmt 0 discriminator 4 view .LVU196
 630 0024 6B1C     		adds	r3, r5, #1
 154:Core/Src/MazeLib.c ****             maze->RawNode[x+i][y+j].weight = (maze->RawNode[x+i][y+j].existence == WALL) ? MAX_WEIG
 631              		.loc 1 154 72 discriminator 4 view .LVU197
 632 0026 0B44     		add	r3, r3, r1
 154:Core/Src/MazeLib.c ****             maze->RawNode[x+i][y+j].weight = (maze->RawNode[x+i][y+j].existence == WALL) ? MAX_WEIG
 633              		.loc 1 154 77 discriminator 4 view .LVU198
 634 0028 04EB020C 		add	ip, r4, r2
 154:Core/Src/MazeLib.c ****             maze->RawNode[x+i][y+j].weight = (maze->RawNode[x+i][y+j].existence == WALL) ? MAX_WEIG
 635              		.loc 1 154 80 discriminator 4 view .LVU199
 636 002c 0CEB0318 		add	r8, ip, r3, lsl #4
 637 0030 08F58878 		add	r8, r8, #272
 638 0034 10F83880 		ldrb	r8, [r0, r8, lsl #3]	@ zero_extendqisi2
 154:Core/Src/MazeLib.c ****             maze->RawNode[x+i][y+j].weight = (maze->RawNode[x+i][y+j].existence == WALL) ? MAX_WEIG
 639              		.loc 1 154 49 discriminator 4 view .LVU200
 640 0038 B8F1010F 		cmp	r8, #1
 641 003c 3CD0     		beq	.L54
 154:Core/Src/MazeLib.c ****             maze->RawNode[x+i][y+j].weight = (maze->RawNode[x+i][y+j].existence == WALL) ? MAX_WEIG
 642              		.loc 1 154 49 view .LVU201
 643 003e 4FF00008 		mov	r8, #0
 644              	.L43:
 154:Core/Src/MazeLib.c ****             maze->RawNode[x+i][y+j].weight = (maze->RawNode[x+i][y+j].existence == WALL) ? MAX_WEIG
 645              		.loc 1 154 49 discriminator 4 view .LVU202
 646 0042 0CEB0313 		add	r3, ip, r3, lsl #4
 647 0046 03F58873 		add	r3, r3, #272
 648 004a 00EBC303 		add	r3, r0, r3, lsl #3
 649 004e A3F80280 		strh	r8, [r3, #2]	@ movhi
 155:Core/Src/MazeLib.c ****             maze->ColumnNode[x+i][y+j].weight = (maze->ColumnNode[x+i][y+j].existence == WALL) ? MA
 650              		.loc 1 155 13 is_stmt 1 discriminator 4 view .LVU203
 155:Core/Src/MazeLib.c ****             maze->ColumnNode[x+i][y+j].weight = (maze->ColumnNode[x+i][y+j].existence == WALL) ? MA
 651              		.loc 1 155 70 is_stmt 0 discriminator 4 view .LVU204
 652 0052 0EEB0E13 		add	r3, lr, lr, lsl #4
 653 0056 6344     		add	r3, r3, ip
 654 0058 10F83330 		ldrb	r3, [r0, r3, lsl #3]	@ zero_extendqisi2
 155:Core/Src/MazeLib.c ****             maze->ColumnNode[x+i][y+j].weight = (maze->ColumnNode[x+i][y+j].existence == WALL) ? MA
 655              		.loc 1 155 44 discriminator 4 view .LVU205
 656 005c 012B     		cmp	r3, #1
 657 005e 2ED0     		beq	.L55
 155:Core/Src/MazeLib.c ****             maze->ColumnNode[x+i][y+j].weight = (maze->ColumnNode[x+i][y+j].existence == WALL) ? MA
 658              		.loc 1 155 44 view .LVU206
 659 0060 4FF00008 		mov	r8, #0
 660              	.L44:
 155:Core/Src/MazeLib.c ****             maze->ColumnNode[x+i][y+j].weight = (maze->ColumnNode[x+i][y+j].existence == WALL) ? MA
 661              		.loc 1 155 44 discriminator 4 view .LVU207
 662 0064 0EEB0E13 		add	r3, lr, lr, lsl #4
 663 0068 6344     		add	r3, r3, ip
 664 006a 00EBC303 		add	r3, r0, r3, lsl #3
ARM GAS  /var/folders/v_/kwz_t0cs68g1q1d733r227b80000gn/T//cc7enlx9.s 			page 27


 665 006e A3F80280 		strh	r8, [r3, #2]	@ movhi
 156:Core/Src/MazeLib.c ****         }
 666              		.loc 1 156 13 is_stmt 1 discriminator 4 view .LVU208
 156:Core/Src/MazeLib.c ****         }
 667              		.loc 1 156 76 is_stmt 0 discriminator 4 view .LVU209
 668 0072 0CEB0E13 		add	r3, ip, lr, lsl #4
 669 0076 03F58873 		add	r3, r3, #272
 670 007a 10F83330 		ldrb	r3, [r0, r3, lsl #3]	@ zero_extendqisi2
 156:Core/Src/MazeLib.c ****         }
 671              		.loc 1 156 47 discriminator 4 view .LVU210
 672 007e 012B     		cmp	r3, #1
 673 0080 20D0     		beq	.L56
 156:Core/Src/MazeLib.c ****         }
 674              		.loc 1 156 47 view .LVU211
 675 0082 0023     		movs	r3, #0
 676              	.L45:
 156:Core/Src/MazeLib.c ****         }
 677              		.loc 1 156 47 discriminator 4 view .LVU212
 678 0084 0CEB0E1C 		add	ip, ip, lr, lsl #4
 679 0088 0CF5887C 		add	ip, ip, #272
 680 008c 00EBCC0C 		add	ip, r0, ip, lsl #3
 681 0090 ACF80230 		strh	r3, [ip, #2]	@ movhi
 145:Core/Src/MazeLib.c ****         {
 682              		.loc 1 145 41 is_stmt 1 discriminator 4 view .LVU213
 145:Core/Src/MazeLib.c ****         {
 683              		.loc 1 145 42 is_stmt 0 discriminator 4 view .LVU214
 684 0094 0132     		adds	r2, r2, #1
 685              	.LVL46:
 686              	.L47:
 145:Core/Src/MazeLib.c ****         {
 687              		.loc 1 145 22 is_stmt 1 discriminator 2 view .LVU215
 145:Core/Src/MazeLib.c ****         {
 688              		.loc 1 145 9 is_stmt 0 discriminator 2 view .LVU216
 689 0096 9642     		cmp	r6, r2
 690 0098 17DD     		ble	.L57
 153:Core/Src/MazeLib.c ****             maze->ColumnNode[x+1+i][y+j].weight = (maze->ColumnNode[x+1+i][y+j].existence == WALL) 
 691              		.loc 1 153 13 is_stmt 1 view .LVU217
 153:Core/Src/MazeLib.c ****             maze->ColumnNode[x+1+i][y+j].weight = (maze->ColumnNode[x+1+i][y+j].existence == WALL) 
 692              		.loc 1 153 64 is_stmt 0 view .LVU218
 693 009a 05EB010E 		add	lr, r5, r1
 153:Core/Src/MazeLib.c ****             maze->ColumnNode[x+1+i][y+j].weight = (maze->ColumnNode[x+1+i][y+j].existence == WALL) 
 694              		.loc 1 153 69 view .LVU219
 695 009e 631C     		adds	r3, r4, #1
 153:Core/Src/MazeLib.c ****             maze->ColumnNode[x+1+i][y+j].weight = (maze->ColumnNode[x+1+i][y+j].existence == WALL) 
 696              		.loc 1 153 71 view .LVU220
 697 00a0 03EB020C 		add	ip, r3, r2
 153:Core/Src/MazeLib.c ****             maze->ColumnNode[x+1+i][y+j].weight = (maze->ColumnNode[x+1+i][y+j].existence == WALL) 
 698              		.loc 1 153 74 view .LVU221
 699 00a4 0EEB0E13 		add	r3, lr, lr, lsl #4
 700 00a8 6344     		add	r3, r3, ip
 701 00aa 10F83330 		ldrb	r3, [r0, r3, lsl #3]	@ zero_extendqisi2
 153:Core/Src/MazeLib.c ****             maze->ColumnNode[x+1+i][y+j].weight = (maze->ColumnNode[x+1+i][y+j].existence == WALL) 
 702              		.loc 1 153 46 view .LVU222
 703 00ae 012B     		cmp	r3, #1
 704 00b0 AFD0     		beq	.L58
 153:Core/Src/MazeLib.c ****             maze->ColumnNode[x+1+i][y+j].weight = (maze->ColumnNode[x+1+i][y+j].existence == WALL) 
 705              		.loc 1 153 46 view .LVU223
ARM GAS  /var/folders/v_/kwz_t0cs68g1q1d733r227b80000gn/T//cc7enlx9.s 			page 28


 706 00b2 4FF00008 		mov	r8, #0
 707 00b6 AEE7     		b	.L42
 708              	.L54:
 154:Core/Src/MazeLib.c ****             maze->RawNode[x+i][y+j].weight = (maze->RawNode[x+i][y+j].existence == WALL) ? MAX_WEIG
 709              		.loc 1 154 49 view .LVU224
 710 00b8 40F6FF78 		movw	r8, #4095
 711 00bc C1E7     		b	.L43
 712              	.L55:
 155:Core/Src/MazeLib.c ****             maze->ColumnNode[x+i][y+j].weight = (maze->ColumnNode[x+i][y+j].existence == WALL) ? MA
 713              		.loc 1 155 44 view .LVU225
 714 00be 40F6FF78 		movw	r8, #4095
 715 00c2 CFE7     		b	.L44
 716              	.L56:
 156:Core/Src/MazeLib.c ****         }
 717              		.loc 1 156 47 view .LVU226
 718 00c4 40F6FF73 		movw	r3, #4095
 719 00c8 DCE7     		b	.L45
 720              	.L57:
 156:Core/Src/MazeLib.c ****         }
 721              		.loc 1 156 47 view .LVU227
 722              	.LBE17:
 143:Core/Src/MazeLib.c ****     {
 723              		.loc 1 143 37 is_stmt 1 discriminator 2 view .LVU228
 143:Core/Src/MazeLib.c ****     {
 724              		.loc 1 143 38 is_stmt 0 discriminator 2 view .LVU229
 725 00ca 0131     		adds	r1, r1, #1
 726              	.LVL47:
 727              	.L41:
 143:Core/Src/MazeLib.c ****     {
 728              		.loc 1 143 18 is_stmt 1 discriminator 1 view .LVU230
 143:Core/Src/MazeLib.c ****     {
 729              		.loc 1 143 5 is_stmt 0 discriminator 1 view .LVU231
 730 00cc 8F42     		cmp	r7, r1
 731 00ce 01DD     		ble	.L59
 732              	.LBB18:
 145:Core/Src/MazeLib.c ****         {
 733              		.loc 1 145 17 view .LVU232
 734 00d0 0022     		movs	r2, #0
 735 00d2 E0E7     		b	.L47
 736              	.L59:
 737              	.LBE18:
 738              	.LBE16:
 159:Core/Src/MazeLib.c **** 
 739              		.loc 1 159 1 view .LVU233
 740 00d4 BDE8F081 		pop	{r4, r5, r6, r7, r8, pc}
 159:Core/Src/MazeLib.c **** 
 741              		.loc 1 159 1 view .LVU234
 742              		.cfi_endproc
 743              	.LFE5:
 745              		.section	.text.setExistanceRawNode,"ax",%progbits
 746              		.align	1
 747              		.global	setExistanceRawNode
 748              		.syntax unified
 749              		.thumb
 750              		.thumb_func
 751              		.fpu fpv4-sp-d16
 753              	setExistanceRawNode:
ARM GAS  /var/folders/v_/kwz_t0cs68g1q1d733r227b80000gn/T//cc7enlx9.s 			page 29


 754              	.LVL48:
 755              	.LFB6:
 163:Core/Src/MazeLib.c ****     if(x >= NUMBER_OF_SQUARES_X || y >= NUMBER_OF_SQUARES_Y || x < 0 || y < 0)
 756              		.loc 1 163 1 is_stmt 1 view -0
 757              		.cfi_startproc
 758              		@ args = 0, pretend = 0, frame = 0
 759              		@ frame_needed = 0, uses_anonymous_args = 0
 760              		@ link register save eliminated.
 164:Core/Src/MazeLib.c ****     {
 761              		.loc 1 164 5 view .LVU236
 164:Core/Src/MazeLib.c ****     {
 762              		.loc 1 164 7 is_stmt 0 view .LVU237
 763 0000 0F29     		cmp	r1, #15
 764 0002 08D8     		bhi	.L62
 164:Core/Src/MazeLib.c ****     {
 765              		.loc 1 164 70 discriminator 1 view .LVU238
 766 0004 0F2A     		cmp	r2, #15
 767 0006 08D8     		bhi	.L63
 170:Core/Src/MazeLib.c ****         // maze->RawNode[x][y].flag = true;
 768              		.loc 1 170 9 is_stmt 1 view .LVU239
 170:Core/Src/MazeLib.c ****         // maze->RawNode[x][y].flag = true;
 769              		.loc 1 170 39 is_stmt 0 view .LVU240
 770 0008 01EB0111 		add	r1, r1, r1, lsl #4
 771              	.LVL49:
 170:Core/Src/MazeLib.c ****         // maze->RawNode[x][y].flag = true;
 772              		.loc 1 170 39 view .LVU241
 773 000c 1144     		add	r1, r1, r2
 774 000e 00F83130 		strb	r3, [r0, r1, lsl #3]
 172:Core/Src/MazeLib.c ****     }
 775              		.loc 1 172 9 is_stmt 1 view .LVU242
 172:Core/Src/MazeLib.c ****     }
 776              		.loc 1 172 16 is_stmt 0 view .LVU243
 777 0012 0120     		movs	r0, #1
 778              	.LVL50:
 172:Core/Src/MazeLib.c ****     }
 779              		.loc 1 172 16 view .LVU244
 780 0014 7047     		bx	lr
 781              	.LVL51:
 782              	.L62:
 166:Core/Src/MazeLib.c ****     }
 783              		.loc 1 166 16 view .LVU245
 784 0016 0020     		movs	r0, #0
 785              	.LVL52:
 166:Core/Src/MazeLib.c ****     }
 786              		.loc 1 166 16 view .LVU246
 787 0018 7047     		bx	lr
 788              	.LVL53:
 789              	.L63:
 166:Core/Src/MazeLib.c ****     }
 790              		.loc 1 166 16 view .LVU247
 791 001a 0020     		movs	r0, #0
 792              	.LVL54:
 174:Core/Src/MazeLib.c **** _Bool setExistanceColumnNode(maze_node *maze, uint8_t x, uint8_t y, wall_state et)
 793              		.loc 1 174 1 view .LVU248
 794 001c 7047     		bx	lr
 795              		.cfi_endproc
 796              	.LFE6:
ARM GAS  /var/folders/v_/kwz_t0cs68g1q1d733r227b80000gn/T//cc7enlx9.s 			page 30


 798              		.section	.text.setExistanceColumnNode,"ax",%progbits
 799              		.align	1
 800              		.global	setExistanceColumnNode
 801              		.syntax unified
 802              		.thumb
 803              		.thumb_func
 804              		.fpu fpv4-sp-d16
 806              	setExistanceColumnNode:
 807              	.LVL55:
 808              	.LFB7:
 176:Core/Src/MazeLib.c ****     if(x >= NUMBER_OF_SQUARES_X || y >= NUMBER_OF_SQUARES_Y || x < 0 || y < 0)
 809              		.loc 1 176 1 is_stmt 1 view -0
 810              		.cfi_startproc
 811              		@ args = 0, pretend = 0, frame = 0
 812              		@ frame_needed = 0, uses_anonymous_args = 0
 813              		@ link register save eliminated.
 177:Core/Src/MazeLib.c ****     {
 814              		.loc 1 177 5 view .LVU250
 177:Core/Src/MazeLib.c ****     {
 815              		.loc 1 177 7 is_stmt 0 view .LVU251
 816 0000 0F29     		cmp	r1, #15
 817 0002 09D8     		bhi	.L66
 177:Core/Src/MazeLib.c ****     {
 818              		.loc 1 177 70 discriminator 1 view .LVU252
 819 0004 0F2A     		cmp	r2, #15
 820 0006 09D8     		bhi	.L67
 183:Core/Src/MazeLib.c ****         // maze->ColumnNode[x][y].flag = true;
 821              		.loc 1 183 9 is_stmt 1 view .LVU253
 183:Core/Src/MazeLib.c ****         // maze->ColumnNode[x][y].flag = true;
 822              		.loc 1 183 42 is_stmt 0 view .LVU254
 823 0008 02EB0112 		add	r2, r2, r1, lsl #4
 824              	.LVL56:
 183:Core/Src/MazeLib.c ****         // maze->ColumnNode[x][y].flag = true;
 825              		.loc 1 183 42 view .LVU255
 826 000c 02F58872 		add	r2, r2, #272
 827 0010 00F83230 		strb	r3, [r0, r2, lsl #3]
 185:Core/Src/MazeLib.c ****     }
 828              		.loc 1 185 9 is_stmt 1 view .LVU256
 185:Core/Src/MazeLib.c ****     }
 829              		.loc 1 185 16 is_stmt 0 view .LVU257
 830 0014 0120     		movs	r0, #1
 831              	.LVL57:
 185:Core/Src/MazeLib.c ****     }
 832              		.loc 1 185 16 view .LVU258
 833 0016 7047     		bx	lr
 834              	.LVL58:
 835              	.L66:
 179:Core/Src/MazeLib.c ****     }
 836              		.loc 1 179 16 view .LVU259
 837 0018 0020     		movs	r0, #0
 838              	.LVL59:
 179:Core/Src/MazeLib.c ****     }
 839              		.loc 1 179 16 view .LVU260
 840 001a 7047     		bx	lr
 841              	.LVL60:
 842              	.L67:
 179:Core/Src/MazeLib.c ****     }
ARM GAS  /var/folders/v_/kwz_t0cs68g1q1d733r227b80000gn/T//cc7enlx9.s 			page 31


 843              		.loc 1 179 16 view .LVU261
 844 001c 0020     		movs	r0, #0
 845              	.LVL61:
 187:Core/Src/MazeLib.c **** 
 846              		.loc 1 187 1 view .LVU262
 847 001e 7047     		bx	lr
 848              		.cfi_endproc
 849              	.LFE7:
 851              		.section	.text.setWeightRawNode,"ax",%progbits
 852              		.align	1
 853              		.global	setWeightRawNode
 854              		.syntax unified
 855              		.thumb
 856              		.thumb_func
 857              		.fpu fpv4-sp-d16
 859              	setWeightRawNode:
 860              	.LVL62:
 861              	.LFB8:
 190:Core/Src/MazeLib.c ****     if(x >= NUMBER_OF_SQUARES_X || y >= NUMBER_OF_SQUARES_Y || x < 0 || y < 0 || (wt < 0 || MAX_WEI
 862              		.loc 1 190 1 is_stmt 1 view -0
 863              		.cfi_startproc
 864              		@ args = 0, pretend = 0, frame = 0
 865              		@ frame_needed = 0, uses_anonymous_args = 0
 866              		@ link register save eliminated.
 191:Core/Src/MazeLib.c ****     {
 867              		.loc 1 191 5 view .LVU264
 191:Core/Src/MazeLib.c ****     {
 868              		.loc 1 191 7 is_stmt 0 view .LVU265
 869 0000 0F29     		cmp	r1, #15
 870 0002 0CD8     		bhi	.L70
 191:Core/Src/MazeLib.c ****     {
 871              		.loc 1 191 70 discriminator 1 view .LVU266
 872 0004 0F2A     		cmp	r2, #15
 873 0006 0CD8     		bhi	.L71
 191:Core/Src/MazeLib.c ****     {
 874              		.loc 1 191 79 discriminator 2 view .LVU267
 875 0008 B3F5805F 		cmp	r3, #4096
 876 000c 0BD2     		bcs	.L72
 197:Core/Src/MazeLib.c ****         return true;
 877              		.loc 1 197 9 is_stmt 1 view .LVU268
 197:Core/Src/MazeLib.c ****         return true;
 878              		.loc 1 197 36 is_stmt 0 view .LVU269
 879 000e 01EB0111 		add	r1, r1, r1, lsl #4
 880              	.LVL63:
 197:Core/Src/MazeLib.c ****         return true;
 881              		.loc 1 197 36 view .LVU270
 882 0012 1144     		add	r1, r1, r2
 883 0014 00EBC100 		add	r0, r0, r1, lsl #3
 884              	.LVL64:
 197:Core/Src/MazeLib.c ****         return true;
 885              		.loc 1 197 36 view .LVU271
 886 0018 4380     		strh	r3, [r0, #2]	@ movhi
 198:Core/Src/MazeLib.c ****     }
 887              		.loc 1 198 9 is_stmt 1 view .LVU272
 198:Core/Src/MazeLib.c ****     }
 888              		.loc 1 198 16 is_stmt 0 view .LVU273
 889 001a 0120     		movs	r0, #1
ARM GAS  /var/folders/v_/kwz_t0cs68g1q1d733r227b80000gn/T//cc7enlx9.s 			page 32


 890 001c 7047     		bx	lr
 891              	.LVL65:
 892              	.L70:
 193:Core/Src/MazeLib.c ****     }
 893              		.loc 1 193 16 view .LVU274
 894 001e 0020     		movs	r0, #0
 895              	.LVL66:
 193:Core/Src/MazeLib.c ****     }
 896              		.loc 1 193 16 view .LVU275
 897 0020 7047     		bx	lr
 898              	.LVL67:
 899              	.L71:
 193:Core/Src/MazeLib.c ****     }
 900              		.loc 1 193 16 view .LVU276
 901 0022 0020     		movs	r0, #0
 902              	.LVL68:
 193:Core/Src/MazeLib.c ****     }
 903              		.loc 1 193 16 view .LVU277
 904 0024 7047     		bx	lr
 905              	.LVL69:
 906              	.L72:
 193:Core/Src/MazeLib.c ****     }
 907              		.loc 1 193 16 view .LVU278
 908 0026 0020     		movs	r0, #0
 909              	.LVL70:
 200:Core/Src/MazeLib.c **** _Bool setWeightColumnNode(maze_node *maze, uint8_t x, uint8_t y, uint16_t wt)
 910              		.loc 1 200 1 view .LVU279
 911 0028 7047     		bx	lr
 912              		.cfi_endproc
 913              	.LFE8:
 915              		.section	.text.setWeightColumnNode,"ax",%progbits
 916              		.align	1
 917              		.global	setWeightColumnNode
 918              		.syntax unified
 919              		.thumb
 920              		.thumb_func
 921              		.fpu fpv4-sp-d16
 923              	setWeightColumnNode:
 924              	.LVL71:
 925              	.LFB9:
 202:Core/Src/MazeLib.c ****     if(x >= NUMBER_OF_SQUARES_X || y >= NUMBER_OF_SQUARES_Y || x < 0 || y < 0 || (wt < 0 || MAX_WEI
 926              		.loc 1 202 1 is_stmt 1 view -0
 927              		.cfi_startproc
 928              		@ args = 0, pretend = 0, frame = 0
 929              		@ frame_needed = 0, uses_anonymous_args = 0
 930              		@ link register save eliminated.
 203:Core/Src/MazeLib.c ****     {
 931              		.loc 1 203 5 view .LVU281
 203:Core/Src/MazeLib.c ****     {
 932              		.loc 1 203 7 is_stmt 0 view .LVU282
 933 0000 0F29     		cmp	r1, #15
 934 0002 0DD8     		bhi	.L75
 203:Core/Src/MazeLib.c ****     {
 935              		.loc 1 203 70 discriminator 1 view .LVU283
 936 0004 0F2A     		cmp	r2, #15
 937 0006 0DD8     		bhi	.L76
 203:Core/Src/MazeLib.c ****     {
ARM GAS  /var/folders/v_/kwz_t0cs68g1q1d733r227b80000gn/T//cc7enlx9.s 			page 33


 938              		.loc 1 203 79 discriminator 2 view .LVU284
 939 0008 B3F5805F 		cmp	r3, #4096
 940 000c 0CD2     		bcs	.L77
 209:Core/Src/MazeLib.c ****         return true;
 941              		.loc 1 209 9 is_stmt 1 view .LVU285
 209:Core/Src/MazeLib.c ****         return true;
 942              		.loc 1 209 39 is_stmt 0 view .LVU286
 943 000e 02EB0112 		add	r2, r2, r1, lsl #4
 944              	.LVL72:
 209:Core/Src/MazeLib.c ****         return true;
 945              		.loc 1 209 39 view .LVU287
 946 0012 02F58872 		add	r2, r2, #272
 947 0016 00EBC200 		add	r0, r0, r2, lsl #3
 948              	.LVL73:
 209:Core/Src/MazeLib.c ****         return true;
 949              		.loc 1 209 39 view .LVU288
 950 001a 4380     		strh	r3, [r0, #2]	@ movhi
 210:Core/Src/MazeLib.c ****     }
 951              		.loc 1 210 9 is_stmt 1 view .LVU289
 210:Core/Src/MazeLib.c ****     }
 952              		.loc 1 210 16 is_stmt 0 view .LVU290
 953 001c 0120     		movs	r0, #1
 954 001e 7047     		bx	lr
 955              	.LVL74:
 956              	.L75:
 205:Core/Src/MazeLib.c ****     }
 957              		.loc 1 205 16 view .LVU291
 958 0020 0020     		movs	r0, #0
 959              	.LVL75:
 205:Core/Src/MazeLib.c ****     }
 960              		.loc 1 205 16 view .LVU292
 961 0022 7047     		bx	lr
 962              	.LVL76:
 963              	.L76:
 205:Core/Src/MazeLib.c ****     }
 964              		.loc 1 205 16 view .LVU293
 965 0024 0020     		movs	r0, #0
 966              	.LVL77:
 205:Core/Src/MazeLib.c ****     }
 967              		.loc 1 205 16 view .LVU294
 968 0026 7047     		bx	lr
 969              	.LVL78:
 970              	.L77:
 205:Core/Src/MazeLib.c ****     }
 971              		.loc 1 205 16 view .LVU295
 972 0028 0020     		movs	r0, #0
 973              	.LVL79:
 212:Core/Src/MazeLib.c **** 
 974              		.loc 1 212 1 view .LVU296
 975 002a 7047     		bx	lr
 976              		.cfi_endproc
 977              	.LFE9:
 979              		.section	.text.updateAllNodeWeight,"ax",%progbits
 980              		.align	1
 981              		.global	updateAllNodeWeight
 982              		.syntax unified
 983              		.thumb
ARM GAS  /var/folders/v_/kwz_t0cs68g1q1d733r227b80000gn/T//cc7enlx9.s 			page 34


 984              		.thumb_func
 985              		.fpu fpv4-sp-d16
 987              	updateAllNodeWeight:
 988              	.LVL80:
 989              	.LFB10:
 218:Core/Src/MazeLib.c **** 	//å…¨ä½“ã«154/20ms = 7.7ms
 990              		.loc 1 218 1 is_stmt 1 view -0
 991              		.cfi_startproc
 992              		@ args = 8, pretend = 0, frame = 0
 993              		@ frame_needed = 0, uses_anonymous_args = 0
 218:Core/Src/MazeLib.c **** 	//å…¨ä½“ã«154/20ms = 7.7ms
 994              		.loc 1 218 1 is_stmt 0 view .LVU298
 995 0000 2DE9F041 		push	{r4, r5, r6, r7, r8, lr}
 996              	.LCFI3:
 997              		.cfi_def_cfa_offset 24
 998              		.cfi_offset 4, -24
 999              		.cfi_offset 5, -20
 1000              		.cfi_offset 6, -16
 1001              		.cfi_offset 7, -12
 1002              		.cfi_offset 8, -8
 1003              		.cfi_offset 14, -4
 1004 0004 82B0     		sub	sp, sp, #8
 1005              	.LCFI4:
 1006              		.cfi_def_cfa_offset 32
 1007 0006 0446     		mov	r4, r0
 1008 0008 0E46     		mov	r6, r1
 1009 000a 1746     		mov	r7, r2
 1010 000c 9846     		mov	r8, r3
 1011 000e 099D     		ldr	r5, [sp, #36]
 222:Core/Src/MazeLib.c **** 
 1012              		.loc 1 222 5 is_stmt 1 view .LVU299
 1013 0010 FFF7FEFF 		bl	initWeight
 1014              	.LVL81:
 224:Core/Src/MazeLib.c **** 
 1015              		.loc 1 224 5 view .LVU300
 1016 0014 9DF82030 		ldrb	r3, [sp, #32]	@ zero_extendqisi2
 1017 0018 0093     		str	r3, [sp]
 1018 001a 4346     		mov	r3, r8
 1019 001c 3A46     		mov	r2, r7
 1020 001e 3146     		mov	r1, r6
 1021 0020 2046     		mov	r0, r4
 1022 0022 FFF7FEFF 		bl	initTargetAreaWeight
 1023              	.LVL82:
 239:Core/Src/MazeLib.c ****     _Bool change_flag;
 1024              		.loc 1 239 5 view .LVU301
 240:Core/Src/MazeLib.c ****     int skip_raw=0, skip_column=0;
 1025              		.loc 1 240 5 view .LVU302
 241:Core/Src/MazeLib.c ****     //ã›ã£ã‹ãdowhileãªã‚“ã ã‹ã‚‰ã€ã©ã“ã‹ã‚‰æ›´æ–°ã™ã‚‹ã‹ã‚’ã†ã¾ãæ“ã‚Œã°ã€conti
 1026              		.loc 1 241 5 view .LVU303
 241:Core/Src/MazeLib.c ****     //ã›ã£ã‹ãdowhileãªã‚“ã ã‹ã‚‰ã€ã©ã“ã‹ã‚‰æ›´æ–°ã™ã‚‹ã‹ã‚’ã†ã¾ãæ“ã‚Œã°ã€conti
 1027              		.loc 1 241 5 is_stmt 0 view .LVU304
 1028 0026 00E2     		b	.L97
 1029              	.LVL83:
 1030              	.L106:
 276:Core/Src/MazeLib.c **** 						change_flag = true;		//å€¤ãŒæ›´æ–°ã•ã‚ŒãŸã“ã¨ã‚’ç¤ºã™
 1031              		.loc 1 276 7 is_stmt 1 view .LVU305
 276:Core/Src/MazeLib.c **** 						change_flag = true;		//å€¤ãŒæ›´æ–°ã•ã‚ŒãŸã“ã¨ã‚’ç¤ºã™
ARM GAS  /var/folders/v_/kwz_t0cs68g1q1d733r227b80000gn/T//cc7enlx9.s 			page 35


 1032              		.loc 1 276 71 is_stmt 0 view .LVU306
 1033 0028 0EF1010E 		add	lr, lr, #1
 276:Core/Src/MazeLib.c **** 						change_flag = true;		//å€¤ãŒæ›´æ–°ã•ã‚ŒãŸã“ã¨ã‚’ç¤ºã™
 1034              		.loc 1 276 39 view .LVU307
 1035 002c 02EB0C1C 		add	ip, r2, ip, lsl #4
 1036 0030 0CF5887C 		add	ip, ip, #272
 1037 0034 04EBCC0C 		add	ip, r4, ip, lsl #3
 1038 0038 ACF802E0 		strh	lr, [ip, #2]	@ movhi
 277:Core/Src/MazeLib.c **** 					}
 1039              		.loc 1 277 7 is_stmt 1 view .LVU308
 1040              	.LVL84:
 277:Core/Src/MazeLib.c **** 					}
 1041              		.loc 1 277 19 is_stmt 0 view .LVU309
 1042 003c 0120     		movs	r0, #1
 1043 003e 81E0     		b	.L81
 1044              	.LVL85:
 1045              	.L82:
 290:Core/Src/MazeLib.c **** 				{
 1046              		.loc 1 290 5 is_stmt 1 view .LVU310
 290:Core/Src/MazeLib.c **** 				{
 1047              		.loc 1 290 7 is_stmt 0 view .LVU311
 1048 0040 0E2A     		cmp	r2, #14
 1049 0042 2CDC     		bgt	.L83
 293:Core/Src/MazeLib.c **** 					{
 1050              		.loc 1 293 6 is_stmt 1 view .LVU312
 295:Core/Src/MazeLib.c **** 						{
 1051              		.loc 1 295 7 view .LVU313
 295:Core/Src/MazeLib.c **** 						{
 1052              		.loc 1 295 31 is_stmt 0 view .LVU314
 1053 0044 02F1010C 		add	ip, r2, #1
 295:Core/Src/MazeLib.c **** 						{
 1054              		.loc 1 295 34 view .LVU315
 1055 0048 03EB0311 		add	r1, r3, r3, lsl #4
 1056 004c 6144     		add	r1, r1, ip
 1057 004e 14F83110 		ldrb	r1, [r4, r1, lsl #3]	@ zero_extendqisi2
 295:Core/Src/MazeLib.c **** 						{
 1058              		.loc 1 295 9 view .LVU316
 1059 0052 2942     		tst	r1, r5
 1060 0054 0AD1     		bne	.L84
 295:Core/Src/MazeLib.c **** 						{
 1061              		.loc 1 295 89 discriminator 1 view .LVU317
 1062 0056 03EB0311 		add	r1, r3, r3, lsl #4
 1063 005a 6144     		add	r1, r1, ip
 1064 005c 04EBC101 		add	r1, r4, r1, lsl #3
 1065 0060 4E88     		ldrh	r6, [r1, #2]
 295:Core/Src/MazeLib.c **** 						{
 1066              		.loc 1 295 64 discriminator 1 view .LVU318
 1067 0062 40F6FF71 		movw	r1, #4095
 1068 0066 8E42     		cmp	r6, r1
 1069 0068 00F09880 		beq	.L101
 1070              	.LVL86:
 1071              	.L84:
 302:Core/Src/MazeLib.c **** 					{
 1072              		.loc 1 302 6 is_stmt 1 view .LVU319
 302:Core/Src/MazeLib.c **** 					{
 1073              		.loc 1 302 8 is_stmt 0 view .LVU320
 1074 006c 002B     		cmp	r3, #0
ARM GAS  /var/folders/v_/kwz_t0cs68g1q1d733r227b80000gn/T//cc7enlx9.s 			page 36


 1075 006e 16DD     		ble	.L83
 304:Core/Src/MazeLib.c **** 						{
 1076              		.loc 1 304 7 is_stmt 1 view .LVU321
 304:Core/Src/MazeLib.c **** 						{
 1077              		.loc 1 304 28 is_stmt 0 view .LVU322
 1078 0070 591E     		subs	r1, r3, #1
 304:Core/Src/MazeLib.c **** 						{
 1079              		.loc 1 304 33 view .LVU323
 1080 0072 02F1010E 		add	lr, r2, #1
 304:Core/Src/MazeLib.c **** 						{
 1081              		.loc 1 304 36 view .LVU324
 1082 0076 01EB011C 		add	ip, r1, r1, lsl #4
 1083 007a F444     		add	ip, ip, lr
 1084 007c 14F83CC0 		ldrb	ip, [r4, ip, lsl #3]	@ zero_extendqisi2
 304:Core/Src/MazeLib.c **** 						{
 1085              		.loc 1 304 9 view .LVU325
 1086 0080 1CEA050F 		tst	ip, r5
 1087 0084 0BD1     		bne	.L83
 304:Core/Src/MazeLib.c **** 						{
 1088              		.loc 1 304 93 discriminator 1 view .LVU326
 1089 0086 01EB011C 		add	ip, r1, r1, lsl #4
 1090 008a F444     		add	ip, ip, lr
 1091 008c 04EBCC0C 		add	ip, r4, ip, lsl #3
 1092 0090 BCF802C0 		ldrh	ip, [ip, #2]
 304:Core/Src/MazeLib.c **** 						{
 1093              		.loc 1 304 66 discriminator 1 view .LVU327
 1094 0094 40F6FF76 		movw	r6, #4095
 1095 0098 B445     		cmp	ip, r6
 1096 009a 00F09080 		beq	.L102
 1097              	.LVL87:
 1098              	.L83:
 313:Core/Src/MazeLib.c **** 				{
 1099              		.loc 1 313 5 is_stmt 1 view .LVU328
 313:Core/Src/MazeLib.c **** 				{
 1100              		.loc 1 313 7 is_stmt 0 view .LVU329
 1101 009e 002A     		cmp	r2, #0
 1102 00a0 28DD     		ble	.L80
 315:Core/Src/MazeLib.c **** 					{
 1103              		.loc 1 315 6 is_stmt 1 view .LVU330
 318:Core/Src/MazeLib.c **** 						{
 1104              		.loc 1 318 7 view .LVU331
 318:Core/Src/MazeLib.c **** 						{
 1105              		.loc 1 318 32 is_stmt 0 view .LVU332
 1106 00a2 03EB0311 		add	r1, r3, r3, lsl #4
 1107 00a6 1144     		add	r1, r1, r2
 1108 00a8 14F83110 		ldrb	r1, [r4, r1, lsl #3]	@ zero_extendqisi2
 318:Core/Src/MazeLib.c **** 						{
 1109              		.loc 1 318 9 view .LVU333
 1110 00ac 2942     		tst	r1, r5
 1111 00ae 0AD1     		bne	.L85
 318:Core/Src/MazeLib.c **** 						{
 1112              		.loc 1 318 85 discriminator 1 view .LVU334
 1113 00b0 03EB0311 		add	r1, r3, r3, lsl #4
 1114 00b4 1144     		add	r1, r1, r2
 1115 00b6 04EBC101 		add	r1, r4, r1, lsl #3
 1116 00ba 4E88     		ldrh	r6, [r1, #2]
 318:Core/Src/MazeLib.c **** 						{
ARM GAS  /var/folders/v_/kwz_t0cs68g1q1d733r227b80000gn/T//cc7enlx9.s 			page 37


 1117              		.loc 1 318 62 discriminator 1 view .LVU335
 1118 00bc 40F6FF71 		movw	r1, #4095
 1119 00c0 8E42     		cmp	r6, r1
 1120 00c2 00F08C80 		beq	.L103
 1121              	.LVL88:
 1122              	.L85:
 324:Core/Src/MazeLib.c **** 						//å—è¥¿
 1123              		.loc 1 324 6 is_stmt 1 view .LVU336
 324:Core/Src/MazeLib.c **** 						//å—è¥¿
 1124              		.loc 1 324 8 is_stmt 0 view .LVU337
 1125 00c6 002B     		cmp	r3, #0
 1126 00c8 14DD     		ble	.L80
 326:Core/Src/MazeLib.c **** 						{
 1127              		.loc 1 326 7 is_stmt 1 view .LVU338
 326:Core/Src/MazeLib.c **** 						{
 1128              		.loc 1 326 28 is_stmt 0 view .LVU339
 1129 00ca 591E     		subs	r1, r3, #1
 326:Core/Src/MazeLib.c **** 						{
 1130              		.loc 1 326 34 view .LVU340
 1131 00cc 01EB011C 		add	ip, r1, r1, lsl #4
 1132 00d0 9444     		add	ip, ip, r2
 1133 00d2 14F83CC0 		ldrb	ip, [r4, ip, lsl #3]	@ zero_extendqisi2
 326:Core/Src/MazeLib.c **** 						{
 1134              		.loc 1 326 9 view .LVU341
 1135 00d6 1CEA050F 		tst	ip, r5
 1136 00da 0BD1     		bne	.L80
 326:Core/Src/MazeLib.c **** 						{
 1137              		.loc 1 326 89 discriminator 1 view .LVU342
 1138 00dc 01EB011C 		add	ip, r1, r1, lsl #4
 1139 00e0 9444     		add	ip, ip, r2
 1140 00e2 04EBCC0C 		add	ip, r4, ip, lsl #3
 1141 00e6 BCF802C0 		ldrh	ip, [ip, #2]
 326:Core/Src/MazeLib.c **** 						{
 1142              		.loc 1 326 64 discriminator 1 view .LVU343
 1143 00ea 40F6FF76 		movw	r6, #4095
 1144 00ee B445     		cmp	ip, r6
 1145 00f0 00F08580 		beq	.L104
 1146              	.LVL89:
 1147              	.L80:
 261:Core/Src/MazeLib.c **** 			{
 1148              		.loc 1 261 41 is_stmt 1 discriminator 2 view .LVU344
 261:Core/Src/MazeLib.c **** 			{
 1149              		.loc 1 261 42 is_stmt 0 discriminator 2 view .LVU345
 1150 00f4 0132     		adds	r2, r2, #1
 1151              	.LVL90:
 1152              	.L87:
 261:Core/Src/MazeLib.c **** 			{
 1153              		.loc 1 261 16 is_stmt 1 discriminator 1 view .LVU346
 261:Core/Src/MazeLib.c **** 			{
 1154              		.loc 1 261 4 is_stmt 0 discriminator 1 view .LVU347
 1155 00f6 0F2A     		cmp	r2, #15
 1156 00f8 00F39180 		bgt	.L105
 263:Core/Src/MazeLib.c **** 				{
 1157              		.loc 1 263 17 is_stmt 1 view .LVU348
 263:Core/Src/MazeLib.c **** 				{
 1158              		.loc 1 263 42 is_stmt 0 view .LVU349
 1159 00fc 02EB0311 		add	r1, r2, r3, lsl #4
ARM GAS  /var/folders/v_/kwz_t0cs68g1q1d733r227b80000gn/T//cc7enlx9.s 			page 38


 1160 0100 01F58871 		add	r1, r1, #272
 1161 0104 04EBC101 		add	r1, r4, r1, lsl #3
 1162 0108 B1F802E0 		ldrh	lr, [r1, #2]
 263:Core/Src/MazeLib.c **** 				{
 1163              		.loc 1 263 19 view .LVU350
 1164 010c 40F6FF71 		movw	r1, #4095
 1165 0110 8E45     		cmp	lr, r1
 1166 0112 EFD0     		beq	.L80
 271:Core/Src/MazeLib.c **** 				{
 1167              		.loc 1 271 5 is_stmt 1 view .LVU351
 271:Core/Src/MazeLib.c **** 				{
 1168              		.loc 1 271 7 is_stmt 0 view .LVU352
 1169 0114 0E2B     		cmp	r3, #14
 1170 0116 15DC     		bgt	.L81
 274:Core/Src/MazeLib.c **** 					{
 1171              		.loc 1 274 6 is_stmt 1 view .LVU353
 274:Core/Src/MazeLib.c **** 					{
 1172              		.loc 1 274 30 is_stmt 0 view .LVU354
 1173 0118 03F1010C 		add	ip, r3, #1
 274:Core/Src/MazeLib.c **** 					{
 1174              		.loc 1 274 36 view .LVU355
 1175 011c 02EB0C11 		add	r1, r2, ip, lsl #4
 1176 0120 01F58871 		add	r1, r1, #272
 1177 0124 14F83110 		ldrb	r1, [r4, r1, lsl #3]	@ zero_extendqisi2
 274:Core/Src/MazeLib.c **** 					{
 1178              		.loc 1 274 8 view .LVU356
 1179 0128 2942     		tst	r1, r5
 1180 012a 0BD1     		bne	.L81
 274:Core/Src/MazeLib.c **** 					{
 1181              		.loc 1 274 94 discriminator 1 view .LVU357
 1182 012c 02EB0C11 		add	r1, r2, ip, lsl #4
 1183 0130 01F58871 		add	r1, r1, #272
 1184 0134 04EBC101 		add	r1, r4, r1, lsl #3
 1185 0138 4E88     		ldrh	r6, [r1, #2]
 274:Core/Src/MazeLib.c **** 					{
 1186              		.loc 1 274 66 discriminator 1 view .LVU358
 1187 013a 40F6FF71 		movw	r1, #4095
 1188 013e 8E42     		cmp	r6, r1
 1189 0140 3FF472AF 		beq	.L106
 1190              	.LVL91:
 1191              	.L81:
 281:Core/Src/MazeLib.c **** 				{
 1192              		.loc 1 281 5 is_stmt 1 view .LVU359
 281:Core/Src/MazeLib.c **** 				{
 1193              		.loc 1 281 7 is_stmt 0 view .LVU360
 1194 0144 012B     		cmp	r3, #1
 1195 0146 7FF77BAF 		ble	.L82
 283:Core/Src/MazeLib.c **** 					{
 1196              		.loc 1 283 6 is_stmt 1 view .LVU361
 283:Core/Src/MazeLib.c **** 					{
 1197              		.loc 1 283 30 is_stmt 0 view .LVU362
 1198 014a 03F1FF3C 		add	ip, r3, #-1
 283:Core/Src/MazeLib.c **** 					{
 1199              		.loc 1 283 36 view .LVU363
 1200 014e 02EB0C11 		add	r1, r2, ip, lsl #4
 1201 0152 01F58871 		add	r1, r1, #272
 1202 0156 14F83110 		ldrb	r1, [r4, r1, lsl #3]	@ zero_extendqisi2
ARM GAS  /var/folders/v_/kwz_t0cs68g1q1d733r227b80000gn/T//cc7enlx9.s 			page 39


 283:Core/Src/MazeLib.c **** 					{
 1203              		.loc 1 283 8 view .LVU364
 1204 015a 2942     		tst	r1, r5
 1205 015c 7FF470AF 		bne	.L82
 283:Core/Src/MazeLib.c **** 					{
 1206              		.loc 1 283 94 discriminator 1 view .LVU365
 1207 0160 02EB0C11 		add	r1, r2, ip, lsl #4
 1208 0164 01F58871 		add	r1, r1, #272
 1209 0168 04EBC101 		add	r1, r4, r1, lsl #3
 1210 016c 4E88     		ldrh	r6, [r1, #2]
 283:Core/Src/MazeLib.c **** 					{
 1211              		.loc 1 283 66 discriminator 1 view .LVU366
 1212 016e 40F6FF71 		movw	r1, #4095
 1213 0172 8E42     		cmp	r6, r1
 1214 0174 7FF464AF 		bne	.L82
 285:Core/Src/MazeLib.c **** 						change_flag = true;		//å€¤ãŒæ›´æ–°ã•ã‚ŒãŸã“ã¨ã‚’ç¤ºã™
 1215              		.loc 1 285 7 is_stmt 1 view .LVU367
 285:Core/Src/MazeLib.c **** 						change_flag = true;		//å€¤ãŒæ›´æ–°ã•ã‚ŒãŸã“ã¨ã‚’ç¤ºã™
 1216              		.loc 1 285 63 is_stmt 0 view .LVU368
 1217 0178 02EB0311 		add	r1, r2, r3, lsl #4
 1218 017c 01F58871 		add	r1, r1, #272
 1219 0180 04EBC101 		add	r1, r4, r1, lsl #3
 1220 0184 4988     		ldrh	r1, [r1, #2]
 285:Core/Src/MazeLib.c **** 						change_flag = true;		//å€¤ãŒæ›´æ–°ã•ã‚ŒãŸã“ã¨ã‚’ç¤ºã™
 1221              		.loc 1 285 71 view .LVU369
 1222 0186 0131     		adds	r1, r1, #1
 285:Core/Src/MazeLib.c **** 						change_flag = true;		//å€¤ãŒæ›´æ–°ã•ã‚ŒãŸã“ã¨ã‚’ç¤ºã™
 1223              		.loc 1 285 39 view .LVU370
 1224 0188 02EB0C1C 		add	ip, r2, ip, lsl #4
 1225 018c 0CF5887C 		add	ip, ip, #272
 1226 0190 04EBCC0C 		add	ip, r4, ip, lsl #3
 1227 0194 ACF80210 		strh	r1, [ip, #2]	@ movhi
 286:Core/Src/MazeLib.c **** 					}
 1228              		.loc 1 286 7 is_stmt 1 view .LVU371
 1229              	.LVL92:
 286:Core/Src/MazeLib.c **** 					}
 1230              		.loc 1 286 19 is_stmt 0 view .LVU372
 1231 0198 0120     		movs	r0, #1
 1232 019a 51E7     		b	.L82
 1233              	.LVL93:
 1234              	.L101:
 297:Core/Src/MazeLib.c **** 							change_flag = true;		//å€¤ãŒæ›´æ–°ã•ã‚ŒãŸã“ã¨ã‚’ç¤ºã™
 1235              		.loc 1 297 8 is_stmt 1 view .LVU373
 297:Core/Src/MazeLib.c **** 							change_flag = true;		//å€¤ãŒæ›´æ–°ã•ã‚ŒãŸã“ã¨ã‚’ç¤ºã™
 1236              		.loc 1 297 61 is_stmt 0 view .LVU374
 1237 019c 02EB0311 		add	r1, r2, r3, lsl #4
 1238 01a0 01F58871 		add	r1, r1, #272
 1239 01a4 04EBC101 		add	r1, r4, r1, lsl #3
 1240 01a8 4888     		ldrh	r0, [r1, #2]
 1241              	.LVL94:
 297:Core/Src/MazeLib.c **** 							change_flag = true;		//å€¤ãŒæ›´æ–°ã•ã‚ŒãŸã“ã¨ã‚’ç¤ºã™
 1242              		.loc 1 297 69 view .LVU375
 1243 01aa 0330     		adds	r0, r0, #3
 297:Core/Src/MazeLib.c **** 							change_flag = true;		//å€¤ãŒæ›´æ–°ã•ã‚ŒãŸã“ã¨ã‚’ç¤ºã™
 1244              		.loc 1 297 37 view .LVU376
 1245 01ac 03EB0311 		add	r1, r3, r3, lsl #4
 1246 01b0 8C44     		add	ip, ip, r1
ARM GAS  /var/folders/v_/kwz_t0cs68g1q1d733r227b80000gn/T//cc7enlx9.s 			page 40


 1247 01b2 04EBCC0C 		add	ip, r4, ip, lsl #3
 1248 01b6 ACF80200 		strh	r0, [ip, #2]	@ movhi
 298:Core/Src/MazeLib.c **** 						}
 1249              		.loc 1 298 8 is_stmt 1 view .LVU377
 1250              	.LVL95:
 298:Core/Src/MazeLib.c **** 						}
 1251              		.loc 1 298 20 is_stmt 0 view .LVU378
 1252 01ba 0120     		movs	r0, #1
 1253 01bc 56E7     		b	.L84
 1254              	.LVL96:
 1255              	.L102:
 306:Core/Src/MazeLib.c **** 							change_flag = true;		//å€¤ãŒæ›´æ–°ã•ã‚ŒãŸã“ã¨ã‚’ç¤ºã™
 1256              		.loc 1 306 8 is_stmt 1 view .LVU379
 306:Core/Src/MazeLib.c **** 							change_flag = true;		//å€¤ãŒæ›´æ–°ã•ã‚ŒãŸã“ã¨ã‚’ç¤ºã™
 1257              		.loc 1 306 63 is_stmt 0 view .LVU380
 1258 01be 02EB0310 		add	r0, r2, r3, lsl #4
 1259              	.LVL97:
 306:Core/Src/MazeLib.c **** 							change_flag = true;		//å€¤ãŒæ›´æ–°ã•ã‚ŒãŸã“ã¨ã‚’ç¤ºã™
 1260              		.loc 1 306 63 view .LVU381
 1261 01c2 00F58870 		add	r0, r0, #272
 1262 01c6 04EBC000 		add	r0, r4, r0, lsl #3
 1263 01ca 4088     		ldrh	r0, [r0, #2]
 306:Core/Src/MazeLib.c **** 							change_flag = true;		//å€¤ãŒæ›´æ–°ã•ã‚ŒãŸã“ã¨ã‚’ç¤ºã™
 1264              		.loc 1 306 71 view .LVU382
 1265 01cc 0330     		adds	r0, r0, #3
 306:Core/Src/MazeLib.c **** 							change_flag = true;		//å€¤ãŒæ›´æ–°ã•ã‚ŒãŸã“ã¨ã‚’ç¤ºã™
 1266              		.loc 1 306 39 view .LVU383
 1267 01ce 01EB0111 		add	r1, r1, r1, lsl #4
 1268 01d2 7144     		add	r1, r1, lr
 1269 01d4 04EBC101 		add	r1, r4, r1, lsl #3
 1270 01d8 4880     		strh	r0, [r1, #2]	@ movhi
 307:Core/Src/MazeLib.c **** 						}
 1271              		.loc 1 307 8 is_stmt 1 view .LVU384
 1272              	.LVL98:
 307:Core/Src/MazeLib.c **** 						}
 1273              		.loc 1 307 20 is_stmt 0 view .LVU385
 1274 01da 0120     		movs	r0, #1
 1275 01dc 5FE7     		b	.L83
 1276              	.LVL99:
 1277              	.L103:
 320:Core/Src/MazeLib.c **** 							change_flag = true;		//å€¤ãŒæ›´æ–°ã•ã‚ŒãŸã“ã¨ã‚’ç¤ºã™
 1278              		.loc 1 320 8 is_stmt 1 view .LVU386
 320:Core/Src/MazeLib.c **** 							change_flag = true;		//å€¤ãŒæ›´æ–°ã•ã‚ŒãŸã“ã¨ã‚’ç¤ºã™
 1279              		.loc 1 320 59 is_stmt 0 view .LVU387
 1280 01de 02EB0311 		add	r1, r2, r3, lsl #4
 1281 01e2 01F58871 		add	r1, r1, #272
 1282 01e6 04EBC101 		add	r1, r4, r1, lsl #3
 1283 01ea 4888     		ldrh	r0, [r1, #2]
 1284              	.LVL100:
 320:Core/Src/MazeLib.c **** 							change_flag = true;		//å€¤ãŒæ›´æ–°ã•ã‚ŒãŸã“ã¨ã‚’ç¤ºã™
 1285              		.loc 1 320 67 view .LVU388
 1286 01ec 0330     		adds	r0, r0, #3
 320:Core/Src/MazeLib.c **** 							change_flag = true;		//å€¤ãŒæ›´æ–°ã•ã‚ŒãŸã“ã¨ã‚’ç¤ºã™
 1287              		.loc 1 320 35 view .LVU389
 1288 01ee 03EB0311 		add	r1, r3, r3, lsl #4
 1289 01f2 1144     		add	r1, r1, r2
 1290 01f4 04EBC101 		add	r1, r4, r1, lsl #3
ARM GAS  /var/folders/v_/kwz_t0cs68g1q1d733r227b80000gn/T//cc7enlx9.s 			page 41


 1291 01f8 4880     		strh	r0, [r1, #2]	@ movhi
 321:Core/Src/MazeLib.c **** 						}
 1292              		.loc 1 321 8 is_stmt 1 view .LVU390
 1293              	.LVL101:
 321:Core/Src/MazeLib.c **** 						}
 1294              		.loc 1 321 20 is_stmt 0 view .LVU391
 1295 01fa 0120     		movs	r0, #1
 1296 01fc 63E7     		b	.L85
 1297              	.LVL102:
 1298              	.L104:
 328:Core/Src/MazeLib.c **** 								change_flag = true;		//å€¤ãŒæ›´æ–°ã•ã‚ŒãŸã“ã¨ã‚’ç¤ºã™
 1299              		.loc 1 328 9 is_stmt 1 view .LVU392
 328:Core/Src/MazeLib.c **** 								change_flag = true;		//å€¤ãŒæ›´æ–°ã•ã‚ŒãŸã“ã¨ã‚’ç¤ºã™
 1300              		.loc 1 328 62 is_stmt 0 view .LVU393
 1301 01fe 02EB0310 		add	r0, r2, r3, lsl #4
 1302              	.LVL103:
 328:Core/Src/MazeLib.c **** 								change_flag = true;		//å€¤ãŒæ›´æ–°ã•ã‚ŒãŸã“ã¨ã‚’ç¤ºã™
 1303              		.loc 1 328 62 view .LVU394
 1304 0202 00F58870 		add	r0, r0, #272
 1305 0206 04EBC000 		add	r0, r4, r0, lsl #3
 1306 020a 4088     		ldrh	r0, [r0, #2]
 328:Core/Src/MazeLib.c **** 								change_flag = true;		//å€¤ãŒæ›´æ–°ã•ã‚ŒãŸã“ã¨ã‚’ç¤ºã™
 1307              		.loc 1 328 70 view .LVU395
 1308 020c 0330     		adds	r0, r0, #3
 328:Core/Src/MazeLib.c **** 								change_flag = true;		//å€¤ãŒæ›´æ–°ã•ã‚ŒãŸã“ã¨ã‚’ç¤ºã™
 1309              		.loc 1 328 38 view .LVU396
 1310 020e 01EB0111 		add	r1, r1, r1, lsl #4
 1311 0212 1144     		add	r1, r1, r2
 1312 0214 04EBC101 		add	r1, r4, r1, lsl #3
 1313 0218 4880     		strh	r0, [r1, #2]	@ movhi
 329:Core/Src/MazeLib.c **** 						}
 1314              		.loc 1 329 9 is_stmt 1 view .LVU397
 1315              	.LVL104:
 329:Core/Src/MazeLib.c **** 						}
 1316              		.loc 1 329 21 is_stmt 0 view .LVU398
 1317 021a 0120     		movs	r0, #1
 1318 021c 6AE7     		b	.L80
 1319              	.LVL105:
 1320              	.L105:
 259:Core/Src/MazeLib.c **** 		{
 1321              		.loc 1 259 45 is_stmt 1 discriminator 2 view .LVU399
 259:Core/Src/MazeLib.c **** 		{
 1322              		.loc 1 259 46 is_stmt 0 discriminator 2 view .LVU400
 1323 021e 0133     		adds	r3, r3, #1
 1324              	.LVL106:
 1325              	.L79:
 259:Core/Src/MazeLib.c **** 		{
 1326              		.loc 1 259 20 is_stmt 1 discriminator 1 view .LVU401
 259:Core/Src/MazeLib.c **** 		{
 1327              		.loc 1 259 9 is_stmt 0 discriminator 1 view .LVU402
 1328 0220 0F2B     		cmp	r3, #15
 1329 0222 01DC     		bgt	.L107
 261:Core/Src/MazeLib.c **** 			{
 1330              		.loc 1 261 11 view .LVU403
 1331 0224 0022     		movs	r2, #0
 1332 0226 66E7     		b	.L87
 1333              	.L107:
ARM GAS  /var/folders/v_/kwz_t0cs68g1q1d733r227b80000gn/T//cc7enlx9.s 			page 42


 337:Core/Src/MazeLib.c ****  		{
 1334              		.loc 1 337 11 view .LVU404
 1335 0228 0023     		movs	r3, #0
 1336              	.LVL107:
 337:Core/Src/MazeLib.c ****  		{
 1337              		.loc 1 337 11 view .LVU405
 1338 022a F9E0     		b	.L88
 1339              	.LVL108:
 1340              	.L113:
 355:Core/Src/MazeLib.c ****  						change_flag = true;		//å€¤ãŒæ›´æ–°ã•ã‚ŒãŸã“ã¨ã‚’ç¤ºã™
 1341              		.loc 1 355 8 is_stmt 1 view .LVU406
 355:Core/Src/MazeLib.c ****  						change_flag = true;		//å€¤ãŒæ›´æ–°ã•ã‚ŒãŸã“ã¨ã‚’ç¤ºã™
 1342              		.loc 1 355 66 is_stmt 0 view .LVU407
 1343 022c 0CF1010C 		add	ip, ip, #1
 355:Core/Src/MazeLib.c ****  						change_flag = true;		//å€¤ãŒæ›´æ–°ã•ã‚ŒãŸã“ã¨ã‚’ç¤ºã™
 1344              		.loc 1 355 37 view .LVU408
 1345 0230 03EB0311 		add	r1, r3, r3, lsl #4
 1346 0234 8E44     		add	lr, lr, r1
 1347 0236 04EBCE0E 		add	lr, r4, lr, lsl #3
 1348 023a AEF802C0 		strh	ip, [lr, #2]	@ movhi
 356:Core/Src/MazeLib.c ****  					}
 1349              		.loc 1 356 8 is_stmt 1 view .LVU409
 1350              	.LVL109:
 356:Core/Src/MazeLib.c ****  					}
 1351              		.loc 1 356 20 is_stmt 0 view .LVU410
 1352 023e 0120     		movs	r0, #1
 1353 0240 85E0     		b	.L90
 1354              	.LVL110:
 1355              	.L91:
 369:Core/Src/MazeLib.c ****  				{
 1356              		.loc 1 369 6 is_stmt 1 view .LVU411
 369:Core/Src/MazeLib.c ****  				{
 1357              		.loc 1 369 8 is_stmt 0 view .LVU412
 1358 0242 0E2B     		cmp	r3, #14
 1359 0244 2FDC     		bgt	.L92
 373:Core/Src/MazeLib.c ****  					{
 1360              		.loc 1 373 7 is_stmt 1 view .LVU413
 375:Core/Src/MazeLib.c ****  						{
 1361              		.loc 1 375 8 view .LVU414
 375:Core/Src/MazeLib.c ****  						{
 1362              		.loc 1 375 32 is_stmt 0 view .LVU415
 1363 0246 03F1010C 		add	ip, r3, #1
 375:Core/Src/MazeLib.c ****  						{
 1364              		.loc 1 375 38 view .LVU416
 1365 024a 02EB0C11 		add	r1, r2, ip, lsl #4
 1366 024e 01F58871 		add	r1, r1, #272
 1367 0252 14F83110 		ldrb	r1, [r4, r1, lsl #3]	@ zero_extendqisi2
 375:Core/Src/MazeLib.c ****  						{
 1368              		.loc 1 375 10 view .LVU417
 1369 0256 2942     		tst	r1, r5
 1370 0258 0BD1     		bne	.L93
 375:Core/Src/MazeLib.c ****  						{
 1371              		.loc 1 375 96 discriminator 1 view .LVU418
 1372 025a 02EB0C11 		add	r1, r2, ip, lsl #4
 1373 025e 01F58871 		add	r1, r1, #272
 1374 0262 04EBC101 		add	r1, r4, r1, lsl #3
 1375 0266 4E88     		ldrh	r6, [r1, #2]
ARM GAS  /var/folders/v_/kwz_t0cs68g1q1d733r227b80000gn/T//cc7enlx9.s 			page 43


 375:Core/Src/MazeLib.c ****  						{
 1376              		.loc 1 375 68 discriminator 1 view .LVU419
 1377 0268 40F6FF71 		movw	r1, #4095
 1378 026c 8E42     		cmp	r6, r1
 1379 026e 00F09380 		beq	.L108
 1380              	.LVL111:
 1381              	.L93:
 381:Core/Src/MazeLib.c ****  					{
 1382              		.loc 1 381 7 is_stmt 1 view .LVU420
 381:Core/Src/MazeLib.c ****  					{
 1383              		.loc 1 381 9 is_stmt 0 view .LVU421
 1384 0272 002A     		cmp	r2, #0
 1385 0274 17DD     		ble	.L92
 384:Core/Src/MazeLib.c ****  						{
 1386              		.loc 1 384 8 is_stmt 1 view .LVU422
 384:Core/Src/MazeLib.c ****  						{
 1387              		.loc 1 384 32 is_stmt 0 view .LVU423
 1388 0276 03F1010E 		add	lr, r3, #1
 384:Core/Src/MazeLib.c ****  						{
 1389              		.loc 1 384 37 view .LVU424
 1390 027a 02F1FF3C 		add	ip, r2, #-1
 384:Core/Src/MazeLib.c ****  						{
 1391              		.loc 1 384 40 view .LVU425
 1392 027e 0CEB0E11 		add	r1, ip, lr, lsl #4
 1393 0282 01F58871 		add	r1, r1, #272
 1394 0286 14F83110 		ldrb	r1, [r4, r1, lsl #3]	@ zero_extendqisi2
 384:Core/Src/MazeLib.c ****  						{
 1395              		.loc 1 384 10 view .LVU426
 1396 028a 2942     		tst	r1, r5
 1397 028c 0BD1     		bne	.L92
 384:Core/Src/MazeLib.c ****  						{
 1398              		.loc 1 384 100 discriminator 1 view .LVU427
 1399 028e 0CEB0E11 		add	r1, ip, lr, lsl #4
 1400 0292 01F58871 		add	r1, r1, #272
 1401 0296 04EBC101 		add	r1, r4, r1, lsl #3
 1402 029a 4E88     		ldrh	r6, [r1, #2]
 384:Core/Src/MazeLib.c ****  						{
 1403              		.loc 1 384 70 discriminator 1 view .LVU428
 1404 029c 40F6FF71 		movw	r1, #4095
 1405 02a0 8E42     		cmp	r6, r1
 1406 02a2 00F08A80 		beq	.L109
 1407              	.LVL112:
 1408              	.L92:
 393:Core/Src/MazeLib.c ****  				{
 1409              		.loc 1 393 6 is_stmt 1 view .LVU429
 393:Core/Src/MazeLib.c ****  				{
 1410              		.loc 1 393 8 is_stmt 0 view .LVU430
 1411 02a6 002B     		cmp	r3, #0
 1412 02a8 2CDD     		ble	.L89
 396:Core/Src/MazeLib.c ****  					{
 1413              		.loc 1 396 7 is_stmt 1 view .LVU431
 398:Core/Src/MazeLib.c ****  						{
 1414              		.loc 1 398 8 view .LVU432
 398:Core/Src/MazeLib.c ****  						{
 1415              		.loc 1 398 36 is_stmt 0 view .LVU433
 1416 02aa 02EB0311 		add	r1, r2, r3, lsl #4
 1417 02ae 01F58871 		add	r1, r1, #272
ARM GAS  /var/folders/v_/kwz_t0cs68g1q1d733r227b80000gn/T//cc7enlx9.s 			page 44


 1418 02b2 14F83110 		ldrb	r1, [r4, r1, lsl #3]	@ zero_extendqisi2
 398:Core/Src/MazeLib.c ****  						{
 1419              		.loc 1 398 10 view .LVU434
 1420 02b6 2942     		tst	r1, r5
 1421 02b8 0CD1     		bne	.L94
 398:Core/Src/MazeLib.c ****  						{
 1422              		.loc 1 398 93 discriminator 1 view .LVU435
 1423 02ba 02EB0311 		add	r1, r2, r3, lsl #4
 1424 02be 01F58871 		add	r1, r1, #272
 1425 02c2 04EBC101 		add	r1, r4, r1, lsl #3
 1426 02c6 B1F802C0 		ldrh	ip, [r1, #2]
 398:Core/Src/MazeLib.c ****  						{
 1427              		.loc 1 398 67 discriminator 1 view .LVU436
 1428 02ca 40F6FF71 		movw	r1, #4095
 1429 02ce 8C45     		cmp	ip, r1
 1430 02d0 00F08480 		beq	.L110
 1431              	.LVL113:
 1432              	.L94:
 405:Core/Src/MazeLib.c ****  					{
 1433              		.loc 1 405 7 is_stmt 1 view .LVU437
 405:Core/Src/MazeLib.c ****  					{
 1434              		.loc 1 405 9 is_stmt 0 view .LVU438
 1435 02d4 002A     		cmp	r2, #0
 1436 02d6 15DD     		ble	.L89
 408:Core/Src/MazeLib.c ****  						{
 1437              		.loc 1 408 8 is_stmt 1 view .LVU439
 408:Core/Src/MazeLib.c ****  						{
 1438              		.loc 1 408 35 is_stmt 0 view .LVU440
 1439 02d8 02F1FF3C 		add	ip, r2, #-1
 408:Core/Src/MazeLib.c ****  						{
 1440              		.loc 1 408 38 view .LVU441
 1441 02dc 0CEB0311 		add	r1, ip, r3, lsl #4
 1442 02e0 01F58871 		add	r1, r1, #272
 1443 02e4 14F83110 		ldrb	r1, [r4, r1, lsl #3]	@ zero_extendqisi2
 408:Core/Src/MazeLib.c ****  						{
 1444              		.loc 1 408 10 view .LVU442
 1445 02e8 2942     		tst	r1, r5
 1446 02ea 0BD1     		bne	.L89
 408:Core/Src/MazeLib.c ****  						{
 1447              		.loc 1 408 96 discriminator 1 view .LVU443
 1448 02ec 0CEB0311 		add	r1, ip, r3, lsl #4
 1449 02f0 01F58871 		add	r1, r1, #272
 1450 02f4 04EBC101 		add	r1, r4, r1, lsl #3
 1451 02f8 B1F802E0 		ldrh	lr, [r1, #2]
 408:Core/Src/MazeLib.c ****  						{
 1452              		.loc 1 408 68 discriminator 1 view .LVU444
 1453 02fc 40F6FF71 		movw	r1, #4095
 1454 0300 8E45     		cmp	lr, r1
 1455 0302 7BD0     		beq	.L111
 1456              	.LVL114:
 1457              	.L89:
 339:Core/Src/MazeLib.c ****  			{
 1458              		.loc 1 339 41 is_stmt 1 discriminator 2 view .LVU445
 339:Core/Src/MazeLib.c ****  			{
 1459              		.loc 1 339 42 is_stmt 0 discriminator 2 view .LVU446
 1460 0304 0132     		adds	r2, r2, #1
 1461              	.LVL115:
ARM GAS  /var/folders/v_/kwz_t0cs68g1q1d733r227b80000gn/T//cc7enlx9.s 			page 45


 1462              	.L96:
 339:Core/Src/MazeLib.c ****  			{
 1463              		.loc 1 339 16 is_stmt 1 discriminator 1 view .LVU447
 339:Core/Src/MazeLib.c ****  			{
 1464              		.loc 1 339 5 is_stmt 0 discriminator 1 view .LVU448
 1465 0306 0F2A     		cmp	r2, #15
 1466 0308 00F38980 		bgt	.L112
 344:Core/Src/MazeLib.c ****  				{
 1467              		.loc 1 344 6 is_stmt 1 view .LVU449
 344:Core/Src/MazeLib.c ****  				{
 1468              		.loc 1 344 28 is_stmt 0 view .LVU450
 1469 030c 03EB0311 		add	r1, r3, r3, lsl #4
 1470 0310 1144     		add	r1, r1, r2
 1471 0312 04EBC101 		add	r1, r4, r1, lsl #3
 1472 0316 B1F802C0 		ldrh	ip, [r1, #2]
 344:Core/Src/MazeLib.c ****  				{
 1473              		.loc 1 344 8 view .LVU451
 1474 031a 40F6FF71 		movw	r1, #4095
 1475 031e 8C45     		cmp	ip, r1
 1476 0320 F0D0     		beq	.L89
 351:Core/Src/MazeLib.c ****  				{
 1477              		.loc 1 351 6 is_stmt 1 view .LVU452
 351:Core/Src/MazeLib.c ****  				{
 1478              		.loc 1 351 8 is_stmt 0 view .LVU453
 1479 0322 0E2A     		cmp	r2, #14
 1480 0324 13DC     		bgt	.L90
 353:Core/Src/MazeLib.c ****  					{
 1481              		.loc 1 353 7 is_stmt 1 view .LVU454
 353:Core/Src/MazeLib.c ****  					{
 1482              		.loc 1 353 31 is_stmt 0 view .LVU455
 1483 0326 02F1010E 		add	lr, r2, #1
 353:Core/Src/MazeLib.c ****  					{
 1484              		.loc 1 353 34 view .LVU456
 1485 032a 03EB0311 		add	r1, r3, r3, lsl #4
 1486 032e 7144     		add	r1, r1, lr
 1487 0330 14F83110 		ldrb	r1, [r4, r1, lsl #3]	@ zero_extendqisi2
 353:Core/Src/MazeLib.c ****  					{
 1488              		.loc 1 353 9 view .LVU457
 1489 0334 2942     		tst	r1, r5
 1490 0336 0AD1     		bne	.L90
 353:Core/Src/MazeLib.c ****  					{
 1491              		.loc 1 353 89 discriminator 1 view .LVU458
 1492 0338 03EB0311 		add	r1, r3, r3, lsl #4
 1493 033c 7144     		add	r1, r1, lr
 1494 033e 04EBC101 		add	r1, r4, r1, lsl #3
 1495 0342 4E88     		ldrh	r6, [r1, #2]
 353:Core/Src/MazeLib.c ****  					{
 1496              		.loc 1 353 64 discriminator 1 view .LVU459
 1497 0344 40F6FF71 		movw	r1, #4095
 1498 0348 8E42     		cmp	r6, r1
 1499 034a 3FF46FAF 		beq	.L113
 1500              	.LVL116:
 1501              	.L90:
 360:Core/Src/MazeLib.c ****  				{
 1502              		.loc 1 360 6 is_stmt 1 view .LVU460
 360:Core/Src/MazeLib.c ****  				{
 1503              		.loc 1 360 8 is_stmt 0 view .LVU461
ARM GAS  /var/folders/v_/kwz_t0cs68g1q1d733r227b80000gn/T//cc7enlx9.s 			page 46


 1504 034e 012A     		cmp	r2, #1
 1505 0350 7FF777AF 		ble	.L91
 362:Core/Src/MazeLib.c ****  					{
 1506              		.loc 1 362 7 is_stmt 1 view .LVU462
 362:Core/Src/MazeLib.c ****  					{
 1507              		.loc 1 362 31 is_stmt 0 view .LVU463
 1508 0354 02F1FF3C 		add	ip, r2, #-1
 362:Core/Src/MazeLib.c ****  					{
 1509              		.loc 1 362 34 view .LVU464
 1510 0358 03EB0311 		add	r1, r3, r3, lsl #4
 1511 035c 6144     		add	r1, r1, ip
 1512 035e 14F83110 		ldrb	r1, [r4, r1, lsl #3]	@ zero_extendqisi2
 362:Core/Src/MazeLib.c ****  					{
 1513              		.loc 1 362 9 view .LVU465
 1514 0362 2942     		tst	r1, r5
 1515 0364 7FF46DAF 		bne	.L91
 362:Core/Src/MazeLib.c ****  					{
 1516              		.loc 1 362 89 discriminator 1 view .LVU466
 1517 0368 03EB0311 		add	r1, r3, r3, lsl #4
 1518 036c 6144     		add	r1, r1, ip
 1519 036e 04EBC101 		add	r1, r4, r1, lsl #3
 1520 0372 4E88     		ldrh	r6, [r1, #2]
 362:Core/Src/MazeLib.c ****  					{
 1521              		.loc 1 362 64 discriminator 1 view .LVU467
 1522 0374 40F6FF71 		movw	r1, #4095
 1523 0378 8E42     		cmp	r6, r1
 1524 037a 7FF462AF 		bne	.L91
 364:Core/Src/MazeLib.c ****  						change_flag = true;		//å€¤ãŒæ›´æ–°ã•ã‚ŒãŸã“ã¨ã‚’ç¤ºã™
 1525              		.loc 1 364 8 is_stmt 1 view .LVU468
 364:Core/Src/MazeLib.c ****  						change_flag = true;		//å€¤ãŒæ›´æ–°ã•ã‚ŒãŸã“ã¨ã‚’ç¤ºã™
 1526              		.loc 1 364 58 is_stmt 0 view .LVU469
 1527 037e 03EB0311 		add	r1, r3, r3, lsl #4
 1528 0382 8818     		adds	r0, r1, r2
 1529              	.LVL117:
 364:Core/Src/MazeLib.c ****  						change_flag = true;		//å€¤ãŒæ›´æ–°ã•ã‚ŒãŸã“ã¨ã‚’ç¤ºã™
 1530              		.loc 1 364 58 view .LVU470
 1531 0384 04EBC000 		add	r0, r4, r0, lsl #3
 1532 0388 4088     		ldrh	r0, [r0, #2]
 364:Core/Src/MazeLib.c ****  						change_flag = true;		//å€¤ãŒæ›´æ–°ã•ã‚ŒãŸã“ã¨ã‚’ç¤ºã™
 1533              		.loc 1 364 66 view .LVU471
 1534 038a 0130     		adds	r0, r0, #1
 364:Core/Src/MazeLib.c ****  						change_flag = true;		//å€¤ãŒæ›´æ–°ã•ã‚ŒãŸã“ã¨ã‚’ç¤ºã™
 1535              		.loc 1 364 37 view .LVU472
 1536 038c 6144     		add	r1, r1, ip
 1537 038e 04EBC101 		add	r1, r4, r1, lsl #3
 1538 0392 4880     		strh	r0, [r1, #2]	@ movhi
 365:Core/Src/MazeLib.c ****  					}
 1539              		.loc 1 365 8 is_stmt 1 view .LVU473
 1540              	.LVL118:
 365:Core/Src/MazeLib.c ****  					}
 1541              		.loc 1 365 20 is_stmt 0 view .LVU474
 1542 0394 0120     		movs	r0, #1
 1543 0396 54E7     		b	.L91
 1544              	.LVL119:
 1545              	.L108:
 377:Core/Src/MazeLib.c ****  							change_flag = true;		//å€¤ãŒæ›´æ–°ã•ã‚ŒãŸã“ã¨ã‚’ç¤ºã™
 1546              		.loc 1 377 9 is_stmt 1 view .LVU475
ARM GAS  /var/folders/v_/kwz_t0cs68g1q1d733r227b80000gn/T//cc7enlx9.s 			page 47


 377:Core/Src/MazeLib.c ****  							change_flag = true;		//å€¤ãŒæ›´æ–°ã•ã‚ŒãŸã“ã¨ã‚’ç¤ºã™
 1547              		.loc 1 377 62 is_stmt 0 view .LVU476
 1548 0398 03EB0311 		add	r1, r3, r3, lsl #4
 1549 039c 1144     		add	r1, r1, r2
 1550 039e 04EBC101 		add	r1, r4, r1, lsl #3
 1551 03a2 4988     		ldrh	r1, [r1, #2]
 377:Core/Src/MazeLib.c ****  							change_flag = true;		//å€¤ãŒæ›´æ–°ã•ã‚ŒãŸã“ã¨ã‚’ç¤ºã™
 1552              		.loc 1 377 70 view .LVU477
 1553 03a4 0331     		adds	r1, r1, #3
 377:Core/Src/MazeLib.c ****  							change_flag = true;		//å€¤ãŒæ›´æ–°ã•ã‚ŒãŸã“ã¨ã‚’ç¤ºã™
 1554              		.loc 1 377 41 view .LVU478
 1555 03a6 02EB0C1C 		add	ip, r2, ip, lsl #4
 1556 03aa 0CF5887C 		add	ip, ip, #272
 1557 03ae 04EBCC0C 		add	ip, r4, ip, lsl #3
 1558 03b2 ACF80210 		strh	r1, [ip, #2]	@ movhi
 378:Core/Src/MazeLib.c ****  						}
 1559              		.loc 1 378 9 is_stmt 1 view .LVU479
 1560              	.LVL120:
 378:Core/Src/MazeLib.c ****  						}
 1561              		.loc 1 378 21 is_stmt 0 view .LVU480
 1562 03b6 0120     		movs	r0, #1
 1563 03b8 5BE7     		b	.L93
 1564              	.LVL121:
 1565              	.L109:
 386:Core/Src/MazeLib.c ****  							change_flag = true;		//å€¤ãŒæ›´æ–°ã•ã‚ŒãŸã“ã¨ã‚’ç¤ºã™
 1566              		.loc 1 386 9 is_stmt 1 view .LVU481
 386:Core/Src/MazeLib.c ****  							change_flag = true;		//å€¤ãŒæ›´æ–°ã•ã‚ŒãŸã“ã¨ã‚’ç¤ºã™
 1567              		.loc 1 386 64 is_stmt 0 view .LVU482
 1568 03ba 03EB0311 		add	r1, r3, r3, lsl #4
 1569 03be 1144     		add	r1, r1, r2
 1570 03c0 04EBC101 		add	r1, r4, r1, lsl #3
 1571 03c4 4988     		ldrh	r1, [r1, #2]
 386:Core/Src/MazeLib.c ****  							change_flag = true;		//å€¤ãŒæ›´æ–°ã•ã‚ŒãŸã“ã¨ã‚’ç¤ºã™
 1572              		.loc 1 386 72 view .LVU483
 1573 03c6 0331     		adds	r1, r1, #3
 386:Core/Src/MazeLib.c ****  							change_flag = true;		//å€¤ãŒæ›´æ–°ã•ã‚ŒãŸã“ã¨ã‚’ç¤ºã™
 1574              		.loc 1 386 43 view .LVU484
 1575 03c8 0CEB0E1C 		add	ip, ip, lr, lsl #4
 1576 03cc 0CF5887C 		add	ip, ip, #272
 1577 03d0 04EBCC0C 		add	ip, r4, ip, lsl #3
 1578 03d4 ACF80210 		strh	r1, [ip, #2]	@ movhi
 387:Core/Src/MazeLib.c ****  						}
 1579              		.loc 1 387 9 is_stmt 1 view .LVU485
 1580              	.LVL122:
 387:Core/Src/MazeLib.c ****  						}
 1581              		.loc 1 387 21 is_stmt 0 view .LVU486
 1582 03d8 0120     		movs	r0, #1
 1583 03da 64E7     		b	.L92
 1584              	.LVL123:
 1585              	.L110:
 400:Core/Src/MazeLib.c ****  								change_flag = true;		//å€¤ãŒæ›´æ–°ã•ã‚ŒãŸã“ã¨ã‚’ç¤ºã™
 1586              		.loc 1 400 10 is_stmt 1 view .LVU487
 400:Core/Src/MazeLib.c ****  								change_flag = true;		//å€¤ãŒæ›´æ–°ã•ã‚ŒãŸã“ã¨ã‚’ç¤ºã™
 1587              		.loc 1 400 61 is_stmt 0 view .LVU488
 1588 03dc 03EB0311 		add	r1, r3, r3, lsl #4
 1589 03e0 1144     		add	r1, r1, r2
 1590 03e2 04EBC101 		add	r1, r4, r1, lsl #3
ARM GAS  /var/folders/v_/kwz_t0cs68g1q1d733r227b80000gn/T//cc7enlx9.s 			page 48


 1591 03e6 4888     		ldrh	r0, [r1, #2]
 1592              	.LVL124:
 400:Core/Src/MazeLib.c ****  								change_flag = true;		//å€¤ãŒæ›´æ–°ã•ã‚ŒãŸã“ã¨ã‚’ç¤ºã™
 1593              		.loc 1 400 69 view .LVU489
 1594 03e8 0330     		adds	r0, r0, #3
 400:Core/Src/MazeLib.c ****  								change_flag = true;		//å€¤ãŒæ›´æ–°ã•ã‚ŒãŸã“ã¨ã‚’ç¤ºã™
 1595              		.loc 1 400 40 view .LVU490
 1596 03ea 02EB0311 		add	r1, r2, r3, lsl #4
 1597 03ee 01F58871 		add	r1, r1, #272
 1598 03f2 04EBC101 		add	r1, r4, r1, lsl #3
 1599 03f6 4880     		strh	r0, [r1, #2]	@ movhi
 401:Core/Src/MazeLib.c **** 
 1600              		.loc 1 401 10 is_stmt 1 view .LVU491
 1601              	.LVL125:
 401:Core/Src/MazeLib.c **** 
 1602              		.loc 1 401 22 is_stmt 0 view .LVU492
 1603 03f8 0120     		movs	r0, #1
 1604 03fa 6BE7     		b	.L94
 1605              	.LVL126:
 1606              	.L111:
 410:Core/Src/MazeLib.c ****  							change_flag = true;		//å€¤ãŒæ›´æ–°ã•ã‚ŒãŸã“ã¨ã‚’ç¤ºã™
 1607              		.loc 1 410 9 is_stmt 1 view .LVU493
 410:Core/Src/MazeLib.c ****  							change_flag = true;		//å€¤ãŒæ›´æ–°ã•ã‚ŒãŸã“ã¨ã‚’ç¤ºã™
 1608              		.loc 1 410 62 is_stmt 0 view .LVU494
 1609 03fc 03EB0311 		add	r1, r3, r3, lsl #4
 1610 0400 1144     		add	r1, r1, r2
 1611 0402 04EBC101 		add	r1, r4, r1, lsl #3
 1612 0406 4988     		ldrh	r1, [r1, #2]
 410:Core/Src/MazeLib.c ****  							change_flag = true;		//å€¤ãŒæ›´æ–°ã•ã‚ŒãŸã“ã¨ã‚’ç¤ºã™
 1613              		.loc 1 410 70 view .LVU495
 1614 0408 0331     		adds	r1, r1, #3
 410:Core/Src/MazeLib.c ****  							change_flag = true;		//å€¤ãŒæ›´æ–°ã•ã‚ŒãŸã“ã¨ã‚’ç¤ºã™
 1615              		.loc 1 410 41 view .LVU496
 1616 040a 0CEB031C 		add	ip, ip, r3, lsl #4
 1617 040e 0CF5887C 		add	ip, ip, #272
 1618 0412 04EBCC0C 		add	ip, r4, ip, lsl #3
 1619 0416 ACF80210 		strh	r1, [ip, #2]	@ movhi
 411:Core/Src/MazeLib.c ****  						}
 1620              		.loc 1 411 9 is_stmt 1 view .LVU497
 1621              	.LVL127:
 411:Core/Src/MazeLib.c ****  						}
 1622              		.loc 1 411 21 is_stmt 0 view .LVU498
 1623 041a 0120     		movs	r0, #1
 1624 041c 72E7     		b	.L89
 1625              	.LVL128:
 1626              	.L112:
 337:Core/Src/MazeLib.c ****  		{
 1627              		.loc 1 337 41 is_stmt 1 discriminator 2 view .LVU499
 337:Core/Src/MazeLib.c ****  		{
 1628              		.loc 1 337 42 is_stmt 0 discriminator 2 view .LVU500
 1629 041e 0133     		adds	r3, r3, #1
 1630              	.LVL129:
 1631              	.L88:
 337:Core/Src/MazeLib.c ****  		{
 1632              		.loc 1 337 16 is_stmt 1 discriminator 1 view .LVU501
 337:Core/Src/MazeLib.c ****  		{
 1633              		.loc 1 337 4 is_stmt 0 discriminator 1 view .LVU502
ARM GAS  /var/folders/v_/kwz_t0cs68g1q1d733r227b80000gn/T//cc7enlx9.s 			page 49


 1634 0420 0F2B     		cmp	r3, #15
 1635 0422 01DC     		bgt	.L114
 339:Core/Src/MazeLib.c ****  			{
 1636              		.loc 1 339 11 view .LVU503
 1637 0424 0122     		movs	r2, #1
 1638 0426 6EE7     		b	.L96
 1639              	.L114:
 420:Core/Src/MazeLib.c **** //    t = 0;
 1640              		.loc 1 420 8 is_stmt 1 view .LVU504
 420:Core/Src/MazeLib.c **** //    t = 0;
 1641              		.loc 1 420 2 is_stmt 0 view .LVU505
 1642 0428 10B1     		cbz	r0, .L115
 1643              	.LVL130:
 1644              	.L97:
 248:Core/Src/MazeLib.c **** 	{
 1645              		.loc 1 248 2 is_stmt 1 view .LVU506
 250:Core/Src/MazeLib.c **** //		if(rx == NUMBER_OF_SQUARES_X) rx =0;
 1646              		.loc 1 250 3 view .LVU507
 259:Core/Src/MazeLib.c **** 		{
 1647              		.loc 1 259 9 view .LVU508
 250:Core/Src/MazeLib.c **** //		if(rx == NUMBER_OF_SQUARES_X) rx =0;
 1648              		.loc 1 250 15 is_stmt 0 view .LVU509
 1649 042a 0020     		movs	r0, #0
 259:Core/Src/MazeLib.c **** 		{
 1650              		.loc 1 259 15 view .LVU510
 1651 042c 0123     		movs	r3, #1
 259:Core/Src/MazeLib.c **** 		{
 1652              		.loc 1 259 9 view .LVU511
 1653 042e F7E6     		b	.L79
 1654              	.LVL131:
 1655              	.L115:
 424:Core/Src/MazeLib.c **** void updateNodeThree(maze_node *maze, state *st, uint8_t x, uint8_t y)
 1656              		.loc 1 424 1 view .LVU512
 1657 0430 02B0     		add	sp, sp, #8
 1658              	.LCFI5:
 1659              		.cfi_def_cfa_offset 24
 1660              		@ sp needed
 1661 0432 BDE8F081 		pop	{r4, r5, r6, r7, r8, pc}
 424:Core/Src/MazeLib.c **** void updateNodeThree(maze_node *maze, state *st, uint8_t x, uint8_t y)
 1662              		.loc 1 424 1 view .LVU513
 1663              		.cfi_endproc
 1664              	.LFE10:
 1666              		.section	.text.updateNodeThree,"ax",%progbits
 1667              		.align	1
 1668              		.global	updateNodeThree
 1669              		.syntax unified
 1670              		.thumb
 1671              		.thumb_func
 1672              		.fpu fpv4-sp-d16
 1674              	updateNodeThree:
 1675              	.LVL132:
 1676              	.LFB11:
 426:Core/Src/MazeLib.c ****     //å£ã®æœ‰ç„¡ã®æ›´æ–°ã€‚æ—¢çŸ¥ã®å£ã«ã¯ä¸Šæ›¸ãã—ãªã„ã€‚é‡ã¿ã®æ›´æ–°ã¯ï¼Ÿæ—¢çŸ¥ã‹
 1677              		.loc 1 426 1 is_stmt 1 view -0
 1678              		.cfi_startproc
 1679              		@ args = 0, pretend = 0, frame = 0
 1680              		@ frame_needed = 0, uses_anonymous_args = 0
ARM GAS  /var/folders/v_/kwz_t0cs68g1q1d733r227b80000gn/T//cc7enlx9.s 			page 50


 426:Core/Src/MazeLib.c ****     //å£ã®æœ‰ç„¡ã®æ›´æ–°ã€‚æ—¢çŸ¥ã®å£ã«ã¯ä¸Šæ›¸ãã—ãªã„ã€‚é‡ã¿ã®æ›´æ–°ã¯ï¼Ÿæ—¢çŸ¥ã‹
 1681              		.loc 1 426 1 is_stmt 0 view .LVU515
 1682 0000 70B5     		push	{r4, r5, r6, lr}
 1683              	.LCFI6:
 1684              		.cfi_def_cfa_offset 16
 1685              		.cfi_offset 4, -16
 1686              		.cfi_offset 5, -12
 1687              		.cfi_offset 6, -8
 1688              		.cfi_offset 14, -4
 429:Core/Src/MazeLib.c ****     maze->ColumnNode[x+1][y].existence = (maze->ColumnNode[x+1][y].existence == UNKNOWN) ? st->wall
 1689              		.loc 1 429 5 is_stmt 1 view .LVU516
 429:Core/Src/MazeLib.c ****     maze->ColumnNode[x+1][y].existence = (maze->ColumnNode[x+1][y].existence == UNKNOWN) ? st->wall
 1690              		.loc 1 429 58 is_stmt 0 view .LVU517
 1691 0002 03F1010E 		add	lr, r3, #1
 429:Core/Src/MazeLib.c ****     maze->ColumnNode[x+1][y].existence = (maze->ColumnNode[x+1][y].existence == UNKNOWN) ? st->wall
 1692              		.loc 1 429 61 view .LVU518
 1693 0006 02EB0214 		add	r4, r2, r2, lsl #4
 1694 000a 7444     		add	r4, r4, lr
 1695 000c 10F83440 		ldrb	r4, [r0, r4, lsl #3]	@ zero_extendqisi2
 429:Core/Src/MazeLib.c ****     maze->ColumnNode[x+1][y].existence = (maze->ColumnNode[x+1][y].existence == UNKNOWN) ? st->wall
 1696              		.loc 1 429 37 view .LVU519
 1697 0010 022C     		cmp	r4, #2
 1698 0012 5CD0     		beq	.L122
 1699              	.L117:
 429:Core/Src/MazeLib.c ****     maze->ColumnNode[x+1][y].existence = (maze->ColumnNode[x+1][y].existence == UNKNOWN) ? st->wall
 1700              		.loc 1 429 37 discriminator 4 view .LVU520
 1701 0014 02EB0215 		add	r5, r2, r2, lsl #4
 1702 0018 7544     		add	r5, r5, lr
 1703 001a 00F83540 		strb	r4, [r0, r5, lsl #3]
 430:Core/Src/MazeLib.c ****     maze->RawNode[x][y].existence = (maze->RawNode[x][y].existence == UNKNOWN) ? st->wall.south : m
 1704              		.loc 1 430 5 is_stmt 1 discriminator 4 view .LVU521
 430:Core/Src/MazeLib.c ****     maze->RawNode[x][y].existence = (maze->RawNode[x][y].existence == UNKNOWN) ? st->wall.south : m
 1705              		.loc 1 430 61 is_stmt 0 discriminator 4 view .LVU522
 1706 001e 02F1010C 		add	ip, r2, #1
 430:Core/Src/MazeLib.c ****     maze->RawNode[x][y].existence = (maze->RawNode[x][y].existence == UNKNOWN) ? st->wall.south : m
 1707              		.loc 1 430 67 discriminator 4 view .LVU523
 1708 0022 03EB0C14 		add	r4, r3, ip, lsl #4
 1709 0026 04F58874 		add	r4, r4, #272
 1710 002a 10F83440 		ldrb	r4, [r0, r4, lsl #3]	@ zero_extendqisi2
 430:Core/Src/MazeLib.c ****     maze->RawNode[x][y].existence = (maze->RawNode[x][y].existence == UNKNOWN) ? st->wall.south : m
 1711              		.loc 1 430 40 discriminator 4 view .LVU524
 1712 002e 022C     		cmp	r4, #2
 1713 0030 51D0     		beq	.L123
 1714              	.L118:
 1715 0032 03EB0C15 		add	r5, r3, ip, lsl #4
 1716 0036 05F58875 		add	r5, r5, #272
 1717 003a 00F83540 		strb	r4, [r0, r5, lsl #3]
 431:Core/Src/MazeLib.c ****     maze->ColumnNode[x][y].existence = (maze->ColumnNode[x][y].existence == UNKNOWN) ? st->wall.wes
 1718              		.loc 1 431 5 is_stmt 1 discriminator 4 view .LVU525
 431:Core/Src/MazeLib.c ****     maze->ColumnNode[x][y].existence = (maze->ColumnNode[x][y].existence == UNKNOWN) ? st->wall.wes
 1719              		.loc 1 431 57 is_stmt 0 discriminator 4 view .LVU526
 1720 003e 02EB0214 		add	r4, r2, r2, lsl #4
 1721 0042 1C44     		add	r4, r4, r3
 1722 0044 10F83450 		ldrb	r5, [r0, r4, lsl #3]	@ zero_extendqisi2
 431:Core/Src/MazeLib.c ****     maze->ColumnNode[x][y].existence = (maze->ColumnNode[x][y].existence == UNKNOWN) ? st->wall.wes
 1723              		.loc 1 431 35 discriminator 4 view .LVU527
 1724 0048 022D     		cmp	r5, #2
ARM GAS  /var/folders/v_/kwz_t0cs68g1q1d733r227b80000gn/T//cc7enlx9.s 			page 51


 1725 004a 48D0     		beq	.L124
 1726              	.L119:
 1727 004c 02EB0214 		add	r4, r2, r2, lsl #4
 1728 0050 1C44     		add	r4, r4, r3
 1729 0052 00F83450 		strb	r5, [r0, r4, lsl #3]
 432:Core/Src/MazeLib.c **** 
 1730              		.loc 1 432 5 is_stmt 1 discriminator 4 view .LVU528
 432:Core/Src/MazeLib.c **** 
 1731              		.loc 1 432 63 is_stmt 0 discriminator 4 view .LVU529
 1732 0056 03EB0214 		add	r4, r3, r2, lsl #4
 1733 005a 04F58874 		add	r4, r4, #272
 1734 005e 10F83440 		ldrb	r4, [r0, r4, lsl #3]	@ zero_extendqisi2
 432:Core/Src/MazeLib.c **** 
 1735              		.loc 1 432 38 discriminator 4 view .LVU530
 1736 0062 022C     		cmp	r4, #2
 1737 0064 3FD0     		beq	.L125
 1738              	.L120:
 1739 0066 03EB0211 		add	r1, r3, r2, lsl #4
 1740              	.LVL133:
 432:Core/Src/MazeLib.c **** 
 1741              		.loc 1 432 38 discriminator 4 view .LVU531
 1742 006a 01F58871 		add	r1, r1, #272
 1743 006e 00F83140 		strb	r4, [r0, r1, lsl #3]
 439:Core/Src/MazeLib.c ****     maze->ColumnNode[x+1][y].draw = (maze->ColumnNode[x+1][y].existence == WALL) ? true : false;   
 1744              		.loc 1 439 5 is_stmt 1 discriminator 4 view .LVU532
 439:Core/Src/MazeLib.c ****     maze->ColumnNode[x+1][y].draw = (maze->ColumnNode[x+1][y].existence == WALL) ? true : false;   
 1745              		.loc 1 439 56 is_stmt 0 discriminator 4 view .LVU533
 1746 0072 02EB0212 		add	r2, r2, r2, lsl #4
 1747              	.LVL134:
 439:Core/Src/MazeLib.c ****     maze->ColumnNode[x+1][y].draw = (maze->ColumnNode[x+1][y].existence == WALL) ? true : false;   
 1748              		.loc 1 439 56 discriminator 4 view .LVU534
 1749 0076 9644     		add	lr, lr, r2
 1750 0078 10F83E60 		ldrb	r6, [r0, lr, lsl #3]	@ zero_extendqisi2
 439:Core/Src/MazeLib.c ****     maze->ColumnNode[x+1][y].draw = (maze->ColumnNode[x+1][y].existence == WALL) ? true : false;   
 1751              		.loc 1 439 83 discriminator 4 view .LVU535
 1752 007c 012E     		cmp	r6, #1
 1753 007e 14BF     		ite	ne
 1754 0080 0026     		movne	r6, #0
 1755 0082 0126     		moveq	r6, #1
 439:Core/Src/MazeLib.c ****     maze->ColumnNode[x+1][y].draw = (maze->ColumnNode[x+1][y].existence == WALL) ? true : false;   
 1756              		.loc 1 439 32 discriminator 4 view .LVU536
 1757 0084 00EBCE0E 		add	lr, r0, lr, lsl #3
 1758 0088 8EF80460 		strb	r6, [lr, #4]
 440:Core/Src/MazeLib.c ****     maze->RawNode[x][y].draw = (maze->RawNode[x][y].existence == WALL) ? true : false;             
 1759              		.loc 1 440 5 is_stmt 1 discriminator 4 view .LVU537
 440:Core/Src/MazeLib.c ****     maze->RawNode[x][y].draw = (maze->RawNode[x][y].existence == WALL) ? true : false;             
 1760              		.loc 1 440 62 is_stmt 0 discriminator 4 view .LVU538
 1761 008c 03EB0C1C 		add	ip, r3, ip, lsl #4
 1762 0090 0CF5887C 		add	ip, ip, #272
 1763 0094 10F83CE0 		ldrb	lr, [r0, ip, lsl #3]	@ zero_extendqisi2
 440:Core/Src/MazeLib.c ****     maze->RawNode[x][y].draw = (maze->RawNode[x][y].existence == WALL) ? true : false;             
 1764              		.loc 1 440 89 discriminator 4 view .LVU539
 1765 0098 BEF1010F 		cmp	lr, #1
 1766 009c 14BF     		ite	ne
 1767 009e 4FF0000E 		movne	lr, #0
 1768 00a2 4FF0010E 		moveq	lr, #1
 440:Core/Src/MazeLib.c ****     maze->RawNode[x][y].draw = (maze->RawNode[x][y].existence == WALL) ? true : false;             
ARM GAS  /var/folders/v_/kwz_t0cs68g1q1d733r227b80000gn/T//cc7enlx9.s 			page 52


 1769              		.loc 1 440 35 discriminator 4 view .LVU540
 1770 00a6 00EBCC0C 		add	ip, r0, ip, lsl #3
 1771 00aa 8CF804E0 		strb	lr, [ip, #4]
 441:Core/Src/MazeLib.c ****     maze->ColumnNode[x][y].draw = (maze->ColumnNode[x][y].existence == WALL) ? true : false;       
 1772              		.loc 1 441 5 is_stmt 1 discriminator 4 view .LVU541
 441:Core/Src/MazeLib.c ****     maze->ColumnNode[x][y].draw = (maze->ColumnNode[x][y].existence == WALL) ? true : false;       
 1773              		.loc 1 441 79 is_stmt 0 discriminator 4 view .LVU542
 1774 00ae 012D     		cmp	r5, #1
 1775 00b0 14BF     		ite	ne
 1776 00b2 0025     		movne	r5, #0
 1777 00b4 0125     		moveq	r5, #1
 441:Core/Src/MazeLib.c ****     maze->ColumnNode[x][y].draw = (maze->ColumnNode[x][y].existence == WALL) ? true : false;       
 1778              		.loc 1 441 30 discriminator 4 view .LVU543
 1779 00b6 1A44     		add	r2, r2, r3
 1780 00b8 00EBC202 		add	r2, r0, r2, lsl #3
 1781 00bc 1571     		strb	r5, [r2, #4]
 442:Core/Src/MazeLib.c **** }
 1782              		.loc 1 442 5 is_stmt 1 discriminator 4 view .LVU544
 442:Core/Src/MazeLib.c **** }
 1783              		.loc 1 442 85 is_stmt 0 discriminator 4 view .LVU545
 1784 00be 012C     		cmp	r4, #1
 1785 00c0 14BF     		ite	ne
 1786 00c2 0024     		movne	r4, #0
 1787 00c4 0124     		moveq	r4, #1
 442:Core/Src/MazeLib.c **** }
 1788              		.loc 1 442 33 discriminator 4 view .LVU546
 1789 00c6 00EBC100 		add	r0, r0, r1, lsl #3
 1790              	.LVL135:
 442:Core/Src/MazeLib.c **** }
 1791              		.loc 1 442 33 discriminator 4 view .LVU547
 1792 00ca 0471     		strb	r4, [r0, #4]
 443:Core/Src/MazeLib.c **** void updateNodeDraw(maze_node *maze, uint8_t x, uint8_t y)
 1793              		.loc 1 443 1 discriminator 4 view .LVU548
 1794 00cc 70BD     		pop	{r4, r5, r6, pc}
 1795              	.LVL136:
 1796              	.L122:
 429:Core/Src/MazeLib.c ****     maze->ColumnNode[x+1][y].existence = (maze->ColumnNode[x+1][y].existence == UNKNOWN) ? st->wall
 1797              		.loc 1 429 94 discriminator 1 view .LVU549
 1798 00ce 0C79     		ldrb	r4, [r1, #4]	@ zero_extendqisi2
 1799 00d0 04F00304 		and	r4, r4, #3
 1800 00d4 9EE7     		b	.L117
 1801              	.L123:
 430:Core/Src/MazeLib.c ****     maze->RawNode[x][y].existence = (maze->RawNode[x][y].existence == UNKNOWN) ? st->wall.south : m
 1802              		.loc 1 430 100 discriminator 1 view .LVU550
 1803 00d6 0C79     		ldrb	r4, [r1, #4]	@ zero_extendqisi2
 1804 00d8 C4F38104 		ubfx	r4, r4, #2, #2
 1805 00dc A9E7     		b	.L118
 1806              	.L124:
 431:Core/Src/MazeLib.c ****     maze->ColumnNode[x][y].existence = (maze->ColumnNode[x][y].existence == UNKNOWN) ? st->wall.wes
 1807              		.loc 1 431 90 discriminator 1 view .LVU551
 1808 00de 0D79     		ldrb	r5, [r1, #4]	@ zero_extendqisi2
 1809 00e0 C5F30115 		ubfx	r5, r5, #4, #2
 1810 00e4 B2E7     		b	.L119
 1811              	.L125:
 432:Core/Src/MazeLib.c **** 
 1812              		.loc 1 432 96 discriminator 1 view .LVU552
 1813 00e6 0C79     		ldrb	r4, [r1, #4]	@ zero_extendqisi2
ARM GAS  /var/folders/v_/kwz_t0cs68g1q1d733r227b80000gn/T//cc7enlx9.s 			page 53


 1814 00e8 A409     		lsrs	r4, r4, #6
 1815 00ea BCE7     		b	.L120
 1816              		.cfi_endproc
 1817              	.LFE11:
 1819              		.section	.text.updateNodeDraw,"ax",%progbits
 1820              		.align	1
 1821              		.global	updateNodeDraw
 1822              		.syntax unified
 1823              		.thumb
 1824              		.thumb_func
 1825              		.fpu fpv4-sp-d16
 1827              	updateNodeDraw:
 1828              	.LVL137:
 1829              	.LFB12:
 445:Core/Src/MazeLib.c ****     maze->RawNode[x][y+1].draw = maze->RawNode[x][y+1].existence;       //åŒ—
 1830              		.loc 1 445 1 is_stmt 1 view -0
 1831              		.cfi_startproc
 1832              		@ args = 0, pretend = 0, frame = 0
 1833              		@ frame_needed = 0, uses_anonymous_args = 0
 445:Core/Src/MazeLib.c ****     maze->RawNode[x][y+1].draw = maze->RawNode[x][y+1].existence;       //åŒ—
 1834              		.loc 1 445 1 is_stmt 0 view .LVU554
 1835 0000 00B5     		push	{lr}
 1836              	.LCFI7:
 1837              		.cfi_def_cfa_offset 4
 1838              		.cfi_offset 14, -4
 446:Core/Src/MazeLib.c ****     maze->ColumnNode[x+1][y].draw = maze->ColumnNode[x+1][y].existence; //æ±
 1839              		.loc 1 446 5 is_stmt 1 view .LVU555
 446:Core/Src/MazeLib.c ****     maze->ColumnNode[x+1][y].draw = maze->ColumnNode[x+1][y].existence; //æ±
 1840              		.loc 1 446 52 is_stmt 0 view .LVU556
 1841 0002 531C     		adds	r3, r2, #1
 446:Core/Src/MazeLib.c ****     maze->ColumnNode[x+1][y].draw = maze->ColumnNode[x+1][y].existence; //æ±
 1842              		.loc 1 446 55 view .LVU557
 1843 0004 01EB011C 		add	ip, r1, r1, lsl #4
 1844 0008 6344     		add	r3, r3, ip
 1845 000a 10F833E0 		ldrb	lr, [r0, r3, lsl #3]	@ zero_extendqisi2
 1846 000e BEF1000E 		subs	lr, lr, #0
 1847 0012 18BF     		it	ne
 1848 0014 4FF0010E 		movne	lr, #1
 446:Core/Src/MazeLib.c ****     maze->ColumnNode[x+1][y].draw = maze->ColumnNode[x+1][y].existence; //æ±
 1849              		.loc 1 446 32 view .LVU558
 1850 0018 00EBC303 		add	r3, r0, r3, lsl #3
 1851 001c 83F804E0 		strb	lr, [r3, #4]
 447:Core/Src/MazeLib.c ****     maze->RawNode[x][y].draw = maze->RawNode[x][y].existence;           //å—
 1852              		.loc 1 447 5 is_stmt 1 view .LVU559
 447:Core/Src/MazeLib.c ****     maze->RawNode[x][y].draw = maze->RawNode[x][y].existence;           //å—
 1853              		.loc 1 447 55 is_stmt 0 view .LVU560
 1854 0020 4B1C     		adds	r3, r1, #1
 447:Core/Src/MazeLib.c ****     maze->RawNode[x][y].draw = maze->RawNode[x][y].existence;           //å—
 1855              		.loc 1 447 61 view .LVU561
 1856 0022 02EB0313 		add	r3, r2, r3, lsl #4
 1857 0026 03F58873 		add	r3, r3, #272
 1858 002a 10F833E0 		ldrb	lr, [r0, r3, lsl #3]	@ zero_extendqisi2
 1859 002e BEF1000E 		subs	lr, lr, #0
 1860 0032 18BF     		it	ne
 1861 0034 4FF0010E 		movne	lr, #1
 447:Core/Src/MazeLib.c ****     maze->RawNode[x][y].draw = maze->RawNode[x][y].existence;           //å—
 1862              		.loc 1 447 35 view .LVU562
ARM GAS  /var/folders/v_/kwz_t0cs68g1q1d733r227b80000gn/T//cc7enlx9.s 			page 54


 1863 0038 00EBC303 		add	r3, r0, r3, lsl #3
 1864 003c 83F804E0 		strb	lr, [r3, #4]
 448:Core/Src/MazeLib.c ****     maze->ColumnNode[x][y].draw = maze->ColumnNode[x][y].existence;     //è¥¿
 1865              		.loc 1 448 5 is_stmt 1 view .LVU563
 448:Core/Src/MazeLib.c ****     maze->ColumnNode[x][y].draw = maze->ColumnNode[x][y].existence;     //è¥¿
 1866              		.loc 1 448 51 is_stmt 0 view .LVU564
 1867 0040 0CEB0203 		add	r3, ip, r2
 1868 0044 10F833C0 		ldrb	ip, [r0, r3, lsl #3]	@ zero_extendqisi2
 1869 0048 BCF1000C 		subs	ip, ip, #0
 1870 004c 18BF     		it	ne
 1871 004e 4FF0010C 		movne	ip, #1
 448:Core/Src/MazeLib.c ****     maze->ColumnNode[x][y].draw = maze->ColumnNode[x][y].existence;     //è¥¿
 1872              		.loc 1 448 30 view .LVU565
 1873 0052 00EBC303 		add	r3, r0, r3, lsl #3
 1874 0056 83F804C0 		strb	ip, [r3, #4]
 449:Core/Src/MazeLib.c **** }
 1875              		.loc 1 449 5 is_stmt 1 view .LVU566
 449:Core/Src/MazeLib.c **** }
 1876              		.loc 1 449 57 is_stmt 0 view .LVU567
 1877 005a 02EB0112 		add	r2, r2, r1, lsl #4
 1878              	.LVL138:
 449:Core/Src/MazeLib.c **** }
 1879              		.loc 1 449 57 view .LVU568
 1880 005e 02F58872 		add	r2, r2, #272
 1881 0062 10F83230 		ldrb	r3, [r0, r2, lsl #3]	@ zero_extendqisi2
 1882 0066 003B     		subs	r3, r3, #0
 1883 0068 18BF     		it	ne
 1884 006a 0123     		movne	r3, #1
 449:Core/Src/MazeLib.c **** }
 1885              		.loc 1 449 33 view .LVU569
 1886 006c 00EBC200 		add	r0, r0, r2, lsl #3
 1887              	.LVL139:
 449:Core/Src/MazeLib.c **** }
 1888              		.loc 1 449 33 view .LVU570
 1889 0070 0371     		strb	r3, [r0, #4]
 450:Core/Src/MazeLib.c **** static _Bool judgeRawNodeGoal(maze_node *maze, uint8_t x, uint8_t y)
 1890              		.loc 1 450 1 view .LVU571
 1891 0072 5DF804FB 		ldr	pc, [sp], #4
 1892              		.cfi_endproc
 1893              	.LFE12:
 1895              		.section	.rodata.printAllWeight.str1.4,"aMS",%progbits,1
 1896              		.align	2
 1897              	.LC2:
 1898 0000 E585A8E3 		.ascii	"\345\205\250\343\203\216\343\203\274\343\203\211\343"
 1898      838EE383 
 1898      BCE38389 
 1898      E3
 1899 000d 81AEE987 		.ascii	"\201\256\351\207\215\343\201\277\015\000"
 1899      8DE381BF 
 1899      0D00
 1900 0017 00       		.align	2
 1901              	.LC3:
 1902 0018 20202B20 		.ascii	"  +  \000"
 1902      2000
 1903 001e 0000     		.align	2
 1904              	.LC4:
 1905 0020 201B5B33 		.ascii	" \033[31;1m%3x\033[37;m \000"
ARM GAS  /var/folders/v_/kwz_t0cs68g1q1d733r227b80000gn/T//cc7enlx9.s 			page 55


 1905      313B316D 
 1905      2533781B 
 1905      5B33373B 
 1905      6D2000
 1906 0033 00       		.align	2
 1907              	.LC5:
 1908 0034 20253378 		.ascii	" %3x \000"
 1908      2000
 1909 003a 0000     		.align	2
 1910              	.LC6:
 1911 003c 0D00     		.ascii	"\015\000"
 1912 003e 0000     		.align	2
 1913              	.LC7:
 1914 0040 20202020 		.ascii	"     \000"
 1914      2000
 1915              		.section	.text.printAllWeight,"ax",%progbits
 1916              		.align	1
 1917              		.global	printAllWeight
 1918              		.syntax unified
 1919              		.thumb
 1920              		.thumb_func
 1921              		.fpu fpv4-sp-d16
 1923              	printAllWeight:
 1924              	.LVL140:
 1925              	.LFB15:
 487:Core/Src/MazeLib.c ****     //è¦‹ã‚„ã™ã„å½¢ã«æˆå‹ã—ã¦è¡¨ç¤ºã™ã‚‹
 1926              		.loc 1 487 1 is_stmt 1 view -0
 1927              		.cfi_startproc
 1928              		@ args = 0, pretend = 0, frame = 0
 1929              		@ frame_needed = 0, uses_anonymous_args = 0
 487:Core/Src/MazeLib.c ****     //è¦‹ã‚„ã™ã„å½¢ã«æˆå‹ã—ã¦è¡¨ç¤ºã™ã‚‹
 1930              		.loc 1 487 1 is_stmt 0 view .LVU573
 1931 0000 F8B5     		push	{r3, r4, r5, r6, r7, lr}
 1932              	.LCFI8:
 1933              		.cfi_def_cfa_offset 24
 1934              		.cfi_offset 3, -24
 1935              		.cfi_offset 4, -20
 1936              		.cfi_offset 5, -16
 1937              		.cfi_offset 6, -12
 1938              		.cfi_offset 7, -8
 1939              		.cfi_offset 14, -4
 1940 0002 0646     		mov	r6, r0
 1941 0004 0F46     		mov	r7, r1
 494:Core/Src/MazeLib.c **** 
 1942              		.loc 1 494 5 is_stmt 1 view .LVU574
 1943 0006 4148     		ldr	r0, .L151
 1944              	.LVL141:
 494:Core/Src/MazeLib.c **** 
 1945              		.loc 1 494 5 is_stmt 0 view .LVU575
 1946 0008 FFF7FEFF 		bl	puts
 1947              	.LVL142:
 496:Core/Src/MazeLib.c ****     {
 1948              		.loc 1 496 5 is_stmt 1 view .LVU576
 1949              	.LBB19:
 496:Core/Src/MazeLib.c ****     {
 1950              		.loc 1 496 9 view .LVU577
 496:Core/Src/MazeLib.c ****     {
ARM GAS  /var/folders/v_/kwz_t0cs68g1q1d733r227b80000gn/T//cc7enlx9.s 			page 56


 1951              		.loc 1 496 13 is_stmt 0 view .LVU578
 1952 000c 1025     		movs	r5, #16
 496:Core/Src/MazeLib.c ****     {
 1953              		.loc 1 496 5 view .LVU579
 1954 000e 5BE0     		b	.L129
 1955              	.LVL143:
 1956              	.L132:
 1957              	.LBB20:
 508:Core/Src/MazeLib.c ****             }
 1958              		.loc 1 508 17 is_stmt 1 view .LVU580
 508:Core/Src/MazeLib.c ****             }
 1959              		.loc 1 508 51 is_stmt 0 view .LVU581
 1960 0010 04EB0413 		add	r3, r4, r4, lsl #4
 1961 0014 2B44     		add	r3, r3, r5
 1962 0016 06EBC303 		add	r3, r6, r3, lsl #3
 508:Core/Src/MazeLib.c ****             }
 1963              		.loc 1 508 17 view .LVU582
 1964 001a 5988     		ldrh	r1, [r3, #2]
 1965 001c 3C48     		ldr	r0, .L151+4
 1966 001e FFF7FEFF 		bl	printf
 1967              	.LVL144:
 1968              	.L133:
 510:Core/Src/MazeLib.c ****                  printf("  +  ");
 1969              		.loc 1 510 13 is_stmt 1 view .LVU583
 510:Core/Src/MazeLib.c ****                  printf("  +  ");
 1970              		.loc 1 510 15 is_stmt 0 view .LVU584
 1971 0022 0E2C     		cmp	r4, #14
 1972 0024 02DC     		bgt	.L134
 511:Core/Src/MazeLib.c ****         }
 1973              		.loc 1 511 18 is_stmt 1 view .LVU585
 1974 0026 3B48     		ldr	r0, .L151+8
 1975 0028 FFF7FEFF 		bl	printf
 1976              	.LVL145:
 1977              	.L134:
 500:Core/Src/MazeLib.c ****         {
 1978              		.loc 1 500 47 discriminator 2 view .LVU586
 500:Core/Src/MazeLib.c ****         {
 1979              		.loc 1 500 48 is_stmt 0 discriminator 2 view .LVU587
 1980 002c 0134     		adds	r4, r4, #1
 1981              	.LVL146:
 1982              	.L130:
 500:Core/Src/MazeLib.c ****         {
 1983              		.loc 1 500 22 is_stmt 1 discriminator 1 view .LVU588
 500:Core/Src/MazeLib.c ****         {
 1984              		.loc 1 500 9 is_stmt 0 discriminator 1 view .LVU589
 1985 002e 0F2C     		cmp	r4, #15
 1986 0030 15DC     		bgt	.L147
 502:Core/Src/MazeLib.c ****             {
 1987              		.loc 1 502 13 is_stmt 1 view .LVU590
 502:Core/Src/MazeLib.c ****             {
 1988              		.loc 1 502 16 is_stmt 0 view .LVU591
 1989 0032 EAB2     		uxtb	r2, r5
 1990 0034 E1B2     		uxtb	r1, r4
 1991 0036 3046     		mov	r0, r6
 1992 0038 FFF7FEFF 		bl	judgeRawNodeGoal
 1993              	.LVL147:
 502:Core/Src/MazeLib.c ****             {
ARM GAS  /var/folders/v_/kwz_t0cs68g1q1d733r227b80000gn/T//cc7enlx9.s 			page 57


 1994              		.loc 1 502 15 view .LVU592
 1995 003c 28B9     		cbnz	r0, .L131
 502:Core/Src/MazeLib.c ****             {
 1996              		.loc 1 502 60 discriminator 1 view .LVU593
 1997 003e 3B78     		ldrb	r3, [r7]	@ zero_extendqisi2
 502:Core/Src/MazeLib.c ****             {
 1998              		.loc 1 502 52 discriminator 1 view .LVU594
 1999 0040 A342     		cmp	r3, r4
 2000 0042 E5D1     		bne	.L132
 502:Core/Src/MazeLib.c ****             {
 2001              		.loc 1 502 77 discriminator 2 view .LVU595
 2002 0044 7B78     		ldrb	r3, [r7, #1]	@ zero_extendqisi2
 502:Core/Src/MazeLib.c ****             {
 2003              		.loc 1 502 70 discriminator 2 view .LVU596
 2004 0046 AB42     		cmp	r3, r5
 2005 0048 E2D1     		bne	.L132
 2006              	.L131:
 504:Core/Src/MazeLib.c ****             }
 2007              		.loc 1 504 17 is_stmt 1 view .LVU597
 504:Core/Src/MazeLib.c ****             }
 2008              		.loc 1 504 70 is_stmt 0 view .LVU598
 2009 004a 04EB0413 		add	r3, r4, r4, lsl #4
 2010 004e 2B44     		add	r3, r3, r5
 2011 0050 06EBC303 		add	r3, r6, r3, lsl #3
 504:Core/Src/MazeLib.c ****             }
 2012              		.loc 1 504 17 view .LVU599
 2013 0054 5988     		ldrh	r1, [r3, #2]
 2014 0056 3048     		ldr	r0, .L151+12
 2015 0058 FFF7FEFF 		bl	printf
 2016              	.LVL148:
 2017 005c E1E7     		b	.L133
 2018              	.L147:
 504:Core/Src/MazeLib.c ****             }
 2019              		.loc 1 504 17 view .LVU600
 2020              	.LBE20:
 513:Core/Src/MazeLib.c **** 
 2021              		.loc 1 513 9 is_stmt 1 view .LVU601
 2022 005e 2F48     		ldr	r0, .L151+16
 2023 0060 FFF7FEFF 		bl	puts
 2024              	.LVL149:
 516:Core/Src/MazeLib.c ****         {
 2025              		.loc 1 516 9 view .LVU602
 2026              	.LBB21:
 516:Core/Src/MazeLib.c ****         {
 2027              		.loc 1 516 13 view .LVU603
 516:Core/Src/MazeLib.c ****         {
 2028              		.loc 1 516 17 is_stmt 0 view .LVU604
 2029 0064 0024     		movs	r4, #0
 2030              	.LVL150:
 516:Core/Src/MazeLib.c ****         {
 2031              		.loc 1 516 9 view .LVU605
 2032 0066 10E0     		b	.L136
 2033              	.LVL151:
 2034              	.L138:
 524:Core/Src/MazeLib.c ****             }
 2035              		.loc 1 524 17 is_stmt 1 view .LVU606
 524:Core/Src/MazeLib.c ****             }
ARM GAS  /var/folders/v_/kwz_t0cs68g1q1d733r227b80000gn/T//cc7enlx9.s 			page 58


 2036              		.loc 1 524 53 is_stmt 0 view .LVU607
 2037 0068 6B1E     		subs	r3, r5, #1
 524:Core/Src/MazeLib.c ****             }
 2038              		.loc 1 524 56 view .LVU608
 2039 006a 03EB0413 		add	r3, r3, r4, lsl #4
 2040 006e 03F58873 		add	r3, r3, #272
 2041 0072 06EBC303 		add	r3, r6, r3, lsl #3
 524:Core/Src/MazeLib.c ****             }
 2042              		.loc 1 524 17 view .LVU609
 2043 0076 5988     		ldrh	r1, [r3, #2]
 2044 0078 2548     		ldr	r0, .L151+4
 2045 007a FFF7FEFF 		bl	printf
 2046              	.LVL152:
 2047              	.L139:
 526:Core/Src/MazeLib.c ****                 printf("     ");
 2048              		.loc 1 526 13 is_stmt 1 view .LVU610
 526:Core/Src/MazeLib.c ****                 printf("     ");
 2049              		.loc 1 526 15 is_stmt 0 view .LVU611
 2050 007e 0F2C     		cmp	r4, #15
 2051 0080 02DC     		bgt	.L140
 527:Core/Src/MazeLib.c ****         }
 2052              		.loc 1 527 17 is_stmt 1 view .LVU612
 2053 0082 2748     		ldr	r0, .L151+20
 2054 0084 FFF7FEFF 		bl	printf
 2055              	.LVL153:
 2056              	.L140:
 516:Core/Src/MazeLib.c ****         {
 2057              		.loc 1 516 49 discriminator 2 view .LVU613
 516:Core/Src/MazeLib.c ****         {
 2058              		.loc 1 516 50 is_stmt 0 discriminator 2 view .LVU614
 2059 0088 0134     		adds	r4, r4, #1
 2060              	.LVL154:
 2061              	.L136:
 516:Core/Src/MazeLib.c ****         {
 2062              		.loc 1 516 22 is_stmt 1 discriminator 1 view .LVU615
 516:Core/Src/MazeLib.c ****         {
 2063              		.loc 1 516 9 is_stmt 0 discriminator 1 view .LVU616
 2064 008a 102C     		cmp	r4, #16
 2065 008c 18DC     		bgt	.L148
 518:Core/Src/MazeLib.c ****             {
 2066              		.loc 1 518 13 is_stmt 1 view .LVU617
 518:Core/Src/MazeLib.c ****             {
 2067              		.loc 1 518 16 is_stmt 0 view .LVU618
 2068 008e 6A1E     		subs	r2, r5, #1
 2069 0090 D2B2     		uxtb	r2, r2
 2070 0092 E1B2     		uxtb	r1, r4
 2071 0094 3046     		mov	r0, r6
 2072 0096 FFF7FEFF 		bl	judgeColumnNodeGoal
 2073              	.LVL155:
 518:Core/Src/MazeLib.c ****             {
 2074              		.loc 1 518 15 view .LVU619
 2075 009a 28B9     		cbnz	r0, .L137
 518:Core/Src/MazeLib.c ****             {
 2076              		.loc 1 518 65 discriminator 1 view .LVU620
 2077 009c 3B78     		ldrb	r3, [r7]	@ zero_extendqisi2
 518:Core/Src/MazeLib.c ****             {
 2078              		.loc 1 518 57 discriminator 1 view .LVU621
ARM GAS  /var/folders/v_/kwz_t0cs68g1q1d733r227b80000gn/T//cc7enlx9.s 			page 59


 2079 009e A342     		cmp	r3, r4
 2080 00a0 E2D1     		bne	.L138
 518:Core/Src/MazeLib.c ****             {
 2081              		.loc 1 518 82 discriminator 2 view .LVU622
 2082 00a2 7B78     		ldrb	r3, [r7, #1]	@ zero_extendqisi2
 518:Core/Src/MazeLib.c ****             {
 2083              		.loc 1 518 75 discriminator 2 view .LVU623
 2084 00a4 AB42     		cmp	r3, r5
 2085 00a6 DFD1     		bne	.L138
 2086              	.L137:
 520:Core/Src/MazeLib.c ****             }
 2087              		.loc 1 520 17 is_stmt 1 view .LVU624
 520:Core/Src/MazeLib.c ****             }
 2088              		.loc 1 520 72 is_stmt 0 view .LVU625
 2089 00a8 6B1E     		subs	r3, r5, #1
 520:Core/Src/MazeLib.c ****             }
 2090              		.loc 1 520 75 view .LVU626
 2091 00aa 03EB0413 		add	r3, r3, r4, lsl #4
 2092 00ae 03F58873 		add	r3, r3, #272
 2093 00b2 06EBC303 		add	r3, r6, r3, lsl #3
 520:Core/Src/MazeLib.c ****             }
 2094              		.loc 1 520 17 view .LVU627
 2095 00b6 5988     		ldrh	r1, [r3, #2]
 2096 00b8 1748     		ldr	r0, .L151+12
 2097 00ba FFF7FEFF 		bl	printf
 2098              	.LVL156:
 2099 00be DEE7     		b	.L139
 2100              	.L148:
 520:Core/Src/MazeLib.c ****             }
 2101              		.loc 1 520 17 view .LVU628
 2102              	.LBE21:
 529:Core/Src/MazeLib.c ****     }
 2103              		.loc 1 529 9 is_stmt 1 discriminator 2 view .LVU629
 2104 00c0 1648     		ldr	r0, .L151+16
 2105 00c2 FFF7FEFF 		bl	puts
 2106              	.LVL157:
 496:Core/Src/MazeLib.c ****     {
 2107              		.loc 1 496 43 discriminator 2 view .LVU630
 496:Core/Src/MazeLib.c ****     {
 2108              		.loc 1 496 44 is_stmt 0 discriminator 2 view .LVU631
 2109 00c6 013D     		subs	r5, r5, #1
 2110              	.LVL158:
 2111              	.L129:
 496:Core/Src/MazeLib.c ****     {
 2112              		.loc 1 496 36 is_stmt 1 discriminator 1 view .LVU632
 496:Core/Src/MazeLib.c ****     {
 2113              		.loc 1 496 5 is_stmt 0 discriminator 1 view .LVU633
 2114 00c8 002D     		cmp	r5, #0
 2115 00ca 04DD     		ble	.L149
 499:Core/Src/MazeLib.c ****         for(int x=0; x < NUMBER_OF_SQUARES_X; x++)
 2116              		.loc 1 499 9 is_stmt 1 view .LVU634
 2117 00cc 1148     		ldr	r0, .L151+8
 2118 00ce FFF7FEFF 		bl	printf
 2119              	.LVL159:
 500:Core/Src/MazeLib.c ****         {
 2120              		.loc 1 500 9 view .LVU635
 2121              	.LBB22:
ARM GAS  /var/folders/v_/kwz_t0cs68g1q1d733r227b80000gn/T//cc7enlx9.s 			page 60


 500:Core/Src/MazeLib.c ****         {
 2122              		.loc 1 500 13 view .LVU636
 500:Core/Src/MazeLib.c ****         {
 2123              		.loc 1 500 17 is_stmt 0 view .LVU637
 2124 00d2 0024     		movs	r4, #0
 500:Core/Src/MazeLib.c ****         {
 2125              		.loc 1 500 9 view .LVU638
 2126 00d4 ABE7     		b	.L130
 2127              	.LVL160:
 2128              	.L149:
 500:Core/Src/MazeLib.c ****         {
 2129              		.loc 1 500 9 view .LVU639
 2130              	.LBE22:
 2131              	.LBE19:
 532:Core/Src/MazeLib.c ****     for(int x=0; x < NUMBER_OF_SQUARES_X; x++)
 2132              		.loc 1 532 5 is_stmt 1 view .LVU640
 2133 00d6 0F48     		ldr	r0, .L151+8
 2134 00d8 FFF7FEFF 		bl	printf
 2135              	.LVL161:
 533:Core/Src/MazeLib.c ****     {
 2136              		.loc 1 533 5 view .LVU641
 2137              	.LBB23:
 533:Core/Src/MazeLib.c ****     {
 2138              		.loc 1 533 9 view .LVU642
 533:Core/Src/MazeLib.c ****     {
 2139              		.loc 1 533 13 is_stmt 0 view .LVU643
 2140 00dc 0024     		movs	r4, #0
 533:Core/Src/MazeLib.c ****     {
 2141              		.loc 1 533 5 view .LVU644
 2142 00de 00E0     		b	.L143
 2143              	.LVL162:
 2144              	.L144:
 533:Core/Src/MazeLib.c ****     {
 2145              		.loc 1 533 43 is_stmt 1 discriminator 2 view .LVU645
 533:Core/Src/MazeLib.c ****     {
 2146              		.loc 1 533 44 is_stmt 0 discriminator 2 view .LVU646
 2147 00e0 0134     		adds	r4, r4, #1
 2148              	.LVL163:
 2149              	.L143:
 533:Core/Src/MazeLib.c ****     {
 2150              		.loc 1 533 18 is_stmt 1 discriminator 1 view .LVU647
 533:Core/Src/MazeLib.c ****     {
 2151              		.loc 1 533 5 is_stmt 0 discriminator 1 view .LVU648
 2152 00e2 0F2C     		cmp	r4, #15
 2153 00e4 0DDC     		bgt	.L150
 535:Core/Src/MazeLib.c ****         if(x < NUMBER_OF_SQUARES_X-1)
 2154              		.loc 1 535 9 is_stmt 1 view .LVU649
 535:Core/Src/MazeLib.c ****         if(x < NUMBER_OF_SQUARES_X-1)
 2155              		.loc 1 535 43 is_stmt 0 view .LVU650
 2156 00e6 04EB0413 		add	r3, r4, r4, lsl #4
 2157 00ea 06EBC303 		add	r3, r6, r3, lsl #3
 535:Core/Src/MazeLib.c ****         if(x < NUMBER_OF_SQUARES_X-1)
 2158              		.loc 1 535 9 view .LVU651
 2159 00ee 5988     		ldrh	r1, [r3, #2]
 2160 00f0 0748     		ldr	r0, .L151+4
 2161 00f2 FFF7FEFF 		bl	printf
 2162              	.LVL164:
ARM GAS  /var/folders/v_/kwz_t0cs68g1q1d733r227b80000gn/T//cc7enlx9.s 			page 61


 536:Core/Src/MazeLib.c ****                 printf("  +  ");
 2163              		.loc 1 536 9 is_stmt 1 view .LVU652
 536:Core/Src/MazeLib.c ****                 printf("  +  ");
 2164              		.loc 1 536 11 is_stmt 0 view .LVU653
 2165 00f6 0E2C     		cmp	r4, #14
 2166 00f8 F2DC     		bgt	.L144
 537:Core/Src/MazeLib.c ****     }
 2167              		.loc 1 537 17 is_stmt 1 view .LVU654
 2168 00fa 0648     		ldr	r0, .L151+8
 2169 00fc FFF7FEFF 		bl	printf
 2170              	.LVL165:
 2171 0100 EEE7     		b	.L144
 2172              	.L150:
 537:Core/Src/MazeLib.c ****     }
 2173              		.loc 1 537 17 is_stmt 0 view .LVU655
 2174              	.LBE23:
 539:Core/Src/MazeLib.c **** 
 2175              		.loc 1 539 5 is_stmt 1 view .LVU656
 2176 0102 0648     		ldr	r0, .L151+16
 2177 0104 FFF7FEFF 		bl	puts
 2178              	.LVL166:
 542:Core/Src/MazeLib.c **** void printSingleNode(maze_node *mn, uint8_t x, uint8_t y)
 2179              		.loc 1 542 1 is_stmt 0 view .LVU657
 2180 0108 F8BD     		pop	{r3, r4, r5, r6, r7, pc}
 2181              	.LVL167:
 2182              	.L152:
 542:Core/Src/MazeLib.c **** void printSingleNode(maze_node *mn, uint8_t x, uint8_t y)
 2183              		.loc 1 542 1 view .LVU658
 2184 010a 00BF     		.align	2
 2185              	.L151:
 2186 010c 00000000 		.word	.LC2
 2187 0110 34000000 		.word	.LC5
 2188 0114 18000000 		.word	.LC3
 2189 0118 20000000 		.word	.LC4
 2190 011c 3C000000 		.word	.LC6
 2191 0120 40000000 		.word	.LC7
 2192              		.cfi_endproc
 2193              	.LFE15:
 2195              		.section	.rodata.printSingleNode.str1.4,"aMS",%progbits,1
 2196              		.align	2
 2197              	.LC8:
 2198 0000 E8A18CE3 		.ascii	"\350\241\214\343\203\216\343\203\274\343\203\211 %d"
 2198      838EE383 
 2198      BCE38389 
 2198      202564
 2199 000f 2C202564 		.ascii	", %d : \345\243\201 %u, \351\207\215\343\201\277 %u"
 2199      203A20E5 
 2199      A3812025 
 2199      752C20E9 
 2199      878DE381 
 2200 0027 2C206472 		.ascii	", draw %u\015\012\000"
 2200      61772025 
 2200      750D0A00 
 2201 0033 00       		.align	2
 2202              	.LC9:
 2203 0034 E58897E3 		.ascii	"\345\210\227\343\203\216\343\203\274\343\203\211 %d"
 2203      838EE383 
ARM GAS  /var/folders/v_/kwz_t0cs68g1q1d733r227b80000gn/T//cc7enlx9.s 			page 62


 2203      BCE38389 
 2203      202564
 2204 0043 2C202564 		.ascii	", %d : \345\243\201 %u, \351\207\215\343\201\277 %u"
 2204      203A20E5 
 2204      A3812025 
 2204      752C20E9 
 2204      878DE381 
 2205 005b 2C206472 		.ascii	", draw %u\015\012\000"
 2205      61772025 
 2205      750D0A00 
 2206              		.section	.text.printSingleNode,"ax",%progbits
 2207              		.align	1
 2208              		.global	printSingleNode
 2209              		.syntax unified
 2210              		.thumb
 2211              		.thumb_func
 2212              		.fpu fpv4-sp-d16
 2214              	printSingleNode:
 2215              	.LVL168:
 2216              	.LFB16:
 544:Core/Src/MazeLib.c ****     printf("è¡Œãƒãƒ¼ãƒ‰ %d, %d : å£ %u, é‡ã¿ %u, draw %u\r\n", x,y, mn->RawNode[x][y].existence
 2217              		.loc 1 544 1 is_stmt 1 view -0
 2218              		.cfi_startproc
 2219              		@ args = 0, pretend = 0, frame = 0
 2220              		@ frame_needed = 0, uses_anonymous_args = 0
 544:Core/Src/MazeLib.c ****     printf("è¡Œãƒãƒ¼ãƒ‰ %d, %d : å£ %u, é‡ã¿ %u, draw %u\r\n", x,y, mn->RawNode[x][y].existence
 2221              		.loc 1 544 1 is_stmt 0 view .LVU660
 2222 0000 F0B5     		push	{r4, r5, r6, r7, lr}
 2223              	.LCFI9:
 2224              		.cfi_def_cfa_offset 20
 2225              		.cfi_offset 4, -20
 2226              		.cfi_offset 5, -16
 2227              		.cfi_offset 6, -12
 2228              		.cfi_offset 7, -8
 2229              		.cfi_offset 14, -4
 2230 0002 83B0     		sub	sp, sp, #12
 2231              	.LCFI10:
 2232              		.cfi_def_cfa_offset 32
 2233 0004 0546     		mov	r5, r0
 2234 0006 0C46     		mov	r4, r1
 2235 0008 1746     		mov	r7, r2
 545:Core/Src/MazeLib.c ****     printf("åˆ—ãƒãƒ¼ãƒ‰ %d, %d : å£ %u, é‡ã¿ %u, draw %u\r\n", x,y, mn->ColumnNode[x][y].existe
 2236              		.loc 1 545 5 is_stmt 1 view .LVU661
 545:Core/Src/MazeLib.c ****     printf("åˆ—ãƒãƒ¼ãƒ‰ %d, %d : å£ %u, é‡ã¿ %u, draw %u\r\n", x,y, mn->ColumnNode[x][y].existe
 2237              		.loc 1 545 90 is_stmt 0 view .LVU662
 2238 000a 0E01     		lsls	r6, r1, #4
 2239 000c 01EB0113 		add	r3, r1, r1, lsl #4
 2240 0010 1344     		add	r3, r3, r2
 545:Core/Src/MazeLib.c ****     printf("åˆ—ãƒãƒ¼ãƒ‰ %d, %d : å£ %u, é‡ã¿ %u, draw %u\r\n", x,y, mn->ColumnNode[x][y].existe
 2241              		.loc 1 545 118 view .LVU663
 2242 0012 00EBC300 		add	r0, r0, r3, lsl #3
 2243              	.LVL169:
 545:Core/Src/MazeLib.c ****     printf("åˆ—ãƒãƒ¼ãƒ‰ %d, %d : å£ %u, é‡ã¿ %u, draw %u\r\n", x,y, mn->ColumnNode[x][y].existe
 2244              		.loc 1 545 118 view .LVU664
 2245 0016 B0F802C0 		ldrh	ip, [r0, #2]
 545:Core/Src/MazeLib.c ****     printf("åˆ—ãƒãƒ¼ãƒ‰ %d, %d : å£ %u, é‡ã¿ %u, draw %u\r\n", x,y, mn->ColumnNode[x][y].existe
 2246              		.loc 1 545 143 view .LVU665
ARM GAS  /var/folders/v_/kwz_t0cs68g1q1d733r227b80000gn/T//cc7enlx9.s 			page 63


 2247 001a 0079     		ldrb	r0, [r0, #4]	@ zero_extendqisi2
 545:Core/Src/MazeLib.c ****     printf("åˆ—ãƒãƒ¼ãƒ‰ %d, %d : å£ %u, é‡ã¿ %u, draw %u\r\n", x,y, mn->ColumnNode[x][y].existe
 2248              		.loc 1 545 5 view .LVU666
 2249 001c 0190     		str	r0, [sp, #4]
 2250 001e CDF800C0 		str	ip, [sp]
 2251 0022 15F83330 		ldrb	r3, [r5, r3, lsl #3]	@ zero_extendqisi2
 2252 0026 0A48     		ldr	r0, .L155
 2253 0028 FFF7FEFF 		bl	printf
 2254              	.LVL170:
 546:Core/Src/MazeLib.c **** }
 2255              		.loc 1 546 5 is_stmt 1 view .LVU667
 546:Core/Src/MazeLib.c **** }
 2256              		.loc 1 546 93 is_stmt 0 view .LVU668
 2257 002c F319     		adds	r3, r6, r7
 2258 002e 03F58873 		add	r3, r3, #272
 546:Core/Src/MazeLib.c **** }
 2259              		.loc 1 546 124 view .LVU669
 2260 0032 05EBC302 		add	r2, r5, r3, lsl #3
 2261 0036 5188     		ldrh	r1, [r2, #2]
 546:Core/Src/MazeLib.c **** }
 2262              		.loc 1 546 152 view .LVU670
 2263 0038 1279     		ldrb	r2, [r2, #4]	@ zero_extendqisi2
 546:Core/Src/MazeLib.c **** }
 2264              		.loc 1 546 5 view .LVU671
 2265 003a 0192     		str	r2, [sp, #4]
 2266 003c 0091     		str	r1, [sp]
 2267 003e 15F83330 		ldrb	r3, [r5, r3, lsl #3]	@ zero_extendqisi2
 2268 0042 3A46     		mov	r2, r7
 2269 0044 2146     		mov	r1, r4
 2270 0046 0348     		ldr	r0, .L155+4
 2271 0048 FFF7FEFF 		bl	printf
 2272              	.LVL171:
 547:Core/Src/MazeLib.c **** 
 2273              		.loc 1 547 1 view .LVU672
 2274 004c 03B0     		add	sp, sp, #12
 2275              	.LCFI11:
 2276              		.cfi_def_cfa_offset 20
 2277              		@ sp needed
 2278 004e F0BD     		pop	{r4, r5, r6, r7, pc}
 2279              	.LVL172:
 2280              	.L156:
 547:Core/Src/MazeLib.c **** 
 2281              		.loc 1 547 1 view .LVU673
 2282              		.align	2
 2283              	.L155:
 2284 0050 00000000 		.word	.LC8
 2285 0054 34000000 		.word	.LC9
 2286              		.cfi_endproc
 2287              	.LFE16:
 2289              		.section	.rodata.printAllNode.str1.4,"aMS",%progbits,1
 2290              		.align	2
 2291              	.LC10:
 2292 0000 E585A8E3 		.ascii	"\345\205\250\343\203\216\343\203\274\343\203\211\015"
 2292      838EE383 
 2292      BCE38389 
 2292      0D
 2293 000d 00       		.ascii	"\000"
ARM GAS  /var/folders/v_/kwz_t0cs68g1q1d733r227b80000gn/T//cc7enlx9.s 			page 64


 2294 000e 0000     		.align	2
 2295              	.LC11:
 2296 0010 25752C00 		.ascii	"%u,\000"
 2297              		.align	2
 2298              	.LC12:
 2299 0014 257500   		.ascii	"%u\000"
 2300              		.section	.text.printAllNode,"ax",%progbits
 2301              		.align	1
 2302              		.global	printAllNode
 2303              		.syntax unified
 2304              		.thumb
 2305              		.thumb_func
 2306              		.fpu fpv4-sp-d16
 2308              	printAllNode:
 2309              	.LVL173:
 2310              	.LFB17:
 550:Core/Src/MazeLib.c ****     printf("å…¨ãƒãƒ¼ãƒ‰\r\n");
 2311              		.loc 1 550 1 is_stmt 1 view -0
 2312              		.cfi_startproc
 2313              		@ args = 0, pretend = 0, frame = 0
 2314              		@ frame_needed = 0, uses_anonymous_args = 0
 550:Core/Src/MazeLib.c ****     printf("å…¨ãƒãƒ¼ãƒ‰\r\n");
 2315              		.loc 1 550 1 is_stmt 0 view .LVU675
 2316 0000 70B5     		push	{r4, r5, r6, lr}
 2317              	.LCFI12:
 2318              		.cfi_def_cfa_offset 16
 2319              		.cfi_offset 4, -16
 2320              		.cfi_offset 5, -12
 2321              		.cfi_offset 6, -8
 2322              		.cfi_offset 14, -4
 2323 0002 0546     		mov	r5, r0
 551:Core/Src/MazeLib.c ****     //é–“é•ã£ã¦ã‚‹ã‹ã‚‚
 2324              		.loc 1 551 5 is_stmt 1 view .LVU676
 2325 0004 1948     		ldr	r0, .L168
 2326              	.LVL174:
 551:Core/Src/MazeLib.c ****     //é–“é•ã£ã¦ã‚‹ã‹ã‚‚
 2327              		.loc 1 551 5 is_stmt 0 view .LVU677
 2328 0006 FFF7FEFF 		bl	puts
 2329              	.LVL175:
 558:Core/Src/MazeLib.c ****     {
 2330              		.loc 1 558 5 is_stmt 1 view .LVU678
 2331              	.LBB24:
 558:Core/Src/MazeLib.c ****     {
 2332              		.loc 1 558 9 view .LVU679
 558:Core/Src/MazeLib.c ****     {
 2333              		.loc 1 558 13 is_stmt 0 view .LVU680
 2334 000a 0024     		movs	r4, #0
 558:Core/Src/MazeLib.c ****     {
 2335              		.loc 1 558 5 view .LVU681
 2336 000c 25E0     		b	.L158
 2337              	.LVL176:
 2338              	.L159:
 2339              	.LBB25:
 562:Core/Src/MazeLib.c ****         }
 2340              		.loc 1 562 13 is_stmt 1 discriminator 3 view .LVU682
 562:Core/Src/MazeLib.c ****         }
 2341              		.loc 1 562 43 is_stmt 0 discriminator 3 view .LVU683
ARM GAS  /var/folders/v_/kwz_t0cs68g1q1d733r227b80000gn/T//cc7enlx9.s 			page 65


 2342 000e 04EB0413 		add	r3, r4, r4, lsl #4
 2343 0012 3344     		add	r3, r3, r6
 2344 0014 05EBC303 		add	r3, r5, r3, lsl #3
 562:Core/Src/MazeLib.c ****         }
 2345              		.loc 1 562 13 discriminator 3 view .LVU684
 2346 0018 1979     		ldrb	r1, [r3, #4]	@ zero_extendqisi2
 2347 001a 1548     		ldr	r0, .L168+4
 2348 001c FFF7FEFF 		bl	printf
 2349              	.LVL177:
 560:Core/Src/MazeLib.c ****         {
 2350              		.loc 1 560 49 is_stmt 1 discriminator 3 view .LVU685
 560:Core/Src/MazeLib.c ****         {
 2351              		.loc 1 560 50 is_stmt 0 discriminator 3 view .LVU686
 2352 0020 0136     		adds	r6, r6, #1
 2353              	.LVL178:
 2354              	.L163:
 560:Core/Src/MazeLib.c ****         {
 2355              		.loc 1 560 22 is_stmt 1 discriminator 1 view .LVU687
 560:Core/Src/MazeLib.c ****         {
 2356              		.loc 1 560 9 is_stmt 0 discriminator 1 view .LVU688
 2357 0022 102E     		cmp	r6, #16
 2358 0024 F3DD     		ble	.L159
 2359              	.LBE25:
 2360              	.LBB26:
 564:Core/Src/MazeLib.c ****         {
 2361              		.loc 1 564 17 view .LVU689
 2362 0026 0026     		movs	r6, #0
 2363              	.LVL179:
 564:Core/Src/MazeLib.c ****         {
 2364              		.loc 1 564 17 view .LVU690
 2365 0028 00E0     		b	.L160
 2366              	.LVL180:
 2367              	.L161:
 564:Core/Src/MazeLib.c ****         {
 2368              		.loc 1 564 47 is_stmt 1 discriminator 2 view .LVU691
 564:Core/Src/MazeLib.c ****         {
 2369              		.loc 1 564 48 is_stmt 0 discriminator 2 view .LVU692
 2370 002a 0136     		adds	r6, r6, #1
 2371              	.LVL181:
 2372              	.L160:
 564:Core/Src/MazeLib.c ****         {
 2373              		.loc 1 564 22 is_stmt 1 discriminator 1 view .LVU693
 564:Core/Src/MazeLib.c ****         {
 2374              		.loc 1 564 9 is_stmt 0 discriminator 1 view .LVU694
 2375 002c 0F2E     		cmp	r6, #15
 2376 002e 10DC     		bgt	.L166
 566:Core/Src/MazeLib.c ****             if(j < NUMBER_OF_SQUARES_Y-1)
 2377              		.loc 1 566 13 is_stmt 1 view .LVU695
 566:Core/Src/MazeLib.c ****             if(j < NUMBER_OF_SQUARES_Y-1)
 2378              		.loc 1 566 41 is_stmt 0 view .LVU696
 2379 0030 631C     		adds	r3, r4, #1
 566:Core/Src/MazeLib.c ****             if(j < NUMBER_OF_SQUARES_Y-1)
 2380              		.loc 1 566 47 view .LVU697
 2381 0032 06EB0313 		add	r3, r6, r3, lsl #4
 2382 0036 03F58873 		add	r3, r3, #272
 2383 003a 05EBC303 		add	r3, r5, r3, lsl #3
 566:Core/Src/MazeLib.c ****             if(j < NUMBER_OF_SQUARES_Y-1)
ARM GAS  /var/folders/v_/kwz_t0cs68g1q1d733r227b80000gn/T//cc7enlx9.s 			page 66


 2384              		.loc 1 566 13 view .LVU698
 2385 003e 1979     		ldrb	r1, [r3, #4]	@ zero_extendqisi2
 2386 0040 0C48     		ldr	r0, .L168+8
 2387 0042 FFF7FEFF 		bl	printf
 2388              	.LVL182:
 567:Core/Src/MazeLib.c ****                 printf(",");
 2389              		.loc 1 567 13 is_stmt 1 view .LVU699
 567:Core/Src/MazeLib.c ****                 printf(",");
 2390              		.loc 1 567 15 is_stmt 0 view .LVU700
 2391 0046 0E2E     		cmp	r6, #14
 2392 0048 EFDC     		bgt	.L161
 568:Core/Src/MazeLib.c ****         }
 2393              		.loc 1 568 17 is_stmt 1 view .LVU701
 2394 004a 2C20     		movs	r0, #44
 2395 004c FFF7FEFF 		bl	putchar
 2396              	.LVL183:
 2397 0050 EBE7     		b	.L161
 2398              	.L166:
 568:Core/Src/MazeLib.c ****         }
 2399              		.loc 1 568 17 is_stmt 0 view .LVU702
 2400              	.LBE26:
 570:Core/Src/MazeLib.c ****     }
 2401              		.loc 1 570 9 is_stmt 1 discriminator 2 view .LVU703
 2402 0052 0948     		ldr	r0, .L168+12
 2403 0054 FFF7FEFF 		bl	puts
 2404              	.LVL184:
 558:Core/Src/MazeLib.c ****     {
 2405              		.loc 1 558 43 discriminator 2 view .LVU704
 558:Core/Src/MazeLib.c ****     {
 2406              		.loc 1 558 44 is_stmt 0 discriminator 2 view .LVU705
 2407 0058 0134     		adds	r4, r4, #1
 2408              	.LVL185:
 2409              	.L158:
 558:Core/Src/MazeLib.c ****     {
 2410              		.loc 1 558 18 is_stmt 1 discriminator 1 view .LVU706
 558:Core/Src/MazeLib.c ****     {
 2411              		.loc 1 558 5 is_stmt 0 discriminator 1 view .LVU707
 2412 005a 0F2C     		cmp	r4, #15
 2413 005c 01DC     		bgt	.L167
 2414              	.LBB27:
 560:Core/Src/MazeLib.c ****         {
 2415              		.loc 1 560 17 view .LVU708
 2416 005e 0126     		movs	r6, #1
 2417 0060 DFE7     		b	.L163
 2418              	.L167:
 2419              	.LBE27:
 2420              	.LBE24:
 572:Core/Src/MazeLib.c **** }
 2421              		.loc 1 572 5 is_stmt 1 view .LVU709
 2422 0062 0548     		ldr	r0, .L168+12
 2423 0064 FFF7FEFF 		bl	puts
 2424              	.LVL186:
 573:Core/Src/MazeLib.c **** void printAllNodeExistence(maze_node *mn)
 2425              		.loc 1 573 1 is_stmt 0 view .LVU710
 2426 0068 70BD     		pop	{r4, r5, r6, pc}
 2427              	.LVL187:
 2428              	.L169:
ARM GAS  /var/folders/v_/kwz_t0cs68g1q1d733r227b80000gn/T//cc7enlx9.s 			page 67


 573:Core/Src/MazeLib.c **** void printAllNodeExistence(maze_node *mn)
 2429              		.loc 1 573 1 view .LVU711
 2430 006a 00BF     		.align	2
 2431              	.L168:
 2432 006c 00000000 		.word	.LC10
 2433 0070 10000000 		.word	.LC11
 2434 0074 14000000 		.word	.LC12
 2435 0078 3C000000 		.word	.LC6
 2436              		.cfi_endproc
 2437              	.LFE17:
 2439              		.section	.rodata.printAllNodeExistence.str1.4,"aMS",%progbits,1
 2440              		.align	2
 2441              	.LC13:
 2442 0000 E585A8E3 		.ascii	"\345\205\250\343\203\216\343\203\274\343\203\211\343"
 2442      838EE383 
 2442      BCE38389 
 2442      E3
 2443 000d 81AEE5A3 		.ascii	"\201\256\345\243\201\343\201\256\345\255\230\345\234"
 2443      81E381AE 
 2443      E5AD98E5 
 2443      9C
 2444 001a A80D00   		.ascii	"\250\015\000"
 2445              		.section	.text.printAllNodeExistence,"ax",%progbits
 2446              		.align	1
 2447              		.global	printAllNodeExistence
 2448              		.syntax unified
 2449              		.thumb
 2450              		.thumb_func
 2451              		.fpu fpv4-sp-d16
 2453              	printAllNodeExistence:
 2454              	.LVL188:
 2455              	.LFB18:
 575:Core/Src/MazeLib.c ****     printf("å…¨ãƒãƒ¼ãƒ‰ã®å£ã®å­˜åœ¨\r\n");
 2456              		.loc 1 575 1 is_stmt 1 view -0
 2457              		.cfi_startproc
 2458              		@ args = 0, pretend = 0, frame = 0
 2459              		@ frame_needed = 0, uses_anonymous_args = 0
 575:Core/Src/MazeLib.c ****     printf("å…¨ãƒãƒ¼ãƒ‰ã®å£ã®å­˜åœ¨\r\n");
 2460              		.loc 1 575 1 is_stmt 0 view .LVU713
 2461 0000 70B5     		push	{r4, r5, r6, lr}
 2462              	.LCFI13:
 2463              		.cfi_def_cfa_offset 16
 2464              		.cfi_offset 4, -16
 2465              		.cfi_offset 5, -12
 2466              		.cfi_offset 6, -8
 2467              		.cfi_offset 14, -4
 2468 0002 0646     		mov	r6, r0
 576:Core/Src/MazeLib.c ****     //é–“é•ã£ã¦ã‚‹ã‹ã‚‚
 2469              		.loc 1 576 5 is_stmt 1 view .LVU714
 2470 0004 1848     		ldr	r0, .L181
 2471              	.LVL189:
 576:Core/Src/MazeLib.c ****     //é–“é•ã£ã¦ã‚‹ã‹ã‚‚
 2472              		.loc 1 576 5 is_stmt 0 view .LVU715
 2473 0006 FFF7FEFF 		bl	puts
 2474              	.LVL190:
 583:Core/Src/MazeLib.c ****     {
 2475              		.loc 1 583 5 is_stmt 1 view .LVU716
ARM GAS  /var/folders/v_/kwz_t0cs68g1q1d733r227b80000gn/T//cc7enlx9.s 			page 68


 2476              	.LBB28:
 583:Core/Src/MazeLib.c ****     {
 2477              		.loc 1 583 9 view .LVU717
 583:Core/Src/MazeLib.c ****     {
 2478              		.loc 1 583 13 is_stmt 0 view .LVU718
 2479 000a 0025     		movs	r5, #0
 583:Core/Src/MazeLib.c ****     {
 2480              		.loc 1 583 5 view .LVU719
 2481 000c 23E0     		b	.L171
 2482              	.LVL191:
 2483              	.L172:
 2484              	.LBB29:
 587:Core/Src/MazeLib.c ****         }
 2485              		.loc 1 587 13 is_stmt 1 discriminator 3 view .LVU720
 587:Core/Src/MazeLib.c ****         }
 2486              		.loc 1 587 43 is_stmt 0 discriminator 3 view .LVU721
 2487 000e 05EB0513 		add	r3, r5, r5, lsl #4
 2488 0012 2344     		add	r3, r3, r4
 587:Core/Src/MazeLib.c ****         }
 2489              		.loc 1 587 13 discriminator 3 view .LVU722
 2490 0014 16F83310 		ldrb	r1, [r6, r3, lsl #3]	@ zero_extendqisi2
 2491 0018 1448     		ldr	r0, .L181+4
 2492 001a FFF7FEFF 		bl	printf
 2493              	.LVL192:
 585:Core/Src/MazeLib.c ****         {
 2494              		.loc 1 585 49 is_stmt 1 discriminator 3 view .LVU723
 585:Core/Src/MazeLib.c ****         {
 2495              		.loc 1 585 50 is_stmt 0 discriminator 3 view .LVU724
 2496 001e 0134     		adds	r4, r4, #1
 2497              	.LVL193:
 2498              	.L176:
 585:Core/Src/MazeLib.c ****         {
 2499              		.loc 1 585 22 is_stmt 1 discriminator 1 view .LVU725
 585:Core/Src/MazeLib.c ****         {
 2500              		.loc 1 585 9 is_stmt 0 discriminator 1 view .LVU726
 2501 0020 102C     		cmp	r4, #16
 2502 0022 F4DD     		ble	.L172
 2503              	.LBE29:
 2504              	.LBB30:
 589:Core/Src/MazeLib.c ****         {
 2505              		.loc 1 589 17 view .LVU727
 2506 0024 0024     		movs	r4, #0
 2507              	.LVL194:
 589:Core/Src/MazeLib.c ****         {
 2508              		.loc 1 589 17 view .LVU728
 2509 0026 00E0     		b	.L173
 2510              	.LVL195:
 2511              	.L174:
 589:Core/Src/MazeLib.c ****         {
 2512              		.loc 1 589 47 is_stmt 1 discriminator 2 view .LVU729
 589:Core/Src/MazeLib.c ****         {
 2513              		.loc 1 589 48 is_stmt 0 discriminator 2 view .LVU730
 2514 0028 0134     		adds	r4, r4, #1
 2515              	.LVL196:
 2516              	.L173:
 589:Core/Src/MazeLib.c ****         {
 2517              		.loc 1 589 22 is_stmt 1 discriminator 1 view .LVU731
ARM GAS  /var/folders/v_/kwz_t0cs68g1q1d733r227b80000gn/T//cc7enlx9.s 			page 69


 589:Core/Src/MazeLib.c ****         {
 2518              		.loc 1 589 9 is_stmt 0 discriminator 1 view .LVU732
 2519 002a 0F2C     		cmp	r4, #15
 2520 002c 0FDC     		bgt	.L179
 591:Core/Src/MazeLib.c ****             if(j < NUMBER_OF_SQUARES_Y-1)
 2521              		.loc 1 591 13 is_stmt 1 view .LVU733
 591:Core/Src/MazeLib.c ****             if(j < NUMBER_OF_SQUARES_Y-1)
 2522              		.loc 1 591 41 is_stmt 0 view .LVU734
 2523 002e 6B1C     		adds	r3, r5, #1
 591:Core/Src/MazeLib.c ****             if(j < NUMBER_OF_SQUARES_Y-1)
 2524              		.loc 1 591 47 view .LVU735
 2525 0030 04EB0313 		add	r3, r4, r3, lsl #4
 2526 0034 03F58873 		add	r3, r3, #272
 591:Core/Src/MazeLib.c ****             if(j < NUMBER_OF_SQUARES_Y-1)
 2527              		.loc 1 591 13 view .LVU736
 2528 0038 16F83310 		ldrb	r1, [r6, r3, lsl #3]	@ zero_extendqisi2
 2529 003c 0C48     		ldr	r0, .L181+8
 2530 003e FFF7FEFF 		bl	printf
 2531              	.LVL197:
 592:Core/Src/MazeLib.c ****                 printf(",");
 2532              		.loc 1 592 13 is_stmt 1 view .LVU737
 592:Core/Src/MazeLib.c ****                 printf(",");
 2533              		.loc 1 592 15 is_stmt 0 view .LVU738
 2534 0042 0E2C     		cmp	r4, #14
 2535 0044 F0DC     		bgt	.L174
 593:Core/Src/MazeLib.c ****         }
 2536              		.loc 1 593 17 is_stmt 1 view .LVU739
 2537 0046 2C20     		movs	r0, #44
 2538 0048 FFF7FEFF 		bl	putchar
 2539              	.LVL198:
 2540 004c ECE7     		b	.L174
 2541              	.L179:
 593:Core/Src/MazeLib.c ****         }
 2542              		.loc 1 593 17 is_stmt 0 view .LVU740
 2543              	.LBE30:
 595:Core/Src/MazeLib.c ****     }
 2544              		.loc 1 595 9 is_stmt 1 discriminator 2 view .LVU741
 2545 004e 0948     		ldr	r0, .L181+12
 2546 0050 FFF7FEFF 		bl	puts
 2547              	.LVL199:
 583:Core/Src/MazeLib.c ****     {
 2548              		.loc 1 583 43 discriminator 2 view .LVU742
 583:Core/Src/MazeLib.c ****     {
 2549              		.loc 1 583 44 is_stmt 0 discriminator 2 view .LVU743
 2550 0054 0135     		adds	r5, r5, #1
 2551              	.LVL200:
 2552              	.L171:
 583:Core/Src/MazeLib.c ****     {
 2553              		.loc 1 583 18 is_stmt 1 discriminator 1 view .LVU744
 583:Core/Src/MazeLib.c ****     {
 2554              		.loc 1 583 5 is_stmt 0 discriminator 1 view .LVU745
 2555 0056 0F2D     		cmp	r5, #15
 2556 0058 01DC     		bgt	.L180
 2557              	.LBB31:
 585:Core/Src/MazeLib.c ****         {
 2558              		.loc 1 585 17 view .LVU746
 2559 005a 0124     		movs	r4, #1
ARM GAS  /var/folders/v_/kwz_t0cs68g1q1d733r227b80000gn/T//cc7enlx9.s 			page 70


 2560 005c E0E7     		b	.L176
 2561              	.L180:
 2562              	.LBE31:
 2563              	.LBE28:
 597:Core/Src/MazeLib.c **** }
 2564              		.loc 1 597 5 is_stmt 1 view .LVU747
 2565 005e 0548     		ldr	r0, .L181+12
 2566 0060 FFF7FEFF 		bl	puts
 2567              	.LVL201:
 598:Core/Src/MazeLib.c **** 
 2568              		.loc 1 598 1 is_stmt 0 view .LVU748
 2569 0064 70BD     		pop	{r4, r5, r6, pc}
 2570              	.LVL202:
 2571              	.L182:
 598:Core/Src/MazeLib.c **** 
 2572              		.loc 1 598 1 view .LVU749
 2573 0066 00BF     		.align	2
 2574              	.L181:
 2575 0068 00000000 		.word	.LC13
 2576 006c 10000000 		.word	.LC11
 2577 0070 14000000 		.word	.LC12
 2578 0074 3C000000 		.word	.LC6
 2579              		.cfi_endproc
 2580              	.LFE18:
 2582              		.section	.rodata.outputDataToFile.str1.4,"aMS",%progbits,1
 2583              		.align	2
 2584              	.LC15:
 2585 0000 7700     		.ascii	"w\000"
 2586 0002 0000     		.align	2
 2587              	.LC16:
 2588 0004 25732066 		.ascii	"%s file not open!\012\000"
 2588      696C6520 
 2588      6E6F7420 
 2588      6F70656E 
 2588      210A00
 2589 0017 00       		.align	2
 2590              	.LC17:
 2591 0018 25732066 		.ascii	"%s file opened!\012\000"
 2591      696C6520 
 2591      6F70656E 
 2591      6564210A 
 2591      00
 2592 0029 000000   		.align	2
 2593              	.LC18:
 2594 002c 20474747 		.ascii	" GGG \000"
 2594      2000
 2595 0032 0000     		.align	2
 2596              	.LC19:
 2597 0034 0D0A00   		.ascii	"\015\012\000"
 2598 0037 00       		.align	2
 2599              	.LC14:
 2600 0038 77656967 		.ascii	"weight.txt\000"
 2600      68742E74 
 2600      787400
 2601              		.section	.text.outputDataToFile,"ax",%progbits
 2602              		.align	1
 2603              		.global	outputDataToFile
ARM GAS  /var/folders/v_/kwz_t0cs68g1q1d733r227b80000gn/T//cc7enlx9.s 			page 71


 2604              		.syntax unified
 2605              		.thumb
 2606              		.thumb_func
 2607              		.fpu fpv4-sp-d16
 2609              	outputDataToFile:
 2610              	.LVL203:
 2611              	.LFB19:
 601:Core/Src/MazeLib.c ****     char weight_file[] = "weight.txt";
 2612              		.loc 1 601 1 is_stmt 1 view -0
 2613              		.cfi_startproc
 2614              		@ args = 0, pretend = 0, frame = 16
 2615              		@ frame_needed = 0, uses_anonymous_args = 0
 601:Core/Src/MazeLib.c ****     char weight_file[] = "weight.txt";
 2616              		.loc 1 601 1 is_stmt 0 view .LVU751
 2617 0000 F0B5     		push	{r4, r5, r6, r7, lr}
 2618              	.LCFI14:
 2619              		.cfi_def_cfa_offset 20
 2620              		.cfi_offset 4, -20
 2621              		.cfi_offset 5, -16
 2622              		.cfi_offset 6, -12
 2623              		.cfi_offset 7, -8
 2624              		.cfi_offset 14, -4
 2625 0002 85B0     		sub	sp, sp, #20
 2626              	.LCFI15:
 2627              		.cfi_def_cfa_offset 40
 2628 0004 0746     		mov	r7, r0
 602:Core/Src/MazeLib.c ****     FILE*fp;
 2629              		.loc 1 602 5 is_stmt 1 view .LVU752
 602:Core/Src/MazeLib.c ****     FILE*fp;
 2630              		.loc 1 602 10 is_stmt 0 view .LVU753
 2631 0006 524A     		ldr	r2, .L207
 2632 0008 01AB     		add	r3, sp, #4
 2633 000a 07CA     		ldm	r2, {r0, r1, r2}
 2634              	.LVL204:
 602:Core/Src/MazeLib.c ****     FILE*fp;
 2635              		.loc 1 602 10 view .LVU754
 2636 000c 03C3     		stmia	r3!, {r0, r1}
 2637 000e 23F8022B 		strh	r2, [r3], #2	@ movhi
 2638 0012 120C     		lsrs	r2, r2, #16
 2639 0014 1A70     		strb	r2, [r3]
 603:Core/Src/MazeLib.c ****     fp = fopen(weight_file,"w");
 2640              		.loc 1 603 5 is_stmt 1 view .LVU755
 604:Core/Src/MazeLib.c ****     if(fp == NULL) {
 2641              		.loc 1 604 5 view .LVU756
 604:Core/Src/MazeLib.c ****     if(fp == NULL) {
 2642              		.loc 1 604 10 is_stmt 0 view .LVU757
 2643 0016 4F49     		ldr	r1, .L207+4
 2644 0018 01A8     		add	r0, sp, #4
 2645 001a FFF7FEFF 		bl	fopen
 2646              	.LVL205:
 605:Core/Src/MazeLib.c **** 		printf("%s file not open!\n", weight_file);
 2647              		.loc 1 605 5 is_stmt 1 view .LVU758
 605:Core/Src/MazeLib.c **** 		printf("%s file not open!\n", weight_file);
 2648              		.loc 1 605 7 is_stmt 0 view .LVU759
 2649 001e 30B1     		cbz	r0, .L202
 2650 0020 0546     		mov	r5, r0
 609:Core/Src/MazeLib.c **** 	}
ARM GAS  /var/folders/v_/kwz_t0cs68g1q1d733r227b80000gn/T//cc7enlx9.s 			page 72


 2651              		.loc 1 609 3 is_stmt 1 view .LVU760
 2652 0022 01A9     		add	r1, sp, #4
 2653 0024 4C48     		ldr	r0, .L207+8
 2654              	.LVL206:
 609:Core/Src/MazeLib.c **** 	}
 2655              		.loc 1 609 3 is_stmt 0 view .LVU761
 2656 0026 FFF7FEFF 		bl	printf
 2657              	.LVL207:
 612:Core/Src/MazeLib.c ****     {
 2658              		.loc 1 612 5 is_stmt 1 view .LVU762
 2659              	.LBB32:
 612:Core/Src/MazeLib.c ****     {
 2660              		.loc 1 612 9 view .LVU763
 612:Core/Src/MazeLib.c ****     {
 2661              		.loc 1 612 13 is_stmt 0 view .LVU764
 2662 002a 1026     		movs	r6, #16
 612:Core/Src/MazeLib.c ****     {
 2663              		.loc 1 612 5 view .LVU765
 2664 002c 5DE0     		b	.L186
 2665              	.LVL208:
 2666              	.L202:
 612:Core/Src/MazeLib.c ****     {
 2667              		.loc 1 612 5 view .LVU766
 2668              	.LBE32:
 606:Core/Src/MazeLib.c **** 		return false;
 2669              		.loc 1 606 3 is_stmt 1 view .LVU767
 2670 002e 01A9     		add	r1, sp, #4
 2671 0030 4A48     		ldr	r0, .L207+12
 2672              	.LVL209:
 606:Core/Src/MazeLib.c **** 		return false;
 2673              		.loc 1 606 3 is_stmt 0 view .LVU768
 2674 0032 FFF7FEFF 		bl	printf
 2675              	.LVL210:
 607:Core/Src/MazeLib.c **** 	} else {
 2676              		.loc 1 607 3 is_stmt 1 view .LVU769
 607:Core/Src/MazeLib.c **** 	} else {
 2677              		.loc 1 607 10 is_stmt 0 view .LVU770
 2678 0036 0020     		movs	r0, #0
 2679 0038 88E0     		b	.L185
 2680              	.LVL211:
 2681              	.L188:
 2682              	.LBB36:
 2683              	.LBB33:
 624:Core/Src/MazeLib.c ****             }
 2684              		.loc 1 624 17 is_stmt 1 view .LVU771
 624:Core/Src/MazeLib.c ****             }
 2685              		.loc 1 624 55 is_stmt 0 view .LVU772
 2686 003a 04EB0413 		add	r3, r4, r4, lsl #4
 2687 003e 3344     		add	r3, r3, r6
 2688 0040 07EBC303 		add	r3, r7, r3, lsl #3
 624:Core/Src/MazeLib.c ****             }
 2689              		.loc 1 624 17 view .LVU773
 2690 0044 5A88     		ldrh	r2, [r3, #2]
 2691 0046 4649     		ldr	r1, .L207+16
 2692 0048 2846     		mov	r0, r5
 2693 004a FFF7FEFF 		bl	fprintf
 2694              	.LVL212:
ARM GAS  /var/folders/v_/kwz_t0cs68g1q1d733r227b80000gn/T//cc7enlx9.s 			page 73


 2695              	.L189:
 626:Core/Src/MazeLib.c ****                 fprintf(fp,"     ");
 2696              		.loc 1 626 13 is_stmt 1 view .LVU774
 626:Core/Src/MazeLib.c ****                 fprintf(fp,"     ");
 2697              		.loc 1 626 15 is_stmt 0 view .LVU775
 2698 004e 0E2C     		cmp	r4, #14
 2699 0050 05DC     		bgt	.L190
 627:Core/Src/MazeLib.c ****         }
 2700              		.loc 1 627 17 is_stmt 1 view .LVU776
 2701 0052 2B46     		mov	r3, r5
 2702 0054 0522     		movs	r2, #5
 2703 0056 0121     		movs	r1, #1
 2704 0058 4248     		ldr	r0, .L207+20
 2705 005a FFF7FEFF 		bl	fwrite
 2706              	.LVL213:
 2707              	.L190:
 616:Core/Src/MazeLib.c ****         {
 2708              		.loc 1 616 47 discriminator 2 view .LVU777
 616:Core/Src/MazeLib.c ****         {
 2709              		.loc 1 616 48 is_stmt 0 discriminator 2 view .LVU778
 2710 005e 0134     		adds	r4, r4, #1
 2711              	.LVL214:
 2712              	.L187:
 616:Core/Src/MazeLib.c ****         {
 2713              		.loc 1 616 22 is_stmt 1 discriminator 1 view .LVU779
 616:Core/Src/MazeLib.c ****         {
 2714              		.loc 1 616 9 is_stmt 0 discriminator 1 view .LVU780
 2715 0060 0F2C     		cmp	r4, #15
 2716 0062 0DDC     		bgt	.L203
 618:Core/Src/MazeLib.c ****             {
 2717              		.loc 1 618 13 is_stmt 1 view .LVU781
 618:Core/Src/MazeLib.c ****             {
 2718              		.loc 1 618 16 is_stmt 0 view .LVU782
 2719 0064 F2B2     		uxtb	r2, r6
 2720 0066 E1B2     		uxtb	r1, r4
 2721 0068 3846     		mov	r0, r7
 2722 006a FFF7FEFF 		bl	judgeRawNodeGoal
 2723              	.LVL215:
 618:Core/Src/MazeLib.c ****             {
 2724              		.loc 1 618 15 view .LVU783
 2725 006e 0028     		cmp	r0, #0
 2726 0070 E3D0     		beq	.L188
 620:Core/Src/MazeLib.c ****             }
 2727              		.loc 1 620 17 is_stmt 1 view .LVU784
 2728 0072 2B46     		mov	r3, r5
 2729 0074 0522     		movs	r2, #5
 2730 0076 0121     		movs	r1, #1
 2731 0078 3B48     		ldr	r0, .L207+24
 2732 007a FFF7FEFF 		bl	fwrite
 2733              	.LVL216:
 2734 007e E6E7     		b	.L189
 2735              	.L203:
 620:Core/Src/MazeLib.c ****             }
 2736              		.loc 1 620 17 is_stmt 0 view .LVU785
 2737              	.LBE33:
 629:Core/Src/MazeLib.c ****                 
 2738              		.loc 1 629 9 is_stmt 1 view .LVU786
ARM GAS  /var/folders/v_/kwz_t0cs68g1q1d733r227b80000gn/T//cc7enlx9.s 			page 74


 2739 0080 2B46     		mov	r3, r5
 2740 0082 0222     		movs	r2, #2
 2741 0084 0121     		movs	r1, #1
 2742 0086 3948     		ldr	r0, .L207+28
 2743 0088 FFF7FEFF 		bl	fwrite
 2744              	.LVL217:
 632:Core/Src/MazeLib.c ****         {
 2745              		.loc 1 632 9 view .LVU787
 2746              	.LBB34:
 632:Core/Src/MazeLib.c ****         {
 2747              		.loc 1 632 13 view .LVU788
 632:Core/Src/MazeLib.c ****         {
 2748              		.loc 1 632 17 is_stmt 0 view .LVU789
 2749 008c 0024     		movs	r4, #0
 2750              	.LVL218:
 632:Core/Src/MazeLib.c ****         {
 2751              		.loc 1 632 9 view .LVU790
 2752 008e 14E0     		b	.L192
 2753              	.LVL219:
 2754              	.L193:
 640:Core/Src/MazeLib.c ****             }
 2755              		.loc 1 640 17 is_stmt 1 view .LVU791
 640:Core/Src/MazeLib.c ****             }
 2756              		.loc 1 640 57 is_stmt 0 view .LVU792
 2757 0090 731E     		subs	r3, r6, #1
 640:Core/Src/MazeLib.c ****             }
 2758              		.loc 1 640 60 view .LVU793
 2759 0092 03EB0413 		add	r3, r3, r4, lsl #4
 2760 0096 03F58873 		add	r3, r3, #272
 2761 009a 07EBC303 		add	r3, r7, r3, lsl #3
 640:Core/Src/MazeLib.c ****             }
 2762              		.loc 1 640 17 view .LVU794
 2763 009e 5A88     		ldrh	r2, [r3, #2]
 2764 00a0 2F49     		ldr	r1, .L207+16
 2765 00a2 2846     		mov	r0, r5
 2766 00a4 FFF7FEFF 		bl	fprintf
 2767              	.LVL220:
 2768              	.L194:
 642:Core/Src/MazeLib.c ****                 fprintf(fp,"     ");
 2769              		.loc 1 642 13 is_stmt 1 view .LVU795
 642:Core/Src/MazeLib.c ****                 fprintf(fp,"     ");
 2770              		.loc 1 642 15 is_stmt 0 view .LVU796
 2771 00a8 0F2C     		cmp	r4, #15
 2772 00aa 05DC     		bgt	.L195
 643:Core/Src/MazeLib.c ****         }
 2773              		.loc 1 643 17 is_stmt 1 view .LVU797
 2774 00ac 2B46     		mov	r3, r5
 2775 00ae 0522     		movs	r2, #5
 2776 00b0 0121     		movs	r1, #1
 2777 00b2 2C48     		ldr	r0, .L207+20
 2778 00b4 FFF7FEFF 		bl	fwrite
 2779              	.LVL221:
 2780              	.L195:
 632:Core/Src/MazeLib.c ****         {
 2781              		.loc 1 632 49 discriminator 2 view .LVU798
 632:Core/Src/MazeLib.c ****         {
 2782              		.loc 1 632 50 is_stmt 0 discriminator 2 view .LVU799
ARM GAS  /var/folders/v_/kwz_t0cs68g1q1d733r227b80000gn/T//cc7enlx9.s 			page 75


 2783 00b8 0134     		adds	r4, r4, #1
 2784              	.LVL222:
 2785              	.L192:
 632:Core/Src/MazeLib.c ****         {
 2786              		.loc 1 632 22 is_stmt 1 discriminator 1 view .LVU800
 632:Core/Src/MazeLib.c ****         {
 2787              		.loc 1 632 9 is_stmt 0 discriminator 1 view .LVU801
 2788 00ba 102C     		cmp	r4, #16
 2789 00bc 0EDC     		bgt	.L204
 634:Core/Src/MazeLib.c ****             {
 2790              		.loc 1 634 13 is_stmt 1 view .LVU802
 634:Core/Src/MazeLib.c ****             {
 2791              		.loc 1 634 16 is_stmt 0 view .LVU803
 2792 00be 721E     		subs	r2, r6, #1
 2793 00c0 D2B2     		uxtb	r2, r2
 2794 00c2 E1B2     		uxtb	r1, r4
 2795 00c4 3846     		mov	r0, r7
 2796 00c6 FFF7FEFF 		bl	judgeColumnNodeGoal
 2797              	.LVL223:
 634:Core/Src/MazeLib.c ****             {
 2798              		.loc 1 634 15 view .LVU804
 2799 00ca 0028     		cmp	r0, #0
 2800 00cc E0D0     		beq	.L193
 636:Core/Src/MazeLib.c ****             }
 2801              		.loc 1 636 17 is_stmt 1 view .LVU805
 2802 00ce 2B46     		mov	r3, r5
 2803 00d0 0522     		movs	r2, #5
 2804 00d2 0121     		movs	r1, #1
 2805 00d4 2448     		ldr	r0, .L207+24
 2806 00d6 FFF7FEFF 		bl	fwrite
 2807              	.LVL224:
 2808 00da E5E7     		b	.L194
 2809              	.L204:
 636:Core/Src/MazeLib.c ****             }
 2810              		.loc 1 636 17 is_stmt 0 view .LVU806
 2811              	.LBE34:
 645:Core/Src/MazeLib.c ****     }
 2812              		.loc 1 645 9 is_stmt 1 discriminator 2 view .LVU807
 2813 00dc 2B46     		mov	r3, r5
 2814 00de 0222     		movs	r2, #2
 2815 00e0 0121     		movs	r1, #1
 2816 00e2 2248     		ldr	r0, .L207+28
 2817 00e4 FFF7FEFF 		bl	fwrite
 2818              	.LVL225:
 612:Core/Src/MazeLib.c ****     {
 2819              		.loc 1 612 43 discriminator 2 view .LVU808
 612:Core/Src/MazeLib.c ****     {
 2820              		.loc 1 612 44 is_stmt 0 discriminator 2 view .LVU809
 2821 00e8 013E     		subs	r6, r6, #1
 2822              	.LVL226:
 2823              	.L186:
 612:Core/Src/MazeLib.c ****     {
 2824              		.loc 1 612 36 is_stmt 1 discriminator 1 view .LVU810
 612:Core/Src/MazeLib.c ****     {
 2825              		.loc 1 612 5 is_stmt 0 discriminator 1 view .LVU811
 2826 00ea 002E     		cmp	r6, #0
 2827 00ec 07DD     		ble	.L205
ARM GAS  /var/folders/v_/kwz_t0cs68g1q1d733r227b80000gn/T//cc7enlx9.s 			page 76


 615:Core/Src/MazeLib.c ****         for(int x=0; x < NUMBER_OF_SQUARES_X; x++)
 2828              		.loc 1 615 9 is_stmt 1 view .LVU812
 2829 00ee 2B46     		mov	r3, r5
 2830 00f0 0522     		movs	r2, #5
 2831 00f2 0121     		movs	r1, #1
 2832 00f4 1B48     		ldr	r0, .L207+20
 2833 00f6 FFF7FEFF 		bl	fwrite
 2834              	.LVL227:
 616:Core/Src/MazeLib.c ****         {
 2835              		.loc 1 616 9 view .LVU813
 2836              	.LBB35:
 616:Core/Src/MazeLib.c ****         {
 2837              		.loc 1 616 13 view .LVU814
 616:Core/Src/MazeLib.c ****         {
 2838              		.loc 1 616 17 is_stmt 0 view .LVU815
 2839 00fa 0024     		movs	r4, #0
 616:Core/Src/MazeLib.c ****         {
 2840              		.loc 1 616 9 view .LVU816
 2841 00fc B0E7     		b	.L187
 2842              	.LVL228:
 2843              	.L205:
 616:Core/Src/MazeLib.c ****         {
 2844              		.loc 1 616 9 view .LVU817
 2845              	.LBE35:
 2846              	.LBE36:
 648:Core/Src/MazeLib.c ****     for(int x=0; x < NUMBER_OF_SQUARES_X; x++)
 2847              		.loc 1 648 5 is_stmt 1 view .LVU818
 2848 00fe 2B46     		mov	r3, r5
 2849 0100 0522     		movs	r2, #5
 2850 0102 0121     		movs	r1, #1
 2851 0104 1748     		ldr	r0, .L207+20
 2852 0106 FFF7FEFF 		bl	fwrite
 2853              	.LVL229:
 649:Core/Src/MazeLib.c ****     {
 2854              		.loc 1 649 5 view .LVU819
 2855              	.LBB37:
 649:Core/Src/MazeLib.c ****     {
 2856              		.loc 1 649 9 view .LVU820
 649:Core/Src/MazeLib.c ****     {
 2857              		.loc 1 649 13 is_stmt 0 view .LVU821
 2858 010a 0024     		movs	r4, #0
 649:Core/Src/MazeLib.c ****     {
 2859              		.loc 1 649 5 view .LVU822
 2860 010c 00E0     		b	.L198
 2861              	.LVL230:
 2862              	.L199:
 649:Core/Src/MazeLib.c ****     {
 2863              		.loc 1 649 43 is_stmt 1 discriminator 2 view .LVU823
 649:Core/Src/MazeLib.c ****     {
 2864              		.loc 1 649 44 is_stmt 0 discriminator 2 view .LVU824
 2865 010e 0134     		adds	r4, r4, #1
 2866              	.LVL231:
 2867              	.L198:
 649:Core/Src/MazeLib.c ****     {
 2868              		.loc 1 649 18 is_stmt 1 discriminator 1 view .LVU825
 649:Core/Src/MazeLib.c ****     {
 2869              		.loc 1 649 5 is_stmt 0 discriminator 1 view .LVU826
ARM GAS  /var/folders/v_/kwz_t0cs68g1q1d733r227b80000gn/T//cc7enlx9.s 			page 77


 2870 0110 0F2C     		cmp	r4, #15
 2871 0112 11DC     		bgt	.L206
 651:Core/Src/MazeLib.c ****         if(x < NUMBER_OF_SQUARES_X-1)
 2872              		.loc 1 651 9 is_stmt 1 view .LVU827
 651:Core/Src/MazeLib.c ****         if(x < NUMBER_OF_SQUARES_X-1)
 2873              		.loc 1 651 47 is_stmt 0 view .LVU828
 2874 0114 04EB0413 		add	r3, r4, r4, lsl #4
 2875 0118 07EBC303 		add	r3, r7, r3, lsl #3
 651:Core/Src/MazeLib.c ****         if(x < NUMBER_OF_SQUARES_X-1)
 2876              		.loc 1 651 9 view .LVU829
 2877 011c 5A88     		ldrh	r2, [r3, #2]
 2878 011e 1049     		ldr	r1, .L207+16
 2879 0120 2846     		mov	r0, r5
 2880 0122 FFF7FEFF 		bl	fprintf
 2881              	.LVL232:
 652:Core/Src/MazeLib.c ****                 fprintf(fp,"     ");
 2882              		.loc 1 652 9 is_stmt 1 view .LVU830
 652:Core/Src/MazeLib.c ****                 fprintf(fp,"     ");
 2883              		.loc 1 652 11 is_stmt 0 view .LVU831
 2884 0126 0E2C     		cmp	r4, #14
 2885 0128 F1DC     		bgt	.L199
 653:Core/Src/MazeLib.c ****     }
 2886              		.loc 1 653 17 is_stmt 1 view .LVU832
 2887 012a 2B46     		mov	r3, r5
 2888 012c 0522     		movs	r2, #5
 2889 012e 0121     		movs	r1, #1
 2890 0130 0C48     		ldr	r0, .L207+20
 2891 0132 FFF7FEFF 		bl	fwrite
 2892              	.LVL233:
 2893 0136 EAE7     		b	.L199
 2894              	.L206:
 653:Core/Src/MazeLib.c ****     }
 2895              		.loc 1 653 17 is_stmt 0 view .LVU833
 2896              	.LBE37:
 655:Core/Src/MazeLib.c ****     fclose(fp);
 2897              		.loc 1 655 5 is_stmt 1 view .LVU834
 2898 0138 2B46     		mov	r3, r5
 2899 013a 0222     		movs	r2, #2
 2900 013c 0121     		movs	r1, #1
 2901 013e 0B48     		ldr	r0, .L207+28
 2902 0140 FFF7FEFF 		bl	fwrite
 2903              	.LVL234:
 656:Core/Src/MazeLib.c ****     return true;
 2904              		.loc 1 656 5 view .LVU835
 2905 0144 2846     		mov	r0, r5
 2906 0146 FFF7FEFF 		bl	fclose
 2907              	.LVL235:
 657:Core/Src/MazeLib.c **** 
 2908              		.loc 1 657 5 view .LVU836
 657:Core/Src/MazeLib.c **** 
 2909              		.loc 1 657 12 is_stmt 0 view .LVU837
 2910 014a 0120     		movs	r0, #1
 2911              	.LVL236:
 2912              	.L185:
 659:Core/Src/MazeLib.c **** static uint8_t convertNodeTo16Value(maze_node *maze, int x, int y)
 2913              		.loc 1 659 1 view .LVU838
 2914 014c 05B0     		add	sp, sp, #20
ARM GAS  /var/folders/v_/kwz_t0cs68g1q1d733r227b80000gn/T//cc7enlx9.s 			page 78


 2915              	.LCFI16:
 2916              		.cfi_def_cfa_offset 20
 2917              		@ sp needed
 2918 014e F0BD     		pop	{r4, r5, r6, r7, pc}
 2919              	.LVL237:
 2920              	.L208:
 659:Core/Src/MazeLib.c **** static uint8_t convertNodeTo16Value(maze_node *maze, int x, int y)
 2921              		.loc 1 659 1 view .LVU839
 2922              		.align	2
 2923              	.L207:
 2924 0150 38000000 		.word	.LC14
 2925 0154 00000000 		.word	.LC15
 2926 0158 18000000 		.word	.LC17
 2927 015c 04000000 		.word	.LC16
 2928 0160 34000000 		.word	.LC5
 2929 0164 40000000 		.word	.LC7
 2930 0168 2C000000 		.word	.LC18
 2931 016c 34000000 		.word	.LC19
 2932              		.cfi_endproc
 2933              	.LFE19:
 2935              		.section	.rodata.printMatrix16ValueFromNode.str1.4,"aMS",%progbits,1
 2936              		.align	2
 2937              	.LC20:
 2938 0000 E6A99FE4 		.ascii	"\346\251\237\344\275\223\343\201\213\343\202\211Ter"
 2938      BD93E381 
 2938      8BE38289 
 2938      546572
 2939 000f 61546572 		.ascii	"aTerm\343\201\270\343\201\256\345\207\272\345\212\233"
 2939      6DE381B8 
 2939      E381AEE5 
 2939      87BAE58A 
 2939      9B
 2940 0020 E794A80D 		.ascii	"\347\224\250\015\000"
 2940      00
 2941              		.section	.text.printMatrix16ValueFromNode,"ax",%progbits
 2942              		.align	1
 2943              		.global	printMatrix16ValueFromNode
 2944              		.syntax unified
 2945              		.thumb
 2946              		.thumb_func
 2947              		.fpu fpv4-sp-d16
 2949              	printMatrix16ValueFromNode:
 2950              	.LVL238:
 2951              	.LFB21:
 671:Core/Src/MazeLib.c **** //æ©Ÿä½“ã‹ã‚‰TeraTermã§å‡ºåŠ›ã™ã‚‹ãŸã‚ã®é–¢æ•°
 672:Core/Src/MazeLib.c **** void printMatrix16ValueFromNode(maze_node *maze)
 673:Core/Src/MazeLib.c **** {
 2952              		.loc 1 673 1 is_stmt 1 view -0
 2953              		.cfi_startproc
 2954              		@ args = 0, pretend = 0, frame = 0
 2955              		@ frame_needed = 0, uses_anonymous_args = 0
 2956              		.loc 1 673 1 is_stmt 0 view .LVU841
 2957 0000 70B5     		push	{r4, r5, r6, lr}
 2958              	.LCFI17:
 2959              		.cfi_def_cfa_offset 16
 2960              		.cfi_offset 4, -16
 2961              		.cfi_offset 5, -12
ARM GAS  /var/folders/v_/kwz_t0cs68g1q1d733r227b80000gn/T//cc7enlx9.s 			page 79


 2962              		.cfi_offset 6, -8
 2963              		.cfi_offset 14, -4
 2964 0002 0646     		mov	r6, r0
 674:Core/Src/MazeLib.c ****     printf("æ©Ÿä½“ã‹ã‚‰TeraTermã¸ã®å‡ºåŠ›ç”¨\r\n");
 2965              		.loc 1 674 5 is_stmt 1 view .LVU842
 2966 0004 1148     		ldr	r0, .L218
 2967              	.LVL239:
 2968              		.loc 1 674 5 is_stmt 0 view .LVU843
 2969 0006 FFF7FEFF 		bl	puts
 2970              	.LVL240:
 675:Core/Src/MazeLib.c ****     for(int j=NUMBER_OF_SQUARES_Y-1; j >= 0; j--)
 2971              		.loc 1 675 5 is_stmt 1 view .LVU844
 2972              	.LBB38:
 2973              		.loc 1 675 9 view .LVU845
 2974              		.loc 1 675 13 is_stmt 0 view .LVU846
 2975 000a 0F25     		movs	r5, #15
 2976              		.loc 1 675 5 view .LVU847
 2977 000c 15E0     		b	.L210
 2978              	.LVL241:
 2979              	.L211:
 2980              	.LBB39:
 676:Core/Src/MazeLib.c ****     {
 677:Core/Src/MazeLib.c ****         for(int i=0; i < NUMBER_OF_SQUARES_X; i++)
 2981              		.loc 1 677 47 is_stmt 1 discriminator 2 view .LVU848
 2982              		.loc 1 677 48 is_stmt 0 discriminator 2 view .LVU849
 2983 000e 0134     		adds	r4, r4, #1
 2984              	.LVL242:
 2985              	.L213:
 2986              		.loc 1 677 22 is_stmt 1 discriminator 1 view .LVU850
 2987              		.loc 1 677 9 is_stmt 0 discriminator 1 view .LVU851
 2988 0010 0F2C     		cmp	r4, #15
 2989 0012 0EDC     		bgt	.L216
 678:Core/Src/MazeLib.c ****         {
 679:Core/Src/MazeLib.c ****             printf("%u",convertNodeTo16Value(maze, i,j));
 2990              		.loc 1 679 13 is_stmt 1 view .LVU852
 2991              		.loc 1 679 25 is_stmt 0 view .LVU853
 2992 0014 2A46     		mov	r2, r5
 2993 0016 2146     		mov	r1, r4
 2994 0018 3046     		mov	r0, r6
 2995 001a FFF7FEFF 		bl	convertNodeTo16Value
 2996              	.LVL243:
 2997 001e 0146     		mov	r1, r0
 2998              		.loc 1 679 13 view .LVU854
 2999 0020 0B48     		ldr	r0, .L218+4
 3000 0022 FFF7FEFF 		bl	printf
 3001              	.LVL244:
 680:Core/Src/MazeLib.c ****             if(i < NUMBER_OF_SQUARES_X-1)
 3002              		.loc 1 680 13 is_stmt 1 view .LVU855
 3003              		.loc 1 680 15 is_stmt 0 view .LVU856
 3004 0026 0E2C     		cmp	r4, #14
 3005 0028 F1DC     		bgt	.L211
 681:Core/Src/MazeLib.c ****                 printf(",");
 3006              		.loc 1 681 17 is_stmt 1 view .LVU857
 3007 002a 2C20     		movs	r0, #44
 3008 002c FFF7FEFF 		bl	putchar
 3009              	.LVL245:
 3010 0030 EDE7     		b	.L211
ARM GAS  /var/folders/v_/kwz_t0cs68g1q1d733r227b80000gn/T//cc7enlx9.s 			page 80


 3011              	.L216:
 3012              		.loc 1 681 17 is_stmt 0 view .LVU858
 3013              	.LBE39:
 682:Core/Src/MazeLib.c ****         }
 683:Core/Src/MazeLib.c ****         printf("\r\n");
 3014              		.loc 1 683 9 is_stmt 1 discriminator 2 view .LVU859
 3015 0032 0848     		ldr	r0, .L218+8
 3016 0034 FFF7FEFF 		bl	puts
 3017              	.LVL246:
 675:Core/Src/MazeLib.c ****     {
 3018              		.loc 1 675 46 discriminator 2 view .LVU860
 675:Core/Src/MazeLib.c ****     {
 3019              		.loc 1 675 47 is_stmt 0 discriminator 2 view .LVU861
 3020 0038 013D     		subs	r5, r5, #1
 3021              	.LVL247:
 3022              	.L210:
 675:Core/Src/MazeLib.c ****     {
 3023              		.loc 1 675 38 is_stmt 1 discriminator 1 view .LVU862
 675:Core/Src/MazeLib.c ****     {
 3024              		.loc 1 675 5 is_stmt 0 discriminator 1 view .LVU863
 3025 003a 002D     		cmp	r5, #0
 3026 003c 01DB     		blt	.L217
 3027              	.LBB40:
 677:Core/Src/MazeLib.c ****         {
 3028              		.loc 1 677 17 view .LVU864
 3029 003e 0024     		movs	r4, #0
 3030 0040 E6E7     		b	.L213
 3031              	.L217:
 3032              	.LBE40:
 3033              	.LBE38:
 684:Core/Src/MazeLib.c ****     }
 685:Core/Src/MazeLib.c ****     printf("\r\n");
 3034              		.loc 1 685 5 is_stmt 1 view .LVU865
 3035 0042 0448     		ldr	r0, .L218+8
 3036 0044 FFF7FEFF 		bl	puts
 3037              	.LVL248:
 686:Core/Src/MazeLib.c **** 
 687:Core/Src/MazeLib.c **** }
 3038              		.loc 1 687 1 is_stmt 0 view .LVU866
 3039 0048 70BD     		pop	{r4, r5, r6, pc}
 3040              	.LVL249:
 3041              	.L219:
 3042              		.loc 1 687 1 view .LVU867
 3043 004a 00BF     		.align	2
 3044              	.L218:
 3045 004c 00000000 		.word	.LC20
 3046 0050 14000000 		.word	.LC12
 3047 0054 3C000000 		.word	.LC6
 3048              		.cfi_endproc
 3049              	.LFE21:
 3051              		.section	.rodata.setNextPosition.str1.4,"aMS",%progbits,1
 3052              		.align	2
 3053              	.LC21:
 3054 0000 E696B9E8 		.ascii	"\346\226\271\350\247\222\343\203\237\343\202\271\015"
 3054      A792E383 
 3054      9FE382B9 
 3054      0D
ARM GAS  /var/folders/v_/kwz_t0cs68g1q1d733r227b80000gn/T//cc7enlx9.s 			page 81


 3055 000d 00       		.ascii	"\000"
 3056              		.section	.text.setNextPosition,"ax",%progbits
 3057              		.align	1
 3058              		.global	setNextPosition
 3059              		.syntax unified
 3060              		.thumb
 3061              		.thumb_func
 3062              		.fpu fpv4-sp-d16
 3064              	setNextPosition:
 3065              	.LVL250:
 3066              	.LFB22:
 688:Core/Src/MazeLib.c **** 
 689:Core/Src/MazeLib.c **** 
 690:Core/Src/MazeLib.c **** 
 691:Core/Src/MazeLib.c **** /* ----- æ¢ç´¢è€…ãƒ‡ãƒ¼ã‚¿ç®¡ç† ã“ã“ã‹ã‚‰----- */
 692:Core/Src/MazeLib.c **** void setNextPosition(state *st)
 693:Core/Src/MazeLib.c **** {
 3067              		.loc 1 693 1 is_stmt 1 view -0
 3068              		.cfi_startproc
 3069              		@ args = 0, pretend = 0, frame = 0
 3070              		@ frame_needed = 0, uses_anonymous_args = 0
 3071              		.loc 1 693 1 is_stmt 0 view .LVU869
 3072 0000 08B5     		push	{r3, lr}
 3073              	.LCFI18:
 3074              		.cfi_def_cfa_offset 8
 3075              		.cfi_offset 3, -8
 3076              		.cfi_offset 14, -4
 694:Core/Src/MazeLib.c ****     switch (st->car)
 3077              		.loc 1 694 5 is_stmt 1 view .LVU870
 3078              		.loc 1 694 15 is_stmt 0 view .LVU871
 3079 0002 8378     		ldrb	r3, [r0, #2]	@ zero_extendqisi2
 3080              		.loc 1 694 5 view .LVU872
 3081 0004 062B     		cmp	r3, #6
 3082 0006 1CD8     		bhi	.L221
 3083 0008 DFE803F0 		tbb	[pc, r3]
 3084              	.L223:
 3085 000c 04       		.byte	(.L227-.L223)/2
 3086 000d 08       		.byte	(.L226-.L223)/2
 3087 000e 0F       		.byte	(.L225-.L223)/2
 3088 000f 1B       		.byte	(.L221-.L223)/2
 3089 0010 13       		.byte	(.L224-.L223)/2
 3090 0011 1B       		.byte	(.L221-.L223)/2
 3091 0012 17       		.byte	(.L222-.L223)/2
 3092 0013 00       		.p2align 1
 3093              	.L227:
 695:Core/Src/MazeLib.c ****     {
 696:Core/Src/MazeLib.c ****     case north:
 697:Core/Src/MazeLib.c ****         st->pos.x += 0;
 3094              		.loc 1 697 9 is_stmt 1 view .LVU873
 698:Core/Src/MazeLib.c ****         st->pos.y += 1;
 3095              		.loc 1 698 9 view .LVU874
 3096              		.loc 1 698 19 is_stmt 0 view .LVU875
 3097 0014 4378     		ldrb	r3, [r0, #1]	@ zero_extendqisi2
 3098 0016 0133     		adds	r3, r3, #1
 3099 0018 4370     		strb	r3, [r0, #1]
 699:Core/Src/MazeLib.c ****         /* code */
 700:Core/Src/MazeLib.c ****         break;
ARM GAS  /var/folders/v_/kwz_t0cs68g1q1d733r227b80000gn/T//cc7enlx9.s 			page 82


 3100              		.loc 1 700 9 is_stmt 1 view .LVU876
 3101              	.LVL251:
 3102              	.L220:
 701:Core/Src/MazeLib.c ****     case ne: //æ–œã‚ã®ã¨ãã®åº§æ¨™ã®å¤‰æ›´æ¡ä»¶ã‚’ã†ã¾ãã‚„ã‚‹
 702:Core/Src/MazeLib.c ****         if(1);
 703:Core/Src/MazeLib.c ****         st->pos.x += 1;
 704:Core/Src/MazeLib.c ****         st->pos.y += 0;
 705:Core/Src/MazeLib.c ****         
 706:Core/Src/MazeLib.c ****         st->pos.x += 0;
 707:Core/Src/MazeLib.c ****         st->pos.y += 1;
 708:Core/Src/MazeLib.c ****         break;
 709:Core/Src/MazeLib.c ****     case east:
 710:Core/Src/MazeLib.c ****         st->pos.x += 1;
 711:Core/Src/MazeLib.c ****         st->pos.y += 0; 
 712:Core/Src/MazeLib.c ****         break;
 713:Core/Src/MazeLib.c ****     case south:
 714:Core/Src/MazeLib.c ****         st->pos.x += 0;
 715:Core/Src/MazeLib.c ****         st->pos.y += -1;  
 716:Core/Src/MazeLib.c ****         /* code */
 717:Core/Src/MazeLib.c ****         break;
 718:Core/Src/MazeLib.c ****     case west:
 719:Core/Src/MazeLib.c ****         st->pos.x += -1;
 720:Core/Src/MazeLib.c ****         st->pos.y += 0; 
 721:Core/Src/MazeLib.c ****         break;
 722:Core/Src/MazeLib.c ****     
 723:Core/Src/MazeLib.c ****     default:
 724:Core/Src/MazeLib.c ****         printf("æ–¹è§’ãƒŸã‚¹\r\n");
 725:Core/Src/MazeLib.c ****         break;
 726:Core/Src/MazeLib.c ****     }
 727:Core/Src/MazeLib.c **** }
 3103              		.loc 1 727 1 is_stmt 0 view .LVU877
 3104 001a 08BD     		pop	{r3, pc}
 3105              	.LVL252:
 3106              	.L226:
 702:Core/Src/MazeLib.c ****         st->pos.x += 1;
 3107              		.loc 1 702 9 is_stmt 1 view .LVU878
 703:Core/Src/MazeLib.c ****         st->pos.y += 0;
 3108              		.loc 1 703 9 view .LVU879
 703:Core/Src/MazeLib.c ****         st->pos.y += 0;
 3109              		.loc 1 703 19 is_stmt 0 view .LVU880
 3110 001c 0378     		ldrb	r3, [r0]	@ zero_extendqisi2
 3111 001e 0133     		adds	r3, r3, #1
 3112 0020 0370     		strb	r3, [r0]
 704:Core/Src/MazeLib.c ****         
 3113              		.loc 1 704 9 is_stmt 1 view .LVU881
 704:Core/Src/MazeLib.c ****         
 3114              		.loc 1 704 19 is_stmt 0 view .LVU882
 3115 0022 4378     		ldrb	r3, [r0, #1]	@ zero_extendqisi2
 706:Core/Src/MazeLib.c ****         st->pos.y += 1;
 3116              		.loc 1 706 9 is_stmt 1 view .LVU883
 707:Core/Src/MazeLib.c ****         break;
 3117              		.loc 1 707 9 view .LVU884
 707:Core/Src/MazeLib.c ****         break;
 3118              		.loc 1 707 19 is_stmt 0 view .LVU885
 3119 0024 0133     		adds	r3, r3, #1
 3120 0026 4370     		strb	r3, [r0, #1]
 708:Core/Src/MazeLib.c ****     case east:
ARM GAS  /var/folders/v_/kwz_t0cs68g1q1d733r227b80000gn/T//cc7enlx9.s 			page 83


 3121              		.loc 1 708 9 is_stmt 1 view .LVU886
 3122 0028 F7E7     		b	.L220
 3123              	.L225:
 710:Core/Src/MazeLib.c ****         st->pos.y += 0; 
 3124              		.loc 1 710 9 view .LVU887
 710:Core/Src/MazeLib.c ****         st->pos.y += 0; 
 3125              		.loc 1 710 19 is_stmt 0 view .LVU888
 3126 002a 0378     		ldrb	r3, [r0]	@ zero_extendqisi2
 3127 002c 0133     		adds	r3, r3, #1
 3128 002e 0370     		strb	r3, [r0]
 711:Core/Src/MazeLib.c ****         break;
 3129              		.loc 1 711 9 is_stmt 1 view .LVU889
 712:Core/Src/MazeLib.c ****     case south:
 3130              		.loc 1 712 9 view .LVU890
 3131 0030 F3E7     		b	.L220
 3132              	.L224:
 714:Core/Src/MazeLib.c ****         st->pos.y += -1;  
 3133              		.loc 1 714 9 view .LVU891
 715:Core/Src/MazeLib.c ****         /* code */
 3134              		.loc 1 715 9 view .LVU892
 715:Core/Src/MazeLib.c ****         /* code */
 3135              		.loc 1 715 19 is_stmt 0 view .LVU893
 3136 0032 4378     		ldrb	r3, [r0, #1]	@ zero_extendqisi2
 3137 0034 013B     		subs	r3, r3, #1
 3138 0036 4370     		strb	r3, [r0, #1]
 717:Core/Src/MazeLib.c ****     case west:
 3139              		.loc 1 717 9 is_stmt 1 view .LVU894
 3140 0038 EFE7     		b	.L220
 3141              	.L222:
 719:Core/Src/MazeLib.c ****         st->pos.y += 0; 
 3142              		.loc 1 719 9 view .LVU895
 719:Core/Src/MazeLib.c ****         st->pos.y += 0; 
 3143              		.loc 1 719 19 is_stmt 0 view .LVU896
 3144 003a 0378     		ldrb	r3, [r0]	@ zero_extendqisi2
 3145 003c 013B     		subs	r3, r3, #1
 3146 003e 0370     		strb	r3, [r0]
 720:Core/Src/MazeLib.c ****         break;
 3147              		.loc 1 720 9 is_stmt 1 view .LVU897
 721:Core/Src/MazeLib.c ****     
 3148              		.loc 1 721 9 view .LVU898
 3149 0040 EBE7     		b	.L220
 3150              	.L221:
 724:Core/Src/MazeLib.c ****         break;
 3151              		.loc 1 724 9 view .LVU899
 3152 0042 0248     		ldr	r0, .L230
 3153              	.LVL253:
 724:Core/Src/MazeLib.c ****         break;
 3154              		.loc 1 724 9 is_stmt 0 view .LVU900
 3155 0044 FFF7FEFF 		bl	puts
 3156              	.LVL254:
 725:Core/Src/MazeLib.c ****     }
 3157              		.loc 1 725 9 is_stmt 1 view .LVU901
 3158              		.loc 1 727 1 is_stmt 0 view .LVU902
 3159 0048 E7E7     		b	.L220
 3160              	.L231:
 3161 004a 00BF     		.align	2
 3162              	.L230:
ARM GAS  /var/folders/v_/kwz_t0cs68g1q1d733r227b80000gn/T//cc7enlx9.s 			page 84


 3163 004c 00000000 		.word	.LC21
 3164              		.cfi_endproc
 3165              	.LFE22:
 3167              		.section	.text.setPosition,"ax",%progbits
 3168              		.align	1
 3169              		.global	setPosition
 3170              		.syntax unified
 3171              		.thumb
 3172              		.thumb_func
 3173              		.fpu fpv4-sp-d16
 3175              	setPosition:
 3176              	.LVL255:
 3177              	.LFB23:
 728:Core/Src/MazeLib.c **** void setPosition(position *pos,uint8_t x, uint8_t y)
 729:Core/Src/MazeLib.c **** {
 3178              		.loc 1 729 1 is_stmt 1 view -0
 3179              		.cfi_startproc
 3180              		@ args = 0, pretend = 0, frame = 0
 3181              		@ frame_needed = 0, uses_anonymous_args = 0
 3182              		@ link register save eliminated.
 730:Core/Src/MazeLib.c ****     pos->x = x;
 3183              		.loc 1 730 5 view .LVU904
 3184              		.loc 1 730 12 is_stmt 0 view .LVU905
 3185 0000 0170     		strb	r1, [r0]
 731:Core/Src/MazeLib.c ****     pos->y = y;
 3186              		.loc 1 731 5 is_stmt 1 view .LVU906
 3187              		.loc 1 731 12 is_stmt 0 view .LVU907
 3188 0002 4270     		strb	r2, [r0, #1]
 732:Core/Src/MazeLib.c **** }
 3189              		.loc 1 732 1 view .LVU908
 3190 0004 7047     		bx	lr
 3191              		.cfi_endproc
 3192              	.LFE23:
 3194              		.section	.text.setGoal,"ax",%progbits
 3195              		.align	1
 3196              		.global	setGoal
 3197              		.syntax unified
 3198              		.thumb
 3199              		.thumb_func
 3200              		.fpu fpv4-sp-d16
 3202              	setGoal:
 3203              	.LVL256:
 3204              	.LFB24:
 733:Core/Src/MazeLib.c **** void setGoal(profile *prof, uint8_t x, uint8_t y)
 734:Core/Src/MazeLib.c **** {
 3205              		.loc 1 734 1 is_stmt 1 view -0
 3206              		.cfi_startproc
 3207              		@ args = 0, pretend = 0, frame = 0
 3208              		@ frame_needed = 0, uses_anonymous_args = 0
 3209              		.loc 1 734 1 is_stmt 0 view .LVU910
 3210 0000 70B5     		push	{r4, r5, r6, lr}
 3211              	.LCFI19:
 3212              		.cfi_def_cfa_offset 16
 3213              		.cfi_offset 4, -16
 3214              		.cfi_offset 5, -12
 3215              		.cfi_offset 6, -8
 3216              		.cfi_offset 14, -4
ARM GAS  /var/folders/v_/kwz_t0cs68g1q1d733r227b80000gn/T//cc7enlx9.s 			page 85


 3217 0002 0646     		mov	r6, r0
 3218 0004 0C46     		mov	r4, r1
 3219 0006 1546     		mov	r5, r2
 735:Core/Src/MazeLib.c ****     //å·¦ä¸‹ã®åº§æ¨™ã¨ã€ã‚´ãƒ¼ãƒ«ã‚µã‚¤ã‚ºã‹ã‚‰ã€å³ä¸Šã‚’æ±‚ã‚ã‚‹
 736:Core/Src/MazeLib.c ****     setPosition( &(prof->goal_lesser) , x, y );
 3220              		.loc 1 736 5 is_stmt 1 view .LVU911
 3221 0008 FFF7FEFF 		bl	setPosition
 3222              	.LVL257:
 737:Core/Src/MazeLib.c ****     setPosition( &(prof->goal_larger), x + GOAL_SIZE_X-1, y + GOAL_SIZE_Y-1 );
 3223              		.loc 1 737 5 view .LVU912
 3224 000c 6A1C     		adds	r2, r5, #1
 3225 000e 611C     		adds	r1, r4, #1
 3226 0010 D2B2     		uxtb	r2, r2
 3227 0012 C9B2     		uxtb	r1, r1
 3228 0014 B01C     		adds	r0, r6, #2
 3229 0016 FFF7FEFF 		bl	setPosition
 3230              	.LVL258:
 738:Core/Src/MazeLib.c **** }
 3231              		.loc 1 738 1 is_stmt 0 view .LVU913
 3232 001a 70BD     		pop	{r4, r5, r6, pc}
 3233              		.loc 1 738 1 view .LVU914
 3234              		.cfi_endproc
 3235              	.LFE24:
 3237              		.section	.text.setCardinal,"ax",%progbits
 3238              		.align	1
 3239              		.global	setCardinal
 3240              		.syntax unified
 3241              		.thumb
 3242              		.thumb_func
 3243              		.fpu fpv4-sp-d16
 3245              	setCardinal:
 3246              	.LVL259:
 3247              	.LFB25:
 739:Core/Src/MazeLib.c **** void setCardinal(state *st, cardinal car)
 740:Core/Src/MazeLib.c **** {
 3248              		.loc 1 740 1 is_stmt 1 view -0
 3249              		.cfi_startproc
 3250              		@ args = 0, pretend = 0, frame = 0
 3251              		@ frame_needed = 0, uses_anonymous_args = 0
 3252              		@ link register save eliminated.
 741:Core/Src/MazeLib.c ****     st->car = car;
 3253              		.loc 1 741 5 view .LVU916
 3254              		.loc 1 741 13 is_stmt 0 view .LVU917
 3255 0000 8170     		strb	r1, [r0, #2]
 742:Core/Src/MazeLib.c **** }
 3256              		.loc 1 742 1 view .LVU918
 3257 0002 7047     		bx	lr
 3258              		.cfi_endproc
 3259              	.LFE25:
 3261              		.section	.text.setWallExistence,"ax",%progbits
 3262              		.align	1
 3263              		.global	setWallExistence
 3264              		.syntax unified
 3265              		.thumb
 3266              		.thumb_func
 3267              		.fpu fpv4-sp-d16
 3269              	setWallExistence:
ARM GAS  /var/folders/v_/kwz_t0cs68g1q1d733r227b80000gn/T//cc7enlx9.s 			page 86


 3270              	.LVL260:
 3271              	.LFB26:
 743:Core/Src/MazeLib.c **** void setWallExistence(wall_existence *existence, wall_state *state)
 744:Core/Src/MazeLib.c **** {
 3272              		.loc 1 744 1 is_stmt 1 view -0
 3273              		.cfi_startproc
 3274              		@ args = 0, pretend = 0, frame = 0
 3275              		@ frame_needed = 0, uses_anonymous_args = 0
 3276              		@ link register save eliminated.
 745:Core/Src/MazeLib.c ****     //å˜ä½“ã§æ›¸ãè¾¼ã‚ã‚‹ãƒ¢ã‚¸ãƒ¥ãƒ¼ãƒ«ã¯é€†ã«é¢å€’
 746:Core/Src/MazeLib.c ****     //è‡ªåˆ†ã®æ–¹è§’ã«åˆã‚ã›ã¦æ›¸ãè¾¼ã¿å…ˆã‚’å¤‰ãˆã‚‹ã®ã¯åˆ¥ã®ã¨ã“ã‚ã§ã€‚
 747:Core/Src/MazeLib.c ****     existence->north = state[0];
 3277              		.loc 1 747 5 view .LVU920
 3278              		.loc 1 747 29 is_stmt 0 view .LVU921
 3279 0000 0A78     		ldrb	r2, [r1]	@ zero_extendqisi2
 3280              		.loc 1 747 22 view .LVU922
 3281 0002 0378     		ldrb	r3, [r0]	@ zero_extendqisi2
 3282 0004 62F30103 		bfi	r3, r2, #0, #2
 3283 0008 0370     		strb	r3, [r0]
 748:Core/Src/MazeLib.c ****     existence->east = state[1];
 3284              		.loc 1 748 5 is_stmt 1 view .LVU923
 3285              		.loc 1 748 28 is_stmt 0 view .LVU924
 3286 000a 4A78     		ldrb	r2, [r1, #1]	@ zero_extendqisi2
 3287              		.loc 1 748 21 view .LVU925
 3288 000c DBB2     		uxtb	r3, r3
 3289 000e 62F38303 		bfi	r3, r2, #2, #2
 3290 0012 0370     		strb	r3, [r0]
 749:Core/Src/MazeLib.c ****     existence->south = state[2];
 3291              		.loc 1 749 5 is_stmt 1 view .LVU926
 3292              		.loc 1 749 29 is_stmt 0 view .LVU927
 3293 0014 8A78     		ldrb	r2, [r1, #2]	@ zero_extendqisi2
 3294              		.loc 1 749 22 view .LVU928
 3295 0016 DBB2     		uxtb	r3, r3
 3296 0018 62F30513 		bfi	r3, r2, #4, #2
 3297 001c 0370     		strb	r3, [r0]
 750:Core/Src/MazeLib.c ****     existence->west = state[3];
 3298              		.loc 1 750 5 is_stmt 1 view .LVU929
 3299              		.loc 1 750 28 is_stmt 0 view .LVU930
 3300 001e CA78     		ldrb	r2, [r1, #3]	@ zero_extendqisi2
 3301              		.loc 1 750 21 view .LVU931
 3302 0020 DBB2     		uxtb	r3, r3
 3303 0022 62F38713 		bfi	r3, r2, #6, #2
 3304 0026 0370     		strb	r3, [r0]
 751:Core/Src/MazeLib.c **** }
 3305              		.loc 1 751 1 view .LVU932
 3306 0028 7047     		bx	lr
 3307              		.cfi_endproc
 3308              	.LFE26:
 3310              		.section	.rodata.initState.str1.4,"aMS",%progbits,1
 3311              		.align	2
 3312              	.LC22:
 3313 0000 25702C20 		.ascii	"%p, \000"
 3313      00
 3314 0005 000000   		.align	2
 3315              	.LC23:
 3316 0008 E381840D 		.ascii	"\343\201\204\015\000"
 3316      00
ARM GAS  /var/folders/v_/kwz_t0cs68g1q1d733r227b80000gn/T//cc7enlx9.s 			page 87


 3317              		.section	.text.initState,"ax",%progbits
 3318              		.align	1
 3319              		.global	initState
 3320              		.syntax unified
 3321              		.thumb
 3322              		.thumb_func
 3323              		.fpu fpv4-sp-d16
 3325              	initState:
 3326              	.LVL261:
 3327              	.LFB27:
 752:Core/Src/MazeLib.c **** 
 753:Core/Src/MazeLib.c **** //æ–œã‚æ–¹è§’ã§å£æƒ…å ±ã©ã†ã™ã‚‹ã‹.å£æƒ…å ±ã§ã¯æ–œã‚ä½¿ã‚ãªã„.å‘ãã ã‘
 754:Core/Src/MazeLib.c **** void initState(state *log_st, int n, node *nd)
 755:Core/Src/MazeLib.c **** {
 3328              		.loc 1 755 1 is_stmt 1 view -0
 3329              		.cfi_startproc
 3330              		@ args = 0, pretend = 0, frame = 0
 3331              		@ frame_needed = 0, uses_anonymous_args = 0
 3332              		.loc 1 755 1 is_stmt 0 view .LVU934
 3333 0000 F8B5     		push	{r3, r4, r5, r6, r7, lr}
 3334              	.LCFI20:
 3335              		.cfi_def_cfa_offset 24
 3336              		.cfi_offset 3, -24
 3337              		.cfi_offset 4, -20
 3338              		.cfi_offset 5, -16
 3339              		.cfi_offset 6, -12
 3340              		.cfi_offset 7, -8
 3341              		.cfi_offset 14, -4
 3342 0002 0746     		mov	r7, r0
 3343 0004 0C46     		mov	r4, r1
 3344 0006 1646     		mov	r6, r2
 756:Core/Src/MazeLib.c ****     for(int i=0; i < n; i++)
 3345              		.loc 1 756 5 is_stmt 1 view .LVU935
 3346              	.LBB41:
 3347              		.loc 1 756 9 view .LVU936
 3348              	.LVL262:
 3349              		.loc 1 756 13 is_stmt 0 view .LVU937
 3350 0008 0025     		movs	r5, #0
 3351              		.loc 1 756 5 view .LVU938
 3352 000a 09E0     		b	.L238
 3353              	.LVL263:
 3354              	.L239:
 757:Core/Src/MazeLib.c ****     {
 758:Core/Src/MazeLib.c ****         log_st[n].node = nd;
 3355              		.loc 1 758 9 is_stmt 1 discriminator 3 view .LVU939
 3356              		.loc 1 758 15 is_stmt 0 discriminator 3 view .LVU940
 3357 000c 04EB4403 		add	r3, r4, r4, lsl #1
 3358 0010 07EB8303 		add	r3, r7, r3, lsl #2
 3359              		.loc 1 758 24 discriminator 3 view .LVU941
 3360 0014 9E60     		str	r6, [r3, #8]
 759:Core/Src/MazeLib.c ****         printf("%p, ",log_st[n].node);
 3361              		.loc 1 759 9 is_stmt 1 discriminator 3 view .LVU942
 3362 0016 3146     		mov	r1, r6
 3363 0018 0448     		ldr	r0, .L241
 3364 001a FFF7FEFF 		bl	printf
 3365              	.LVL264:
 756:Core/Src/MazeLib.c ****     for(int i=0; i < n; i++)
ARM GAS  /var/folders/v_/kwz_t0cs68g1q1d733r227b80000gn/T//cc7enlx9.s 			page 88


 3366              		.loc 1 756 25 discriminator 3 view .LVU943
 756:Core/Src/MazeLib.c ****     for(int i=0; i < n; i++)
 3367              		.loc 1 756 26 is_stmt 0 discriminator 3 view .LVU944
 3368 001e 0135     		adds	r5, r5, #1
 3369              	.LVL265:
 3370              	.L238:
 756:Core/Src/MazeLib.c ****     for(int i=0; i < n; i++)
 3371              		.loc 1 756 18 is_stmt 1 discriminator 1 view .LVU945
 756:Core/Src/MazeLib.c ****     for(int i=0; i < n; i++)
 3372              		.loc 1 756 5 is_stmt 0 discriminator 1 view .LVU946
 3373 0020 A542     		cmp	r5, r4
 3374 0022 F3DB     		blt	.L239
 3375              	.LBE41:
 760:Core/Src/MazeLib.c ****         //æœ€çŸ­èµ°è¡Œæ™‚ã«é€šã£ãŸãƒãƒ¼ãƒ‰ã®xyã¨rawã‹columnã‹ã®æƒ…å ±ã‚’é…åˆ—ã«æ ¼ç´ã™
 761:Core/Src/MazeLib.c ****         //ãƒãƒ¼ãƒ‰ã®ã‚¢ãƒ‰ãƒ¬ã‚¹ã‚’ã©ã“ã‹æŒ‡å®šã—ãªã„ã¨ã„ã‘ãªã„
 762:Core/Src/MazeLib.c ****         // log_st[n].car = north;
 763:Core/Src/MazeLib.c ****         // log_st[n].pos.x = 0;
 764:Core/Src/MazeLib.c ****         // log_st[n].pos.y = 0;
 765:Core/Src/MazeLib.c **** 
 766:Core/Src/MazeLib.c ****         // log_st[n].wall.north = NOWALL;
 767:Core/Src/MazeLib.c ****         // log_st[n].wall.east = WALL;
 768:Core/Src/MazeLib.c ****         // log_st[n].wall.south = WALL;
 769:Core/Src/MazeLib.c ****         // log_st[n].wall.west = WALL;
 770:Core/Src/MazeLib.c ****     }
 771:Core/Src/MazeLib.c ****     printf("ã„\r\n");
 3376              		.loc 1 771 5 is_stmt 1 view .LVU947
 3377 0024 0248     		ldr	r0, .L241+4
 3378 0026 FFF7FEFF 		bl	puts
 3379              	.LVL266:
 772:Core/Src/MazeLib.c **** }
 3380              		.loc 1 772 1 is_stmt 0 view .LVU948
 3381 002a F8BD     		pop	{r3, r4, r5, r6, r7, pc}
 3382              	.LVL267:
 3383              	.L242:
 3384              		.loc 1 772 1 view .LVU949
 3385              		.align	2
 3386              	.L241:
 3387 002c 00000000 		.word	.LC22
 3388 0030 08000000 		.word	.LC23
 3389              		.cfi_endproc
 3390              	.LFE27:
 3392              		.section	.text.initProfile,"ax",%progbits
 3393              		.align	1
 3394              		.global	initProfile
 3395              		.syntax unified
 3396              		.thumb
 3397              		.thumb_func
 3398              		.fpu fpv4-sp-d16
 3400              	initProfile:
 3401              	.LVL268:
 3402              	.LFB28:
 773:Core/Src/MazeLib.c **** void initProfile(profile *prof, maze_node *maze)
 774:Core/Src/MazeLib.c **** {
 3403              		.loc 1 774 1 is_stmt 1 view -0
 3404              		.cfi_startproc
 3405              		@ args = 0, pretend = 0, frame = 8
 3406              		@ frame_needed = 0, uses_anonymous_args = 0
ARM GAS  /var/folders/v_/kwz_t0cs68g1q1d733r227b80000gn/T//cc7enlx9.s 			page 89


 3407              		.loc 1 774 1 is_stmt 0 view .LVU951
 3408 0000 F0B5     		push	{r4, r5, r6, r7, lr}
 3409              	.LCFI21:
 3410              		.cfi_def_cfa_offset 20
 3411              		.cfi_offset 4, -20
 3412              		.cfi_offset 5, -16
 3413              		.cfi_offset 6, -12
 3414              		.cfi_offset 7, -8
 3415              		.cfi_offset 14, -4
 3416 0002 83B0     		sub	sp, sp, #12
 3417              	.LCFI22:
 3418              		.cfi_def_cfa_offset 32
 3419 0004 0446     		mov	r4, r0
 3420 0006 0D46     		mov	r5, r1
 775:Core/Src/MazeLib.c ****     setGoal(prof, GOAL_X, GOAL_Y);
 3421              		.loc 1 775 5 is_stmt 1 view .LVU952
 3422 0008 0922     		movs	r2, #9
 3423 000a 1146     		mov	r1, r2
 3424              	.LVL269:
 3425              		.loc 1 775 5 is_stmt 0 view .LVU953
 3426 000c FFF7FEFF 		bl	setGoal
 3427              	.LVL270:
 776:Core/Src/MazeLib.c **** 
 777:Core/Src/MazeLib.c ****     setPosition(&(prof->now.pos), 0, 0);
 3428              		.loc 1 777 5 is_stmt 1 view .LVU954
 3429 0010 04F10806 		add	r6, r4, #8
 3430 0014 0022     		movs	r2, #0
 3431 0016 1146     		mov	r1, r2
 3432 0018 3046     		mov	r0, r6
 3433 001a FFF7FEFF 		bl	setPosition
 3434              	.LVL271:
 778:Core/Src/MazeLib.c ****     setCardinal(&(prof->now), north);
 3435              		.loc 1 778 5 view .LVU955
 3436 001e 0021     		movs	r1, #0
 3437 0020 3046     		mov	r0, r6
 3438 0022 FFF7FEFF 		bl	setCardinal
 3439              	.LVL272:
 779:Core/Src/MazeLib.c ****     prof->now.dir = front;
 3440              		.loc 1 779 5 view .LVU956
 3441              		.loc 1 779 19 is_stmt 0 view .LVU957
 3442 0026 0026     		movs	r6, #0
 3443 0028 E672     		strb	r6, [r4, #11]
 780:Core/Src/MazeLib.c **** 
 781:Core/Src/MazeLib.c ****     setPosition(&(prof->next.pos), 0, 1);
 3444              		.loc 1 781 5 is_stmt 1 view .LVU958
 3445 002a 04F11407 		add	r7, r4, #20
 3446 002e 0122     		movs	r2, #1
 3447 0030 3146     		mov	r1, r6
 3448 0032 3846     		mov	r0, r7
 3449 0034 FFF7FEFF 		bl	setPosition
 3450              	.LVL273:
 782:Core/Src/MazeLib.c ****     setCardinal(&(prof->next), north);
 3451              		.loc 1 782 5 view .LVU959
 3452 0038 3146     		mov	r1, r6
 3453 003a 3846     		mov	r0, r7
 3454 003c FFF7FEFF 		bl	setCardinal
 3455              	.LVL274:
ARM GAS  /var/folders/v_/kwz_t0cs68g1q1d733r227b80000gn/T//cc7enlx9.s 			page 90


 783:Core/Src/MazeLib.c ****     prof->next.dir = 1; //not use while running
 3456              		.loc 1 783 5 view .LVU960
 3457              		.loc 1 783 20 is_stmt 0 view .LVU961
 3458 0040 0123     		movs	r3, #1
 3459 0042 E375     		strb	r3, [r4, #23]
 784:Core/Src/MazeLib.c ****     //å£ã®ã‚»ãƒƒãƒˆ
 785:Core/Src/MazeLib.c ****     wall_state w_st[4]={
 3460              		.loc 1 785 5 is_stmt 1 view .LVU962
 3461              		.loc 1 785 16 is_stmt 0 view .LVU963
 3462 0044 094B     		ldr	r3, .L245
 3463 0046 1A68     		ldr	r2, [r3]
 3464 0048 0192     		str	r2, [sp, #4]
 786:Core/Src/MazeLib.c ****         NOWALL,
 787:Core/Src/MazeLib.c ****         WALL,
 788:Core/Src/MazeLib.c ****         WALL,
 789:Core/Src/MazeLib.c ****         WALL
 790:Core/Src/MazeLib.c ****     },
 791:Core/Src/MazeLib.c ****     next[4]={
 3465              		.loc 1 791 5 view .LVU964
 3466 004a 5B68     		ldr	r3, [r3, #4]
 3467 004c 0093     		str	r3, [sp]
 792:Core/Src/MazeLib.c ****         UNKNOWN,
 793:Core/Src/MazeLib.c ****         UNKNOWN,
 794:Core/Src/MazeLib.c ****         NOWALL,
 795:Core/Src/MazeLib.c ****         WALL
 796:Core/Src/MazeLib.c ****     };
 797:Core/Src/MazeLib.c ****     setWallExistence(&(prof->now.wall), &w_st[0]);
 3468              		.loc 1 797 5 is_stmt 1 view .LVU965
 3469 004e 01A9     		add	r1, sp, #4
 3470 0050 04F10C00 		add	r0, r4, #12
 3471 0054 FFF7FEFF 		bl	setWallExistence
 3472              	.LVL275:
 798:Core/Src/MazeLib.c ****     setWallExistence(&(prof->next.wall), &next[0]);
 3473              		.loc 1 798 5 view .LVU966
 3474 0058 6946     		mov	r1, sp
 3475 005a 04F11800 		add	r0, r4, #24
 3476 005e FFF7FEFF 		bl	setWallExistence
 3477              	.LVL276:
 799:Core/Src/MazeLib.c **** 
 800:Core/Src/MazeLib.c ****     prof->now.node = &(maze->RawNode[0][0]);
 3478              		.loc 1 800 5 view .LVU967
 3479              		.loc 1 800 20 is_stmt 0 view .LVU968
 3480 0062 2561     		str	r5, [r4, #16]
 801:Core/Src/MazeLib.c ****     prof->next.node = &(maze->RawNode[0][1]);
