ARM GAS  /var/folders/v_/kwz_t0cs68g1q1d733r227b80000gn/T//cc7enlx9.s 			page 1


   1              		.cpu cortex-m4
   2              		.eabi_attribute 27, 1
   3              		.eabi_attribute 28, 1
   4              		.eabi_attribute 20, 1
   5              		.eabi_attribute 21, 1
   6              		.eabi_attribute 23, 3
   7              		.eabi_attribute 24, 1
   8              		.eabi_attribute 25, 1
   9              		.eabi_attribute 26, 1
  10              		.eabi_attribute 30, 1
  11              		.eabi_attribute 34, 1
  12              		.eabi_attribute 18, 4
  13              		.file	"MazeLib.c"
  14              		.text
  15              	.Ltext0:
  16              		.cfi_sections	.debug_frame
  17              		.section	.text.judgeRawNodeGoal,"ax",%progbits
  18              		.align	1
  19              		.arch armv7e-m
  20              		.syntax unified
  21              		.thumb
  22              		.thumb_func
  23              		.fpu fpv4-sp-d16
  25              	judgeRawNodeGoal:
  26              	.LVL0:
  27              	.LFB13:
  28              		.file 1 "Core/Src/MazeLib.c"
   1:Core/Src/MazeLib.c **** #include "MazeLib.h"
   2:Core/Src/MazeLib.c **** 
   3:Core/Src/MazeLib.c **** int WALL_MASK;
   4:Core/Src/MazeLib.c **** //ç›´ãæ¶ˆã™
   5:Core/Src/MazeLib.c **** // #include "Interrupt.h"
   6:Core/Src/MazeLib.c **** 
   7:Core/Src/MazeLib.c **** //åˆæœŸåŒ–å‡¦ç†
   8:Core/Src/MazeLib.c **** void initWeight(maze_node *maze)
   9:Core/Src/MazeLib.c **** {
  10:Core/Src/MazeLib.c ****     // for(int i=0; i < NUMBER_OF_SQUARES_X; i++)
  11:Core/Src/MazeLib.c ****     // {
  12:Core/Src/MazeLib.c ****     //     for(int j=1; j < NUMBER_OF_SQUARES_Y; j++)
  13:Core/Src/MazeLib.c ****     //     {
  14:Core/Src/MazeLib.c ****     //         maze->RawNode[i][j].weight = MAX_WEIGHT;  
  15:Core/Src/MazeLib.c ****     //     }
  16:Core/Src/MazeLib.c ****     // }
  17:Core/Src/MazeLib.c ****     // for(int i=1; i < NUMBER_OF_SQUARES_X; i++)
  18:Core/Src/MazeLib.c ****     // {
  19:Core/Src/MazeLib.c ****     //     for(int j=0; j < NUMBER_OF_SQUARES_Y; j++)
  20:Core/Src/MazeLib.c ****     //     {
  21:Core/Src/MazeLib.c ****     //         maze->ColumnNode[i][j].weight = MAX_WEIGHT;
  22:Core/Src/MazeLib.c ****     //     }
  23:Core/Src/MazeLib.c ****     // }
  24:Core/Src/MazeLib.c ****     for(int i=0; i < NUMBER_OF_SQUARES_X; i++)
  25:Core/Src/MazeLib.c ****     {
  26:Core/Src/MazeLib.c ****         for(int j=0; j < NUMBER_OF_SQUARES_Y+1; j++)
  27:Core/Src/MazeLib.c ****         {
  28:Core/Src/MazeLib.c ****             maze->RawNode[i][j].weight = MAX_WEIGHT;  
  29:Core/Src/MazeLib.c ****         }
  30:Core/Src/MazeLib.c ****     }
ARM GAS  /var/folders/v_/kwz_t0cs68g1q1d733r227b80000gn/T//cc7enlx9.s 			page 2


  31:Core/Src/MazeLib.c ****     for(int i=0; i < NUMBER_OF_SQUARES_X+1; i++)
  32:Core/Src/MazeLib.c ****     {
  33:Core/Src/MazeLib.c ****         for(int j=0; j < NUMBER_OF_SQUARES_Y; j++)
  34:Core/Src/MazeLib.c ****         {
  35:Core/Src/MazeLib.c ****             maze->ColumnNode[i][j].weight = MAX_WEIGHT;
  36:Core/Src/MazeLib.c ****         }
  37:Core/Src/MazeLib.c ****     }
  38:Core/Src/MazeLib.c **** }
  39:Core/Src/MazeLib.c **** void initMaze(maze_node *maze) //é‡ã¿ã¯åˆ¥ã§åˆæœŸåŒ–
  40:Core/Src/MazeLib.c **** {
  41:Core/Src/MazeLib.c ****     //ã¾ãšæœªæ¢ç´¢çŠ¶æ…‹ã«ã™ã‚‹
  42:Core/Src/MazeLib.c ****     for(int i=0; i < NUMBER_OF_SQUARES_X; i++)
  43:Core/Src/MazeLib.c ****     {
  44:Core/Src/MazeLib.c ****         for(int j=1; j < NUMBER_OF_SQUARES_Y; j++)
  45:Core/Src/MazeLib.c ****         {
  46:Core/Src/MazeLib.c ****             maze->RawNode[i][j].existence = UNKNOWN;
  47:Core/Src/MazeLib.c ****             maze->RawNode[i][j].draw = false;//æœªçŸ¥å£ã¯æç”»ã®ã¨ãã«ç„¡ã„ã‚‚ã®ã¨ã™ã‚‹
  48:Core/Src/MazeLib.c ****             maze->RawNode[i][j].rc = 0;
  49:Core/Src/MazeLib.c ****             maze->RawNode[i][j].pos.x = i;
  50:Core/Src/MazeLib.c ****             maze->RawNode[i][j].pos.y = j;
  51:Core/Src/MazeLib.c **** //            maze->RawNode[i][j].visit = false;
  52:Core/Src/MazeLib.c ****         }
  53:Core/Src/MazeLib.c ****     }
  54:Core/Src/MazeLib.c ****     for(int i=0; i < NUMBER_OF_SQUARES_X; i++) //å¤–å£
  55:Core/Src/MazeLib.c ****     {
  56:Core/Src/MazeLib.c ****             maze->RawNode[i][0].existence = WALL;
  57:Core/Src/MazeLib.c ****             maze->RawNode[i][0].draw = true;//æœªçŸ¥å£ã¯æç”»ã®ã¨ãã«ç„¡ã„ã‚‚ã®ã¨ã™ã‚‹
  58:Core/Src/MazeLib.c ****             maze->RawNode[i][0].rc = 0;
  59:Core/Src/MazeLib.c ****             maze->RawNode[i][0].pos.x = i;
  60:Core/Src/MazeLib.c ****             maze->RawNode[i][0].pos.y = 0;
  61:Core/Src/MazeLib.c **** //            maze->RawNode[i][0].visit = true; //ä¾¿å®œçš„ã«è¨ªå•æ¸ˆã¿ã¨ã™ã‚‹
  62:Core/Src/MazeLib.c ****             maze->RawNode[i][NUMBER_OF_SQUARES_Y].existence = WALL;
  63:Core/Src/MazeLib.c ****             maze->RawNode[i][NUMBER_OF_SQUARES_Y].draw = true;//æœªçŸ¥å£ã¯æç”»ã®ã¨ãã«ç„¡ã
  64:Core/Src/MazeLib.c ****             maze->RawNode[i][NUMBER_OF_SQUARES_Y].rc = 0;
  65:Core/Src/MazeLib.c ****             maze->RawNode[i][NUMBER_OF_SQUARES_Y].pos.x = i;
  66:Core/Src/MazeLib.c ****             maze->RawNode[i][NUMBER_OF_SQUARES_Y].pos.y = NUMBER_OF_SQUARES_Y;
  67:Core/Src/MazeLib.c **** //            maze->RawNode[i][NUMBER_OF_SQUARES_Y].visit = true; //ä¾¿å®œçš„ã«è¨ªå•æ¸ˆã¿ã¨ã™ã
  68:Core/Src/MazeLib.c ****     }
  69:Core/Src/MazeLib.c ****     for(int i=1; i < NUMBER_OF_SQUARES_X; i++)
  70:Core/Src/MazeLib.c ****     {
  71:Core/Src/MazeLib.c ****         for(int j=0; j < NUMBER_OF_SQUARES_Y; j++)
  72:Core/Src/MazeLib.c ****         {
  73:Core/Src/MazeLib.c ****             maze->ColumnNode[i][j].existence = UNKNOWN;
  74:Core/Src/MazeLib.c ****             maze->ColumnNode[i][j].draw = false;
  75:Core/Src/MazeLib.c ****             maze->ColumnNode[i][j].rc = 1;
  76:Core/Src/MazeLib.c ****             maze->ColumnNode[i][j].pos.x = i;
  77:Core/Src/MazeLib.c ****             maze->ColumnNode[i][j].pos.y = j;
  78:Core/Src/MazeLib.c **** //            maze->ColumnNode[i][j].visit = false;
  79:Core/Src/MazeLib.c ****         }
  80:Core/Src/MazeLib.c ****     }
  81:Core/Src/MazeLib.c ****     for(int j=0; j < NUMBER_OF_SQUARES_Y; j++)
  82:Core/Src/MazeLib.c ****     {
  83:Core/Src/MazeLib.c ****             maze->ColumnNode[0][j].existence = WALL;
  84:Core/Src/MazeLib.c ****             maze->ColumnNode[0][j].draw = true;
  85:Core/Src/MazeLib.c ****             maze->ColumnNode[0][j].rc = 1;
  86:Core/Src/MazeLib.c ****             maze->ColumnNode[0][j].pos.x = 0;
  87:Core/Src/MazeLib.c ****             maze->ColumnNode[0][j].pos.y = j;
ARM GAS  /var/folders/v_/kwz_t0cs68g1q1d733r227b80000gn/T//cc7enlx9.s 			page 3


  88:Core/Src/MazeLib.c **** //            maze->ColumnNode[0][j].visit = true;
  89:Core/Src/MazeLib.c ****             maze->ColumnNode[NUMBER_OF_SQUARES_X][j].existence = WALL;
  90:Core/Src/MazeLib.c ****             maze->ColumnNode[NUMBER_OF_SQUARES_X][j].draw = true;
  91:Core/Src/MazeLib.c ****             maze->ColumnNode[NUMBER_OF_SQUARES_X][j].rc = 1;
  92:Core/Src/MazeLib.c ****             maze->ColumnNode[NUMBER_OF_SQUARES_X][j].pos.x = NUMBER_OF_SQUARES_X;
  93:Core/Src/MazeLib.c ****             maze->ColumnNode[NUMBER_OF_SQUARES_X][j].pos.y = j;
  94:Core/Src/MazeLib.c **** //            maze->ColumnNode[NUMBER_OF_SQUARES_X][j].visit = true;
  95:Core/Src/MazeLib.c ****     }
  96:Core/Src/MazeLib.c ****     
  97:Core/Src/MazeLib.c **** //    // å£ã®æœ‰ç„¡ã‚’åˆæœŸåŒ–
  98:Core/Src/MazeLib.c **** //    for(int i=0; i < NUMBER_OF_SQUARES_X; i++)
  99:Core/Src/MazeLib.c **** //    {
 100:Core/Src/MazeLib.c **** //        maze->RawNode[i][0].existence = WALL;                       //å—å£ã™ã¹ã¦1
 101:Core/Src/MazeLib.c **** //        maze->RawNode[i][NUMBER_OF_SQUARES_Y].existence = WALL;     //åŒ—å£ã™ã¹ã¦1
 102:Core/Src/MazeLib.c **** //
 103:Core/Src/MazeLib.c **** //        maze->RawNode[i][0].draw = true;
 104:Core/Src/MazeLib.c **** //        maze->RawNode[i][NUMBER_OF_SQUARES_Y].draw = true;
 105:Core/Src/MazeLib.c **** //
 106:Core/Src/MazeLib.c **** //        maze->RawNode[i][0].rc = 0;
 107:Core/Src/MazeLib.c **** //        maze->RawNode[i][NUMBER_OF_SQUARES_Y].rc = 0;
 108:Core/Src/MazeLib.c **** //
 109:Core/Src/MazeLib.c **** //        maze->RawNode[i][0].pos.x = i;
 110:Core/Src/MazeLib.c **** //        maze->RawNode[i][0].pos.y = 0;
 111:Core/Src/MazeLib.c **** //        maze->RawNode[i][NUMBER_OF_SQUARES_Y].pos.x = i;
 112:Core/Src/MazeLib.c **** //        maze->RawNode[i][NUMBER_OF_SQUARES_Y].pos.y = NUMBER_OF_SQUARES_Y;
 113:Core/Src/MazeLib.c **** //    }
 114:Core/Src/MazeLib.c **** //    for(int j=0; j < NUMBER_OF_SQUARES_Y; j++)
 115:Core/Src/MazeLib.c **** //    {
 116:Core/Src/MazeLib.c **** //        maze->ColumnNode[0][j].existence = WALL;                    //è¥¿å£ã™ã¹ã¦1
 117:Core/Src/MazeLib.c **** //        maze->ColumnNode[NUMBER_OF_SQUARES_X][j].existence = WALL;  //æ±å£ã™ã¹ã¦1
 118:Core/Src/MazeLib.c **** //
 119:Core/Src/MazeLib.c **** //        maze->ColumnNode[0][j].draw = true;
 120:Core/Src/MazeLib.c **** //        maze->ColumnNode[NUMBER_OF_SQUARES_X][j].draw = true;
 121:Core/Src/MazeLib.c **** //
 122:Core/Src/MazeLib.c **** //        maze->ColumnNode[0][j].rc = 1;
 123:Core/Src/MazeLib.c **** //        maze->ColumnNode[NUMBER_OF_SQUARES_X][j].rc = 1;
 124:Core/Src/MazeLib.c **** //
 125:Core/Src/MazeLib.c **** //        maze->ColumnNode[0][j].pos.x = 0;
 126:Core/Src/MazeLib.c **** //        maze->ColumnNode[0][j].pos.y = j;
 127:Core/Src/MazeLib.c **** //        maze->ColumnNode[NUMBER_OF_SQUARES_X][j].pos.x = NUMBER_OF_SQUARES_X;
 128:Core/Src/MazeLib.c **** //        maze->ColumnNode[NUMBER_OF_SQUARES_X][j].pos.y = j;
 129:Core/Src/MazeLib.c **** //    }
 130:Core/Src/MazeLib.c ****     maze->ColumnNode[1][0].existence = WALL;    //æ±1
 131:Core/Src/MazeLib.c ****     maze->RawNode[0][1].existence = NOWALL;     //åŒ—0
 132:Core/Src/MazeLib.c **** 
 133:Core/Src/MazeLib.c ****     maze->ColumnNode[1][0].draw = true;    //æ±1
 134:Core/Src/MazeLib.c ****     maze->RawNode[0][1].draw = false;     //åŒ—0
 135:Core/Src/MazeLib.c **** 
 136:Core/Src/MazeLib.c ****     //visitã¯ã€å£ãŒã‚ã‚‹ã¨ã“ã‚ã¨è¨ªå•æ¸ˆã¿ã®ã¨ã“ã‚ã‚’1ã€ã¾ã ã®ã¨ã“ã‚ã‚’0
 137:Core/Src/MazeLib.c **** //    maze->ColumnNode[1][0].visit = true;    //æ±1
 138:Core/Src/MazeLib.c **** //	maze->RawNode[0][1].visit = false;     //åŒ—0
 139:Core/Src/MazeLib.c **** }
 140:Core/Src/MazeLib.c **** void initTargetAreaWeight(maze_node *maze, uint8_t x, uint8_t y, uint8_t target_size_x, uint8_t tar
 141:Core/Src/MazeLib.c **** {
 142:Core/Src/MazeLib.c ****     //ã‚´ãƒ¼ãƒ«ã‚¨ãƒªã‚¢ã®å¤–å €ã¨ä¸­ã®ãƒãƒ¼ãƒ‰ã¯å…¨ã¦0ã€å£ãŒã‚ã‚Œã°MAXã€‚
 143:Core/Src/MazeLib.c ****     for(int i=0; i < target_size_x; i++)
 144:Core/Src/MazeLib.c ****     {
ARM GAS  /var/folders/v_/kwz_t0cs68g1q1d733r227b80000gn/T//cc7enlx9.s 			page 4


 145:Core/Src/MazeLib.c ****         for(int j=0; j < target_size_y; j++)
 146:Core/Src/MazeLib.c ****         {
 147:Core/Src/MazeLib.c ****             // maze->RawNode[x+i][y+1+j].weight = (maze->RawNode[x+i][y+1+j].weight == MAX_WEIGHT) 
 148:Core/Src/MazeLib.c ****             // maze->ColumnNode[x+1+i][y+j].weight = (maze->ColumnNode[x+1+i][y+j].weight == MAX_WE
 149:Core/Src/MazeLib.c ****             // maze->RawNode[x+i][y+j].weight = (maze->RawNode[x+i][y+j].weight == MAX_WEIGHT) ? MA
 150:Core/Src/MazeLib.c ****             // maze->ColumnNode[x+i][y+j].weight = (maze->ColumnNode[x+i][y+j].weight == MAX_WEIGHT
 151:Core/Src/MazeLib.c **** 
 152:Core/Src/MazeLib.c ****         	//ãªãœdraw == trueã§ã‚„ã£ã¦ã„ãŸã‹ã‚ã‹ã‚‰ãªã„
 153:Core/Src/MazeLib.c ****             maze->RawNode[x+i][y+1+j].weight = (maze->RawNode[x+i][y+1+j].existence == WALL) ? MAX_
 154:Core/Src/MazeLib.c ****             maze->ColumnNode[x+1+i][y+j].weight = (maze->ColumnNode[x+1+i][y+j].existence == WALL) 
 155:Core/Src/MazeLib.c ****             maze->RawNode[x+i][y+j].weight = (maze->RawNode[x+i][y+j].existence == WALL) ? MAX_WEIG
 156:Core/Src/MazeLib.c ****             maze->ColumnNode[x+i][y+j].weight = (maze->ColumnNode[x+i][y+j].existence == WALL) ? MA
 157:Core/Src/MazeLib.c ****         }
 158:Core/Src/MazeLib.c ****     }
 159:Core/Src/MazeLib.c **** }
 160:Core/Src/MazeLib.c **** 
 161:Core/Src/MazeLib.c **** //å¤–ã‹ã‚‰ã‚¢ã‚¯ã‚»ã‚¹ã™ã‚‹é–¢æ•°. xyã«åˆ¶é™ãŒå¿…è¦
 162:Core/Src/MazeLib.c **** _Bool setExistanceRawNode(maze_node *maze, uint8_t x, uint8_t y, wall_state et)
 163:Core/Src/MazeLib.c **** {
 164:Core/Src/MazeLib.c ****     if(x >= NUMBER_OF_SQUARES_X || y >= NUMBER_OF_SQUARES_Y || x < 0 || y < 0)
 165:Core/Src/MazeLib.c ****     {
 166:Core/Src/MazeLib.c ****         return false;
 167:Core/Src/MazeLib.c ****     }
 168:Core/Src/MazeLib.c ****     else
 169:Core/Src/MazeLib.c ****     {
 170:Core/Src/MazeLib.c ****         maze->RawNode[x][y].existence = et;
 171:Core/Src/MazeLib.c ****         // maze->RawNode[x][y].flag = true;
 172:Core/Src/MazeLib.c ****         return true;
 173:Core/Src/MazeLib.c ****     }
 174:Core/Src/MazeLib.c **** }
 175:Core/Src/MazeLib.c **** _Bool setExistanceColumnNode(maze_node *maze, uint8_t x, uint8_t y, wall_state et)
 176:Core/Src/MazeLib.c **** {
 177:Core/Src/MazeLib.c ****     if(x >= NUMBER_OF_SQUARES_X || y >= NUMBER_OF_SQUARES_Y || x < 0 || y < 0)
 178:Core/Src/MazeLib.c ****     {
 179:Core/Src/MazeLib.c ****         return false;
 180:Core/Src/MazeLib.c ****     }
 181:Core/Src/MazeLib.c ****     else
 182:Core/Src/MazeLib.c ****     {
 183:Core/Src/MazeLib.c ****         maze->ColumnNode[x][y].existence = et;
 184:Core/Src/MazeLib.c ****         // maze->ColumnNode[x][y].flag = true;
 185:Core/Src/MazeLib.c ****         return true;
 186:Core/Src/MazeLib.c ****     }
 187:Core/Src/MazeLib.c **** }
 188:Core/Src/MazeLib.c **** 
 189:Core/Src/MazeLib.c **** _Bool setWeightRawNode(maze_node *maze, uint8_t x, uint8_t y, uint16_t wt)
 190:Core/Src/MazeLib.c **** {
 191:Core/Src/MazeLib.c ****     if(x >= NUMBER_OF_SQUARES_X || y >= NUMBER_OF_SQUARES_Y || x < 0 || y < 0 || (wt < 0 || MAX_WEI
 192:Core/Src/MazeLib.c ****     {
 193:Core/Src/MazeLib.c ****         return false;
 194:Core/Src/MazeLib.c ****     }
 195:Core/Src/MazeLib.c ****     else
 196:Core/Src/MazeLib.c ****     {
 197:Core/Src/MazeLib.c ****         maze->RawNode[x][y].weight = wt;
 198:Core/Src/MazeLib.c ****         return true;
 199:Core/Src/MazeLib.c ****     }
 200:Core/Src/MazeLib.c **** }
 201:Core/Src/MazeLib.c **** _Bool setWeightColumnNode(maze_node *maze, uint8_t x, uint8_t y, uint16_t wt)
ARM GAS  /var/folders/v_/kwz_t0cs68g1q1d733r227b80000gn/T//cc7enlx9.s 			page 5


 202:Core/Src/MazeLib.c **** {
 203:Core/Src/MazeLib.c ****     if(x >= NUMBER_OF_SQUARES_X || y >= NUMBER_OF_SQUARES_Y || x < 0 || y < 0 || (wt < 0 || MAX_WEI
 204:Core/Src/MazeLib.c ****     {
 205:Core/Src/MazeLib.c ****         return false;
 206:Core/Src/MazeLib.c ****     }
 207:Core/Src/MazeLib.c ****     else
 208:Core/Src/MazeLib.c ****     {
 209:Core/Src/MazeLib.c ****         maze->ColumnNode[x][y].weight = wt;
 210:Core/Src/MazeLib.c ****         return true;
 211:Core/Src/MazeLib.c ****     }
 212:Core/Src/MazeLib.c **** }
 213:Core/Src/MazeLib.c **** 
 214:Core/Src/MazeLib.c **** #define WEIGHT_NANAME   3
 215:Core/Src/MazeLib.c **** #define WEIGHT_STRAIGHT 1
 216:Core/Src/MazeLib.c **** 
 217:Core/Src/MazeLib.c **** void updateAllNodeWeight(maze_node *maze, uint8_t x, uint8_t y, uint8_t area_size_x, uint8_t area_s
 218:Core/Src/MazeLib.c **** {
 219:Core/Src/MazeLib.c **** 	//å…¨ä½“ã«154/20ms = 7.7ms
 220:Core/Src/MazeLib.c ****     //æ–°ã—ã„åŒºç”»ã«å…¥ã£ãŸã¨ãã«ã€æ›´æ–°
 221:Core/Src/MazeLib.c **** 
 222:Core/Src/MazeLib.c ****     initWeight(maze); //3/20ms
 223:Core/Src/MazeLib.c **** 
 224:Core/Src/MazeLib.c ****     initTargetAreaWeight(maze, x,y, area_size_x,area_size_y);
 225:Core/Src/MazeLib.c **** 
 226:Core/Src/MazeLib.c ****     //é‡ã¿ã®è¨ˆç®—é–‹å§‹ã¯ã‚´ãƒ¼ãƒ«ã‚¨ãƒªã‚¢ã®ãƒãƒ¼ãƒ‰ã‹ã¤é‡ã¿ãŒ0ã®ã‚‚ã®
 227:Core/Src/MazeLib.c ****         //è¶³ç«‹æ³•ã§ã‚´ãƒ¼ãƒ«ã—ãŸã‚‰ã‚´ãƒ¼ãƒ«ã‚¨ãƒªã‚¢ã®é‡ã¿0ã®ãƒãƒ¼ãƒ‰ãŒå›ºå®šã•ã‚Œã‚‹.
 228:Core/Src/MazeLib.c ****         //ä¸€å›ç›®ã¯ã€é‡ã¿0ã®ãƒãƒ¼ãƒ‰ã‚’ã©ã†ã™ã‚‹ã‹.(ä¸­ã¯å£ãŒãªã„ã“ã¨ãŒç¢ºå®šã
 229:Core/Src/MazeLib.c ****     //ãƒãƒ¼ãƒ‰ã®åº§æ¨™ã®å·®ã‚’è¦‹ã¦ã€æ–œã‚ã‹ç›´é€²ã‹ã‚’æ±ºã‚ã‚‹
 230:Core/Src/MazeLib.c ****     //ã‚¿ãƒ¼ã‚²ãƒƒãƒˆã¨ã™ã‚‹ã‚¨ãƒªã‚¢ã®ã‚µã‚¤ã‚ºæƒ…å ±ãŒã„ã‚‹
 231:Core/Src/MazeLib.c ****     //ã‚¹ã‚¿ãƒ¼ãƒˆã¯ã‚¿ãƒ¼ã‚²ãƒƒãƒˆã‚¨ãƒªã‚¢ã®å¤–å €ãƒãƒ¼ãƒ‰
 232:Core/Src/MazeLib.c ****     //6å€‹å‚ç…§ã—ã¦
 233:Core/Src/MazeLib.c **** 
 234:Core/Src/MazeLib.c ****     //printf("é‡ã¿å…¨ä½“ã®æ›´æ–°\r\n");
 235:Core/Src/MazeLib.c **** //	timer8 = 0;
 236:Core/Src/MazeLib.c **** //	t = 0;
 237:Core/Src/MazeLib.c **** //	HAL_TIM_Base_Start_IT(&htim8);
 238:Core/Src/MazeLib.c **** //	t = 1;
 239:Core/Src/MazeLib.c ****     int i,j; //ã‚³ãƒ³ãƒ‘ã‚¤ãƒ©ã‚ªãƒ—ã‚·ãƒ§ãƒ³ã§-Ofastã‚’ä»˜ã‘ã‚Œã°ã€registerä¿®é£¾å­ã¯è¦ã‚‰ã
 240:Core/Src/MazeLib.c ****     _Bool change_flag;
 241:Core/Src/MazeLib.c ****     int skip_raw=0, skip_column=0;
 242:Core/Src/MazeLib.c ****     //ã›ã£ã‹ãdowhileãªã‚“ã ã‹ã‚‰ã€ã©ã“ã‹ã‚‰æ›´æ–°ã™ã‚‹ã‹ã‚’ã†ã¾ãæ“ã‚Œã°ã€conti
 243:Core/Src/MazeLib.c ****     //i,jã˜ã‚ƒãªãã¦ã€å¤‰æ•°ã‚’4ã¤ç”¨æ„ã™ã‚‹
 244:Core/Src/MazeLib.c ****     //rawã«2ã¤ã€columnã«2ã¤
 245:Core/Src/MazeLib.c ****     //int rx=x + area_size_x, ry=y + area_size_y, cx=x + area_size_x, cy=y + area_size_y;
 246:Core/Src/MazeLib.c ****     //ã‚´ãƒ¼ãƒ«åº§æ¨™ã‚’åˆæœŸãƒãƒ¼ãƒ‰ã¨ã—ã¦ã€è¿‘è¾ºã®æ›´æ–°ã•ã‚ŒãŸãƒãƒ¼ãƒ‰ã®ã„ãšã‚Œã‹
 247:Core/Src/MazeLib.c **** 
 248:Core/Src/MazeLib.c **** 	do //(6,9)(7,10)ã«å¯¾ã—ã¦ã€7,11ãŒãŠã‹ã—ã„ã€‚
 249:Core/Src/MazeLib.c **** 	{
 250:Core/Src/MazeLib.c **** 		change_flag = false;				//å¤‰æ›´ãŒãªã‹ã£ãŸå ´åˆã«ã¯ãƒ«ãƒ¼ãƒ—ã‚’æŠœã‘ã‚‹
 251:Core/Src/MazeLib.c **** //		if(rx == NUMBER_OF_SQUARES_X) rx =0;
 252:Core/Src/MazeLib.c **** //		if(ry == NUMBER_OF_SQUARES_Y) ry =1;
 253:Core/Src/MazeLib.c **** //		if(cx == NUMBER_OF_SQUARES_X) cx =1;
 254:Core/Src/MazeLib.c **** //		if(cy == NUMBER_OF_SQUARES_Y) cy =0;
 255:Core/Src/MazeLib.c **** 
 256:Core/Src/MazeLib.c **** 		//
 257:Core/Src/MazeLib.c **** 		//1é€±ç›®ã§ç¸¦æ¨ªä¸¡æ–¹ã‚„ã‚‰ãªã„ã¨ã ã‚
 258:Core/Src/MazeLib.c ****         //åˆ—
ARM GAS  /var/folders/v_/kwz_t0cs68g1q1d733r227b80000gn/T//cc7enlx9.s 			page 6


 259:Core/Src/MazeLib.c ****         for(i = 1; i < NUMBER_OF_SQUARES_X; i++)
 260:Core/Src/MazeLib.c **** 		{
 261:Core/Src/MazeLib.c **** 			for( j = 0; j < NUMBER_OF_SQUARES_Y; j++)
 262:Core/Src/MazeLib.c **** 			{
 263:Core/Src/MazeLib.c ****                 if(maze->ColumnNode[i][j].weight == MAX_WEIGHT)		//MAXã®å ´åˆã¯æ¬¡ã¸
 264:Core/Src/MazeLib.c **** 				{
 265:Core/Src/MazeLib.c ****                 	skip_column++;
 266:Core/Src/MazeLib.c **** 					continue;
 267:Core/Src/MazeLib.c **** 				}
 268:Core/Src/MazeLib.c ****                 // printf("continueã¯ã‚¯ãƒªã‚¢. Column[%d][%d]\r\n",i,j);
 269:Core/Src/MazeLib.c **** 
 270:Core/Src/MazeLib.c ****                 //æ±å´ãƒãƒ¼ãƒ‰
 271:Core/Src/MazeLib.c **** 				if(i < NUMBER_OF_SQUARES_X-1)					//ç¯„å›²ãƒã‚§ãƒƒã‚¯
 272:Core/Src/MazeLib.c **** 				{
 273:Core/Src/MazeLib.c ****                     // printf("åˆ—æ±%d,mask: %d, result: %d\r\n",maze->ColumnNode[i+1][j].existenc
 274:Core/Src/MazeLib.c **** 					if( ((maze->ColumnNode[i+1][j].existence & mask) == NOWALL) && (maze->ColumnNode[i+1][j].weigh
 275:Core/Src/MazeLib.c **** 					{
 276:Core/Src/MazeLib.c **** 						maze->ColumnNode[i+1][j].weight = maze->ColumnNode[i][j].weight + WEIGHT_STRAIGHT;	//å€¤ã‚’ä»
 277:Core/Src/MazeLib.c **** 						change_flag = true;		//å€¤ãŒæ›´æ–°ã•ã‚ŒãŸã“ã¨ã‚’ç¤ºã™
 278:Core/Src/MazeLib.c **** 					}
 279:Core/Src/MazeLib.c ****                 }
 280:Core/Src/MazeLib.c ****                 //è¥¿å´ãƒãƒ¼ãƒ‰
 281:Core/Src/MazeLib.c **** 				if(1 < i)						//ç¯„å›²ãƒã‚§ãƒƒã‚¯
 282:Core/Src/MazeLib.c **** 				{
 283:Core/Src/MazeLib.c **** 					if( ((maze->ColumnNode[i-1][j].existence & mask) == NOWALL) && (maze->ColumnNode[i-1][j].weigh
 284:Core/Src/MazeLib.c **** 					{
 285:Core/Src/MazeLib.c **** 						maze->ColumnNode[i-1][j].weight = maze->ColumnNode[i][j].weight + WEIGHT_STRAIGHT;	//å€¤ã‚’ä»
 286:Core/Src/MazeLib.c **** 						change_flag = true;		//å€¤ãŒæ›´æ–°ã•ã‚ŒãŸã“ã¨ã‚’ç¤ºã™
 287:Core/Src/MazeLib.c **** 					}
 288:Core/Src/MazeLib.c **** 				}
 289:Core/Src/MazeLib.c ****                 //åŒ—å´ã«æ–œã‚ãŒ2æ–¹å‘
 290:Core/Src/MazeLib.c **** 				if(j < NUMBER_OF_SQUARES_Y-1)					//ç¯„å›²ãƒã‚§ãƒƒã‚¯
 291:Core/Src/MazeLib.c **** 				{
 292:Core/Src/MazeLib.c ****                     //åŒ—æ±
 293:Core/Src/MazeLib.c **** 					if(i < NUMBER_OF_SQUARES_X)
 294:Core/Src/MazeLib.c **** 					{
 295:Core/Src/MazeLib.c **** 						if( ((maze->RawNode[i][j+1].existence & mask) == NOWALL) && (maze->RawNode[i][j+1].weight == 
 296:Core/Src/MazeLib.c **** 						{
 297:Core/Src/MazeLib.c **** 							maze->RawNode[i][j+1].weight = maze->ColumnNode[i][j].weight + WEIGHT_NANAME;	//å€¤ã‚’ä»£å…¥
 298:Core/Src/MazeLib.c **** 							change_flag = true;		//å€¤ãŒæ›´æ–°ã•ã‚ŒãŸã“ã¨ã‚’ç¤ºã™
 299:Core/Src/MazeLib.c **** 						}
 300:Core/Src/MazeLib.c **** 					}
 301:Core/Src/MazeLib.c ****                     //åŒ—è¥¿
 302:Core/Src/MazeLib.c **** 					if(0 < i)
 303:Core/Src/MazeLib.c **** 					{
 304:Core/Src/MazeLib.c **** 						if( ((maze->RawNode[i-1][j+1].existence & mask) == NOWALL) && (maze->RawNode[i-1][j+1].weight
 305:Core/Src/MazeLib.c **** 						{
 306:Core/Src/MazeLib.c **** 							maze->RawNode[i-1][j+1].weight = maze->ColumnNode[i][j].weight + WEIGHT_NANAME;	//å€¤ã‚’ä»£å
 307:Core/Src/MazeLib.c **** 							change_flag = true;		//å€¤ãŒæ›´æ–°ã•ã‚ŒãŸã“ã¨ã‚’ç¤ºã™
 308:Core/Src/MazeLib.c **** 						}
 309:Core/Src/MazeLib.c **** 					}
 310:Core/Src/MazeLib.c **** 				}
 311:Core/Src/MazeLib.c **** 
 312:Core/Src/MazeLib.c ****                 //å—å´ã«æ–œã‚ãŒ2æ–¹å‘
 313:Core/Src/MazeLib.c **** 				if(0 < j)
 314:Core/Src/MazeLib.c **** 				{
 315:Core/Src/MazeLib.c **** 					if( i < NUMBER_OF_SQUARES_X )//j > 0)						//ç¯„å›²ãƒã‚§ãƒƒã‚¯
ARM GAS  /var/folders/v_/kwz_t0cs68g1q1d733r227b80000gn/T//cc7enlx9.s 			page 7


 316:Core/Src/MazeLib.c **** 					{
 317:Core/Src/MazeLib.c **** 						//å—æ±
 318:Core/Src/MazeLib.c **** 						if( ((maze->RawNode[i][j].existence & mask) == NOWALL) && (maze->RawNode[i][j].weight == MAX_
 319:Core/Src/MazeLib.c **** 						{
 320:Core/Src/MazeLib.c **** 							maze->RawNode[i][j].weight = maze->ColumnNode[i][j].weight + WEIGHT_NANAME;	//å€¤ã‚’ä»£å…¥
 321:Core/Src/MazeLib.c **** 							change_flag = true;		//å€¤ãŒæ›´æ–°ã•ã‚ŒãŸã“ã¨ã‚’ç¤ºã™
 322:Core/Src/MazeLib.c **** 						}
 323:Core/Src/MazeLib.c **** 					}
 324:Core/Src/MazeLib.c **** 					if(0 < i ){
 325:Core/Src/MazeLib.c **** 						//å—è¥¿
 326:Core/Src/MazeLib.c **** 						if( ((maze->RawNode[i-1][j].existence & mask) == NOWALL) && (maze->RawNode[i-1][j].weight == 
 327:Core/Src/MazeLib.c **** 						{
 328:Core/Src/MazeLib.c **** 								maze->RawNode[i-1][j].weight = maze->ColumnNode[i][j].weight + WEIGHT_NANAME;	//å€¤ã‚’ä»£å…
 329:Core/Src/MazeLib.c **** 								change_flag = true;		//å€¤ãŒæ›´æ–°ã•ã‚ŒãŸã“ã¨ã‚’ç¤ºã™
 330:Core/Src/MazeLib.c **** 						}
 331:Core/Src/MazeLib.c **** 					}
 332:Core/Src/MazeLib.c **** 				}
 333:Core/Src/MazeLib.c ****             }
 334:Core/Src/MazeLib.c ****         }
 335:Core/Src/MazeLib.c ****         //è¡Œã¨åˆ—ã§ã‚ã‘ã¦ã€ä¸€å‘¨
 336:Core/Src/MazeLib.c ****          //è¡Œã‹ã‚‰
 337:Core/Src/MazeLib.c ****  		for( i = 0; i < NUMBER_OF_SQUARES_X; i++)			//è¿·è·¯ã®å¤§ãã•åˆ†ãƒ«ãƒ¼ãƒ—(xåº§æ¨™)
 338:Core/Src/MazeLib.c ****  		{
 339:Core/Src/MazeLib.c ****  			for(j = 1; j < NUMBER_OF_SQUARES_Y; j++)		//è¿·è·¯ã®å¤§ãã•åˆ†ãƒ«ãƒ¼ãƒ—(yåº§æ¨™)
 340:Core/Src/MazeLib.c ****  			{
 341:Core/Src/MazeLib.c ****                  //1ãƒãƒ¼ãƒ‰ãšã¤è¦‹ã‚‹.ãã“ã‹ã‚‰åŠ ç®—å¯¾è±¡ãŒæœ€å¤§6å€‹
 342:Core/Src/MazeLib.c ****                  //ç«¯ã‚’è¦‹ãªã„ã®ã§ã€ä¸€ç•ªä¸Šã®åˆ—ã‹ã‚‰ã‚¹ã‚¿ãƒ¼ãƒˆ j=N; j >= 0, xã‚’1ã‹ã
 343:Core/Src/MazeLib.c ****                  //æ¬¡ã«è¡Œ j=N-1ã‹ã‚‰1ã¾ã§ xã‚’0ã‹ã‚‰N-1ã¾ã§
 344:Core/Src/MazeLib.c ****  				if(maze->RawNode[i][j].weight == MAX_WEIGHT)		//MAXã®å ´åˆã¯æ¬¡ã¸
 345:Core/Src/MazeLib.c ****  				{
 346:Core/Src/MazeLib.c ****  					skip_raw ++;
 347:Core/Src/MazeLib.c ****  					continue;
 348:Core/Src/MazeLib.c ****  				}
 349:Core/Src/MazeLib.c ****  				// printf("continueã¯ã‚¯ãƒªã‚¢. Raw[%d][%d]\r\n",i,j);
 350:Core/Src/MazeLib.c ****                  //åŒ—å´ãƒãƒ¼ãƒ‰
 351:Core/Src/MazeLib.c ****  				if(j < NUMBER_OF_SQUARES_Y-1)   //ç¯„å›²ãƒã‚§ãƒƒã‚¯. åº§æ¨™ã®xyã§ã¯ãªãã€ãƒãƒ¼ãƒ‰ã®xy
 352:Core/Src/MazeLib.c ****  				{
 353:Core/Src/MazeLib.c ****  					if( ((maze->RawNode[i][j+1].existence & mask) == NOWALL) && (maze->RawNode[i][j+1].weight == 
 354:Core/Src/MazeLib.c ****  					{
 355:Core/Src/MazeLib.c ****  						maze->RawNode[i][j+1].weight = maze->RawNode[i][j].weight + WEIGHT_STRAIGHT;	//å€¤ã‚’ä»£å…¥
 356:Core/Src/MazeLib.c ****  						change_flag = true;		//å€¤ãŒæ›´æ–°ã•ã‚ŒãŸã“ã¨ã‚’ç¤ºã™
 357:Core/Src/MazeLib.c ****  					}
 358:Core/Src/MazeLib.c ****                  }
 359:Core/Src/MazeLib.c ****                  //å—å´ãƒãƒ¼ãƒ‰
 360:Core/Src/MazeLib.c ****  				if(j > 1)						//ç¯„å›²ãƒã‚§ãƒƒã‚¯.ãƒŸã‚¹ã£ã¦ãŸ
 361:Core/Src/MazeLib.c ****  				{
 362:Core/Src/MazeLib.c ****  					if( ((maze->RawNode[i][j-1].existence & mask) == NOWALL) && (maze->RawNode[i][j-1].weight == 
 363:Core/Src/MazeLib.c ****  					{
 364:Core/Src/MazeLib.c ****  						maze->RawNode[i][j-1].weight = maze->RawNode[i][j].weight + WEIGHT_STRAIGHT;	//å€¤ã‚’ä»£å…¥
 365:Core/Src/MazeLib.c ****  						change_flag = true;		//å€¤ãŒæ›´æ–°ã•ã‚ŒãŸã“ã¨ã‚’ç¤ºã™
 366:Core/Src/MazeLib.c ****  					}
 367:Core/Src/MazeLib.c ****  				}
 368:Core/Src/MazeLib.c ****                  //æ±å´ã«æ–œã‚ãŒ2æ–¹å‘
 369:Core/Src/MazeLib.c ****  				if(i < NUMBER_OF_SQUARES_X-1)					//ç¯„å›²ãƒã‚§ãƒƒã‚¯
 370:Core/Src/MazeLib.c ****  				{
 371:Core/Src/MazeLib.c ****                      //yæ–¹å‘ã®åˆ¶é™ã¯ï¼Ÿ
 372:Core/Src/MazeLib.c ****                      //åŒ—æ±
ARM GAS  /var/folders/v_/kwz_t0cs68g1q1d733r227b80000gn/T//cc7enlx9.s 			page 8


 373:Core/Src/MazeLib.c ****  					if( j < NUMBER_OF_SQUARES_Y )
 374:Core/Src/MazeLib.c ****  					{
 375:Core/Src/MazeLib.c ****  						if( ((maze->ColumnNode[i+1][j].existence & mask) == NOWALL) && (maze->ColumnNode[i+1][j].wei
 376:Core/Src/MazeLib.c ****  						{
 377:Core/Src/MazeLib.c ****  							maze->ColumnNode[i+1][j].weight = maze->RawNode[i][j].weight + WEIGHT_NANAME;	//å€¤ã‚’ä»£å…
 378:Core/Src/MazeLib.c ****  							change_flag = true;		//å€¤ãŒæ›´æ–°ã•ã‚ŒãŸã“ã¨ã‚’ç¤ºã™
 379:Core/Src/MazeLib.c ****  						}
 380:Core/Src/MazeLib.c ****  					}
 381:Core/Src/MazeLib.c ****  					if( 0 < j )
 382:Core/Src/MazeLib.c ****  					{
 383:Core/Src/MazeLib.c ****  						//å—æ±
 384:Core/Src/MazeLib.c ****  						if( ((maze->ColumnNode[i+1][j-1].existence & mask) == NOWALL) && (maze->ColumnNode[i+1][j-1]
 385:Core/Src/MazeLib.c ****  						{
 386:Core/Src/MazeLib.c ****  							maze->ColumnNode[i+1][j-1].weight = maze->RawNode[i][j].weight + WEIGHT_NANAME;	//å€¤ã‚’ä»£
 387:Core/Src/MazeLib.c ****  							change_flag = true;		//å€¤ãŒæ›´æ–°ã•ã‚ŒãŸã“ã¨ã‚’ç¤ºã™
 388:Core/Src/MazeLib.c ****  						}
 389:Core/Src/MazeLib.c ****  					}
 390:Core/Src/MazeLib.c ****  				}
 391:Core/Src/MazeLib.c **** 
 392:Core/Src/MazeLib.c ****                  //è¥¿å´ã«æ–œã‚ãŒ2æ–¹å‘
 393:Core/Src/MazeLib.c ****  				if(i > 0)						//ç¯„å›²ãƒã‚§ãƒƒã‚¯
 394:Core/Src/MazeLib.c ****  				{
 395:Core/Src/MazeLib.c ****                      //åŒ—è¥¿
 396:Core/Src/MazeLib.c ****  					if( j < NUMBER_OF_SQUARES_Y )
 397:Core/Src/MazeLib.c ****  					{
 398:Core/Src/MazeLib.c ****  						if( ((maze->ColumnNode[i][j].existence & mask) == NOWALL)  && (maze->ColumnNode[i][j].weight
 399:Core/Src/MazeLib.c ****  						{
 400:Core/Src/MazeLib.c ****  								maze->ColumnNode[i][j].weight = maze->RawNode[i][j].weight + WEIGHT_NANAME;	//å€¤ã‚’ä»£å…¥
 401:Core/Src/MazeLib.c ****  								change_flag = true;		//å€¤ãŒæ›´æ–°ã•ã‚ŒãŸã“ã¨ã‚’ç¤ºã™
 402:Core/Src/MazeLib.c **** 
 403:Core/Src/MazeLib.c ****  						}
 404:Core/Src/MazeLib.c ****  					}
 405:Core/Src/MazeLib.c ****  					if( 0 < j )
 406:Core/Src/MazeLib.c ****  					{
 407:Core/Src/MazeLib.c ****  						//å—è¥¿
 408:Core/Src/MazeLib.c ****  						if( ((maze->ColumnNode[i][j-1].existence & mask) == NOWALL) && (maze->ColumnNode[i][j-1].wei
 409:Core/Src/MazeLib.c ****  						{
 410:Core/Src/MazeLib.c ****  							maze->ColumnNode[i][j-1].weight = maze->RawNode[i][j].weight + WEIGHT_NANAME;	//å€¤ã‚’ä»£å…
 411:Core/Src/MazeLib.c ****  							change_flag = true;		//å€¤ãŒæ›´æ–°ã•ã‚ŒãŸã“ã¨ã‚’ç¤ºã™
 412:Core/Src/MazeLib.c ****  						}
 413:Core/Src/MazeLib.c ****  					}
 414:Core/Src/MazeLib.c **** 
 415:Core/Src/MazeLib.c ****  				}
 416:Core/Src/MazeLib.c ****  			}
 417:Core/Src/MazeLib.c ****  		}
 418:Core/Src/MazeLib.c ****         //printf("é‡ã¿ã®æ›´æ–°\r\n");//ä¸€å›ã—ã‹å‘¼ã°ã‚Œã¦ã„ãªã„
 419:Core/Src/MazeLib.c ****         //cnt++;
 420:Core/Src/MazeLib.c **** 	}while(change_flag == true);	//å…¨ä½“ã‚’ä½œã‚Šçµ‚ã‚ã‚‹ã¾ã§å¾…ã¤
 421:Core/Src/MazeLib.c **** //    t = 0;
 422:Core/Src/MazeLib.c **** //	HAL_TIM_Base_Stop_IT(&htim8);
 423:Core/Src/MazeLib.c **** //	printf("%d/20ms, %d, %d\r\n\r\n",timer8, skip_raw, skip_column);
 424:Core/Src/MazeLib.c **** }
 425:Core/Src/MazeLib.c **** void updateNodeThree(maze_node *maze, state *st, uint8_t x, uint8_t y)
 426:Core/Src/MazeLib.c **** {
 427:Core/Src/MazeLib.c ****     //å£ã®æœ‰ç„¡ã®æ›´æ–°ã€‚æ—¢çŸ¥ã®å£ã«ã¯ä¸Šæ›¸ãã—ãªã„ã€‚é‡ã¿ã®æ›´æ–°ã¯ï¼Ÿæ—¢çŸ¥ã‹
 428:Core/Src/MazeLib.c ****         //é‡ã¿ã¯ï¼Ÿå£ãŒã‚ã‚Œã°MAXå€¤ã€ãªã‘ã‚Œã°ãã®ã¾ã¾
 429:Core/Src/MazeLib.c ****     maze->RawNode[x][y+1].existence = (maze->RawNode[x][y+1].existence == UNKNOWN) ? st->wall.north
ARM GAS  /var/folders/v_/kwz_t0cs68g1q1d733r227b80000gn/T//cc7enlx9.s 			page 9


 430:Core/Src/MazeLib.c ****     maze->ColumnNode[x+1][y].existence = (maze->ColumnNode[x+1][y].existence == UNKNOWN) ? st->wall
 431:Core/Src/MazeLib.c ****     maze->RawNode[x][y].existence = (maze->RawNode[x][y].existence == UNKNOWN) ? st->wall.south : m
 432:Core/Src/MazeLib.c ****     maze->ColumnNode[x][y].existence = (maze->ColumnNode[x][y].existence == UNKNOWN) ? st->wall.wes
 433:Core/Src/MazeLib.c **** 
 434:Core/Src/MazeLib.c ****     // maze->RawNode[x][y+1].flag = true;      //åŒ—
 435:Core/Src/MazeLib.c ****     // maze->ColumnNode[x+1][y].flag = true;   //æ±
 436:Core/Src/MazeLib.c ****     // maze->RawNode[x][y].flag = true;        //å—
 437:Core/Src/MazeLib.c ****     // maze->ColumnNode[x][y].flag = true;     //è¥¿
 438:Core/Src/MazeLib.c **** 
 439:Core/Src/MazeLib.c ****     maze->RawNode[x][y+1].draw = (maze->RawNode[x][y+1].existence == WALL) ? true : false;         
 440:Core/Src/MazeLib.c ****     maze->ColumnNode[x+1][y].draw = (maze->ColumnNode[x+1][y].existence == WALL) ? true : false;   
 441:Core/Src/MazeLib.c ****     maze->RawNode[x][y].draw = (maze->RawNode[x][y].existence == WALL) ? true : false;             
 442:Core/Src/MazeLib.c ****     maze->ColumnNode[x][y].draw = (maze->ColumnNode[x][y].existence == WALL) ? true : false;       
 443:Core/Src/MazeLib.c **** }
 444:Core/Src/MazeLib.c **** void updateNodeDraw(maze_node *maze, uint8_t x, uint8_t y)
 445:Core/Src/MazeLib.c **** {
 446:Core/Src/MazeLib.c ****     maze->RawNode[x][y+1].draw = maze->RawNode[x][y+1].existence;       //åŒ—
 447:Core/Src/MazeLib.c ****     maze->ColumnNode[x+1][y].draw = maze->ColumnNode[x+1][y].existence; //æ±
 448:Core/Src/MazeLib.c ****     maze->RawNode[x][y].draw = maze->RawNode[x][y].existence;           //å—
 449:Core/Src/MazeLib.c ****     maze->ColumnNode[x][y].draw = maze->ColumnNode[x][y].existence;     //è¥¿
 450:Core/Src/MazeLib.c **** }
 451:Core/Src/MazeLib.c **** static _Bool judgeRawNodeGoal(maze_node *maze, uint8_t x, uint8_t y)
 452:Core/Src/MazeLib.c **** {
  29              		.loc 1 452 1 view -0
  30              		.cfi_startproc
  31              		@ args = 0, pretend = 0, frame = 0
  32              		@ frame_needed = 0, uses_anonymous_args = 0
  33              		@ link register save eliminated.
 453:Core/Src/MazeLib.c ****     //é‡ã¿ãŒ0ã‹ã©ã†ã‹
 454:Core/Src/MazeLib.c ****     if(maze->RawNode[x][y].weight == 0)
  34              		.loc 1 454 5 view .LVU1
  35              		.loc 1 454 27 is_stmt 0 view .LVU2
  36 0000 01EB0113 		add	r3, r1, r1, lsl #4
  37 0004 1344     		add	r3, r3, r2
  38 0006 00EBC300 		add	r0, r0, r3, lsl #3
  39              	.LVL1:
  40              		.loc 1 454 27 view .LVU3
  41 000a 4388     		ldrh	r3, [r0, #2]
  42              		.loc 1 454 7 view .LVU4
  43 000c 4BB9     		cbnz	r3, .L3
 455:Core/Src/MazeLib.c ****     {
 456:Core/Src/MazeLib.c ****         //ã‚´ãƒ¼ãƒ«ãƒãƒ¼ãƒ‰ã§ã‚ã‚‹ã‹ã©ã†ã‹:ãƒã‚¯ãƒ­ä½œã£ãŸ
 457:Core/Src/MazeLib.c **** 
 458:Core/Src/MazeLib.c ****         if ( __JUDGE_GOAL__ (x,y) || __JUDGE_GOAL__(x,y-1) )
  44              		.loc 1 458 9 is_stmt 1 view .LVU5
  45              		.loc 1 458 14 is_stmt 0 view .LVU6
  46 000e 0939     		subs	r1, r1, #9
  47              	.LVL2:
  48              		.loc 1 458 14 view .LVU7
  49 0010 C9B2     		uxtb	r1, r1
  50              		.loc 1 458 12 view .LVU8
  51 0012 0129     		cmp	r1, #1
  52 0014 07D8     		bhi	.L4
  53              		.loc 1 458 35 discriminator 1 view .LVU9
  54 0016 093A     		subs	r2, r2, #9
  55              	.LVL3:
  56              		.loc 1 458 35 discriminator 1 view .LVU10
ARM GAS  /var/folders/v_/kwz_t0cs68g1q1d733r227b80000gn/T//cc7enlx9.s 			page 10


  57 0018 D2B2     		uxtb	r2, r2
  58 001a 022A     		cmp	r2, #2
  59 001c 05D9     		bls	.L5
 459:Core/Src/MazeLib.c ****             return true;
 460:Core/Src/MazeLib.c **** 
 461:Core/Src/MazeLib.c ****         return false;
  60              		.loc 1 461 16 view .LVU11
  61 001e 0020     		movs	r0, #0
  62 0020 7047     		bx	lr
  63              	.LVL4:
  64              	.L3:
 462:Core/Src/MazeLib.c ****     }
 463:Core/Src/MazeLib.c ****     else
 464:Core/Src/MazeLib.c ****     {
 465:Core/Src/MazeLib.c ****         return false;
  65              		.loc 1 465 16 view .LVU12
  66 0022 0020     		movs	r0, #0
  67 0024 7047     		bx	lr
  68              	.LVL5:
  69              	.L4:
 461:Core/Src/MazeLib.c ****     }
  70              		.loc 1 461 16 view .LVU13
  71 0026 0020     		movs	r0, #0
  72 0028 7047     		bx	lr
  73              	.LVL6:
  74              	.L5:
 459:Core/Src/MazeLib.c ****             return true;
  75              		.loc 1 459 20 view .LVU14
  76 002a 0120     		movs	r0, #1
 466:Core/Src/MazeLib.c ****     }
 467:Core/Src/MazeLib.c **** }
  77              		.loc 1 467 1 view .LVU15
  78 002c 7047     		bx	lr
  79              		.cfi_endproc
  80              	.LFE13:
  82              		.section	.text.judgeColumnNodeGoal,"ax",%progbits
  83              		.align	1
  84              		.syntax unified
  85              		.thumb
  86              		.thumb_func
  87              		.fpu fpv4-sp-d16
  89              	judgeColumnNodeGoal:
  90              	.LVL7:
  91              	.LFB14:
 468:Core/Src/MazeLib.c **** static _Bool judgeColumnNodeGoal(maze_node *maze, uint8_t x, uint8_t y)
 469:Core/Src/MazeLib.c **** {
  92              		.loc 1 469 1 is_stmt 1 view -0
  93              		.cfi_startproc
  94              		@ args = 0, pretend = 0, frame = 0
  95              		@ frame_needed = 0, uses_anonymous_args = 0
  96              		@ link register save eliminated.
 470:Core/Src/MazeLib.c ****     //é‡ã¿ãŒ0ã‹ã©ã†ã‹
 471:Core/Src/MazeLib.c ****     if(maze->ColumnNode[x][y].weight == 0)
  97              		.loc 1 471 5 view .LVU17
  98              		.loc 1 471 30 is_stmt 0 view .LVU18
  99 0000 02EB0113 		add	r3, r2, r1, lsl #4
 100 0004 03F58873 		add	r3, r3, #272
ARM GAS  /var/folders/v_/kwz_t0cs68g1q1d733r227b80000gn/T//cc7enlx9.s 			page 11


 101 0008 00EBC300 		add	r0, r0, r3, lsl #3
 102              	.LVL8:
 103              		.loc 1 471 30 view .LVU19
 104 000c 4388     		ldrh	r3, [r0, #2]
 105              		.loc 1 471 7 view .LVU20
 106 000e 4BB9     		cbnz	r3, .L8
 472:Core/Src/MazeLib.c ****     {
 473:Core/Src/MazeLib.c ****         //ã‚´ãƒ¼ãƒ«ãƒãƒ¼ãƒ‰ã§ã‚ã‚‹ã‹ã©ã†ã‹:ãƒã‚¯ãƒ­ä½œã£ãŸ
 474:Core/Src/MazeLib.c **** 
 475:Core/Src/MazeLib.c ****         if ( __JUDGE_GOAL__ (x,y) || __JUDGE_GOAL__(x-1,y) )
 107              		.loc 1 475 9 is_stmt 1 view .LVU21
 108              		.loc 1 475 35 is_stmt 0 view .LVU22
 109 0010 0939     		subs	r1, r1, #9
 110              	.LVL9:
 111              		.loc 1 475 35 view .LVU23
 112 0012 C9B2     		uxtb	r1, r1
 113              		.loc 1 475 12 view .LVU24
 114 0014 0229     		cmp	r1, #2
 115 0016 07D8     		bhi	.L9
 116              		.loc 1 475 14 discriminator 1 view .LVU25
 117 0018 093A     		subs	r2, r2, #9
 118              	.LVL10:
 119              		.loc 1 475 14 discriminator 1 view .LVU26
 120 001a D2B2     		uxtb	r2, r2
 121              		.loc 1 475 35 discriminator 1 view .LVU27
 122 001c 012A     		cmp	r2, #1
 123 001e 05D9     		bls	.L10
 476:Core/Src/MazeLib.c ****             return true;
 477:Core/Src/MazeLib.c **** 
 478:Core/Src/MazeLib.c ****         return false;
 124              		.loc 1 478 16 view .LVU28
 125 0020 0020     		movs	r0, #0
 126 0022 7047     		bx	lr
 127              	.LVL11:
 128              	.L8:
 479:Core/Src/MazeLib.c ****     }
 480:Core/Src/MazeLib.c ****     else
 481:Core/Src/MazeLib.c ****     {
 482:Core/Src/MazeLib.c ****         return false;
 129              		.loc 1 482 16 view .LVU29
 130 0024 0020     		movs	r0, #0
 131 0026 7047     		bx	lr
 132              	.LVL12:
 133              	.L9:
 478:Core/Src/MazeLib.c ****     }
 134              		.loc 1 478 16 view .LVU30
 135 0028 0020     		movs	r0, #0
 136 002a 7047     		bx	lr
 137              	.LVL13:
 138              	.L10:
 476:Core/Src/MazeLib.c ****             return true;
 139              		.loc 1 476 20 view .LVU31
 140 002c 0120     		movs	r0, #1
 483:Core/Src/MazeLib.c ****     }
 484:Core/Src/MazeLib.c **** }
 141              		.loc 1 484 1 view .LVU32
 142 002e 7047     		bx	lr
ARM GAS  /var/folders/v_/kwz_t0cs68g1q1d733r227b80000gn/T//cc7enlx9.s 			page 12


 143              		.cfi_endproc
 144              	.LFE14:
 146              		.section	.text.convertNodeTo16Value,"ax",%progbits
 147              		.align	1
 148              		.syntax unified
 149              		.thumb
 150              		.thumb_func
 151              		.fpu fpv4-sp-d16
 153              	convertNodeTo16Value:
 154              	.LVL14:
 155              	.LFB20:
 485:Core/Src/MazeLib.c **** 
 486:Core/Src/MazeLib.c **** void printAllWeight(maze_node *maze, position *pos)
 487:Core/Src/MazeLib.c **** {
 488:Core/Src/MazeLib.c ****     //è¦‹ã‚„ã™ã„å½¢ã«æˆå‹ã—ã¦è¡¨ç¤ºã™ã‚‹
 489:Core/Src/MazeLib.c ****     //å…¨å‡ºåŠ›ã‚’3æ¡ã«ãã‚ãˆã‚Œã°ã‚ˆã•ãã†
 490:Core/Src/MazeLib.c ****     //é‡ã¿ãŒ0ã‹ã¤ã‚´ãƒ¼ãƒ«ã‚¨ãƒªã‚¢å†…ã®åº§æ¨™ãªã‚‰èµ¤è‰²ã§å‡ºåŠ› 31;1m
 491:Core/Src/MazeLib.c ****     //è¡Œã‹ã‚‰è¡¨ç¤ºã—ã¦ã€
 492:Core/Src/MazeLib.c ****     //åˆ—ã‚’è¡¨ç¤º
 493:Core/Src/MazeLib.c ****     //äº¤äº’ã«
 494:Core/Src/MazeLib.c ****     printf("å…¨ãƒãƒ¼ãƒ‰ã®é‡ã¿\r\n");
 495:Core/Src/MazeLib.c **** 
 496:Core/Src/MazeLib.c ****     for(int y=NUMBER_OF_SQUARES_Y; y > 0; y--)
 497:Core/Src/MazeLib.c ****     {
 498:Core/Src/MazeLib.c ****         //è¡Œ
 499:Core/Src/MazeLib.c ****         printf("  +  ");
 500:Core/Src/MazeLib.c ****         for(int x=0; x < NUMBER_OF_SQUARES_X; x++)
 501:Core/Src/MazeLib.c ****         {
 502:Core/Src/MazeLib.c ****             if(judgeRawNodeGoal(maze, x,y) == true || ((pos->x == x) && (pos->y == y)))//è¾¿ã£ãŸç
 503:Core/Src/MazeLib.c ****             {
 504:Core/Src/MazeLib.c ****                 printf(" \x1B[31;1m%3x\x1B[37;m ",maze->RawNode[x][y].weight);
 505:Core/Src/MazeLib.c ****             }
 506:Core/Src/MazeLib.c ****             else
 507:Core/Src/MazeLib.c ****             {
 508:Core/Src/MazeLib.c ****                 printf(" %3x ",maze->RawNode[x][y].weight);
 509:Core/Src/MazeLib.c ****             }
 510:Core/Src/MazeLib.c ****             if(x < NUMBER_OF_SQUARES_X-1)
 511:Core/Src/MazeLib.c ****                  printf("  +  ");
 512:Core/Src/MazeLib.c ****         }
 513:Core/Src/MazeLib.c ****         printf("\r\n");
 514:Core/Src/MazeLib.c **** 
 515:Core/Src/MazeLib.c ****         //åˆ—
 516:Core/Src/MazeLib.c ****         for(int x=0; x < NUMBER_OF_SQUARES_X+1; x++)
 517:Core/Src/MazeLib.c ****         {
 518:Core/Src/MazeLib.c ****             if(judgeColumnNodeGoal(maze, x,y-1) == true || ((pos->x == x) && (pos->y == y)))
 519:Core/Src/MazeLib.c ****             {
 520:Core/Src/MazeLib.c ****                 printf(" \x1B[31;1m%3x\x1B[37;m ",maze->ColumnNode[x][y-1].weight);
 521:Core/Src/MazeLib.c ****             }
 522:Core/Src/MazeLib.c ****             else
 523:Core/Src/MazeLib.c ****             {
 524:Core/Src/MazeLib.c ****                 printf(" %3x ",maze->ColumnNode[x][y-1].weight);
 525:Core/Src/MazeLib.c ****             }
 526:Core/Src/MazeLib.c ****             if(x < NUMBER_OF_SQUARES_X)
 527:Core/Src/MazeLib.c ****                 printf("     ");
 528:Core/Src/MazeLib.c ****         }
 529:Core/Src/MazeLib.c ****         printf("\r\n");
 530:Core/Src/MazeLib.c ****     }
ARM GAS  /var/folders/v_/kwz_t0cs68g1q1d733r227b80000gn/T//cc7enlx9.s 			page 13


 531:Core/Src/MazeLib.c ****     //y ãŒ0ã®ã¨ãã®è¡Œã ã‘è¡¨ç¤º
 532:Core/Src/MazeLib.c ****     printf("  +  ");
 533:Core/Src/MazeLib.c ****     for(int x=0; x < NUMBER_OF_SQUARES_X; x++)
 534:Core/Src/MazeLib.c ****     {
 535:Core/Src/MazeLib.c ****         printf(" %3x ",maze->RawNode[x][0].weight);
 536:Core/Src/MazeLib.c ****         if(x < NUMBER_OF_SQUARES_X-1)
 537:Core/Src/MazeLib.c ****                 printf("  +  ");
 538:Core/Src/MazeLib.c ****     }
 539:Core/Src/MazeLib.c ****     printf("\r\n");
 540:Core/Src/MazeLib.c **** 
 541:Core/Src/MazeLib.c **** 
 542:Core/Src/MazeLib.c **** }
 543:Core/Src/MazeLib.c **** void printSingleNode(maze_node *mn, uint8_t x, uint8_t y)
 544:Core/Src/MazeLib.c **** {
 545:Core/Src/MazeLib.c ****     printf("è¡Œãƒãƒ¼ãƒ‰ %d, %d : å£ %u, é‡ã¿ %u, draw %u\r\n", x,y, mn->RawNode[x][y].existence
 546:Core/Src/MazeLib.c ****     printf("åˆ—ãƒãƒ¼ãƒ‰ %d, %d : å£ %u, é‡ã¿ %u, draw %u\r\n", x,y, mn->ColumnNode[x][y].existe
 547:Core/Src/MazeLib.c **** }
 548:Core/Src/MazeLib.c **** 
 549:Core/Src/MazeLib.c **** void printAllNode(maze_node *mn)
 550:Core/Src/MazeLib.c **** {
 551:Core/Src/MazeLib.c ****     printf("å…¨ãƒãƒ¼ãƒ‰\r\n");
 552:Core/Src/MazeLib.c ****     //é–“é•ã£ã¦ã‚‹ã‹ã‚‚
 553:Core/Src/MazeLib.c ****     //MATLABã§ä¿å­˜ã™ã‚‹ã¨ãã¨åŒã˜ãƒ‘ã‚¿ãƒ¼ãƒ³ã§å‡ºåŠ›ã™ã‚‹
 554:Core/Src/MazeLib.c ****     //Raw
 555:Core/Src/MazeLib.c ****     //Column
 556:Core/Src/MazeLib.c ****     //Rawã‚’1åˆ—å‡ºåŠ›ã—ã€æ”¹è¡Œã›ãšColumnã®1åˆ—å‡ºåŠ›ã€‚
 557:Core/Src/MazeLib.c ****     //è¡Œã‚’å¢—ã‚„ã—ã¦åŒã˜å‡¦ç†
 558:Core/Src/MazeLib.c ****     for(int i=0; i < NUMBER_OF_SQUARES_X; i++)
 559:Core/Src/MazeLib.c ****     {
 560:Core/Src/MazeLib.c ****         for(int j=1; j < NUMBER_OF_SQUARES_Y+1; j++)
 561:Core/Src/MazeLib.c ****         {
 562:Core/Src/MazeLib.c ****             printf("%u,",mn->RawNode[i][j].draw);
 563:Core/Src/MazeLib.c ****         }
 564:Core/Src/MazeLib.c ****         for(int j=0; j < NUMBER_OF_SQUARES_Y; j++)
 565:Core/Src/MazeLib.c ****         {
 566:Core/Src/MazeLib.c ****             printf("%u",mn->ColumnNode[i+1][j].draw);
 567:Core/Src/MazeLib.c ****             if(j < NUMBER_OF_SQUARES_Y-1)
 568:Core/Src/MazeLib.c ****                 printf(",");
 569:Core/Src/MazeLib.c ****         }
 570:Core/Src/MazeLib.c ****         printf("\r\n");
 571:Core/Src/MazeLib.c ****     }
 572:Core/Src/MazeLib.c ****     printf("\r\n");
 573:Core/Src/MazeLib.c **** }
 574:Core/Src/MazeLib.c **** void printAllNodeExistence(maze_node *mn)
 575:Core/Src/MazeLib.c **** {
 576:Core/Src/MazeLib.c ****     printf("å…¨ãƒãƒ¼ãƒ‰ã®å£ã®å­˜åœ¨\r\n");
 577:Core/Src/MazeLib.c ****     //é–“é•ã£ã¦ã‚‹ã‹ã‚‚
 578:Core/Src/MazeLib.c ****     //MATLABã§ä¿å­˜ã™ã‚‹ã¨ãã¨åŒã˜ãƒ‘ã‚¿ãƒ¼ãƒ³ã§å‡ºåŠ›ã™ã‚‹
 579:Core/Src/MazeLib.c ****     //Raw
 580:Core/Src/MazeLib.c ****     //Column
 581:Core/Src/MazeLib.c ****     //Rawã‚’1åˆ—å‡ºåŠ›ã—ã€æ”¹è¡Œã›ãšColumnã®1åˆ—å‡ºåŠ›ã€‚
 582:Core/Src/MazeLib.c ****     //è¡Œã‚’å¢—ã‚„ã—ã¦åŒã˜å‡¦ç†
 583:Core/Src/MazeLib.c ****     for(int i=0; i < NUMBER_OF_SQUARES_X; i++)
 584:Core/Src/MazeLib.c ****     {
 585:Core/Src/MazeLib.c ****         for(int j=1; j < NUMBER_OF_SQUARES_Y+1; j++)
 586:Core/Src/MazeLib.c ****         {
 587:Core/Src/MazeLib.c ****             printf("%u,",mn->RawNode[i][j].existence);
ARM GAS  /var/folders/v_/kwz_t0cs68g1q1d733r227b80000gn/T//cc7enlx9.s 			page 14


 588:Core/Src/MazeLib.c ****         }
 589:Core/Src/MazeLib.c ****         for(int j=0; j < NUMBER_OF_SQUARES_Y; j++)
 590:Core/Src/MazeLib.c ****         {
 591:Core/Src/MazeLib.c ****             printf("%u",mn->ColumnNode[i+1][j].existence);
 592:Core/Src/MazeLib.c ****             if(j < NUMBER_OF_SQUARES_Y-1)
 593:Core/Src/MazeLib.c ****                 printf(",");
 594:Core/Src/MazeLib.c ****         }
 595:Core/Src/MazeLib.c ****         printf("\r\n");
 596:Core/Src/MazeLib.c ****     }
 597:Core/Src/MazeLib.c ****     printf("\r\n");
 598:Core/Src/MazeLib.c **** }
 599:Core/Src/MazeLib.c **** 
 600:Core/Src/MazeLib.c **** _Bool outputDataToFile(maze_node *maze)
 601:Core/Src/MazeLib.c **** {
 602:Core/Src/MazeLib.c ****     char weight_file[] = "weight.txt";
 603:Core/Src/MazeLib.c ****     FILE*fp;
 604:Core/Src/MazeLib.c ****     fp = fopen(weight_file,"w");
 605:Core/Src/MazeLib.c ****     if(fp == NULL) {
 606:Core/Src/MazeLib.c **** 		printf("%s file not open!\n", weight_file);
 607:Core/Src/MazeLib.c **** 		return false;
 608:Core/Src/MazeLib.c **** 	} else {
 609:Core/Src/MazeLib.c **** 		printf("%s file opened!\n", weight_file);
 610:Core/Src/MazeLib.c **** 	}
 611:Core/Src/MazeLib.c ****     
 612:Core/Src/MazeLib.c ****     for(int y=NUMBER_OF_SQUARES_Y; y > 0; y--)
 613:Core/Src/MazeLib.c ****     {
 614:Core/Src/MazeLib.c ****         //è¡Œ
 615:Core/Src/MazeLib.c ****         fprintf(fp,"     ");
 616:Core/Src/MazeLib.c ****         for(int x=0; x < NUMBER_OF_SQUARES_X; x++)
 617:Core/Src/MazeLib.c ****         {
 618:Core/Src/MazeLib.c ****             if(judgeRawNodeGoal(maze, x,y) == true)
 619:Core/Src/MazeLib.c ****             {
 620:Core/Src/MazeLib.c ****                 fprintf(fp," GGG ");
 621:Core/Src/MazeLib.c ****             }
 622:Core/Src/MazeLib.c ****             else
 623:Core/Src/MazeLib.c ****             {
 624:Core/Src/MazeLib.c ****                 fprintf(fp," %3x ",maze->RawNode[x][y].weight);
 625:Core/Src/MazeLib.c ****             }
 626:Core/Src/MazeLib.c ****             if(x < NUMBER_OF_SQUARES_X-1)
 627:Core/Src/MazeLib.c ****                 fprintf(fp,"     ");
 628:Core/Src/MazeLib.c ****         }
 629:Core/Src/MazeLib.c ****         fprintf(fp,"\r\n");
 630:Core/Src/MazeLib.c ****                 
 631:Core/Src/MazeLib.c ****         //åˆ—
 632:Core/Src/MazeLib.c ****         for(int x=0; x < NUMBER_OF_SQUARES_X+1; x++)
 633:Core/Src/MazeLib.c ****         {
 634:Core/Src/MazeLib.c ****             if(judgeColumnNodeGoal(maze, x,y-1) == true)
 635:Core/Src/MazeLib.c ****             {
 636:Core/Src/MazeLib.c ****                 fprintf(fp," GGG ");
 637:Core/Src/MazeLib.c ****             }
 638:Core/Src/MazeLib.c ****             else
 639:Core/Src/MazeLib.c ****             {
 640:Core/Src/MazeLib.c ****                 fprintf(fp," %3x ",maze->ColumnNode[x][y-1].weight);
 641:Core/Src/MazeLib.c ****             }
 642:Core/Src/MazeLib.c ****             if(x < NUMBER_OF_SQUARES_X)
 643:Core/Src/MazeLib.c ****                 fprintf(fp,"     ");
 644:Core/Src/MazeLib.c ****         }
ARM GAS  /var/folders/v_/kwz_t0cs68g1q1d733r227b80000gn/T//cc7enlx9.s 			page 15


 645:Core/Src/MazeLib.c ****         fprintf(fp,"\r\n");
 646:Core/Src/MazeLib.c ****     }
 647:Core/Src/MazeLib.c ****     //y ãŒ0ã®ã¨ãã®è¡Œã ã‘è¡¨ç¤º
 648:Core/Src/MazeLib.c ****     fprintf(fp,"     ");
 649:Core/Src/MazeLib.c ****     for(int x=0; x < NUMBER_OF_SQUARES_X; x++)
 650:Core/Src/MazeLib.c ****     {
 651:Core/Src/MazeLib.c ****         fprintf(fp," %3x ",maze->RawNode[x][0].weight);
 652:Core/Src/MazeLib.c ****         if(x < NUMBER_OF_SQUARES_X-1)
 653:Core/Src/MazeLib.c ****                 fprintf(fp,"     ");
 654:Core/Src/MazeLib.c ****     }
 655:Core/Src/MazeLib.c ****     fprintf(fp,"\r\n");
 656:Core/Src/MazeLib.c ****     fclose(fp);
 657:Core/Src/MazeLib.c ****     return true;
 658:Core/Src/MazeLib.c **** 
 659:Core/Src/MazeLib.c **** }
 660:Core/Src/MazeLib.c **** static uint8_t convertNodeTo16Value(maze_node *maze, int x, int y)
 661:Core/Src/MazeLib.c **** {
 156              		.loc 1 661 1 is_stmt 1 view -0
 157              		.cfi_startproc
 158              		@ args = 0, pretend = 0, frame = 0
 159              		@ frame_needed = 0, uses_anonymous_args = 0
 160              		.loc 1 661 1 is_stmt 0 view .LVU34
 161 0000 00B5     		push	{lr}
 162              	.LCFI0:
 163              		.cfi_def_cfa_offset 4
 164              		.cfi_offset 14, -4
 662:Core/Src/MazeLib.c ****     //xyåº§æ¨™ã‚’å…¥åŠ›
 663:Core/Src/MazeLib.c ****     //å„ãƒã‚¹ã®16é€²æ•°ã‚’å‡ºåŠ›ã€‚
 664:Core/Src/MazeLib.c ****     uint8_t val=0;
 165              		.loc 1 664 5 is_stmt 1 view .LVU35
 166              	.LVL15:
 665:Core/Src/MazeLib.c ****     val += 1 * maze->RawNode[x][y+1].draw;      //åŒ—
 167              		.loc 1 665 5 view .LVU36
 168              		.loc 1 665 34 is_stmt 0 view .LVU37
 169 0002 531C     		adds	r3, r2, #1
 170              		.loc 1 665 37 view .LVU38
 171 0004 01EB011E 		add	lr, r1, r1, lsl #4
 172 0008 7344     		add	r3, r3, lr
 173 000a 00EBC303 		add	r3, r0, r3, lsl #3
 174 000e 1B79     		ldrb	r3, [r3, #4]	@ zero_extendqisi2
 175              	.LVL16:
 666:Core/Src/MazeLib.c ****     val += 2 * maze->ColumnNode[x+1][y].draw;   //æ±
 176              		.loc 1 666 5 is_stmt 1 view .LVU39
 177              		.loc 1 666 34 is_stmt 0 view .LVU40
 178 0010 01F1010C 		add	ip, r1, #1
 179              		.loc 1 666 40 view .LVU41
 180 0014 02EB0C1C 		add	ip, r2, ip, lsl #4
 181 0018 0CF5887C 		add	ip, ip, #272
 182 001c 00EBCC0C 		add	ip, r0, ip, lsl #3
 183 0020 9CF804C0 		ldrb	ip, [ip, #4]	@ zero_extendqisi2
 184              		.loc 1 666 9 view .LVU42
 185 0024 03EB4C03 		add	r3, r3, ip, lsl #1
 186              	.LVL17:
 667:Core/Src/MazeLib.c ****     val += 4 * maze->RawNode[x][y].draw;        //å—
 187              		.loc 1 667 5 is_stmt 1 view .LVU43
 188              		.loc 1 667 35 is_stmt 0 view .LVU44
 189 0028 9644     		add	lr, lr, r2
ARM GAS  /var/folders/v_/kwz_t0cs68g1q1d733r227b80000gn/T//cc7enlx9.s 			page 16


 190 002a 00EBCE0E 		add	lr, r0, lr, lsl #3
 191 002e 9EF804C0 		ldrb	ip, [lr, #4]	@ zero_extendqisi2
 192              		.loc 1 667 9 view .LVU45
 193 0032 4FEA8C0C 		lsl	ip, ip, #2
 194 0036 5CFA83F3 		uxtab	r3, ip, r3
 195              	.LVL18:
 668:Core/Src/MazeLib.c ****     val += 8 * maze->ColumnNode[x][y].draw;     //è¥¿
 196              		.loc 1 668 5 is_stmt 1 view .LVU46
 197              		.loc 1 668 38 is_stmt 0 view .LVU47
 198 003a 02EB0112 		add	r2, r2, r1, lsl #4
 199              	.LVL19:
 200              		.loc 1 668 38 view .LVU48
 201 003e 02F58872 		add	r2, r2, #272
 202 0042 00EBC202 		add	r2, r0, r2, lsl #3
 203 0046 1079     		ldrb	r0, [r2, #4]	@ zero_extendqisi2
 204              	.LVL20:
 205              		.loc 1 668 9 view .LVU49
 206 0048 C000     		lsls	r0, r0, #3
 207 004a 50FA83F0 		uxtab	r0, r0, r3
 208              	.LVL21:
 669:Core/Src/MazeLib.c ****     return val;
 209              		.loc 1 669 5 is_stmt 1 view .LVU50
 670:Core/Src/MazeLib.c **** }
 210              		.loc 1 670 1 is_stmt 0 view .LVU51
 211 004e C0B2     		uxtb	r0, r0
 212              		.loc 1 670 1 view .LVU52
 213 0050 5DF804FB 		ldr	pc, [sp], #4
 214              		.cfi_endproc
 215              	.LFE20:
 217              		.section	.text.initWeight,"ax",%progbits
 218              		.align	1
 219              		.global	initWeight
 220              		.syntax unified
 221              		.thumb
 222              		.thumb_func
 223              		.fpu fpv4-sp-d16
 225              	initWeight:
 226              	.LVL22:
 227              	.LFB3:
   9:Core/Src/MazeLib.c ****     // for(int i=0; i < NUMBER_OF_SQUARES_X; i++)
 228              		.loc 1 9 1 is_stmt 1 view -0
 229              		.cfi_startproc
 230              		@ args = 0, pretend = 0, frame = 0
 231              		@ frame_needed = 0, uses_anonymous_args = 0
 232              		@ link register save eliminated.
  24:Core/Src/MazeLib.c ****     {
 233              		.loc 1 24 5 view .LVU54
 234              	.LBB2:
  24:Core/Src/MazeLib.c ****     {
 235              		.loc 1 24 9 view .LVU55
  24:Core/Src/MazeLib.c ****     {
 236              		.loc 1 24 13 is_stmt 0 view .LVU56
 237 0000 0021     		movs	r1, #0
  24:Core/Src/MazeLib.c ****     {
 238              		.loc 1 24 5 view .LVU57
 239 0002 0CE0     		b	.L14
 240              	.LVL23:
ARM GAS  /var/folders/v_/kwz_t0cs68g1q1d733r227b80000gn/T//cc7enlx9.s 			page 17


 241              	.L15:
 242              	.LBB3:
  28:Core/Src/MazeLib.c ****         }
 243              		.loc 1 28 13 is_stmt 1 discriminator 3 view .LVU58
  28:Core/Src/MazeLib.c ****         }
 244              		.loc 1 28 40 is_stmt 0 discriminator 3 view .LVU59
 245 0004 01EB0113 		add	r3, r1, r1, lsl #4
 246 0008 1344     		add	r3, r3, r2
 247 000a 00EBC303 		add	r3, r0, r3, lsl #3
 248 000e 40F6FF7C 		movw	ip, #4095
 249 0012 A3F802C0 		strh	ip, [r3, #2]	@ movhi
  26:Core/Src/MazeLib.c ****         {
 250              		.loc 1 26 49 is_stmt 1 discriminator 3 view .LVU60
  26:Core/Src/MazeLib.c ****         {
 251              		.loc 1 26 50 is_stmt 0 discriminator 3 view .LVU61
 252 0016 0132     		adds	r2, r2, #1
 253              	.LVL24:
 254              	.L16:
  26:Core/Src/MazeLib.c ****         {
 255              		.loc 1 26 22 is_stmt 1 discriminator 1 view .LVU62
  26:Core/Src/MazeLib.c ****         {
 256              		.loc 1 26 9 is_stmt 0 discriminator 1 view .LVU63
 257 0018 102A     		cmp	r2, #16
 258 001a F3DD     		ble	.L15
 259              	.LBE3:
  24:Core/Src/MazeLib.c ****     {
 260              		.loc 1 24 43 is_stmt 1 discriminator 2 view .LVU64
  24:Core/Src/MazeLib.c ****     {
 261              		.loc 1 24 44 is_stmt 0 discriminator 2 view .LVU65
 262 001c 0131     		adds	r1, r1, #1
 263              	.LVL25:
 264              	.L14:
  24:Core/Src/MazeLib.c ****     {
 265              		.loc 1 24 18 is_stmt 1 discriminator 1 view .LVU66
  24:Core/Src/MazeLib.c ****     {
 266              		.loc 1 24 5 is_stmt 0 discriminator 1 view .LVU67
 267 001e 0F29     		cmp	r1, #15
 268 0020 01DC     		bgt	.L22
 269              	.LBB4:
  26:Core/Src/MazeLib.c ****         {
 270              		.loc 1 26 17 view .LVU68
 271 0022 0022     		movs	r2, #0
 272 0024 F8E7     		b	.L16
 273              	.L22:
 274              	.LBE4:
 275              	.LBE2:
 276              	.LBB5:
  31:Core/Src/MazeLib.c ****     {
 277              		.loc 1 31 13 view .LVU69
 278 0026 4FF0000C 		mov	ip, #0
 279 002a 0DE0     		b	.L17
 280              	.LVL26:
 281              	.L18:
 282              	.LBB6:
  35:Core/Src/MazeLib.c ****         }
 283              		.loc 1 35 13 is_stmt 1 discriminator 3 view .LVU70
  35:Core/Src/MazeLib.c ****         }
ARM GAS  /var/folders/v_/kwz_t0cs68g1q1d733r227b80000gn/T//cc7enlx9.s 			page 18


 284              		.loc 1 35 43 is_stmt 0 discriminator 3 view .LVU71
 285 002c 02EB0C13 		add	r3, r2, ip, lsl #4
 286 0030 03F58873 		add	r3, r3, #272
 287 0034 00EBC303 		add	r3, r0, r3, lsl #3
 288 0038 40F6FF71 		movw	r1, #4095
 289 003c 5980     		strh	r1, [r3, #2]	@ movhi
  33:Core/Src/MazeLib.c ****         {
 290              		.loc 1 33 47 is_stmt 1 discriminator 3 view .LVU72
  33:Core/Src/MazeLib.c ****         {
 291              		.loc 1 33 48 is_stmt 0 discriminator 3 view .LVU73
 292 003e 0132     		adds	r2, r2, #1
 293              	.LVL27:
 294              	.L19:
  33:Core/Src/MazeLib.c ****         {
 295              		.loc 1 33 22 is_stmt 1 discriminator 1 view .LVU74
  33:Core/Src/MazeLib.c ****         {
 296              		.loc 1 33 9 is_stmt 0 discriminator 1 view .LVU75
 297 0040 0F2A     		cmp	r2, #15
 298 0042 F3DD     		ble	.L18
 299              	.LBE6:
  31:Core/Src/MazeLib.c ****     {
 300              		.loc 1 31 45 is_stmt 1 discriminator 2 view .LVU76
  31:Core/Src/MazeLib.c ****     {
 301              		.loc 1 31 46 is_stmt 0 discriminator 2 view .LVU77
 302 0044 0CF1010C 		add	ip, ip, #1
 303              	.LVL28:
 304              	.L17:
  31:Core/Src/MazeLib.c ****     {
 305              		.loc 1 31 18 is_stmt 1 discriminator 1 view .LVU78
  31:Core/Src/MazeLib.c ****     {
 306              		.loc 1 31 5 is_stmt 0 discriminator 1 view .LVU79
 307 0048 BCF1100F 		cmp	ip, #16
 308 004c 01DC     		bgt	.L23
 309              	.LBB7:
  33:Core/Src/MazeLib.c ****         {
 310              		.loc 1 33 17 view .LVU80
 311 004e 0022     		movs	r2, #0
 312 0050 F6E7     		b	.L19
 313              	.L23:
 314              	.LBE7:
 315              	.LBE5:
  38:Core/Src/MazeLib.c **** void initMaze(maze_node *maze) //é‡ã¿ã¯åˆ¥ã§åˆæœŸåŒ–
 316              		.loc 1 38 1 view .LVU81
 317 0052 7047     		bx	lr
 318              		.cfi_endproc
 319              	.LFE3:
 321              		.section	.text.initMaze,"ax",%progbits
 322              		.align	1
 323              		.global	initMaze
 324              		.syntax unified
 325              		.thumb
 326              		.thumb_func
 327              		.fpu fpv4-sp-d16
 329              	initMaze:
 330              	.LVL29:
 331              	.LFB4:
  40:Core/Src/MazeLib.c ****     //ã¾ãšæœªæ¢ç´¢çŠ¶æ…‹ã«ã™ã‚‹
ARM GAS  /var/folders/v_/kwz_t0cs68g1q1d733r227b80000gn/T//cc7enlx9.s 			page 19


 332              		.loc 1 40 1 is_stmt 1 view -0
 333              		.cfi_startproc
 334              		@ args = 0, pretend = 0, frame = 0
 335              		@ frame_needed = 0, uses_anonymous_args = 0
  40:Core/Src/MazeLib.c ****     //ã¾ãšæœªæ¢ç´¢çŠ¶æ…‹ã«ã™ã‚‹
 336              		.loc 1 40 1 is_stmt 0 view .LVU83
 337 0000 00B5     		push	{lr}
 338              	.LCFI1:
 339              		.cfi_def_cfa_offset 4
 340              		.cfi_offset 14, -4
  42:Core/Src/MazeLib.c ****     {
 341              		.loc 1 42 5 is_stmt 1 view .LVU84
 342              	.LBB8:
  42:Core/Src/MazeLib.c ****     {
 343              		.loc 1 42 9 view .LVU85
 344              	.LVL30:
  42:Core/Src/MazeLib.c ****     {
 345              		.loc 1 42 13 is_stmt 0 view .LVU86
 346 0002 0021     		movs	r1, #0
  42:Core/Src/MazeLib.c ****     {
 347              		.loc 1 42 5 view .LVU87
 348 0004 14E0     		b	.L25
 349              	.LVL31:
 350              	.L26:
 351              	.LBB9:
  46:Core/Src/MazeLib.c ****             maze->RawNode[i][j].draw = false;//æœªçŸ¥å£ã¯æç”»ã®ã¨ãã«ç„¡ã„ã‚‚ã®ã¨ã™ã‚‹
 352              		.loc 1 46 13 is_stmt 1 discriminator 3 view .LVU88
  46:Core/Src/MazeLib.c ****             maze->RawNode[i][j].draw = false;//æœªçŸ¥å£ã¯æç”»ã®ã¨ãã«ç„¡ã„ã‚‚ã®ã¨ã™ã‚‹
 353              		.loc 1 46 43 is_stmt 0 discriminator 3 view .LVU89
 354 0006 01EB0113 		add	r3, r1, r1, lsl #4
 355 000a 1344     		add	r3, r3, r2
 356 000c 4FF0020C 		mov	ip, #2
 357 0010 00F833C0 		strb	ip, [r0, r3, lsl #3]
  47:Core/Src/MazeLib.c ****             maze->RawNode[i][j].rc = 0;
 358              		.loc 1 47 13 is_stmt 1 discriminator 3 view .LVU90
  47:Core/Src/MazeLib.c ****             maze->RawNode[i][j].rc = 0;
 359              		.loc 1 47 38 is_stmt 0 discriminator 3 view .LVU91
 360 0014 00EBC303 		add	r3, r0, r3, lsl #3
 361 0018 4FF0000C 		mov	ip, #0
 362 001c 83F804C0 		strb	ip, [r3, #4]
  48:Core/Src/MazeLib.c ****             maze->RawNode[i][j].pos.x = i;
 363              		.loc 1 48 13 is_stmt 1 discriminator 3 view .LVU92
  48:Core/Src/MazeLib.c ****             maze->RawNode[i][j].pos.x = i;
 364              		.loc 1 48 36 is_stmt 0 discriminator 3 view .LVU93
 365 0020 83F805C0 		strb	ip, [r3, #5]
  49:Core/Src/MazeLib.c ****             maze->RawNode[i][j].pos.y = j;
 366              		.loc 1 49 13 is_stmt 1 discriminator 3 view .LVU94
  49:Core/Src/MazeLib.c ****             maze->RawNode[i][j].pos.y = j;
 367              		.loc 1 49 39 is_stmt 0 discriminator 3 view .LVU95
 368 0024 9971     		strb	r1, [r3, #6]
  50:Core/Src/MazeLib.c **** //            maze->RawNode[i][j].visit = false;
 369              		.loc 1 50 13 is_stmt 1 discriminator 3 view .LVU96
  50:Core/Src/MazeLib.c **** //            maze->RawNode[i][j].visit = false;
 370              		.loc 1 50 39 is_stmt 0 discriminator 3 view .LVU97
 371 0026 DA71     		strb	r2, [r3, #7]
  44:Core/Src/MazeLib.c ****         {
 372              		.loc 1 44 47 is_stmt 1 discriminator 3 view .LVU98
ARM GAS  /var/folders/v_/kwz_t0cs68g1q1d733r227b80000gn/T//cc7enlx9.s 			page 20


  44:Core/Src/MazeLib.c ****         {
 373              		.loc 1 44 48 is_stmt 0 discriminator 3 view .LVU99
 374 0028 0132     		adds	r2, r2, #1
 375              	.LVL32:
 376              	.L27:
  44:Core/Src/MazeLib.c ****         {
 377              		.loc 1 44 22 is_stmt 1 discriminator 1 view .LVU100
  44:Core/Src/MazeLib.c ****         {
 378              		.loc 1 44 9 is_stmt 0 discriminator 1 view .LVU101
 379 002a 0F2A     		cmp	r2, #15
 380 002c EBDD     		ble	.L26
 381              	.LBE9:
  42:Core/Src/MazeLib.c ****     {
 382              		.loc 1 42 43 is_stmt 1 discriminator 2 view .LVU102
  42:Core/Src/MazeLib.c ****     {
 383              		.loc 1 42 44 is_stmt 0 discriminator 2 view .LVU103
 384 002e 0131     		adds	r1, r1, #1
 385              	.LVL33:
 386              	.L25:
  42:Core/Src/MazeLib.c ****     {
 387              		.loc 1 42 18 is_stmt 1 discriminator 1 view .LVU104
  42:Core/Src/MazeLib.c ****     {
 388              		.loc 1 42 5 is_stmt 0 discriminator 1 view .LVU105
 389 0030 0F29     		cmp	r1, #15
 390 0032 01DC     		bgt	.L38
 391              	.LBB10:
  44:Core/Src/MazeLib.c ****         {
 392              		.loc 1 44 17 view .LVU106
 393 0034 0122     		movs	r2, #1
 394 0036 F8E7     		b	.L27
 395              	.L38:
 396              	.LBE10:
 397              	.LBE8:
 398              	.LBB11:
  54:Core/Src/MazeLib.c ****     {
 399              		.loc 1 54 13 view .LVU107
 400 0038 0022     		movs	r2, #0
 401 003a 1DE0     		b	.L28
 402              	.LVL34:
 403              	.L29:
  56:Core/Src/MazeLib.c ****             maze->RawNode[i][0].draw = true;//æœªçŸ¥å£ã¯æç”»ã®ã¨ãã«ç„¡ã„ã‚‚ã®ã¨ã™ã‚‹
 404              		.loc 1 56 13 is_stmt 1 discriminator 3 view .LVU108
  56:Core/Src/MazeLib.c ****             maze->RawNode[i][0].draw = true;//æœªçŸ¥å£ã¯æç”»ã®ã¨ãã«ç„¡ã„ã‚‚ã®ã¨ã™ã‚‹
 405              		.loc 1 56 43 is_stmt 0 discriminator 3 view .LVU109
 406 003c 02EB021C 		add	ip, r2, r2, lsl #4
 407 0040 00EBCC03 		add	r3, r0, ip, lsl #3
 408 0044 0121     		movs	r1, #1
 409 0046 00F83C10 		strb	r1, [r0, ip, lsl #3]
  57:Core/Src/MazeLib.c ****             maze->RawNode[i][0].rc = 0;
 410              		.loc 1 57 13 is_stmt 1 discriminator 3 view .LVU110
  57:Core/Src/MazeLib.c ****             maze->RawNode[i][0].rc = 0;
 411              		.loc 1 57 38 is_stmt 0 discriminator 3 view .LVU111
 412 004a 1971     		strb	r1, [r3, #4]
  58:Core/Src/MazeLib.c ****             maze->RawNode[i][0].pos.x = i;
 413              		.loc 1 58 13 is_stmt 1 discriminator 3 view .LVU112
  58:Core/Src/MazeLib.c ****             maze->RawNode[i][0].pos.x = i;
 414              		.loc 1 58 36 is_stmt 0 discriminator 3 view .LVU113
ARM GAS  /var/folders/v_/kwz_t0cs68g1q1d733r227b80000gn/T//cc7enlx9.s 			page 21


 415 004c 4FF0000C 		mov	ip, #0
 416 0050 83F805C0 		strb	ip, [r3, #5]
  59:Core/Src/MazeLib.c ****             maze->RawNode[i][0].pos.y = 0;
 417              		.loc 1 59 13 is_stmt 1 discriminator 3 view .LVU114
  59:Core/Src/MazeLib.c ****             maze->RawNode[i][0].pos.y = 0;
 418              		.loc 1 59 39 is_stmt 0 discriminator 3 view .LVU115
 419 0054 5FFA82FE 		uxtb	lr, r2
 420 0058 83F806E0 		strb	lr, [r3, #6]
  60:Core/Src/MazeLib.c **** //            maze->RawNode[i][0].visit = true; //ä¾¿å®œçš„ã«è¨ªå•æ¸ˆã¿ã¨ã™ã‚‹
 421              		.loc 1 60 13 is_stmt 1 discriminator 3 view .LVU116
  60:Core/Src/MazeLib.c **** //            maze->RawNode[i][0].visit = true; //ä¾¿å®œçš„ã«è¨ªå•æ¸ˆã¿ã¨ã™ã‚‹
 422              		.loc 1 60 39 is_stmt 0 discriminator 3 view .LVU117
 423 005c 83F807C0 		strb	ip, [r3, #7]
  62:Core/Src/MazeLib.c ****             maze->RawNode[i][NUMBER_OF_SQUARES_Y].draw = true;//æœªçŸ¥å£ã¯æç”»ã®ã¨ãã«ç„¡ã
 424              		.loc 1 62 13 is_stmt 1 discriminator 3 view .LVU118
  62:Core/Src/MazeLib.c ****             maze->RawNode[i][NUMBER_OF_SQUARES_Y].draw = true;//æœªçŸ¥å£ã¯æç”»ã®ã¨ãã«ç„¡ã
 425              		.loc 1 62 61 is_stmt 0 discriminator 3 view .LVU119
 426 0060 83F88010 		strb	r1, [r3, #128]
  63:Core/Src/MazeLib.c ****             maze->RawNode[i][NUMBER_OF_SQUARES_Y].rc = 0;
 427              		.loc 1 63 13 is_stmt 1 discriminator 3 view .LVU120
  63:Core/Src/MazeLib.c ****             maze->RawNode[i][NUMBER_OF_SQUARES_Y].rc = 0;
 428              		.loc 1 63 56 is_stmt 0 discriminator 3 view .LVU121
 429 0064 83F88410 		strb	r1, [r3, #132]
  64:Core/Src/MazeLib.c ****             maze->RawNode[i][NUMBER_OF_SQUARES_Y].pos.x = i;
 430              		.loc 1 64 13 is_stmt 1 discriminator 3 view .LVU122
  64:Core/Src/MazeLib.c ****             maze->RawNode[i][NUMBER_OF_SQUARES_Y].pos.x = i;
 431              		.loc 1 64 54 is_stmt 0 discriminator 3 view .LVU123
 432 0068 83F885C0 		strb	ip, [r3, #133]
  65:Core/Src/MazeLib.c ****             maze->RawNode[i][NUMBER_OF_SQUARES_Y].pos.y = NUMBER_OF_SQUARES_Y;
 433              		.loc 1 65 13 is_stmt 1 discriminator 3 view .LVU124
  65:Core/Src/MazeLib.c ****             maze->RawNode[i][NUMBER_OF_SQUARES_Y].pos.y = NUMBER_OF_SQUARES_Y;
 434              		.loc 1 65 57 is_stmt 0 discriminator 3 view .LVU125
 435 006c 83F886E0 		strb	lr, [r3, #134]
  66:Core/Src/MazeLib.c **** //            maze->RawNode[i][NUMBER_OF_SQUARES_Y].visit = true; //ä¾¿å®œçš„ã«è¨ªå•æ¸ˆã¿ã¨ã™ã
 436              		.loc 1 66 13 is_stmt 1 discriminator 3 view .LVU126
  66:Core/Src/MazeLib.c **** //            maze->RawNode[i][NUMBER_OF_SQUARES_Y].visit = true; //ä¾¿å®œçš„ã«è¨ªå•æ¸ˆã¿ã¨ã™ã
 437              		.loc 1 66 57 is_stmt 0 discriminator 3 view .LVU127
 438 0070 1021     		movs	r1, #16
 439 0072 83F88710 		strb	r1, [r3, #135]
  54:Core/Src/MazeLib.c ****     {
 440              		.loc 1 54 43 is_stmt 1 discriminator 3 view .LVU128
  54:Core/Src/MazeLib.c ****     {
 441              		.loc 1 54 44 is_stmt 0 discriminator 3 view .LVU129
 442 0076 0132     		adds	r2, r2, #1
 443              	.LVL35:
 444              	.L28:
  54:Core/Src/MazeLib.c ****     {
 445              		.loc 1 54 18 is_stmt 1 discriminator 1 view .LVU130
  54:Core/Src/MazeLib.c ****     {
 446              		.loc 1 54 5 is_stmt 0 discriminator 1 view .LVU131
 447 0078 0F2A     		cmp	r2, #15
 448 007a DFDD     		ble	.L29
 449              	.LBE11:
 450              	.LBB12:
  69:Core/Src/MazeLib.c ****     {
 451              		.loc 1 69 13 view .LVU132
 452 007c 0121     		movs	r1, #1
ARM GAS  /var/folders/v_/kwz_t0cs68g1q1d733r227b80000gn/T//cc7enlx9.s 			page 22


 453 007e 17E0     		b	.L30
 454              	.LVL36:
 455              	.L31:
 456              	.LBB13:
  73:Core/Src/MazeLib.c ****             maze->ColumnNode[i][j].draw = false;
 457              		.loc 1 73 13 is_stmt 1 discriminator 3 view .LVU133
  73:Core/Src/MazeLib.c ****             maze->ColumnNode[i][j].draw = false;
 458              		.loc 1 73 46 is_stmt 0 discriminator 3 view .LVU134
 459 0080 02EB0113 		add	r3, r2, r1, lsl #4
 460 0084 03F58873 		add	r3, r3, #272
 461 0088 4FF0020C 		mov	ip, #2
 462 008c 00F833C0 		strb	ip, [r0, r3, lsl #3]
  74:Core/Src/MazeLib.c ****             maze->ColumnNode[i][j].rc = 1;
 463              		.loc 1 74 13 is_stmt 1 discriminator 3 view .LVU135
  74:Core/Src/MazeLib.c ****             maze->ColumnNode[i][j].rc = 1;
 464              		.loc 1 74 41 is_stmt 0 discriminator 3 view .LVU136
 465 0090 00EBC303 		add	r3, r0, r3, lsl #3
 466 0094 4FF0000C 		mov	ip, #0
 467 0098 83F804C0 		strb	ip, [r3, #4]
  75:Core/Src/MazeLib.c ****             maze->ColumnNode[i][j].pos.x = i;
 468              		.loc 1 75 13 is_stmt 1 discriminator 3 view .LVU137
  75:Core/Src/MazeLib.c ****             maze->ColumnNode[i][j].pos.x = i;
 469              		.loc 1 75 39 is_stmt 0 discriminator 3 view .LVU138
 470 009c 4FF0010C 		mov	ip, #1
 471 00a0 83F805C0 		strb	ip, [r3, #5]
  76:Core/Src/MazeLib.c ****             maze->ColumnNode[i][j].pos.y = j;
 472              		.loc 1 76 13 is_stmt 1 discriminator 3 view .LVU139
  76:Core/Src/MazeLib.c ****             maze->ColumnNode[i][j].pos.y = j;
 473              		.loc 1 76 42 is_stmt 0 discriminator 3 view .LVU140
 474 00a4 9971     		strb	r1, [r3, #6]
  77:Core/Src/MazeLib.c **** //            maze->ColumnNode[i][j].visit = false;
 475              		.loc 1 77 13 is_stmt 1 discriminator 3 view .LVU141
  77:Core/Src/MazeLib.c **** //            maze->ColumnNode[i][j].visit = false;
 476              		.loc 1 77 42 is_stmt 0 discriminator 3 view .LVU142
 477 00a6 DA71     		strb	r2, [r3, #7]
  71:Core/Src/MazeLib.c ****         {
 478              		.loc 1 71 47 is_stmt 1 discriminator 3 view .LVU143
  71:Core/Src/MazeLib.c ****         {
 479              		.loc 1 71 48 is_stmt 0 discriminator 3 view .LVU144
 480 00a8 6244     		add	r2, r2, ip
 481              	.LVL37:
 482              	.L32:
  71:Core/Src/MazeLib.c ****         {
 483              		.loc 1 71 22 is_stmt 1 discriminator 1 view .LVU145
  71:Core/Src/MazeLib.c ****         {
 484              		.loc 1 71 9 is_stmt 0 discriminator 1 view .LVU146
 485 00aa 0F2A     		cmp	r2, #15
 486 00ac E8DD     		ble	.L31
 487              	.LBE13:
  69:Core/Src/MazeLib.c ****     {
 488              		.loc 1 69 43 is_stmt 1 discriminator 2 view .LVU147
  69:Core/Src/MazeLib.c ****     {
 489              		.loc 1 69 44 is_stmt 0 discriminator 2 view .LVU148
 490 00ae 0131     		adds	r1, r1, #1
 491              	.LVL38:
 492              	.L30:
  69:Core/Src/MazeLib.c ****     {
ARM GAS  /var/folders/v_/kwz_t0cs68g1q1d733r227b80000gn/T//cc7enlx9.s 			page 23


 493              		.loc 1 69 18 is_stmt 1 discriminator 1 view .LVU149
  69:Core/Src/MazeLib.c ****     {
 494              		.loc 1 69 5 is_stmt 0 discriminator 1 view .LVU150
 495 00b0 0F29     		cmp	r1, #15
 496 00b2 01DC     		bgt	.L39
 497              	.LBB14:
  71:Core/Src/MazeLib.c ****         {
 498              		.loc 1 71 17 view .LVU151
 499 00b4 0022     		movs	r2, #0
 500 00b6 F8E7     		b	.L32
 501              	.L39:
 502              	.LBE14:
 503              	.LBE12:
 504              	.LBB15:
  81:Core/Src/MazeLib.c ****     {
 505              		.loc 1 81 13 view .LVU152
 506 00b8 0021     		movs	r1, #0
 507              	.LVL39:
  81:Core/Src/MazeLib.c ****     {
 508              		.loc 1 81 13 view .LVU153
 509 00ba 1DE0     		b	.L33
 510              	.LVL40:
 511              	.L34:
  83:Core/Src/MazeLib.c ****             maze->ColumnNode[0][j].draw = true;
 512              		.loc 1 83 13 is_stmt 1 discriminator 3 view .LVU154
  83:Core/Src/MazeLib.c ****             maze->ColumnNode[0][j].draw = true;
 513              		.loc 1 83 46 is_stmt 0 discriminator 3 view .LVU155
 514 00bc 01F58873 		add	r3, r1, #272
 515 00c0 0122     		movs	r2, #1
 516 00c2 00F83320 		strb	r2, [r0, r3, lsl #3]
  84:Core/Src/MazeLib.c ****             maze->ColumnNode[0][j].rc = 1;
 517              		.loc 1 84 13 is_stmt 1 discriminator 3 view .LVU156
  84:Core/Src/MazeLib.c ****             maze->ColumnNode[0][j].rc = 1;
 518              		.loc 1 84 41 is_stmt 0 discriminator 3 view .LVU157
 519 00c6 00EBC303 		add	r3, r0, r3, lsl #3
 520 00ca 1A71     		strb	r2, [r3, #4]
  85:Core/Src/MazeLib.c ****             maze->ColumnNode[0][j].pos.x = 0;
 521              		.loc 1 85 13 is_stmt 1 discriminator 3 view .LVU158
  85:Core/Src/MazeLib.c ****             maze->ColumnNode[0][j].pos.x = 0;
 522              		.loc 1 85 39 is_stmt 0 discriminator 3 view .LVU159
 523 00cc 5A71     		strb	r2, [r3, #5]
  86:Core/Src/MazeLib.c ****             maze->ColumnNode[0][j].pos.y = j;
 524              		.loc 1 86 13 is_stmt 1 discriminator 3 view .LVU160
  86:Core/Src/MazeLib.c ****             maze->ColumnNode[0][j].pos.y = j;
 525              		.loc 1 86 42 is_stmt 0 discriminator 3 view .LVU161
 526 00ce 4FF0000C 		mov	ip, #0
 527 00d2 83F806C0 		strb	ip, [r3, #6]
  87:Core/Src/MazeLib.c **** //            maze->ColumnNode[0][j].visit = true;
 528              		.loc 1 87 13 is_stmt 1 discriminator 3 view .LVU162
  87:Core/Src/MazeLib.c **** //            maze->ColumnNode[0][j].visit = true;
 529              		.loc 1 87 42 is_stmt 0 discriminator 3 view .LVU163
 530 00d6 5FFA81FC 		uxtb	ip, r1
 531 00da 83F807C0 		strb	ip, [r3, #7]
  89:Core/Src/MazeLib.c ****             maze->ColumnNode[NUMBER_OF_SQUARES_X][j].draw = true;
 532              		.loc 1 89 13 is_stmt 1 discriminator 3 view .LVU164
  89:Core/Src/MazeLib.c ****             maze->ColumnNode[NUMBER_OF_SQUARES_X][j].draw = true;
 533              		.loc 1 89 64 is_stmt 0 discriminator 3 view .LVU165
ARM GAS  /var/folders/v_/kwz_t0cs68g1q1d733r227b80000gn/T//cc7enlx9.s 			page 24


 534 00de 01F50473 		add	r3, r1, #528
 535 00e2 00F83320 		strb	r2, [r0, r3, lsl #3]
  90:Core/Src/MazeLib.c ****             maze->ColumnNode[NUMBER_OF_SQUARES_X][j].rc = 1;
 536              		.loc 1 90 13 is_stmt 1 discriminator 3 view .LVU166
  90:Core/Src/MazeLib.c ****             maze->ColumnNode[NUMBER_OF_SQUARES_X][j].rc = 1;
 537              		.loc 1 90 59 is_stmt 0 discriminator 3 view .LVU167
 538 00e6 00EBC303 		add	r3, r0, r3, lsl #3
 539 00ea 1A71     		strb	r2, [r3, #4]
  91:Core/Src/MazeLib.c ****             maze->ColumnNode[NUMBER_OF_SQUARES_X][j].pos.x = NUMBER_OF_SQUARES_X;
 540              		.loc 1 91 13 is_stmt 1 discriminator 3 view .LVU168
  91:Core/Src/MazeLib.c ****             maze->ColumnNode[NUMBER_OF_SQUARES_X][j].pos.x = NUMBER_OF_SQUARES_X;
 541              		.loc 1 91 57 is_stmt 0 discriminator 3 view .LVU169
 542 00ec 5A71     		strb	r2, [r3, #5]
  92:Core/Src/MazeLib.c ****             maze->ColumnNode[NUMBER_OF_SQUARES_X][j].pos.y = j;
 543              		.loc 1 92 13 is_stmt 1 discriminator 3 view .LVU170
  92:Core/Src/MazeLib.c ****             maze->ColumnNode[NUMBER_OF_SQUARES_X][j].pos.y = j;
 544              		.loc 1 92 60 is_stmt 0 discriminator 3 view .LVU171
 545 00ee 1022     		movs	r2, #16
 546 00f0 9A71     		strb	r2, [r3, #6]
  93:Core/Src/MazeLib.c **** //            maze->ColumnNode[NUMBER_OF_SQUARES_X][j].visit = true;
 547              		.loc 1 93 13 is_stmt 1 discriminator 3 view .LVU172
  93:Core/Src/MazeLib.c **** //            maze->ColumnNode[NUMBER_OF_SQUARES_X][j].visit = true;
 548              		.loc 1 93 60 is_stmt 0 discriminator 3 view .LVU173
 549 00f2 83F807C0 		strb	ip, [r3, #7]
  81:Core/Src/MazeLib.c ****     {
 550              		.loc 1 81 43 is_stmt 1 discriminator 3 view .LVU174
  81:Core/Src/MazeLib.c ****     {
 551              		.loc 1 81 44 is_stmt 0 discriminator 3 view .LVU175
 552 00f6 0131     		adds	r1, r1, #1
 553              	.LVL41:
 554              	.L33:
  81:Core/Src/MazeLib.c ****     {
 555              		.loc 1 81 18 is_stmt 1 discriminator 1 view .LVU176
  81:Core/Src/MazeLib.c ****     {
 556              		.loc 1 81 5 is_stmt 0 discriminator 1 view .LVU177
 557 00f8 0F29     		cmp	r1, #15
 558 00fa DFDD     		ble	.L34
 559              	.LBE15:
 130:Core/Src/MazeLib.c ****     maze->RawNode[0][1].existence = NOWALL;     //åŒ—0
 560              		.loc 1 130 5 is_stmt 1 view .LVU178
 130:Core/Src/MazeLib.c ****     maze->RawNode[0][1].existence = NOWALL;     //åŒ—0
 561              		.loc 1 130 38 is_stmt 0 view .LVU179
 562 00fc 0122     		movs	r2, #1
 563 00fe 80F80029 		strb	r2, [r0, #2304]
 131:Core/Src/MazeLib.c **** 
 564              		.loc 1 131 5 is_stmt 1 view .LVU180
 131:Core/Src/MazeLib.c **** 
 565              		.loc 1 131 35 is_stmt 0 view .LVU181
 566 0102 0023     		movs	r3, #0
 567 0104 0372     		strb	r3, [r0, #8]
 133:Core/Src/MazeLib.c ****     maze->RawNode[0][1].draw = false;     //åŒ—0
 568              		.loc 1 133 5 is_stmt 1 view .LVU182
 133:Core/Src/MazeLib.c ****     maze->RawNode[0][1].draw = false;     //åŒ—0
 569              		.loc 1 133 33 is_stmt 0 view .LVU183
 570 0106 80F80429 		strb	r2, [r0, #2308]
 134:Core/Src/MazeLib.c **** 
 571              		.loc 1 134 5 is_stmt 1 view .LVU184
ARM GAS  /var/folders/v_/kwz_t0cs68g1q1d733r227b80000gn/T//cc7enlx9.s 			page 25


 134:Core/Src/MazeLib.c **** 
 572              		.loc 1 134 30 is_stmt 0 view .LVU185
 573 010a 0373     		strb	r3, [r0, #12]
 139:Core/Src/MazeLib.c **** void initTargetAreaWeight(maze_node *maze, uint8_t x, uint8_t y, uint8_t target_size_x, uint8_t tar
 574              		.loc 1 139 1 view .LVU186
 575 010c 5DF804FB 		ldr	pc, [sp], #4
 576              		.cfi_endproc
 577              	.LFE4:
 579              		.section	.text.initTargetAreaWeight,"ax",%progbits
 580              		.align	1
 581              		.global	initTargetAreaWeight
 582              		.syntax unified
 583              		.thumb
 584              		.thumb_func
 585              		.fpu fpv4-sp-d16
 587              	initTargetAreaWeight:
 588              	.LVL42:
 589              	.LFB5:
 141:Core/Src/MazeLib.c ****     //ã‚´ãƒ¼ãƒ«ã‚¨ãƒªã‚¢ã®å¤–å €ã¨ä¸­ã®ãƒãƒ¼ãƒ‰ã¯å…¨ã¦0ã€å£ãŒã‚ã‚Œã°MAXã€‚
 590              		.loc 1 141 1 is_stmt 1 view -0
 591              		.cfi_startproc
 592              		@ args = 4, pretend = 0, frame = 0
 593              		@ frame_needed = 0, uses_anonymous_args = 0
 141:Core/Src/MazeLib.c ****     //ã‚´ãƒ¼ãƒ«ã‚¨ãƒªã‚¢ã®å¤–å €ã¨ä¸­ã®ãƒãƒ¼ãƒ‰ã¯å…¨ã¦0ã€å£ãŒã‚ã‚Œã°MAXã€‚
 594              		.loc 1 141 1 is_stmt 0 view .LVU188
 595 0000 2DE9F041 		push	{r4, r5, r6, r7, r8, lr}
 596              	.LCFI2:
 597              		.cfi_def_cfa_offset 24
 598              		.cfi_offset 4, -24
 599              		.cfi_offset 5, -20
 600              		.cfi_offset 6, -16
 601              		.cfi_offset 7, -12
 602              		.cfi_offset 8, -8
 603              		.cfi_offset 14, -4
 604 0004 0D46     		mov	r5, r1
 605 0006 1446     		mov	r4, r2
 606 0008 1F46     		mov	r7, r3
 607 000a 9DF81860 		ldrb	r6, [sp, #24]	@ zero_extendqisi2
 143:Core/Src/MazeLib.c ****     {
 608              		.loc 1 143 5 is_stmt 1 view .LVU189
 609              	.LBB16:
 143:Core/Src/MazeLib.c ****     {
 610              		.loc 1 143 9 view .LVU190
 611              	.LVL43:
 143:Core/Src/MazeLib.c ****     {
 612              		.loc 1 143 13 is_stmt 0 view .LVU191
 613 000e 0021     		movs	r1, #0
 614              	.LVL44:
 143:Core/Src/MazeLib.c ****     {
 615              		.loc 1 143 5 view .LVU192
 616 0010 5CE0     		b	.L41
 617              	.LVL45:
 618              	.L58:
 619              	.LBB17:
 153:Core/Src/MazeLib.c ****             maze->ColumnNode[x+1+i][y+j].weight = (maze->ColumnNode[x+1+i][y+j].existence == WALL) 
 620              		.loc 1 153 46 view .LVU193
 621 0012 40F6FF78 		movw	r8, #4095
ARM GAS  /var/folders/v_/kwz_t0cs68g1q1d733r227b80000gn/T//cc7enlx9.s 			page 26


 622              	.L42:
 153:Core/Src/MazeLib.c ****             maze->ColumnNode[x+1+i][y+j].weight = (maze->ColumnNode[x+1+i][y+j].existence == WALL) 
 623              		.loc 1 153 46 discriminator 4 view .LVU194
 624 0016 0EEB0E13 		add	r3, lr, lr, lsl #4
 625 001a 6344     		add	r3, r3, ip
 626 001c 00EBC303 		add	r3, r0, r3, lsl #3
 627 0020 A3F80280 		strh	r8, [r3, #2]	@ movhi
 154:Core/Src/MazeLib.c ****             maze->RawNode[x+i][y+j].weight = (maze->RawNode[x+i][y+j].existence == WALL) ? MAX_WEIG
 628              		.loc 1 154 13 is_stmt 1 discriminator 4 view .LVU195
 154:Core/Src/MazeLib.c ****             maze->RawNode[x+i][y+j].weight = (maze->RawNode[x+i][y+j].existence == WALL) ? MAX_WEIG
 629              		.loc 1 154 70 is_stmt 0 discriminator 4 view .LVU196
 630 0024 6B1C     		adds	r3, r5, #1
 154:Core/Src/MazeLib.c ****             maze->RawNode[x+i][y+j].weight = (maze->RawNode[x+i][y+j].existence == WALL) ? MAX_WEIG
 631              		.loc 1 154 72 discriminator 4 view .LVU197
 632 0026 0B44     		add	r3, r3, r1
 154:Core/Src/MazeLib.c ****             maze->RawNode[x+i][y+j].weight = (maze->RawNode[x+i][y+j].existence == WALL) ? MAX_WEIG
 633              		.loc 1 154 77 discriminator 4 view .LVU198
 634 0028 04EB020C 		add	ip, r4, r2
 154:Core/Src/MazeLib.c ****             maze->RawNode[x+i][y+j].weight = (maze->RawNode[x+i][y+j].existence == WALL) ? MAX_WEIG
 635              		.loc 1 154 80 discriminator 4 view .LVU199
 636 002c 0CEB0318 		add	r8, ip, r3, lsl #4
 637 0030 08F58878 		add	r8, r8, #272
 638 0034 10F83880 		ldrb	r8, [r0, r8, lsl #3]	@ zero_extendqisi2
 154:Core/Src/MazeLib.c ****             maze->RawNode[x+i][y+j].weight = (maze->RawNode[x+i][y+j].existence == WALL) ? MAX_WEIG
 639              		.loc 1 154 49 discriminator 4 view .LVU200
 640 0038 B8F1010F 		cmp	r8, #1
 641 003c 3CD0     		beq	.L54
 154:Core/Src/MazeLib.c ****             maze->RawNode[x+i][y+j].weight = (maze->RawNode[x+i][y+j].existence == WALL) ? MAX_WEIG
 642              		.loc 1 154 49 view .LVU201
 643 003e 4FF00008 		mov	r8, #0
 644              	.L43:
 154:Core/Src/MazeLib.c ****             maze->RawNode[x+i][y+j].weight = (maze->RawNode[x+i][y+j].existence == WALL) ? MAX_WEIG
 645              		.loc 1 154 49 discriminator 4 view .LVU202
 646 0042 0CEB0313 		add	r3, ip, r3, lsl #4
 647 0046 03F58873 		add	r3, r3, #272
 648 004a 00EBC303 		add	r3, r0, r3, lsl #3
 649 004e A3F80280 		strh	r8, [r3, #2]	@ movhi
 155:Core/Src/MazeLib.c ****             maze->ColumnNode[x+i][y+j].weight = (maze->ColumnNode[x+i][y+j].existence == WALL) ? MA
 650              		.loc 1 155 13 is_stmt 1 discriminator 4 view .LVU203
 155:Core/Src/MazeLib.c ****             maze->ColumnNode[x+i][y+j].weight = (maze->ColumnNode[x+i][y+j].existence == WALL) ? MA
 651              		.loc 1 155 70 is_stmt 0 discriminator 4 view .LVU204
 652 0052 0EEB0E13 		add	r3, lr, lr, lsl #4
 653 0056 6344     		add	r3, r3, ip
 654 0058 10F83330 		ldrb	r3, [r0, r3, lsl #3]	@ zero_extendqisi2
 155:Core/Src/MazeLib.c ****             maze->ColumnNode[x+i][y+j].weight = (maze->ColumnNode[x+i][y+j].existence == WALL) ? MA
 655              		.loc 1 155 44 discriminator 4 view .LVU205
 656 005c 012B     		cmp	r3, #1
 657 005e 2ED0     		beq	.L55
 155:Core/Src/MazeLib.c ****             maze->ColumnNode[x+i][y+j].weight = (maze->ColumnNode[x+i][y+j].existence == WALL) ? MA
 658              		.loc 1 155 44 view .LVU206
 659 0060 4FF00008 		mov	r8, #0
 660              	.L44:
 155:Core/Src/MazeLib.c ****             maze->ColumnNode[x+i][y+j].weight = (maze->ColumnNode[x+i][y+j].existence == WALL) ? MA
 661              		.loc 1 155 44 discriminator 4 view .LVU207
 662 0064 0EEB0E13 		add	r3, lr, lr, lsl #4
 663 0068 6344     		add	r3, r3, ip
 664 006a 00EBC303 		add	r3, r0, r3, lsl #3
ARM GAS  /var/folders/v_/kwz_t0cs68g1q1d733r227b80000gn/T//cc7enlx9.s 			page 27


 665 006e A3F80280 		strh	r8, [r3, #2]	@ movhi
 156:Core/Src/MazeLib.c ****         }
 666              		.loc 1 156 13 is_stmt 1 discriminator 4 view .LVU208
 156:Core/Src/MazeLib.c ****         }
 667              		.loc 1 156 76 is_stmt 0 discriminator 4 view .LVU209
 668 0072 0CEB0E13 		add	r3, ip, lr, lsl #4
 669 0076 03F58873 		add	r3, r3, #272
 670 007a 10F83330 		ldrb	r3, [r0, r3, lsl #3]	@ zero_extendqisi2
 156:Core/Src/MazeLib.c ****         }
 671              		.loc 1 156 47 discriminator 4 view .LVU210
 672 007e 012B     		cmp	r3, #1
 673 0080 20D0     		beq	.L56
 156:Core/Src/MazeLib.c ****         }
 674              		.loc 1 156 47 view .LVU211
 675 0082 0023     		movs	r3, #0
 676              	.L45:
 156:Core/Src/MazeLib.c ****         }
 677              		.loc 1 156 47 discriminator 4 view .LVU212
 678 0084 0CEB0E1C 		add	ip, ip, lr, lsl #4
 679 0088 0CF5887C 		add	ip, ip, #272
 680 008c 00EBCC0C 		add	ip, r0, ip, lsl #3
 681 0090 ACF80230 		strh	r3, [ip, #2]	@ movhi
 145:Core/Src/MazeLib.c ****         {
 682              		.loc 1 145 41 is_stmt 1 discriminator 4 view .LVU213
 145:Core/Src/MazeLib.c ****         {
 683              		.loc 1 145 42 is_stmt 0 discriminator 4 view .LVU214
 684 0094 0132     		adds	r2, r2, #1
 685              	.LVL46:
 686              	.L47:
 145:Core/Src/MazeLib.c ****         {
 687              		.loc 1 145 22 is_stmt 1 discriminator 2 view .LVU215
 145:Core/Src/MazeLib.c ****         {
 688              		.loc 1 145 9 is_stmt 0 discriminator 2 view .LVU216
 689 0096 9642     		cmp	r6, r2
 690 0098 17DD     		ble	.L57
 153:Core/Src/MazeLib.c ****             maze->ColumnNode[x+1+i][y+j].weight = (maze->ColumnNode[x+1+i][y+j].existence == WALL) 
 691              		.loc 1 153 13 is_stmt 1 view .LVU217
 153:Core/Src/MazeLib.c ****             maze->ColumnNode[x+1+i][y+j].weight = (maze->ColumnNode[x+1+i][y+j].existence == WALL) 
 692              		.loc 1 153 64 is_stmt 0 view .LVU218
 693 009a 05EB010E 		add	lr, r5, r1
 153:Core/Src/MazeLib.c ****             maze->ColumnNode[x+1+i][y+j].weight = (maze->ColumnNode[x+1+i][y+j].existence == WALL) 
 694              		.loc 1 153 69 view .LVU219
 695 009e 631C     		adds	r3, r4, #1
 153:Core/Src/MazeLib.c ****             maze->ColumnNode[x+1+i][y+j].weight = (maze->ColumnNode[x+1+i][y+j].existence == WALL) 
 696              		.loc 1 153 71 view .LVU220
 697 00a0 03EB020C 		add	ip, r3, r2
 153:Core/Src/MazeLib.c ****             maze->ColumnNode[x+1+i][y+j].weight = (maze->ColumnNode[x+1+i][y+j].existence == WALL) 
 698              		.loc 1 153 74 view .LVU221
 699 00a4 0EEB0E13 		add	r3, lr, lr, lsl #4
 700 00a8 6344     		add	r3, r3, ip
 701 00aa 10F83330 		ldrb	r3, [r0, r3, lsl #3]	@ zero_extendqisi2
 153:Core/Src/MazeLib.c ****             maze->ColumnNode[x+1+i][y+j].weight = (maze->ColumnNode[x+1+i][y+j].existence == WALL) 
 702              		.loc 1 153 46 view .LVU222
 703 00ae 012B     		cmp	r3, #1
 704 00b0 AFD0     		beq	.L58
 153:Core/Src/MazeLib.c ****             maze->ColumnNode[x+1+i][y+j].weight = (maze->ColumnNode[x+1+i][y+j].existence == WALL) 
 705              		.loc 1 153 46 view .LVU223
ARM GAS  /var/folders/v_/kwz_t0cs68g1q1d733r227b80000gn/T//cc7enlx9.s 			page 28


 706 00b2 4FF00008 		mov	r8, #0
 707 00b6 AEE7     		b	.L42
 708              	.L54:
 154:Core/Src/MazeLib.c ****             maze->RawNode[x+i][y+j].weight = (maze->RawNode[x+i][y+j].existence == WALL) ? MAX_WEIG
 709              		.loc 1 154 49 view .LVU224
 710 00b8 40F6FF78 		movw	r8, #4095
 711 00bc C1E7     		b	.L43
 712              	.L55:
 155:Core/Src/MazeLib.c ****             maze->ColumnNode[x+i][y+j].weight = (maze->ColumnNode[x+i][y+j].existence == WALL) ? MA
 713              		.loc 1 155 44 view .LVU225
 714 00be 40F6FF78 		movw	r8, #4095
 715 00c2 CFE7     		b	.L44
 716              	.L56:
 156:Core/Src/MazeLib.c ****         }
 717              		.loc 1 156 47 view .LVU226
 718 00c4 40F6FF73 		movw	r3, #4095
 719 00c8 DCE7     		b	.L45
 720              	.L57:
 156:Core/Src/MazeLib.c ****         }
 721              		.loc 1 156 47 view .LVU227
 722              	.LBE17:
 143:Core/Src/MazeLib.c ****     {
 723              		.loc 1 143 37 is_stmt 1 discriminator 2 view .LVU228
 143:Core/Src/MazeLib.c ****     {
 724              		.loc 1 143 38 is_stmt 0 discriminator 2 view .LVU229
 725 00ca 0131     		adds	r1, r1, #1
 726              	.LVL47:
 727              	.L41:
 143:Core/Src/MazeLib.c ****     {
 728              		.loc 1 143 18 is_stmt 1 discriminator 1 view .LVU230
 143:Core/Src/MazeLib.c ****     {
 729              		.loc 1 143 5 is_stmt 0 discriminator 1 view .LVU231
 730 00cc 8F42     		cmp	r7, r1
 731 00ce 01DD     		ble	.L59
 732              	.LBB18:
 145:Core/Src/MazeLib.c ****         {
 733              		.loc 1 145 17 view .LVU232
 734 00d0 0022     		movs	r2, #0
 735 00d2 E0E7     		b	.L47
 736              	.L59:
 737              	.LBE18:
 738              	.LBE16:
 159:Core/Src/MazeLib.c **** 
 739              		.loc 1 159 1 view .LVU233
 740 00d4 BDE8F081 		pop	{r4, r5, r6, r7, r8, pc}
 159:Core/Src/MazeLib.c **** 
 741              		.loc 1 159 1 view .LVU234
 742              		.cfi_endproc
 743              	.LFE5:
 745              		.section	.text.setExistanceRawNode,"ax",%progbits
 746              		.align	1
 747              		.global	setExistanceRawNode
 748              		.syntax unified
 749              		.thumb
 750              		.thumb_func
 751              		.fpu fpv4-sp-d16
 753              	setExistanceRawNode:
ARM GAS  /var/folders/v_/kwz_t0cs68g1q1d733r227b80000gn/T//cc7enlx9.s 			page 29


 754              	.LVL48:
 755              	.LFB6:
 163:Core/Src/MazeLib.c ****     if(x >= NUMBER_OF_SQUARES_X || y >= NUMBER_OF_SQUARES_Y || x < 0 || y < 0)
 756              		.loc 1 163 1 is_stmt 1 view -0
 757              		.cfi_startproc
 758              		@ args = 0, pretend = 0, frame = 0
 759              		@ frame_needed = 0, uses_anonymous_args = 0
 760              		@ link register save eliminated.
 164:Core/Src/MazeLib.c ****     {
 761              		.loc 1 164 5 view .LVU236
 164:Core/Src/MazeLib.c ****     {
 762              		.loc 1 164 7 is_stmt 0 view .LVU237
 763 0000 0F29     		cmp	r1, #15
 764 0002 08D8     		bhi	.L62
 164:Core/Src/MazeLib.c ****     {
 765              		.loc 1 164 70 discriminator 1 view .LVU238
 766 0004 0F2A     		cmp	r2, #15
 767 0006 08D8     		bhi	.L63
 170:Core/Src/MazeLib.c ****         // maze->RawNode[x][y].flag = true;
 768              		.loc 1 170 9 is_stmt 1 view .LVU239
 170:Core/Src/MazeLib.c ****         // maze->RawNode[x][y].flag = true;
 769              		.loc 1 170 39 is_stmt 0 view .LVU240
 770 0008 01EB0111 		add	r1, r1, r1, lsl #4
 771              	.LVL49:
 170:Core/Src/MazeLib.c ****         // maze->RawNode[x][y].flag = true;
 772              		.loc 1 170 39 view .LVU241
 773 000c 1144     		add	r1, r1, r2
 774 000e 00F83130 		strb	r3, [r0, r1, lsl #3]
 172:Core/Src/MazeLib.c ****     }
 775              		.loc 1 172 9 is_stmt 1 view .LVU242
 172:Core/Src/MazeLib.c ****     }
 776              		.loc 1 172 16 is_stmt 0 view .LVU243
 777 0012 0120     		movs	r0, #1
 778              	.LVL50:
 172:Core/Src/MazeLib.c ****     }
 779              		.loc 1 172 16 view .LVU244
 780 0014 7047     		bx	lr
 781              	.LVL51:
 782              	.L62:
 166:Core/Src/MazeLib.c ****     }
 783              		.loc 1 166 16 view .LVU245
 784 0016 0020     		movs	r0, #0
 785              	.LVL52:
 166:Core/Src/MazeLib.c ****     }
 786              		.loc 1 166 16 view .LVU246
 787 0018 7047     		bx	lr
 788              	.LVL53:
 789              	.L63:
 166:Core/Src/MazeLib.c ****     }
 790              		.loc 1 166 16 view .LVU247
 791 001a 0020     		movs	r0, #0
 792              	.LVL54:
 174:Core/Src/MazeLib.c **** _Bool setExistanceColumnNode(maze_node *maze, uint8_t x, uint8_t y, wall_state et)
 793              		.loc 1 174 1 view .LVU248
 794 001c 7047     		bx	lr
 795              		.cfi_endproc
 796              	.LFE6:
ARM GAS  /var/folders/v_/kwz_t0cs68g1q1d733r227b80000gn/T//cc7enlx9.s 			page 30


 798              		.section	.text.setExistanceColumnNode,"ax",%progbits
 799              		.align	1
 800              		.global	setExistanceColumnNode
 801              		.syntax unified
 802              		.thumb
 803              		.thumb_func
 804              		.fpu fpv4-sp-d16
 806              	setExistanceColumnNode:
 807              	.LVL55:
 808              	.LFB7:
 176:Core/Src/MazeLib.c ****     if(x >= NUMBER_OF_SQUARES_X || y >= NUMBER_OF_SQUARES_Y || x < 0 || y < 0)
 809              		.loc 1 176 1 is_stmt 1 view -0
 810              		.cfi_startproc
 811              		@ args = 0, pretend = 0, frame = 0
 812              		@ frame_needed = 0, uses_anonymous_args = 0
 813              		@ link register save eliminated.
 177:Core/Src/MazeLib.c ****     {
 814              		.loc 1 177 5 view .LVU250
 177:Core/Src/MazeLib.c ****     {
 815              		.loc 1 177 7 is_stmt 0 view .LVU251
 816 0000 0F29     		cmp	r1, #15
 817 0002 09D8     		bhi	.L66
 177:Core/Src/MazeLib.c ****     {
 818              		.loc 1 177 70 discriminator 1 view .LVU252
 819 0004 0F2A     		cmp	r2, #15
 820 0006 09D8     		bhi	.L67
 183:Core/Src/MazeLib.c ****         // maze->ColumnNode[x][y].flag = true;
 821              		.loc 1 183 9 is_stmt 1 view .LVU253
 183:Core/Src/MazeLib.c ****         // maze->ColumnNode[x][y].flag = true;
 822              		.loc 1 183 42 is_stmt 0 view .LVU254
 823 0008 02EB0112 		add	r2, r2, r1, lsl #4
 824              	.LVL56:
 183:Core/Src/MazeLib.c ****         // maze->ColumnNode[x][y].flag = true;
 825              		.loc 1 183 42 view .LVU255
 826 000c 02F58872 		add	r2, r2, #272
 827 0010 00F83230 		strb	r3, [r0, r2, lsl #3]
 185:Core/Src/MazeLib.c ****     }
 828              		.loc 1 185 9 is_stmt 1 view .LVU256
 185:Core/Src/MazeLib.c ****     }
 829              		.loc 1 185 16 is_stmt 0 view .LVU257
 830 0014 0120     		movs	r0, #1
 831              	.LVL57:
 185:Core/Src/MazeLib.c ****     }
 832              		.loc 1 185 16 view .LVU258
 833 0016 7047     		bx	lr
 834              	.LVL58:
 835              	.L66:
 179:Core/Src/MazeLib.c ****     }
 836              		.loc 1 179 16 view .LVU259
 837 0018 0020     		movs	r0, #0
 838              	.LVL59:
 179:Core/Src/MazeLib.c ****     }
 839              		.loc 1 179 16 view .LVU260
 840 001a 7047     		bx	lr
 841              	.LVL60:
 842              	.L67:
 179:Core/Src/MazeLib.c ****     }
ARM GAS  /var/folders/v_/kwz_t0cs68g1q1d733r227b80000gn/T//cc7enlx9.s 			page 31


 843              		.loc 1 179 16 view .LVU261
 844 001c 0020     		movs	r0, #0
 845              	.LVL61:
 187:Core/Src/MazeLib.c **** 
 846              		.loc 1 187 1 view .LVU262
 847 001e 7047     		bx	lr
 848              		.cfi_endproc
 849              	.LFE7:
 851              		.section	.text.setWeightRawNode,"ax",%progbits
 852              		.align	1
 853              		.global	setWeightRawNode
 854              		.syntax unified
 855              		.thumb
 856              		.thumb_func
 857              		.fpu fpv4-sp-d16
 859              	setWeightRawNode:
 860              	.LVL62:
 861              	.LFB8:
 190:Core/Src/MazeLib.c ****     if(x >= NUMBER_OF_SQUARES_X || y >= NUMBER_OF_SQUARES_Y || x < 0 || y < 0 || (wt < 0 || MAX_WEI
 862              		.loc 1 190 1 is_stmt 1 view -0
 863              		.cfi_startproc
 864              		@ args = 0, pretend = 0, frame = 0
 865              		@ frame_needed = 0, uses_anonymous_args = 0
 866              		@ link register save eliminated.
 191:Core/Src/MazeLib.c ****     {
 867              		.loc 1 191 5 view .LVU264
 191:Core/Src/MazeLib.c ****     {
 868              		.loc 1 191 7 is_stmt 0 view .LVU265
 869 0000 0F29     		cmp	r1, #15
 870 0002 0CD8     		bhi	.L70
 191:Core/Src/MazeLib.c ****     {
 871              		.loc 1 191 70 discriminator 1 view .LVU266
 872 0004 0F2A     		cmp	r2, #15
 873 0006 0CD8     		bhi	.L71
 191:Core/Src/MazeLib.c ****     {
 874              		.loc 1 191 79 discriminator 2 view .LVU267
 875 0008 B3F5805F 		cmp	r3, #4096
 876 000c 0BD2     		bcs	.L72
 197:Core/Src/MazeLib.c ****         return true;
 877              		.loc 1 197 9 is_stmt 1 view .LVU268
 197:Core/Src/MazeLib.c ****         return true;
 878              		.loc 1 197 36 is_stmt 0 view .LVU269
 879 000e 01EB0111 		add	r1, r1, r1, lsl #4
 880              	.LVL63:
 197:Core/Src/MazeLib.c ****         return true;
 881              		.loc 1 197 36 view .LVU270
 882 0012 1144     		add	r1, r1, r2
 883 0014 00EBC100 		add	r0, r0, r1, lsl #3
 884              	.LVL64:
 197:Core/Src/MazeLib.c ****         return true;
 885              		.loc 1 197 36 view .LVU271
 886 0018 4380     		strh	r3, [r0, #2]	@ movhi
 198:Core/Src/MazeLib.c ****     }
 887              		.loc 1 198 9 is_stmt 1 view .LVU272
 198:Core/Src/MazeLib.c ****     }
 888              		.loc 1 198 16 is_stmt 0 view .LVU273
 889 001a 0120     		movs	r0, #1
ARM GAS  /var/folders/v_/kwz_t0cs68g1q1d733r227b80000gn/T//cc7enlx9.s 			page 32


 890 001c 7047     		bx	lr
 891              	.LVL65:
 892              	.L70:
 193:Core/Src/MazeLib.c ****     }
 893              		.loc 1 193 16 view .LVU274
 894 001e 0020     		movs	r0, #0
 895              	.LVL66:
 193:Core/Src/MazeLib.c ****     }
 896              		.loc 1 193 16 view .LVU275
 897 0020 7047     		bx	lr
 898              	.LVL67:
 899              	.L71:
 193:Core/Src/MazeLib.c ****     }
 900              		.loc 1 193 16 view .LVU276
 901 0022 0020     		movs	r0, #0
 902              	.LVL68:
 193:Core/Src/MazeLib.c ****     }
 903              		.loc 1 193 16 view .LVU277
 904 0024 7047     		bx	lr
 905              	.LVL69:
 906              	.L72:
 193:Core/Src/MazeLib.c ****     }
 907              		.loc 1 193 16 view .LVU278
 908 0026 0020     		movs	r0, #0
 909              	.LVL70:
 200:Core/Src/MazeLib.c **** _Bool setWeightColumnNode(maze_node *maze, uint8_t x, uint8_t y, uint16_t wt)
 910              		.loc 1 200 1 view .LVU279
 911 0028 7047     		bx	lr
 912              		.cfi_endproc
 913              	.LFE8:
 915              		.section	.text.setWeightColumnNode,"ax",%progbits
 916              		.align	1
 917              		.global	setWeightColumnNode
 918              		.syntax unified
 919              		.thumb
 920              		.thumb_func
 921              		.fpu fpv4-sp-d16
 923              	setWeightColumnNode:
 924              	.LVL71:
 925              	.LFB9:
 202:Core/Src/MazeLib.c ****     if(x >= NUMBER_OF_SQUARES_X || y >= NUMBER_OF_SQUARES_Y || x < 0 || y < 0 || (wt < 0 || MAX_WEI
 926              		.loc 1 202 1 is_stmt 1 view -0
 927              		.cfi_startproc
 928              		@ args = 0, pretend = 0, frame = 0
 929              		@ frame_needed = 0, uses_anonymous_args = 0
 930              		@ link register save eliminated.
 203:Core/Src/MazeLib.c ****     {
 931              		.loc 1 203 5 view .LVU281
 203:Core/Src/MazeLib.c ****     {
 932              		.loc 1 203 7 is_stmt 0 view .LVU282
 933 0000 0F29     		cmp	r1, #15
 934 0002 0DD8     		bhi	.L75
 203:Core/Src/MazeLib.c ****     {
 935              		.loc 1 203 70 discriminator 1 view .LVU283
 936 0004 0F2A     		cmp	r2, #15
 937 0006 0DD8     		bhi	.L76
 203:Core/Src/MazeLib.c ****     {
ARM GAS  /var/folders/v_/kwz_t0cs68g1q1d733r227b80000gn/T//cc7enlx9.s 			page 33


 938              		.loc 1 203 79 discriminator 2 view .LVU284
 939 0008 B3F5805F 		cmp	r3, #4096
 940 000c 0CD2     		bcs	.L77
 209:Core/Src/MazeLib.c ****         return true;
 941              		.loc 1 209 9 is_stmt 1 view .LVU285
 209:Core/Src/MazeLib.c ****         return true;
 942              		.loc 1 209 39 is_stmt 0 view .LVU286
 943 000e 02EB0112 		add	r2, r2, r1, lsl #4
 944              	.LVL72:
 209:Core/Src/MazeLib.c ****         return true;
 945              		.loc 1 209 39 view .LVU287
 946 0012 02F58872 		add	r2, r2, #272
 947 0016 00EBC200 		add	r0, r0, r2, lsl #3
 948              	.LVL73:
 209:Core/Src/MazeLib.c ****         return true;
 949              		.loc 1 209 39 view .LVU288
 950 001a 4380     		strh	r3, [r0, #2]	@ movhi
 210:Core/Src/MazeLib.c ****     }
 951              		.loc 1 210 9 is_stmt 1 view .LVU289
 210:Core/Src/MazeLib.c ****     }
 952              		.loc 1 210 16 is_stmt 0 view .LVU290
 953 001c 0120     		movs	r0, #1
 954 001e 7047     		bx	lr
 955              	.LVL74:
 956              	.L75:
 205:Core/Src/MazeLib.c ****     }
 957              		.loc 1 205 16 view .LVU291
 958 0020 0020     		movs	r0, #0
 959              	.LVL75:
 205:Core/Src/MazeLib.c ****     }
 960              		.loc 1 205 16 view .LVU292
 961 0022 7047     		bx	lr
 962              	.LVL76:
 963              	.L76:
 205:Core/Src/MazeLib.c ****     }
 964              		.loc 1 205 16 view .LVU293
 965 0024 0020     		movs	r0, #0
 966              	.LVL77:
 205:Core/Src/MazeLib.c ****     }
 967              		.loc 1 205 16 view .LVU294
 968 0026 7047     		bx	lr
 969              	.LVL78:
 970              	.L77:
 205:Core/Src/MazeLib.c ****     }
 971              		.loc 1 205 16 view .LVU295
 972 0028 0020     		movs	r0, #0
 973              	.LVL79:
 212:Core/Src/MazeLib.c **** 
 974              		.loc 1 212 1 view .LVU296
 975 002a 7047     		bx	lr
 976              		.cfi_endproc
 977              	.LFE9:
 979              		.section	.text.updateAllNodeWeight,"ax",%progbits
 980              		.align	1
 981              		.global	updateAllNodeWeight
 982              		.syntax unified
 983              		.thumb
ARM GAS  /var/folders/v_/kwz_t0cs68g1q1d733r227b80000gn/T//cc7enlx9.s 			page 34


 984              		.thumb_func
 985              		.fpu fpv4-sp-d16
 987              	updateAllNodeWeight:
 988              	.LVL80:
 989              	.LFB10:
 218:Core/Src/MazeLib.c **** 	//å…¨ä½“ã«154/20ms = 7.7ms
 990              		.loc 1 218 1 is_stmt 1 view -0
 991              		.cfi_startproc
 992              		@ args = 8, pretend = 0, frame = 0
 993              		@ frame_needed = 0, uses_anonymous_args = 0
 218:Core/Src/MazeLib.c **** 	//å…¨ä½“ã«154/20ms = 7.7ms
 994              		.loc 1 218 1 is_stmt 0 view .LVU298
 995 0000 2DE9F041 		push	{r4, r5, r6, r7, r8, lr}
 996              	.LCFI3:
 997              		.cfi_def_cfa_offset 24
 998              		.cfi_offset 4, -24
 999              		.cfi_offset 5, -20
 1000              		.cfi_offset 6, -16
 1001              		.cfi_offset 7, -12
 1002              		.cfi_offset 8, -8
 1003              		.cfi_offset 14, -4
 1004 0004 82B0     		sub	sp, sp, #8
 1005              	.LCFI4:
 1006              		.cfi_def_cfa_offset 32
 1007 0006 0446     		mov	r4, r0
 1008 0008 0E46     		mov	r6, r1
 1009 000a 1746     		mov	r7, r2
 1010 000c 9846     		mov	r8, r3
 1011 000e 099D     		ldr	r5, [sp, #36]
 222:Core/Src/MazeLib.c **** 
 1012              		.loc 1 222 5 is_stmt 1 view .LVU299
 1013 0010 FFF7FEFF 		bl	initWeight
 1014              	.LVL81:
 224:Core/Src/MazeLib.c **** 
 1015              		.loc 1 224 5 view .LVU300
 1016 0014 9DF82030 		ldrb	r3, [sp, #32]	@ zero_extendqisi2
 1017 0018 0093     		str	r3, [sp]
 1018 001a 4346     		mov	r3, r8
 1019 001c 3A46     		mov	r2, r7
 1020 001e 3146     		mov	r1, r6
 1021 0020 2046     		mov	r0, r4
 1022 0022 FFF7FEFF 		bl	initTargetAreaWeight
 1023              	.LVL82:
 239:Core/Src/MazeLib.c ****     _Bool change_flag;
 1024              		.loc 1 239 5 view .LVU301
 240:Core/Src/MazeLib.c ****     int skip_raw=0, skip_column=0;
 1025              		.loc 1 240 5 view .LVU302
 241:Core/Src/MazeLib.c ****     //ã›ã£ã‹ãdowhileãªã‚“ã ã‹ã‚‰ã€ã©ã“ã‹ã‚‰æ›´æ–°ã™ã‚‹ã‹ã‚’ã†ã¾ãæ“ã‚Œã°ã€conti
 1026              		.loc 1 241 5 view .LVU303
 241:Core/Src/MazeLib.c ****     //ã›ã£ã‹ãdowhileãªã‚“ã ã‹ã‚‰ã€ã©ã“ã‹ã‚‰æ›´æ–°ã™ã‚‹ã‹ã‚’ã†ã¾ãæ“ã‚Œã°ã€conti
 1027              		.loc 1 241 5 is_stmt 0 view .LVU304
 1028 0026 00E2     		b	.L97
 1029              	.LVL83:
 1030              	.L106:
 276:Core/Src/MazeLib.c **** 						change_flag = true;		//å€¤ãŒæ›´æ–°ã•ã‚ŒãŸã“ã¨ã‚’ç¤ºã™
 1031              		.loc 1 276 7 is_stmt 1 view .LVU305
 276:Core/Src/MazeLib.c **** 						change_flag = true;		//å€¤ãŒæ›´æ–°ã•ã‚ŒãŸã“ã¨ã‚’ç¤ºã™
ARM GAS  /var/folders/v_/kwz_t0cs68g1q1d733r227b80000gn/T//cc7enlx9.s 			page 35


 1032              		.loc 1 276 71 is_stmt 0 view .LVU306
 1033 0028 0EF1010E 		add	lr, lr, #1
 276:Core/Src/MazeLib.c **** 						change_flag = true;		//å€¤ãŒæ›´æ–°ã•ã‚ŒãŸã“ã¨ã‚’ç¤ºã™
 1034              		.loc 1 276 39 view .LVU307
 1035 002c 02EB0C1C 		add	ip, r2, ip, lsl #4
 1036 0030 0CF5887C 		add	ip, ip, #272
 1037 0034 04EBCC0C 		add	ip, r4, ip, lsl #3
 1038 0038 ACF802E0 		strh	lr, [ip, #2]	@ movhi
 277:Core/Src/MazeLib.c **** 					}
 1039              		.loc 1 277 7 is_stmt 1 view .LVU308
 1040              	.LVL84:
 277:Core/Src/MazeLib.c **** 					}
 1041              		.loc 1 277 19 is_stmt 0 view .LVU309
 1042 003c 0120     		movs	r0, #1
 1043 003e 81E0     		b	.L81
 1044              	.LVL85:
 1045              	.L82:
 290:Core/Src/MazeLib.c **** 				{
 1046              		.loc 1 290 5 is_stmt 1 view .LVU310
 290:Core/Src/MazeLib.c **** 				{
 1047              		.loc 1 290 7 is_stmt 0 view .LVU311
 1048 0040 0E2A     		cmp	r2, #14
 1049 0042 2CDC     		bgt	.L83
 293:Core/Src/MazeLib.c **** 					{
 1050              		.loc 1 293 6 is_stmt 1 view .LVU312
 295:Core/Src/MazeLib.c **** 						{
 1051              		.loc 1 295 7 view .LVU313
 295:Core/Src/MazeLib.c **** 						{
 1052              		.loc 1 295 31 is_stmt 0 view .LVU314
 1053 0044 02F1010C 		add	ip, r2, #1
 295:Core/Src/MazeLib.c **** 						{
 1054              		.loc 1 295 34 view .LVU315
 1055 0048 03EB0311 		add	r1, r3, r3, lsl #4
 1056 004c 6144     		add	r1, r1, ip
 1057 004e 14F83110 		ldrb	r1, [r4, r1, lsl #3]	@ zero_extendqisi2
 295:Core/Src/MazeLib.c **** 						{
 1058              		.loc 1 295 9 view .LVU316
 1059 0052 2942     		tst	r1, r5
 1060 0054 0AD1     		bne	.L84
 295:Core/Src/MazeLib.c **** 						{
 1061              		.loc 1 295 89 discriminator 1 view .LVU317
 1062 0056 03EB0311 		add	r1, r3, r3, lsl #4
 1063 005a 6144     		add	r1, r1, ip
 1064 005c 04EBC101 		add	r1, r4, r1, lsl #3
 1065 0060 4E88     		ldrh	r6, [r1, #2]
 295:Core/Src/MazeLib.c **** 						{
 1066              		.loc 1 295 64 discriminator 1 view .LVU318
 1067 0062 40F6FF71 		movw	r1, #4095
 1068 0066 8E42     		cmp	r6, r1
 1069 0068 00F09880 		beq	.L101
 1070              	.LVL86:
 1071              	.L84:
 302:Core/Src/MazeLib.c **** 					{
 1072              		.loc 1 302 6 is_stmt 1 view .LVU319
 302:Core/Src/MazeLib.c **** 					{
 1073              		.loc 1 302 8 is_stmt 0 view .LVU320
 1074 006c 002B     		cmp	r3, #0
ARM GAS  /var/folders/v_/kwz_t0cs68g1q1d733r227b80000gn/T//cc7enlx9.s 			page 36


 1075 006e 16DD     		ble	.L83
 304:Core/Src/MazeLib.c **** 						{
 1076              		.loc 1 304 7 is_stmt 1 view .LVU321
 304:Core/Src/MazeLib.c **** 						{
 1077              		.loc 1 304 28 is_stmt 0 view .LVU322
 1078 0070 591E     		subs	r1, r3, #1
 304:Core/Src/MazeLib.c **** 						{
 1079              		.loc 1 304 33 view .LVU323
 1080 0072 02F1010E 		add	lr, r2, #1
 304:Core/Src/MazeLib.c **** 						{
 1081              		.loc 1 304 36 view .LVU324
 1082 0076 01EB011C 		add	ip, r1, r1, lsl #4
 1083 007a F444     		add	ip, ip, lr
 1084 007c 14F83CC0 		ldrb	ip, [r4, ip, lsl #3]	@ zero_extendqisi2
 304:Core/Src/MazeLib.c **** 						{
 1085              		.loc 1 304 9 view .LVU325
 1086 0080 1CEA050F 		tst	ip, r5
 1087 0084 0BD1     		bne	.L83
 304:Core/Src/MazeLib.c **** 						{
 1088              		.loc 1 304 93 discriminator 1 view .LVU326
 1089 0086 01EB011C 		add	ip, r1, r1, lsl #4
 1090 008a F444     		add	ip, ip, lr
 1091 008c 04EBCC0C 		add	ip, r4, ip, lsl #3
 1092 0090 BCF802C0 		ldrh	ip, [ip, #2]
 304:Core/Src/MazeLib.c **** 						{
 1093              		.loc 1 304 66 discriminator 1 view .LVU327
 1094 0094 40F6FF76 		movw	r6, #4095
 1095 0098 B445     		cmp	ip, r6
 1096 009a 00F09080 		beq	.L102
 1097              	.LVL87:
 1098              	.L83:
 313:Core/Src/MazeLib.c **** 				{
 1099              		.loc 1 313 5 is_stmt 1 view .LVU328
 313:Core/Src/MazeLib.c **** 				{
 1100              		.loc 1 313 7 is_stmt 0 view .LVU329
 1101 009e 002A     		cmp	r2, #0
 1102 00a0 28DD     		ble	.L80
 315:Core/Src/MazeLib.c **** 					{
 1103              		.loc 1 315 6 is_stmt 1 view .LVU330
 318:Core/Src/MazeLib.c **** 						{
 1104              		.loc 1 318 7 view .LVU331
 318:Core/Src/MazeLib.c **** 						{
 1105              		.loc 1 318 32 is_stmt 0 view .LVU332
 1106 00a2 03EB0311 		add	r1, r3, r3, lsl #4
 1107 00a6 1144     		add	r1, r1, r2
 1108 00a8 14F83110 		ldrb	r1, [r4, r1, lsl #3]	@ zero_extendqisi2
 318:Core/Src/MazeLib.c **** 						{
 1109              		.loc 1 318 9 view .LVU333
 1110 00ac 2942     		tst	r1, r5
 1111 00ae 0AD1     		bne	.L85
 318:Core/Src/MazeLib.c **** 						{
 1112              		.loc 1 318 85 discriminator 1 view .LVU334
 1113 00b0 03EB0311 		add	r1, r3, r3, lsl #4
 1114 00b4 1144     		add	r1, r1, r2
 1115 00b6 04EBC101 		add	r1, r4, r1, lsl #3
 1116 00ba 4E88     		ldrh	r6, [r1, #2]
 318:Core/Src/MazeLib.c **** 						{
ARM GAS  /var/folders/v_/kwz_t0cs68g1q1d733r227b80000gn/T//cc7enlx9.s 			page 37


 1117              		.loc 1 318 62 discriminator 1 view .LVU335
 1118 00bc 40F6FF71 		movw	r1, #4095
 1119 00c0 8E42     		cmp	r6, r1
 1120 00c2 00F08C80 		beq	.L103
 1121              	.LVL88:
 1122              	.L85:
 324:Core/Src/MazeLib.c **** 						//å—è¥¿
 1123              		.loc 1 324 6 is_stmt 1 view .LVU336
 324:Core/Src/MazeLib.c **** 						//å—è¥¿
 1124              		.loc 1 324 8 is_stmt 0 view .LVU337
 1125 00c6 002B     		cmp	r3, #0
 1126 00c8 14DD     		ble	.L80
 326:Core/Src/MazeLib.c **** 						{
 1127              		.loc 1 326 7 is_stmt 1 view .LVU338
 326:Core/Src/MazeLib.c **** 						{
 1128              		.loc 1 326 28 is_stmt 0 view .LVU339
 1129 00ca 591E     		subs	r1, r3, #1
 326:Core/Src/MazeLib.c **** 						{
 1130              		.loc 1 326 34 view .LVU340
 1131 00cc 01EB011C 		add	ip, r1, r1, lsl #4
 1132 00d0 9444     		add	ip, ip, r2
 1133 00d2 14F83CC0 		ldrb	ip, [r4, ip, lsl #3]	@ zero_extendqisi2
 326:Core/Src/MazeLib.c **** 						{
 1134              		.loc 1 326 9 view .LVU341
 1135 00d6 1CEA050F 		tst	ip, r5
 1136 00da 0BD1     		bne	.L80
 326:Core/Src/MazeLib.c **** 						{
 1137              		.loc 1 326 89 discriminator 1 view .LVU342
 1138 00dc 01EB011C 		add	ip, r1, r1, lsl #4
 1139 00e0 9444     		add	ip, ip, r2
 1140 00e2 04EBCC0C 		add	ip, r4, ip, lsl #3
 1141 00e6 BCF802C0 		ldrh	ip, [ip, #2]
 326:Core/Src/MazeLib.c **** 						{
 1142              		.loc 1 326 64 discriminator 1 view .LVU343
 1143 00ea 40F6FF76 		movw	r6, #4095
 1144 00ee B445     		cmp	ip, r6
 1145 00f0 00F08580 		beq	.L104
 1146              	.LVL89:
 1147              	.L80:
 261:Core/Src/MazeLib.c **** 			{
 1148              		.loc 1 261 41 is_stmt 1 discriminator 2 view .LVU344
 261:Core/Src/MazeLib.c **** 			{
 1149              		.loc 1 261 42 is_stmt 0 discriminator 2 view .LVU345
 1150 00f4 0132     		adds	r2, r2, #1
 1151              	.LVL90:
 1152              	.L87:
 261:Core/Src/MazeLib.c **** 			{
 1153              		.loc 1 261 16 is_stmt 1 discriminator 1 view .LVU346
 261:Core/Src/MazeLib.c **** 			{
 1154              		.loc 1 261 4 is_stmt 0 discriminator 1 view .LVU347
 1155 00f6 0F2A     		cmp	r2, #15
 1156 00f8 00F39180 		bgt	.L105
 263:Core/Src/MazeLib.c **** 				{
 1157              		.loc 1 263 17 is_stmt 1 view .LVU348
 263:Core/Src/MazeLib.c **** 				{
 1158              		.loc 1 263 42 is_stmt 0 view .LVU349
 1159 00fc 02EB0311 		add	r1, r2, r3, lsl #4
ARM GAS  /var/folders/v_/kwz_t0cs68g1q1d733r227b80000gn/T//cc7enlx9.s 			page 38


 1160 0100 01F58871 		add	r1, r1, #272
 1161 0104 04EBC101 		add	r1, r4, r1, lsl #3
 1162 0108 B1F802E0 		ldrh	lr, [r1, #2]
 263:Core/Src/MazeLib.c **** 				{
 1163              		.loc 1 263 19 view .LVU350
 1164 010c 40F6FF71 		movw	r1, #4095
 1165 0110 8E45     		cmp	lr, r1
 1166 0112 EFD0     		beq	.L80
 271:Core/Src/MazeLib.c **** 				{
 1167              		.loc 1 271 5 is_stmt 1 view .LVU351
 271:Core/Src/MazeLib.c **** 				{
 1168              		.loc 1 271 7 is_stmt 0 view .LVU352
 1169 0114 0E2B     		cmp	r3, #14
 1170 0116 15DC     		bgt	.L81
 274:Core/Src/MazeLib.c **** 					{
 1171              		.loc 1 274 6 is_stmt 1 view .LVU353
 274:Core/Src/MazeLib.c **** 					{
 1172              		.loc 1 274 30 is_stmt 0 view .LVU354
 1173 0118 03F1010C 		add	ip, r3, #1
 274:Core/Src/MazeLib.c **** 					{
 1174              		.loc 1 274 36 view .LVU355
 1175 011c 02EB0C11 		add	r1, r2, ip, lsl #4
 1176 0120 01F58871 		add	r1, r1, #272
 1177 0124 14F83110 		ldrb	r1, [r4, r1, lsl #3]	@ zero_extendqisi2
 274:Core/Src/MazeLib.c **** 					{
 1178              		.loc 1 274 8 view .LVU356
 1179 0128 2942     		tst	r1, r5
 1180 012a 0BD1     		bne	.L81
 274:Core/Src/MazeLib.c **** 					{
 1181              		.loc 1 274 94 discriminator 1 view .LVU357
 1182 012c 02EB0C11 		add	r1, r2, ip, lsl #4
 1183 0130 01F58871 		add	r1, r1, #272
 1184 0134 04EBC101 		add	r1, r4, r1, lsl #3
 1185 0138 4E88     		ldrh	r6, [r1, #2]
 274:Core/Src/MazeLib.c **** 					{
 1186              		.loc 1 274 66 discriminator 1 view .LVU358
 1187 013a 40F6FF71 		movw	r1, #4095
 1188 013e 8E42     		cmp	r6, r1
 1189 0140 3FF472AF 		beq	.L106
 1190              	.LVL91:
 1191              	.L81:
 281:Core/Src/MazeLib.c **** 				{
 1192              		.loc 1 281 5 is_stmt 1 view .LVU359
 281:Core/Src/MazeLib.c **** 				{
 1193              		.loc 1 281 7 is_stmt 0 view .LVU360
 1194 0144 012B     		cmp	r3, #1
 1195 0146 7FF77BAF 		ble	.L82
 283:Core/Src/MazeLib.c **** 					{
 1196              		.loc 1 283 6 is_stmt 1 view .LVU361
 283:Core/Src/MazeLib.c **** 					{
 1197              		.loc 1 283 30 is_stmt 0 view .LVU362
 1198 014a 03F1FF3C 		add	ip, r3, #-1
 283:Core/Src/MazeLib.c **** 					{
 1199              		.loc 1 283 36 view .LVU363
 1200 014e 02EB0C11 		add	r1, r2, ip, lsl #4
 1201 0152 01F58871 		add	r1, r1, #272
 1202 0156 14F83110 		ldrb	r1, [r4, r1, lsl #3]	@ zero_extendqisi2
ARM GAS  /var/folders/v_/kwz_t0cs68g1q1d733r227b80000gn/T//cc7enlx9.s 			page 39


 283:Core/Src/MazeLib.c **** 					{
 1203              		.loc 1 283 8 view .LVU364
 1204 015a 2942     		tst	r1, r5
 1205 015c 7FF470AF 		bne	.L82
 283:Core/Src/MazeLib.c **** 					{
 1206              		.loc 1 283 94 discriminator 1 view .LVU365
 1207 0160 02EB0C11 		add	r1, r2, ip, lsl #4
 1208 0164 01F58871 		add	r1, r1, #272
 1209 0168 04EBC101 		add	r1, r4, r1, lsl #3
 1210 016c 4E88     		ldrh	r6, [r1, #2]
 283:Core/Src/MazeLib.c **** 					{
 1211              		.loc 1 283 66 discriminator 1 view .LVU366
 1212 016e 40F6FF71 		movw	r1, #4095
 1213 0172 8E42     		cmp	r6, r1
 1214 0174 7FF464AF 		bne	.L82
 285:Core/Src/MazeLib.c **** 						change_flag = true;		//å€¤ãŒæ›´æ–°ã•ã‚ŒãŸã“ã¨ã‚’ç¤ºã™
 1215              		.loc 1 285 7 is_stmt 1 view .LVU367
 285:Core/Src/MazeLib.c **** 						change_flag = true;		//å€¤ãŒæ›´æ–°ã•ã‚ŒãŸã“ã¨ã‚’ç¤ºã™
 1216              		.loc 1 285 63 is_stmt 0 view .LVU368
 1217 0178 02EB0311 		add	r1, r2, r3, lsl #4
 1218 017c 01F58871 		add	r1, r1, #272
 1219 0180 04EBC101 		add	r1, r4, r1, lsl #3
 1220 0184 4988     		ldrh	r1, [r1, #2]
 285:Core/Src/MazeLib.c **** 						change_flag = true;		//å€¤ãŒæ›´æ–°ã•ã‚ŒãŸã“ã¨ã‚’ç¤ºã™
 1221              		.loc 1 285 71 view .LVU369
 1222 0186 0131     		adds	r1, r1, #1
 285:Core/Src/MazeLib.c **** 						change_flag = true;		//å€¤ãŒæ›´æ–°ã•ã‚ŒãŸã“ã¨ã‚’ç¤ºã™
 1223              		.loc 1 285 39 view .LVU370
 1224 0188 02EB0C1C 		add	ip, r2, ip, lsl #4
 1225 018c 0CF5887C 		add	ip, ip, #272
 1226 0190 04EBCC0C 		add	ip, r4, ip, lsl #3
 1227 0194 ACF80210 		strh	r1, [ip, #2]	@ movhi
 286:Core/Src/MazeLib.c **** 					}
 1228              		.loc 1 286 7 is_stmt 1 view .LVU371
 1229              	.LVL92:
 286:Core/Src/MazeLib.c **** 					}
 1230              		.loc 1 286 19 is_stmt 0 view .LVU372
 1231 0198 0120     		movs	r0, #1
 1232 019a 51E7     		b	.L82
 1233              	.LVL93:
 1234              	.L101:
 297:Core/Src/MazeLib.c **** 							change_flag = true;		//å€¤ãŒæ›´æ–°ã•ã‚ŒãŸã“ã¨ã‚’ç¤ºã™
 1235              		.loc 1 297 8 is_stmt 1 view .LVU373
 297:Core/Src/MazeLib.c **** 							change_flag = true;		//å€¤ãŒæ›´æ–°ã•ã‚ŒãŸã“ã¨ã‚’ç¤ºã™
 1236              		.loc 1 297 61 is_stmt 0 view .LVU374
 1237 019c 02EB0311 		add	r1, r2, r3, lsl #4
 1238 01a0 01F58871 		add	r1, r1, #272
 1239 01a4 04EBC101 		add	r1, r4, r1, lsl #3
 1240 01a8 4888     		ldrh	r0, [r1, #2]
 1241              	.LVL94:
 297:Core/Src/MazeLib.c **** 							change_flag = true;		//å€¤ãŒæ›´æ–°ã•ã‚ŒãŸã“ã¨ã‚’ç¤ºã™
 1242              		.loc 1 297 69 view .LVU375
 1243 01aa 0330     		adds	r0, r0, #3
 297:Core/Src/MazeLib.c **** 							change_flag = true;		//å€¤ãŒæ›´æ–°ã•ã‚ŒãŸã“ã¨ã‚’ç¤ºã™
 1244              		.loc 1 297 37 view .LVU376
 1245 01ac 03EB0311 		add	r1, r3, r3, lsl #4
 1246 01b0 8C44     		add	ip, ip, r1
ARM GAS  /var/folders/v_/kwz_t0cs68g1q1d733r227b80000gn/T//cc7enlx9.s 			page 40


 1247 01b2 04EBCC0C 		add	ip, r4, ip, lsl #3
 1248 01b6 ACF80200 		strh	r0, [ip, #2]	@ movhi
 298:Core/Src/MazeLib.c **** 						}
 1249              		.loc 1 298 8 is_stmt 1 view .LVU377
 1250              	.LVL95:
 298:Core/Src/MazeLib.c **** 						}
 1251              		.loc 1 298 20 is_stmt 0 view .LVU378
 1252 01ba 0120     		movs	r0, #1
 1253 01bc 56E7     		b	.L84
 1254              	.LVL96:
 1255              	.L102:
 306:Core/Src/MazeLib.c **** 							change_flag = true;		//å€¤ãŒæ›´æ–°ã•ã‚ŒãŸã“ã¨ã‚’ç¤ºã™
 1256              		.loc 1 306 8 is_stmt 1 view .LVU379
 306:Core/Src/MazeLib.c **** 							change_flag = true;		//å€¤ãŒæ›´æ–°ã•ã‚ŒãŸã“ã¨ã‚’ç¤ºã™
 1257              		.loc 1 306 63 is_stmt 0 view .LVU380
 1258 01be 02EB0310 		add	r0, r2, r3, lsl #4
 1259              	.LVL97:
 306:Core/Src/MazeLib.c **** 							change_flag = true;		//å€¤ãŒæ›´æ–°ã•ã‚ŒãŸã“ã¨ã‚’ç¤ºã™
 1260              		.loc 1 306 63 view .LVU381
 1261 01c2 00F58870 		add	r0, r0, #272
 1262 01c6 04EBC000 		add	r0, r4, r0, lsl #3
 1263 01ca 4088     		ldrh	r0, [r0, #2]
 306:Core/Src/MazeLib.c **** 							change_flag = true;		//å€¤ãŒæ›´æ–°ã•ã‚ŒãŸã“ã¨ã‚’ç¤ºã™
 1264              		.loc 1 306 71 view .LVU382
 1265 01cc 0330     		adds	r0, r0, #3
 306:Core/Src/MazeLib.c **** 							change_flag = true;		//å€¤ãŒæ›´æ–°ã•ã‚ŒãŸã“ã¨ã‚’ç¤ºã™
 1266              		.loc 1 306 39 view .LVU383
 1267 01ce 01EB0111 		add	r1, r1, r1, lsl #4
 1268 01d2 7144     		add	r1, r1, lr
 1269 01d4 04EBC101 		add	r1, r4, r1, lsl #3
 1270 01d8 4880     		strh	r0, [r1, #2]	@ movhi
 307:Core/Src/MazeLib.c **** 						}
 1271              		.loc 1 307 8 is_stmt 1 view .LVU384
 1272              	.LVL98:
 307:Core/Src/MazeLib.c **** 						}
 1273              		.loc 1 307 20 is_stmt 0 view .LVU385
 1274 01da 0120     		movs	r0, #1
 1275 01dc 5FE7     		b	.L83
 1276              	.LVL99:
 1277              	.L103:
 320:Core/Src/MazeLib.c **** 							change_flag = true;		//å€¤ãŒæ›´æ–°ã•ã‚ŒãŸã“ã¨ã‚’ç¤ºã™
 1278              		.loc 1 320 8 is_stmt 1 view .LVU386
 320:Core/Src/MazeLib.c **** 							change_flag = true;		//å€¤ãŒæ›´æ–°ã•ã‚ŒãŸã“ã¨ã‚’ç¤ºã™
 1279              		.loc 1 320 59 is_stmt 0 view .LVU387
 1280 01de 02EB0311 		add	r1, r2, r3, lsl #4
 1281 01e2 01F58871 		add	r1, r1, #272
 1282 01e6 04EBC101 		add	r1, r4, r1, lsl #3
 1283 01ea 4888     		ldrh	r0, [r1, #2]
 1284              	.LVL100:
 320:Core/Src/MazeLib.c **** 							change_flag = true;		//å€¤ãŒæ›´æ–°ã•ã‚ŒãŸã“ã¨ã‚’ç¤ºã™
 1285              		.loc 1 320 67 view .LVU388
 1286 01ec 0330     		adds	r0, r0, #3
 320:Core/Src/MazeLib.c **** 							change_flag = true;		//å€¤ãŒæ›´æ–°ã•ã‚ŒãŸã“ã¨ã‚’ç¤ºã™
 1287              		.loc 1 320 35 view .LVU389
 1288 01ee 03EB0311 		add	r1, r3, r3, lsl #4
 1289 01f2 1144     		add	r1, r1, r2
 1290 01f4 04EBC101 		add	r1, r4, r1, lsl #3
ARM GAS  /var/folders/v_/kwz_t0cs68g1q1d733r227b80000gn/T//cc7enlx9.s 			page 41


 1291 01f8 4880     		strh	r0, [r1, #2]	@ movhi
 321:Core/Src/MazeLib.c **** 						}
 1292              		.loc 1 321 8 is_stmt 1 view .LVU390
 1293              	.LVL101:
 321:Core/Src/MazeLib.c **** 						}
 1294              		.loc 1 321 20 is_stmt 0 view .LVU391
 1295 01fa 0120     		movs	r0, #1
 1296 01fc 63E7     		b	.L85
 1297              	.LVL102:
 1298              	.L104:
 328:Core/Src/MazeLib.c **** 								change_flag = true;		//å€¤ãŒæ›´æ–°ã•ã‚ŒãŸã“ã¨ã‚’ç¤ºã™
 1299              		.loc 1 328 9 is_stmt 1 view .LVU392
 328:Core/Src/MazeLib.c **** 								change_flag = true;		//å€¤ãŒæ›´æ–°ã•ã‚ŒãŸã“ã¨ã‚’ç¤ºã™
 1300              		.loc 1 328 62 is_stmt 0 view .LVU393
 1301 01fe 02EB0310 		add	r0, r2, r3, lsl #4
 1302              	.LVL103:
 328:Core/Src/MazeLib.c **** 								change_flag = true;		//å€¤ãŒæ›´æ–°ã•ã‚ŒãŸã“ã¨ã‚’ç¤ºã™
 1303              		.loc 1 328 62 view .LVU394
 1304 0202 00F58870 		add	r0, r0, #272
 1305 0206 04EBC000 		add	r0, r4, r0, lsl #3
 1306 020a 4088     		ldrh	r0, [r0, #2]
 328:Core/Src/MazeLib.c **** 								change_flag = true;		//å€¤ãŒæ›´æ–°ã•ã‚ŒãŸã“ã¨ã‚’ç¤ºã™
 1307              		.loc 1 328 70 view .LVU395
 1308 020c 0330     		adds	r0, r0, #3
 328:Core/Src/MazeLib.c **** 								change_flag = true;		//å€¤ãŒæ›´æ–°ã•ã‚ŒãŸã“ã¨ã‚’ç¤ºã™
 1309              		.loc 1 328 38 view .LVU396
 1310 020e 01EB0111 		add	r1, r1, r1, lsl #4
 1311 0212 1144     		add	r1, r1, r2
 1312 0214 04EBC101 		add	r1, r4, r1, lsl #3
 1313 0218 4880     		strh	r0, [r1, #2]	@ movhi
 329:Core/Src/MazeLib.c **** 						}
 1314              		.loc 1 329 9 is_stmt 1 view .LVU397
 1315              	.LVL104:
 329:Core/Src/MazeLib.c **** 						}
 1316              		.loc 1 329 21 is_stmt 0 view .LVU398
 1317 021a 0120     		movs	r0, #1
 1318 021c 6AE7     		b	.L80
 1319              	.LVL105:
 1320              	.L105:
 259:Core/Src/MazeLib.c **** 		{
 1321              		.loc 1 259 45 is_stmt 1 discriminator 2 view .LVU399
 259:Core/Src/MazeLib.c **** 		{
 1322              		.loc 1 259 46 is_stmt 0 discriminator 2 view .LVU400
 1323 021e 0133     		adds	r3, r3, #1
 1324              	.LVL106:
 1325              	.L79:
 259:Core/Src/MazeLib.c **** 		{
 1326              		.loc 1 259 20 is_stmt 1 discriminator 1 view .LVU401
 259:Core/Src/MazeLib.c **** 		{
 1327              		.loc 1 259 9 is_stmt 0 discriminator 1 view .LVU402
 1328 0220 0F2B     		cmp	r3, #15
 1329 0222 01DC     		bgt	.L107
 261:Core/Src/MazeLib.c **** 			{
 1330              		.loc 1 261 11 view .LVU403
 1331 0224 0022     		movs	r2, #0
 1332 0226 66E7     		b	.L87
 1333              	.L107:
ARM GAS  /var/folders/v_/kwz_t0cs68g1q1d733r227b80000gn/T//cc7enlx9.s 			page 42


 337:Core/Src/MazeLib.c ****  		{
 1334              		.loc 1 337 11 view .LVU404
 1335 0228 0023     		movs	r3, #0
 1336              	.LVL107:
 337:Core/Src/MazeLib.c ****  		{
 1337              		.loc 1 337 11 view .LVU405
 1338 022a F9E0     		b	.L88
 1339              	.LVL108:
 1340              	.L113:
 355:Core/Src/MazeLib.c ****  						change_flag = true;		//å€¤ãŒæ›´æ–°ã•ã‚ŒãŸã“ã¨ã‚’ç¤ºã™
 1341              		.loc 1 355 8 is_stmt 1 view .LVU406
 355:Core/Src/MazeLib.c ****  						change_flag = true;		//å€¤ãŒæ›´æ–°ã•ã‚ŒãŸã“ã¨ã‚’ç¤ºã™
 1342              		.loc 1 355 66 is_stmt 0 view .LVU407
 1343 022c 0CF1010C 		add	ip, ip, #1
 355:Core/Src/MazeLib.c ****  						change_flag = true;		//å€¤ãŒæ›´æ–°ã•ã‚ŒãŸã“ã¨ã‚’ç¤ºã™
 1344              		.loc 1 355 37 view .LVU408
 1345 0230 03EB0311 		add	r1, r3, r3, lsl #4
 1346 0234 8E44     		add	lr, lr, r1
 1347 0236 04EBCE0E 		add	lr, r4, lr, lsl #3
 1348 023a AEF802C0 		strh	ip, [lr, #2]	@ movhi
 356:Core/Src/MazeLib.c ****  					}
 1349              		.loc 1 356 8 is_stmt 1 view .LVU409
 1350              	.LVL109:
 356:Core/Src/MazeLib.c ****  					}
 1351              		.loc 1 356 20 is_stmt 0 view .LVU410
 1352 023e 0120     		movs	r0, #1
 1353 0240 85E0     		b	.L90
 1354              	.LVL110:
 1355              	.L91:
 369:Core/Src/MazeLib.c ****  				{
 1356              		.loc 1 369 6 is_stmt 1 view .LVU411
 369:Core/Src/MazeLib.c ****  				{
 1357              		.loc 1 369 8 is_stmt 0 view .LVU412
 1358 0242 0E2B     		cmp	r3, #14
 1359 0244 2FDC     		bgt	.L92
 373:Core/Src/MazeLib.c ****  					{
 1360              		.loc 1 373 7 is_stmt 1 view .LVU413
 375:Core/Src/MazeLib.c ****  						{
 1361              		.loc 1 375 8 view .LVU414
 375:Core/Src/MazeLib.c ****  						{
 1362              		.loc 1 375 32 is_stmt 0 view .LVU415
 1363 0246 03F1010C 		add	ip, r3, #1
 375:Core/Src/MazeLib.c ****  						{
 1364              		.loc 1 375 38 view .LVU416
 1365 024a 02EB0C11 		add	r1, r2, ip, lsl #4
 1366 024e 01F58871 		add	r1, r1, #272
 1367 0252 14F83110 		ldrb	r1, [r4, r1, lsl #3]	@ zero_extendqisi2
 375:Core/Src/MazeLib.c ****  						{
 1368              		.loc 1 375 10 view .LVU417
 1369 0256 2942     		tst	r1, r5
 1370 0258 0BD1     		bne	.L93
 375:Core/Src/MazeLib.c ****  						{
 1371              		.loc 1 375 96 discriminator 1 view .LVU418
 1372 025a 02EB0C11 		add	r1, r2, ip, lsl #4
 1373 025e 01F58871 		add	r1, r1, #272
 1374 0262 04EBC101 		add	r1, r4, r1, lsl #3
 1375 0266 4E88     		ldrh	r6, [r1, #2]
ARM GAS  /var/folders/v_/kwz_t0cs68g1q1d733r227b80000gn/T//cc7enlx9.s 			page 43


 375:Core/Src/MazeLib.c ****  						{
 1376              		.loc 1 375 68 discriminator 1 view .LVU419
 1377 0268 40F6FF71 		movw	r1, #4095
 1378 026c 8E42     		cmp	r6, r1
 1379 026e 00F09380 		beq	.L108
 1380              	.LVL111:
 1381              	.L93:
 381:Core/Src/MazeLib.c ****  					{
 1382              		.loc 1 381 7 is_stmt 1 view .LVU420
 381:Core/Src/MazeLib.c ****  					{
 1383              		.loc 1 381 9 is_stmt 0 view .LVU421
 1384 0272 002A     		cmp	r2, #0
 1385 0274 17DD     		ble	.L92
 384:Core/Src/MazeLib.c ****  						{
 1386              		.loc 1 384 8 is_stmt 1 view .LVU422
 384:Core/Src/MazeLib.c ****  						{
 1387              		.loc 1 384 32 is_stmt 0 view .LVU423
 1388 0276 03F1010E 		add	lr, r3, #1
 384:Core/Src/MazeLib.c ****  						{
 1389              		.loc 1 384 37 view .LVU424
 1390 027a 02F1FF3C 		add	ip, r2, #-1
 384:Core/Src/MazeLib.c ****  						{
 1391              		.loc 1 384 40 view .LVU425
 1392 027e 0CEB0E11 		add	r1, ip, lr, lsl #4
 1393 0282 01F58871 		add	r1, r1, #272
 1394 0286 14F83110 		ldrb	r1, [r4, r1, lsl #3]	@ zero_extendqisi2
 384:Core/Src/MazeLib.c ****  						{
 1395              		.loc 1 384 10 view .LVU426
 1396 028a 2942     		tst	r1, r5
 1397 028c 0BD1     		bne	.L92
 384:Core/Src/MazeLib.c ****  						{
 1398              		.loc 1 384 100 discriminator 1 view .LVU427
 1399 028e 0CEB0E11 		add	r1, ip, lr, lsl #4
 1400 0292 01F58871 		add	r1, r1, #272
 1401 0296 04EBC101 		add	r1, r4, r1, lsl #3
 1402 029a 4E88     		ldrh	r6, [r1, #2]
 384:Core/Src/MazeLib.c ****  						{
 1403              		.loc 1 384 70 discriminator 1 view .LVU428
 1404 029c 40F6FF71 		movw	r1, #4095
 1405 02a0 8E42     		cmp	r6, r1
 1406 02a2 00F08A80 		beq	.L109
 1407              	.LVL112:
 1408              	.L92:
 393:Core/Src/MazeLib.c ****  				{
 1409              		.loc 1 393 6 is_stmt 1 view .LVU429
 393:Core/Src/MazeLib.c ****  				{
 1410              		.loc 1 393 8 is_stmt 0 view .LVU430
 1411 02a6 002B     		cmp	r3, #0
 1412 02a8 2CDD     		ble	.L89
 396:Core/Src/MazeLib.c ****  					{
 1413              		.loc 1 396 7 is_stmt 1 view .LVU431
 398:Core/Src/MazeLib.c ****  						{
 1414              		.loc 1 398 8 view .LVU432
 398:Core/Src/MazeLib.c ****  						{
 1415              		.loc 1 398 36 is_stmt 0 view .LVU433
 1416 02aa 02EB0311 		add	r1, r2, r3, lsl #4
 1417 02ae 01F58871 		add	r1, r1, #272
ARM GAS  /var/folders/v_/kwz_t0cs68g1q1d733r227b80000gn/T//cc7enlx9.s 			page 44


 1418 02b2 14F83110 		ldrb	r1, [r4, r1, lsl #3]	@ zero_extendqisi2
 398:Core/Src/MazeLib.c ****  						{
 1419              		.loc 1 398 10 view .LVU434
 1420 02b6 2942     		tst	r1, r5
 1421 02b8 0CD1     		bne	.L94
 398:Core/Src/MazeLib.c ****  						{
 1422              		.loc 1 398 93 discriminator 1 view .LVU435
 1423 02ba 02EB0311 		add	r1, r2, r3, lsl #4
 1424 02be 01F58871 		add	r1, r1, #272
 1425 02c2 04EBC101 		add	r1, r4, r1, lsl #3
 1426 02c6 B1F802C0 		ldrh	ip, [r1, #2]
 398:Core/Src/MazeLib.c ****  						{
 1427              		.loc 1 398 67 discriminator 1 view .LVU436
 1428 02ca 40F6FF71 		movw	r1, #4095
 1429 02ce 8C45     		cmp	ip, r1
 1430 02d0 00F08480 		beq	.L110
 1431              	.LVL113:
 1432              	.L94:
 405:Core/Src/MazeLib.c ****  					{
 1433              		.loc 1 405 7 is_stmt 1 view .LVU437
 405:Core/Src/MazeLib.c ****  					{
 1434              		.loc 1 405 9 is_stmt 0 view .LVU438
 1435 02d4 002A     		cmp	r2, #0
 1436 02d6 15DD     		ble	.L89
 408:Core/Src/MazeLib.c ****  						{
 1437              		.loc 1 408 8 is_stmt 1 view .LVU439
 408:Core/Src/MazeLib.c ****  						{
 1438              		.loc 1 408 35 is_stmt 0 view .LVU440
 1439 02d8 02F1FF3C 		add	ip, r2, #-1
 408:Core/Src/MazeLib.c ****  						{
 1440              		.loc 1 408 38 view .LVU441
 1441 02dc 0CEB0311 		add	r1, ip, r3, lsl #4
 1442 02e0 01F58871 		add	r1, r1, #272
 1443 02e4 14F83110 		ldrb	r1, [r4, r1, lsl #3]	@ zero_extendqisi2
 408:Core/Src/MazeLib.c ****  						{
 1444              		.loc 1 408 10 view .LVU442
 1445 02e8 2942     		tst	r1, r5
 1446 02ea 0BD1     		bne	.L89
 408:Core/Src/MazeLib.c ****  						{
 1447              		.loc 1 408 96 discriminator 1 view .LVU443
 1448 02ec 0CEB0311 		add	r1, ip, r3, lsl #4
 1449 02f0 01F58871 		add	r1, r1, #272
 1450 02f4 04EBC101 		add	r1, r4, r1, lsl #3
 1451 02f8 B1F802E0 		ldrh	lr, [r1, #2]
 408:Core/Src/MazeLib.c ****  						{
 1452              		.loc 1 408 68 discriminator 1 view .LVU444
 1453 02fc 40F6FF71 		movw	r1, #4095
 1454 0300 8E45     		cmp	lr, r1
 1455 0302 7BD0     		beq	.L111
 1456              	.LVL114:
 1457              	.L89:
 339:Core/Src/MazeLib.c ****  			{
 1458              		.loc 1 339 41 is_stmt 1 discriminator 2 view .LVU445
 339:Core/Src/MazeLib.c ****  			{
 1459              		.loc 1 339 42 is_stmt 0 discriminator 2 view .LVU446
 1460 0304 0132     		adds	r2, r2, #1
 1461              	.LVL115:
ARM GAS  /var/folders/v_/kwz_t0cs68g1q1d733r227b80000gn/T//cc7enlx9.s 			page 45


 1462              	.L96:
 339:Core/Src/MazeLib.c ****  			{
 1463              		.loc 1 339 16 is_stmt 1 discriminator 1 view .LVU447
 339:Core/Src/MazeLib.c ****  			{
 1464              		.loc 1 339 5 is_stmt 0 discriminator 1 view .LVU448
 1465 0306 0F2A     		cmp	r2, #15
 1466 0308 00F38980 		bgt	.L112
 344:Core/Src/MazeLib.c ****  				{
 1467              		.loc 1 344 6 is_stmt 1 view .LVU449
 344:Core/Src/MazeLib.c ****  				{
 1468              		.loc 1 344 28 is_stmt 0 view .LVU450
 1469 030c 03EB0311 		add	r1, r3, r3, lsl #4
 1470 0310 1144     		add	r1, r1, r2
 1471 0312 04EBC101 		add	r1, r4, r1, lsl #3
 1472 0316 B1F802C0 		ldrh	ip, [r1, #2]
 344:Core/Src/MazeLib.c ****  				{
 1473              		.loc 1 344 8 view .LVU451
 1474 031a 40F6FF71 		movw	r1, #4095
 1475 031e 8C45     		cmp	ip, r1
 1476 0320 F0D0     		beq	.L89
 351:Core/Src/MazeLib.c ****  				{
 1477              		.loc 1 351 6 is_stmt 1 view .LVU452
 351:Core/Src/MazeLib.c ****  				{
 1478              		.loc 1 351 8 is_stmt 0 view .LVU453
 1479 0322 0E2A     		cmp	r2, #14
 1480 0324 13DC     		bgt	.L90
 353:Core/Src/MazeLib.c ****  					{
 1481              		.loc 1 353 7 is_stmt 1 view .LVU454
 353:Core/Src/MazeLib.c ****  					{
 1482              		.loc 1 353 31 is_stmt 0 view .LVU455
 1483 0326 02F1010E 		add	lr, r2, #1
 353:Core/Src/MazeLib.c ****  					{
 1484              		.loc 1 353 34 view .LVU456
 1485 032a 03EB0311 		add	r1, r3, r3, lsl #4
 1486 032e 7144     		add	r1, r1, lr
 1487 0330 14F83110 		ldrb	r1, [r4, r1, lsl #3]	@ zero_extendqisi2
 353:Core/Src/MazeLib.c ****  					{
 1488              		.loc 1 353 9 view .LVU457
 1489 0334 2942     		tst	r1, r5
 1490 0336 0AD1     		bne	.L90
 353:Core/Src/MazeLib.c ****  					{
 1491              		.loc 1 353 89 discriminator 1 view .LVU458
 1492 0338 03EB0311 		add	r1, r3, r3, lsl #4
 1493 033c 7144     		add	r1, r1, lr
 1494 033e 04EBC101 		add	r1, r4, r1, lsl #3
 1495 0342 4E88     		ldrh	r6, [r1, #2]
 353:Core/Src/MazeLib.c ****  					{
 1496              		.loc 1 353 64 discriminator 1 view .LVU459
 1497 0344 40F6FF71 		movw	r1, #4095
 1498 0348 8E42     		cmp	r6, r1
 1499 034a 3FF46FAF 		beq	.L113
 1500              	.LVL116:
 1501              	.L90:
 360:Core/Src/MazeLib.c ****  				{
 1502              		.loc 1 360 6 is_stmt 1 view .LVU460
 360:Core/Src/MazeLib.c ****  				{
 1503              		.loc 1 360 8 is_stmt 0 view .LVU461
ARM GAS  /var/folders/v_/kwz_t0cs68g1q1d733r227b80000gn/T//cc7enlx9.s 			page 46


 1504 034e 012A     		cmp	r2, #1
 1505 0350 7FF777AF 		ble	.L91
 362:Core/Src/MazeLib.c ****  					{
 1506              		.loc 1 362 7 is_stmt 1 view .LVU462
 362:Core/Src/MazeLib.c ****  					{
 1507              		.loc 1 362 31 is_stmt 0 view .LVU463
 1508 0354 02F1FF3C 		add	ip, r2, #-1
 362:Core/Src/MazeLib.c ****  					{
 1509              		.loc 1 362 34 view .LVU464
 1510 0358 03EB0311 		add	r1, r3, r3, lsl #4
 1511 035c 6144     		add	r1, r1, ip
 1512 035e 14F83110 		ldrb	r1, [r4, r1, lsl #3]	@ zero_extendqisi2
 362:Core/Src/MazeLib.c ****  					{
 1513              		.loc 1 362 9 view .LVU465
 1514 0362 2942     		tst	r1, r5
 1515 0364 7FF46DAF 		bne	.L91
 362:Core/Src/MazeLib.c ****  					{
 1516              		.loc 1 362 89 discriminator 1 view .LVU466
 1517 0368 03EB0311 		add	r1, r3, r3, lsl #4
 1518 036c 6144     		add	r1, r1, ip
 1519 036e 04EBC101 		add	r1, r4, r1, lsl #3
 1520 0372 4E88     		ldrh	r6, [r1, #2]
 362:Core/Src/MazeLib.c ****  					{
 1521              		.loc 1 362 64 discriminator 1 view .LVU467
 1522 0374 40F6FF71 		movw	r1, #4095
 1523 0378 8E42     		cmp	r6, r1
 1524 037a 7FF462AF 		bne	.L91
 364:Core/Src/MazeLib.c ****  						change_flag = true;		//å€¤ãŒæ›´æ–°ã•ã‚ŒãŸã“ã¨ã‚’ç¤ºã™
 1525              		.loc 1 364 8 is_stmt 1 view .LVU468
 364:Core/Src/MazeLib.c ****  						change_flag = true;		//å€¤ãŒæ›´æ–°ã•ã‚ŒãŸã“ã¨ã‚’ç¤ºã™
 1526              		.loc 1 364 58 is_stmt 0 view .LVU469
 1527 037e 03EB0311 		add	r1, r3, r3, lsl #4
 1528 0382 8818     		adds	r0, r1, r2
 1529              	.LVL117:
 364:Core/Src/MazeLib.c ****  						change_flag = true;		//å€¤ãŒæ›´æ–°ã•ã‚ŒãŸã“ã¨ã‚’ç¤ºã™
 1530              		.loc 1 364 58 view .LVU470
 1531 0384 04EBC000 		add	r0, r4, r0, lsl #3
 1532 0388 4088     		ldrh	r0, [r0, #2]
 364:Core/Src/MazeLib.c ****  						change_flag = true;		//å€¤ãŒæ›´æ–°ã•ã‚ŒãŸã“ã¨ã‚’ç¤ºã™
 1533              		.loc 1 364 66 view .LVU471
 1534 038a 0130     		adds	r0, r0, #1
 364:Core/Src/MazeLib.c ****  						change_flag = true;		//å€¤ãŒæ›´æ–°ã•ã‚ŒãŸã“ã¨ã‚’ç¤ºã™
 1535              		.loc 1 364 37 view .LVU472
 1536 038c 6144     		add	r1, r1, ip
 1537 038e 04EBC101 		add	r1, r4, r1, lsl #3
 1538 0392 4880     		strh	r0, [r1, #2]	@ movhi
 365:Core/Src/MazeLib.c ****  					}
 1539              		.loc 1 365 8 is_stmt 1 view .LVU473
 1540              	.LVL118:
 365:Core/Src/MazeLib.c ****  					}
 1541              		.loc 1 365 20 is_stmt 0 view .LVU474
 1542 0394 0120     		movs	r0, #1
 1543 0396 54E7     		b	.L91
 1544              	.LVL119:
 1545              	.L108:
 377:Core/Src/MazeLib.c ****  							change_flag = true;		//å€¤ãŒæ›´æ–°ã•ã‚ŒãŸã“ã¨ã‚’ç¤ºã™
 1546              		.loc 1 377 9 is_stmt 1 view .LVU475
ARM GAS  /var/folders/v_/kwz_t0cs68g1q1d733r227b80000gn/T//cc7enlx9.s 			page 47


 377:Core/Src/MazeLib.c ****  							change_flag = true;		//å€¤ãŒæ›´æ–°ã•ã‚ŒãŸã“ã¨ã‚’ç¤ºã™
 1547              		.loc 1 377 62 is_stmt 0 view .LVU476
 1548 0398 03EB0311 		add	r1, r3, r3, lsl #4
 1549 039c 1144     		add	r1, r1, r2
 1550 039e 04EBC101 		add	r1, r4, r1, lsl #3
 1551 03a2 4988     		ldrh	r1, [r1, #2]
 377:Core/Src/MazeLib.c ****  							change_flag = true;		//å€¤ãŒæ›´æ–°ã•ã‚ŒãŸã“ã¨ã‚’ç¤ºã™
 1552              		.loc 1 377 70 view .LVU477
 1553 03a4 0331     		adds	r1, r1, #3
 377:Core/Src/MazeLib.c ****  							change_flag = true;		//å€¤ãŒæ›´æ–°ã•ã‚ŒãŸã“ã¨ã‚’ç¤ºã™
 1554              		.loc 1 377 41 view .LVU478
 1555 03a6 02EB0C1C 		add	ip, r2, ip, lsl #4
 1556 03aa 0CF5887C 		add	ip, ip, #272
 1557 03ae 04EBCC0C 		add	ip, r4, ip, lsl #3
 1558 03b2 ACF80210 		strh	r1, [ip, #2]	@ movhi
 378:Core/Src/MazeLib.c ****  						}
 1559              		.loc 1 378 9 is_stmt 1 view .LVU479
 1560              	.LVL120:
 378:Core/Src/MazeLib.c ****  						}
 1561              		.loc 1 378 21 is_stmt 0 view .LVU480
 1562 03b6 0120     		movs	r0, #1
 1563 03b8 5BE7     		b	.L93
 1564              	.LVL121:
 1565              	.L109:
 386:Core/Src/MazeLib.c ****  							change_flag = true;		//å€¤ãŒæ›´æ–°ã•ã‚ŒãŸã“ã¨ã‚’ç¤ºã™
 1566              		.loc 1 386 9 is_stmt 1 view .LVU481
 386:Core/Src/MazeLib.c ****  							change_flag = true;		//å€¤ãŒæ›´æ–°ã•ã‚ŒãŸã“ã¨ã‚’ç¤ºã™
 1567              		.loc 1 386 64 is_stmt 0 view .LVU482
 1568 03ba 03EB0311 		add	r1, r3, r3, lsl #4
 1569 03be 1144     		add	r1, r1, r2
 1570 03c0 04EBC101 		add	r1, r4, r1, lsl #3
 1571 03c4 4988     		ldrh	r1, [r1, #2]
 386:Core/Src/MazeLib.c ****  							change_flag = true;		//å€¤ãŒæ›´æ–°ã•ã‚ŒãŸã“ã¨ã‚’ç¤ºã™
 1572              		.loc 1 386 72 view .LVU483
 1573 03c6 0331     		adds	r1, r1, #3
 386:Core/Src/MazeLib.c ****  							change_flag = true;		//å€¤ãŒæ›´æ–°ã•ã‚ŒãŸã“ã¨ã‚’ç¤ºã™
 1574              		.loc 1 386 43 view .LVU484
 1575 03c8 0CEB0E1C 		add	ip, ip, lr, lsl #4
 1576 03cc 0CF5887C 		add	ip, ip, #272
 1577 03d0 04EBCC0C 		add	ip, r4, ip, lsl #3
 1578 03d4 ACF80210 		strh	r1, [ip, #2]	@ movhi
 387:Core/Src/MazeLib.c ****  						}
 1579              		.loc 1 387 9 is_stmt 1 view .LVU485
 1580              	.LVL122:
 387:Core/Src/MazeLib.c ****  						}
 1581              		.loc 1 387 21 is_stmt 0 view .LVU486
 1582 03d8 0120     		movs	r0, #1
 1583 03da 64E7     		b	.L92
 1584              	.LVL123:
 1585              	.L110:
 400:Core/Src/MazeLib.c ****  								change_flag = true;		//å€¤ãŒæ›´æ–°ã•ã‚ŒãŸã“ã¨ã‚’ç¤ºã™
 1586              		.loc 1 400 10 is_stmt 1 view .LVU487
 400:Core/Src/MazeLib.c ****  								change_flag = true;		//å€¤ãŒæ›´æ–°ã•ã‚ŒãŸã“ã¨ã‚’ç¤ºã™
 1587              		.loc 1 400 61 is_stmt 0 view .LVU488
 1588 03dc 03EB0311 		add	r1, r3, r3, lsl #4
 1589 03e0 1144     		add	r1, r1, r2
 1590 03e2 04EBC101 		add	r1, r4, r1, lsl #3
ARM GAS  /var/folders/v_/kwz_t0cs68g1q1d733r227b80000gn/T//cc7enlx9.s 			page 48


 1591 03e6 4888     		ldrh	r0, [r1, #2]
 1592              	.LVL124:
 400:Core/Src/MazeLib.c ****  								change_flag = true;		//å€¤ãŒæ›´æ–°ã•ã‚ŒãŸã“ã¨ã‚’ç¤ºã™
 1593              		.loc 1 400 69 view .LVU489
 1594 03e8 0330     		adds	r0, r0, #3
 400:Core/Src/MazeLib.c ****  								change_flag = true;		//å€¤ãŒæ›´æ–°ã•ã‚ŒãŸã“ã¨ã‚’ç¤ºã™
 1595              		.loc 1 400 40 view .LVU490
 1596 03ea 02EB0311 		add	r1, r2, r3, lsl #4
 1597 03ee 01F58871 		add	r1, r1, #272
 1598 03f2 04EBC101 		add	r1, r4, r1, lsl #3
 1599 03f6 4880     		strh	r0, [r1, #2]	@ movhi
 401:Core/Src/MazeLib.c **** 
 1600              		.loc 1 401 10 is_stmt 1 view .LVU491
 1601              	.LVL125:
 401:Core/Src/MazeLib.c **** 
 1602              		.loc 1 401 22 is_stmt 0 view .LVU492
 1603 03f8 0120     		movs	r0, #1
 1604 03fa 6BE7     		b	.L94
 1605              	.LVL126:
 1606              	.L111:
 410:Core/Src/MazeLib.c ****  							change_flag = true;		//å€¤ãŒæ›´æ–°ã•ã‚ŒãŸã“ã¨ã‚’ç¤ºã™
 1607              		.loc 1 410 9 is_stmt 1 view .LVU493
 410:Core/Src/MazeLib.c ****  							change_flag = true;		//å€¤ãŒæ›´æ–°ã•ã‚ŒãŸã“ã¨ã‚’ç¤ºã™
 1608              		.loc 1 410 62 is_stmt 0 view .LVU494
 1609 03fc 03EB0311 		add	r1, r3, r3, lsl #4
 1610 0400 1144     		add	r1, r1, r2
 1611 0402 04EBC101 		add	r1, r4, r1, lsl #3
 1612 0406 4988     		ldrh	r1, [r1, #2]
 410:Core/Src/MazeLib.c ****  							change_flag = true;		//å€¤ãŒæ›´æ–°ã•ã‚ŒãŸã“ã¨ã‚’ç¤ºã™
 1613              		.loc 1 410 70 view .LVU495
 1614 0408 0331     		adds	r1, r1, #3
 410:Core/Src/MazeLib.c ****  							change_flag = true;		//å€¤ãŒæ›´æ–°ã•ã‚ŒãŸã“ã¨ã‚’ç¤ºã™
 1615              		.loc 1 410 41 view .LVU496
 1616 040a 0CEB031C 		add	ip, ip, r3, lsl #4
 1617 040e 0CF5887C 		add	ip, ip, #272
 1618 0412 04EBCC0C 		add	ip, r4, ip, lsl #3
 1619 0416 ACF80210 		strh	r1, [ip, #2]	@ movhi
 411:Core/Src/MazeLib.c ****  						}
 1620              		.loc 1 411 9 is_stmt 1 view .LVU497
 1621              	.LVL127:
 411:Core/Src/MazeLib.c ****  						}
 1622              		.loc 1 411 21 is_stmt 0 view .LVU498
 1623 041a 0120     		movs	r0, #1
 1624 041c 72E7     		b	.L89
 1625              	.LVL128:
 1626              	.L112:
 337:Core/Src/MazeLib.c ****  		{
 1627              		.loc 1 337 41 is_stmt 1 discriminator 2 view .LVU499
 337:Core/Src/MazeLib.c ****  		{
 1628              		.loc 1 337 42 is_stmt 0 discriminator 2 view .LVU500
 1629 041e 0133     		adds	r3, r3, #1
 1630              	.LVL129:
 1631              	.L88:
 337:Core/Src/MazeLib.c ****  		{
 1632              		.loc 1 337 16 is_stmt 1 discriminator 1 view .LVU501
 337:Core/Src/MazeLib.c ****  		{
 1633              		.loc 1 337 4 is_stmt 0 discriminator 1 view .LVU502
ARM GAS  /var/folders/v_/kwz_t0cs68g1q1d733r227b80000gn/T//cc7enlx9.s 			page 49


 1634 0420 0F2B     		cmp	r3, #15
 1635 0422 01DC     		bgt	.L114
 339:Core/Src/MazeLib.c ****  			{
 1636              		.loc 1 339 11 view .LVU503
 1637 0424 0122     		movs	r2, #1
 1638 0426 6EE7     		b	.L96
 1639              	.L114:
 420:Core/Src/MazeLib.c **** //    t = 0;
 1640              		.loc 1 420 8 is_stmt 1 view .LVU504
 420:Core/Src/MazeLib.c **** //    t = 0;
 1641              		.loc 1 420 2 is_stmt 0 view .LVU505
 1642 0428 10B1     		cbz	r0, .L115
 1643              	.LVL130:
 1644              	.L97:
 248:Core/Src/MazeLib.c **** 	{
 1645              		.loc 1 248 2 is_stmt 1 view .LVU506
 250:Core/Src/MazeLib.c **** //		if(rx == NUMBER_OF_SQUARES_X) rx =0;
 1646              		.loc 1 250 3 view .LVU507
 259:Core/Src/MazeLib.c **** 		{
 1647              		.loc 1 259 9 view .LVU508
 250:Core/Src/MazeLib.c **** //		if(rx == NUMBER_OF_SQUARES_X) rx =0;
 1648              		.loc 1 250 15 is_stmt 0 view .LVU509
 1649 042a 0020     		movs	r0, #0
 259:Core/Src/MazeLib.c **** 		{
 1650              		.loc 1 259 15 view .LVU510
 1651 042c 0123     		movs	r3, #1
 259:Core/Src/MazeLib.c **** 		{
 1652              		.loc 1 259 9 view .LVU511
 1653 042e F7E6     		b	.L79
 1654              	.LVL131:
 1655              	.L115:
 424:Core/Src/MazeLib.c **** void updateNodeThree(maze_node *maze, state *st, uint8_t x, uint8_t y)
 1656              		.loc 1 424 1 view .LVU512
 1657 0430 02B0     		add	sp, sp, #8
 1658              	.LCFI5:
 1659              		.cfi_def_cfa_offset 24
 1660              		@ sp needed
 1661 0432 BDE8F081 		pop	{r4, r5, r6, r7, r8, pc}
 424:Core/Src/MazeLib.c **** void updateNodeThree(maze_node *maze, state *st, uint8_t x, uint8_t y)
 1662              		.loc 1 424 1 view .LVU513
 1663              		.cfi_endproc
 1664              	.LFE10:
 1666              		.section	.text.updateNodeThree,"ax",%progbits
 1667              		.align	1
 1668              		.global	updateNodeThree
 1669              		.syntax unified
 1670              		.thumb
 1671              		.thumb_func
 1672              		.fpu fpv4-sp-d16
 1674              	updateNodeThree:
 1675              	.LVL132:
 1676              	.LFB11:
 426:Core/Src/MazeLib.c ****     //å£ã®æœ‰ç„¡ã®æ›´æ–°ã€‚æ—¢çŸ¥ã®å£ã«ã¯ä¸Šæ›¸ãã—ãªã„ã€‚é‡ã¿ã®æ›´æ–°ã¯ï¼Ÿæ—¢çŸ¥ã‹
 1677              		.loc 1 426 1 is_stmt 1 view -0
 1678              		.cfi_startproc
 1679              		@ args = 0, pretend = 0, frame = 0
 1680              		@ frame_needed = 0, uses_anonymous_args = 0
ARM GAS  /var/folders/v_/kwz_t0cs68g1q1d733r227b80000gn/T//cc7enlx9.s 			page 50


 426:Core/Src/MazeLib.c ****     //å£ã®æœ‰ç„¡ã®æ›´æ–°ã€‚æ—¢çŸ¥ã®å£ã«ã¯ä¸Šæ›¸ãã—ãªã„ã€‚é‡ã¿ã®æ›´æ–°ã¯ï¼Ÿæ—¢çŸ¥ã‹
 1681              		.loc 1 426 1 is_stmt 0 view .LVU515
 1682 0000 70B5     		push	{r4, r5, r6, lr}
 1683              	.LCFI6:
 1684              		.cfi_def_cfa_offset 16
 1685              		.cfi_offset 4, -16
 1686              		.cfi_offset 5, -12
 1687              		.cfi_offset 6, -8
 1688              		.cfi_offset 14, -4
 429:Core/Src/MazeLib.c ****     maze->ColumnNode[x+1][y].existence = (maze->ColumnNode[x+1][y].existence == UNKNOWN) ? st->wall
 1689              		.loc 1 429 5 is_stmt 1 view .LVU516
 429:Core/Src/MazeLib.c ****     maze->ColumnNode[x+1][y].existence = (maze->ColumnNode[x+1][y].existence == UNKNOWN) ? st->wall
 1690              		.loc 1 429 58 is_stmt 0 view .LVU517
 1691 0002 03F1010E 		add	lr, r3, #1
 429:Core/Src/MazeLib.c ****     maze->ColumnNode[x+1][y].existence = (maze->ColumnNode[x+1][y].existence == UNKNOWN) ? st->wall
 1692              		.loc 1 429 61 view .LVU518
 1693 0006 02EB0214 		add	r4, r2, r2, lsl #4
 1694 000a 7444     		add	r4, r4, lr
 1695 000c 10F83440 		ldrb	r4, [r0, r4, lsl #3]	@ zero_extendqisi2
 429:Core/Src/MazeLib.c ****     maze->ColumnNode[x+1][y].existence = (maze->ColumnNode[x+1][y].existence == UNKNOWN) ? st->wall
 1696              		.loc 1 429 37 view .LVU519
 1697 0010 022C     		cmp	r4, #2
 1698 0012 5CD0     		beq	.L122
 1699              	.L117:
 429:Core/Src/MazeLib.c ****     maze->ColumnNode[x+1][y].existence = (maze->ColumnNode[x+1][y].existence == UNKNOWN) ? st->wall
 1700              		.loc 1 429 37 discriminator 4 view .LVU520
 1701 0014 02EB0215 		add	r5, r2, r2, lsl #4
 1702 0018 7544     		add	r5, r5, lr
 1703 001a 00F83540 		strb	r4, [r0, r5, lsl #3]
 430:Core/Src/MazeLib.c ****     maze->RawNode[x][y].existence = (maze->RawNode[x][y].existence == UNKNOWN) ? st->wall.south : m
 1704              		.loc 1 430 5 is_stmt 1 discriminator 4 view .LVU521
 430:Core/Src/MazeLib.c ****     maze->RawNode[x][y].existence = (maze->RawNode[x][y].existence == UNKNOWN) ? st->wall.south : m
 1705              		.loc 1 430 61 is_stmt 0 discriminator 4 view .LVU522
 1706 001e 02F1010C 		add	ip, r2, #1
 430:Core/Src/MazeLib.c ****     maze->RawNode[x][y].existence = (maze->RawNode[x][y].existence == UNKNOWN) ? st->wall.south : m
 1707              		.loc 1 430 67 discriminator 4 view .LVU523
 1708 0022 03EB0C14 		add	r4, r3, ip, lsl #4
 1709 0026 04F58874 		add	r4, r4, #272
 1710 002a 10F83440 		ldrb	r4, [r0, r4, lsl #3]	@ zero_extendqisi2
 430:Core/Src/MazeLib.c ****     maze->RawNode[x][y].existence = (maze->RawNode[x][y].existence == UNKNOWN) ? st->wall.south : m
 1711              		.loc 1 430 40 discriminator 4 view .LVU524
 1712 002e 022C     		cmp	r4, #2
 1713 0030 51D0     		beq	.L123
 1714              	.L118:
 1715 0032 03EB0C15 		add	r5, r3, ip, lsl #4
 1716 0036 05F58875 		add	r5, r5, #272
 1717 003a 00F83540 		strb	r4, [r0, r5, lsl #3]
 431:Core/Src/MazeLib.c ****     maze->ColumnNode[x][y].existence = (maze->ColumnNode[x][y].existence == UNKNOWN) ? st->wall.wes
 1718              		.loc 1 431 5 is_stmt 1 discriminator 4 view .LVU525
 431:Core/Src/MazeLib.c ****     maze->ColumnNode[x][y].existence = (maze->ColumnNode[x][y].existence == UNKNOWN) ? st->wall.wes
 1719              		.loc 1 431 57 is_stmt 0 discriminator 4 view .LVU526
 1720 003e 02EB0214 		add	r4, r2, r2, lsl #4
 1721 0042 1C44     		add	r4, r4, r3
 1722 0044 10F83450 		ldrb	r5, [r0, r4, lsl #3]	@ zero_extendqisi2
 431:Core/Src/MazeLib.c ****     maze->ColumnNode[x][y].existence = (maze->ColumnNode[x][y].existence == UNKNOWN) ? st->wall.wes
 1723              		.loc 1 431 35 discriminator 4 view .LVU527
 1724 0048 022D     		cmp	r5, #2
ARM GAS  /var/folders/v_/kwz_t0cs68g1q1d733r227b80000gn/T//cc7enlx9.s 			page 51


 1725 004a 48D0     		beq	.L124
 1726              	.L119:
 1727 004c 02EB0214 		add	r4, r2, r2, lsl #4
 1728 0050 1C44     		add	r4, r4, r3
 1729 0052 00F83450 		strb	r5, [r0, r4, lsl #3]
 432:Core/Src/MazeLib.c **** 
 1730              		.loc 1 432 5 is_stmt 1 discriminator 4 view .LVU528
 432:Core/Src/MazeLib.c **** 
 1731              		.loc 1 432 63 is_stmt 0 discriminator 4 view .LVU529
 1732 0056 03EB0214 		add	r4, r3, r2, lsl #4
 1733 005a 04F58874 		add	r4, r4, #272
 1734 005e 10F83440 		ldrb	r4, [r0, r4, lsl #3]	@ zero_extendqisi2
 432:Core/Src/MazeLib.c **** 
 1735              		.loc 1 432 38 discriminator 4 view .LVU530
 1736 0062 022C     		cmp	r4, #2
 1737 0064 3FD0     		beq	.L125
 1738              	.L120:
 1739 0066 03EB0211 		add	r1, r3, r2, lsl #4
 1740              	.LVL133:
 432:Core/Src/MazeLib.c **** 
 1741              		.loc 1 432 38 discriminator 4 view .LVU531
 1742 006a 01F58871 		add	r1, r1, #272
 1743 006e 00F83140 		strb	r4, [r0, r1, lsl #3]
 439:Core/Src/MazeLib.c ****     maze->ColumnNode[x+1][y].draw = (maze->ColumnNode[x+1][y].existence == WALL) ? true : false;   
 1744              		.loc 1 439 5 is_stmt 1 discriminator 4 view .LVU532
 439:Core/Src/MazeLib.c ****     maze->ColumnNode[x+1][y].draw = (maze->ColumnNode[x+1][y].existence == WALL) ? true : false;   
 1745              		.loc 1 439 56 is_stmt 0 discriminator 4 view .LVU533
 1746 0072 02EB0212 		add	r2, r2, r2, lsl #4
 1747              	.LVL134:
 439:Core/Src/MazeLib.c ****     maze->ColumnNode[x+1][y].draw = (maze->ColumnNode[x+1][y].existence == WALL) ? true : false;   
 1748              		.loc 1 439 56 discriminator 4 view .LVU534
 1749 0076 9644     		add	lr, lr, r2
 1750 0078 10F83E60 		ldrb	r6, [r0, lr, lsl #3]	@ zero_extendqisi2
 439:Core/Src/MazeLib.c ****     maze->ColumnNode[x+1][y].draw = (maze->ColumnNode[x+1][y].existence == WALL) ? true : false;   
 1751              		.loc 1 439 83 discriminator 4 view .LVU535
 1752 007c 012E     		cmp	r6, #1
 1753 007e 14BF     		ite	ne
 1754 0080 0026     		movne	r6, #0
 1755 0082 0126     		moveq	r6, #1
 439:Core/Src/MazeLib.c ****     maze->ColumnNode[x+1][y].draw = (maze->ColumnNode[x+1][y].existence == WALL) ? true : false;   
 1756              		.loc 1 439 32 discriminator 4 view .LVU536
 1757 0084 00EBCE0E 		add	lr, r0, lr, lsl #3
 1758 0088 8EF80460 		strb	r6, [lr, #4]
 440:Core/Src/MazeLib.c ****     maze->RawNode[x][y].draw = (maze->RawNode[x][y].existence == WALL) ? true : false;             
 1759              		.loc 1 440 5 is_stmt 1 discriminator 4 view .LVU537
 440:Core/Src/MazeLib.c ****     maze->RawNode[x][y].draw = (maze->RawNode[x][y].existence == WALL) ? true : false;             
 1760              		.loc 1 440 62 is_stmt 0 discriminator 4 view .LVU538
 1761 008c 03EB0C1C 		add	ip, r3, ip, lsl #4
 1762 0090 0CF5887C 		add	ip, ip, #272
 1763 0094 10F83CE0 		ldrb	lr, [r0, ip, lsl #3]	@ zero_extendqisi2
 440:Core/Src/MazeLib.c ****     maze->RawNode[x][y].draw = (maze->RawNode[x][y].existence == WALL) ? true : false;             
 1764              		.loc 1 440 89 discriminator 4 view .LVU539
 1765 0098 BEF1010F 		cmp	lr, #1
 1766 009c 14BF     		ite	ne
 1767 009e 4FF0000E 		movne	lr, #0
 1768 00a2 4FF0010E 		moveq	lr, #1
 440:Core/Src/MazeLib.c ****     maze->RawNode[x][y].draw = (maze->RawNode[x][y].existence == WALL) ? true : false;             
ARM GAS  /var/folders/v_/kwz_t0cs68g1q1d733r227b80000gn/T//cc7enlx9.s 			page 52


 1769              		.loc 1 440 35 discriminator 4 view .LVU540
 1770 00a6 00EBCC0C 		add	ip, r0, ip, lsl #3
 1771 00aa 8CF804E0 		strb	lr, [ip, #4]
 441:Core/Src/MazeLib.c ****     maze->ColumnNode[x][y].draw = (maze->ColumnNode[x][y].existence == WALL) ? true : false;       
 1772              		.loc 1 441 5 is_stmt 1 discriminator 4 view .LVU541
 441:Core/Src/MazeLib.c ****     maze->ColumnNode[x][y].draw = (maze->ColumnNode[x][y].existence == WALL) ? true : false;       
 1773              		.loc 1 441 79 is_stmt 0 discriminator 4 view .LVU542
 1774 00ae 012D     		cmp	r5, #1
 1775 00b0 14BF     		ite	ne
 1776 00b2 0025     		movne	r5, #0
 1777 00b4 0125     		moveq	r5, #1
 441:Core/Src/MazeLib.c ****     maze->ColumnNode[x][y].draw = (maze->ColumnNode[x][y].existence == WALL) ? true : false;       
 1778              		.loc 1 441 30 discriminator 4 view .LVU543
 1779 00b6 1A44     		add	r2, r2, r3
 1780 00b8 00EBC202 		add	r2, r0, r2, lsl #3
 1781 00bc 1571     		strb	r5, [r2, #4]
 442:Core/Src/MazeLib.c **** }
 1782              		.loc 1 442 5 is_stmt 1 discriminator 4 view .LVU544
 442:Core/Src/MazeLib.c **** }
 1783              		.loc 1 442 85 is_stmt 0 discriminator 4 view .LVU545
 1784 00be 012C     		cmp	r4, #1
 1785 00c0 14BF     		ite	ne
 1786 00c2 0024     		movne	r4, #0
 1787 00c4 0124     		moveq	r4, #1
 442:Core/Src/MazeLib.c **** }
 1788              		.loc 1 442 33 discriminator 4 view .LVU546
 1789 00c6 00EBC100 		add	r0, r0, r1, lsl #3
 1790              	.LVL135:
 442:Core/Src/MazeLib.c **** }
 1791              		.loc 1 442 33 discriminator 4 view .LVU547
 1792 00ca 0471     		strb	r4, [r0, #4]
 443:Core/Src/MazeLib.c **** void updateNodeDraw(maze_node *maze, uint8_t x, uint8_t y)
 1793              		.loc 1 443 1 discriminator 4 view .LVU548
 1794 00cc 70BD     		pop	{r4, r5, r6, pc}
 1795              	.LVL136:
 1796              	.L122:
 429:Core/Src/MazeLib.c ****     maze->ColumnNode[x+1][y].existence = (maze->ColumnNode[x+1][y].existence == UNKNOWN) ? st->wall
 1797              		.loc 1 429 94 discriminator 1 view .LVU549
 1798 00ce 0C79     		ldrb	r4, [r1, #4]	@ zero_extendqisi2
 1799 00d0 04F00304 		and	r4, r4, #3
 1800 00d4 9EE7     		b	.L117
 1801              	.L123:
 430:Core/Src/MazeLib.c ****     maze->RawNode[x][y].existence = (maze->RawNode[x][y].existence == UNKNOWN) ? st->wall.south : m
 1802              		.loc 1 430 100 discriminator 1 view .LVU550
 1803 00d6 0C79     		ldrb	r4, [r1, #4]	@ zero_extendqisi2
 1804 00d8 C4F38104 		ubfx	r4, r4, #2, #2
 1805 00dc A9E7     		b	.L118
 1806              	.L124:
 431:Core/Src/MazeLib.c ****     maze->ColumnNode[x][y].existence = (maze->ColumnNode[x][y].existence == UNKNOWN) ? st->wall.wes
 1807              		.loc 1 431 90 discriminator 1 view .LVU551
 1808 00de 0D79     		ldrb	r5, [r1, #4]	@ zero_extendqisi2
 1809 00e0 C5F30115 		ubfx	r5, r5, #4, #2
 1810 00e4 B2E7     		b	.L119
 1811              	.L125:
 432:Core/Src/MazeLib.c **** 
 1812              		.loc 1 432 96 discriminator 1 view .LVU552
 1813 00e6 0C79     		ldrb	r4, [r1, #4]	@ zero_extendqisi2
ARM GAS  /var/folders/v_/kwz_t0cs68g1q1d733r227b80000gn/T//cc7enlx9.s 			page 53


 1814 00e8 A409     		lsrs	r4, r4, #6
 1815 00ea BCE7     		b	.L120
 1816              		.cfi_endproc
 1817              	.LFE11:
 1819              		.section	.text.updateNodeDraw,"ax",%progbits
 1820              		.align	1
 1821              		.global	updateNodeDraw
 1822              		.syntax unified
 1823              		.thumb
 1824              		.thumb_func
 1825              		.fpu fpv4-sp-d16
 1827              	updateNodeDraw:
 1828              	.LVL137:
 1829              	.LFB12:
 445:Core/Src/MazeLib.c ****     maze->RawNode[x][y+1].draw = maze->RawNode[x][y+1].existence;       //åŒ—
 1830              		.loc 1 445 1 is_stmt 1 view -0
 1831              		.cfi_startproc
 1832              		@ args = 0, pretend = 0, frame = 0
 1833              		@ frame_needed = 0, uses_anonymous_args = 0
 445:Core/Src/MazeLib.c ****     maze->RawNode[x][y+1].draw = maze->RawNode[x][y+1].existence;       //åŒ—
 1834              		.loc 1 445 1 is_stmt 0 view .LVU554
 1835 0000 00B5     		push	{lr}
 1836              	.LCFI7:
 1837              		.cfi_def_cfa_offset 4
 1838              		.cfi_offset 14, -4
 446:Core/Src/MazeLib.c ****     maze->ColumnNode[x+1][y].draw = maze->ColumnNode[x+1][y].existence; //æ±
 1839              		.loc 1 446 5 is_stmt 1 view .LVU555
 446:Core/Src/MazeLib.c ****     maze->ColumnNode[x+1][y].draw = maze->ColumnNode[x+1][y].existence; //æ±
 1840              		.loc 1 446 52 is_stmt 0 view .LVU556
 1841 0002 531C     		adds	r3, r2, #1
 446:Core/Src/MazeLib.c ****     maze->ColumnNode[x+1][y].draw = maze->ColumnNode[x+1][y].existence; //æ±
 1842              		.loc 1 446 55 view .LVU557
 1843 0004 01EB011C 		add	ip, r1, r1, lsl #4
 1844 0008 6344     		add	r3, r3, ip
 1845 000a 10F833E0 		ldrb	lr, [r0, r3, lsl #3]	@ zero_extendqisi2
 1846 000e BEF1000E 		subs	lr, lr, #0
 1847 0012 18BF     		it	ne
 1848 0014 4FF0010E 		movne	lr, #1
 446:Core/Src/MazeLib.c ****     maze->ColumnNode[x+1][y].draw = maze->ColumnNode[x+1][y].existence; //æ±
 1849              		.loc 1 446 32 view .LVU558
 1850 0018 00EBC303 		add	r3, r0, r3, lsl #3
 1851 001c 83F804E0 		strb	lr, [r3, #4]
 447:Core/Src/MazeLib.c ****     maze->RawNode[x][y].draw = maze->RawNode[x][y].existence;           //å—
 1852              		.loc 1 447 5 is_stmt 1 view .LVU559
 447:Core/Src/MazeLib.c ****     maze->RawNode[x][y].draw = maze->RawNode[x][y].existence;           //å—
 1853              		.loc 1 447 55 is_stmt 0 view .LVU560
 1854 0020 4B1C     		adds	r3, r1, #1
 447:Core/Src/MazeLib.c ****     maze->RawNode[x][y].draw = maze->RawNode[x][y].existence;           //å—
 1855              		.loc 1 447 61 view .LVU561
 1856 0022 02EB0313 		add	r3, r2, r3, lsl #4
 1857 0026 03F58873 		add	r3, r3, #272
 1858 002a 10F833E0 		ldrb	lr, [r0, r3, lsl #3]	@ zero_extendqisi2
 1859 002e BEF1000E 		subs	lr, lr, #0
 1860 0032 18BF     		it	ne
 1861 0034 4FF0010E 		movne	lr, #1
 447:Core/Src/MazeLib.c ****     maze->RawNode[x][y].draw = maze->RawNode[x][y].existence;           //å—
 1862              		.loc 1 447 35 view .LVU562
ARM GAS  /var/folders/v_/kwz_t0cs68g1q1d733r227b80000gn/T//cc7enlx9.s 			page 54


 1863 0038 00EBC303 		add	r3, r0, r3, lsl #3
 1864 003c 83F804E0 		strb	lr, [r3, #4]
 448:Core/Src/MazeLib.c ****     maze->ColumnNode[x][y].draw = maze->ColumnNode[x][y].existence;     //è¥¿
 1865              		.loc 1 448 5 is_stmt 1 view .LVU563
 448:Core/Src/MazeLib.c ****     maze->ColumnNode[x][y].draw = maze->ColumnNode[x][y].existence;     //è¥¿
 1866              		.loc 1 448 51 is_stmt 0 view .LVU564
 1867 0040 0CEB0203 		add	r3, ip, r2
 1868 0044 10F833C0 		ldrb	ip, [r0, r3, lsl #3]	@ zero_extendqisi2
 1869 0048 BCF1000C 		subs	ip, ip, #0
 1870 004c 18BF     		it	ne
 1871 004e 4FF0010C 		movne	ip, #1
 448:Core/Src/MazeLib.c ****     maze->ColumnNode[x][y].draw = maze->ColumnNode[x][y].existence;     //è¥¿
 1872              		.loc 1 448 30 view .LVU565
 1873 0052 00EBC303 		add	r3, r0, r3, lsl #3
 1874 0056 83F804C0 		strb	ip, [r3, #4]
 449:Core/Src/MazeLib.c **** }
 1875              		.loc 1 449 5 is_stmt 1 view .LVU566
 449:Core/Src/MazeLib.c **** }
 1876              		.loc 1 449 57 is_stmt 0 view .LVU567
 1877 005a 02EB0112 		add	r2, r2, r1, lsl #4
 1878              	.LVL138:
 449:Core/Src/MazeLib.c **** }
 1879              		.loc 1 449 57 view .LVU568
 1880 005e 02F58872 		add	r2, r2, #272
 1881 0062 10F83230 		ldrb	r3, [r0, r2, lsl #3]	@ zero_extendqisi2
 1882 0066 003B     		subs	r3, r3, #0
 1883 0068 18BF     		it	ne
 1884 006a 0123     		movne	r3, #1
 449:Core/Src/MazeLib.c **** }
 1885              		.loc 1 449 33 view .LVU569
 1886 006c 00EBC200 		add	r0, r0, r2, lsl #3
 1887              	.LVL139:
 449:Core/Src/MazeLib.c **** }
 1888              		.loc 1 449 33 view .LVU570
 1889 0070 0371     		strb	r3, [r0, #4]
 450:Core/Src/MazeLib.c **** static _Bool judgeRawNodeGoal(maze_node *maze, uint8_t x, uint8_t y)
 1890              		.loc 1 450 1 view .LVU571
 1891 0072 5DF804FB 		ldr	pc, [sp], #4
 1892              		.cfi_endproc
 1893              	.LFE12:
 1895              		.section	.rodata.printAllWeight.str1.4,"aMS",%progbits,1
 1896              		.align	2
 1897              	.LC2:
 1898 0000 E585A8E3 		.ascii	"\345\205\250\343\203\216\343\203\274\343\203\211\343"
 1898      838EE383 
 1898      BCE38389 
 1898      E3
 1899 000d 81AEE987 		.ascii	"\201\256\351\207\215\343\201\277\015\000"
 1899      8DE381BF 
 1899      0D00
 1900 0017 00       		.align	2
 1901              	.LC3:
 1902 0018 20202B20 		.ascii	"  +  \000"
 1902      2000
 1903 001e 0000     		.align	2
 1904              	.LC4:
 1905 0020 201B5B33 		.ascii	" \033[31;1m%3x\033[37;m \000"
ARM GAS  /var/folders/v_/kwz_t0cs68g1q1d733r227b80000gn/T//cc7enlx9.s 			page 55


 1905      313B316D 
 1905      2533781B 
 1905      5B33373B 
 1905      6D2000
 1906 0033 00       		.align	2
 1907              	.LC5:
 1908 0034 20253378 		.ascii	" %3x \000"
 1908      2000
 1909 003a 0000     		.align	2
 1910              	.LC6:
 1911 003c 0D00     		.ascii	"\015\000"
 1912 003e 0000     		.align	2
 1913              	.LC7:
 1914 0040 20202020 		.ascii	"     \000"
 1914      2000
 1915              		.section	.text.printAllWeight,"ax",%progbits
 1916              		.align	1
 1917              		.global	printAllWeight
 1918              		.syntax unified
 1919              		.thumb
 1920              		.thumb_func
 1921              		.fpu fpv4-sp-d16
 1923              	printAllWeight:
 1924              	.LVL140:
 1925              	.LFB15:
 487:Core/Src/MazeLib.c ****     //è¦‹ã‚„ã™ã„å½¢ã«æˆå‹ã—ã¦è¡¨ç¤ºã™ã‚‹
 1926              		.loc 1 487 1 is_stmt 1 view -0
 1927              		.cfi_startproc
 1928              		@ args = 0, pretend = 0, frame = 0
 1929              		@ frame_needed = 0, uses_anonymous_args = 0
 487:Core/Src/MazeLib.c ****     //è¦‹ã‚„ã™ã„å½¢ã«æˆå‹ã—ã¦è¡¨ç¤ºã™ã‚‹
 1930              		.loc 1 487 1 is_stmt 0 view .LVU573
 1931 0000 F8B5     		push	{r3, r4, r5, r6, r7, lr}
 1932              	.LCFI8:
 1933              		.cfi_def_cfa_offset 24
 1934              		.cfi_offset 3, -24
 1935              		.cfi_offset 4, -20
 1936              		.cfi_offset 5, -16
 1937              		.cfi_offset 6, -12
 1938              		.cfi_offset 7, -8
 1939              		.cfi_offset 14, -4
 1940 0002 0646     		mov	r6, r0
 1941 0004 0F46     		mov	r7, r1
 494:Core/Src/MazeLib.c **** 
 1942              		.loc 1 494 5 is_stmt 1 view .LVU574
 1943 0006 4148     		ldr	r0, .L151
 1944              	.LVL141:
 494:Core/Src/MazeLib.c **** 
 1945              		.loc 1 494 5 is_stmt 0 view .LVU575
 1946 0008 FFF7FEFF 		bl	puts
 1947              	.LVL142:
 496:Core/Src/MazeLib.c ****     {
 1948              		.loc 1 496 5 is_stmt 1 view .LVU576
 1949              	.LBB19:
 496:Core/Src/MazeLib.c ****     {
 1950              		.loc 1 496 9 view .LVU577
 496:Core/Src/MazeLib.c ****     {
ARM GAS  /var/folders/v_/kwz_t0cs68g1q1d733r227b80000gn/T//cc7enlx9.s 			page 56


 1951              		.loc 1 496 13 is_stmt 0 view .LVU578
 1952 000c 1025     		movs	r5, #16
 496:Core/Src/MazeLib.c ****     {
 1953              		.loc 1 496 5 view .LVU579
 1954 000e 5BE0     		b	.L129
 1955              	.LVL143:
 1956              	.L132:
 1957              	.LBB20:
 508:Core/Src/MazeLib.c ****             }
 1958              		.loc 1 508 17 is_stmt 1 view .LVU580
 508:Core/Src/MazeLib.c ****             }
 1959              		.loc 1 508 51 is_stmt 0 view .LVU581
 1960 0010 04EB0413 		add	r3, r4, r4, lsl #4
 1961 0014 2B44     		add	r3, r3, r5
 1962 0016 06EBC303 		add	r3, r6, r3, lsl #3
 508:Core/Src/MazeLib.c ****             }
 1963              		.loc 1 508 17 view .LVU582
 1964 001a 5988     		ldrh	r1, [r3, #2]
 1965 001c 3C48     		ldr	r0, .L151+4
 1966 001e FFF7FEFF 		bl	printf
 1967              	.LVL144:
 1968              	.L133:
 510:Core/Src/MazeLib.c ****                  printf("  +  ");
 1969              		.loc 1 510 13 is_stmt 1 view .LVU583
 510:Core/Src/MazeLib.c ****                  printf("  +  ");
 1970              		.loc 1 510 15 is_stmt 0 view .LVU584
 1971 0022 0E2C     		cmp	r4, #14
 1972 0024 02DC     		bgt	.L134
 511:Core/Src/MazeLib.c ****         }
 1973              		.loc 1 511 18 is_stmt 1 view .LVU585
 1974 0026 3B48     		ldr	r0, .L151+8
 1975 0028 FFF7FEFF 		bl	printf
 1976              	.LVL145:
 1977              	.L134:
 500:Core/Src/MazeLib.c ****         {
 1978              		.loc 1 500 47 discriminator 2 view .LVU586
 500:Core/Src/MazeLib.c ****         {
 1979              		.loc 1 500 48 is_stmt 0 discriminator 2 view .LVU587
 1980 002c 0134     		adds	r4, r4, #1
 1981              	.LVL146:
 1982              	.L130:
 500:Core/Src/MazeLib.c ****         {
 1983              		.loc 1 500 22 is_stmt 1 discriminator 1 view .LVU588
 500:Core/Src/MazeLib.c ****         {
 1984              		.loc 1 500 9 is_stmt 0 discriminator 1 view .LVU589
 1985 002e 0F2C     		cmp	r4, #15
 1986 0030 15DC     		bgt	.L147
 502:Core/Src/MazeLib.c ****             {
 1987              		.loc 1 502 13 is_stmt 1 view .LVU590
 502:Core/Src/MazeLib.c ****             {
 1988              		.loc 1 502 16 is_stmt 0 view .LVU591
 1989 0032 EAB2     		uxtb	r2, r5
 1990 0034 E1B2     		uxtb	r1, r4
 1991 0036 3046     		mov	r0, r6
 1992 0038 FFF7FEFF 		bl	judgeRawNodeGoal
 1993              	.LVL147:
 502:Core/Src/MazeLib.c ****             {
ARM GAS  /var/folders/v_/kwz_t0cs68g1q1d733r227b80000gn/T//cc7enlx9.s 			page 57


 1994              		.loc 1 502 15 view .LVU592
 1995 003c 28B9     		cbnz	r0, .L131
 502:Core/Src/MazeLib.c ****             {
 1996              		.loc 1 502 60 discriminator 1 view .LVU593
 1997 003e 3B78     		ldrb	r3, [r7]	@ zero_extendqisi2
 502:Core/Src/MazeLib.c ****             {
 1998              		.loc 1 502 52 discriminator 1 view .LVU594
 1999 0040 A342     		cmp	r3, r4
 2000 0042 E5D1     		bne	.L132
 502:Core/Src/MazeLib.c ****             {
 2001              		.loc 1 502 77 discriminator 2 view .LVU595
 2002 0044 7B78     		ldrb	r3, [r7, #1]	@ zero_extendqisi2
 502:Core/Src/MazeLib.c ****             {
 2003              		.loc 1 502 70 discriminator 2 view .LVU596
 2004 0046 AB42     		cmp	r3, r5
 2005 0048 E2D1     		bne	.L132
 2006              	.L131:
 504:Core/Src/MazeLib.c ****             }
 2007              		.loc 1 504 17 is_stmt 1 view .LVU597
 504:Core/Src/MazeLib.c ****             }
 2008              		.loc 1 504 70 is_stmt 0 view .LVU598
 2009 004a 04EB0413 		add	r3, r4, r4, lsl #4
 2010 004e 2B44     		add	r3, r3, r5
 2011 0050 06EBC303 		add	r3, r6, r3, lsl #3
 504:Core/Src/MazeLib.c ****             }
 2012              		.loc 1 504 17 view .LVU599
 2013 0054 5988     		ldrh	r1, [r3, #2]
 2014 0056 3048     		ldr	r0, .L151+12
 2015 0058 FFF7FEFF 		bl	printf
 2016              	.LVL148:
 2017 005c E1E7     		b	.L133
 2018              	.L147:
 504:Core/Src/MazeLib.c ****             }
 2019              		.loc 1 504 17 view .LVU600
 2020              	.LBE20:
 513:Core/Src/MazeLib.c **** 
 2021              		.loc 1 513 9 is_stmt 1 view .LVU601
 2022 005e 2F48     		ldr	r0, .L151+16
 2023 0060 FFF7FEFF 		bl	puts
 2024              	.LVL149:
 516:Core/Src/MazeLib.c ****         {
 2025              		.loc 1 516 9 view .LVU602
 2026              	.LBB21:
 516:Core/Src/MazeLib.c ****         {
 2027              		.loc 1 516 13 view .LVU603
 516:Core/Src/MazeLib.c ****         {
 2028              		.loc 1 516 17 is_stmt 0 view .LVU604
 2029 0064 0024     		movs	r4, #0
 2030              	.LVL150:
 516:Core/Src/MazeLib.c ****         {
 2031              		.loc 1 516 9 view .LVU605
 2032 0066 10E0     		b	.L136
 2033              	.LVL151:
 2034              	.L138:
 524:Core/Src/MazeLib.c ****             }
 2035              		.loc 1 524 17 is_stmt 1 view .LVU606
 524:Core/Src/MazeLib.c ****             }
ARM GAS  /var/folders/v_/kwz_t0cs68g1q1d733r227b80000gn/T//cc7enlx9.s 			page 58


 2036              		.loc 1 524 53 is_stmt 0 view .LVU607
 2037 0068 6B1E     		subs	r3, r5, #1
 524:Core/Src/MazeLib.c ****             }
 2038              		.loc 1 524 56 view .LVU608
 2039 006a 03EB0413 		add	r3, r3, r4, lsl #4
 2040 006e 03F58873 		add	r3, r3, #272
 2041 0072 06EBC303 		add	r3, r6, r3, lsl #3
 524:Core/Src/MazeLib.c ****             }
 2042              		.loc 1 524 17 view .LVU609
 2043 0076 5988     		ldrh	r1, [r3, #2]
 2044 0078 2548     		ldr	r0, .L151+4
 2045 007a FFF7FEFF 		bl	printf
 2046              	.LVL152:
 2047              	.L139:
 526:Core/Src/MazeLib.c ****                 printf("     ");
 2048              		.loc 1 526 13 is_stmt 1 view .LVU610
 526:Core/Src/MazeLib.c ****                 printf("     ");
 2049              		.loc 1 526 15 is_stmt 0 view .LVU611
 2050 007e 0F2C     		cmp	r4, #15
 2051 0080 02DC     		bgt	.L140
 527:Core/Src/MazeLib.c ****         }
 2052              		.loc 1 527 17 is_stmt 1 view .LVU612
 2053 0082 2748     		ldr	r0, .L151+20
 2054 0084 FFF7FEFF 		bl	printf
 2055              	.LVL153:
 2056              	.L140:
 516:Core/Src/MazeLib.c ****         {
 2057              		.loc 1 516 49 discriminator 2 view .LVU613
 516:Core/Src/MazeLib.c ****         {
 2058              		.loc 1 516 50 is_stmt 0 discriminator 2 view .LVU614
 2059 0088 0134     		adds	r4, r4, #1
 2060              	.LVL154:
 2061              	.L136:
 516:Core/Src/MazeLib.c ****         {
 2062              		.loc 1 516 22 is_stmt 1 discriminator 1 view .LVU615
 516:Core/Src/MazeLib.c ****         {
 2063              		.loc 1 516 9 is_stmt 0 discriminator 1 view .LVU616
 2064 008a 102C     		cmp	r4, #16
 2065 008c 18DC     		bgt	.L148
 518:Core/Src/MazeLib.c ****             {
 2066              		.loc 1 518 13 is_stmt 1 view .LVU617
 518:Core/Src/MazeLib.c ****             {
 2067              		.loc 1 518 16 is_stmt 0 view .LVU618
 2068 008e 6A1E     		subs	r2, r5, #1
 2069 0090 D2B2     		uxtb	r2, r2
 2070 0092 E1B2     		uxtb	r1, r4
 2071 0094 3046     		mov	r0, r6
 2072 0096 FFF7FEFF 		bl	judgeColumnNodeGoal
 2073              	.LVL155:
 518:Core/Src/MazeLib.c ****             {
 2074              		.loc 1 518 15 view .LVU619
 2075 009a 28B9     		cbnz	r0, .L137
 518:Core/Src/MazeLib.c ****             {
 2076              		.loc 1 518 65 discriminator 1 view .LVU620
 2077 009c 3B78     		ldrb	r3, [r7]	@ zero_extendqisi2
 518:Core/Src/MazeLib.c ****             {
 2078              		.loc 1 518 57 discriminator 1 view .LVU621
ARM GAS  /var/folders/v_/kwz_t0cs68g1q1d733r227b80000gn/T//cc7enlx9.s 			page 59


 2079 009e A342     		cmp	r3, r4
 2080 00a0 E2D1     		bne	.L138
 518:Core/Src/MazeLib.c ****             {
 2081              		.loc 1 518 82 discriminator 2 view .LVU622
 2082 00a2 7B78     		ldrb	r3, [r7, #1]	@ zero_extendqisi2
 518:Core/Src/MazeLib.c ****             {
 2083              		.loc 1 518 75 discriminator 2 view .LVU623
 2084 00a4 AB42     		cmp	r3, r5
 2085 00a6 DFD1     		bne	.L138
 2086              	.L137:
 520:Core/Src/MazeLib.c ****             }
 2087              		.loc 1 520 17 is_stmt 1 view .LVU624
 520:Core/Src/MazeLib.c ****             }
 2088              		.loc 1 520 72 is_stmt 0 view .LVU625
 2089 00a8 6B1E     		subs	r3, r5, #1
 520:Core/Src/MazeLib.c ****             }
 2090              		.loc 1 520 75 view .LVU626
 2091 00aa 03EB0413 		add	r3, r3, r4, lsl #4
 2092 00ae 03F58873 		add	r3, r3, #272
 2093 00b2 06EBC303 		add	r3, r6, r3, lsl #3
 520:Core/Src/MazeLib.c ****             }
 2094              		.loc 1 520 17 view .LVU627
 2095 00b6 5988     		ldrh	r1, [r3, #2]
 2096 00b8 1748     		ldr	r0, .L151+12
 2097 00ba FFF7FEFF 		bl	printf
 2098              	.LVL156:
 2099 00be DEE7     		b	.L139
 2100              	.L148:
 520:Core/Src/MazeLib.c ****             }
 2101              		.loc 1 520 17 view .LVU628
 2102              	.LBE21:
 529:Core/Src/MazeLib.c ****     }
 2103              		.loc 1 529 9 is_stmt 1 discriminator 2 view .LVU629
 2104 00c0 1648     		ldr	r0, .L151+16
 2105 00c2 FFF7FEFF 		bl	puts
 2106              	.LVL157:
 496:Core/Src/MazeLib.c ****     {
 2107              		.loc 1 496 43 discriminator 2 view .LVU630
 496:Core/Src/MazeLib.c ****     {
 2108              		.loc 1 496 44 is_stmt 0 discriminator 2 view .LVU631
 2109 00c6 013D     		subs	r5, r5, #1
 2110              	.LVL158:
 2111              	.L129:
 496:Core/Src/MazeLib.c ****     {
 2112              		.loc 1 496 36 is_stmt 1 discriminator 1 view .LVU632
 496:Core/Src/MazeLib.c ****     {
 2113              		.loc 1 496 5 is_stmt 0 discriminator 1 view .LVU633
 2114 00c8 002D     		cmp	r5, #0
 2115 00ca 04DD     		ble	.L149
 499:Core/Src/MazeLib.c ****         for(int x=0; x < NUMBER_OF_SQUARES_X; x++)
 2116              		.loc 1 499 9 is_stmt 1 view .LVU634
 2117 00cc 1148     		ldr	r0, .L151+8
 2118 00ce FFF7FEFF 		bl	printf
 2119              	.LVL159:
 500:Core/Src/MazeLib.c ****         {
 2120              		.loc 1 500 9 view .LVU635
 2121              	.LBB22:
ARM GAS  /var/folders/v_/kwz_t0cs68g1q1d733r227b80000gn/T//cc7enlx9.s 			page 60


 500:Core/Src/MazeLib.c ****         {
 2122              		.loc 1 500 13 view .LVU636
 500:Core/Src/MazeLib.c ****         {
 2123              		.loc 1 500 17 is_stmt 0 view .LVU637
 2124 00d2 0024     		movs	r4, #0
 500:Core/Src/MazeLib.c ****         {
 2125              		.loc 1 500 9 view .LVU638
 2126 00d4 ABE7     		b	.L130
 2127              	.LVL160:
 2128              	.L149:
 500:Core/Src/MazeLib.c ****         {
 2129              		.loc 1 500 9 view .LVU639
 2130              	.LBE22:
 2131              	.LBE19:
 532:Core/Src/MazeLib.c ****     for(int x=0; x < NUMBER_OF_SQUARES_X; x++)
 2132              		.loc 1 532 5 is_stmt 1 view .LVU640
 2133 00d6 0F48     		ldr	r0, .L151+8
 2134 00d8 FFF7FEFF 		bl	printf
 2135              	.LVL161:
 533:Core/Src/MazeLib.c ****     {
 2136              		.loc 1 533 5 view .LVU641
 2137              	.LBB23:
 533:Core/Src/MazeLib.c ****     {
 2138              		.loc 1 533 9 view .LVU642
 533:Core/Src/MazeLib.c ****     {
 2139              		.loc 1 533 13 is_stmt 0 view .LVU643
 2140 00dc 0024     		movs	r4, #0
 533:Core/Src/MazeLib.c ****     {
 2141              		.loc 1 533 5 view .LVU644
 2142 00de 00E0     		b	.L143
 2143              	.LVL162:
 2144              	.L144:
 533:Core/Src/MazeLib.c ****     {
 2145              		.loc 1 533 43 is_stmt 1 discriminator 2 view .LVU645
 533:Core/Src/MazeLib.c ****     {
 2146              		.loc 1 533 44 is_stmt 0 discriminator 2 view .LVU646
 2147 00e0 0134     		adds	r4, r4, #1
 2148              	.LVL163:
 2149              	.L143:
 533:Core/Src/MazeLib.c ****     {
 2150              		.loc 1 533 18 is_stmt 1 discriminator 1 view .LVU647
 533:Core/Src/MazeLib.c ****     {
 2151              		.loc 1 533 5 is_stmt 0 discriminator 1 view .LVU648
 2152 00e2 0F2C     		cmp	r4, #15
 2153 00e4 0DDC     		bgt	.L150
 535:Core/Src/MazeLib.c ****         if(x < NUMBER_OF_SQUARES_X-1)
 2154              		.loc 1 535 9 is_stmt 1 view .LVU649
 535:Core/Src/MazeLib.c ****         if(x < NUMBER_OF_SQUARES_X-1)
 2155              		.loc 1 535 43 is_stmt 0 view .LVU650
 2156 00e6 04EB0413 		add	r3, r4, r4, lsl #4
 2157 00ea 06EBC303 		add	r3, r6, r3, lsl #3
 535:Core/Src/MazeLib.c ****         if(x < NUMBER_OF_SQUARES_X-1)
 2158              		.loc 1 535 9 view .LVU651
 2159 00ee 5988     		ldrh	r1, [r3, #2]
 2160 00f0 0748     		ldr	r0, .L151+4
 2161 00f2 FFF7FEFF 		bl	printf
 2162              	.LVL164:
ARM GAS  /var/folders/v_/kwz_t0cs68g1q1d733r227b80000gn/T//cc7enlx9.s 			page 61


 536:Core/Src/MazeLib.c ****                 printf("  +  ");
 2163              		.loc 1 536 9 is_stmt 1 view .LVU652
 536:Core/Src/MazeLib.c ****                 printf("  +  ");
 2164              		.loc 1 536 11 is_stmt 0 view .LVU653
 2165 00f6 0E2C     		cmp	r4, #14
 2166 00f8 F2DC     		bgt	.L144
 537:Core/Src/MazeLib.c ****     }
 2167              		.loc 1 537 17 is_stmt 1 view .LVU654
 2168 00fa 0648     		ldr	r0, .L151+8
 2169 00fc FFF7FEFF 		bl	printf
 2170              	.LVL165:
 2171 0100 EEE7     		b	.L144
 2172              	.L150:
 537:Core/Src/MazeLib.c ****     }
 2173              		.loc 1 537 17 is_stmt 0 view .LVU655
 2174              	.LBE23:
 539:Core/Src/MazeLib.c **** 
 2175              		.loc 1 539 5 is_stmt 1 view .LVU656
 2176 0102 0648     		ldr	r0, .L151+16
 2177 0104 FFF7FEFF 		bl	puts
 2178              	.LVL166:
 542:Core/Src/MazeLib.c **** void printSingleNode(maze_node *mn, uint8_t x, uint8_t y)
 2179              		.loc 1 542 1 is_stmt 0 view .LVU657
 2180 0108 F8BD     		pop	{r3, r4, r5, r6, r7, pc}
 2181              	.LVL167:
 2182              	.L152:
 542:Core/Src/MazeLib.c **** void printSingleNode(maze_node *mn, uint8_t x, uint8_t y)
 2183              		.loc 1 542 1 view .LVU658
 2184 010a 00BF     		.align	2
 2185              	.L151:
 2186 010c 00000000 		.word	.LC2
 2187 0110 34000000 		.word	.LC5
 2188 0114 18000000 		.word	.LC3
 2189 0118 20000000 		.word	.LC4
 2190 011c 3C000000 		.word	.LC6
 2191 0120 40000000 		.word	.LC7
 2192              		.cfi_endproc
 2193              	.LFE15:
 2195              		.section	.rodata.printSingleNode.str1.4,"aMS",%progbits,1
 2196              		.align	2
 2197              	.LC8:
 2198 0000 E8A18CE3 		.ascii	"\350\241\214\343\203\216\343\203\274\343\203\211 %d"
 2198      838EE383 
 2198      BCE38389 
 2198      202564
 2199 000f 2C202564 		.ascii	", %d : \345\243\201 %u, \351\207\215\343\201\277 %u"
 2199      203A20E5 
 2199      A3812025 
 2199      752C20E9 
 2199      878DE381 
 2200 0027 2C206472 		.ascii	", draw %u\015\012\000"
 2200      61772025 
 2200      750D0A00 
 2201 0033 00       		.align	2
 2202              	.LC9:
 2203 0034 E58897E3 		.ascii	"\345\210\227\343\203\216\343\203\274\343\203\211 %d"
 2203      838EE383 
ARM GAS  /var/folders/v_/kwz_t0cs68g1q1d733r227b80000gn/T//cc7enlx9.s 			page 62


 2203      BCE38389 
 2203      202564
 2204 0043 2C202564 		.ascii	", %d : \345\243\201 %u, \351\207\215\343\201\277 %u"
 2204      203A20E5 
 2204      A3812025 
 2204      752C20E9 
 2204      878DE381 
 2205 005b 2C206472 		.ascii	", draw %u\015\012\000"
 2205      61772025 
 2205      750D0A00 
 2206              		.section	.text.printSingleNode,"ax",%progbits
 2207              		.align	1
 2208              		.global	printSingleNode
 2209              		.syntax unified
 2210              		.thumb
 2211              		.thumb_func
 2212              		.fpu fpv4-sp-d16
 2214              	printSingleNode:
 2215              	.LVL168:
 2216              	.LFB16:
 544:Core/Src/MazeLib.c ****     printf("è¡Œãƒãƒ¼ãƒ‰ %d, %d : å£ %u, é‡ã¿ %u, draw %u\r\n", x,y, mn->RawNode[x][y].existence
 2217              		.loc 1 544 1 is_stmt 1 view -0
 2218              		.cfi_startproc
 2219              		@ args = 0, pretend = 0, frame = 0
 2220              		@ frame_needed = 0, uses_anonymous_args = 0
 544:Core/Src/MazeLib.c ****     printf("è¡Œãƒãƒ¼ãƒ‰ %d, %d : å£ %u, é‡ã¿ %u, draw %u\r\n", x,y, mn->RawNode[x][y].existence
 2221              		.loc 1 544 1 is_stmt 0 view .LVU660
 2222 0000 F0B5     		push	{r4, r5, r6, r7, lr}
 2223              	.LCFI9:
 2224              		.cfi_def_cfa_offset 20
 2225              		.cfi_offset 4, -20
 2226              		.cfi_offset 5, -16
 2227              		.cfi_offset 6, -12
 2228              		.cfi_offset 7, -8
 2229              		.cfi_offset 14, -4
 2230 0002 83B0     		sub	sp, sp, #12
 2231              	.LCFI10:
 2232              		.cfi_def_cfa_offset 32
 2233 0004 0546     		mov	r5, r0
 2234 0006 0C46     		mov	r4, r1
 2235 0008 1746     		mov	r7, r2
 545:Core/Src/MazeLib.c ****     printf("åˆ—ãƒãƒ¼ãƒ‰ %d, %d : å£ %u, é‡ã¿ %u, draw %u\r\n", x,y, mn->ColumnNode[x][y].existe
 2236              		.loc 1 545 5 is_stmt 1 view .LVU661
 545:Core/Src/MazeLib.c ****     printf("åˆ—ãƒãƒ¼ãƒ‰ %d, %d : å£ %u, é‡ã¿ %u, draw %u\r\n", x,y, mn->ColumnNode[x][y].existe
 2237              		.loc 1 545 90 is_stmt 0 view .LVU662
 2238 000a 0E01     		lsls	r6, r1, #4
 2239 000c 01EB0113 		add	r3, r1, r1, lsl #4
 2240 0010 1344     		add	r3, r3, r2
 545:Core/Src/MazeLib.c ****     printf("åˆ—ãƒãƒ¼ãƒ‰ %d, %d : å£ %u, é‡ã¿ %u, draw %u\r\n", x,y, mn->ColumnNode[x][y].existe
 2241              		.loc 1 545 118 view .LVU663
 2242 0012 00EBC300 		add	r0, r0, r3, lsl #3
 2243              	.LVL169:
 545:Core/Src/MazeLib.c ****     printf("åˆ—ãƒãƒ¼ãƒ‰ %d, %d : å£ %u, é‡ã¿ %u, draw %u\r\n", x,y, mn->ColumnNode[x][y].existe
 2244              		.loc 1 545 118 view .LVU664
 2245 0016 B0F802C0 		ldrh	ip, [r0, #2]
 545:Core/Src/MazeLib.c ****     printf("åˆ—ãƒãƒ¼ãƒ‰ %d, %d : å£ %u, é‡ã¿ %u, draw %u\r\n", x,y, mn->ColumnNode[x][y].existe
 2246              		.loc 1 545 143 view .LVU665
ARM GAS  /var/folders/v_/kwz_t0cs68g1q1d733r227b80000gn/T//cc7enlx9.s 			page 63


 2247 001a 0079     		ldrb	r0, [r0, #4]	@ zero_extendqisi2
 545:Core/Src/MazeLib.c ****     printf("åˆ—ãƒãƒ¼ãƒ‰ %d, %d : å£ %u, é‡ã¿ %u, draw %u\r\n", x,y, mn->ColumnNode[x][y].existe
 2248              		.loc 1 545 5 view .LVU666
 2249 001c 0190     		str	r0, [sp, #4]
 2250 001e CDF800C0 		str	ip, [sp]
 2251 0022 15F83330 		ldrb	r3, [r5, r3, lsl #3]	@ zero_extendqisi2
 2252 0026 0A48     		ldr	r0, .L155
 2253 0028 FFF7FEFF 		bl	printf
 2254              	.LVL170:
 546:Core/Src/MazeLib.c **** }
 2255              		.loc 1 546 5 is_stmt 1 view .LVU667
 546:Core/Src/MazeLib.c **** }
 2256              		.loc 1 546 93 is_stmt 0 view .LVU668
 2257 002c F319     		adds	r3, r6, r7
 2258 002e 03F58873 		add	r3, r3, #272
 546:Core/Src/MazeLib.c **** }
 2259              		.loc 1 546 124 view .LVU669
 2260 0032 05EBC302 		add	r2, r5, r3, lsl #3
 2261 0036 5188     		ldrh	r1, [r2, #2]
 546:Core/Src/MazeLib.c **** }
 2262              		.loc 1 546 152 view .LVU670
 2263 0038 1279     		ldrb	r2, [r2, #4]	@ zero_extendqisi2
 546:Core/Src/MazeLib.c **** }
 2264              		.loc 1 546 5 view .LVU671
 2265 003a 0192     		str	r2, [sp, #4]
 2266 003c 0091     		str	r1, [sp]
 2267 003e 15F83330 		ldrb	r3, [r5, r3, lsl #3]	@ zero_extendqisi2
 2268 0042 3A46     		mov	r2, r7
 2269 0044 2146     		mov	r1, r4
 2270 0046 0348     		ldr	r0, .L155+4
 2271 0048 FFF7FEFF 		bl	printf
 2272              	.LVL171:
 547:Core/Src/MazeLib.c **** 
 2273              		.loc 1 547 1 view .LVU672
 2274 004c 03B0     		add	sp, sp, #12
 2275              	.LCFI11:
 2276              		.cfi_def_cfa_offset 20
 2277              		@ sp needed
 2278 004e F0BD     		pop	{r4, r5, r6, r7, pc}
 2279              	.LVL172:
 2280              	.L156:
 547:Core/Src/MazeLib.c **** 
 2281              		.loc 1 547 1 view .LVU673
 2282              		.align	2
 2283              	.L155:
 2284 0050 00000000 		.word	.LC8
 2285 0054 34000000 		.word	.LC9
 2286              		.cfi_endproc
 2287              	.LFE16:
 2289              		.section	.rodata.printAllNode.str1.4,"aMS",%progbits,1
 2290              		.align	2
 2291              	.LC10:
 2292 0000 E585A8E3 		.ascii	"\345\205\250\343\203\216\343\203\274\343\203\211\015"
 2292      838EE383 
 2292      BCE38389 
 2292      0D
 2293 000d 00       		.ascii	"\000"
ARM GAS  /var/folders/v_/kwz_t0cs68g1q1d733r227b80000gn/T//cc7enlx9.s 			page 64


 2294 000e 0000     		.align	2
 2295              	.LC11:
 2296 0010 25752C00 		.ascii	"%u,\000"
 2297              		.align	2
 2298              	.LC12:
 2299 0014 257500   		.ascii	"%u\000"
 2300              		.section	.text.printAllNode,"ax",%progbits
 2301              		.align	1
 2302              		.global	printAllNode
 2303              		.syntax unified
 2304              		.thumb
 2305              		.thumb_func
 2306              		.fpu fpv4-sp-d16
 2308              	printAllNode:
 2309              	.LVL173:
 2310              	.LFB17:
 550:Core/Src/MazeLib.c ****     printf("å…¨ãƒãƒ¼ãƒ‰\r\n");
 2311              		.loc 1 550 1 is_stmt 1 view -0
 2312              		.cfi_startproc
 2313              		@ args = 0, pretend = 0, frame = 0
 2314              		@ frame_needed = 0, uses_anonymous_args = 0
 550:Core/Src/MazeLib.c ****     printf("å…¨ãƒãƒ¼ãƒ‰\r\n");
 2315              		.loc 1 550 1 is_stmt 0 view .LVU675
 2316 0000 70B5     		push	{r4, r5, r6, lr}
 2317              	.LCFI12:
 2318              		.cfi_def_cfa_offset 16
 2319              		.cfi_offset 4, -16
 2320              		.cfi_offset 5, -12
 2321              		.cfi_offset 6, -8
 2322              		.cfi_offset 14, -4
 2323 0002 0546     		mov	r5, r0
 551:Core/Src/MazeLib.c ****     //é–“é•ã£ã¦ã‚‹ã‹ã‚‚
 2324              		.loc 1 551 5 is_stmt 1 view .LVU676
 2325 0004 1948     		ldr	r0, .L168
 2326              	.LVL174:
 551:Core/Src/MazeLib.c ****     //é–“é•ã£ã¦ã‚‹ã‹ã‚‚
 2327              		.loc 1 551 5 is_stmt 0 view .LVU677
 2328 0006 FFF7FEFF 		bl	puts
 2329              	.LVL175:
 558:Core/Src/MazeLib.c ****     {
 2330              		.loc 1 558 5 is_stmt 1 view .LVU678
 2331              	.LBB24:
 558:Core/Src/MazeLib.c ****     {
 2332              		.loc 1 558 9 view .LVU679
 558:Core/Src/MazeLib.c ****     {
 2333              		.loc 1 558 13 is_stmt 0 view .LVU680
 2334 000a 0024     		movs	r4, #0
 558:Core/Src/MazeLib.c ****     {
 2335              		.loc 1 558 5 view .LVU681
 2336 000c 25E0     		b	.L158
 2337              	.LVL176:
 2338              	.L159:
 2339              	.LBB25:
 562:Core/Src/MazeLib.c ****         }
 2340              		.loc 1 562 13 is_stmt 1 discriminator 3 view .LVU682
 562:Core/Src/MazeLib.c ****         }
 2341              		.loc 1 562 43 is_stmt 0 discriminator 3 view .LVU683
ARM GAS  /var/folders/v_/kwz_t0cs68g1q1d733r227b80000gn/T//cc7enlx9.s 			page 65


 2342 000e 04EB0413 		add	r3, r4, r4, lsl #4
 2343 0012 3344     		add	r3, r3, r6
 2344 0014 05EBC303 		add	r3, r5, r3, lsl #3
 562:Core/Src/MazeLib.c ****         }
 2345              		.loc 1 562 13 discriminator 3 view .LVU684
 2346 0018 1979     		ldrb	r1, [r3, #4]	@ zero_extendqisi2
 2347 001a 1548     		ldr	r0, .L168+4
 2348 001c FFF7FEFF 		bl	printf
 2349              	.LVL177:
 560:Core/Src/MazeLib.c ****         {
 2350              		.loc 1 560 49 is_stmt 1 discriminator 3 view .LVU685
 560:Core/Src/MazeLib.c ****         {
 2351              		.loc 1 560 50 is_stmt 0 discriminator 3 view .LVU686
 2352 0020 0136     		adds	r6, r6, #1
 2353              	.LVL178:
 2354              	.L163:
 560:Core/Src/MazeLib.c ****         {
 2355              		.loc 1 560 22 is_stmt 1 discriminator 1 view .LVU687
 560:Core/Src/MazeLib.c ****         {
 2356              		.loc 1 560 9 is_stmt 0 discriminator 1 view .LVU688
 2357 0022 102E     		cmp	r6, #16
 2358 0024 F3DD     		ble	.L159
 2359              	.LBE25:
 2360              	.LBB26:
 564:Core/Src/MazeLib.c ****         {
 2361              		.loc 1 564 17 view .LVU689
 2362 0026 0026     		movs	r6, #0
 2363              	.LVL179:
 564:Core/Src/MazeLib.c ****         {
 2364              		.loc 1 564 17 view .LVU690
 2365 0028 00E0     		b	.L160
 2366              	.LVL180:
 2367              	.L161:
 564:Core/Src/MazeLib.c ****         {
 2368              		.loc 1 564 47 is_stmt 1 discriminator 2 view .LVU691
 564:Core/Src/MazeLib.c ****         {
 2369              		.loc 1 564 48 is_stmt 0 discriminator 2 view .LVU692
 2370 002a 0136     		adds	r6, r6, #1
 2371              	.LVL181:
 2372              	.L160:
 564:Core/Src/MazeLib.c ****         {
 2373              		.loc 1 564 22 is_stmt 1 discriminator 1 view .LVU693
 564:Core/Src/MazeLib.c ****         {
 2374              		.loc 1 564 9 is_stmt 0 discriminator 1 view .LVU694
 2375 002c 0F2E     		cmp	r6, #15
 2376 002e 10DC     		bgt	.L166
 566:Core/Src/MazeLib.c ****             if(j < NUMBER_OF_SQUARES_Y-1)
 2377              		.loc 1 566 13 is_stmt 1 view .LVU695
 566:Core/Src/MazeLib.c ****             if(j < NUMBER_OF_SQUARES_Y-1)
 2378              		.loc 1 566 41 is_stmt 0 view .LVU696
 2379 0030 631C     		adds	r3, r4, #1
 566:Core/Src/MazeLib.c ****             if(j < NUMBER_OF_SQUARES_Y-1)
 2380              		.loc 1 566 47 view .LVU697
 2381 0032 06EB0313 		add	r3, r6, r3, lsl #4
 2382 0036 03F58873 		add	r3, r3, #272
 2383 003a 05EBC303 		add	r3, r5, r3, lsl #3
 566:Core/Src/MazeLib.c ****             if(j < NUMBER_OF_SQUARES_Y-1)
ARM GAS  /var/folders/v_/kwz_t0cs68g1q1d733r227b80000gn/T//cc7enlx9.s 			page 66


 2384              		.loc 1 566 13 view .LVU698
 2385 003e 1979     		ldrb	r1, [r3, #4]	@ zero_extendqisi2
 2386 0040 0C48     		ldr	r0, .L168+8
 2387 0042 FFF7FEFF 		bl	printf
 2388              	.LVL182:
 567:Core/Src/MazeLib.c ****                 printf(",");
 2389              		.loc 1 567 13 is_stmt 1 view .LVU699
 567:Core/Src/MazeLib.c ****                 printf(",");
 2390              		.loc 1 567 15 is_stmt 0 view .LVU700
 2391 0046 0E2E     		cmp	r6, #14
 2392 0048 EFDC     		bgt	.L161
 568:Core/Src/MazeLib.c ****         }
 2393              		.loc 1 568 17 is_stmt 1 view .LVU701
 2394 004a 2C20     		movs	r0, #44
 2395 004c FFF7FEFF 		bl	putchar
 2396              	.LVL183:
 2397 0050 EBE7     		b	.L161
 2398              	.L166:
 568:Core/Src/MazeLib.c ****         }
 2399              		.loc 1 568 17 is_stmt 0 view .LVU702
 2400              	.LBE26:
 570:Core/Src/MazeLib.c ****     }
 2401              		.loc 1 570 9 is_stmt 1 discriminator 2 view .LVU703
 2402 0052 0948     		ldr	r0, .L168+12
 2403 0054 FFF7FEFF 		bl	puts
 2404              	.LVL184:
 558:Core/Src/MazeLib.c ****     {
 2405              		.loc 1 558 43 discriminator 2 view .LVU704
 558:Core/Src/MazeLib.c ****     {
 2406              		.loc 1 558 44 is_stmt 0 discriminator 2 view .LVU705
 2407 0058 0134     		adds	r4, r4, #1
 2408              	.LVL185:
 2409              	.L158:
 558:Core/Src/MazeLib.c ****     {
 2410              		.loc 1 558 18 is_stmt 1 discriminator 1 view .LVU706
 558:Core/Src/MazeLib.c ****     {
 2411              		.loc 1 558 5 is_stmt 0 discriminator 1 view .LVU707
 2412 005a 0F2C     		cmp	r4, #15
 2413 005c 01DC     		bgt	.L167
 2414              	.LBB27:
 560:Core/Src/MazeLib.c ****         {
 2415              		.loc 1 560 17 view .LVU708
 2416 005e 0126     		movs	r6, #1
 2417 0060 DFE7     		b	.L163
 2418              	.L167:
 2419              	.LBE27:
 2420              	.LBE24:
 572:Core/Src/MazeLib.c **** }
 2421              		.loc 1 572 5 is_stmt 1 view .LVU709
 2422 0062 0548     		ldr	r0, .L168+12
 2423 0064 FFF7FEFF 		bl	puts
 2424              	.LVL186:
 573:Core/Src/MazeLib.c **** void printAllNodeExistence(maze_node *mn)
 2425              		.loc 1 573 1 is_stmt 0 view .LVU710
 2426 0068 70BD     		pop	{r4, r5, r6, pc}
 2427              	.LVL187:
 2428              	.L169:
ARM GAS  /var/folders/v_/kwz_t0cs68g1q1d733r227b80000gn/T//cc7enlx9.s 			page 67


 573:Core/Src/MazeLib.c **** void printAllNodeExistence(maze_node *mn)
 2429              		.loc 1 573 1 view .LVU711
 2430 006a 00BF     		.align	2
 2431              	.L168:
 2432 006c 00000000 		.word	.LC10
 2433 0070 10000000 		.word	.LC11
 2434 0074 14000000 		.word	.LC12
 2435 0078 3C000000 		.word	.LC6
 2436              		.cfi_endproc
 2437              	.LFE17:
 2439              		.section	.rodata.printAllNodeExistence.str1.4,"aMS",%progbits,1
 2440              		.align	2
 2441              	.LC13:
 2442 0000 E585A8E3 		.ascii	"\345\205\250\343\203\216\343\203\274\343\203\211\343"
 2442      838EE383 
 2442      BCE38389 
 2442      E3
 2443 000d 81AEE5A3 		.ascii	"\201\256\345\243\201\343\201\256\345\255\230\345\234"
 2443      81E381AE 
 2443      E5AD98E5 
 2443      9C
 2444 001a A80D00   		.ascii	"\250\015\000"
 2445              		.section	.text.printAllNodeExistence,"ax",%progbits
 2446              		.align	1
 2447              		.global	printAllNodeExistence
 2448              		.syntax unified
 2449              		.thumb
 2450              		.thumb_func
 2451              		.fpu fpv4-sp-d16
 2453              	printAllNodeExistence:
 2454              	.LVL188:
 2455              	.LFB18:
 575:Core/Src/MazeLib.c ****     printf("å…¨ãƒãƒ¼ãƒ‰ã®å£ã®å­˜åœ¨\r\n");
 2456              		.loc 1 575 1 is_stmt 1 view -0
 2457              		.cfi_startproc
 2458              		@ args = 0, pretend = 0, frame = 0
 2459              		@ frame_needed = 0, uses_anonymous_args = 0
 575:Core/Src/MazeLib.c ****     printf("å…¨ãƒãƒ¼ãƒ‰ã®å£ã®å­˜åœ¨\r\n");
 2460              		.loc 1 575 1 is_stmt 0 view .LVU713
 2461 0000 70B5     		push	{r4, r5, r6, lr}
 2462              	.LCFI13:
 2463              		.cfi_def_cfa_offset 16
 2464              		.cfi_offset 4, -16
 2465              		.cfi_offset 5, -12
 2466              		.cfi_offset 6, -8
 2467              		.cfi_offset 14, -4
 2468 0002 0646     		mov	r6, r0
 576:Core/Src/MazeLib.c ****     //é–“é•ã£ã¦ã‚‹ã‹ã‚‚
 2469              		.loc 1 576 5 is_stmt 1 view .LVU714
 2470 0004 1848     		ldr	r0, .L181
 2471              	.LVL189:
 576:Core/Src/MazeLib.c ****     //é–“é•ã£ã¦ã‚‹ã‹ã‚‚
 2472              		.loc 1 576 5 is_stmt 0 view .LVU715
 2473 0006 FFF7FEFF 		bl	puts
 2474              	.LVL190:
 583:Core/Src/MazeLib.c ****     {
 2475              		.loc 1 583 5 is_stmt 1 view .LVU716
ARM GAS  /var/folders/v_/kwz_t0cs68g1q1d733r227b80000gn/T//cc7enlx9.s 			page 68


 2476              	.LBB28:
 583:Core/Src/MazeLib.c ****     {
 2477              		.loc 1 583 9 view .LVU717
 583:Core/Src/MazeLib.c ****     {
 2478              		.loc 1 583 13 is_stmt 0 view .LVU718
 2479 000a 0025     		movs	r5, #0
 583:Core/Src/MazeLib.c ****     {
 2480              		.loc 1 583 5 view .LVU719
 2481 000c 23E0     		b	.L171
 2482              	.LVL191:
 2483              	.L172:
 2484              	.LBB29:
 587:Core/Src/MazeLib.c ****         }
 2485              		.loc 1 587 13 is_stmt 1 discriminator 3 view .LVU720
 587:Core/Src/MazeLib.c ****         }
 2486              		.loc 1 587 43 is_stmt 0 discriminator 3 view .LVU721
 2487 000e 05EB0513 		add	r3, r5, r5, lsl #4
 2488 0012 2344     		add	r3, r3, r4
 587:Core/Src/MazeLib.c ****         }
 2489              		.loc 1 587 13 discriminator 3 view .LVU722
 2490 0014 16F83310 		ldrb	r1, [r6, r3, lsl #3]	@ zero_extendqisi2
 2491 0018 1448     		ldr	r0, .L181+4
 2492 001a FFF7FEFF 		bl	printf
 2493              	.LVL192:
 585:Core/Src/MazeLib.c ****         {
 2494              		.loc 1 585 49 is_stmt 1 discriminator 3 view .LVU723
 585:Core/Src/MazeLib.c ****         {
 2495              		.loc 1 585 50 is_stmt 0 discriminator 3 view .LVU724
 2496 001e 0134     		adds	r4, r4, #1
 2497              	.LVL193:
 2498              	.L176:
 585:Core/Src/MazeLib.c ****         {
 2499              		.loc 1 585 22 is_stmt 1 discriminator 1 view .LVU725
 585:Core/Src/MazeLib.c ****         {
 2500              		.loc 1 585 9 is_stmt 0 discriminator 1 view .LVU726
 2501 0020 102C     		cmp	r4, #16
 2502 0022 F4DD     		ble	.L172
 2503              	.LBE29:
 2504              	.LBB30:
 589:Core/Src/MazeLib.c ****         {
 2505              		.loc 1 589 17 view .LVU727
 2506 0024 0024     		movs	r4, #0
 2507              	.LVL194:
 589:Core/Src/MazeLib.c ****         {
 2508              		.loc 1 589 17 view .LVU728
 2509 0026 00E0     		b	.L173
 2510              	.LVL195:
 2511              	.L174:
 589:Core/Src/MazeLib.c ****         {
 2512              		.loc 1 589 47 is_stmt 1 discriminator 2 view .LVU729
 589:Core/Src/MazeLib.c ****         {
 2513              		.loc 1 589 48 is_stmt 0 discriminator 2 view .LVU730
 2514 0028 0134     		adds	r4, r4, #1
 2515              	.LVL196:
 2516              	.L173:
 589:Core/Src/MazeLib.c ****         {
 2517              		.loc 1 589 22 is_stmt 1 discriminator 1 view .LVU731
ARM GAS  /var/folders/v_/kwz_t0cs68g1q1d733r227b80000gn/T//cc7enlx9.s 			page 69


 589:Core/Src/MazeLib.c ****         {
 2518              		.loc 1 589 9 is_stmt 0 discriminator 1 view .LVU732
 2519 002a 0F2C     		cmp	r4, #15
 2520 002c 0FDC     		bgt	.L179
 591:Core/Src/MazeLib.c ****             if(j < NUMBER_OF_SQUARES_Y-1)
 2521              		.loc 1 591 13 is_stmt 1 view .LVU733
 591:Core/Src/MazeLib.c ****             if(j < NUMBER_OF_SQUARES_Y-1)
 2522              		.loc 1 591 41 is_stmt 0 view .LVU734
 2523 002e 6B1C     		adds	r3, r5, #1
 591:Core/Src/MazeLib.c ****             if(j < NUMBER_OF_SQUARES_Y-1)
 2524              		.loc 1 591 47 view .LVU735
 2525 0030 04EB0313 		add	r3, r4, r3, lsl #4
 2526 0034 03F58873 		add	r3, r3, #272
 591:Core/Src/MazeLib.c ****             if(j < NUMBER_OF_SQUARES_Y-1)
 2527              		.loc 1 591 13 view .LVU736
 2528 0038 16F83310 		ldrb	r1, [r6, r3, lsl #3]	@ zero_extendqisi2
 2529 003c 0C48     		ldr	r0, .L181+8
 2530 003e FFF7FEFF 		bl	printf
 2531              	.LVL197:
 592:Core/Src/MazeLib.c ****                 printf(",");
 2532              		.loc 1 592 13 is_stmt 1 view .LVU737
 592:Core/Src/MazeLib.c ****                 printf(",");
 2533              		.loc 1 592 15 is_stmt 0 view .LVU738
 2534 0042 0E2C     		cmp	r4, #14
 2535 0044 F0DC     		bgt	.L174
 593:Core/Src/MazeLib.c ****         }
 2536              		.loc 1 593 17 is_stmt 1 view .LVU739
 2537 0046 2C20     		movs	r0, #44
 2538 0048 FFF7FEFF 		bl	putchar
 2539              	.LVL198:
 2540 004c ECE7     		b	.L174
 2541              	.L179:
 593:Core/Src/MazeLib.c ****         }
 2542              		.loc 1 593 17 is_stmt 0 view .LVU740
 2543              	.LBE30:
 595:Core/Src/MazeLib.c ****     }
 2544              		.loc 1 595 9 is_stmt 1 discriminator 2 view .LVU741
 2545 004e 0948     		ldr	r0, .L181+12
 2546 0050 FFF7FEFF 		bl	puts
 2547              	.LVL199:
 583:Core/Src/MazeLib.c ****     {
 2548              		.loc 1 583 43 discriminator 2 view .LVU742
 583:Core/Src/MazeLib.c ****     {
 2549              		.loc 1 583 44 is_stmt 0 discriminator 2 view .LVU743
 2550 0054 0135     		adds	r5, r5, #1
 2551              	.LVL200:
 2552              	.L171:
 583:Core/Src/MazeLib.c ****     {
 2553              		.loc 1 583 18 is_stmt 1 discriminator 1 view .LVU744
 583:Core/Src/MazeLib.c ****     {
 2554              		.loc 1 583 5 is_stmt 0 discriminator 1 view .LVU745
 2555 0056 0F2D     		cmp	r5, #15
 2556 0058 01DC     		bgt	.L180
 2557              	.LBB31:
 585:Core/Src/MazeLib.c ****         {
 2558              		.loc 1 585 17 view .LVU746
 2559 005a 0124     		movs	r4, #1
ARM GAS  /var/folders/v_/kwz_t0cs68g1q1d733r227b80000gn/T//cc7enlx9.s 			page 70


 2560 005c E0E7     		b	.L176
 2561              	.L180:
 2562              	.LBE31:
 2563              	.LBE28:
 597:Core/Src/MazeLib.c **** }
 2564              		.loc 1 597 5 is_stmt 1 view .LVU747
 2565 005e 0548     		ldr	r0, .L181+12
 2566 0060 FFF7FEFF 		bl	puts
 2567              	.LVL201:
 598:Core/Src/MazeLib.c **** 
 2568              		.loc 1 598 1 is_stmt 0 view .LVU748
 2569 0064 70BD     		pop	{r4, r5, r6, pc}
 2570              	.LVL202:
 2571              	.L182:
 598:Core/Src/MazeLib.c **** 
 2572              		.loc 1 598 1 view .LVU749
 2573 0066 00BF     		.align	2
 2574              	.L181:
 2575 0068 00000000 		.word	.LC13
 2576 006c 10000000 		.word	.LC11
 2577 0070 14000000 		.word	.LC12
 2578 0074 3C000000 		.word	.LC6
 2579              		.cfi_endproc
 2580              	.LFE18:
 2582              		.section	.rodata.outputDataToFile.str1.4,"aMS",%progbits,1
 2583              		.align	2
 2584              	.LC15:
 2585 0000 7700     		.ascii	"w\000"
 2586 0002 0000     		.align	2
 2587              	.LC16:
 2588 0004 25732066 		.ascii	"%s file not open!\012\000"
 2588      696C6520 
 2588      6E6F7420 
 2588      6F70656E 
 2588      210A00
 2589 0017 00       		.align	2
 2590              	.LC17:
 2591 0018 25732066 		.ascii	"%s file opened!\012\000"
 2591      696C6520 
 2591      6F70656E 
 2591      6564210A 
 2591      00
 2592 0029 000000   		.align	2
 2593              	.LC18:
 2594 002c 20474747 		.ascii	" GGG \000"
 2594      2000
 2595 0032 0000     		.align	2
 2596              	.LC19:
 2597 0034 0D0A00   		.ascii	"\015\012\000"
 2598 0037 00       		.align	2
 2599              	.LC14:
 2600 0038 77656967 		.ascii	"weight.txt\000"
 2600      68742E74 
 2600      787400
 2601              		.section	.text.outputDataToFile,"ax",%progbits
 2602              		.align	1
 2603              		.global	outputDataToFile
ARM GAS  /var/folders/v_/kwz_t0cs68g1q1d733r227b80000gn/T//cc7enlx9.s 			page 71


 2604              		.syntax unified
 2605              		.thumb
 2606              		.thumb_func
 2607              		.fpu fpv4-sp-d16
 2609              	outputDataToFile:
 2610              	.LVL203:
 2611              	.LFB19:
 601:Core/Src/MazeLib.c ****     char weight_file[] = "weight.txt";
 2612              		.loc 1 601 1 is_stmt 1 view -0
 2613              		.cfi_startproc
 2614              		@ args = 0, pretend = 0, frame = 16
 2615              		@ frame_needed = 0, uses_anonymous_args = 0
 601:Core/Src/MazeLib.c ****     char weight_file[] = "weight.txt";
 2616              		.loc 1 601 1 is_stmt 0 view .LVU751
 2617 0000 F0B5     		push	{r4, r5, r6, r7, lr}
 2618              	.LCFI14:
 2619              		.cfi_def_cfa_offset 20
 2620              		.cfi_offset 4, -20
 2621              		.cfi_offset 5, -16
 2622              		.cfi_offset 6, -12
 2623              		.cfi_offset 7, -8
 2624              		.cfi_offset 14, -4
 2625 0002 85B0     		sub	sp, sp, #20
 2626              	.LCFI15:
 2627              		.cfi_def_cfa_offset 40
 2628 0004 0746     		mov	r7, r0
 602:Core/Src/MazeLib.c ****     FILE*fp;
 2629              		.loc 1 602 5 is_stmt 1 view .LVU752
 602:Core/Src/MazeLib.c ****     FILE*fp;
 2630              		.loc 1 602 10 is_stmt 0 view .LVU753
 2631 0006 524A     		ldr	r2, .L207
 2632 0008 01AB     		add	r3, sp, #4
 2633 000a 07CA     		ldm	r2, {r0, r1, r2}
 2634              	.LVL204:
 602:Core/Src/MazeLib.c ****     FILE*fp;
 2635              		.loc 1 602 10 view .LVU754
 2636 000c 03C3     		stmia	r3!, {r0, r1}
 2637 000e 23F8022B 		strh	r2, [r3], #2	@ movhi
 2638 0012 120C     		lsrs	r2, r2, #16
 2639 0014 1A70     		strb	r2, [r3]
 603:Core/Src/MazeLib.c ****     fp = fopen(weight_file,"w");
 2640              		.loc 1 603 5 is_stmt 1 view .LVU755
 604:Core/Src/MazeLib.c ****     if(fp == NULL) {
 2641              		.loc 1 604 5 view .LVU756
 604:Core/Src/MazeLib.c ****     if(fp == NULL) {
 2642              		.loc 1 604 10 is_stmt 0 view .LVU757
 2643 0016 4F49     		ldr	r1, .L207+4
 2644 0018 01A8     		add	r0, sp, #4
 2645 001a FFF7FEFF 		bl	fopen
 2646              	.LVL205:
 605:Core/Src/MazeLib.c **** 		printf("%s file not open!\n", weight_file);
 2647              		.loc 1 605 5 is_stmt 1 view .LVU758
 605:Core/Src/MazeLib.c **** 		printf("%s file not open!\n", weight_file);
 2648              		.loc 1 605 7 is_stmt 0 view .LVU759
 2649 001e 30B1     		cbz	r0, .L202
 2650 0020 0546     		mov	r5, r0
 609:Core/Src/MazeLib.c **** 	}
ARM GAS  /var/folders/v_/kwz_t0cs68g1q1d733r227b80000gn/T//cc7enlx9.s 			page 72


 2651              		.loc 1 609 3 is_stmt 1 view .LVU760
 2652 0022 01A9     		add	r1, sp, #4
 2653 0024 4C48     		ldr	r0, .L207+8
 2654              	.LVL206:
 609:Core/Src/MazeLib.c **** 	}
 2655              		.loc 1 609 3 is_stmt 0 view .LVU761
 2656 0026 FFF7FEFF 		bl	printf
 2657              	.LVL207:
 612:Core/Src/MazeLib.c ****     {
 2658              		.loc 1 612 5 is_stmt 1 view .LVU762
 2659              	.LBB32:
 612:Core/Src/MazeLib.c ****     {
 2660              		.loc 1 612 9 view .LVU763
 612:Core/Src/MazeLib.c ****     {
 2661              		.loc 1 612 13 is_stmt 0 view .LVU764
 2662 002a 1026     		movs	r6, #16
 612:Core/Src/MazeLib.c ****     {
 2663              		.loc 1 612 5 view .LVU765
 2664 002c 5DE0     		b	.L186
 2665              	.LVL208:
 2666              	.L202:
 612:Core/Src/MazeLib.c ****     {
 2667              		.loc 1 612 5 view .LVU766
 2668              	.LBE32:
 606:Core/Src/MazeLib.c **** 		return false;
 2669              		.loc 1 606 3 is_stmt 1 view .LVU767
 2670 002e 01A9     		add	r1, sp, #4
 2671 0030 4A48     		ldr	r0, .L207+12
 2672              	.LVL209:
 606:Core/Src/MazeLib.c **** 		return false;
 2673              		.loc 1 606 3 is_stmt 0 view .LVU768
 2674 0032 FFF7FEFF 		bl	printf
 2675              	.LVL210:
 607:Core/Src/MazeLib.c **** 	} else {
 2676              		.loc 1 607 3 is_stmt 1 view .LVU769
 607:Core/Src/MazeLib.c **** 	} else {
 2677              		.loc 1 607 10 is_stmt 0 view .LVU770
 2678 0036 0020     		movs	r0, #0
 2679 0038 88E0     		b	.L185
 2680              	.LVL211:
 2681              	.L188:
 2682              	.LBB36:
 2683              	.LBB33:
 624:Core/Src/MazeLib.c ****             }
 2684              		.loc 1 624 17 is_stmt 1 view .LVU771
 624:Core/Src/MazeLib.c ****             }
 2685              		.loc 1 624 55 is_stmt 0 view .LVU772
 2686 003a 04EB0413 		add	r3, r4, r4, lsl #4
 2687 003e 3344     		add	r3, r3, r6
 2688 0040 07EBC303 		add	r3, r7, r3, lsl #3
 624:Core/Src/MazeLib.c ****             }
 2689              		.loc 1 624 17 view .LVU773
 2690 0044 5A88     		ldrh	r2, [r3, #2]
 2691 0046 4649     		ldr	r1, .L207+16
 2692 0048 2846     		mov	r0, r5
 2693 004a FFF7FEFF 		bl	fprintf
 2694              	.LVL212:
ARM GAS  /var/folders/v_/kwz_t0cs68g1q1d733r227b80000gn/T//cc7enlx9.s 			page 73


 2695              	.L189:
 626:Core/Src/MazeLib.c ****                 fprintf(fp,"     ");
 2696              		.loc 1 626 13 is_stmt 1 view .LVU774
 626:Core/Src/MazeLib.c ****                 fprintf(fp,"     ");
 2697              		.loc 1 626 15 is_stmt 0 view .LVU775
 2698 004e 0E2C     		cmp	r4, #14
 2699 0050 05DC     		bgt	.L190
 627:Core/Src/MazeLib.c ****         }
 2700              		.loc 1 627 17 is_stmt 1 view .LVU776
 2701 0052 2B46     		mov	r3, r5
 2702 0054 0522     		movs	r2, #5
 2703 0056 0121     		movs	r1, #1
 2704 0058 4248     		ldr	r0, .L207+20
 2705 005a FFF7FEFF 		bl	fwrite
 2706              	.LVL213:
 2707              	.L190:
 616:Core/Src/MazeLib.c ****         {
 2708              		.loc 1 616 47 discriminator 2 view .LVU777
 616:Core/Src/MazeLib.c ****         {
 2709              		.loc 1 616 48 is_stmt 0 discriminator 2 view .LVU778
 2710 005e 0134     		adds	r4, r4, #1
 2711              	.LVL214:
 2712              	.L187:
 616:Core/Src/MazeLib.c ****         {
 2713              		.loc 1 616 22 is_stmt 1 discriminator 1 view .LVU779
 616:Core/Src/MazeLib.c ****         {
 2714              		.loc 1 616 9 is_stmt 0 discriminator 1 view .LVU780
 2715 0060 0F2C     		cmp	r4, #15
 2716 0062 0DDC     		bgt	.L203
 618:Core/Src/MazeLib.c ****             {
 2717              		.loc 1 618 13 is_stmt 1 view .LVU781
 618:Core/Src/MazeLib.c ****             {
 2718              		.loc 1 618 16 is_stmt 0 view .LVU782
 2719 0064 F2B2     		uxtb	r2, r6
 2720 0066 E1B2     		uxtb	r1, r4
 2721 0068 3846     		mov	r0, r7
 2722 006a FFF7FEFF 		bl	judgeRawNodeGoal
 2723              	.LVL215:
 618:Core/Src/MazeLib.c ****             {
 2724              		.loc 1 618 15 view .LVU783
 2725 006e 0028     		cmp	r0, #0
 2726 0070 E3D0     		beq	.L188
 620:Core/Src/MazeLib.c ****             }
 2727              		.loc 1 620 17 is_stmt 1 view .LVU784
 2728 0072 2B46     		mov	r3, r5
 2729 0074 0522     		movs	r2, #5
 2730 0076 0121     		movs	r1, #1
 2731 0078 3B48     		ldr	r0, .L207+24
 2732 007a FFF7FEFF 		bl	fwrite
 2733              	.LVL216:
 2734 007e E6E7     		b	.L189
 2735              	.L203:
 620:Core/Src/MazeLib.c ****             }
 2736              		.loc 1 620 17 is_stmt 0 view .LVU785
 2737              	.LBE33:
 629:Core/Src/MazeLib.c ****                 
 2738              		.loc 1 629 9 is_stmt 1 view .LVU786
ARM GAS  /var/folders/v_/kwz_t0cs68g1q1d733r227b80000gn/T//cc7enlx9.s 			page 74


 2739 0080 2B46     		mov	r3, r5
 2740 0082 0222     		movs	r2, #2
 2741 0084 0121     		movs	r1, #1
 2742 0086 3948     		ldr	r0, .L207+28
 2743 0088 FFF7FEFF 		bl	fwrite
 2744              	.LVL217:
 632:Core/Src/MazeLib.c ****         {
 2745              		.loc 1 632 9 view .LVU787
 2746              	.LBB34:
 632:Core/Src/MazeLib.c ****         {
 2747              		.loc 1 632 13 view .LVU788
 632:Core/Src/MazeLib.c ****         {
 2748              		.loc 1 632 17 is_stmt 0 view .LVU789
 2749 008c 0024     		movs	r4, #0
 2750              	.LVL218:
 632:Core/Src/MazeLib.c ****         {
 2751              		.loc 1 632 9 view .LVU790
 2752 008e 14E0     		b	.L192
 2753              	.LVL219:
 2754              	.L193:
 640:Core/Src/MazeLib.c ****             }
 2755              		.loc 1 640 17 is_stmt 1 view .LVU791
 640:Core/Src/MazeLib.c ****             }
 2756              		.loc 1 640 57 is_stmt 0 view .LVU792
 2757 0090 731E     		subs	r3, r6, #1
 640:Core/Src/MazeLib.c ****             }
 2758              		.loc 1 640 60 view .LVU793
 2759 0092 03EB0413 		add	r3, r3, r4, lsl #4
 2760 0096 03F58873 		add	r3, r3, #272
 2761 009a 07EBC303 		add	r3, r7, r3, lsl #3
 640:Core/Src/MazeLib.c ****             }
 2762              		.loc 1 640 17 view .LVU794
 2763 009e 5A88     		ldrh	r2, [r3, #2]
 2764 00a0 2F49     		ldr	r1, .L207+16
 2765 00a2 2846     		mov	r0, r5
 2766 00a4 FFF7FEFF 		bl	fprintf
 2767              	.LVL220:
 2768              	.L194:
 642:Core/Src/MazeLib.c ****                 fprintf(fp,"     ");
 2769              		.loc 1 642 13 is_stmt 1 view .LVU795
 642:Core/Src/MazeLib.c ****                 fprintf(fp,"     ");
 2770              		.loc 1 642 15 is_stmt 0 view .LVU796
 2771 00a8 0F2C     		cmp	r4, #15
 2772 00aa 05DC     		bgt	.L195
 643:Core/Src/MazeLib.c ****         }
 2773              		.loc 1 643 17 is_stmt 1 view .LVU797
 2774 00ac 2B46     		mov	r3, r5
 2775 00ae 0522     		movs	r2, #5
 2776 00b0 0121     		movs	r1, #1
 2777 00b2 2C48     		ldr	r0, .L207+20
 2778 00b4 FFF7FEFF 		bl	fwrite
 2779              	.LVL221:
 2780              	.L195:
 632:Core/Src/MazeLib.c ****         {
 2781              		.loc 1 632 49 discriminator 2 view .LVU798
 632:Core/Src/MazeLib.c ****         {
 2782              		.loc 1 632 50 is_stmt 0 discriminator 2 view .LVU799
ARM GAS  /var/folders/v_/kwz_t0cs68g1q1d733r227b80000gn/T//cc7enlx9.s 			page 75


 2783 00b8 0134     		adds	r4, r4, #1
 2784              	.LVL222:
 2785              	.L192:
 632:Core/Src/MazeLib.c ****         {
 2786              		.loc 1 632 22 is_stmt 1 discriminator 1 view .LVU800
 632:Core/Src/MazeLib.c ****         {
 2787              		.loc 1 632 9 is_stmt 0 discriminator 1 view .LVU801
 2788 00ba 102C     		cmp	r4, #16
 2789 00bc 0EDC     		bgt	.L204
 634:Core/Src/MazeLib.c ****             {
 2790              		.loc 1 634 13 is_stmt 1 view .LVU802
 634:Core/Src/MazeLib.c ****             {
 2791              		.loc 1 634 16 is_stmt 0 view .LVU803
 2792 00be 721E     		subs	r2, r6, #1
 2793 00c0 D2B2     		uxtb	r2, r2
 2794 00c2 E1B2     		uxtb	r1, r4
 2795 00c4 3846     		mov	r0, r7
 2796 00c6 FFF7FEFF 		bl	judgeColumnNodeGoal
 2797              	.LVL223:
 634:Core/Src/MazeLib.c ****             {
 2798              		.loc 1 634 15 view .LVU804
 2799 00ca 0028     		cmp	r0, #0
 2800 00cc E0D0     		beq	.L193
 636:Core/Src/MazeLib.c ****             }
 2801              		.loc 1 636 17 is_stmt 1 view .LVU805
 2802 00ce 2B46     		mov	r3, r5
 2803 00d0 0522     		movs	r2, #5
 2804 00d2 0121     		movs	r1, #1
 2805 00d4 2448     		ldr	r0, .L207+24
 2806 00d6 FFF7FEFF 		bl	fwrite
 2807              	.LVL224:
 2808 00da E5E7     		b	.L194
 2809              	.L204:
 636:Core/Src/MazeLib.c ****             }
 2810              		.loc 1 636 17 is_stmt 0 view .LVU806
 2811              	.LBE34:
 645:Core/Src/MazeLib.c ****     }
 2812              		.loc 1 645 9 is_stmt 1 discriminator 2 view .LVU807
 2813 00dc 2B46     		mov	r3, r5
 2814 00de 0222     		movs	r2, #2
 2815 00e0 0121     		movs	r1, #1
 2816 00e2 2248     		ldr	r0, .L207+28
 2817 00e4 FFF7FEFF 		bl	fwrite
 2818              	.LVL225:
 612:Core/Src/MazeLib.c ****     {
 2819              		.loc 1 612 43 discriminator 2 view .LVU808
 612:Core/Src/MazeLib.c ****     {
 2820              		.loc 1 612 44 is_stmt 0 discriminator 2 view .LVU809
 2821 00e8 013E     		subs	r6, r6, #1
 2822              	.LVL226:
 2823              	.L186:
 612:Core/Src/MazeLib.c ****     {
 2824              		.loc 1 612 36 is_stmt 1 discriminator 1 view .LVU810
 612:Core/Src/MazeLib.c ****     {
 2825              		.loc 1 612 5 is_stmt 0 discriminator 1 view .LVU811
 2826 00ea 002E     		cmp	r6, #0
 2827 00ec 07DD     		ble	.L205
ARM GAS  /var/folders/v_/kwz_t0cs68g1q1d733r227b80000gn/T//cc7enlx9.s 			page 76


 615:Core/Src/MazeLib.c ****         for(int x=0; x < NUMBER_OF_SQUARES_X; x++)
 2828              		.loc 1 615 9 is_stmt 1 view .LVU812
 2829 00ee 2B46     		mov	r3, r5
 2830 00f0 0522     		movs	r2, #5
 2831 00f2 0121     		movs	r1, #1
 2832 00f4 1B48     		ldr	r0, .L207+20
 2833 00f6 FFF7FEFF 		bl	fwrite
 2834              	.LVL227:
 616:Core/Src/MazeLib.c ****         {
 2835              		.loc 1 616 9 view .LVU813
 2836              	.LBB35:
 616:Core/Src/MazeLib.c ****         {
 2837              		.loc 1 616 13 view .LVU814
 616:Core/Src/MazeLib.c ****         {
 2838              		.loc 1 616 17 is_stmt 0 view .LVU815
 2839 00fa 0024     		movs	r4, #0
 616:Core/Src/MazeLib.c ****         {
 2840              		.loc 1 616 9 view .LVU816
 2841 00fc B0E7     		b	.L187
 2842              	.LVL228:
 2843              	.L205:
 616:Core/Src/MazeLib.c ****         {
 2844              		.loc 1 616 9 view .LVU817
 2845              	.LBE35:
 2846              	.LBE36:
 648:Core/Src/MazeLib.c ****     for(int x=0; x < NUMBER_OF_SQUARES_X; x++)
 2847              		.loc 1 648 5 is_stmt 1 view .LVU818
 2848 00fe 2B46     		mov	r3, r5
 2849 0100 0522     		movs	r2, #5
 2850 0102 0121     		movs	r1, #1
 2851 0104 1748     		ldr	r0, .L207+20
 2852 0106 FFF7FEFF 		bl	fwrite
 2853              	.LVL229:
 649:Core/Src/MazeLib.c ****     {
 2854              		.loc 1 649 5 view .LVU819
 2855              	.LBB37:
 649:Core/Src/MazeLib.c ****     {
 2856              		.loc 1 649 9 view .LVU820
 649:Core/Src/MazeLib.c ****     {
 2857              		.loc 1 649 13 is_stmt 0 view .LVU821
 2858 010a 0024     		movs	r4, #0
 649:Core/Src/MazeLib.c ****     {
 2859              		.loc 1 649 5 view .LVU822
 2860 010c 00E0     		b	.L198
 2861              	.LVL230:
 2862              	.L199:
 649:Core/Src/MazeLib.c ****     {
 2863              		.loc 1 649 43 is_stmt 1 discriminator 2 view .LVU823
 649:Core/Src/MazeLib.c ****     {
 2864              		.loc 1 649 44 is_stmt 0 discriminator 2 view .LVU824
 2865 010e 0134     		adds	r4, r4, #1
 2866              	.LVL231:
 2867              	.L198:
 649:Core/Src/MazeLib.c ****     {
 2868              		.loc 1 649 18 is_stmt 1 discriminator 1 view .LVU825
 649:Core/Src/MazeLib.c ****     {
 2869              		.loc 1 649 5 is_stmt 0 discriminator 1 view .LVU826
ARM GAS  /var/folders/v_/kwz_t0cs68g1q1d733r227b80000gn/T//cc7enlx9.s 			page 77


 2870 0110 0F2C     		cmp	r4, #15
 2871 0112 11DC     		bgt	.L206
 651:Core/Src/MazeLib.c ****         if(x < NUMBER_OF_SQUARES_X-1)
 2872              		.loc 1 651 9 is_stmt 1 view .LVU827
 651:Core/Src/MazeLib.c ****         if(x < NUMBER_OF_SQUARES_X-1)
 2873              		.loc 1 651 47 is_stmt 0 view .LVU828
 2874 0114 04EB0413 		add	r3, r4, r4, lsl #4
 2875 0118 07EBC303 		add	r3, r7, r3, lsl #3
 651:Core/Src/MazeLib.c ****         if(x < NUMBER_OF_SQUARES_X-1)
 2876              		.loc 1 651 9 view .LVU829
 2877 011c 5A88     		ldrh	r2, [r3, #2]
 2878 011e 1049     		ldr	r1, .L207+16
 2879 0120 2846     		mov	r0, r5
 2880 0122 FFF7FEFF 		bl	fprintf
 2881              	.LVL232:
 652:Core/Src/MazeLib.c ****                 fprintf(fp,"     ");
 2882              		.loc 1 652 9 is_stmt 1 view .LVU830
 652:Core/Src/MazeLib.c ****                 fprintf(fp,"     ");
 2883              		.loc 1 652 11 is_stmt 0 view .LVU831
 2884 0126 0E2C     		cmp	r4, #14
 2885 0128 F1DC     		bgt	.L199
 653:Core/Src/MazeLib.c ****     }
 2886              		.loc 1 653 17 is_stmt 1 view .LVU832
 2887 012a 2B46     		mov	r3, r5
 2888 012c 0522     		movs	r2, #5
 2889 012e 0121     		movs	r1, #1
 2890 0130 0C48     		ldr	r0, .L207+20
 2891 0132 FFF7FEFF 		bl	fwrite
 2892              	.LVL233:
 2893 0136 EAE7     		b	.L199
 2894              	.L206:
 653:Core/Src/MazeLib.c ****     }
 2895              		.loc 1 653 17 is_stmt 0 view .LVU833
 2896              	.LBE37:
 655:Core/Src/MazeLib.c ****     fclose(fp);
 2897              		.loc 1 655 5 is_stmt 1 view .LVU834
 2898 0138 2B46     		mov	r3, r5
 2899 013a 0222     		movs	r2, #2
 2900 013c 0121     		movs	r1, #1
 2901 013e 0B48     		ldr	r0, .L207+28
 2902 0140 FFF7FEFF 		bl	fwrite
 2903              	.LVL234:
 656:Core/Src/MazeLib.c ****     return true;
 2904              		.loc 1 656 5 view .LVU835
 2905 0144 2846     		mov	r0, r5
 2906 0146 FFF7FEFF 		bl	fclose
 2907              	.LVL235:
 657:Core/Src/MazeLib.c **** 
 2908              		.loc 1 657 5 view .LVU836
 657:Core/Src/MazeLib.c **** 
 2909              		.loc 1 657 12 is_stmt 0 view .LVU837
 2910 014a 0120     		movs	r0, #1
 2911              	.LVL236:
 2912              	.L185:
 659:Core/Src/MazeLib.c **** static uint8_t convertNodeTo16Value(maze_node *maze, int x, int y)
 2913              		.loc 1 659 1 view .LVU838
 2914 014c 05B0     		add	sp, sp, #20
ARM GAS  /var/folders/v_/kwz_t0cs68g1q1d733r227b80000gn/T//cc7enlx9.s 			page 78


 2915              	.LCFI16:
 2916              		.cfi_def_cfa_offset 20
 2917              		@ sp needed
 2918 014e F0BD     		pop	{r4, r5, r6, r7, pc}
 2919              	.LVL237:
 2920              	.L208:
 659:Core/Src/MazeLib.c **** static uint8_t convertNodeTo16Value(maze_node *maze, int x, int y)
 2921              		.loc 1 659 1 view .LVU839
 2922              		.align	2
 2923              	.L207:
 2924 0150 38000000 		.word	.LC14
 2925 0154 00000000 		.word	.LC15
 2926 0158 18000000 		.word	.LC17
 2927 015c 04000000 		.word	.LC16
 2928 0160 34000000 		.word	.LC5
 2929 0164 40000000 		.word	.LC7
 2930 0168 2C000000 		.word	.LC18
 2931 016c 34000000 		.word	.LC19
 2932              		.cfi_endproc
 2933              	.LFE19:
 2935              		.section	.rodata.printMatrix16ValueFromNode.str1.4,"aMS",%progbits,1
 2936              		.align	2
 2937              	.LC20:
 2938 0000 E6A99FE4 		.ascii	"\346\251\237\344\275\223\343\201\213\343\202\211Ter"
 2938      BD93E381 
 2938      8BE38289 
 2938      546572
 2939 000f 61546572 		.ascii	"aTerm\343\201\270\343\201\256\345\207\272\345\212\233"
 2939      6DE381B8 
 2939      E381AEE5 
 2939      87BAE58A 
 2939      9B
 2940 0020 E794A80D 		.ascii	"\347\224\250\015\000"
 2940      00
 2941              		.section	.text.printMatrix16ValueFromNode,"ax",%progbits
 2942              		.align	1
 2943              		.global	printMatrix16ValueFromNode
 2944              		.syntax unified
 2945              		.thumb
 2946              		.thumb_func
 2947              		.fpu fpv4-sp-d16
 2949              	printMatrix16ValueFromNode:
 2950              	.LVL238:
 2951              	.LFB21:
 671:Core/Src/MazeLib.c **** //æ©Ÿä½“ã‹ã‚‰TeraTermã§å‡ºåŠ›ã™ã‚‹ãŸã‚ã®é–¢æ•°
 672:Core/Src/MazeLib.c **** void printMatrix16ValueFromNode(maze_node *maze)
 673:Core/Src/MazeLib.c **** {
 2952              		.loc 1 673 1 is_stmt 1 view -0
 2953              		.cfi_startproc
 2954              		@ args = 0, pretend = 0, frame = 0
 2955              		@ frame_needed = 0, uses_anonymous_args = 0
 2956              		.loc 1 673 1 is_stmt 0 view .LVU841
 2957 0000 70B5     		push	{r4, r5, r6, lr}
 2958              	.LCFI17:
 2959              		.cfi_def_cfa_offset 16
 2960              		.cfi_offset 4, -16
 2961              		.cfi_offset 5, -12
ARM GAS  /var/folders/v_/kwz_t0cs68g1q1d733r227b80000gn/T//cc7enlx9.s 			page 79


 2962              		.cfi_offset 6, -8
 2963              		.cfi_offset 14, -4
 2964 0002 0646     		mov	r6, r0
 674:Core/Src/MazeLib.c ****     printf("æ©Ÿä½“ã‹ã‚‰TeraTermã¸ã®å‡ºåŠ›ç”¨\r\n");
 2965              		.loc 1 674 5 is_stmt 1 view .LVU842
 2966 0004 1148     		ldr	r0, .L218
 2967              	.LVL239:
 2968              		.loc 1 674 5 is_stmt 0 view .LVU843
 2969 0006 FFF7FEFF 		bl	puts
 2970              	.LVL240:
 675:Core/Src/MazeLib.c ****     for(int j=NUMBER_OF_SQUARES_Y-1; j >= 0; j--)
 2971              		.loc 1 675 5 is_stmt 1 view .LVU844
 2972              	.LBB38:
 2973              		.loc 1 675 9 view .LVU845
 2974              		.loc 1 675 13 is_stmt 0 view .LVU846
 2975 000a 0F25     		movs	r5, #15
 2976              		.loc 1 675 5 view .LVU847
 2977 000c 15E0     		b	.L210
 2978              	.LVL241:
 2979              	.L211:
 2980              	.LBB39:
 676:Core/Src/MazeLib.c ****     {
 677:Core/Src/MazeLib.c ****         for(int i=0; i < NUMBER_OF_SQUARES_X; i++)
 2981              		.loc 1 677 47 is_stmt 1 discriminator 2 view .LVU848
 2982              		.loc 1 677 48 is_stmt 0 discriminator 2 view .LVU849
 2983 000e 0134     		adds	r4, r4, #1
 2984              	.LVL242:
 2985              	.L213:
 2986              		.loc 1 677 22 is_stmt 1 discriminator 1 view .LVU850
 2987              		.loc 1 677 9 is_stmt 0 discriminator 1 view .LVU851
 2988 0010 0F2C     		cmp	r4, #15
 2989 0012 0EDC     		bgt	.L216
 678:Core/Src/MazeLib.c ****         {
 679:Core/Src/MazeLib.c ****             printf("%u",convertNodeTo16Value(maze, i,j));
 2990              		.loc 1 679 13 is_stmt 1 view .LVU852
 2991              		.loc 1 679 25 is_stmt 0 view .LVU853
 2992 0014 2A46     		mov	r2, r5
 2993 0016 2146     		mov	r1, r4
 2994 0018 3046     		mov	r0, r6
 2995 001a FFF7FEFF 		bl	convertNodeTo16Value
 2996              	.LVL243:
 2997 001e 0146     		mov	r1, r0
 2998              		.loc 1 679 13 view .LVU854
 2999 0020 0B48     		ldr	r0, .L218+4
 3000 0022 FFF7FEFF 		bl	printf
 3001              	.LVL244:
 680:Core/Src/MazeLib.c ****             if(i < NUMBER_OF_SQUARES_X-1)
 3002              		.loc 1 680 13 is_stmt 1 view .LVU855
 3003              		.loc 1 680 15 is_stmt 0 view .LVU856
 3004 0026 0E2C     		cmp	r4, #14
 3005 0028 F1DC     		bgt	.L211
 681:Core/Src/MazeLib.c ****                 printf(",");
 3006              		.loc 1 681 17 is_stmt 1 view .LVU857
 3007 002a 2C20     		movs	r0, #44
 3008 002c FFF7FEFF 		bl	putchar
 3009              	.LVL245:
 3010 0030 EDE7     		b	.L211
ARM GAS  /var/folders/v_/kwz_t0cs68g1q1d733r227b80000gn/T//cc7enlx9.s 			page 80


 3011              	.L216:
 3012              		.loc 1 681 17 is_stmt 0 view .LVU858
 3013              	.LBE39:
 682:Core/Src/MazeLib.c ****         }
 683:Core/Src/MazeLib.c ****         printf("\r\n");
 3014              		.loc 1 683 9 is_stmt 1 discriminator 2 view .LVU859
 3015 0032 0848     		ldr	r0, .L218+8
 3016 0034 FFF7FEFF 		bl	puts
 3017              	.LVL246:
 675:Core/Src/MazeLib.c ****     {
 3018              		.loc 1 675 46 discriminator 2 view .LVU860
 675:Core/Src/MazeLib.c ****     {
 3019              		.loc 1 675 47 is_stmt 0 discriminator 2 view .LVU861
 3020 0038 013D     		subs	r5, r5, #1
 3021              	.LVL247:
 3022              	.L210:
 675:Core/Src/MazeLib.c ****     {
 3023              		.loc 1 675 38 is_stmt 1 discriminator 1 view .LVU862
 675:Core/Src/MazeLib.c ****     {
 3024              		.loc 1 675 5 is_stmt 0 discriminator 1 view .LVU863
 3025 003a 002D     		cmp	r5, #0
 3026 003c 01DB     		blt	.L217
 3027              	.LBB40:
 677:Core/Src/MazeLib.c ****         {
 3028              		.loc 1 677 17 view .LVU864
 3029 003e 0024     		movs	r4, #0
 3030 0040 E6E7     		b	.L213
 3031              	.L217:
 3032              	.LBE40:
 3033              	.LBE38:
 684:Core/Src/MazeLib.c ****     }
 685:Core/Src/MazeLib.c ****     printf("\r\n");
 3034              		.loc 1 685 5 is_stmt 1 view .LVU865
 3035 0042 0448     		ldr	r0, .L218+8
 3036 0044 FFF7FEFF 		bl	puts
 3037              	.LVL248:
 686:Core/Src/MazeLib.c **** 
 687:Core/Src/MazeLib.c **** }
 3038              		.loc 1 687 1 is_stmt 0 view .LVU866
 3039 0048 70BD     		pop	{r4, r5, r6, pc}
 3040              	.LVL249:
 3041              	.L219:
 3042              		.loc 1 687 1 view .LVU867
 3043 004a 00BF     		.align	2
 3044              	.L218:
 3045 004c 00000000 		.word	.LC20
 3046 0050 14000000 		.word	.LC12
 3047 0054 3C000000 		.word	.LC6
 3048              		.cfi_endproc
 3049              	.LFE21:
 3051              		.section	.rodata.setNextPosition.str1.4,"aMS",%progbits,1
 3052              		.align	2
 3053              	.LC21:
 3054 0000 E696B9E8 		.ascii	"\346\226\271\350\247\222\343\203\237\343\202\271\015"
 3054      A792E383 
 3054      9FE382B9 
 3054      0D
ARM GAS  /var/folders/v_/kwz_t0cs68g1q1d733r227b80000gn/T//cc7enlx9.s 			page 81


 3055 000d 00       		.ascii	"\000"
 3056              		.section	.text.setNextPosition,"ax",%progbits
 3057              		.align	1
 3058              		.global	setNextPosition
 3059              		.syntax unified
 3060              		.thumb
 3061              		.thumb_func
 3062              		.fpu fpv4-sp-d16
 3064              	setNextPosition:
 3065              	.LVL250:
 3066              	.LFB22:
 688:Core/Src/MazeLib.c **** 
 689:Core/Src/MazeLib.c **** 
 690:Core/Src/MazeLib.c **** 
 691:Core/Src/MazeLib.c **** /* ----- æ¢ç´¢è€…ãƒ‡ãƒ¼ã‚¿ç®¡ç† ã“ã“ã‹ã‚‰----- */
 692:Core/Src/MazeLib.c **** void setNextPosition(state *st)
 693:Core/Src/MazeLib.c **** {
 3067              		.loc 1 693 1 is_stmt 1 view -0
 3068              		.cfi_startproc
 3069              		@ args = 0, pretend = 0, frame = 0
 3070              		@ frame_needed = 0, uses_anonymous_args = 0
 3071              		.loc 1 693 1 is_stmt 0 view .LVU869
 3072 0000 08B5     		push	{r3, lr}
 3073              	.LCFI18:
 3074              		.cfi_def_cfa_offset 8
 3075              		.cfi_offset 3, -8
 3076              		.cfi_offset 14, -4
 694:Core/Src/MazeLib.c ****     switch (st->car)
 3077              		.loc 1 694 5 is_stmt 1 view .LVU870
 3078              		.loc 1 694 15 is_stmt 0 view .LVU871
 3079 0002 8378     		ldrb	r3, [r0, #2]	@ zero_extendqisi2
 3080              		.loc 1 694 5 view .LVU872
 3081 0004 062B     		cmp	r3, #6
 3082 0006 1CD8     		bhi	.L221
 3083 0008 DFE803F0 		tbb	[pc, r3]
 3084              	.L223:
 3085 000c 04       		.byte	(.L227-.L223)/2
 3086 000d 08       		.byte	(.L226-.L223)/2
 3087 000e 0F       		.byte	(.L225-.L223)/2
 3088 000f 1B       		.byte	(.L221-.L223)/2
 3089 0010 13       		.byte	(.L224-.L223)/2
 3090 0011 1B       		.byte	(.L221-.L223)/2
 3091 0012 17       		.byte	(.L222-.L223)/2
 3092 0013 00       		.p2align 1
 3093              	.L227:
 695:Core/Src/MazeLib.c ****     {
 696:Core/Src/MazeLib.c ****     case north:
 697:Core/Src/MazeLib.c ****         st->pos.x += 0;
 3094              		.loc 1 697 9 is_stmt 1 view .LVU873
 698:Core/Src/MazeLib.c ****         st->pos.y += 1;
 3095              		.loc 1 698 9 view .LVU874
 3096              		.loc 1 698 19 is_stmt 0 view .LVU875
 3097 0014 4378     		ldrb	r3, [r0, #1]	@ zero_extendqisi2
 3098 0016 0133     		adds	r3, r3, #1
 3099 0018 4370     		strb	r3, [r0, #1]
 699:Core/Src/MazeLib.c ****         /* code */
 700:Core/Src/MazeLib.c ****         break;
ARM GAS  /var/folders/v_/kwz_t0cs68g1q1d733r227b80000gn/T//cc7enlx9.s 			page 82


 3100              		.loc 1 700 9 is_stmt 1 view .LVU876
 3101              	.LVL251:
 3102              	.L220:
 701:Core/Src/MazeLib.c ****     case ne: //æ–œã‚ã®ã¨ãã®åº§æ¨™ã®å¤‰æ›´æ¡ä»¶ã‚’ã†ã¾ãã‚„ã‚‹
 702:Core/Src/MazeLib.c ****         if(1);
 703:Core/Src/MazeLib.c ****         st->pos.x += 1;
 704:Core/Src/MazeLib.c ****         st->pos.y += 0;
 705:Core/Src/MazeLib.c ****         
 706:Core/Src/MazeLib.c ****         st->pos.x += 0;
 707:Core/Src/MazeLib.c ****         st->pos.y += 1;
 708:Core/Src/MazeLib.c ****         break;
 709:Core/Src/MazeLib.c ****     case east:
 710:Core/Src/MazeLib.c ****         st->pos.x += 1;
 711:Core/Src/MazeLib.c ****         st->pos.y += 0; 
 712:Core/Src/MazeLib.c ****         break;
 713:Core/Src/MazeLib.c ****     case south:
 714:Core/Src/MazeLib.c ****         st->pos.x += 0;
 715:Core/Src/MazeLib.c ****         st->pos.y += -1;  
 716:Core/Src/MazeLib.c ****         /* code */
 717:Core/Src/MazeLib.c ****         break;
 718:Core/Src/MazeLib.c ****     case west:
 719:Core/Src/MazeLib.c ****         st->pos.x += -1;
 720:Core/Src/MazeLib.c ****         st->pos.y += 0; 
 721:Core/Src/MazeLib.c ****         break;
 722:Core/Src/MazeLib.c ****     
 723:Core/Src/MazeLib.c ****     default:
 724:Core/Src/MazeLib.c ****         printf("æ–¹è§’ãƒŸã‚¹\r\n");
 725:Core/Src/MazeLib.c ****         break;
 726:Core/Src/MazeLib.c ****     }
 727:Core/Src/MazeLib.c **** }
 3103              		.loc 1 727 1 is_stmt 0 view .LVU877
 3104 001a 08BD     		pop	{r3, pc}
 3105              	.LVL252:
 3106              	.L226:
 702:Core/Src/MazeLib.c ****         st->pos.x += 1;
 3107              		.loc 1 702 9 is_stmt 1 view .LVU878
 703:Core/Src/MazeLib.c ****         st->pos.y += 0;
 3108              		.loc 1 703 9 view .LVU879
 703:Core/Src/MazeLib.c ****         st->pos.y += 0;
 3109              		.loc 1 703 19 is_stmt 0 view .LVU880
 3110 001c 0378     		ldrb	r3, [r0]	@ zero_extendqisi2
 3111 001e 0133     		adds	r3, r3, #1
 3112 0020 0370     		strb	r3, [r0]
 704:Core/Src/MazeLib.c ****         
 3113              		.loc 1 704 9 is_stmt 1 view .LVU881
 704:Core/Src/MazeLib.c ****         
 3114              		.loc 1 704 19 is_stmt 0 view .LVU882
 3115 0022 4378     		ldrb	r3, [r0, #1]	@ zero_extendqisi2
 706:Core/Src/MazeLib.c ****         st->pos.y += 1;
 3116              		.loc 1 706 9 is_stmt 1 view .LVU883
 707:Core/Src/MazeLib.c ****         break;
 3117              		.loc 1 707 9 view .LVU884
 707:Core/Src/MazeLib.c ****         break;
 3118              		.loc 1 707 19 is_stmt 0 view .LVU885
 3119 0024 0133     		adds	r3, r3, #1
 3120 0026 4370     		strb	r3, [r0, #1]
 708:Core/Src/MazeLib.c ****     case east:
ARM GAS  /var/folders/v_/kwz_t0cs68g1q1d733r227b80000gn/T//cc7enlx9.s 			page 83


 3121              		.loc 1 708 9 is_stmt 1 view .LVU886
 3122 0028 F7E7     		b	.L220
 3123              	.L225:
 710:Core/Src/MazeLib.c ****         st->pos.y += 0; 
 3124              		.loc 1 710 9 view .LVU887
 710:Core/Src/MazeLib.c ****         st->pos.y += 0; 
 3125              		.loc 1 710 19 is_stmt 0 view .LVU888
 3126 002a 0378     		ldrb	r3, [r0]	@ zero_extendqisi2
 3127 002c 0133     		adds	r3, r3, #1
 3128 002e 0370     		strb	r3, [r0]
 711:Core/Src/MazeLib.c ****         break;
 3129              		.loc 1 711 9 is_stmt 1 view .LVU889
 712:Core/Src/MazeLib.c ****     case south:
 3130              		.loc 1 712 9 view .LVU890
 3131 0030 F3E7     		b	.L220
 3132              	.L224:
 714:Core/Src/MazeLib.c ****         st->pos.y += -1;  
 3133              		.loc 1 714 9 view .LVU891
 715:Core/Src/MazeLib.c ****         /* code */
 3134              		.loc 1 715 9 view .LVU892
 715:Core/Src/MazeLib.c ****         /* code */
 3135              		.loc 1 715 19 is_stmt 0 view .LVU893
 3136 0032 4378     		ldrb	r3, [r0, #1]	@ zero_extendqisi2
 3137 0034 013B     		subs	r3, r3, #1
 3138 0036 4370     		strb	r3, [r0, #1]
 717:Core/Src/MazeLib.c ****     case west:
 3139              		.loc 1 717 9 is_stmt 1 view .LVU894
 3140 0038 EFE7     		b	.L220
 3141              	.L222:
 719:Core/Src/MazeLib.c ****         st->pos.y += 0; 
 3142              		.loc 1 719 9 view .LVU895
 719:Core/Src/MazeLib.c ****         st->pos.y += 0; 
 3143              		.loc 1 719 19 is_stmt 0 view .LVU896
 3144 003a 0378     		ldrb	r3, [r0]	@ zero_extendqisi2
 3145 003c 013B     		subs	r3, r3, #1
 3146 003e 0370     		strb	r3, [r0]
 720:Core/Src/MazeLib.c ****         break;
 3147              		.loc 1 720 9 is_stmt 1 view .LVU897
 721:Core/Src/MazeLib.c ****     
 3148              		.loc 1 721 9 view .LVU898
 3149 0040 EBE7     		b	.L220
 3150              	.L221:
 724:Core/Src/MazeLib.c ****         break;
 3151              		.loc 1 724 9 view .LVU899
 3152 0042 0248     		ldr	r0, .L230
 3153              	.LVL253:
 724:Core/Src/MazeLib.c ****         break;
 3154              		.loc 1 724 9 is_stmt 0 view .LVU900
 3155 0044 FFF7FEFF 		bl	puts
 3156              	.LVL254:
 725:Core/Src/MazeLib.c ****     }
 3157              		.loc 1 725 9 is_stmt 1 view .LVU901
 3158              		.loc 1 727 1 is_stmt 0 view .LVU902
 3159 0048 E7E7     		b	.L220
 3160              	.L231:
 3161 004a 00BF     		.align	2
 3162              	.L230:
ARM GAS  /var/folders/v_/kwz_t0cs68g1q1d733r227b80000gn/T//cc7enlx9.s 			page 84


 3163 004c 00000000 		.word	.LC21
 3164              		.cfi_endproc
 3165              	.LFE22:
 3167              		.section	.text.setPosition,"ax",%progbits
 3168              		.align	1
 3169              		.global	setPosition
 3170              		.syntax unified
 3171              		.thumb
 3172              		.thumb_func
 3173              		.fpu fpv4-sp-d16
 3175              	setPosition:
 3176              	.LVL255:
 3177              	.LFB23:
 728:Core/Src/MazeLib.c **** void setPosition(position *pos,uint8_t x, uint8_t y)
 729:Core/Src/MazeLib.c **** {
 3178              		.loc 1 729 1 is_stmt 1 view -0
 3179              		.cfi_startproc
 3180              		@ args = 0, pretend = 0, frame = 0
 3181              		@ frame_needed = 0, uses_anonymous_args = 0
 3182              		@ link register save eliminated.
 730:Core/Src/MazeLib.c ****     pos->x = x;
 3183              		.loc 1 730 5 view .LVU904
 3184              		.loc 1 730 12 is_stmt 0 view .LVU905
 3185 0000 0170     		strb	r1, [r0]
 731:Core/Src/MazeLib.c ****     pos->y = y;
 3186              		.loc 1 731 5 is_stmt 1 view .LVU906
 3187              		.loc 1 731 12 is_stmt 0 view .LVU907
 3188 0002 4270     		strb	r2, [r0, #1]
 732:Core/Src/MazeLib.c **** }
 3189              		.loc 1 732 1 view .LVU908
 3190 0004 7047     		bx	lr
 3191              		.cfi_endproc
 3192              	.LFE23:
 3194              		.section	.text.setGoal,"ax",%progbits
 3195              		.align	1
 3196              		.global	setGoal
 3197              		.syntax unified
 3198              		.thumb
 3199              		.thumb_func
 3200              		.fpu fpv4-sp-d16
 3202              	setGoal:
 3203              	.LVL256:
 3204              	.LFB24:
 733:Core/Src/MazeLib.c **** void setGoal(profile *prof, uint8_t x, uint8_t y)
 734:Core/Src/MazeLib.c **** {
 3205              		.loc 1 734 1 is_stmt 1 view -0
 3206              		.cfi_startproc
 3207              		@ args = 0, pretend = 0, frame = 0
 3208              		@ frame_needed = 0, uses_anonymous_args = 0
 3209              		.loc 1 734 1 is_stmt 0 view .LVU910
 3210 0000 70B5     		push	{r4, r5, r6, lr}
 3211              	.LCFI19:
 3212              		.cfi_def_cfa_offset 16
 3213              		.cfi_offset 4, -16
 3214              		.cfi_offset 5, -12
 3215              		.cfi_offset 6, -8
 3216              		.cfi_offset 14, -4
ARM GAS  /var/folders/v_/kwz_t0cs68g1q1d733r227b80000gn/T//cc7enlx9.s 			page 85


 3217 0002 0646     		mov	r6, r0
 3218 0004 0C46     		mov	r4, r1
 3219 0006 1546     		mov	r5, r2
 735:Core/Src/MazeLib.c ****     //å·¦ä¸‹ã®åº§æ¨™ã¨ã€ã‚´ãƒ¼ãƒ«ã‚µã‚¤ã‚ºã‹ã‚‰ã€å³ä¸Šã‚’æ±‚ã‚ã‚‹
 736:Core/Src/MazeLib.c ****     setPosition( &(prof->goal_lesser) , x, y );
 3220              		.loc 1 736 5 is_stmt 1 view .LVU911
 3221 0008 FFF7FEFF 		bl	setPosition
 3222              	.LVL257:
 737:Core/Src/MazeLib.c ****     setPosition( &(prof->goal_larger), x + GOAL_SIZE_X-1, y + GOAL_SIZE_Y-1 );
 3223              		.loc 1 737 5 view .LVU912
 3224 000c 6A1C     		adds	r2, r5, #1
 3225 000e 611C     		adds	r1, r4, #1
 3226 0010 D2B2     		uxtb	r2, r2
 3227 0012 C9B2     		uxtb	r1, r1
 3228 0014 B01C     		adds	r0, r6, #2
 3229 0016 FFF7FEFF 		bl	setPosition
 3230              	.LVL258:
 738:Core/Src/MazeLib.c **** }
 3231              		.loc 1 738 1 is_stmt 0 view .LVU913
 3232 001a 70BD     		pop	{r4, r5, r6, pc}
 3233              		.loc 1 738 1 view .LVU914
 3234              		.cfi_endproc
 3235              	.LFE24:
 3237              		.section	.text.setCardinal,"ax",%progbits
 3238              		.align	1
 3239              		.global	setCardinal
 3240              		.syntax unified
 3241              		.thumb
 3242              		.thumb_func
 3243              		.fpu fpv4-sp-d16
 3245              	setCardinal:
 3246              	.LVL259:
 3247              	.LFB25:
 739:Core/Src/MazeLib.c **** void setCardinal(state *st, cardinal car)
 740:Core/Src/MazeLib.c **** {
 3248              		.loc 1 740 1 is_stmt 1 view -0
 3249              		.cfi_startproc
 3250              		@ args = 0, pretend = 0, frame = 0
 3251              		@ frame_needed = 0, uses_anonymous_args = 0
 3252              		@ link register save eliminated.
 741:Core/Src/MazeLib.c ****     st->car = car;
 3253              		.loc 1 741 5 view .LVU916
 3254              		.loc 1 741 13 is_stmt 0 view .LVU917
 3255 0000 8170     		strb	r1, [r0, #2]
 742:Core/Src/MazeLib.c **** }
 3256              		.loc 1 742 1 view .LVU918
 3257 0002 7047     		bx	lr
 3258              		.cfi_endproc
 3259              	.LFE25:
 3261              		.section	.text.setWallExistence,"ax",%progbits
 3262              		.align	1
 3263              		.global	setWallExistence
 3264              		.syntax unified
 3265              		.thumb
 3266              		.thumb_func
 3267              		.fpu fpv4-sp-d16
 3269              	setWallExistence:
ARM GAS  /var/folders/v_/kwz_t0cs68g1q1d733r227b80000gn/T//cc7enlx9.s 			page 86


 3270              	.LVL260:
 3271              	.LFB26:
 743:Core/Src/MazeLib.c **** void setWallExistence(wall_existence *existence, wall_state *state)
 744:Core/Src/MazeLib.c **** {
 3272              		.loc 1 744 1 is_stmt 1 view -0
 3273              		.cfi_startproc
 3274              		@ args = 0, pretend = 0, frame = 0
 3275              		@ frame_needed = 0, uses_anonymous_args = 0
 3276              		@ link register save eliminated.
 745:Core/Src/MazeLib.c ****     //å˜ä½“ã§æ›¸ãè¾¼ã‚ã‚‹ãƒ¢ã‚¸ãƒ¥ãƒ¼ãƒ«ã¯é€†ã«é¢å€’
 746:Core/Src/MazeLib.c ****     //è‡ªåˆ†ã®æ–¹è§’ã«åˆã‚ã›ã¦æ›¸ãè¾¼ã¿å…ˆã‚’å¤‰ãˆã‚‹ã®ã¯åˆ¥ã®ã¨ã“ã‚ã§ã€‚
 747:Core/Src/MazeLib.c ****     existence->north = state[0];
 3277              		.loc 1 747 5 view .LVU920
 3278              		.loc 1 747 29 is_stmt 0 view .LVU921
 3279 0000 0A78     		ldrb	r2, [r1]	@ zero_extendqisi2
 3280              		.loc 1 747 22 view .LVU922
 3281 0002 0378     		ldrb	r3, [r0]	@ zero_extendqisi2
 3282 0004 62F30103 		bfi	r3, r2, #0, #2
 3283 0008 0370     		strb	r3, [r0]
 748:Core/Src/MazeLib.c ****     existence->east = state[1];
 3284              		.loc 1 748 5 is_stmt 1 view .LVU923
 3285              		.loc 1 748 28 is_stmt 0 view .LVU924
 3286 000a 4A78     		ldrb	r2, [r1, #1]	@ zero_extendqisi2
 3287              		.loc 1 748 21 view .LVU925
 3288 000c DBB2     		uxtb	r3, r3
 3289 000e 62F38303 		bfi	r3, r2, #2, #2
 3290 0012 0370     		strb	r3, [r0]
 749:Core/Src/MazeLib.c ****     existence->south = state[2];
 3291              		.loc 1 749 5 is_stmt 1 view .LVU926
 3292              		.loc 1 749 29 is_stmt 0 view .LVU927
 3293 0014 8A78     		ldrb	r2, [r1, #2]	@ zero_extendqisi2
 3294              		.loc 1 749 22 view .LVU928
 3295 0016 DBB2     		uxtb	r3, r3
 3296 0018 62F30513 		bfi	r3, r2, #4, #2
 3297 001c 0370     		strb	r3, [r0]
 750:Core/Src/MazeLib.c ****     existence->west = state[3];
 3298              		.loc 1 750 5 is_stmt 1 view .LVU929
 3299              		.loc 1 750 28 is_stmt 0 view .LVU930
 3300 001e CA78     		ldrb	r2, [r1, #3]	@ zero_extendqisi2
 3301              		.loc 1 750 21 view .LVU931
 3302 0020 DBB2     		uxtb	r3, r3
 3303 0022 62F38713 		bfi	r3, r2, #6, #2
 3304 0026 0370     		strb	r3, [r0]
 751:Core/Src/MazeLib.c **** }
 3305              		.loc 1 751 1 view .LVU932
 3306 0028 7047     		bx	lr
 3307              		.cfi_endproc
 3308              	.LFE26:
 3310              		.section	.rodata.initState.str1.4,"aMS",%progbits,1
 3311              		.align	2
 3312              	.LC22:
 3313 0000 25702C20 		.ascii	"%p, \000"
 3313      00
 3314 0005 000000   		.align	2
 3315              	.LC23:
 3316 0008 E381840D 		.ascii	"\343\201\204\015\000"
 3316      00
ARM GAS  /var/folders/v_/kwz_t0cs68g1q1d733r227b80000gn/T//cc7enlx9.s 			page 87


 3317              		.section	.text.initState,"ax",%progbits
 3318              		.align	1
 3319              		.global	initState
 3320              		.syntax unified
 3321              		.thumb
 3322              		.thumb_func
 3323              		.fpu fpv4-sp-d16
 3325              	initState:
 3326              	.LVL261:
 3327              	.LFB27:
 752:Core/Src/MazeLib.c **** 
 753:Core/Src/MazeLib.c **** //æ–œã‚æ–¹è§’ã§å£æƒ…å ±ã©ã†ã™ã‚‹ã‹.å£æƒ…å ±ã§ã¯æ–œã‚ä½¿ã‚ãªã„.å‘ãã ã‘
 754:Core/Src/MazeLib.c **** void initState(state *log_st, int n, node *nd)
 755:Core/Src/MazeLib.c **** {
 3328              		.loc 1 755 1 is_stmt 1 view -0
 3329              		.cfi_startproc
 3330              		@ args = 0, pretend = 0, frame = 0
 3331              		@ frame_needed = 0, uses_anonymous_args = 0
 3332              		.loc 1 755 1 is_stmt 0 view .LVU934
 3333 0000 F8B5     		push	{r3, r4, r5, r6, r7, lr}
 3334              	.LCFI20:
 3335              		.cfi_def_cfa_offset 24
 3336              		.cfi_offset 3, -24
 3337              		.cfi_offset 4, -20
 3338              		.cfi_offset 5, -16
 3339              		.cfi_offset 6, -12
 3340              		.cfi_offset 7, -8
 3341              		.cfi_offset 14, -4
 3342 0002 0746     		mov	r7, r0
 3343 0004 0C46     		mov	r4, r1
 3344 0006 1646     		mov	r6, r2
 756:Core/Src/MazeLib.c ****     for(int i=0; i < n; i++)
 3345              		.loc 1 756 5 is_stmt 1 view .LVU935
 3346              	.LBB41:
 3347              		.loc 1 756 9 view .LVU936
 3348              	.LVL262:
 3349              		.loc 1 756 13 is_stmt 0 view .LVU937
 3350 0008 0025     		movs	r5, #0
 3351              		.loc 1 756 5 view .LVU938
 3352 000a 09E0     		b	.L238
 3353              	.LVL263:
 3354              	.L239:
 757:Core/Src/MazeLib.c ****     {
 758:Core/Src/MazeLib.c ****         log_st[n].node = nd;
 3355              		.loc 1 758 9 is_stmt 1 discriminator 3 view .LVU939
 3356              		.loc 1 758 15 is_stmt 0 discriminator 3 view .LVU940
 3357 000c 04EB4403 		add	r3, r4, r4, lsl #1
 3358 0010 07EB8303 		add	r3, r7, r3, lsl #2
 3359              		.loc 1 758 24 discriminator 3 view .LVU941
 3360 0014 9E60     		str	r6, [r3, #8]
 759:Core/Src/MazeLib.c ****         printf("%p, ",log_st[n].node);
 3361              		.loc 1 759 9 is_stmt 1 discriminator 3 view .LVU942
 3362 0016 3146     		mov	r1, r6
 3363 0018 0448     		ldr	r0, .L241
 3364 001a FFF7FEFF 		bl	printf
 3365              	.LVL264:
 756:Core/Src/MazeLib.c ****     for(int i=0; i < n; i++)
ARM GAS  /var/folders/v_/kwz_t0cs68g1q1d733r227b80000gn/T//cc7enlx9.s 			page 88


 3366              		.loc 1 756 25 discriminator 3 view .LVU943
 756:Core/Src/MazeLib.c ****     for(int i=0; i < n; i++)
 3367              		.loc 1 756 26 is_stmt 0 discriminator 3 view .LVU944
 3368 001e 0135     		adds	r5, r5, #1
 3369              	.LVL265:
 3370              	.L238:
 756:Core/Src/MazeLib.c ****     for(int i=0; i < n; i++)
 3371              		.loc 1 756 18 is_stmt 1 discriminator 1 view .LVU945
 756:Core/Src/MazeLib.c ****     for(int i=0; i < n; i++)
 3372              		.loc 1 756 5 is_stmt 0 discriminator 1 view .LVU946
 3373 0020 A542     		cmp	r5, r4
 3374 0022 F3DB     		blt	.L239
 3375              	.LBE41:
 760:Core/Src/MazeLib.c ****         //æœ€çŸ­èµ°è¡Œæ™‚ã«é€šã£ãŸãƒãƒ¼ãƒ‰ã®xyã¨rawã‹columnã‹ã®æƒ…å ±ã‚’é…åˆ—ã«æ ¼ç´ã™
 761:Core/Src/MazeLib.c ****         //ãƒãƒ¼ãƒ‰ã®ã‚¢ãƒ‰ãƒ¬ã‚¹ã‚’ã©ã“ã‹æŒ‡å®šã—ãªã„ã¨ã„ã‘ãªã„
 762:Core/Src/MazeLib.c ****         // log_st[n].car = north;
 763:Core/Src/MazeLib.c ****         // log_st[n].pos.x = 0;
 764:Core/Src/MazeLib.c ****         // log_st[n].pos.y = 0;
 765:Core/Src/MazeLib.c **** 
 766:Core/Src/MazeLib.c ****         // log_st[n].wall.north = NOWALL;
 767:Core/Src/MazeLib.c ****         // log_st[n].wall.east = WALL;
 768:Core/Src/MazeLib.c ****         // log_st[n].wall.south = WALL;
 769:Core/Src/MazeLib.c ****         // log_st[n].wall.west = WALL;
 770:Core/Src/MazeLib.c ****     }
 771:Core/Src/MazeLib.c ****     printf("ã„\r\n");
 3376              		.loc 1 771 5 is_stmt 1 view .LVU947
 3377 0024 0248     		ldr	r0, .L241+4
 3378 0026 FFF7FEFF 		bl	puts
 3379              	.LVL266:
 772:Core/Src/MazeLib.c **** }
 3380              		.loc 1 772 1 is_stmt 0 view .LVU948
 3381 002a F8BD     		pop	{r3, r4, r5, r6, r7, pc}
 3382              	.LVL267:
 3383              	.L242:
 3384              		.loc 1 772 1 view .LVU949
 3385              		.align	2
 3386              	.L241:
 3387 002c 00000000 		.word	.LC22
 3388 0030 08000000 		.word	.LC23
 3389              		.cfi_endproc
 3390              	.LFE27:
 3392              		.section	.text.initProfile,"ax",%progbits
 3393              		.align	1
 3394              		.global	initProfile
 3395              		.syntax unified
 3396              		.thumb
 3397              		.thumb_func
 3398              		.fpu fpv4-sp-d16
 3400              	initProfile:
 3401              	.LVL268:
 3402              	.LFB28:
 773:Core/Src/MazeLib.c **** void initProfile(profile *prof, maze_node *maze)
 774:Core/Src/MazeLib.c **** {
 3403              		.loc 1 774 1 is_stmt 1 view -0
 3404              		.cfi_startproc
 3405              		@ args = 0, pretend = 0, frame = 8
 3406              		@ frame_needed = 0, uses_anonymous_args = 0
ARM GAS  /var/folders/v_/kwz_t0cs68g1q1d733r227b80000gn/T//cc7enlx9.s 			page 89


 3407              		.loc 1 774 1 is_stmt 0 view .LVU951
 3408 0000 F0B5     		push	{r4, r5, r6, r7, lr}
 3409              	.LCFI21:
 3410              		.cfi_def_cfa_offset 20
 3411              		.cfi_offset 4, -20
 3412              		.cfi_offset 5, -16
 3413              		.cfi_offset 6, -12
 3414              		.cfi_offset 7, -8
 3415              		.cfi_offset 14, -4
 3416 0002 83B0     		sub	sp, sp, #12
 3417              	.LCFI22:
 3418              		.cfi_def_cfa_offset 32
 3419 0004 0446     		mov	r4, r0
 3420 0006 0D46     		mov	r5, r1
 775:Core/Src/MazeLib.c ****     setGoal(prof, GOAL_X, GOAL_Y);
 3421              		.loc 1 775 5 is_stmt 1 view .LVU952
 3422 0008 0922     		movs	r2, #9
 3423 000a 1146     		mov	r1, r2
 3424              	.LVL269:
 3425              		.loc 1 775 5 is_stmt 0 view .LVU953
 3426 000c FFF7FEFF 		bl	setGoal
 3427              	.LVL270:
 776:Core/Src/MazeLib.c **** 
 777:Core/Src/MazeLib.c ****     setPosition(&(prof->now.pos), 0, 0);
 3428              		.loc 1 777 5 is_stmt 1 view .LVU954
 3429 0010 04F10806 		add	r6, r4, #8
 3430 0014 0022     		movs	r2, #0
 3431 0016 1146     		mov	r1, r2
 3432 0018 3046     		mov	r0, r6
 3433 001a FFF7FEFF 		bl	setPosition
 3434              	.LVL271:
 778:Core/Src/MazeLib.c ****     setCardinal(&(prof->now), north);
 3435              		.loc 1 778 5 view .LVU955
 3436 001e 0021     		movs	r1, #0
 3437 0020 3046     		mov	r0, r6
 3438 0022 FFF7FEFF 		bl	setCardinal
 3439              	.LVL272:
 779:Core/Src/MazeLib.c ****     prof->now.dir = front;
 3440              		.loc 1 779 5 view .LVU956
 3441              		.loc 1 779 19 is_stmt 0 view .LVU957
 3442 0026 0026     		movs	r6, #0
 3443 0028 E672     		strb	r6, [r4, #11]
 780:Core/Src/MazeLib.c **** 
 781:Core/Src/MazeLib.c ****     setPosition(&(prof->next.pos), 0, 1);
 3444              		.loc 1 781 5 is_stmt 1 view .LVU958
 3445 002a 04F11407 		add	r7, r4, #20
 3446 002e 0122     		movs	r2, #1
 3447 0030 3146     		mov	r1, r6
 3448 0032 3846     		mov	r0, r7
 3449 0034 FFF7FEFF 		bl	setPosition
 3450              	.LVL273:
 782:Core/Src/MazeLib.c ****     setCardinal(&(prof->next), north);
 3451              		.loc 1 782 5 view .LVU959
 3452 0038 3146     		mov	r1, r6
 3453 003a 3846     		mov	r0, r7
 3454 003c FFF7FEFF 		bl	setCardinal
 3455              	.LVL274:
ARM GAS  /var/folders/v_/kwz_t0cs68g1q1d733r227b80000gn/T//cc7enlx9.s 			page 90


 783:Core/Src/MazeLib.c ****     prof->next.dir = 1; //not use while running
 3456              		.loc 1 783 5 view .LVU960
 3457              		.loc 1 783 20 is_stmt 0 view .LVU961
 3458 0040 0123     		movs	r3, #1
 3459 0042 E375     		strb	r3, [r4, #23]
 784:Core/Src/MazeLib.c ****     //å£ã®ã‚»ãƒƒãƒˆ
 785:Core/Src/MazeLib.c ****     wall_state w_st[4]={
 3460              		.loc 1 785 5 is_stmt 1 view .LVU962
 3461              		.loc 1 785 16 is_stmt 0 view .LVU963
 3462 0044 094B     		ldr	r3, .L245
 3463 0046 1A68     		ldr	r2, [r3]
 3464 0048 0192     		str	r2, [sp, #4]
 786:Core/Src/MazeLib.c ****         NOWALL,
 787:Core/Src/MazeLib.c ****         WALL,
 788:Core/Src/MazeLib.c ****         WALL,
 789:Core/Src/MazeLib.c ****         WALL
 790:Core/Src/MazeLib.c ****     },
 791:Core/Src/MazeLib.c ****     next[4]={
 3465              		.loc 1 791 5 view .LVU964
 3466 004a 5B68     		ldr	r3, [r3, #4]
 3467 004c 0093     		str	r3, [sp]
 792:Core/Src/MazeLib.c ****         UNKNOWN,
 793:Core/Src/MazeLib.c ****         UNKNOWN,
 794:Core/Src/MazeLib.c ****         NOWALL,
 795:Core/Src/MazeLib.c ****         WALL
 796:Core/Src/MazeLib.c ****     };
 797:Core/Src/MazeLib.c ****     setWallExistence(&(prof->now.wall), &w_st[0]);
 3468              		.loc 1 797 5 is_stmt 1 view .LVU965
 3469 004e 01A9     		add	r1, sp, #4
 3470 0050 04F10C00 		add	r0, r4, #12
 3471 0054 FFF7FEFF 		bl	setWallExistence
 3472              	.LVL275:
 798:Core/Src/MazeLib.c ****     setWallExistence(&(prof->next.wall), &next[0]);
 3473              		.loc 1 798 5 view .LVU966
 3474 0058 6946     		mov	r1, sp
 3475 005a 04F11800 		add	r0, r4, #24
 3476 005e FFF7FEFF 		bl	setWallExistence
 3477              	.LVL276:
 799:Core/Src/MazeLib.c **** 
 800:Core/Src/MazeLib.c ****     prof->now.node = &(maze->RawNode[0][0]);
 3478              		.loc 1 800 5 view .LVU967
 3479              		.loc 1 800 20 is_stmt 0 view .LVU968
 3480 0062 2561     		str	r5, [r4, #16]
 801:Core/Src/MazeLib.c ****     prof->next.node = &(maze->RawNode[0][1]);
 3481              		.loc 1 801 5 is_stmt 1 view .LVU969
 3482              		.loc 1 801 23 is_stmt 0 view .LVU970
 3483 0064 0835     		adds	r5, r5, #8
 3484              	.LVL277:
 3485              		.loc 1 801 21 view .LVU971
 3486 0066 E561     		str	r5, [r4, #28]
 802:Core/Src/MazeLib.c ****     // prof->now.node->rc = 0;
 803:Core/Src/MazeLib.c ****     // prof->now.node->pos.x = 0;
 804:Core/Src/MazeLib.c ****     // prof->now.node->pos.y = 0;
 805:Core/Src/MazeLib.c **** }
 3487              		.loc 1 805 1 view .LVU972
 3488 0068 03B0     		add	sp, sp, #12
 3489              	.LCFI23:
ARM GAS  /var/folders/v_/kwz_t0cs68g1q1d733r227b80000gn/T//cc7enlx9.s 			page 91


 3490              		.cfi_def_cfa_offset 20
 3491              		@ sp needed
 3492 006a F0BD     		pop	{r4, r5, r6, r7, pc}
 3493              	.LVL278:
 3494              	.L246:
 3495              		.loc 1 805 1 view .LVU973
 3496              		.align	2
 3497              	.L245:
 3498 006c 00000000 		.word	.LANCHOR0
 3499              		.cfi_endproc
 3500              	.LFE28:
 3502              		.section	.text.shiftState,"ax",%progbits
 3503              		.align	1
 3504              		.global	shiftState
 3505              		.syntax unified
 3506              		.thumb
 3507              		.thumb_func
 3508              		.fpu fpv4-sp-d16
 3510              	shiftState:
 3511              	.LVL279:
 3512              	.LFB29:
 806:Core/Src/MazeLib.c **** void shiftState(profile *prof) //update
 807:Core/Src/MazeLib.c **** {
 3513              		.loc 1 807 1 is_stmt 1 view -0
 3514              		.cfi_startproc
 3515              		@ args = 0, pretend = 0, frame = 0
 3516              		@ frame_needed = 0, uses_anonymous_args = 0
 3517              		@ link register save eliminated.
 808:Core/Src/MazeLib.c **** //	prof->now.node->visit = true;
 809:Core/Src/MazeLib.c **** 
 810:Core/Src/MazeLib.c ****     prof->now.car = prof->next.car;
 3518              		.loc 1 810 5 view .LVU975
 3519              		.loc 1 810 31 is_stmt 0 view .LVU976
 3520 0000 837D     		ldrb	r3, [r0, #22]	@ zero_extendqisi2
 3521              		.loc 1 810 19 view .LVU977
 3522 0002 8372     		strb	r3, [r0, #10]
 811:Core/Src/MazeLib.c **** //    prof->now.dir = prof->next.dir;
 812:Core/Src/MazeLib.c ****     prof->now.pos = prof->next.pos;
 3523              		.loc 1 812 5 is_stmt 1 view .LVU978
 3524              		.loc 1 812 19 is_stmt 0 view .LVU979
 3525 0004 838A     		ldrh	r3, [r0, #20]
 3526 0006 0381     		strh	r3, [r0, #8]	@ movhi
 813:Core/Src/MazeLib.c ****     prof->now.node = prof->next.node;//ãƒã‚¤ãƒ³ã‚¿æ¸¡ã—
 3527              		.loc 1 813 5 is_stmt 1 view .LVU980
 3528              		.loc 1 813 32 is_stmt 0 view .LVU981
 3529 0008 C369     		ldr	r3, [r0, #28]
 3530              		.loc 1 813 20 view .LVU982
 3531 000a 0361     		str	r3, [r0, #16]
 814:Core/Src/MazeLib.c ****     prof->now.wall = prof->next.wall;
 3532              		.loc 1 814 5 is_stmt 1 view .LVU983
 3533              		.loc 1 814 20 is_stmt 0 view .LVU984
 3534 000c 037E     		ldrb	r3, [r0, #24]	@ zero_extendqisi2
 3535 000e 0373     		strb	r3, [r0, #12]
 815:Core/Src/MazeLib.c **** }
 3536              		.loc 1 815 1 view .LVU985
 3537 0010 7047     		bx	lr
 3538              		.cfi_endproc
ARM GAS  /var/folders/v_/kwz_t0cs68g1q1d733r227b80000gn/T//cc7enlx9.s 			page 92


 3539              	.LFE29:
 3541              		.section	.rodata.printState.str1.4,"aMS",%progbits,1
 3542              		.align	2
 3543              	.LC24:
 3544 0000 20202020 		.ascii	"    \345\272\247\346\250\231    :   %u, %u\015\012\000"
 3544      E5BAA7E6 
 3544      A8992020 
 3544      20203A20 
 3544      20202575 
 3545 001b 00       		.align	2
 3546              	.LC25:
 3547 001c 20202020 		.ascii	"    \346\226\271\350\247\222    :   %d\015\012\000"
 3547      E696B9E8 
 3547      A7922020 
 3547      20203A20 
 3547      20202564 
 3548 0033 00       		.align	2
 3549              	.LC26:
 3550 0034 20202020 		.ascii	"    \345\220\221\343\201\215    :   %d\015\012\000"
 3550      E59091E3 
 3550      818D2020 
 3550      20203A20 
 3550      20202564 
 3551 004b 00       		.align	2
 3552              	.LC27:
 3553 004c 20202020 		.ascii	"    \345\243\201      :   %u, %u, %u, %u\015\012\000"
 3553      E5A38120 
 3553      20202020 
 3553      203A2020 
 3553      2025752C 
 3554 006e 0000     		.align	2
 3555              	.LC28:
 3556 0070 20202020 		.ascii	"    \343\203\216\343\203\274\343\203\211 :   \350\241"
 3556      E3838EE3 
 3556      83BCE383 
 3556      89203A20 
 3556      2020E8A1 
 3557 0084 8C283029 		.ascii	"\214(0) or \345\210\227(1) : %d, \343\203\216\343\203"
 3557      206F7220 
 3557      E5889728 
 3557      3129203A 
 3557      2025642C 
 3558 009e BCE38389 		.ascii	"\274\343\203\211x : %u, \343\203\216\343\203\274\343"
 3558      78203A20 
 3558      25752C20 
 3558      E3838EE3 
 3558      83BCE3
 3559 00b1 83897920 		.ascii	"\203\211y : %u, \351\207\215\343\201\277 : %u, \345"
 3559      3A202575 
 3559      2C20E987 
 3559      8DE381BF 
 3559      203A2025 
 3560 00c9 A381E381 		.ascii	"\243\201\343\201\256\347\212\266\346\205\213 : %u\015"
 3560      AEE78AB6 
 3560      E6858B20 
 3560      3A202575 
 3560      0D
ARM GAS  /var/folders/v_/kwz_t0cs68g1q1d733r227b80000gn/T//cc7enlx9.s 			page 93


 3561 00da 0A00     		.ascii	"\012\000"
 3562              		.section	.text.printState,"ax",%progbits
 3563              		.align	1
 3564              		.global	printState
 3565              		.syntax unified
 3566              		.thumb
 3567              		.thumb_func
 3568              		.fpu fpv4-sp-d16
 3570              	printState:
 3571              	.LVL280:
 3572              	.LFB30:
 816:Core/Src/MazeLib.c **** void printState(state *st)
 817:Core/Src/MazeLib.c **** {
 3573              		.loc 1 817 1 is_stmt 1 view -0
 3574              		.cfi_startproc
 3575              		@ args = 0, pretend = 0, frame = 0
 3576              		@ frame_needed = 0, uses_anonymous_args = 0
 3577              		.loc 1 817 1 is_stmt 0 view .LVU987
 3578 0000 10B5     		push	{r4, lr}
 3579              	.LCFI24:
 3580              		.cfi_def_cfa_offset 8
 3581              		.cfi_offset 4, -8
 3582              		.cfi_offset 14, -4
 3583 0002 82B0     		sub	sp, sp, #8
 3584              	.LCFI25:
 3585              		.cfi_def_cfa_offset 16
 3586 0004 0446     		mov	r4, r0
 818:Core/Src/MazeLib.c ****     printf("    åº§æ¨™    :   %u, %u\r\n", st->pos.x, st->pos.y);
 3587              		.loc 1 818 5 is_stmt 1 view .LVU988
 3588 0006 4278     		ldrb	r2, [r0, #1]	@ zero_extendqisi2
 3589 0008 0178     		ldrb	r1, [r0]	@ zero_extendqisi2
 3590 000a 1348     		ldr	r0, .L250
 3591              	.LVL281:
 3592              		.loc 1 818 5 is_stmt 0 view .LVU989
 3593 000c FFF7FEFF 		bl	printf
 3594              	.LVL282:
 819:Core/Src/MazeLib.c ****     printf("    æ–¹è§’    :   %d\r\n", st->car);
 3595              		.loc 1 819 5 is_stmt 1 view .LVU990
 3596 0010 A178     		ldrb	r1, [r4, #2]	@ zero_extendqisi2
 3597 0012 1248     		ldr	r0, .L250+4
 3598 0014 FFF7FEFF 		bl	printf
 3599              	.LVL283:
 820:Core/Src/MazeLib.c ****     printf("    å‘ã    :   %d\r\n", st->dir);
 3600              		.loc 1 820 5 view .LVU991
 3601 0018 E178     		ldrb	r1, [r4, #3]	@ zero_extendqisi2
 3602 001a 1148     		ldr	r0, .L250+8
 3603 001c FFF7FEFF 		bl	printf
 3604              	.LVL284:
 821:Core/Src/MazeLib.c ****     printf("    å£      :   %u, %u, %u, %u\r\n", st->wall.north, st->wall.east, st->wall.south, st
 3605              		.loc 1 821 5 view .LVU992
 3606              		.loc 1 821 59 is_stmt 0 view .LVU993
 3607 0020 2179     		ldrb	r1, [r4, #4]	@ zero_extendqisi2
 3608              		.loc 1 821 106 view .LVU994
 3609 0022 8B09     		lsrs	r3, r1, #6
 3610              		.loc 1 821 5 view .LVU995
 3611 0024 0093     		str	r3, [sp]
 3612 0026 C1F30113 		ubfx	r3, r1, #4, #2
ARM GAS  /var/folders/v_/kwz_t0cs68g1q1d733r227b80000gn/T//cc7enlx9.s 			page 94


 3613 002a C1F38102 		ubfx	r2, r1, #2, #2
 3614 002e 01F00301 		and	r1, r1, #3
 3615 0032 0C48     		ldr	r0, .L250+12
 3616 0034 FFF7FEFF 		bl	printf
 3617              	.LVL285:
 822:Core/Src/MazeLib.c **** 
 823:Core/Src/MazeLib.c ****     printf("    ãƒãƒ¼ãƒ‰ :   è¡Œ(0) or åˆ—(1) : %d, ãƒãƒ¼ãƒ‰x : %u, ãƒãƒ¼ãƒ‰y : %u, é‡ã¿ : %u,
 3618              		.loc 1 823 5 is_stmt 1 view .LVU996
 3619              		.loc 1 823 127 is_stmt 0 view .LVU997
 3620 0038 A068     		ldr	r0, [r4, #8]
 3621              		.loc 1 823 133 view .LVU998
 3622 003a 4179     		ldrb	r1, [r0, #5]	@ zero_extendqisi2
 3623              		.loc 1 823 152 view .LVU999
 3624 003c 8279     		ldrb	r2, [r0, #6]	@ zero_extendqisi2
 3625              		.loc 1 823 169 view .LVU1000
 3626 003e C379     		ldrb	r3, [r0, #7]	@ zero_extendqisi2
 3627              		.loc 1 823 181 view .LVU1001
 3628 0040 4488     		ldrh	r4, [r0, #2]
 3629              	.LVL286:
 3630              		.loc 1 823 199 view .LVU1002
 3631 0042 0078     		ldrb	r0, [r0]	@ zero_extendqisi2
 3632              		.loc 1 823 5 view .LVU1003
 3633 0044 0190     		str	r0, [sp, #4]
 3634 0046 0094     		str	r4, [sp]
 3635 0048 0748     		ldr	r0, .L250+16
 3636 004a FFF7FEFF 		bl	printf
 3637              	.LVL287:
 824:Core/Src/MazeLib.c ****     printf("\r\n");
 3638              		.loc 1 824 5 is_stmt 1 view .LVU1004
 3639 004e 0748     		ldr	r0, .L250+20
 3640 0050 FFF7FEFF 		bl	puts
 3641              	.LVL288:
 825:Core/Src/MazeLib.c **** }
 3642              		.loc 1 825 1 is_stmt 0 view .LVU1005
 3643 0054 02B0     		add	sp, sp, #8
 3644              	.LCFI26:
 3645              		.cfi_def_cfa_offset 8
 3646              		@ sp needed
 3647 0056 10BD     		pop	{r4, pc}
 3648              	.L251:
 3649              		.align	2
 3650              	.L250:
 3651 0058 00000000 		.word	.LC24
 3652 005c 1C000000 		.word	.LC25
 3653 0060 34000000 		.word	.LC26
 3654 0064 4C000000 		.word	.LC27
 3655 0068 70000000 		.word	.LC28
 3656 006c 3C000000 		.word	.LC6
 3657              		.cfi_endproc
 3658              	.LFE30:
 3660              		.section	.rodata.printGoal.str1.4,"aMS",%progbits,1
 3661              		.align	2
 3662              	.LC29:
 3663 0000 E5B7A6E4 		.ascii	"\345\267\246\344\270\213 : (%u,%u), \345\217\263\344"
 3663      B88B203A 
 3663      20282575 
 3663      2C257529 
ARM GAS  /var/folders/v_/kwz_t0cs68g1q1d733r227b80000gn/T//cc7enlx9.s 			page 95


 3663      2C20E58F 
 3664 0016 B88A203A 		.ascii	"\270\212 : (%u,%u)\015\012\000"
 3664      20282575 
 3664      2C257529 
 3664      0D0A00
 3665              		.section	.text.printGoal,"ax",%progbits
 3666              		.align	1
 3667              		.global	printGoal
 3668              		.syntax unified
 3669              		.thumb
 3670              		.thumb_func
 3671              		.fpu fpv4-sp-d16
 3673              	printGoal:
 3674              	.LVL289:
 3675              	.LFB31:
 826:Core/Src/MazeLib.c **** void printGoal(profile *prof)
 827:Core/Src/MazeLib.c **** {
 3676              		.loc 1 827 1 is_stmt 1 view -0
 3677              		.cfi_startproc
 3678              		@ args = 0, pretend = 0, frame = 0
 3679              		@ frame_needed = 0, uses_anonymous_args = 0
 3680              		.loc 1 827 1 is_stmt 0 view .LVU1007
 3681 0000 00B5     		push	{lr}
 3682              	.LCFI27:
 3683              		.cfi_def_cfa_offset 4
 3684              		.cfi_offset 14, -4
 3685 0002 83B0     		sub	sp, sp, #12
 3686              	.LCFI28:
 3687              		.cfi_def_cfa_offset 16
 828:Core/Src/MazeLib.c ****     printf("å·¦ä¸‹ : (%u,%u), å³ä¸Š : (%u,%u)\r\n",prof->goal_lesser.x, prof->goal_lesser.y, prof-
 3688              		.loc 1 828 5 is_stmt 1 view .LVU1008
 3689              		.loc 1 828 133 is_stmt 0 view .LVU1009
 3690 0004 C378     		ldrb	r3, [r0, #3]	@ zero_extendqisi2
 3691              		.loc 1 828 5 view .LVU1010
 3692 0006 0093     		str	r3, [sp]
 3693 0008 8378     		ldrb	r3, [r0, #2]	@ zero_extendqisi2
 3694 000a 4278     		ldrb	r2, [r0, #1]	@ zero_extendqisi2
 3695 000c 0178     		ldrb	r1, [r0]	@ zero_extendqisi2
 3696 000e 0348     		ldr	r0, .L254
 3697              	.LVL290:
 3698              		.loc 1 828 5 view .LVU1011
 3699 0010 FFF7FEFF 		bl	printf
 3700              	.LVL291:
 829:Core/Src/MazeLib.c **** }
 3701              		.loc 1 829 1 view .LVU1012
 3702 0014 03B0     		add	sp, sp, #12
 3703              	.LCFI29:
 3704              		.cfi_def_cfa_offset 4
 3705              		@ sp needed
 3706 0016 5DF804FB 		ldr	pc, [sp], #4
 3707              	.L255:
 3708 001a 00BF     		.align	2
 3709              	.L254:
 3710 001c 00000000 		.word	.LC29
 3711              		.cfi_endproc
 3712              	.LFE31:
 3714              		.section	.rodata.printProfile.str1.4,"aMS",%progbits,1
ARM GAS  /var/folders/v_/kwz_t0cs68g1q1d733r227b80000gn/T//cc7enlx9.s 			page 96


 3715              		.align	2
 3716              	.LC30:
 3717 0000 E78FBEE5 		.ascii	"\347\217\276\345\234\250\015\000"
 3717      9CA80D00 
 3718              		.align	2
 3719              	.LC31:
 3720 0008 E6ACA10D 		.ascii	"\346\254\241\015\000"
 3720      00
 3721              		.section	.text.printProfile,"ax",%progbits
 3722              		.align	1
 3723              		.global	printProfile
 3724              		.syntax unified
 3725              		.thumb
 3726              		.thumb_func
 3727              		.fpu fpv4-sp-d16
 3729              	printProfile:
 3730              	.LVL292:
 3731              	.LFB32:
 830:Core/Src/MazeLib.c **** void printProfile(profile *prof)
 831:Core/Src/MazeLib.c **** {
 3732              		.loc 1 831 1 is_stmt 1 view -0
 3733              		.cfi_startproc
 3734              		@ args = 0, pretend = 0, frame = 0
 3735              		@ frame_needed = 0, uses_anonymous_args = 0
 3736              		.loc 1 831 1 is_stmt 0 view .LVU1014
 3737 0000 10B5     		push	{r4, lr}
 3738              	.LCFI30:
 3739              		.cfi_def_cfa_offset 8
 3740              		.cfi_offset 4, -8
 3741              		.cfi_offset 14, -4
 3742 0002 0446     		mov	r4, r0
 832:Core/Src/MazeLib.c ****     printGoal(prof);
 3743              		.loc 1 832 5 is_stmt 1 view .LVU1015
 3744 0004 FFF7FEFF 		bl	printGoal
 3745              	.LVL293:
 833:Core/Src/MazeLib.c **** 
 834:Core/Src/MazeLib.c ****     printf("ç¾åœ¨\r\n");
 3746              		.loc 1 834 5 view .LVU1016
 3747 0008 0848     		ldr	r0, .L258
 3748 000a FFF7FEFF 		bl	puts
 3749              	.LVL294:
 835:Core/Src/MazeLib.c ****     printState( &(prof->now) );
 3750              		.loc 1 835 5 view .LVU1017
 3751 000e 04F10800 		add	r0, r4, #8
 3752 0012 FFF7FEFF 		bl	printState
 3753              	.LVL295:
 836:Core/Src/MazeLib.c **** 
 837:Core/Src/MazeLib.c ****     printf("æ¬¡\r\n");
 3754              		.loc 1 837 5 view .LVU1018
 3755 0016 0648     		ldr	r0, .L258+4
 3756 0018 FFF7FEFF 		bl	puts
 3757              	.LVL296:
 838:Core/Src/MazeLib.c ****     printState( &(prof->next) );
 3758              		.loc 1 838 5 view .LVU1019
 3759 001c 04F11400 		add	r0, r4, #20
 3760 0020 FFF7FEFF 		bl	printState
 3761              	.LVL297:
ARM GAS  /var/folders/v_/kwz_t0cs68g1q1d733r227b80000gn/T//cc7enlx9.s 			page 97


 839:Core/Src/MazeLib.c **** 
 840:Core/Src/MazeLib.c ****     printf("\r\n");
 3762              		.loc 1 840 5 view .LVU1020
 3763 0024 0348     		ldr	r0, .L258+8
 3764 0026 FFF7FEFF 		bl	puts
 3765              	.LVL298:
 841:Core/Src/MazeLib.c ****     // printf("ç›®æ¨™\r\n");
 842:Core/Src/MazeLib.c ****     // printState( &(prof->target) );
 843:Core/Src/MazeLib.c ****     
 844:Core/Src/MazeLib.c **** }
 3766              		.loc 1 844 1 is_stmt 0 view .LVU1021
 3767 002a 10BD     		pop	{r4, pc}
 3768              	.LVL299:
 3769              	.L259:
 3770              		.loc 1 844 1 view .LVU1022
 3771              		.align	2
 3772              	.L258:
 3773 002c 00000000 		.word	.LC30
 3774 0030 08000000 		.word	.LC31
 3775 0034 3C000000 		.word	.LC6
 3776              		.cfi_endproc
 3777              	.LFE32:
 3779              		.section	.text.getRouteFastRun,"ax",%progbits
 3780              		.align	1
 3781              		.global	getRouteFastRun
 3782              		.syntax unified
 3783              		.thumb
 3784              		.thumb_func
 3785              		.fpu fpv4-sp-d16
 3787              	getRouteFastRun:
 3788              	.LVL300:
 3789              	.LFB33:
 845:Core/Src/MazeLib.c **** /* ã‚¢ãƒ«ã‚´ãƒªã‚ºãƒ ã«é–¢ã‚ã‚‹å‡¦ç†ã¯åˆ¥ã®ãƒ•ã‚¡ã‚¤ãƒ«ã§*/
 846:Core/Src/MazeLib.c **** 
 847:Core/Src/MazeLib.c **** void getRouteFastRun(state *log_st, state *now_st, int n)
 848:Core/Src/MazeLib.c **** {
 3790              		.loc 1 848 1 is_stmt 1 view -0
 3791              		.cfi_startproc
 3792              		@ args = 0, pretend = 0, frame = 0
 3793              		@ frame_needed = 0, uses_anonymous_args = 0
 3794              		@ link register save eliminated.
 3795              		.loc 1 848 1 is_stmt 0 view .LVU1024
 3796 0000 10B4     		push	{r4}
 3797              	.LCFI31:
 3798              		.cfi_def_cfa_offset 4
 3799              		.cfi_offset 4, -4
 849:Core/Src/MazeLib.c ****     // printf("å‘¼ã³å‡ºã—: %p, %d\r\n", now_st, now_st->node->rc);
 850:Core/Src/MazeLib.c ****     // printf("å‘¼ã³å‡ºã—: %p, %p\r\n", log_st, log_st[n].node);
 851:Core/Src/MazeLib.c ****     //æœ€çŸ­èµ°è¡Œæ™‚ã«é€šã£ãŸãƒãƒ¼ãƒ‰ã®xyã¨rawã‹columnã‹ã®æƒ…å ±ã‚’é…åˆ—ã«æ ¼ç´ã™ã‚‹
 852:Core/Src/MazeLib.c ****     log_st[n].node = now_st->node;
 3800              		.loc 1 852 5 is_stmt 1 view .LVU1025
 3801              		.loc 1 852 11 is_stmt 0 view .LVU1026
 3802 0002 02EB4202 		add	r2, r2, r2, lsl #1
 3803              	.LVL301:
 3804              		.loc 1 852 11 view .LVU1027
 3805 0006 00EB8203 		add	r3, r0, r2, lsl #2
 3806              		.loc 1 852 20 view .LVU1028
ARM GAS  /var/folders/v_/kwz_t0cs68g1q1d733r227b80000gn/T//cc7enlx9.s 			page 98


 3807 000a 8C68     		ldr	r4, [r1, #8]
 3808 000c 9C60     		str	r4, [r3, #8]
 853:Core/Src/MazeLib.c **** 
 854:Core/Src/MazeLib.c ****     log_st[n].car = now_st->car;
 3809              		.loc 1 854 5 is_stmt 1 view .LVU1029
 3810              		.loc 1 854 27 is_stmt 0 view .LVU1030
 3811 000e 91F802C0 		ldrb	ip, [r1, #2]	@ zero_extendqisi2
 3812              		.loc 1 854 19 view .LVU1031
 3813 0012 83F802C0 		strb	ip, [r3, #2]
 855:Core/Src/MazeLib.c ****     log_st[n].pos.x = now_st->pos.x;
 3814              		.loc 1 855 5 is_stmt 1 view .LVU1032
 3815              		.loc 1 855 34 is_stmt 0 view .LVU1033
 3816 0016 91F800C0 		ldrb	ip, [r1]	@ zero_extendqisi2
 3817              		.loc 1 855 21 view .LVU1034
 3818 001a 00F822C0 		strb	ip, [r0, r2, lsl #2]
 856:Core/Src/MazeLib.c ****     log_st[n].pos.y = now_st->pos.y;
 3819              		.loc 1 856 5 is_stmt 1 view .LVU1035
 3820              		.loc 1 856 34 is_stmt 0 view .LVU1036
 3821 001e 4A78     		ldrb	r2, [r1, #1]	@ zero_extendqisi2
 3822              		.loc 1 856 21 view .LVU1037
 3823 0020 5A70     		strb	r2, [r3, #1]
 857:Core/Src/MazeLib.c **** 
 858:Core/Src/MazeLib.c ****     log_st[n].wall.north = now_st->wall.north;
 3824              		.loc 1 858 5 is_stmt 1 view .LVU1038
 3825              		.loc 1 858 40 is_stmt 0 view .LVU1039
 3826 0022 0879     		ldrb	r0, [r1, #4]	@ zero_extendqisi2
 3827              	.LVL302:
 3828              		.loc 1 858 26 view .LVU1040
 3829 0024 1A79     		ldrb	r2, [r3, #4]	@ zero_extendqisi2
 3830 0026 60F30102 		bfi	r2, r0, #0, #2
 3831 002a 1A71     		strb	r2, [r3, #4]
 859:Core/Src/MazeLib.c ****     log_st[n].wall.east = now_st->wall.east;
 3832              		.loc 1 859 5 is_stmt 1 view .LVU1041
 3833              		.loc 1 859 39 is_stmt 0 view .LVU1042
 3834 002c 0A79     		ldrb	r2, [r1, #4]	@ zero_extendqisi2
 3835 002e C2F38102 		ubfx	r2, r2, #2, #2
 3836              		.loc 1 859 25 view .LVU1043
 3837 0032 1879     		ldrb	r0, [r3, #4]	@ zero_extendqisi2
 3838 0034 62F38300 		bfi	r0, r2, #2, #2
 3839 0038 1871     		strb	r0, [r3, #4]
 860:Core/Src/MazeLib.c ****     log_st[n].wall.south = now_st->wall.south;
 3840              		.loc 1 860 5 is_stmt 1 view .LVU1044
 3841              		.loc 1 860 40 is_stmt 0 view .LVU1045
 3842 003a 0A79     		ldrb	r2, [r1, #4]	@ zero_extendqisi2
 3843 003c C2F30112 		ubfx	r2, r2, #4, #2
 3844              		.loc 1 860 26 view .LVU1046
 3845 0040 C0B2     		uxtb	r0, r0
 3846 0042 62F30510 		bfi	r0, r2, #4, #2
 3847 0046 1871     		strb	r0, [r3, #4]
 861:Core/Src/MazeLib.c ****     log_st[n].wall.west = now_st->wall.west;
 3848              		.loc 1 861 5 is_stmt 1 view .LVU1047
 3849              		.loc 1 861 39 is_stmt 0 view .LVU1048
 3850 0048 0A79     		ldrb	r2, [r1, #4]	@ zero_extendqisi2
 3851 004a 9209     		lsrs	r2, r2, #6
 3852              		.loc 1 861 25 view .LVU1049
 3853 004c C1B2     		uxtb	r1, r0
 3854              	.LVL303:
ARM GAS  /var/folders/v_/kwz_t0cs68g1q1d733r227b80000gn/T//cc7enlx9.s 			page 99


 3855              		.loc 1 861 25 view .LVU1050
 3856 004e 62F38711 		bfi	r1, r2, #6, #2
 3857 0052 1971     		strb	r1, [r3, #4]
 862:Core/Src/MazeLib.c **** }
 3858              		.loc 1 862 1 view .LVU1051
 3859 0054 5DF8044B 		ldr	r4, [sp], #4
 3860              	.LCFI32:
 3861              		.cfi_restore 4
 3862              		.cfi_def_cfa_offset 0
 3863 0058 7047     		bx	lr
 3864              		.cfi_endproc
 3865              	.LFE33:
 3867              		.section	.rodata.printRoute.str1.4,"aMS",%progbits,1
 3868              		.align	2
 3869              	.LC32:
 3870 0000 E8A18CE3 		.ascii	"\350\241\214\343\203\216\343\203\274\343\203\211: \000"
 3870      838EE383 
 3870      BCE38389 
 3870      3A2000
 3871 000f 00       		.align	2
 3872              	.LC33:
 3873 0010 E58897E3 		.ascii	"\345\210\227\343\203\216\343\203\274\343\203\211: \000"
 3873      838EE383 
 3873      BCE38389 
 3873      3A2000
 3874 001f 00       		.align	2
 3875              	.LC34:
 3876 0020 783A2575 		.ascii	"x:%u, y:%u, \351\207\215\343\201\277: %u\015\012\000"
 3876      2C20793A 
 3876      25752C20 
 3876      E9878DE3 
 3876      81BF3A20 
 3877 0039 000000   		.align	2
 3878              	.LC35:
 3879 003c E5BAA7E6 		.ascii	"\345\272\247\346\250\231: x:%u, y:%u, \346\226\271\350"
 3879      A8993A20 
 3879      783A2575 
 3879      2C20793A 
 3879      25752C20 
 3880 0054 A7923A20 		.ascii	"\247\222: %u\015\012\000"
 3880      25750D0A 
 3880      00
 3881 005d 000000   		.align	2
 3882              	.LC36:
 3883 0060 5BE58C97 		.ascii	"[\345\214\227 \346\235\261 \345\215\227 \350\245\277"
 3883      20E69DB1 
 3883      20E58D97 
 3883      20E8A5BF 
 3884 0070 5D203D20 		.ascii	"] = [%u %u %u %u]\015\012\000"
 3884      5B257520 
 3884      25752025 
 3884      75202575 
 3884      5D0D0A00 
 3885              		.section	.text.printRoute,"ax",%progbits
 3886              		.align	1
 3887              		.global	printRoute
 3888              		.syntax unified
ARM GAS  /var/folders/v_/kwz_t0cs68g1q1d733r227b80000gn/T//cc7enlx9.s 			page 100


 3889              		.thumb
 3890              		.thumb_func
 3891              		.fpu fpv4-sp-d16
 3893              	printRoute:
 3894              	.LVL304:
 3895              	.LFB34:
 863:Core/Src/MazeLib.c **** void printRoute(state *route, int n)
 864:Core/Src/MazeLib.c **** {
 3896              		.loc 1 864 1 is_stmt 1 view -0
 3897              		.cfi_startproc
 3898              		@ args = 0, pretend = 0, frame = 0
 3899              		@ frame_needed = 0, uses_anonymous_args = 0
 3900              		.loc 1 864 1 is_stmt 0 view .LVU1053
 3901 0000 2DE9F043 		push	{r4, r5, r6, r7, r8, r9, lr}
 3902              	.LCFI33:
 3903              		.cfi_def_cfa_offset 28
 3904              		.cfi_offset 4, -28
 3905              		.cfi_offset 5, -24
 3906              		.cfi_offset 6, -20
 3907              		.cfi_offset 7, -16
 3908              		.cfi_offset 8, -12
 3909              		.cfi_offset 9, -8
 3910              		.cfi_offset 14, -4
 3911 0004 83B0     		sub	sp, sp, #12
 3912              	.LCFI34:
 3913              		.cfi_def_cfa_offset 40
 3914 0006 0746     		mov	r7, r0
 3915 0008 8846     		mov	r8, r1
 865:Core/Src/MazeLib.c ****     //ãƒãƒ¼ãƒ‰ã‚’ãƒã‚§ãƒƒã‚¯.
 866:Core/Src/MazeLib.c ****     for(int k=0; k < n; k++)
 3916              		.loc 1 866 5 is_stmt 1 view .LVU1054
 3917              	.LBB42:
 3918              		.loc 1 866 9 view .LVU1055
 3919              	.LVL305:
 3920              		.loc 1 866 13 is_stmt 0 view .LVU1056
 3921 000a 0026     		movs	r6, #0
 3922              		.loc 1 866 5 view .LVU1057
 3923 000c 21E0     		b	.L263
 3924              	.LVL306:
 3925              	.L269:
 867:Core/Src/MazeLib.c ****     {
 868:Core/Src/MazeLib.c ****         if(route[k].node->rc == 0)
 869:Core/Src/MazeLib.c ****         {
 870:Core/Src/MazeLib.c ****             printf("è¡Œãƒãƒ¼ãƒ‰: ");
 3926              		.loc 1 870 13 is_stmt 1 view .LVU1058
 3927 000e 1C48     		ldr	r0, .L270
 3928 0010 FFF7FEFF 		bl	printf
 3929              	.LVL307:
 3930 0014 29E0     		b	.L264
 3931              	.L265:
 871:Core/Src/MazeLib.c ****         }
 872:Core/Src/MazeLib.c ****         if(route[k].node->rc == 1)
 873:Core/Src/MazeLib.c ****         {
 874:Core/Src/MazeLib.c ****             printf("åˆ—ãƒãƒ¼ãƒ‰: ");
 875:Core/Src/MazeLib.c ****         }
 876:Core/Src/MazeLib.c ****         printf("x:%u, y:%u, é‡ã¿: %u\r\n", route[k].node->pos.x , route[k].node->pos.y, route[k].
 3932              		.loc 1 876 9 discriminator 2 view .LVU1059
ARM GAS  /var/folders/v_/kwz_t0cs68g1q1d733r227b80000gn/T//cc7enlx9.s 			page 101


 3933              		.loc 1 876 54 is_stmt 0 discriminator 2 view .LVU1060
 3934 0016 A568     		ldr	r5, [r4, #8]
 3935              		.loc 1 876 9 discriminator 2 view .LVU1061
 3936 0018 6B88     		ldrh	r3, [r5, #2]
 3937 001a EA79     		ldrb	r2, [r5, #7]	@ zero_extendqisi2
 3938 001c A979     		ldrb	r1, [r5, #6]	@ zero_extendqisi2
 3939 001e 1948     		ldr	r0, .L270+4
 3940 0020 FFF7FEFF 		bl	printf
 3941              	.LVL308:
 877:Core/Src/MazeLib.c ****         printf("åº§æ¨™: x:%u, y:%u, æ–¹è§’: %u\r\n", route[k].pos.x, route[k].pos.y, route[k].car);
 3942              		.loc 1 877 9 is_stmt 1 discriminator 2 view .LVU1062
 3943 0024 A378     		ldrb	r3, [r4, #2]	@ zero_extendqisi2
 3944 0026 6278     		ldrb	r2, [r4, #1]	@ zero_extendqisi2
 3945 0028 17F80910 		ldrb	r1, [r7, r9]	@ zero_extendqisi2
 3946 002c 1648     		ldr	r0, .L270+8
 3947 002e FFF7FEFF 		bl	printf
 3948              	.LVL309:
 878:Core/Src/MazeLib.c ****         printf("[åŒ— æ± å— è¥¿] = [%u %u %u %u]\r\n", route[k].wall.north, route[k].wall.east, ro
 3949              		.loc 1 878 9 discriminator 2 view .LVU1063
 3950              		.loc 1 878 70 is_stmt 0 discriminator 2 view .LVU1064
 3951 0032 2179     		ldrb	r1, [r4, #4]	@ zero_extendqisi2
 3952              		.loc 1 878 132 discriminator 2 view .LVU1065
 3953 0034 8B09     		lsrs	r3, r1, #6
 3954              		.loc 1 878 9 discriminator 2 view .LVU1066
 3955 0036 0093     		str	r3, [sp]
 3956 0038 C1F30113 		ubfx	r3, r1, #4, #2
 3957 003c C1F38102 		ubfx	r2, r1, #2, #2
 3958 0040 01F00301 		and	r1, r1, #3
 3959 0044 1148     		ldr	r0, .L270+12
 3960 0046 FFF7FEFF 		bl	printf
 3961              	.LVL310:
 879:Core/Src/MazeLib.c ****         printf("\r\n");
 3962              		.loc 1 879 9 is_stmt 1 discriminator 2 view .LVU1067
 3963 004a 1148     		ldr	r0, .L270+16
 3964 004c FFF7FEFF 		bl	puts
 3965              	.LVL311:
 866:Core/Src/MazeLib.c ****     {
 3966              		.loc 1 866 25 discriminator 2 view .LVU1068
 866:Core/Src/MazeLib.c ****     {
 3967              		.loc 1 866 26 is_stmt 0 discriminator 2 view .LVU1069
 3968 0050 0136     		adds	r6, r6, #1
 3969              	.LVL312:
 3970              	.L263:
 866:Core/Src/MazeLib.c ****     {
 3971              		.loc 1 866 18 is_stmt 1 discriminator 1 view .LVU1070
 866:Core/Src/MazeLib.c ****     {
 3972              		.loc 1 866 5 is_stmt 0 discriminator 1 view .LVU1071
 3973 0052 4645     		cmp	r6, r8
 3974 0054 11DA     		bge	.L268
 868:Core/Src/MazeLib.c ****         {
 3975              		.loc 1 868 9 is_stmt 1 view .LVU1072
 868:Core/Src/MazeLib.c ****         {
 3976              		.loc 1 868 17 is_stmt 0 view .LVU1073
 3977 0056 06EB4604 		add	r4, r6, r6, lsl #1
 3978 005a 4FEA8409 		lsl	r9, r4, #2
 3979 005e 07EB8404 		add	r4, r7, r4, lsl #2
 868:Core/Src/MazeLib.c ****         {
ARM GAS  /var/folders/v_/kwz_t0cs68g1q1d733r227b80000gn/T//cc7enlx9.s 			page 102


 3980              		.loc 1 868 20 view .LVU1074
 3981 0062 A368     		ldr	r3, [r4, #8]
 868:Core/Src/MazeLib.c ****         {
 3982              		.loc 1 868 25 view .LVU1075
 3983 0064 5B79     		ldrb	r3, [r3, #5]	@ zero_extendqisi2
 868:Core/Src/MazeLib.c ****         {
 3984              		.loc 1 868 11 view .LVU1076
 3985 0066 002B     		cmp	r3, #0
 3986 0068 D1D0     		beq	.L269
 3987              	.L264:
 872:Core/Src/MazeLib.c ****         {
 3988              		.loc 1 872 9 is_stmt 1 view .LVU1077
 872:Core/Src/MazeLib.c ****         {
 3989              		.loc 1 872 20 is_stmt 0 view .LVU1078
 3990 006a A368     		ldr	r3, [r4, #8]
 872:Core/Src/MazeLib.c ****         {
 3991              		.loc 1 872 25 view .LVU1079
 3992 006c 5B79     		ldrb	r3, [r3, #5]	@ zero_extendqisi2
 872:Core/Src/MazeLib.c ****         {
 3993              		.loc 1 872 11 view .LVU1080
 3994 006e 002B     		cmp	r3, #0
 3995 0070 D1D0     		beq	.L265
 874:Core/Src/MazeLib.c ****         }
 3996              		.loc 1 874 13 is_stmt 1 view .LVU1081
 3997 0072 0848     		ldr	r0, .L270+20
 3998 0074 FFF7FEFF 		bl	printf
 3999              	.LVL313:
 4000 0078 CDE7     		b	.L265
 4001              	.L268:
 874:Core/Src/MazeLib.c ****         }
 4002              		.loc 1 874 13 is_stmt 0 view .LVU1082
 4003              	.LBE42:
 880:Core/Src/MazeLib.c ****     }
 881:Core/Src/MazeLib.c **** }
 4004              		.loc 1 881 1 view .LVU1083
 4005 007a 03B0     		add	sp, sp, #12
 4006              	.LCFI35:
 4007              		.cfi_def_cfa_offset 28
 4008              		@ sp needed
 4009 007c BDE8F083 		pop	{r4, r5, r6, r7, r8, r9, pc}
 4010              	.LVL314:
 4011              	.L271:
 4012              		.loc 1 881 1 view .LVU1084
 4013              		.align	2
 4014              	.L270:
 4015 0080 00000000 		.word	.LC32
 4016 0084 20000000 		.word	.LC34
 4017 0088 3C000000 		.word	.LC35
 4018 008c 60000000 		.word	.LC36
 4019 0090 3C000000 		.word	.LC6
 4020 0094 10000000 		.word	.LC33
 4021              		.cfi_endproc
 4022              	.LFE34:
 4024              		.section	.text.getNodeInfo,"ax",%progbits
 4025              		.align	1
 4026              		.global	getNodeInfo
 4027              		.syntax unified
ARM GAS  /var/folders/v_/kwz_t0cs68g1q1d733r227b80000gn/T//cc7enlx9.s 			page 103


 4028              		.thumb
 4029              		.thumb_func
 4030              		.fpu fpv4-sp-d16
 4032              	getNodeInfo:
 4033              	.LVL315:
 4034              	.LFB35:
 882:Core/Src/MazeLib.c **** 
 883:Core/Src/MazeLib.c **** //ä»Šã„ã‚‹ãƒãƒ¼ãƒ‰æƒ…å ±ã‚’è¿”ã™ï¼ˆåŒºç”»é€²å…¥æ™‚ã®æ–¹è§’ã‚’ä½¿ç”¨ã™ã‚‹ï¼‰
 884:Core/Src/MazeLib.c **** node *getNodeInfo(maze_node *maze, uint8_t x, uint8_t y, cardinal car)
 885:Core/Src/MazeLib.c **** {
 4035              		.loc 1 885 1 is_stmt 1 view -0
 4036              		.cfi_startproc
 4037              		@ args = 0, pretend = 0, frame = 0
 4038              		@ frame_needed = 0, uses_anonymous_args = 0
 4039              		.loc 1 885 1 is_stmt 0 view .LVU1086
 4040 0000 00B5     		push	{lr}
 4041              	.LCFI36:
 4042              		.cfi_def_cfa_offset 4
 4043              		.cfi_offset 14, -4
 4044 0002 8446     		mov	ip, r0
 886:Core/Src/MazeLib.c **** 	node *error;
 4045              		.loc 1 886 2 is_stmt 1 view .LVU1087
 887:Core/Src/MazeLib.c **** 	error = &(maze->RawNode[0][1]);
 4046              		.loc 1 887 2 view .LVU1088
 4047              		.loc 1 887 8 is_stmt 0 view .LVU1089
 4048 0004 0830     		adds	r0, r0, #8
 4049              	.LVL316:
 888:Core/Src/MazeLib.c ****     //breakã¯è¦ã‚‰ãªã„ã‘ã©ãŠæ±ºã¾ã‚Šã¨ã—ã¦å…¥ã‚Œã¦ã‚‹ã ã‘
 889:Core/Src/MazeLib.c ****     switch (car)//åŒºç”»ä¾µå…¥æ™‚ã®æ–¹è§’
 4050              		.loc 1 889 5 is_stmt 1 view .LVU1090
 4051 0006 062B     		cmp	r3, #6
 4052 0008 0CD8     		bhi	.L272
 4053 000a DFE803F0 		tbb	[pc, r3]
 4054              	.L275:
 4055 000e 04       		.byte	(.L278-.L275)/2
 4056 000f 0B       		.byte	(.L272-.L275)/2
 4057 0010 0D       		.byte	(.L277-.L275)/2
 4058 0011 0B       		.byte	(.L272-.L275)/2
 4059 0012 16       		.byte	(.L276-.L275)/2
 4060 0013 0B       		.byte	(.L272-.L275)/2
 4061 0014 1F       		.byte	(.L274-.L275)/2
 4062 0015 00       		.p2align 1
 4063              	.L278:
 890:Core/Src/MazeLib.c ****     {
 891:Core/Src/MazeLib.c ****     case north:
 892:Core/Src/MazeLib.c ****         //å—ãƒãƒ¼ãƒ‰ã‚’è¿”ã™
 893:Core/Src/MazeLib.c ****         maze->RawNode[x][y].pos.x = x;
 4064              		.loc 1 893 9 view .LVU1091
 4065              		.loc 1 893 35 is_stmt 0 view .LVU1092
 4066 0016 01EB0113 		add	r3, r1, r1, lsl #4
 4067              	.LVL317:
 4068              		.loc 1 893 35 view .LVU1093
 4069 001a 1344     		add	r3, r3, r2
 4070 001c 0CEBC300 		add	r0, ip, r3, lsl #3
 4071              	.LVL318:
 4072              		.loc 1 893 35 view .LVU1094
 4073 0020 8171     		strb	r1, [r0, #6]
ARM GAS  /var/folders/v_/kwz_t0cs68g1q1d733r227b80000gn/T//cc7enlx9.s 			page 104


 894:Core/Src/MazeLib.c ****         maze->RawNode[x][y].pos.y = y;
 4074              		.loc 1 894 9 is_stmt 1 view .LVU1095
 4075              		.loc 1 894 35 is_stmt 0 view .LVU1096
 4076 0022 C271     		strb	r2, [r0, #7]
 895:Core/Src/MazeLib.c ****         return &(maze->RawNode[x][y]);
 4077              		.loc 1 895 9 is_stmt 1 view .LVU1097
 4078              	.LVL319:
 4079              	.L272:
 896:Core/Src/MazeLib.c ****         break;
 897:Core/Src/MazeLib.c ****     case east:
 898:Core/Src/MazeLib.c ****         //è¥¿ãƒãƒ¼ãƒ‰ã‚’è¿”ã™
 899:Core/Src/MazeLib.c ****         maze->ColumnNode[x][y].pos.x = x;
 900:Core/Src/MazeLib.c ****         maze->ColumnNode[x][y].pos.y = y;
 901:Core/Src/MazeLib.c ****         return &(maze->ColumnNode[x][y]);
 902:Core/Src/MazeLib.c ****         break;
 903:Core/Src/MazeLib.c ****     case south:
 904:Core/Src/MazeLib.c ****         //åŒ—ãƒãƒ¼ãƒ‰ã‚’è¿”ã™
 905:Core/Src/MazeLib.c ****         maze->RawNode[x][y+1].pos.x = x;
 906:Core/Src/MazeLib.c ****         maze->RawNode[x][y+1].pos.y = y+1;
 907:Core/Src/MazeLib.c ****         return &(maze->RawNode[x][y+1]);
 908:Core/Src/MazeLib.c ****         break;
 909:Core/Src/MazeLib.c ****     case west:
 910:Core/Src/MazeLib.c ****         //æ±ãƒãƒ¼ãƒ‰ã‚’è¿”ã™
 911:Core/Src/MazeLib.c ****         maze->ColumnNode[x+1][y].pos.x = x+1;
 912:Core/Src/MazeLib.c ****         maze->ColumnNode[x+1][y].pos.y = y;
 913:Core/Src/MazeLib.c ****         return &(maze->ColumnNode[x+1][y]);
 914:Core/Src/MazeLib.c ****         break;
 915:Core/Src/MazeLib.c ****     case ne:    //æ–œã‚æ¢ç´¢ã§ã¯å¿…è¦ã§ã€ã‹ãªã‚Šé¢å€’ï¼ˆä¾µå…¥æ™‚ã®æ–¹è§’ã®ã‚ã¨ã«2ãƒ
 916:Core/Src/MazeLib.c ****         break;
 917:Core/Src/MazeLib.c ****     case se:
 918:Core/Src/MazeLib.c ****         break;
 919:Core/Src/MazeLib.c ****     case sw:
 920:Core/Src/MazeLib.c ****         break;
 921:Core/Src/MazeLib.c ****     case nw:
 922:Core/Src/MazeLib.c ****         break;
 923:Core/Src/MazeLib.c ****     default:
 924:Core/Src/MazeLib.c ****     	return error; //
 925:Core/Src/MazeLib.c ****         break;
 926:Core/Src/MazeLib.c ****     }
 927:Core/Src/MazeLib.c ****     return error;
 928:Core/Src/MazeLib.c **** }
 4080              		.loc 1 928 1 is_stmt 0 view .LVU1098
 4081 0024 5DF804FB 		ldr	pc, [sp], #4
 4082              	.LVL320:
 4083              	.L277:
 896:Core/Src/MazeLib.c ****         break;
 4084              		.loc 1 896 9 is_stmt 1 view .LVU1099
 899:Core/Src/MazeLib.c ****         maze->ColumnNode[x][y].pos.y = y;
 4085              		.loc 1 899 9 view .LVU1100
 899:Core/Src/MazeLib.c ****         maze->ColumnNode[x][y].pos.y = y;
 4086              		.loc 1 899 38 is_stmt 0 view .LVU1101
 4087 0028 02EB0113 		add	r3, r2, r1, lsl #4
 4088              	.LVL321:
 899:Core/Src/MazeLib.c ****         maze->ColumnNode[x][y].pos.y = y;
 4089              		.loc 1 899 38 view .LVU1102
 4090 002c 03F58873 		add	r3, r3, #272
 4091 0030 0CEBC300 		add	r0, ip, r3, lsl #3
ARM GAS  /var/folders/v_/kwz_t0cs68g1q1d733r227b80000gn/T//cc7enlx9.s 			page 105


 4092              	.LVL322:
 899:Core/Src/MazeLib.c ****         maze->ColumnNode[x][y].pos.y = y;
 4093              		.loc 1 899 38 view .LVU1103
 4094 0034 8171     		strb	r1, [r0, #6]
 900:Core/Src/MazeLib.c ****         return &(maze->ColumnNode[x][y]);
 4095              		.loc 1 900 9 is_stmt 1 view .LVU1104
 900:Core/Src/MazeLib.c ****         return &(maze->ColumnNode[x][y]);
 4096              		.loc 1 900 38 is_stmt 0 view .LVU1105
 4097 0036 C271     		strb	r2, [r0, #7]
 901:Core/Src/MazeLib.c ****         break;
 4098              		.loc 1 901 9 is_stmt 1 view .LVU1106
 901:Core/Src/MazeLib.c ****         break;
 4099              		.loc 1 901 16 is_stmt 0 view .LVU1107
 4100 0038 F4E7     		b	.L272
 4101              	.LVL323:
 4102              	.L276:
 902:Core/Src/MazeLib.c ****     case south:
 4103              		.loc 1 902 9 is_stmt 1 view .LVU1108
 905:Core/Src/MazeLib.c ****         maze->RawNode[x][y+1].pos.y = y+1;
 4104              		.loc 1 905 9 view .LVU1109
 905:Core/Src/MazeLib.c ****         maze->RawNode[x][y+1].pos.y = y+1;
 4105              		.loc 1 905 27 is_stmt 0 view .LVU1110
 4106 003a 0132     		adds	r2, r2, #1
 4107              	.LVL324:
 905:Core/Src/MazeLib.c ****         maze->RawNode[x][y+1].pos.y = y+1;
 4108              		.loc 1 905 37 view .LVU1111
 4109 003c 01EB0113 		add	r3, r1, r1, lsl #4
 4110              	.LVL325:
 905:Core/Src/MazeLib.c ****         maze->RawNode[x][y+1].pos.y = y+1;
 4111              		.loc 1 905 37 view .LVU1112
 4112 0040 1344     		add	r3, r3, r2
 4113 0042 0CEBC300 		add	r0, ip, r3, lsl #3
 4114              	.LVL326:
 905:Core/Src/MazeLib.c ****         maze->RawNode[x][y+1].pos.y = y+1;
 4115              		.loc 1 905 37 view .LVU1113
 4116 0046 8171     		strb	r1, [r0, #6]
 906:Core/Src/MazeLib.c ****         return &(maze->RawNode[x][y+1]);
 4117              		.loc 1 906 9 is_stmt 1 view .LVU1114
 906:Core/Src/MazeLib.c ****         return &(maze->RawNode[x][y+1]);
 4118              		.loc 1 906 37 is_stmt 0 view .LVU1115
 4119 0048 C271     		strb	r2, [r0, #7]
 907:Core/Src/MazeLib.c ****         break;
 4120              		.loc 1 907 9 is_stmt 1 view .LVU1116
 907:Core/Src/MazeLib.c ****         break;
 4121              		.loc 1 907 16 is_stmt 0 view .LVU1117
 4122 004a EBE7     		b	.L272
 4123              	.LVL327:
 4124              	.L274:
 908:Core/Src/MazeLib.c ****     case west:
 4125              		.loc 1 908 9 is_stmt 1 view .LVU1118
 911:Core/Src/MazeLib.c ****         maze->ColumnNode[x+1][y].pos.y = y;
 4126              		.loc 1 911 9 view .LVU1119
 911:Core/Src/MazeLib.c ****         maze->ColumnNode[x+1][y].pos.y = y;
 4127              		.loc 1 911 27 is_stmt 0 view .LVU1120
 4128 004c 0131     		adds	r1, r1, #1
 4129              	.LVL328:
 911:Core/Src/MazeLib.c ****         maze->ColumnNode[x+1][y].pos.y = y;
ARM GAS  /var/folders/v_/kwz_t0cs68g1q1d733r227b80000gn/T//cc7enlx9.s 			page 106


 4130              		.loc 1 911 40 view .LVU1121
 4131 004e 02EB0113 		add	r3, r2, r1, lsl #4
 4132              	.LVL329:
 911:Core/Src/MazeLib.c ****         maze->ColumnNode[x+1][y].pos.y = y;
 4133              		.loc 1 911 40 view .LVU1122
 4134 0052 03F58873 		add	r3, r3, #272
 4135 0056 0CEBC300 		add	r0, ip, r3, lsl #3
 4136              	.LVL330:
 911:Core/Src/MazeLib.c ****         maze->ColumnNode[x+1][y].pos.y = y;
 4137              		.loc 1 911 40 view .LVU1123
 4138 005a 8171     		strb	r1, [r0, #6]
 912:Core/Src/MazeLib.c ****         return &(maze->ColumnNode[x+1][y]);
 4139              		.loc 1 912 9 is_stmt 1 view .LVU1124
 912:Core/Src/MazeLib.c ****         return &(maze->ColumnNode[x+1][y]);
 4140              		.loc 1 912 40 is_stmt 0 view .LVU1125
 4141 005c C271     		strb	r2, [r0, #7]
 913:Core/Src/MazeLib.c ****         break;
 4142              		.loc 1 913 9 is_stmt 1 view .LVU1126
 913:Core/Src/MazeLib.c ****         break;
 4143              		.loc 1 913 16 is_stmt 0 view .LVU1127
 4144 005e E1E7     		b	.L272
 4145              		.cfi_endproc
 4146              	.LFE35:
 4148              		.section	.text.getNextNode,"ax",%progbits
 4149              		.align	1
 4150              		.global	getNextNode
 4151              		.syntax unified
 4152              		.thumb
 4153              		.thumb_func
 4154              		.fpu fpv4-sp-d16
 4156              	getNextNode:
 4157              	.LVL331:
 4158              	.LFB36:
 929:Core/Src/MazeLib.c **** node *getNextNode(maze_node *maze, cardinal car, node *now_node, int mask)
 930:Core/Src/MazeLib.c **** {
 4159              		.loc 1 930 1 is_stmt 1 view -0
 4160              		.cfi_startproc
 4161              		@ args = 0, pretend = 0, frame = 0
 4162              		@ frame_needed = 0, uses_anonymous_args = 0
 4163              		.loc 1 930 1 is_stmt 0 view .LVU1129
 4164 0000 2DE9F043 		push	{r4, r5, r6, r7, r8, r9, lr}
 4165              	.LCFI37:
 4166              		.cfi_def_cfa_offset 28
 4167              		.cfi_offset 4, -28
 4168              		.cfi_offset 5, -24
 4169              		.cfi_offset 6, -20
 4170              		.cfi_offset 7, -16
 4171              		.cfi_offset 8, -12
 4172              		.cfi_offset 9, -8
 4173              		.cfi_offset 14, -4
 4174 0004 0546     		mov	r5, r0
 4175 0006 1046     		mov	r0, r2
 4176              	.LVL332:
 931:Core/Src/MazeLib.c ****     //6ãƒãƒ¼ãƒ‰ã®é‡ã¿ã‚’æ¯”è¼ƒã—ã¦ã€æ¬¡ã®ãƒãƒ¼ãƒ‰ã¸ã®ã‚¢ãƒ‰ãƒ¬ã‚¹ã‚’è¿”ã™
 932:Core/Src/MazeLib.c **** 
 933:Core/Src/MazeLib.c ****     //1ãƒãƒ¼ãƒ‰ãšã¤è¦‹ã‚‹.
 934:Core/Src/MazeLib.c **** 
ARM GAS  /var/folders/v_/kwz_t0cs68g1q1d733r227b80000gn/T//cc7enlx9.s 			page 107


 935:Core/Src/MazeLib.c ****     //ç¾ãƒãƒ¼ãƒ‰ã®æƒ…å ±ã‹ã‚‰è¦‹ã‚‹ã¹ããƒãƒ¼ãƒ‰ã‚’é¸ã³ã€æ¯”è¼ƒã™ã‚‹
 936:Core/Src/MazeLib.c ****     //ç¾åœ¨ãƒãƒ¼ãƒ‰ã®æƒ…å ±ã‚’ä½¿ã£ã¦å‘¨å›²ãƒãƒ¼ãƒ‰ã‚’æ¯”è¼ƒã—ã€ä¸€ç•ªé‡ã¿ãŒä½ã„ãƒãƒ¼
 937:Core/Src/MazeLib.c ****     //printf("æ¬¡ã®ãƒãƒ¼ãƒ‰ã‚’å–å¾—\r\n");
 938:Core/Src/MazeLib.c ****     node *next_node;
 4177              		.loc 1 938 5 is_stmt 1 view .LVU1130
 939:Core/Src/MazeLib.c ****     uint16_t compare_weight=0;
 4178              		.loc 1 939 5 view .LVU1131
 940:Core/Src/MazeLib.c ****     compare_weight = now_node->weight;
 4179              		.loc 1 940 5 view .LVU1132
 4180              		.loc 1 940 20 is_stmt 0 view .LVU1133
 4181 0008 B2F802C0 		ldrh	ip, [r2, #2]
 4182              	.LVL333:
 941:Core/Src/MazeLib.c **** 
 942:Core/Src/MazeLib.c ****     _Bool flag=false;
 4183              		.loc 1 942 5 is_stmt 1 view .LVU1134
 943:Core/Src/MazeLib.c ****     //printf("ãƒã‚¤ãƒãƒ¼ãƒ‰ãŒ01ã®ã©ã¡ã‚‰ã‹:%d\r\n",now_node->rc);
 944:Core/Src/MazeLib.c ****     if(now_node->rc == 0)
 4184              		.loc 1 944 5 view .LVU1135
 4185              		.loc 1 944 16 is_stmt 0 view .LVU1136
 4186 000c 5179     		ldrb	r1, [r2, #5]	@ zero_extendqisi2
 4187              	.LVL334:
 4188              		.loc 1 944 7 view .LVU1137
 4189 000e 0029     		cmp	r1, #0
 4190 0010 40F0AE80 		bne	.L281
 945:Core/Src/MazeLib.c ****     {
 946:Core/Src/MazeLib.c **** #if DEBUG_ON
 947:Core/Src/MazeLib.c ****         printf("è¡Œãƒãƒ¼ãƒ‰ã‹ã‚‰");
 948:Core/Src/MazeLib.c **** #endif
 949:Core/Src/MazeLib.c ****         //æ¡ä»¶ãŒãŠã‹ã—ã„ï¼Ÿprintã—ã¦ã„ã‚‹å…¨ãƒãƒ¼ãƒ‰ã®é‡ã¿ã¨ã€ã‚¢ãƒ‰ãƒ¬ã‚¹ã‚’å…¥ã‚Œ
 950:Core/Src/MazeLib.c **** 
 951:Core/Src/MazeLib.c ****         //è¡Œã«ã„ã‚‹ã¨ã
 952:Core/Src/MazeLib.c ****         //åŒ—å´ãƒãƒ¼ãƒ‰
 953:Core/Src/MazeLib.c ****         if(now_node->pos.y < NUMBER_OF_SQUARES_Y-1)					//ç¯„å›²ãƒã‚§ãƒƒã‚¯
 4191              		.loc 1 953 9 is_stmt 1 view .LVU1138
 4192              		.loc 1 953 25 is_stmt 0 view .LVU1139
 4193 0014 D279     		ldrb	r2, [r2, #7]	@ zero_extendqisi2
 4194              	.LVL335:
 4195              		.loc 1 953 11 view .LVU1140
 4196 0016 0E2A     		cmp	r2, #14
 4197 0018 1FD8     		bhi	.L282
 954:Core/Src/MazeLib.c ****         {
 955:Core/Src/MazeLib.c **** 
 956:Core/Src/MazeLib.c ****             //printf("%u\r\n",now_node->pos.y);
 957:Core/Src/MazeLib.c ****             if( (maze->RawNode[now_node->pos.x][now_node->pos.y+1].existence & mask) == NOWALL)	//å
 4198              		.loc 1 957 13 is_stmt 1 view .LVU1141
 4199              		.loc 1 957 45 is_stmt 0 view .LVU1142
 4200 001a 8679     		ldrb	r6, [r0, #6]	@ zero_extendqisi2
 4201              		.loc 1 957 64 view .LVU1143
 4202 001c 571C     		adds	r7, r2, #1
 4203              		.loc 1 957 67 view .LVU1144
 4204 001e 06EB0614 		add	r4, r6, r6, lsl #4
 4205 0022 3C44     		add	r4, r4, r7
 4206 0024 15F83440 		ldrb	r4, [r5, r4, lsl #3]	@ zero_extendqisi2
 4207              		.loc 1 957 15 view .LVU1145
 4208 0028 1C42     		tst	r4, r3
 4209 002a 16D1     		bne	.L282
 4210              	.LBB43:
ARM GAS  /var/folders/v_/kwz_t0cs68g1q1d733r227b80000gn/T//cc7enlx9.s 			page 108


 958:Core/Src/MazeLib.c ****             {
 959:Core/Src/MazeLib.c ****             	static int cnt = 1;
 4211              		.loc 1 959 14 is_stmt 1 view .LVU1146
 960:Core/Src/MazeLib.c **** //            				ChangeLED(cnt%7);
 961:Core/Src/MazeLib.c ****             				cnt ++;
 4212              		.loc 1 961 17 view .LVU1147
 4213              		.loc 1 961 21 is_stmt 0 view .LVU1148
 4214 002c DFF89C82 		ldr	r8, .L302
 4215 0030 D8F80040 		ldr	r4, [r8]
 4216 0034 0134     		adds	r4, r4, #1
 4217 0036 C8F80040 		str	r4, [r8]
 962:Core/Src/MazeLib.c **** 
 963:Core/Src/MazeLib.c **** 
 964:Core/Src/MazeLib.c ****                 // printf("%d\r\n", maze->RawNode[now_node->pos.x][now_node->pos.y+1].existence);//
 965:Core/Src/MazeLib.c ****                 if(compare_weight > maze->RawNode[now_node->pos.x][now_node->pos.y+1].weight)
 4218              		.loc 1 965 17 is_stmt 1 view .LVU1149
 4219              		.loc 1 965 86 is_stmt 0 view .LVU1150
 4220 003a 06EB0614 		add	r4, r6, r6, lsl #4
 4221 003e 3C44     		add	r4, r4, r7
 4222 0040 05EBC404 		add	r4, r5, r4, lsl #3
 4223 0044 6488     		ldrh	r4, [r4, #2]
 4224              		.loc 1 965 19 view .LVU1151
 4225 0046 6445     		cmp	r4, ip
 4226 0048 07D2     		bcs	.L282
 966:Core/Src/MazeLib.c ****                 {
 967:Core/Src/MazeLib.c **** 
 968:Core/Src/MazeLib.c **** #if DEBUG_ON
 969:Core/Src/MazeLib.c ****                     printf("åŒ—ã¸\r\n");
 970:Core/Src/MazeLib.c **** #endif
 971:Core/Src/MazeLib.c ****                     compare_weight = maze->RawNode[now_node->pos.x][now_node->pos.y+1].weight;
 4227              		.loc 1 971 21 is_stmt 1 view .LVU1152
 4228              	.LVL336:
 972:Core/Src/MazeLib.c ****                     next_node = &(maze->RawNode[now_node->pos.x][now_node->pos.y+1]);
 4229              		.loc 1 972 21 view .LVU1153
 4230              		.loc 1 972 31 is_stmt 0 view .LVU1154
 4231 004a 06EB0616 		add	r6, r6, r6, lsl #4
 4232 004e 06EB070E 		add	lr, r6, r7
 4233 0052 05EBCE0E 		add	lr, r5, lr, lsl #3
 4234              	.LVL337:
 973:Core/Src/MazeLib.c ****                     flag = true;
 4235              		.loc 1 973 21 is_stmt 1 view .LVU1155
 971:Core/Src/MazeLib.c ****                     next_node = &(maze->RawNode[now_node->pos.x][now_node->pos.y+1]);
 4236              		.loc 1 971 36 is_stmt 0 view .LVU1156
 4237 0056 A446     		mov	ip, r4
 4238              		.loc 1 973 26 view .LVU1157
 4239 0058 0121     		movs	r1, #1
 4240              	.LVL338:
 4241              	.L282:
 4242              		.loc 1 973 26 view .LVU1158
 4243              	.LBE43:
 974:Core/Src/MazeLib.c ****                 }
 975:Core/Src/MazeLib.c ****             }
 976:Core/Src/MazeLib.c ****         }
 977:Core/Src/MazeLib.c ****         //å—ã¸å´ãƒãƒ¼ãƒ‰
 978:Core/Src/MazeLib.c ****         if(now_node->pos.y > 1)						//ç¯„å›²ãƒã‚§ãƒƒã‚¯
 4244              		.loc 1 978 9 is_stmt 1 view .LVU1159
 4245              		.loc 1 978 11 is_stmt 0 view .LVU1160
ARM GAS  /var/folders/v_/kwz_t0cs68g1q1d733r227b80000gn/T//cc7enlx9.s 			page 109


 4246 005a 012A     		cmp	r2, #1
 4247 005c 18D9     		bls	.L283
 979:Core/Src/MazeLib.c ****         {
 980:Core/Src/MazeLib.c ****             if( (maze->RawNode[now_node->pos.x][now_node->pos.y-1].existence & mask) == NOWALL)	//å
 4248              		.loc 1 980 13 is_stmt 1 view .LVU1161
 4249              		.loc 1 980 45 is_stmt 0 view .LVU1162
 4250 005e 8479     		ldrb	r4, [r0, #6]	@ zero_extendqisi2
 4251              		.loc 1 980 64 view .LVU1163
 4252 0060 571E     		subs	r7, r2, #1
 4253              		.loc 1 980 67 view .LVU1164
 4254 0062 04EB0416 		add	r6, r4, r4, lsl #4
 4255 0066 3E44     		add	r6, r6, r7
 4256 0068 15F83660 		ldrb	r6, [r5, r6, lsl #3]	@ zero_extendqisi2
 4257              		.loc 1 980 15 view .LVU1165
 4258 006c 1E42     		tst	r6, r3
 4259 006e 0FD1     		bne	.L283
 981:Core/Src/MazeLib.c ****             {
 982:Core/Src/MazeLib.c ****                 //é‡ã¿ã‚’æ¯”è¼ƒã—ã¦æ›´æ–°
 983:Core/Src/MazeLib.c ****                 if(compare_weight > maze->RawNode[now_node->pos.x][now_node->pos.y-1].weight)
 4260              		.loc 1 983 17 is_stmt 1 view .LVU1166
 4261              		.loc 1 983 86 is_stmt 0 view .LVU1167
 4262 0070 04EB0416 		add	r6, r4, r4, lsl #4
 4263 0074 3E44     		add	r6, r6, r7
 4264 0076 05EBC606 		add	r6, r5, r6, lsl #3
 4265 007a 7688     		ldrh	r6, [r6, #2]
 4266              		.loc 1 983 19 view .LVU1168
 4267 007c 6645     		cmp	r6, ip
 4268 007e 07D2     		bcs	.L283
 984:Core/Src/MazeLib.c ****                 {
 985:Core/Src/MazeLib.c **** #if DEBUG_ON
 986:Core/Src/MazeLib.c ****                     printf("å—ã¸\r\n");
 987:Core/Src/MazeLib.c **** #endif
 988:Core/Src/MazeLib.c ****                     compare_weight = maze->RawNode[now_node->pos.x][now_node->pos.y-1].weight;
 4269              		.loc 1 988 21 is_stmt 1 view .LVU1169
 4270              	.LVL339:
 989:Core/Src/MazeLib.c ****                     next_node = &(maze->RawNode[now_node->pos.x][now_node->pos.y-1]);
 4271              		.loc 1 989 21 view .LVU1170
 4272              		.loc 1 989 31 is_stmt 0 view .LVU1171
 4273 0080 04EB0414 		add	r4, r4, r4, lsl #4
 4274 0084 04EB070E 		add	lr, r4, r7
 4275              	.LVL340:
 4276              		.loc 1 989 31 view .LVU1172
 4277 0088 05EBCE0E 		add	lr, r5, lr, lsl #3
 4278              	.LVL341:
 990:Core/Src/MazeLib.c ****                     flag = true;
 4279              		.loc 1 990 21 is_stmt 1 view .LVU1173
 988:Core/Src/MazeLib.c ****                     next_node = &(maze->RawNode[now_node->pos.x][now_node->pos.y-1]);
 4280              		.loc 1 988 36 is_stmt 0 view .LVU1174
 4281 008c B446     		mov	ip, r6
 4282              		.loc 1 990 26 view .LVU1175
 4283 008e 0121     		movs	r1, #1
 4284              	.LVL342:
 4285              	.L283:
 991:Core/Src/MazeLib.c ****                 }
 992:Core/Src/MazeLib.c ****             }
 993:Core/Src/MazeLib.c ****         }
 994:Core/Src/MazeLib.c ****         //æ±ã¸å´ã«æ–œã‚ãŒ2æ–¹å‘
ARM GAS  /var/folders/v_/kwz_t0cs68g1q1d733r227b80000gn/T//cc7enlx9.s 			page 110


 995:Core/Src/MazeLib.c ****         if(now_node->pos.x +1 < NUMBER_OF_SQUARES_X)					//ç¯„å›²ãƒã‚§ãƒƒã‚¯
 4286              		.loc 1 995 9 is_stmt 1 view .LVU1176
 4287              		.loc 1 995 25 is_stmt 0 view .LVU1177
 4288 0090 8479     		ldrb	r4, [r0, #6]	@ zero_extendqisi2
 4289              		.loc 1 995 11 view .LVU1178
 4290 0092 0E2C     		cmp	r4, #14
 4291 0094 34D8     		bhi	.L284
 996:Core/Src/MazeLib.c ****         {
 997:Core/Src/MazeLib.c ****             //åŒ—æ±ã¸
 998:Core/Src/MazeLib.c ****             if( (maze->ColumnNode[now_node->pos.x+1][now_node->pos.y].existence & mask) == NOWALL)	
 4292              		.loc 1 998 13 is_stmt 1 view .LVU1179
 4293              		.loc 1 998 50 is_stmt 0 view .LVU1180
 4294 0096 661C     		adds	r6, r4, #1
 4295              		.loc 1 998 70 view .LVU1181
 4296 0098 02EB0617 		add	r7, r2, r6, lsl #4
 4297 009c 07F58877 		add	r7, r7, #272
 4298 00a0 15F83770 		ldrb	r7, [r5, r7, lsl #3]	@ zero_extendqisi2
 4299              		.loc 1 998 15 view .LVU1182
 4300 00a4 1F42     		tst	r7, r3
 4301 00a6 10D1     		bne	.L285
 999:Core/Src/MazeLib.c ****             {
1000:Core/Src/MazeLib.c ****                 //é‡ã¿ã‚’æ¯”è¼ƒã—ã¦æ›´æ–°
1001:Core/Src/MazeLib.c ****                 if(compare_weight > maze->ColumnNode[now_node->pos.x+1][now_node->pos.y].weight)
 4302              		.loc 1 1001 17 is_stmt 1 view .LVU1183
 4303              		.loc 1 1001 89 is_stmt 0 view .LVU1184
 4304 00a8 02EB0617 		add	r7, r2, r6, lsl #4
 4305 00ac 07F58877 		add	r7, r7, #272
 4306 00b0 05EBC707 		add	r7, r5, r7, lsl #3
 4307 00b4 7F88     		ldrh	r7, [r7, #2]
 4308              		.loc 1 1001 19 view .LVU1185
 4309 00b6 6745     		cmp	r7, ip
 4310 00b8 07D2     		bcs	.L285
1002:Core/Src/MazeLib.c ****                 {
1003:Core/Src/MazeLib.c **** #if DEBUG_ON
1004:Core/Src/MazeLib.c ****                     printf("åŒ—æ±ã¸\r\n");
1005:Core/Src/MazeLib.c **** #endif
1006:Core/Src/MazeLib.c ****                     compare_weight = maze->ColumnNode[now_node->pos.x+1][now_node->pos.y].weight;
 4311              		.loc 1 1006 21 is_stmt 1 view .LVU1186
 4312              	.LVL343:
1007:Core/Src/MazeLib.c ****                     next_node = &(maze->ColumnNode[now_node->pos.x+1][now_node->pos.y]);
 4313              		.loc 1 1007 21 view .LVU1187
 4314              		.loc 1 1007 31 is_stmt 0 view .LVU1188
 4315 00ba 02EB061E 		add	lr, r2, r6, lsl #4
 4316              	.LVL344:
 4317              		.loc 1 1007 31 view .LVU1189
 4318 00be 0EF5887E 		add	lr, lr, #272
 4319 00c2 05EBCE0E 		add	lr, r5, lr, lsl #3
 4320              	.LVL345:
1008:Core/Src/MazeLib.c ****                     flag = true;
 4321              		.loc 1 1008 21 is_stmt 1 view .LVU1190
1006:Core/Src/MazeLib.c ****                     next_node = &(maze->ColumnNode[now_node->pos.x+1][now_node->pos.y]);
 4322              		.loc 1 1006 36 is_stmt 0 view .LVU1191
 4323 00c6 BC46     		mov	ip, r7
 4324              		.loc 1 1008 26 view .LVU1192
 4325 00c8 0121     		movs	r1, #1
 4326              	.LVL346:
 4327              	.L285:
ARM GAS  /var/folders/v_/kwz_t0cs68g1q1d733r227b80000gn/T//cc7enlx9.s 			page 111


1009:Core/Src/MazeLib.c ****                 }
1010:Core/Src/MazeLib.c ****             }
1011:Core/Src/MazeLib.c **** 
1012:Core/Src/MazeLib.c ****             //å—ã¸æ±ã¸
1013:Core/Src/MazeLib.c ****             if( (maze->ColumnNode[now_node->pos.x+1][now_node->pos.y-1].existence & mask) == NOWALL
 4328              		.loc 1 1013 13 is_stmt 1 view .LVU1193
 4329              		.loc 1 1013 69 is_stmt 0 view .LVU1194
 4330 00ca 02F1FF38 		add	r8, r2, #-1
 4331              		.loc 1 1013 72 view .LVU1195
 4332 00ce 08EB0617 		add	r7, r8, r6, lsl #4
 4333 00d2 07F58877 		add	r7, r7, #272
 4334 00d6 15F83770 		ldrb	r7, [r5, r7, lsl #3]	@ zero_extendqisi2
 4335              		.loc 1 1013 15 view .LVU1196
 4336 00da 1F42     		tst	r7, r3
 4337 00dc 10D1     		bne	.L284
1014:Core/Src/MazeLib.c ****             {
1015:Core/Src/MazeLib.c ****                 //é‡ã¿ã‚’æ¯”è¼ƒã—ã¦æ›´æ–°
1016:Core/Src/MazeLib.c ****                 if(compare_weight > maze->ColumnNode[now_node->pos.x+1][now_node->pos.y-1].weight)
 4338              		.loc 1 1016 17 is_stmt 1 view .LVU1197
 4339              		.loc 1 1016 91 is_stmt 0 view .LVU1198
 4340 00de 08EB0617 		add	r7, r8, r6, lsl #4
 4341 00e2 07F58877 		add	r7, r7, #272
 4342 00e6 05EBC707 		add	r7, r5, r7, lsl #3
 4343 00ea 7F88     		ldrh	r7, [r7, #2]
 4344              		.loc 1 1016 19 view .LVU1199
 4345 00ec 6745     		cmp	r7, ip
 4346 00ee 07D2     		bcs	.L284
1017:Core/Src/MazeLib.c ****                 {
1018:Core/Src/MazeLib.c **** #if DEBUG_ON
1019:Core/Src/MazeLib.c ****                     printf("å—æ±ã¸\r\n");
1020:Core/Src/MazeLib.c **** #endif
1021:Core/Src/MazeLib.c ****                     compare_weight = maze->ColumnNode[now_node->pos.x+1][now_node->pos.y-1].weight;
 4347              		.loc 1 1021 21 is_stmt 1 view .LVU1200
 4348              	.LVL347:
1022:Core/Src/MazeLib.c ****                     next_node = &(maze->ColumnNode[now_node->pos.x+1][now_node->pos.y-1]);
 4349              		.loc 1 1022 21 view .LVU1201
 4350              		.loc 1 1022 31 is_stmt 0 view .LVU1202
 4351 00f0 08EB061E 		add	lr, r8, r6, lsl #4
 4352              	.LVL348:
 4353              		.loc 1 1022 31 view .LVU1203
 4354 00f4 0EF5887E 		add	lr, lr, #272
 4355 00f8 05EBCE0E 		add	lr, r5, lr, lsl #3
 4356              	.LVL349:
1023:Core/Src/MazeLib.c ****                     flag = true;
 4357              		.loc 1 1023 21 is_stmt 1 view .LVU1204
1021:Core/Src/MazeLib.c ****                     next_node = &(maze->ColumnNode[now_node->pos.x+1][now_node->pos.y-1]);
 4358              		.loc 1 1021 36 is_stmt 0 view .LVU1205
 4359 00fc BC46     		mov	ip, r7
 4360              		.loc 1 1023 26 view .LVU1206
 4361 00fe 0121     		movs	r1, #1
 4362              	.LVL350:
 4363              	.L284:
1024:Core/Src/MazeLib.c ****                 }
1025:Core/Src/MazeLib.c ****             }
1026:Core/Src/MazeLib.c ****         }
1027:Core/Src/MazeLib.c **** 
1028:Core/Src/MazeLib.c ****         //è¥¿ã¸å´ã«æ–œã‚ãŒ2æ–¹å‘
ARM GAS  /var/folders/v_/kwz_t0cs68g1q1d733r227b80000gn/T//cc7enlx9.s 			page 112


1029:Core/Src/MazeLib.c ****         if(now_node->pos.x > 0)						//ç¯„å›²ãƒã‚§ãƒƒã‚¯
 4364              		.loc 1 1029 9 is_stmt 1 view .LVU1207
 4365              		.loc 1 1029 11 is_stmt 0 view .LVU1208
 4366 0100 002C     		cmp	r4, #0
 4367 0102 00F0DD80 		beq	.L286
1030:Core/Src/MazeLib.c ****         {
1031:Core/Src/MazeLib.c ****             //åŒ—è¥¿ã¸
1032:Core/Src/MazeLib.c ****             if( (maze->ColumnNode[now_node->pos.x][now_node->pos.y].existence & mask) == NOWALL)		/
 4368              		.loc 1 1032 13 is_stmt 1 view .LVU1209
 4369              		.loc 1 1032 68 is_stmt 0 view .LVU1210
 4370 0106 02EB0416 		add	r6, r2, r4, lsl #4
 4371 010a 06F58876 		add	r6, r6, #272
 4372 010e 15F83660 		ldrb	r6, [r5, r6, lsl #3]	@ zero_extendqisi2
 4373              		.loc 1 1032 15 view .LVU1211
 4374 0112 1E42     		tst	r6, r3
 4375 0114 10D1     		bne	.L287
1033:Core/Src/MazeLib.c ****             {
1034:Core/Src/MazeLib.c ****                 //é‡ã¿ã‚’æ¯”è¼ƒã—ã¦æ›´æ–°
1035:Core/Src/MazeLib.c **** 
1036:Core/Src/MazeLib.c ****                 if(compare_weight > maze->ColumnNode[now_node->pos.x][now_node->pos.y].weight)
 4376              		.loc 1 1036 17 is_stmt 1 view .LVU1212
 4377              		.loc 1 1036 87 is_stmt 0 view .LVU1213
 4378 0116 02EB0416 		add	r6, r2, r4, lsl #4
 4379 011a 06F58876 		add	r6, r6, #272
 4380 011e 05EBC606 		add	r6, r5, r6, lsl #3
 4381 0122 7688     		ldrh	r6, [r6, #2]
 4382              		.loc 1 1036 19 view .LVU1214
 4383 0124 6645     		cmp	r6, ip
 4384 0126 07D2     		bcs	.L287
1037:Core/Src/MazeLib.c ****                 {
1038:Core/Src/MazeLib.c **** #if DEBUG_ON
1039:Core/Src/MazeLib.c ****                     printf("åŒ—è¥¿ã¸\r\n");
1040:Core/Src/MazeLib.c **** #endif
1041:Core/Src/MazeLib.c ****                     compare_weight = maze->ColumnNode[now_node->pos.x][now_node->pos.y].weight;
 4385              		.loc 1 1041 21 is_stmt 1 view .LVU1215
 4386              	.LVL351:
1042:Core/Src/MazeLib.c ****                     next_node = &(maze->ColumnNode[now_node->pos.x][now_node->pos.y]);
 4387              		.loc 1 1042 21 view .LVU1216
 4388              		.loc 1 1042 31 is_stmt 0 view .LVU1217
 4389 0128 02EB041E 		add	lr, r2, r4, lsl #4
 4390              	.LVL352:
 4391              		.loc 1 1042 31 view .LVU1218
 4392 012c 0EF5887E 		add	lr, lr, #272
 4393 0130 05EBCE0E 		add	lr, r5, lr, lsl #3
 4394              	.LVL353:
1043:Core/Src/MazeLib.c ****                     flag = true;
 4395              		.loc 1 1043 21 is_stmt 1 view .LVU1219
1041:Core/Src/MazeLib.c ****                     next_node = &(maze->ColumnNode[now_node->pos.x][now_node->pos.y]);
 4396              		.loc 1 1041 36 is_stmt 0 view .LVU1220
 4397 0134 B446     		mov	ip, r6
 4398              		.loc 1 1043 26 view .LVU1221
 4399 0136 0121     		movs	r1, #1
 4400              	.LVL354:
 4401              	.L287:
1044:Core/Src/MazeLib.c ****                 }
1045:Core/Src/MazeLib.c ****             }
1046:Core/Src/MazeLib.c ****             //å—ã¸è¥¿ã¸
ARM GAS  /var/folders/v_/kwz_t0cs68g1q1d733r227b80000gn/T//cc7enlx9.s 			page 113


1047:Core/Src/MazeLib.c ****             if( (maze->ColumnNode[now_node->pos.x][now_node->pos.y-1].existence & mask) == NOWALL)	
 4402              		.loc 1 1047 13 is_stmt 1 view .LVU1222
 4403              		.loc 1 1047 67 is_stmt 0 view .LVU1223
 4404 0138 013A     		subs	r2, r2, #1
 4405              		.loc 1 1047 70 view .LVU1224
 4406 013a 02EB0416 		add	r6, r2, r4, lsl #4
 4407 013e 06F58876 		add	r6, r6, #272
 4408 0142 15F83660 		ldrb	r6, [r5, r6, lsl #3]	@ zero_extendqisi2
 4409              		.loc 1 1047 15 view .LVU1225
 4410 0146 1E42     		tst	r6, r3
 4411 0148 40F0BA80 		bne	.L286
1048:Core/Src/MazeLib.c ****             {
1049:Core/Src/MazeLib.c ****                 //é‡ã¿ã‚’æ¯”è¼ƒã—ã¦æ›´æ–°
1050:Core/Src/MazeLib.c ****                 if(compare_weight > maze->ColumnNode[now_node->pos.x][now_node->pos.y-1].weight)
 4412              		.loc 1 1050 17 is_stmt 1 view .LVU1226
 4413              		.loc 1 1050 89 is_stmt 0 view .LVU1227
 4414 014c 02EB0413 		add	r3, r2, r4, lsl #4
 4415              	.LVL355:
 4416              		.loc 1 1050 89 view .LVU1228
 4417 0150 03F58873 		add	r3, r3, #272
 4418 0154 05EBC303 		add	r3, r5, r3, lsl #3
 4419 0158 5B88     		ldrh	r3, [r3, #2]
 4420              		.loc 1 1050 19 view .LVU1229
 4421 015a 6345     		cmp	r3, ip
 4422 015c 80F0B080 		bcs	.L286
1051:Core/Src/MazeLib.c ****                 {
1052:Core/Src/MazeLib.c **** #if DEBUG_ON
1053:Core/Src/MazeLib.c ****                     printf("å—è¥¿ã¸\r\n");
1054:Core/Src/MazeLib.c **** #endif
1055:Core/Src/MazeLib.c ****                     compare_weight = maze->ColumnNode[now_node->pos.x][now_node->pos.y-1].weight;
 4423              		.loc 1 1055 21 is_stmt 1 view .LVU1230
 4424              	.LVL356:
1056:Core/Src/MazeLib.c ****                     next_node = &(maze->ColumnNode[now_node->pos.x][now_node->pos.y-1]);
 4425              		.loc 1 1056 21 view .LVU1231
 4426              		.loc 1 1056 31 is_stmt 0 view .LVU1232
 4427 0160 02EB0412 		add	r2, r2, r4, lsl #4
 4428 0164 02F5887E 		add	lr, r2, #272
 4429              	.LVL357:
 4430              		.loc 1 1056 31 view .LVU1233
 4431 0168 05EBCE0E 		add	lr, r5, lr, lsl #3
 4432              	.LVL358:
1057:Core/Src/MazeLib.c ****                     //ã“ã®ãƒãƒ¼ãƒ‰ã‚ã‚„ã—ã„
1058:Core/Src/MazeLib.c ****                     flag = true;
 4433              		.loc 1 1058 21 is_stmt 1 view .LVU1234
1059:Core/Src/MazeLib.c ****                 }
1060:Core/Src/MazeLib.c ****             }
1061:Core/Src/MazeLib.c ****         }
1062:Core/Src/MazeLib.c ****         //6ã¤ã®ã†ã¡æœ€å°ãƒãƒ¼ãƒ‰ã‚’é¸ã¶
1063:Core/Src/MazeLib.c ****     }
1064:Core/Src/MazeLib.c ****     else if(now_node->rc == 1)
1065:Core/Src/MazeLib.c ****     {
1066:Core/Src/MazeLib.c ****         //printf("åˆ—ã«ã„ã‚‹\r\n");
1067:Core/Src/MazeLib.c ****         //åˆ—ã«ã„ã‚‹ã¨ã
1068:Core/Src/MazeLib.c **** #if DEBUG_ON
1069:Core/Src/MazeLib.c ****         printf("åˆ—ãƒãƒ¼ãƒ‰ã‹ã‚‰");
1070:Core/Src/MazeLib.c **** #endif
1071:Core/Src/MazeLib.c ****         //æ±ã¸å´ãƒãƒ¼ãƒ‰
ARM GAS  /var/folders/v_/kwz_t0cs68g1q1d733r227b80000gn/T//cc7enlx9.s 			page 114


1072:Core/Src/MazeLib.c ****         if(now_node->pos.x < NUMBER_OF_SQUARES_X-1)					//ç¯„å›²ãƒã‚§ãƒƒã‚¯
1073:Core/Src/MazeLib.c ****         {
1074:Core/Src/MazeLib.c ****             if( (maze->ColumnNode[now_node->pos.x+1][now_node->pos.y].existence & mask) == NOWALL)	
1075:Core/Src/MazeLib.c ****             {
1076:Core/Src/MazeLib.c ****                 if(compare_weight > maze->ColumnNode[now_node->pos.x+1][now_node->pos.y].weight)
1077:Core/Src/MazeLib.c ****                 {
1078:Core/Src/MazeLib.c **** #if DEBUG_ON
1079:Core/Src/MazeLib.c ****                     printf("æ±ã¸\r\n");
1080:Core/Src/MazeLib.c **** #endif
1081:Core/Src/MazeLib.c ****                     //
1082:Core/Src/MazeLib.c **** //                    ChangeLED(2);
1083:Core/Src/MazeLib.c ****                     compare_weight = maze->ColumnNode[now_node->pos.x+1][now_node->pos.y].weight;
1084:Core/Src/MazeLib.c ****                     next_node = &(maze->ColumnNode[now_node->pos.x+1][now_node->pos.y]);
1085:Core/Src/MazeLib.c ****                     flag = true;
1086:Core/Src/MazeLib.c ****                 }
1087:Core/Src/MazeLib.c ****             }
1088:Core/Src/MazeLib.c ****         }
1089:Core/Src/MazeLib.c ****         //è¥¿ã¸å´ãƒãƒ¼ãƒ‰
1090:Core/Src/MazeLib.c ****         if(now_node->pos.x > 1)						//ç¯„å›²ãƒã‚§ãƒƒã‚¯
1091:Core/Src/MazeLib.c ****         {
1092:Core/Src/MazeLib.c ****             if( (maze->ColumnNode[now_node->pos.x-1][now_node->pos.y].existence & mask) == NOWALL)	
1093:Core/Src/MazeLib.c ****             {
1094:Core/Src/MazeLib.c ****                 //é‡ã¿ã‚’æ¯”è¼ƒã—ã¦æ›´æ–°
1095:Core/Src/MazeLib.c ****                 if(compare_weight > maze->ColumnNode[now_node->pos.x-1][now_node->pos.y].weight)
1096:Core/Src/MazeLib.c ****                 {
1097:Core/Src/MazeLib.c **** //                	ChangeLED(3);
1098:Core/Src/MazeLib.c **** #if DEBUG_ON
1099:Core/Src/MazeLib.c ****                     printf("è¥¿ã¸\r\n");
1100:Core/Src/MazeLib.c **** #endif
1101:Core/Src/MazeLib.c ****                     compare_weight = maze->ColumnNode[now_node->pos.x-1][now_node->pos.y].weight;
1102:Core/Src/MazeLib.c ****                     next_node = &(maze->ColumnNode[now_node->pos.x-1][now_node->pos.y]);
1103:Core/Src/MazeLib.c ****                     flag = true;
1104:Core/Src/MazeLib.c ****                 }
1105:Core/Src/MazeLib.c ****             }
1106:Core/Src/MazeLib.c ****         }
1107:Core/Src/MazeLib.c ****         //åŒ—å´ã«æ–œã‚ãŒ2æ–¹å‘
1108:Core/Src/MazeLib.c ****         if(now_node->pos.y < NUMBER_OF_SQUARES_Y-1)					//ç¯„å›²ãƒã‚§ãƒƒã‚¯
1109:Core/Src/MazeLib.c ****         {
1110:Core/Src/MazeLib.c ****             //åŒ—æ±ã¸
1111:Core/Src/MazeLib.c ****             if( (maze->RawNode[now_node->pos.x][now_node->pos.y+1].existence & mask) == NOWALL)		//
1112:Core/Src/MazeLib.c ****             {
1113:Core/Src/MazeLib.c ****                 //é‡ã¿ã‚’æ¯”è¼ƒã—ã¦æ›´æ–°
1114:Core/Src/MazeLib.c ****                 if(compare_weight > maze->RawNode[now_node->pos.x][now_node->pos.y+1].weight)
1115:Core/Src/MazeLib.c ****                 {
1116:Core/Src/MazeLib.c **** //                	ChangeLED(4);
1117:Core/Src/MazeLib.c **** #if DEBUG_ON
1118:Core/Src/MazeLib.c ****                     printf("åŒ—æ±ã¸\r\n");
1119:Core/Src/MazeLib.c **** #endif
1120:Core/Src/MazeLib.c ****                     compare_weight = maze->RawNode[now_node->pos.x][now_node->pos.y+1].weight;
1121:Core/Src/MazeLib.c ****                     next_node = &(maze->RawNode[now_node->pos.x][now_node->pos.y+1]);
1122:Core/Src/MazeLib.c ****                     flag = true;
1123:Core/Src/MazeLib.c ****                 }
1124:Core/Src/MazeLib.c ****             }
1125:Core/Src/MazeLib.c **** 
1126:Core/Src/MazeLib.c ****             //åŒ—è¥¿ã¸
1127:Core/Src/MazeLib.c ****             if( (maze->RawNode[now_node->pos.x-1][now_node->pos.y+1].existence & mask) == NOWALL)		
1128:Core/Src/MazeLib.c ****             {
ARM GAS  /var/folders/v_/kwz_t0cs68g1q1d733r227b80000gn/T//cc7enlx9.s 			page 115


1129:Core/Src/MazeLib.c ****                 //é‡ã¿ã‚’æ¯”è¼ƒã—ã¦æ›´æ–°
1130:Core/Src/MazeLib.c ****                 if(compare_weight > maze->RawNode[now_node->pos.x-1][now_node->pos.y+1].weight)
1131:Core/Src/MazeLib.c ****                 {
1132:Core/Src/MazeLib.c **** #if DEBUG_ON
1133:Core/Src/MazeLib.c ****                     printf("åŒ—è¥¿ã¸\r\n");
1134:Core/Src/MazeLib.c **** #endif
1135:Core/Src/MazeLib.c **** //                    ChangeLED(5);
1136:Core/Src/MazeLib.c ****                     compare_weight = maze->RawNode[now_node->pos.x-1][now_node->pos.y+1].weight;
1137:Core/Src/MazeLib.c ****                     next_node = &(maze->RawNode[now_node->pos.x-1][now_node->pos.y+1]);
1138:Core/Src/MazeLib.c ****                     flag = true;
1139:Core/Src/MazeLib.c ****                 }
1140:Core/Src/MazeLib.c ****             }
1141:Core/Src/MazeLib.c ****         }
1142:Core/Src/MazeLib.c **** 
1143:Core/Src/MazeLib.c ****         //å—ã¸å´ã«æ–œã‚ãŒ2æ–¹å‘
1144:Core/Src/MazeLib.c ****         if(now_node->pos.y > 0)						//ç¯„å›²ãƒã‚§ãƒƒã‚¯
1145:Core/Src/MazeLib.c ****         {
1146:Core/Src/MazeLib.c ****             //å—ã¸æ±ã¸
1147:Core/Src/MazeLib.c ****             if( (maze->RawNode[now_node->pos.x][now_node->pos.y].existence & mask) == NOWALL)		//å£
1148:Core/Src/MazeLib.c ****             {
1149:Core/Src/MazeLib.c ****                 //é‡ã¿ã‚’æ¯”è¼ƒã—ã¦æ›´æ–°
1150:Core/Src/MazeLib.c ****                 if(compare_weight > maze->RawNode[now_node->pos.x][now_node->pos.y].weight)
1151:Core/Src/MazeLib.c ****                 {
1152:Core/Src/MazeLib.c ****                 	//äºŒå›ç›®ã«ã“ã“ãŒé¸ã°ã‚Œã¦ã„ã‚‹
1153:Core/Src/MazeLib.c **** //                	ChangeLED(2);
1154:Core/Src/MazeLib.c **** #if DEBUG_ON
1155:Core/Src/MazeLib.c ****                     printf("å—æ±ã¸\r\n");
1156:Core/Src/MazeLib.c **** #endif
1157:Core/Src/MazeLib.c ****                     compare_weight = maze->RawNode[now_node->pos.x][now_node->pos.y].weight;
1158:Core/Src/MazeLib.c ****                     next_node = &(maze->RawNode[now_node->pos.x][now_node->pos.y]);
1159:Core/Src/MazeLib.c ****                     flag = true;
1160:Core/Src/MazeLib.c ****                 }
1161:Core/Src/MazeLib.c ****             }
1162:Core/Src/MazeLib.c ****             //å—ã¸è¥¿ã¸
1163:Core/Src/MazeLib.c ****             if( (maze->RawNode[now_node->pos.x-1][now_node->pos.y].existence & mask) == NOWALL)		//
1164:Core/Src/MazeLib.c ****             {
1165:Core/Src/MazeLib.c ****                 //é‡ã¿ã‚’æ¯”è¼ƒã—ã¦æ›´æ–°
1166:Core/Src/MazeLib.c ****                 if(compare_weight > maze->RawNode[now_node->pos.x-1][now_node->pos.y].weight)
1167:Core/Src/MazeLib.c ****                 {
1168:Core/Src/MazeLib.c **** #if DEBUG_ON
1169:Core/Src/MazeLib.c ****                     printf("å—è¥¿ã¸\r\n");
1170:Core/Src/MazeLib.c **** #endif
1171:Core/Src/MazeLib.c ****                     compare_weight = maze->RawNode[now_node->pos.x-1][now_node->pos.y].weight;
1172:Core/Src/MazeLib.c ****                     next_node = &(maze->RawNode[now_node->pos.x-1][now_node->pos.y]);
1173:Core/Src/MazeLib.c ****                     flag = true;
1174:Core/Src/MazeLib.c ****                 }
1175:Core/Src/MazeLib.c ****             }
1176:Core/Src/MazeLib.c ****         }
1177:Core/Src/MazeLib.c ****     }
1178:Core/Src/MazeLib.c ****     //next_node = now_node;
1179:Core/Src/MazeLib.c ****     //printf("ãƒãƒ¼ãƒ‰æ›´æ–°ç„¡ã—\r\n\r\n");
1180:Core/Src/MazeLib.c ****     if(flag == true)
 4434              		.loc 1 1180 5 view .LVU1235
 4435              	.L288:
1181:Core/Src/MazeLib.c ****     {
1182:Core/Src/MazeLib.c **** //    	ChangeLED(7);
1183:Core/Src/MazeLib.c **** #if DEBUG_ON
ARM GAS  /var/folders/v_/kwz_t0cs68g1q1d733r227b80000gn/T//cc7enlx9.s 			page 116


1184:Core/Src/MazeLib.c ****         printf("ãƒãƒ¼ãƒ‰æ›´æ–°æœ‰ã‚Š:%p\r\n", next_node);
1185:Core/Src/MazeLib.c **** #endif
1186:Core/Src/MazeLib.c ****         return next_node;
 4436              		.loc 1 1186 9 view .LVU1236
 4437              		.loc 1 1186 16 is_stmt 0 view .LVU1237
 4438 016c 7046     		mov	r0, lr
 4439              	.LVL359:
 4440              		.loc 1 1186 16 view .LVU1238
 4441 016e AAE0     		b	.L294
 4442              	.LVL360:
 4443              	.L281:
1064:Core/Src/MazeLib.c ****     {
 4444              		.loc 1 1064 10 is_stmt 1 view .LVU1239
1072:Core/Src/MazeLib.c ****         {
 4445              		.loc 1 1072 9 view .LVU1240
1072:Core/Src/MazeLib.c ****         {
 4446              		.loc 1 1072 25 is_stmt 0 view .LVU1241
 4447 0170 9279     		ldrb	r2, [r2, #6]	@ zero_extendqisi2
1072:Core/Src/MazeLib.c ****         {
 4448              		.loc 1 1072 11 view .LVU1242
 4449 0172 0E2A     		cmp	r2, #14
 4450 0174 1BD8     		bhi	.L295
1074:Core/Src/MazeLib.c ****             {
 4451              		.loc 1 1074 13 is_stmt 1 view .LVU1243
1074:Core/Src/MazeLib.c ****             {
 4452              		.loc 1 1074 50 is_stmt 0 view .LVU1244
 4453 0176 571C     		adds	r7, r2, #1
1074:Core/Src/MazeLib.c ****             {
 4454              		.loc 1 1074 67 view .LVU1245
 4455 0178 C679     		ldrb	r6, [r0, #7]	@ zero_extendqisi2
1074:Core/Src/MazeLib.c ****             {
 4456              		.loc 1 1074 70 view .LVU1246
 4457 017a 06EB0714 		add	r4, r6, r7, lsl #4
 4458 017e 04F58874 		add	r4, r4, #272
 4459 0182 15F83440 		ldrb	r4, [r5, r4, lsl #3]	@ zero_extendqisi2
1074:Core/Src/MazeLib.c ****             {
 4460              		.loc 1 1074 15 view .LVU1247
 4461 0186 1C42     		tst	r4, r3
 4462 0188 7CD1     		bne	.L296
1076:Core/Src/MazeLib.c ****                 {
 4463              		.loc 1 1076 17 is_stmt 1 view .LVU1248
1076:Core/Src/MazeLib.c ****                 {
 4464              		.loc 1 1076 89 is_stmt 0 view .LVU1249
 4465 018a 06EB0714 		add	r4, r6, r7, lsl #4
 4466 018e 04F58874 		add	r4, r4, #272
 4467 0192 05EBC404 		add	r4, r5, r4, lsl #3
 4468 0196 6488     		ldrh	r4, [r4, #2]
1076:Core/Src/MazeLib.c ****                 {
 4469              		.loc 1 1076 19 view .LVU1250
 4470 0198 6445     		cmp	r4, ip
 4471 019a 75D2     		bcs	.L297
1083:Core/Src/MazeLib.c ****                     next_node = &(maze->ColumnNode[now_node->pos.x+1][now_node->pos.y]);
 4472              		.loc 1 1083 21 is_stmt 1 view .LVU1251
 4473              	.LVL361:
1084:Core/Src/MazeLib.c ****                     flag = true;
 4474              		.loc 1 1084 21 view .LVU1252
1084:Core/Src/MazeLib.c ****                     flag = true;
ARM GAS  /var/folders/v_/kwz_t0cs68g1q1d733r227b80000gn/T//cc7enlx9.s 			page 117


 4475              		.loc 1 1084 31 is_stmt 0 view .LVU1253
 4476 019c 06EB071E 		add	lr, r6, r7, lsl #4
 4477 01a0 0EF5887E 		add	lr, lr, #272
 4478 01a4 05EBCE0E 		add	lr, r5, lr, lsl #3
 4479              	.LVL362:
1085:Core/Src/MazeLib.c ****                 }
 4480              		.loc 1 1085 21 is_stmt 1 view .LVU1254
1085:Core/Src/MazeLib.c ****                 }
 4481              		.loc 1 1085 26 is_stmt 0 view .LVU1255
 4482 01a8 0F46     		mov	r7, r1
1083:Core/Src/MazeLib.c ****                     next_node = &(maze->ColumnNode[now_node->pos.x+1][now_node->pos.y]);
 4483              		.loc 1 1083 36 view .LVU1256
 4484 01aa A446     		mov	ip, r4
 4485 01ac 00E0     		b	.L289
 4486              	.LVL363:
 4487              	.L295:
 942:Core/Src/MazeLib.c ****     //printf("ãƒã‚¤ãƒãƒ¼ãƒ‰ãŒ01ã®ã©ã¡ã‚‰ã‹:%d\r\n",now_node->rc);
 4488              		.loc 1 942 11 view .LVU1257
 4489 01ae 0027     		movs	r7, #0
 4490              	.LVL364:
 4491              	.L289:
1090:Core/Src/MazeLib.c ****         {
 4492              		.loc 1 1090 9 is_stmt 1 view .LVU1258
1090:Core/Src/MazeLib.c ****         {
 4493              		.loc 1 1090 11 is_stmt 0 view .LVU1259
 4494 01b0 012A     		cmp	r2, #1
 4495 01b2 1BD9     		bls	.L290
1092:Core/Src/MazeLib.c ****             {
 4496              		.loc 1 1092 13 is_stmt 1 view .LVU1260
1092:Core/Src/MazeLib.c ****             {
 4497              		.loc 1 1092 50 is_stmt 0 view .LVU1261
 4498 01b4 02F1FF38 		add	r8, r2, #-1
1092:Core/Src/MazeLib.c ****             {
 4499              		.loc 1 1092 67 view .LVU1262
 4500 01b8 C679     		ldrb	r6, [r0, #7]	@ zero_extendqisi2
1092:Core/Src/MazeLib.c ****             {
 4501              		.loc 1 1092 70 view .LVU1263
 4502 01ba 06EB0814 		add	r4, r6, r8, lsl #4
 4503 01be 04F58874 		add	r4, r4, #272
 4504 01c2 15F83440 		ldrb	r4, [r5, r4, lsl #3]	@ zero_extendqisi2
1092:Core/Src/MazeLib.c ****             {
 4505              		.loc 1 1092 15 view .LVU1264
 4506 01c6 1C42     		tst	r4, r3
 4507 01c8 10D1     		bne	.L290
1095:Core/Src/MazeLib.c ****                 {
 4508              		.loc 1 1095 17 is_stmt 1 view .LVU1265
1095:Core/Src/MazeLib.c ****                 {
 4509              		.loc 1 1095 89 is_stmt 0 view .LVU1266
 4510 01ca 06EB0814 		add	r4, r6, r8, lsl #4
 4511 01ce 04F58874 		add	r4, r4, #272
 4512 01d2 05EBC404 		add	r4, r5, r4, lsl #3
 4513 01d6 6488     		ldrh	r4, [r4, #2]
1095:Core/Src/MazeLib.c ****                 {
 4514              		.loc 1 1095 19 view .LVU1267
 4515 01d8 6445     		cmp	r4, ip
 4516 01da 07D2     		bcs	.L290
1101:Core/Src/MazeLib.c ****                     next_node = &(maze->ColumnNode[now_node->pos.x-1][now_node->pos.y]);
ARM GAS  /var/folders/v_/kwz_t0cs68g1q1d733r227b80000gn/T//cc7enlx9.s 			page 118


 4517              		.loc 1 1101 21 is_stmt 1 view .LVU1268
 4518              	.LVL365:
1102:Core/Src/MazeLib.c ****                     flag = true;
 4519              		.loc 1 1102 21 view .LVU1269
1102:Core/Src/MazeLib.c ****                     flag = true;
 4520              		.loc 1 1102 31 is_stmt 0 view .LVU1270
 4521 01dc 06EB081E 		add	lr, r6, r8, lsl #4
 4522              	.LVL366:
1102:Core/Src/MazeLib.c ****                     flag = true;
 4523              		.loc 1 1102 31 view .LVU1271
 4524 01e0 0EF5887E 		add	lr, lr, #272
 4525 01e4 05EBCE0E 		add	lr, r5, lr, lsl #3
 4526              	.LVL367:
1103:Core/Src/MazeLib.c ****                 }
 4527              		.loc 1 1103 21 is_stmt 1 view .LVU1272
1103:Core/Src/MazeLib.c ****                 }
 4528              		.loc 1 1103 26 is_stmt 0 view .LVU1273
 4529 01e8 0F46     		mov	r7, r1
1101:Core/Src/MazeLib.c ****                     next_node = &(maze->ColumnNode[now_node->pos.x-1][now_node->pos.y]);
 4530              		.loc 1 1101 36 view .LVU1274
 4531 01ea A446     		mov	ip, r4
 4532              	.LVL368:
 4533              	.L290:
1108:Core/Src/MazeLib.c ****         {
 4534              		.loc 1 1108 9 is_stmt 1 view .LVU1275
1108:Core/Src/MazeLib.c ****         {
 4535              		.loc 1 1108 25 is_stmt 0 view .LVU1276
 4536 01ec C479     		ldrb	r4, [r0, #7]	@ zero_extendqisi2
1108:Core/Src/MazeLib.c ****         {
 4537              		.loc 1 1108 11 view .LVU1277
 4538 01ee 0E2C     		cmp	r4, #14
 4539 01f0 31D8     		bhi	.L291
1111:Core/Src/MazeLib.c ****             {
 4540              		.loc 1 1111 13 is_stmt 1 view .LVU1278
1111:Core/Src/MazeLib.c ****             {
 4541              		.loc 1 1111 64 is_stmt 0 view .LVU1279
 4542 01f2 04F10108 		add	r8, r4, #1
1111:Core/Src/MazeLib.c ****             {
 4543              		.loc 1 1111 67 view .LVU1280
 4544 01f6 02EB0216 		add	r6, r2, r2, lsl #4
 4545 01fa 4644     		add	r6, r6, r8
 4546 01fc 15F83660 		ldrb	r6, [r5, r6, lsl #3]	@ zero_extendqisi2
1111:Core/Src/MazeLib.c ****             {
 4547              		.loc 1 1111 15 view .LVU1281
 4548 0200 1E42     		tst	r6, r3
 4549 0202 0ED1     		bne	.L292
1114:Core/Src/MazeLib.c ****                 {
 4550              		.loc 1 1114 17 is_stmt 1 view .LVU1282
1114:Core/Src/MazeLib.c ****                 {
 4551              		.loc 1 1114 86 is_stmt 0 view .LVU1283
 4552 0204 02EB0216 		add	r6, r2, r2, lsl #4
 4553 0208 4644     		add	r6, r6, r8
 4554 020a 05EBC606 		add	r6, r5, r6, lsl #3
 4555 020e 7688     		ldrh	r6, [r6, #2]
1114:Core/Src/MazeLib.c ****                 {
 4556              		.loc 1 1114 19 view .LVU1284
 4557 0210 6645     		cmp	r6, ip
ARM GAS  /var/folders/v_/kwz_t0cs68g1q1d733r227b80000gn/T//cc7enlx9.s 			page 119


 4558 0212 06D2     		bcs	.L292
1120:Core/Src/MazeLib.c ****                     next_node = &(maze->RawNode[now_node->pos.x][now_node->pos.y+1]);
 4559              		.loc 1 1120 21 is_stmt 1 view .LVU1285
 4560              	.LVL369:
1121:Core/Src/MazeLib.c ****                     flag = true;
 4561              		.loc 1 1121 21 view .LVU1286
1121:Core/Src/MazeLib.c ****                     flag = true;
 4562              		.loc 1 1121 31 is_stmt 0 view .LVU1287
 4563 0214 02EB021E 		add	lr, r2, r2, lsl #4
 4564              	.LVL370:
1121:Core/Src/MazeLib.c ****                     flag = true;
 4565              		.loc 1 1121 31 view .LVU1288
 4566 0218 C644     		add	lr, lr, r8
 4567 021a 05EBCE0E 		add	lr, r5, lr, lsl #3
 4568              	.LVL371:
1122:Core/Src/MazeLib.c ****                 }
 4569              		.loc 1 1122 21 is_stmt 1 view .LVU1289
1122:Core/Src/MazeLib.c ****                 }
 4570              		.loc 1 1122 26 is_stmt 0 view .LVU1290
 4571 021e 0F46     		mov	r7, r1
1120:Core/Src/MazeLib.c ****                     next_node = &(maze->RawNode[now_node->pos.x][now_node->pos.y+1]);
 4572              		.loc 1 1120 36 view .LVU1291
 4573 0220 B446     		mov	ip, r6
 4574              	.LVL372:
 4575              	.L292:
1127:Core/Src/MazeLib.c ****             {
 4576              		.loc 1 1127 13 is_stmt 1 view .LVU1292
1127:Core/Src/MazeLib.c ****             {
 4577              		.loc 1 1127 47 is_stmt 0 view .LVU1293
 4578 0222 561E     		subs	r6, r2, #1
1127:Core/Src/MazeLib.c ****             {
 4579              		.loc 1 1127 69 view .LVU1294
 4580 0224 06EB0619 		add	r9, r6, r6, lsl #4
 4581 0228 C144     		add	r9, r9, r8
 4582 022a 15F83990 		ldrb	r9, [r5, r9, lsl #3]	@ zero_extendqisi2
1127:Core/Src/MazeLib.c ****             {
 4583              		.loc 1 1127 15 view .LVU1295
 4584 022e 19EA030F 		tst	r9, r3
 4585 0232 10D1     		bne	.L291
1130:Core/Src/MazeLib.c ****                 {
 4586              		.loc 1 1130 17 is_stmt 1 view .LVU1296
1130:Core/Src/MazeLib.c ****                 {
 4587              		.loc 1 1130 88 is_stmt 0 view .LVU1297
 4588 0234 06EB0619 		add	r9, r6, r6, lsl #4
 4589 0238 C144     		add	r9, r9, r8
 4590 023a 05EBC909 		add	r9, r5, r9, lsl #3
 4591 023e B9F80290 		ldrh	r9, [r9, #2]
1130:Core/Src/MazeLib.c ****                 {
 4592              		.loc 1 1130 19 view .LVU1298
 4593 0242 E145     		cmp	r9, ip
 4594 0244 07D2     		bcs	.L291
1136:Core/Src/MazeLib.c ****                     next_node = &(maze->RawNode[now_node->pos.x-1][now_node->pos.y+1]);
 4595              		.loc 1 1136 21 is_stmt 1 view .LVU1299
 4596              	.LVL373:
1137:Core/Src/MazeLib.c ****                     flag = true;
 4597              		.loc 1 1137 21 view .LVU1300
1137:Core/Src/MazeLib.c ****                     flag = true;
ARM GAS  /var/folders/v_/kwz_t0cs68g1q1d733r227b80000gn/T//cc7enlx9.s 			page 120


 4598              		.loc 1 1137 31 is_stmt 0 view .LVU1301
 4599 0246 06EB0616 		add	r6, r6, r6, lsl #4
 4600 024a 06EB080E 		add	lr, r6, r8
 4601              	.LVL374:
1137:Core/Src/MazeLib.c ****                     flag = true;
 4602              		.loc 1 1137 31 view .LVU1302
 4603 024e 05EBCE0E 		add	lr, r5, lr, lsl #3
 4604              	.LVL375:
1138:Core/Src/MazeLib.c ****                 }
 4605              		.loc 1 1138 21 is_stmt 1 view .LVU1303
1138:Core/Src/MazeLib.c ****                 }
 4606              		.loc 1 1138 26 is_stmt 0 view .LVU1304
 4607 0252 0F46     		mov	r7, r1
1136:Core/Src/MazeLib.c ****                     next_node = &(maze->RawNode[now_node->pos.x-1][now_node->pos.y+1]);
 4608              		.loc 1 1136 36 view .LVU1305
 4609 0254 CC46     		mov	ip, r9
 4610              	.LVL376:
 4611              	.L291:
1144:Core/Src/MazeLib.c ****         {
 4612              		.loc 1 1144 9 is_stmt 1 view .LVU1306
1144:Core/Src/MazeLib.c ****         {
 4613              		.loc 1 1144 11 is_stmt 0 view .LVU1307
 4614 0256 94B3     		cbz	r4, .L298
1147:Core/Src/MazeLib.c ****             {
 4615              		.loc 1 1147 13 is_stmt 1 view .LVU1308
1147:Core/Src/MazeLib.c ****             {
 4616              		.loc 1 1147 65 is_stmt 0 view .LVU1309
 4617 0258 02EB0216 		add	r6, r2, r2, lsl #4
 4618 025c 2644     		add	r6, r6, r4
 4619 025e 15F83660 		ldrb	r6, [r5, r6, lsl #3]	@ zero_extendqisi2
1147:Core/Src/MazeLib.c ****             {
 4620              		.loc 1 1147 15 view .LVU1310
 4621 0262 1E42     		tst	r6, r3
 4622 0264 12D1     		bne	.L299
1150:Core/Src/MazeLib.c ****                 {
 4623              		.loc 1 1150 17 is_stmt 1 view .LVU1311
1150:Core/Src/MazeLib.c ****                 {
 4624              		.loc 1 1150 84 is_stmt 0 view .LVU1312
 4625 0266 02EB0216 		add	r6, r2, r2, lsl #4
 4626 026a 2644     		add	r6, r6, r4
 4627 026c 05EBC606 		add	r6, r5, r6, lsl #3
 4628 0270 7688     		ldrh	r6, [r6, #2]
1150:Core/Src/MazeLib.c ****                 {
 4629              		.loc 1 1150 19 view .LVU1313
 4630 0272 6645     		cmp	r6, ip
 4631 0274 21D2     		bcs	.L300
1157:Core/Src/MazeLib.c ****                     next_node = &(maze->RawNode[now_node->pos.x][now_node->pos.y]);
 4632              		.loc 1 1157 21 is_stmt 1 view .LVU1314
 4633              	.LVL377:
1158:Core/Src/MazeLib.c ****                     flag = true;
 4634              		.loc 1 1158 21 view .LVU1315
1158:Core/Src/MazeLib.c ****                     flag = true;
 4635              		.loc 1 1158 31 is_stmt 0 view .LVU1316
 4636 0276 02EB021E 		add	lr, r2, r2, lsl #4
 4637              	.LVL378:
1158:Core/Src/MazeLib.c ****                     flag = true;
 4638              		.loc 1 1158 31 view .LVU1317
ARM GAS  /var/folders/v_/kwz_t0cs68g1q1d733r227b80000gn/T//cc7enlx9.s 			page 121


 4639 027a A644     		add	lr, lr, r4
 4640 027c 05EBCE0E 		add	lr, r5, lr, lsl #3
 4641              	.LVL379:
1159:Core/Src/MazeLib.c ****                 }
 4642              		.loc 1 1159 21 is_stmt 1 view .LVU1318
1157:Core/Src/MazeLib.c ****                     next_node = &(maze->RawNode[now_node->pos.x][now_node->pos.y]);
 4643              		.loc 1 1157 36 is_stmt 0 view .LVU1319
 4644 0280 B446     		mov	ip, r6
 4645 0282 04E0     		b	.L293
 4646              	.LVL380:
 4647              	.L296:
 942:Core/Src/MazeLib.c ****     //printf("ãƒã‚¤ãƒãƒ¼ãƒ‰ãŒ01ã®ã©ã¡ã‚‰ã‹:%d\r\n",now_node->rc);
 4648              		.loc 1 942 11 view .LVU1320
 4649 0284 0027     		movs	r7, #0
 4650 0286 93E7     		b	.L289
 4651              	.L297:
 4652 0288 0027     		movs	r7, #0
 4653 028a 91E7     		b	.L289
 4654              	.LVL381:
 4655              	.L299:
 942:Core/Src/MazeLib.c ****     //printf("ãƒã‚¤ãƒãƒ¼ãƒ‰ãŒ01ã®ã©ã¡ã‚‰ã‹:%d\r\n",now_node->rc);
 4656              		.loc 1 942 11 view .LVU1321
 4657 028c 3946     		mov	r1, r7
 4658              	.LVL382:
 4659              	.L293:
1163:Core/Src/MazeLib.c ****             {
 4660              		.loc 1 1163 13 is_stmt 1 view .LVU1322
1163:Core/Src/MazeLib.c ****             {
 4661              		.loc 1 1163 47 is_stmt 0 view .LVU1323
 4662 028e 013A     		subs	r2, r2, #1
1163:Core/Src/MazeLib.c ****             {
 4663              		.loc 1 1163 67 view .LVU1324
 4664 0290 02EB0216 		add	r6, r2, r2, lsl #4
 4665 0294 2644     		add	r6, r6, r4
 4666 0296 15F83660 		ldrb	r6, [r5, r6, lsl #3]	@ zero_extendqisi2
1163:Core/Src/MazeLib.c ****             {
 4667              		.loc 1 1163 15 view .LVU1325
 4668 029a 1E42     		tst	r6, r3
 4669 029c 10D1     		bne	.L286
1166:Core/Src/MazeLib.c ****                 {
 4670              		.loc 1 1166 17 is_stmt 1 view .LVU1326
1166:Core/Src/MazeLib.c ****                 {
 4671              		.loc 1 1166 86 is_stmt 0 view .LVU1327
 4672 029e 02EB0213 		add	r3, r2, r2, lsl #4
 4673              	.LVL383:
1166:Core/Src/MazeLib.c ****                 {
 4674              		.loc 1 1166 86 view .LVU1328
 4675 02a2 2344     		add	r3, r3, r4
 4676 02a4 05EBC303 		add	r3, r5, r3, lsl #3
 4677 02a8 5B88     		ldrh	r3, [r3, #2]
1166:Core/Src/MazeLib.c ****                 {
 4678              		.loc 1 1166 19 view .LVU1329
 4679 02aa 6345     		cmp	r3, ip
 4680 02ac 08D2     		bcs	.L286
1171:Core/Src/MazeLib.c ****                     next_node = &(maze->RawNode[now_node->pos.x-1][now_node->pos.y]);
 4681              		.loc 1 1171 21 is_stmt 1 view .LVU1330
 4682              	.LVL384:
ARM GAS  /var/folders/v_/kwz_t0cs68g1q1d733r227b80000gn/T//cc7enlx9.s 			page 122


1172:Core/Src/MazeLib.c ****                     flag = true;
 4683              		.loc 1 1172 21 view .LVU1331
1172:Core/Src/MazeLib.c ****                     flag = true;
 4684              		.loc 1 1172 31 is_stmt 0 view .LVU1332
 4685 02ae 02EB0212 		add	r2, r2, r2, lsl #4
 4686 02b2 1444     		add	r4, r4, r2
 4687 02b4 05EBC40E 		add	lr, r5, r4, lsl #3
 4688              	.LVL385:
1173:Core/Src/MazeLib.c ****                 }
 4689              		.loc 1 1173 21 is_stmt 1 view .LVU1333
1180:Core/Src/MazeLib.c ****     {
 4690              		.loc 1 1180 5 view .LVU1334
 4691 02b8 58E7     		b	.L288
 4692              	.LVL386:
 4693              	.L300:
1180:Core/Src/MazeLib.c ****     {
 4694              		.loc 1 1180 5 is_stmt 0 view .LVU1335
 4695 02ba 3946     		mov	r1, r7
 4696 02bc E7E7     		b	.L293
 4697              	.L298:
1180:Core/Src/MazeLib.c ****     {
 4698              		.loc 1 1180 5 view .LVU1336
 4699 02be 3946     		mov	r1, r7
 4700              	.LVL387:
 4701              	.L286:
1180:Core/Src/MazeLib.c ****     {
 4702              		.loc 1 1180 5 is_stmt 1 view .LVU1337
1180:Core/Src/MazeLib.c ****     {
 4703              		.loc 1 1180 7 is_stmt 0 view .LVU1338
 4704 02c0 0029     		cmp	r1, #0
 4705 02c2 7FF453AF 		bne	.L288
 4706              	.LVL388:
 4707              	.L294:
1187:Core/Src/MazeLib.c ****     }
1188:Core/Src/MazeLib.c ****     if(flag == false)
1189:Core/Src/MazeLib.c ****     {
1190:Core/Src/MazeLib.c **** 
1191:Core/Src/MazeLib.c **** //    	ChangeLED(1);
1192:Core/Src/MazeLib.c **** #if DEBUG_ON
1193:Core/Src/MazeLib.c ****     	printf("ãƒãƒ¼ãƒ‰æ›´æ–°ç„¡ã—\r\n\r\n");
1194:Core/Src/MazeLib.c **** #endif
1195:Core/Src/MazeLib.c **** 
1196:Core/Src/MazeLib.c ****         return now_node;//ä¸‡ãŒä¸€æ›´æ–°ã•ã‚Œãªã‹ã£ãŸã‚‰ã€ä»Šã„ã‚‹ãƒãƒ¼ãƒ‰ãŒç›®æ¨™ãƒãƒ¼ã
1197:Core/Src/MazeLib.c ****         //åœæ­¢ã—ãªã‹ã£ãŸã€‚å‰å›ã®æƒ…å ±ãŒãã®ã¾ã¾åæ˜ ã•ã‚Œã‚‹ã ã‘
1198:Core/Src/MazeLib.c ****     }
1199:Core/Src/MazeLib.c ****     return now_node; //
1200:Core/Src/MazeLib.c **** 
1201:Core/Src/MazeLib.c **** }
 4708              		.loc 1 1201 1 view .LVU1339
 4709 02c6 BDE8F083 		pop	{r4, r5, r6, r7, r8, r9, pc}
 4710              	.LVL389:
 4711              	.L303:
 4712              		.loc 1 1201 1 view .LVU1340
 4713 02ca 00BF     		.align	2
 4714              	.L302:
 4715 02cc 00000000 		.word	.LANCHOR1
 4716              		.cfi_endproc
ARM GAS  /var/folders/v_/kwz_t0cs68g1q1d733r227b80000gn/T//cc7enlx9.s 			page 123


 4717              	.LFE36:
 4719              		.section	.text.judgeAccelorNot,"ax",%progbits
 4720              		.align	1
 4721              		.global	judgeAccelorNot
 4722              		.syntax unified
 4723              		.thumb
 4724              		.thumb_func
 4725              		.fpu fpv4-sp-d16
 4727              	judgeAccelorNot:
 4728              	.LVL390:
 4729              	.LFB37:
1202:Core/Src/MazeLib.c **** _Bool judgeAccelorNot(maze_node *maze, cardinal car, node *now_node)
1203:Core/Src/MazeLib.c **** {
 4730              		.loc 1 1203 1 is_stmt 1 view -0
 4731              		.cfi_startproc
 4732              		@ args = 0, pretend = 0, frame = 0
 4733              		@ frame_needed = 0, uses_anonymous_args = 0
 4734              		.loc 1 1203 1 is_stmt 0 view .LVU1342
 4735 0000 70B5     		push	{r4, r5, r6, lr}
 4736              	.LCFI38:
 4737              		.cfi_def_cfa_offset 16
 4738              		.cfi_offset 4, -16
 4739              		.cfi_offset 5, -12
 4740              		.cfi_offset 6, -8
 4741              		.cfi_offset 14, -4
 4742 0002 0346     		mov	r3, r0
1204:Core/Src/MazeLib.c **** 	uint16_t compare_weight=0;
 4743              		.loc 1 1204 2 is_stmt 1 view .LVU1343
 4744              	.LVL391:
1205:Core/Src/MazeLib.c **** 
1206:Core/Src/MazeLib.c **** 	compare_weight = now_node->weight;
 4745              		.loc 1 1206 2 view .LVU1344
 4746              		.loc 1 1206 17 is_stmt 0 view .LVU1345
 4747 0004 B2F802C0 		ldrh	ip, [r2, #2]
 4748              	.LVL392:
1207:Core/Src/MazeLib.c **** 
1208:Core/Src/MazeLib.c **** 	_Bool flag=false;
 4749              		.loc 1 1208 2 is_stmt 1 view .LVU1346
1209:Core/Src/MazeLib.c **** 	//ç¾ãƒãƒ¼ãƒ‰ã‹ã‚‰3æ–¹å‘ãƒãƒ¼ãƒ‰ã‚’è¦‹ã¦ã€æœªçŸ¥ãªã‚‰å³return
1210:Core/Src/MazeLib.c **** 	if(now_node->rc == 0)
 4750              		.loc 1 1210 2 view .LVU1347
 4751              		.loc 1 1210 13 is_stmt 0 view .LVU1348
 4752 0008 5079     		ldrb	r0, [r2, #5]	@ zero_extendqisi2
 4753              	.LVL393:
 4754              		.loc 1 1210 4 view .LVU1349
 4755 000a 0028     		cmp	r0, #0
 4756 000c 40F0AE80 		bne	.L305
1211:Core/Src/MazeLib.c **** 	{
1212:Core/Src/MazeLib.c **** 		switch(car%8)
 4757              		.loc 1 1212 3 is_stmt 1 view .LVU1350
 4758 0010 11F00701 		ands	r1, r1, #7
 4759              	.LVL394:
 4760              		.loc 1 1212 3 is_stmt 0 view .LVU1351
 4761 0014 02D0     		beq	.L306
 4762 0016 0429     		cmp	r1, #4
 4763 0018 52D0     		beq	.L307
 4764              	.LVL395:
ARM GAS  /var/folders/v_/kwz_t0cs68g1q1d733r227b80000gn/T//cc7enlx9.s 			page 124


 4765              	.L308:
1213:Core/Src/MazeLib.c **** 		{
1214:Core/Src/MazeLib.c **** 		case north:
1215:Core/Src/MazeLib.c **** 		//è¡Œã«ã„ã‚‹ã¨ã
1216:Core/Src/MazeLib.c **** 	        //åŒ—å´ãƒãƒ¼ãƒ‰
1217:Core/Src/MazeLib.c **** 	        if(now_node->pos.y < NUMBER_OF_SQUARES_Y-1)					//ç¯„å›²ãƒã‚§ãƒƒã‚¯
1218:Core/Src/MazeLib.c **** 	        {
1219:Core/Src/MazeLib.c **** 	            //printf("%u\r\n",now_node->pos.y);
1220:Core/Src/MazeLib.c **** 	            if( (maze->RawNode[now_node->pos.x][now_node->pos.y+1].existence ) == UNKNOWN)	//å£ã
1221:Core/Src/MazeLib.c **** 	            {
1222:Core/Src/MazeLib.c **** 	            	//UNKNOWNãªã‚‰å³return.
1223:Core/Src/MazeLib.c **** 	            	return false;
1224:Core/Src/MazeLib.c **** 	            }
1225:Core/Src/MazeLib.c **** 	            else if((maze->RawNode[now_node->pos.x][now_node->pos.y+1].existence ) == NOWALL)
1226:Core/Src/MazeLib.c **** 	            {
1227:Core/Src/MazeLib.c **** 	            	// å£ãŒæ—¢çŸ¥ãªã‚‰ã€ã‚ã‚‹ã‹ãªã„ã‹ãªã®ã§ã€ç„¡ã„ã¨ãã¯ã€å€™è£œã«ãªã
1228:Core/Src/MazeLib.c **** 	            	// UNKNOWNã§ãªã‘ã‚Œã°ã€é‡ã¿ã‚’æ¯”è¼ƒã—ã¦ãŠã. ä¸€å€‹ã‚‚ã‚¢ãƒ³ãƒã‚¦ãƒ³ã§ã
1229:Core/Src/MazeLib.c **** 	                // printf("%d\r\n", maze->RawNode[now_node->pos.x][now_node->pos.y+1].existence);/
1230:Core/Src/MazeLib.c **** 	                if(compare_weight > maze->RawNode[now_node->pos.x][now_node->pos.y+1].weight)
1231:Core/Src/MazeLib.c **** 	                {
1232:Core/Src/MazeLib.c **** 	                    compare_weight = maze->RawNode[now_node->pos.x][now_node->pos.y+1].weight;
1233:Core/Src/MazeLib.c **** //	                    next_node = &(maze->RawNode[now_node->pos.x][now_node->pos.y+1]);
1234:Core/Src/MazeLib.c **** 	                    flag = true;
1235:Core/Src/MazeLib.c **** 	                }
1236:Core/Src/MazeLib.c **** 	            }
1237:Core/Src/MazeLib.c **** 	        }
1238:Core/Src/MazeLib.c **** 
1239:Core/Src/MazeLib.c **** 	        //åŒ—æ±
1240:Core/Src/MazeLib.c **** 	        if(now_node->pos.x < NUMBER_OF_SQUARES_X-1)					//ç¯„å›²ãƒã‚§ãƒƒã‚¯
1241:Core/Src/MazeLib.c **** 	        {
1242:Core/Src/MazeLib.c **** 	            //åŒ—æ±ã¸
1243:Core/Src/MazeLib.c **** 	            if( (maze->ColumnNode[now_node->pos.x+1][now_node->pos.y].existence ) == UNKNOWN)
1244:Core/Src/MazeLib.c **** 	            {
1245:Core/Src/MazeLib.c **** 	            	return false;
1246:Core/Src/MazeLib.c **** 	            }
1247:Core/Src/MazeLib.c **** 	            else if( (maze->ColumnNode[now_node->pos.x+1][now_node->pos.y].existence ) == NOWALL)
1248:Core/Src/MazeLib.c **** 	            {//é‡ã¿ã‚’æ¯”è¼ƒã—ã¦æ›´æ–°
1249:Core/Src/MazeLib.c **** 	                if(compare_weight > maze->ColumnNode[now_node->pos.x+1][now_node->pos.y].weight)
1250:Core/Src/MazeLib.c **** 	                {
1251:Core/Src/MazeLib.c **** 	                    compare_weight = maze->ColumnNode[now_node->pos.x+1][now_node->pos.y].weight;
1252:Core/Src/MazeLib.c **** //	                    next_node = &(maze->ColumnNode[now_node->pos.x+1][now_node->pos.y]);
1253:Core/Src/MazeLib.c **** 	                    flag = false;
1254:Core/Src/MazeLib.c **** 	                }
1255:Core/Src/MazeLib.c **** 	            }
1256:Core/Src/MazeLib.c **** 	        }
1257:Core/Src/MazeLib.c **** 
1258:Core/Src/MazeLib.c **** 	        //åŒ—è¥¿
1259:Core/Src/MazeLib.c **** 	        if(now_node->pos.x > 0)						//ç¯„å›²ãƒã‚§ãƒƒã‚¯
1260:Core/Src/MazeLib.c **** 	        {
1261:Core/Src/MazeLib.c **** 	            //åŒ—è¥¿ã¸
1262:Core/Src/MazeLib.c **** 	            if( (maze->ColumnNode[now_node->pos.x][now_node->pos.y].existence ) == UNKNOWN)		//å£
1263:Core/Src/MazeLib.c **** 	            {
1264:Core/Src/MazeLib.c **** 	            	return false;
1265:Core/Src/MazeLib.c **** 	            }
1266:Core/Src/MazeLib.c **** 	                //é‡ã¿ã‚’æ¯”è¼ƒã—ã¦æ›´æ–°
1267:Core/Src/MazeLib.c **** 	            else if( (maze->ColumnNode[now_node->pos.x][now_node->pos.y].existence) == NOWALL)		//
1268:Core/Src/MazeLib.c **** 	            {
ARM GAS  /var/folders/v_/kwz_t0cs68g1q1d733r227b80000gn/T//cc7enlx9.s 			page 125


1269:Core/Src/MazeLib.c **** 	                if(compare_weight > maze->ColumnNode[now_node->pos.x][now_node->pos.y].weight)
1270:Core/Src/MazeLib.c **** 	                {
1271:Core/Src/MazeLib.c **** 	                    compare_weight = maze->ColumnNode[now_node->pos.x][now_node->pos.y].weight;
1272:Core/Src/MazeLib.c **** //	                    next_node = &(maze->ColumnNode[now_node->pos.x][now_node->pos.y]);
1273:Core/Src/MazeLib.c **** 	                    flag = false;
1274:Core/Src/MazeLib.c **** 	                }
1275:Core/Src/MazeLib.c **** 	            }
1276:Core/Src/MazeLib.c **** 	        }
1277:Core/Src/MazeLib.c **** 	        break;
1278:Core/Src/MazeLib.c **** 		case south:
1279:Core/Src/MazeLib.c **** 			//å—ã¸
1280:Core/Src/MazeLib.c **** 			if(now_node->pos.y > 1)						//ç¯„å›²ãƒã‚§ãƒƒã‚¯
1281:Core/Src/MazeLib.c **** 			{
1282:Core/Src/MazeLib.c **** 				if( (maze->RawNode[now_node->pos.x][now_node->pos.y-1].existence ) == UNKNOWN)	//å£ãŒãªã‘ã‚
1283:Core/Src/MazeLib.c **** 				{
1284:Core/Src/MazeLib.c **** 					return false;
1285:Core/Src/MazeLib.c **** 				}
1286:Core/Src/MazeLib.c **** 					//é‡ã¿ã‚’æ¯”è¼ƒã—ã¦æ›´æ–°
1287:Core/Src/MazeLib.c **** 				else if( (maze->RawNode[now_node->pos.x][now_node->pos.y-1].existence ) == NOWALL)
1288:Core/Src/MazeLib.c **** 				{
1289:Core/Src/MazeLib.c **** 					if(compare_weight > maze->RawNode[now_node->pos.x][now_node->pos.y-1].weight)
1290:Core/Src/MazeLib.c **** 					{
1291:Core/Src/MazeLib.c **** 						compare_weight = maze->RawNode[now_node->pos.x][now_node->pos.y-1].weight;
1292:Core/Src/MazeLib.c **** //						next_node = &(maze->RawNode[now_node->pos.x][now_node->pos.y-1]);
1293:Core/Src/MazeLib.c **** 						flag = true;
1294:Core/Src/MazeLib.c **** 					}
1295:Core/Src/MazeLib.c **** 				}
1296:Core/Src/MazeLib.c **** 			}
1297:Core/Src/MazeLib.c **** 			if(now_node->pos.x < NUMBER_OF_SQUARES_X-1)					//ç¯„å›²ãƒã‚§ãƒƒã‚¯
1298:Core/Src/MazeLib.c **** 			{
1299:Core/Src/MazeLib.c **** 				//å—ã¸æ±ã¸
1300:Core/Src/MazeLib.c **** 				if( (maze->ColumnNode[now_node->pos.x+1][now_node->pos.y-1].existence ) == UNKNOWN)		//å£ãŒã
1301:Core/Src/MazeLib.c **** 				{
1302:Core/Src/MazeLib.c **** 					return false;
1303:Core/Src/MazeLib.c **** 				}
1304:Core/Src/MazeLib.c **** 				else if( (maze->ColumnNode[now_node->pos.x+1][now_node->pos.y-1].existence ) == NOWALL)		//å£ã
1305:Core/Src/MazeLib.c **** 				{
1306:Core/Src/MazeLib.c **** 					//é‡ã¿ã‚’æ¯”è¼ƒã—ã¦æ›´æ–°
1307:Core/Src/MazeLib.c **** 					if(compare_weight > maze->ColumnNode[now_node->pos.x+1][now_node->pos.y-1].weight)
1308:Core/Src/MazeLib.c **** 					{
1309:Core/Src/MazeLib.c **** 						compare_weight = maze->ColumnNode[now_node->pos.x+1][now_node->pos.y-1].weight;
1310:Core/Src/MazeLib.c **** //						next_node = &(maze->ColumnNode[now_node->pos.x+1][now_node->pos.y-1]);
1311:Core/Src/MazeLib.c **** 						flag = false;
1312:Core/Src/MazeLib.c **** 					}
1313:Core/Src/MazeLib.c **** 				}
1314:Core/Src/MazeLib.c **** 			}
1315:Core/Src/MazeLib.c **** 			if(now_node->pos.x > 0)						//ç¯„å›²ãƒã‚§ãƒƒã‚¯
1316:Core/Src/MazeLib.c **** 			{
1317:Core/Src/MazeLib.c **** 				//å—ã¸è¥¿ã¸
1318:Core/Src/MazeLib.c **** 				if( (maze->ColumnNode[now_node->pos.x][now_node->pos.y-1].existence ) == UNKNOWN)		//å£ãŒãªã
1319:Core/Src/MazeLib.c **** 				{
1320:Core/Src/MazeLib.c **** 					return false;
1321:Core/Src/MazeLib.c **** 				}
1322:Core/Src/MazeLib.c **** 				else if( (maze->ColumnNode[now_node->pos.x][now_node->pos.y-1].existence ) == NOWALL)		//å£ãŒ
1323:Core/Src/MazeLib.c **** 				{
1324:Core/Src/MazeLib.c **** 					//é‡ã¿ã‚’æ¯”è¼ƒã—ã¦æ›´æ–°
1325:Core/Src/MazeLib.c **** 					if(compare_weight > maze->ColumnNode[now_node->pos.x][now_node->pos.y-1].weight)
ARM GAS  /var/folders/v_/kwz_t0cs68g1q1d733r227b80000gn/T//cc7enlx9.s 			page 126


1326:Core/Src/MazeLib.c **** 					{
1327:Core/Src/MazeLib.c **** 						compare_weight = maze->ColumnNode[now_node->pos.x][now_node->pos.y-1].weight;
1328:Core/Src/MazeLib.c **** //						next_node = &(maze->ColumnNode[now_node->pos.x][now_node->pos.y-1]);
1329:Core/Src/MazeLib.c **** 						//ã“ã®ãƒãƒ¼ãƒ‰ã‚ã‚„ã—ã„
1330:Core/Src/MazeLib.c **** 						flag = false;
1331:Core/Src/MazeLib.c **** 					}
1332:Core/Src/MazeLib.c **** 				}
1333:Core/Src/MazeLib.c **** 			}
1334:Core/Src/MazeLib.c **** 			break;
1335:Core/Src/MazeLib.c **** 		default :
1336:Core/Src/MazeLib.c **** 			//æ–œã‚å‘ãã¯æœªå®šç¾©
1337:Core/Src/MazeLib.c **** 			break;
1338:Core/Src/MazeLib.c **** 		}
1339:Core/Src/MazeLib.c **** 	        //6ã¤ã®ã†ã¡æœ€å°ãƒãƒ¼ãƒ‰ã‚’é¸ã¶
1340:Core/Src/MazeLib.c **** 	}
1341:Core/Src/MazeLib.c **** 	else if(now_node->rc == 1)
1342:Core/Src/MazeLib.c **** 	{
1343:Core/Src/MazeLib.c **** 		//åˆ—ã«ã„ã‚‹ã¨ã
1344:Core/Src/MazeLib.c **** 		//æ±ã‚’å‘ã„ã¦ã„ã‚‹ã‹ã€è¥¿ã‚’å‘ã„ã¦ã„ã‚‹ã‹
1345:Core/Src/MazeLib.c **** 		switch(car%8)
1346:Core/Src/MazeLib.c **** 		{
1347:Core/Src/MazeLib.c **** 		case east:
1348:Core/Src/MazeLib.c **** 
1349:Core/Src/MazeLib.c **** 			//æ±å´ãƒãƒ¼ãƒ‰
1350:Core/Src/MazeLib.c **** 			if(now_node->pos.x < NUMBER_OF_SQUARES_X-1)					//ç¯„å›²ãƒã‚§ãƒƒã‚¯
1351:Core/Src/MazeLib.c **** 			{
1352:Core/Src/MazeLib.c **** 				if( (maze->ColumnNode[now_node->pos.x+1][now_node->pos.y].existence ) == UNKNOWN)	//å£ãŒãªã
1353:Core/Src/MazeLib.c **** 				{
1354:Core/Src/MazeLib.c **** 					return false;
1355:Core/Src/MazeLib.c **** 				}
1356:Core/Src/MazeLib.c **** 				else if( (maze->ColumnNode[now_node->pos.x+1][now_node->pos.y].existence ) == NOWALL)	//å£ãŒã
1357:Core/Src/MazeLib.c **** 				{
1358:Core/Src/MazeLib.c **** 					if(compare_weight > maze->ColumnNode[now_node->pos.x+1][now_node->pos.y].weight)
1359:Core/Src/MazeLib.c **** 					{
1360:Core/Src/MazeLib.c **** 						compare_weight = maze->ColumnNode[now_node->pos.x+1][now_node->pos.y].weight;
1361:Core/Src/MazeLib.c **** //							next_node = &(maze->ColumnNode[now_node->pos.x+1][now_node->pos.y]);
1362:Core/Src/MazeLib.c **** 						flag = true;
1363:Core/Src/MazeLib.c **** 					}
1364:Core/Src/MazeLib.c **** 				}
1365:Core/Src/MazeLib.c **** 			}
1366:Core/Src/MazeLib.c **** 
1367:Core/Src/MazeLib.c **** 			//åŒ—æ±
1368:Core/Src/MazeLib.c **** 			if(now_node->pos.y < NUMBER_OF_SQUARES_Y-1)					//ç¯„å›²ãƒã‚§ãƒƒã‚¯
1369:Core/Src/MazeLib.c **** 			{
1370:Core/Src/MazeLib.c **** 				//åŒ—æ±ã¸
1371:Core/Src/MazeLib.c **** 				if( (maze->RawNode[now_node->pos.x][now_node->pos.y+1].existence ) == UNKNOWN)		//å£ãŒãªã‘ã
1372:Core/Src/MazeLib.c **** 				{
1373:Core/Src/MazeLib.c **** 					return false;
1374:Core/Src/MazeLib.c **** 				}
1375:Core/Src/MazeLib.c **** 				else if( (maze->RawNode[now_node->pos.x][now_node->pos.y+1].existence ) == NOWALL)		//å£ãŒãª
1376:Core/Src/MazeLib.c **** 				{
1377:Core/Src/MazeLib.c **** 					//é‡ã¿ã‚’æ¯”è¼ƒã—ã¦æ›´æ–°
1378:Core/Src/MazeLib.c **** 					if(compare_weight > maze->RawNode[now_node->pos.x][now_node->pos.y+1].weight)
1379:Core/Src/MazeLib.c **** 					{
1380:Core/Src/MazeLib.c **** 						compare_weight = maze->RawNode[now_node->pos.x][now_node->pos.y+1].weight;
1381:Core/Src/MazeLib.c **** //							next_node = &(maze->RawNode[now_node->pos.x][now_node->pos.y+1]);
1382:Core/Src/MazeLib.c **** 						flag = false;
ARM GAS  /var/folders/v_/kwz_t0cs68g1q1d733r227b80000gn/T//cc7enlx9.s 			page 127


1383:Core/Src/MazeLib.c **** 					}
1384:Core/Src/MazeLib.c **** 				}
1385:Core/Src/MazeLib.c **** 			}
1386:Core/Src/MazeLib.c **** 
1387:Core/Src/MazeLib.c **** 			//å—æ±
1388:Core/Src/MazeLib.c **** 			if(now_node->pos.y > 0)						//ç¯„å›²ãƒã‚§ãƒƒã‚¯
1389:Core/Src/MazeLib.c **** 			{
1390:Core/Src/MazeLib.c **** 				//å—æ±ã¸
1391:Core/Src/MazeLib.c **** 				if( (maze->RawNode[now_node->pos.x][now_node->pos.y].existence ) == UNKNOWN)		//å£ãŒãªã‘ã‚Œ
1392:Core/Src/MazeLib.c **** 				{
1393:Core/Src/MazeLib.c **** 					return false;
1394:Core/Src/MazeLib.c **** 				}
1395:Core/Src/MazeLib.c **** 				else if( (maze->RawNode[now_node->pos.x][now_node->pos.y].existence ) == NOWALL)		//å£ãŒãªã
1396:Core/Src/MazeLib.c **** 				{
1397:Core/Src/MazeLib.c **** 					//é‡ã¿ã‚’æ¯”è¼ƒã—ã¦æ›´æ–°
1398:Core/Src/MazeLib.c **** 					if(compare_weight > maze->RawNode[now_node->pos.x][now_node->pos.y].weight)
1399:Core/Src/MazeLib.c **** 					{
1400:Core/Src/MazeLib.c **** 						compare_weight = maze->RawNode[now_node->pos.x][now_node->pos.y].weight;
1401:Core/Src/MazeLib.c **** //							next_node = &(maze->RawNode[now_node->pos.x][now_node->pos.y]);
1402:Core/Src/MazeLib.c **** 						flag = false;
1403:Core/Src/MazeLib.c **** 					}
1404:Core/Src/MazeLib.c **** 				}
1405:Core/Src/MazeLib.c **** 			}
1406:Core/Src/MazeLib.c **** 			break;
1407:Core/Src/MazeLib.c **** 
1408:Core/Src/MazeLib.c **** 		case west:
1409:Core/Src/MazeLib.c **** 			//è¥¿å´ãƒãƒ¼ãƒ‰
1410:Core/Src/MazeLib.c **** 			if(now_node->pos.x > 1)						//ç¯„å›²ãƒã‚§ãƒƒã‚¯
1411:Core/Src/MazeLib.c **** 			{
1412:Core/Src/MazeLib.c **** 				if( (maze->ColumnNode[now_node->pos.x-1][now_node->pos.y].existence ) ==UNKNOWN)	//å£ãŒãªã‘
1413:Core/Src/MazeLib.c **** 				{
1414:Core/Src/MazeLib.c **** 					return false;
1415:Core/Src/MazeLib.c **** 				}
1416:Core/Src/MazeLib.c **** 				else if( (maze->ColumnNode[now_node->pos.x-1][now_node->pos.y].existence ) == NOWALL)	//å£ãŒã
1417:Core/Src/MazeLib.c **** 				{
1418:Core/Src/MazeLib.c **** 					//é‡ã¿ã‚’æ¯”è¼ƒã—ã¦æ›´æ–°
1419:Core/Src/MazeLib.c **** 					if(compare_weight > maze->ColumnNode[now_node->pos.x-1][now_node->pos.y].weight)
1420:Core/Src/MazeLib.c **** 					{
1421:Core/Src/MazeLib.c **** 						compare_weight = maze->ColumnNode[now_node->pos.x-1][now_node->pos.y].weight;
1422:Core/Src/MazeLib.c **** //							next_node = &(maze->ColumnNode[now_node->pos.x-1][now_node->pos.y]);
1423:Core/Src/MazeLib.c **** 						flag = true;
1424:Core/Src/MazeLib.c **** 					}
1425:Core/Src/MazeLib.c **** 				}
1426:Core/Src/MazeLib.c **** 			}
1427:Core/Src/MazeLib.c **** 			if(now_node->pos.y < NUMBER_OF_SQUARES_Y-1)					//ç¯„å›²ãƒã‚§ãƒƒã‚¯
1428:Core/Src/MazeLib.c **** 			{
1429:Core/Src/MazeLib.c **** 				//åŒ—è¥¿ã¸
1430:Core/Src/MazeLib.c **** 				if( (maze->RawNode[now_node->pos.x-1][now_node->pos.y+1].existence ) == UNKNOWN)		//å£ãŒãªã
1431:Core/Src/MazeLib.c **** 				{
1432:Core/Src/MazeLib.c **** 					return false;
1433:Core/Src/MazeLib.c **** 				}
1434:Core/Src/MazeLib.c **** 				else if( (maze->RawNode[now_node->pos.x-1][now_node->pos.y+1].existence ) == NOWALL)		//å£ãŒã
1435:Core/Src/MazeLib.c **** 				{
1436:Core/Src/MazeLib.c **** 					//é‡ã¿ã‚’æ¯”è¼ƒã—ã¦æ›´æ–°
1437:Core/Src/MazeLib.c **** 					if(compare_weight > maze->RawNode[now_node->pos.x-1][now_node->pos.y+1].weight)
1438:Core/Src/MazeLib.c **** 					{
1439:Core/Src/MazeLib.c **** 						compare_weight = maze->RawNode[now_node->pos.x-1][now_node->pos.y+1].weight;
ARM GAS  /var/folders/v_/kwz_t0cs68g1q1d733r227b80000gn/T//cc7enlx9.s 			page 128


1440:Core/Src/MazeLib.c **** //							next_node = &(maze->RawNode[now_node->pos.x-1][now_node->pos.y+1]);
1441:Core/Src/MazeLib.c **** 						flag = false;
1442:Core/Src/MazeLib.c **** 					}
1443:Core/Src/MazeLib.c **** 				}
1444:Core/Src/MazeLib.c **** 			}
1445:Core/Src/MazeLib.c **** 			if(now_node->pos.y > 0)						//ç¯„å›²ãƒã‚§ãƒƒã‚¯
1446:Core/Src/MazeLib.c **** 			{
1447:Core/Src/MazeLib.c **** 				//å—ã¸è¥¿ã¸
1448:Core/Src/MazeLib.c **** 				if( (maze->RawNode[now_node->pos.x-1][now_node->pos.y].existence ) == UNKNOWN)		//å£ãŒãªã‘ã
1449:Core/Src/MazeLib.c **** 				{
1450:Core/Src/MazeLib.c **** 					return false;
1451:Core/Src/MazeLib.c **** 				}
1452:Core/Src/MazeLib.c **** 				else if( (maze->RawNode[now_node->pos.x-1][now_node->pos.y].existence ) == NOWALL)		//å£ãŒãª
1453:Core/Src/MazeLib.c **** 				{
1454:Core/Src/MazeLib.c **** 					//é‡ã¿ã‚’æ¯”è¼ƒã—ã¦æ›´æ–°
1455:Core/Src/MazeLib.c **** 					if(compare_weight > maze->RawNode[now_node->pos.x-1][now_node->pos.y].weight)
1456:Core/Src/MazeLib.c **** 					{
1457:Core/Src/MazeLib.c **** 						compare_weight = maze->RawNode[now_node->pos.x-1][now_node->pos.y].weight;
1458:Core/Src/MazeLib.c **** //							next_node = &(maze->RawNode[now_node->pos.x-1][now_node->pos.y]);
1459:Core/Src/MazeLib.c **** 						flag = false;
1460:Core/Src/MazeLib.c **** 					}
1461:Core/Src/MazeLib.c **** 				}
1462:Core/Src/MazeLib.c **** 
1463:Core/Src/MazeLib.c **** 			}
1464:Core/Src/MazeLib.c **** 			break;
1465:Core/Src/MazeLib.c **** 		default :
1466:Core/Src/MazeLib.c **** 			break;
1467:Core/Src/MazeLib.c **** 		}
1468:Core/Src/MazeLib.c **** 	}
1469:Core/Src/MazeLib.c **** 	return flag; //å£ãŒå…¨éƒ¨ã‚ã‚‹ã¨ãã‚‚falseã«ãªã£ã¦ã„ã‚‹
1470:Core/Src/MazeLib.c **** 	//æœªçŸ¥ãŒã‚ã£ãŸæ™‚ç‚¹ã§return false
1471:Core/Src/MazeLib.c **** 	//ç›´é€²ã‹ã©ã†ã‹ã¾ã§è¦‹ã¦ã€ç›´é€²ã§ãªã‘ã‚Œã°false
1472:Core/Src/MazeLib.c **** 	//æ—¢çŸ¥ã§ã‹ã¤ç›´é€²ãªã‚‰true
1473:Core/Src/MazeLib.c **** }
 4766              		.loc 1 1473 1 view .LVU1352
 4767 001a 70BD     		pop	{r4, r5, r6, pc}
 4768              	.LVL396:
 4769              	.L306:
1217:Core/Src/MazeLib.c **** 	        {
 4770              		.loc 1 1217 10 is_stmt 1 view .LVU1353
1217:Core/Src/MazeLib.c **** 	        {
 4771              		.loc 1 1217 26 is_stmt 0 view .LVU1354
 4772 001c D179     		ldrb	r1, [r2, #7]	@ zero_extendqisi2
1217:Core/Src/MazeLib.c **** 	        {
 4773              		.loc 1 1217 12 view .LVU1355
 4774 001e 0E29     		cmp	r1, #14
 4775 0020 16D8     		bhi	.L319
1220:Core/Src/MazeLib.c **** 	            {
 4776              		.loc 1 1220 14 is_stmt 1 view .LVU1356
1220:Core/Src/MazeLib.c **** 	            {
 4777              		.loc 1 1220 46 is_stmt 0 view .LVU1357
 4778 0022 92F806E0 		ldrb	lr, [r2, #6]	@ zero_extendqisi2
1220:Core/Src/MazeLib.c **** 	            {
 4779              		.loc 1 1220 65 view .LVU1358
 4780 0026 4D1C     		adds	r5, r1, #1
1220:Core/Src/MazeLib.c **** 	            {
 4781              		.loc 1 1220 68 view .LVU1359
ARM GAS  /var/folders/v_/kwz_t0cs68g1q1d733r227b80000gn/T//cc7enlx9.s 			page 129


 4782 0028 0EEB0E14 		add	r4, lr, lr, lsl #4
 4783 002c 2C44     		add	r4, r4, r5
 4784 002e 13F83440 		ldrb	r4, [r3, r4, lsl #3]	@ zero_extendqisi2
1220:Core/Src/MazeLib.c **** 	            {
 4785              		.loc 1 1220 16 view .LVU1360
 4786 0032 022C     		cmp	r4, #2
 4787 0034 F1D0     		beq	.L308
1225:Core/Src/MazeLib.c **** 	            {
 4788              		.loc 1 1225 19 is_stmt 1 view .LVU1361
1225:Core/Src/MazeLib.c **** 	            {
 4789              		.loc 1 1225 21 is_stmt 0 view .LVU1362
 4790 0036 002C     		cmp	r4, #0
 4791 0038 3CD1     		bne	.L320
1230:Core/Src/MazeLib.c **** 	                {
 4792              		.loc 1 1230 18 is_stmt 1 view .LVU1363
1230:Core/Src/MazeLib.c **** 	                {
 4793              		.loc 1 1230 87 is_stmt 0 view .LVU1364
 4794 003a 0EEB0E1E 		add	lr, lr, lr, lsl #4
 4795 003e AE44     		add	lr, lr, r5
 4796 0040 03EBCE0E 		add	lr, r3, lr, lsl #3
 4797 0044 BEF80240 		ldrh	r4, [lr, #2]
1230:Core/Src/MazeLib.c **** 	                {
 4798              		.loc 1 1230 20 view .LVU1365
 4799 0048 6445     		cmp	r4, ip
 4800 004a 35D3     		bcc	.L321
1208:Core/Src/MazeLib.c **** 	//ç¾ãƒãƒ¼ãƒ‰ã‹ã‚‰3æ–¹å‘ãƒãƒ¼ãƒ‰ã‚’è¦‹ã¦ã€æœªçŸ¥ãªã‚‰å³return
 4801              		.loc 1 1208 8 view .LVU1366
 4802 004c 8646     		mov	lr, r0
 4803 004e 00E0     		b	.L309
 4804              	.L319:
1208:Core/Src/MazeLib.c **** 	//ç¾ãƒãƒ¼ãƒ‰ã‹ã‚‰3æ–¹å‘ãƒãƒ¼ãƒ‰ã‚’è¦‹ã¦ã€æœªçŸ¥ãªã‚‰å³return
 4805              		.loc 1 1208 8 view .LVU1367
 4806 0050 8646     		mov	lr, r0
 4807              	.LVL397:
 4808              	.L309:
1240:Core/Src/MazeLib.c **** 	        {
 4809              		.loc 1 1240 10 is_stmt 1 view .LVU1368
1240:Core/Src/MazeLib.c **** 	        {
 4810              		.loc 1 1240 26 is_stmt 0 view .LVU1369
 4811 0052 9279     		ldrb	r2, [r2, #6]	@ zero_extendqisi2
 4812              	.LVL398:
1240:Core/Src/MazeLib.c **** 	        {
 4813              		.loc 1 1240 12 view .LVU1370
 4814 0054 0E2A     		cmp	r2, #14
 4815 0056 14D8     		bhi	.L310
1243:Core/Src/MazeLib.c **** 	            {
 4816              		.loc 1 1243 14 is_stmt 1 view .LVU1371
1243:Core/Src/MazeLib.c **** 	            {
 4817              		.loc 1 1243 51 is_stmt 0 view .LVU1372
 4818 0058 541C     		adds	r4, r2, #1
1243:Core/Src/MazeLib.c **** 	            {
 4819              		.loc 1 1243 71 view .LVU1373
 4820 005a 01EB0415 		add	r5, r1, r4, lsl #4
 4821 005e 05F58875 		add	r5, r5, #272
 4822 0062 13F83550 		ldrb	r5, [r3, r5, lsl #3]	@ zero_extendqisi2
1243:Core/Src/MazeLib.c **** 	            {
 4823              		.loc 1 1243 16 view .LVU1374
ARM GAS  /var/folders/v_/kwz_t0cs68g1q1d733r227b80000gn/T//cc7enlx9.s 			page 130


 4824 0066 022D     		cmp	r5, #2
 4825 0068 D7D0     		beq	.L308
1247:Core/Src/MazeLib.c **** 	            {//é‡ã¿ã‚’æ¯”è¼ƒã—ã¦æ›´æ–°
 4826              		.loc 1 1247 19 is_stmt 1 view .LVU1375
1247:Core/Src/MazeLib.c **** 	            {//é‡ã¿ã‚’æ¯”è¼ƒã—ã¦æ›´æ–°
 4827              		.loc 1 1247 21 is_stmt 0 view .LVU1376
 4828 006a 55B9     		cbnz	r5, .L310
1249:Core/Src/MazeLib.c **** 	                {
 4829              		.loc 1 1249 18 is_stmt 1 view .LVU1377
1249:Core/Src/MazeLib.c **** 	                {
 4830              		.loc 1 1249 90 is_stmt 0 view .LVU1378
 4831 006c 01EB0414 		add	r4, r1, r4, lsl #4
 4832 0070 04F58874 		add	r4, r4, #272
 4833 0074 03EBC404 		add	r4, r3, r4, lsl #3
 4834 0078 6488     		ldrh	r4, [r4, #2]
1249:Core/Src/MazeLib.c **** 	                {
 4835              		.loc 1 1249 20 view .LVU1379
 4836 007a 6445     		cmp	r4, ip
 4837 007c 01D2     		bcs	.L310
1253:Core/Src/MazeLib.c **** 	                }
 4838              		.loc 1 1253 27 view .LVU1380
 4839 007e 8646     		mov	lr, r0
 4840              	.LVL399:
1251:Core/Src/MazeLib.c **** //	                    next_node = &(maze->ColumnNode[now_node->pos.x+1][now_node->pos.y]);
 4841              		.loc 1 1251 37 view .LVU1381
 4842 0080 A446     		mov	ip, r4
 4843              	.LVL400:
 4844              	.L310:
1259:Core/Src/MazeLib.c **** 	        {
 4845              		.loc 1 1259 10 is_stmt 1 view .LVU1382
1259:Core/Src/MazeLib.c **** 	        {
 4846              		.loc 1 1259 12 is_stmt 0 view .LVU1383
 4847 0082 002A     		cmp	r2, #0
 4848 0084 00F01781 		beq	.L323
1262:Core/Src/MazeLib.c **** 	            {
 4849              		.loc 1 1262 14 is_stmt 1 view .LVU1384
1262:Core/Src/MazeLib.c **** 	            {
 4850              		.loc 1 1262 69 is_stmt 0 view .LVU1385
 4851 0088 01EB0214 		add	r4, r1, r2, lsl #4
 4852 008c 04F58874 		add	r4, r4, #272
 4853 0090 13F83440 		ldrb	r4, [r3, r4, lsl #3]	@ zero_extendqisi2
1262:Core/Src/MazeLib.c **** 	            {
 4854              		.loc 1 1262 16 view .LVU1386
 4855 0094 022C     		cmp	r4, #2
 4856 0096 C0D0     		beq	.L308
1267:Core/Src/MazeLib.c **** 	            {
 4857              		.loc 1 1267 19 is_stmt 1 view .LVU1387
1267:Core/Src/MazeLib.c **** 	            {
 4858              		.loc 1 1267 21 is_stmt 0 view .LVU1388
 4859 0098 002C     		cmp	r4, #0
 4860 009a 40F00E81 		bne	.L324
1269:Core/Src/MazeLib.c **** 	                {
 4861              		.loc 1 1269 18 is_stmt 1 view .LVU1389
1269:Core/Src/MazeLib.c **** 	                {
 4862              		.loc 1 1269 88 is_stmt 0 view .LVU1390
 4863 009e 01EB0211 		add	r1, r1, r2, lsl #4
 4864 00a2 01F58871 		add	r1, r1, #272
ARM GAS  /var/folders/v_/kwz_t0cs68g1q1d733r227b80000gn/T//cc7enlx9.s 			page 131


 4865 00a6 03EBC103 		add	r3, r3, r1, lsl #3
 4866              	.LVL401:
1269:Core/Src/MazeLib.c **** 	                {
 4867              		.loc 1 1269 88 view .LVU1391
 4868 00aa 5B88     		ldrh	r3, [r3, #2]
1269:Core/Src/MazeLib.c **** 	                {
 4869              		.loc 1 1269 20 view .LVU1392
 4870 00ac 6345     		cmp	r3, ip
 4871 00ae B4D3     		bcc	.L308
 4872 00b0 7046     		mov	r0, lr
 4873 00b2 B2E7     		b	.L308
 4874              	.LVL402:
 4875              	.L320:
1208:Core/Src/MazeLib.c **** 	//ç¾ãƒãƒ¼ãƒ‰ã‹ã‚‰3æ–¹å‘ãƒãƒ¼ãƒ‰ã‚’è¦‹ã¦ã€æœªçŸ¥ãªã‚‰å³return
 4876              		.loc 1 1208 8 view .LVU1393
 4877 00b4 8646     		mov	lr, r0
 4878 00b6 CCE7     		b	.L309
 4879              	.L321:
1232:Core/Src/MazeLib.c **** //	                    next_node = &(maze->RawNode[now_node->pos.x][now_node->pos.y+1]);
 4880              		.loc 1 1232 37 view .LVU1394
 4881 00b8 A446     		mov	ip, r4
 4882              	.LVL403:
1234:Core/Src/MazeLib.c **** 	                }
 4883              		.loc 1 1234 27 view .LVU1395
 4884 00ba 4FF0010E 		mov	lr, #1
 4885 00be C8E7     		b	.L309
 4886              	.LVL404:
 4887              	.L307:
1280:Core/Src/MazeLib.c **** 			{
 4888              		.loc 1 1280 4 is_stmt 1 view .LVU1396
1280:Core/Src/MazeLib.c **** 			{
 4889              		.loc 1 1280 20 is_stmt 0 view .LVU1397
 4890 00c0 D179     		ldrb	r1, [r2, #7]	@ zero_extendqisi2
1280:Core/Src/MazeLib.c **** 			{
 4891              		.loc 1 1280 6 view .LVU1398
 4892 00c2 0129     		cmp	r1, #1
 4893 00c4 16D9     		bls	.L325
1282:Core/Src/MazeLib.c **** 				{
 4894              		.loc 1 1282 5 is_stmt 1 view .LVU1399
1282:Core/Src/MazeLib.c **** 				{
 4895              		.loc 1 1282 37 is_stmt 0 view .LVU1400
 4896 00c6 92F806E0 		ldrb	lr, [r2, #6]	@ zero_extendqisi2
1282:Core/Src/MazeLib.c **** 				{
 4897              		.loc 1 1282 56 view .LVU1401
 4898 00ca 4D1E     		subs	r5, r1, #1
1282:Core/Src/MazeLib.c **** 				{
 4899              		.loc 1 1282 59 view .LVU1402
 4900 00cc 0EEB0E14 		add	r4, lr, lr, lsl #4
 4901 00d0 2C44     		add	r4, r4, r5
 4902 00d2 13F83440 		ldrb	r4, [r3, r4, lsl #3]	@ zero_extendqisi2
1282:Core/Src/MazeLib.c **** 				{
 4903              		.loc 1 1282 7 view .LVU1403
 4904 00d6 022C     		cmp	r4, #2
 4905 00d8 9FD0     		beq	.L308
1287:Core/Src/MazeLib.c **** 				{
 4906              		.loc 1 1287 10 is_stmt 1 view .LVU1404
1287:Core/Src/MazeLib.c **** 				{
ARM GAS  /var/folders/v_/kwz_t0cs68g1q1d733r227b80000gn/T//cc7enlx9.s 			page 132


 4907              		.loc 1 1287 12 is_stmt 0 view .LVU1405
 4908 00da 002C     		cmp	r4, #0
 4909 00dc 40D1     		bne	.L326
1289:Core/Src/MazeLib.c **** 					{
 4910              		.loc 1 1289 6 is_stmt 1 view .LVU1406
1289:Core/Src/MazeLib.c **** 					{
 4911              		.loc 1 1289 75 is_stmt 0 view .LVU1407
 4912 00de 0EEB0E1E 		add	lr, lr, lr, lsl #4
 4913 00e2 AE44     		add	lr, lr, r5
 4914 00e4 03EBCE0E 		add	lr, r3, lr, lsl #3
 4915 00e8 BEF80240 		ldrh	r4, [lr, #2]
1289:Core/Src/MazeLib.c **** 					{
 4916              		.loc 1 1289 8 view .LVU1408
 4917 00ec 6445     		cmp	r4, ip
 4918 00ee 39D3     		bcc	.L327
1208:Core/Src/MazeLib.c **** 	//ç¾ãƒãƒ¼ãƒ‰ã‹ã‚‰3æ–¹å‘ãƒãƒ¼ãƒ‰ã‚’è¦‹ã¦ã€æœªçŸ¥ãªã‚‰å³return
 4919              		.loc 1 1208 8 view .LVU1409
 4920 00f0 8646     		mov	lr, r0
 4921 00f2 00E0     		b	.L311
 4922              	.L325:
1208:Core/Src/MazeLib.c **** 	//ç¾ãƒãƒ¼ãƒ‰ã‹ã‚‰3æ–¹å‘ãƒãƒ¼ãƒ‰ã‚’è¦‹ã¦ã€æœªçŸ¥ãªã‚‰å³return
 4923              		.loc 1 1208 8 view .LVU1410
 4924 00f4 8646     		mov	lr, r0
 4925              	.LVL405:
 4926              	.L311:
1297:Core/Src/MazeLib.c **** 			{
 4927              		.loc 1 1297 4 is_stmt 1 view .LVU1411
1297:Core/Src/MazeLib.c **** 			{
 4928              		.loc 1 1297 20 is_stmt 0 view .LVU1412
 4929 00f6 9279     		ldrb	r2, [r2, #6]	@ zero_extendqisi2
 4930              	.LVL406:
1297:Core/Src/MazeLib.c **** 			{
 4931              		.loc 1 1297 6 view .LVU1413
 4932 00f8 0E2A     		cmp	r2, #14
 4933 00fa 15D8     		bhi	.L312
1300:Core/Src/MazeLib.c **** 				{
 4934              		.loc 1 1300 5 is_stmt 1 view .LVU1414
1300:Core/Src/MazeLib.c **** 				{
 4935              		.loc 1 1300 42 is_stmt 0 view .LVU1415
 4936 00fc 561C     		adds	r6, r2, #1
1300:Core/Src/MazeLib.c **** 				{
 4937              		.loc 1 1300 61 view .LVU1416
 4938 00fe 4C1E     		subs	r4, r1, #1
1300:Core/Src/MazeLib.c **** 				{
 4939              		.loc 1 1300 64 view .LVU1417
 4940 0100 04EB0615 		add	r5, r4, r6, lsl #4
 4941 0104 05F58875 		add	r5, r5, #272
 4942 0108 13F83550 		ldrb	r5, [r3, r5, lsl #3]	@ zero_extendqisi2
1300:Core/Src/MazeLib.c **** 				{
 4943              		.loc 1 1300 7 view .LVU1418
 4944 010c 022D     		cmp	r5, #2
 4945 010e 84D0     		beq	.L308
1304:Core/Src/MazeLib.c **** 				{
 4946              		.loc 1 1304 10 is_stmt 1 view .LVU1419
1304:Core/Src/MazeLib.c **** 				{
 4947              		.loc 1 1304 12 is_stmt 0 view .LVU1420
 4948 0110 55B9     		cbnz	r5, .L312
ARM GAS  /var/folders/v_/kwz_t0cs68g1q1d733r227b80000gn/T//cc7enlx9.s 			page 133


1307:Core/Src/MazeLib.c **** 					{
 4949              		.loc 1 1307 6 is_stmt 1 view .LVU1421
1307:Core/Src/MazeLib.c **** 					{
 4950              		.loc 1 1307 80 is_stmt 0 view .LVU1422
 4951 0112 04EB0614 		add	r4, r4, r6, lsl #4
 4952 0116 04F58874 		add	r4, r4, #272
 4953 011a 03EBC404 		add	r4, r3, r4, lsl #3
 4954 011e 6488     		ldrh	r4, [r4, #2]
1307:Core/Src/MazeLib.c **** 					{
 4955              		.loc 1 1307 8 view .LVU1423
 4956 0120 6445     		cmp	r4, ip
 4957 0122 01D2     		bcs	.L312
1311:Core/Src/MazeLib.c **** 					}
 4958              		.loc 1 1311 12 view .LVU1424
 4959 0124 8646     		mov	lr, r0
 4960              	.LVL407:
1309:Core/Src/MazeLib.c **** //						next_node = &(maze->ColumnNode[now_node->pos.x+1][now_node->pos.y-1]);
 4961              		.loc 1 1309 22 view .LVU1425
 4962 0126 A446     		mov	ip, r4
 4963              	.LVL408:
 4964              	.L312:
1315:Core/Src/MazeLib.c **** 			{
 4965              		.loc 1 1315 4 is_stmt 1 view .LVU1426
1315:Core/Src/MazeLib.c **** 			{
 4966              		.loc 1 1315 6 is_stmt 0 view .LVU1427
 4967 0128 002A     		cmp	r2, #0
 4968 012a 00F0C880 		beq	.L329
1318:Core/Src/MazeLib.c **** 				{
 4969              		.loc 1 1318 5 is_stmt 1 view .LVU1428
1318:Core/Src/MazeLib.c **** 				{
 4970              		.loc 1 1318 59 is_stmt 0 view .LVU1429
 4971 012e 0139     		subs	r1, r1, #1
1318:Core/Src/MazeLib.c **** 				{
 4972              		.loc 1 1318 62 view .LVU1430
 4973 0130 01EB0214 		add	r4, r1, r2, lsl #4
 4974 0134 04F58874 		add	r4, r4, #272
 4975 0138 13F83440 		ldrb	r4, [r3, r4, lsl #3]	@ zero_extendqisi2
1318:Core/Src/MazeLib.c **** 				{
 4976              		.loc 1 1318 7 view .LVU1431
 4977 013c 022C     		cmp	r4, #2
 4978 013e 3FF46CAF 		beq	.L308
1322:Core/Src/MazeLib.c **** 				{
 4979              		.loc 1 1322 10 is_stmt 1 view .LVU1432
1322:Core/Src/MazeLib.c **** 				{
 4980              		.loc 1 1322 12 is_stmt 0 view .LVU1433
 4981 0142 002C     		cmp	r4, #0
 4982 0144 40F0BD80 		bne	.L330
1325:Core/Src/MazeLib.c **** 					{
 4983              		.loc 1 1325 6 is_stmt 1 view .LVU1434
1325:Core/Src/MazeLib.c **** 					{
 4984              		.loc 1 1325 78 is_stmt 0 view .LVU1435
 4985 0148 01EB0211 		add	r1, r1, r2, lsl #4
 4986 014c 01F58871 		add	r1, r1, #272
 4987 0150 03EBC103 		add	r3, r3, r1, lsl #3
 4988              	.LVL409:
1325:Core/Src/MazeLib.c **** 					{
 4989              		.loc 1 1325 78 view .LVU1436
ARM GAS  /var/folders/v_/kwz_t0cs68g1q1d733r227b80000gn/T//cc7enlx9.s 			page 134


 4990 0154 5B88     		ldrh	r3, [r3, #2]
1325:Core/Src/MazeLib.c **** 					{
 4991              		.loc 1 1325 8 view .LVU1437
 4992 0156 6345     		cmp	r3, ip
 4993 0158 FFF45FAF 		bcc	.L308
 4994 015c 7046     		mov	r0, lr
 4995 015e 5CE7     		b	.L308
 4996              	.LVL410:
 4997              	.L326:
1208:Core/Src/MazeLib.c **** 	//ç¾ãƒãƒ¼ãƒ‰ã‹ã‚‰3æ–¹å‘ãƒãƒ¼ãƒ‰ã‚’è¦‹ã¦ã€æœªçŸ¥ãªã‚‰å³return
 4998              		.loc 1 1208 8 view .LVU1438
 4999 0160 8646     		mov	lr, r0
 5000 0162 C8E7     		b	.L311
 5001              	.L327:
1291:Core/Src/MazeLib.c **** //						next_node = &(maze->RawNode[now_node->pos.x][now_node->pos.y-1]);
 5002              		.loc 1 1291 22 view .LVU1439
 5003 0164 A446     		mov	ip, r4
 5004              	.LVL411:
1293:Core/Src/MazeLib.c **** 					}
 5005              		.loc 1 1293 12 view .LVU1440
 5006 0166 4FF0010E 		mov	lr, #1
 5007 016a C4E7     		b	.L311
 5008              	.LVL412:
 5009              	.L305:
1341:Core/Src/MazeLib.c **** 	{
 5010              		.loc 1 1341 7 is_stmt 1 view .LVU1441
1345:Core/Src/MazeLib.c **** 		{
 5011              		.loc 1 1345 3 view .LVU1442
 5012 016c 01F00701 		and	r1, r1, #7
 5013              	.LVL413:
1345:Core/Src/MazeLib.c **** 		{
 5014              		.loc 1 1345 3 is_stmt 0 view .LVU1443
 5015 0170 0229     		cmp	r1, #2
 5016 0172 03D0     		beq	.L313
 5017 0174 0629     		cmp	r1, #6
 5018 0176 4BD0     		beq	.L314
 5019 0178 0020     		movs	r0, #0
 5020 017a 4EE7     		b	.L308
 5021              	.L313:
1350:Core/Src/MazeLib.c **** 			{
 5022              		.loc 1 1350 4 is_stmt 1 view .LVU1444
1350:Core/Src/MazeLib.c **** 			{
 5023              		.loc 1 1350 20 is_stmt 0 view .LVU1445
 5024 017c 9179     		ldrb	r1, [r2, #6]	@ zero_extendqisi2
1350:Core/Src/MazeLib.c **** 			{
 5025              		.loc 1 1350 6 view .LVU1446
 5026 017e 0E29     		cmp	r1, #14
 5027 0180 12D8     		bhi	.L331
1352:Core/Src/MazeLib.c **** 				{
 5028              		.loc 1 1352 5 is_stmt 1 view .LVU1447
1352:Core/Src/MazeLib.c **** 				{
 5029              		.loc 1 1352 42 is_stmt 0 view .LVU1448
 5030 0182 4E1C     		adds	r6, r1, #1
1352:Core/Src/MazeLib.c **** 				{
 5031              		.loc 1 1352 59 view .LVU1449
 5032 0184 D479     		ldrb	r4, [r2, #7]	@ zero_extendqisi2
1352:Core/Src/MazeLib.c **** 				{
ARM GAS  /var/folders/v_/kwz_t0cs68g1q1d733r227b80000gn/T//cc7enlx9.s 			page 135


 5033              		.loc 1 1352 62 view .LVU1450
 5034 0186 04EB061E 		add	lr, r4, r6, lsl #4
 5035 018a 0EF5887E 		add	lr, lr, #272
 5036 018e 13F83E50 		ldrb	r5, [r3, lr, lsl #3]	@ zero_extendqisi2
1352:Core/Src/MazeLib.c **** 				{
 5037              		.loc 1 1352 7 view .LVU1451
 5038 0192 022D     		cmp	r5, #2
 5039 0194 00F09780 		beq	.L332
1356:Core/Src/MazeLib.c **** 				{
 5040              		.loc 1 1356 10 is_stmt 1 view .LVU1452
1356:Core/Src/MazeLib.c **** 				{
 5041              		.loc 1 1356 12 is_stmt 0 view .LVU1453
 5042 0198 B5BB     		cbnz	r5, .L333
1358:Core/Src/MazeLib.c **** 					{
 5043              		.loc 1 1358 6 is_stmt 1 view .LVU1454
1358:Core/Src/MazeLib.c **** 					{
 5044              		.loc 1 1358 78 is_stmt 0 view .LVU1455
 5045 019a 03EBCE04 		add	r4, r3, lr, lsl #3
 5046 019e 6488     		ldrh	r4, [r4, #2]
1358:Core/Src/MazeLib.c **** 					{
 5047              		.loc 1 1358 8 view .LVU1456
 5048 01a0 6445     		cmp	r4, ip
 5049 01a2 33D3     		bcc	.L334
1208:Core/Src/MazeLib.c **** 	//ç¾ãƒãƒ¼ãƒ‰ã‹ã‚‰3æ–¹å‘ãƒãƒ¼ãƒ‰ã‚’è¦‹ã¦ã€æœªçŸ¥ãªã‚‰å³return
 5050              		.loc 1 1208 8 view .LVU1457
 5051 01a4 0020     		movs	r0, #0
 5052 01a6 00E0     		b	.L315
 5053              	.L331:
1208:Core/Src/MazeLib.c **** 	//ç¾ãƒãƒ¼ãƒ‰ã‹ã‚‰3æ–¹å‘ãƒãƒ¼ãƒ‰ã‚’è¦‹ã¦ã€æœªçŸ¥ãªã‚‰å³return
 5054              		.loc 1 1208 8 view .LVU1458
 5055 01a8 0020     		movs	r0, #0
 5056              	.LVL414:
 5057              	.L315:
1368:Core/Src/MazeLib.c **** 			{
 5058              		.loc 1 1368 4 is_stmt 1 view .LVU1459
1368:Core/Src/MazeLib.c **** 			{
 5059              		.loc 1 1368 20 is_stmt 0 view .LVU1460
 5060 01aa D279     		ldrb	r2, [r2, #7]	@ zero_extendqisi2
 5061              	.LVL415:
1368:Core/Src/MazeLib.c **** 			{
 5062              		.loc 1 1368 6 view .LVU1461
 5063 01ac 0E2A     		cmp	r2, #14
 5064 01ae 13D8     		bhi	.L316
1371:Core/Src/MazeLib.c **** 				{
 5065              		.loc 1 1371 5 is_stmt 1 view .LVU1462
1371:Core/Src/MazeLib.c **** 				{
 5066              		.loc 1 1371 56 is_stmt 0 view .LVU1463
 5067 01b0 551C     		adds	r5, r2, #1
1371:Core/Src/MazeLib.c **** 				{
 5068              		.loc 1 1371 59 view .LVU1464
 5069 01b2 01EB0114 		add	r4, r1, r1, lsl #4
 5070 01b6 2C44     		add	r4, r4, r5
 5071 01b8 13F83440 		ldrb	r4, [r3, r4, lsl #3]	@ zero_extendqisi2
1371:Core/Src/MazeLib.c **** 				{
 5072              		.loc 1 1371 7 view .LVU1465
 5073 01bc 022C     		cmp	r4, #2
 5074 01be 00F08480 		beq	.L335
ARM GAS  /var/folders/v_/kwz_t0cs68g1q1d733r227b80000gn/T//cc7enlx9.s 			page 136


1375:Core/Src/MazeLib.c **** 				{
 5075              		.loc 1 1375 10 is_stmt 1 view .LVU1466
1375:Core/Src/MazeLib.c **** 				{
 5076              		.loc 1 1375 12 is_stmt 0 view .LVU1467
 5077 01c2 4CB9     		cbnz	r4, .L316
1378:Core/Src/MazeLib.c **** 					{
 5078              		.loc 1 1378 6 is_stmt 1 view .LVU1468
1378:Core/Src/MazeLib.c **** 					{
 5079              		.loc 1 1378 75 is_stmt 0 view .LVU1469
 5080 01c4 01EB0114 		add	r4, r1, r1, lsl #4
 5081 01c8 2544     		add	r5, r5, r4
 5082 01ca 03EBC505 		add	r5, r3, r5, lsl #3
 5083 01ce 6C88     		ldrh	r4, [r5, #2]
1378:Core/Src/MazeLib.c **** 					{
 5084              		.loc 1 1378 8 view .LVU1470
 5085 01d0 6445     		cmp	r4, ip
 5086 01d2 01D2     		bcs	.L316
1380:Core/Src/MazeLib.c **** //							next_node = &(maze->RawNode[now_node->pos.x][now_node->pos.y+1]);
 5087              		.loc 1 1380 22 view .LVU1471
 5088 01d4 A446     		mov	ip, r4
 5089              	.LVL416:
1382:Core/Src/MazeLib.c **** 					}
 5090              		.loc 1 1382 12 view .LVU1472
 5091 01d6 0020     		movs	r0, #0
 5092              	.LVL417:
 5093              	.L316:
1388:Core/Src/MazeLib.c **** 			{
 5094              		.loc 1 1388 4 is_stmt 1 view .LVU1473
1388:Core/Src/MazeLib.c **** 			{
 5095              		.loc 1 1388 6 is_stmt 0 view .LVU1474
 5096 01d8 002A     		cmp	r2, #0
 5097 01da 3FF41EAF 		beq	.L308
1391:Core/Src/MazeLib.c **** 				{
 5098              		.loc 1 1391 5 is_stmt 1 view .LVU1475
1391:Core/Src/MazeLib.c **** 				{
 5099              		.loc 1 1391 57 is_stmt 0 view .LVU1476
 5100 01de 01EB0114 		add	r4, r1, r1, lsl #4
 5101 01e2 1444     		add	r4, r4, r2
 5102 01e4 13F83440 		ldrb	r4, [r3, r4, lsl #3]	@ zero_extendqisi2
1391:Core/Src/MazeLib.c **** 				{
 5103              		.loc 1 1391 7 view .LVU1477
 5104 01e8 022C     		cmp	r4, #2
 5105 01ea 70D0     		beq	.L337
1395:Core/Src/MazeLib.c **** 				{
 5106              		.loc 1 1395 10 is_stmt 1 view .LVU1478
1395:Core/Src/MazeLib.c **** 				{
 5107              		.loc 1 1395 12 is_stmt 0 view .LVU1479
 5108 01ec 002C     		cmp	r4, #0
 5109 01ee 7FF414AF 		bne	.L308
1398:Core/Src/MazeLib.c **** 					{
 5110              		.loc 1 1398 6 is_stmt 1 view .LVU1480
1398:Core/Src/MazeLib.c **** 					{
 5111              		.loc 1 1398 73 is_stmt 0 view .LVU1481
 5112 01f2 01EB0111 		add	r1, r1, r1, lsl #4
 5113 01f6 1144     		add	r1, r1, r2
 5114 01f8 03EBC103 		add	r3, r3, r1, lsl #3
 5115              	.LVL418:
ARM GAS  /var/folders/v_/kwz_t0cs68g1q1d733r227b80000gn/T//cc7enlx9.s 			page 137


1398:Core/Src/MazeLib.c **** 					{
 5116              		.loc 1 1398 73 view .LVU1482
 5117 01fc 5B88     		ldrh	r3, [r3, #2]
1398:Core/Src/MazeLib.c **** 					{
 5118              		.loc 1 1398 8 view .LVU1483
 5119 01fe 6345     		cmp	r3, ip
 5120 0200 BFF40BAF 		bcs	.L308
1402:Core/Src/MazeLib.c **** 					}
 5121              		.loc 1 1402 12 view .LVU1484
 5122 0204 0020     		movs	r0, #0
 5123              	.LVL419:
1402:Core/Src/MazeLib.c **** 					}
 5124              		.loc 1 1402 12 view .LVU1485
 5125 0206 08E7     		b	.L308
 5126              	.LVL420:
 5127              	.L333:
1208:Core/Src/MazeLib.c **** 	//ç¾ãƒãƒ¼ãƒ‰ã‹ã‚‰3æ–¹å‘ãƒãƒ¼ãƒ‰ã‚’è¦‹ã¦ã€æœªçŸ¥ãªã‚‰å³return
 5128              		.loc 1 1208 8 view .LVU1486
 5129 0208 0020     		movs	r0, #0
 5130 020a CEE7     		b	.L315
 5131              	.L334:
1360:Core/Src/MazeLib.c **** //							next_node = &(maze->ColumnNode[now_node->pos.x+1][now_node->pos.y]);
 5132              		.loc 1 1360 22 view .LVU1487
 5133 020c A446     		mov	ip, r4
 5134              	.LVL421:
1360:Core/Src/MazeLib.c **** //							next_node = &(maze->ColumnNode[now_node->pos.x+1][now_node->pos.y]);
 5135              		.loc 1 1360 22 view .LVU1488
 5136 020e CCE7     		b	.L315
 5137              	.LVL422:
 5138              	.L314:
1410:Core/Src/MazeLib.c **** 			{
 5139              		.loc 1 1410 4 is_stmt 1 view .LVU1489
1410:Core/Src/MazeLib.c **** 			{
 5140              		.loc 1 1410 20 is_stmt 0 view .LVU1490
 5141 0210 9179     		ldrb	r1, [r2, #6]	@ zero_extendqisi2
1410:Core/Src/MazeLib.c **** 			{
 5142              		.loc 1 1410 6 view .LVU1491
 5143 0212 0129     		cmp	r1, #1
 5144 0214 18D9     		bls	.L339
1412:Core/Src/MazeLib.c **** 				{
 5145              		.loc 1 1412 5 is_stmt 1 view .LVU1492
1412:Core/Src/MazeLib.c **** 				{
 5146              		.loc 1 1412 42 is_stmt 0 view .LVU1493
 5147 0216 4D1E     		subs	r5, r1, #1
1412:Core/Src/MazeLib.c **** 				{
 5148              		.loc 1 1412 59 view .LVU1494
 5149 0218 92F807E0 		ldrb	lr, [r2, #7]	@ zero_extendqisi2
1412:Core/Src/MazeLib.c **** 				{
 5150              		.loc 1 1412 62 view .LVU1495
 5151 021c 0EEB0514 		add	r4, lr, r5, lsl #4
 5152 0220 04F58874 		add	r4, r4, #272
 5153 0224 13F83440 		ldrb	r4, [r3, r4, lsl #3]	@ zero_extendqisi2
1412:Core/Src/MazeLib.c **** 				{
 5154              		.loc 1 1412 7 view .LVU1496
 5155 0228 022C     		cmp	r4, #2
 5156 022a 52D0     		beq	.L340
1416:Core/Src/MazeLib.c **** 				{
ARM GAS  /var/folders/v_/kwz_t0cs68g1q1d733r227b80000gn/T//cc7enlx9.s 			page 138


 5157              		.loc 1 1416 10 is_stmt 1 view .LVU1497
1416:Core/Src/MazeLib.c **** 				{
 5158              		.loc 1 1416 12 is_stmt 0 view .LVU1498
 5159 022c 002C     		cmp	r4, #0
 5160 022e 3ED1     		bne	.L341
1419:Core/Src/MazeLib.c **** 					{
 5161              		.loc 1 1419 6 is_stmt 1 view .LVU1499
1419:Core/Src/MazeLib.c **** 					{
 5162              		.loc 1 1419 78 is_stmt 0 view .LVU1500
 5163 0230 0EEB051E 		add	lr, lr, r5, lsl #4
 5164 0234 0EF5887E 		add	lr, lr, #272
 5165 0238 03EBCE0E 		add	lr, r3, lr, lsl #3
 5166 023c BEF80240 		ldrh	r4, [lr, #2]
1419:Core/Src/MazeLib.c **** 					{
 5167              		.loc 1 1419 8 view .LVU1501
 5168 0240 6445     		cmp	r4, ip
 5169 0242 36D3     		bcc	.L342
1208:Core/Src/MazeLib.c **** 	//ç¾ãƒãƒ¼ãƒ‰ã‹ã‚‰3æ–¹å‘ãƒãƒ¼ãƒ‰ã‚’è¦‹ã¦ã€æœªçŸ¥ãªã‚‰å³return
 5170              		.loc 1 1208 8 view .LVU1502
 5171 0244 0020     		movs	r0, #0
 5172 0246 00E0     		b	.L317
 5173              	.L339:
1208:Core/Src/MazeLib.c **** 	//ç¾ãƒãƒ¼ãƒ‰ã‹ã‚‰3æ–¹å‘ãƒãƒ¼ãƒ‰ã‚’è¦‹ã¦ã€æœªçŸ¥ãªã‚‰å³return
 5174              		.loc 1 1208 8 view .LVU1503
 5175 0248 0020     		movs	r0, #0
 5176              	.LVL423:
 5177              	.L317:
1427:Core/Src/MazeLib.c **** 			{
 5178              		.loc 1 1427 4 is_stmt 1 view .LVU1504
1427:Core/Src/MazeLib.c **** 			{
 5179              		.loc 1 1427 20 is_stmt 0 view .LVU1505
 5180 024a D279     		ldrb	r2, [r2, #7]	@ zero_extendqisi2
 5181              	.LVL424:
1427:Core/Src/MazeLib.c **** 			{
 5182              		.loc 1 1427 6 view .LVU1506
 5183 024c 0E2A     		cmp	r2, #14
 5184 024e 15D8     		bhi	.L318
1430:Core/Src/MazeLib.c **** 				{
 5185              		.loc 1 1430 5 is_stmt 1 view .LVU1507
1430:Core/Src/MazeLib.c **** 				{
 5186              		.loc 1 1430 39 is_stmt 0 view .LVU1508
 5187 0250 01F1FF3E 		add	lr, r1, #-1
1430:Core/Src/MazeLib.c **** 				{
 5188              		.loc 1 1430 58 view .LVU1509
 5189 0254 551C     		adds	r5, r2, #1
1430:Core/Src/MazeLib.c **** 				{
 5190              		.loc 1 1430 61 view .LVU1510
 5191 0256 0EEB0E14 		add	r4, lr, lr, lsl #4
 5192 025a 2C44     		add	r4, r4, r5
 5193 025c 13F83440 		ldrb	r4, [r3, r4, lsl #3]	@ zero_extendqisi2
1430:Core/Src/MazeLib.c **** 				{
 5194              		.loc 1 1430 7 view .LVU1511
 5195 0260 022C     		cmp	r4, #2
 5196 0262 38D0     		beq	.L343
1434:Core/Src/MazeLib.c **** 				{
 5197              		.loc 1 1434 10 is_stmt 1 view .LVU1512
1434:Core/Src/MazeLib.c **** 				{
ARM GAS  /var/folders/v_/kwz_t0cs68g1q1d733r227b80000gn/T//cc7enlx9.s 			page 139


 5198              		.loc 1 1434 12 is_stmt 0 view .LVU1513
 5199 0264 54B9     		cbnz	r4, .L318
1437:Core/Src/MazeLib.c **** 					{
 5200              		.loc 1 1437 6 is_stmt 1 view .LVU1514
1437:Core/Src/MazeLib.c **** 					{
 5201              		.loc 1 1437 77 is_stmt 0 view .LVU1515
 5202 0266 0EEB0E1E 		add	lr, lr, lr, lsl #4
 5203 026a AE44     		add	lr, lr, r5
 5204 026c 03EBCE0E 		add	lr, r3, lr, lsl #3
 5205 0270 BEF80240 		ldrh	r4, [lr, #2]
1437:Core/Src/MazeLib.c **** 					{
 5206              		.loc 1 1437 8 view .LVU1516
 5207 0274 6445     		cmp	r4, ip
 5208 0276 01D2     		bcs	.L318
1439:Core/Src/MazeLib.c **** //							next_node = &(maze->RawNode[now_node->pos.x-1][now_node->pos.y+1]);
 5209              		.loc 1 1439 22 view .LVU1517
 5210 0278 A446     		mov	ip, r4
 5211              	.LVL425:
1441:Core/Src/MazeLib.c **** 					}
 5212              		.loc 1 1441 12 view .LVU1518
 5213 027a 0020     		movs	r0, #0
 5214              	.LVL426:
 5215              	.L318:
1445:Core/Src/MazeLib.c **** 			{
 5216              		.loc 1 1445 4 is_stmt 1 view .LVU1519
1445:Core/Src/MazeLib.c **** 			{
 5217              		.loc 1 1445 6 is_stmt 0 view .LVU1520
 5218 027c 002A     		cmp	r2, #0
 5219 027e 3FF4CCAE 		beq	.L308
1448:Core/Src/MazeLib.c **** 				{
 5220              		.loc 1 1448 5 is_stmt 1 view .LVU1521
1448:Core/Src/MazeLib.c **** 				{
 5221              		.loc 1 1448 39 is_stmt 0 view .LVU1522
 5222 0282 0139     		subs	r1, r1, #1
1448:Core/Src/MazeLib.c **** 				{
 5223              		.loc 1 1448 59 view .LVU1523
 5224 0284 01EB0114 		add	r4, r1, r1, lsl #4
 5225 0288 1444     		add	r4, r4, r2
 5226 028a 13F83440 		ldrb	r4, [r3, r4, lsl #3]	@ zero_extendqisi2
1448:Core/Src/MazeLib.c **** 				{
 5227              		.loc 1 1448 7 view .LVU1524
 5228 028e 022C     		cmp	r4, #2
 5229 0290 23D0     		beq	.L345
1452:Core/Src/MazeLib.c **** 				{
 5230              		.loc 1 1452 10 is_stmt 1 view .LVU1525
1452:Core/Src/MazeLib.c **** 				{
 5231              		.loc 1 1452 12 is_stmt 0 view .LVU1526
 5232 0292 002C     		cmp	r4, #0
 5233 0294 7FF4C1AE 		bne	.L308
1455:Core/Src/MazeLib.c **** 					{
 5234              		.loc 1 1455 6 is_stmt 1 view .LVU1527
1455:Core/Src/MazeLib.c **** 					{
 5235              		.loc 1 1455 75 is_stmt 0 view .LVU1528
 5236 0298 01EB0111 		add	r1, r1, r1, lsl #4
 5237 029c 1144     		add	r1, r1, r2
 5238 029e 03EBC103 		add	r3, r3, r1, lsl #3
 5239              	.LVL427:
ARM GAS  /var/folders/v_/kwz_t0cs68g1q1d733r227b80000gn/T//cc7enlx9.s 			page 140


1455:Core/Src/MazeLib.c **** 					{
 5240              		.loc 1 1455 75 view .LVU1529
 5241 02a2 5B88     		ldrh	r3, [r3, #2]
1455:Core/Src/MazeLib.c **** 					{
 5242              		.loc 1 1455 8 view .LVU1530
 5243 02a4 6345     		cmp	r3, ip
 5244 02a6 BFF4B8AE 		bcs	.L308
1459:Core/Src/MazeLib.c **** 					}
 5245              		.loc 1 1459 12 view .LVU1531
 5246 02aa 0020     		movs	r0, #0
 5247              	.LVL428:
1459:Core/Src/MazeLib.c **** 					}
 5248              		.loc 1 1459 12 view .LVU1532
 5249 02ac B5E6     		b	.L308
 5250              	.LVL429:
 5251              	.L341:
1208:Core/Src/MazeLib.c **** 	//ç¾ãƒãƒ¼ãƒ‰ã‹ã‚‰3æ–¹å‘ãƒãƒ¼ãƒ‰ã‚’è¦‹ã¦ã€æœªçŸ¥ãªã‚‰å³return
 5252              		.loc 1 1208 8 view .LVU1533
 5253 02ae 0020     		movs	r0, #0
 5254 02b0 CBE7     		b	.L317
 5255              	.L342:
1421:Core/Src/MazeLib.c **** //							next_node = &(maze->ColumnNode[now_node->pos.x-1][now_node->pos.y]);
 5256              		.loc 1 1421 22 view .LVU1534
 5257 02b2 A446     		mov	ip, r4
 5258              	.LVL430:
1421:Core/Src/MazeLib.c **** //							next_node = &(maze->ColumnNode[now_node->pos.x-1][now_node->pos.y]);
 5259              		.loc 1 1421 22 view .LVU1535
 5260 02b4 C9E7     		b	.L317
 5261              	.LVL431:
 5262              	.L323:
1421:Core/Src/MazeLib.c **** //							next_node = &(maze->ColumnNode[now_node->pos.x-1][now_node->pos.y]);
 5263              		.loc 1 1421 22 view .LVU1536
 5264 02b6 7046     		mov	r0, lr
 5265 02b8 AFE6     		b	.L308
 5266              	.L324:
1421:Core/Src/MazeLib.c **** //							next_node = &(maze->ColumnNode[now_node->pos.x-1][now_node->pos.y]);
 5267              		.loc 1 1421 22 view .LVU1537
 5268 02ba 7046     		mov	r0, lr
 5269 02bc ADE6     		b	.L308
 5270              	.L329:
1421:Core/Src/MazeLib.c **** //							next_node = &(maze->ColumnNode[now_node->pos.x-1][now_node->pos.y]);
 5271              		.loc 1 1421 22 view .LVU1538
 5272 02be 7046     		mov	r0, lr
 5273 02c0 ABE6     		b	.L308
 5274              	.L330:
1421:Core/Src/MazeLib.c **** //							next_node = &(maze->ColumnNode[now_node->pos.x-1][now_node->pos.y]);
 5275              		.loc 1 1421 22 view .LVU1539
 5276 02c2 7046     		mov	r0, lr
 5277 02c4 A9E6     		b	.L308
 5278              	.LVL432:
 5279              	.L332:
1354:Core/Src/MazeLib.c **** 				}
 5280              		.loc 1 1354 13 view .LVU1540
 5281 02c6 0020     		movs	r0, #0
 5282 02c8 A7E6     		b	.L308
 5283              	.LVL433:
 5284              	.L335:
ARM GAS  /var/folders/v_/kwz_t0cs68g1q1d733r227b80000gn/T//cc7enlx9.s 			page 141


1373:Core/Src/MazeLib.c **** 				}
 5285              		.loc 1 1373 13 view .LVU1541
 5286 02ca 0020     		movs	r0, #0
 5287              	.LVL434:
1373:Core/Src/MazeLib.c **** 				}
 5288              		.loc 1 1373 13 view .LVU1542
 5289 02cc A5E6     		b	.L308
 5290              	.LVL435:
 5291              	.L337:
1393:Core/Src/MazeLib.c **** 				}
 5292              		.loc 1 1393 13 view .LVU1543
 5293 02ce 0020     		movs	r0, #0
 5294              	.LVL436:
1393:Core/Src/MazeLib.c **** 				}
 5295              		.loc 1 1393 13 view .LVU1544
 5296 02d0 A3E6     		b	.L308
 5297              	.LVL437:
 5298              	.L340:
1414:Core/Src/MazeLib.c **** 				}
 5299              		.loc 1 1414 13 view .LVU1545
 5300 02d2 0020     		movs	r0, #0
 5301 02d4 A1E6     		b	.L308
 5302              	.LVL438:
 5303              	.L343:
1432:Core/Src/MazeLib.c **** 				}
 5304              		.loc 1 1432 13 view .LVU1546
 5305 02d6 0020     		movs	r0, #0
 5306              	.LVL439:
1432:Core/Src/MazeLib.c **** 				}
 5307              		.loc 1 1432 13 view .LVU1547
 5308 02d8 9FE6     		b	.L308
 5309              	.LVL440:
 5310              	.L345:
1450:Core/Src/MazeLib.c **** 				}
 5311              		.loc 1 1450 13 view .LVU1548
 5312 02da 0020     		movs	r0, #0
 5313              	.LVL441:
1450:Core/Src/MazeLib.c **** 				}
 5314              		.loc 1 1450 13 view .LVU1549
 5315 02dc 9DE6     		b	.L308
 5316              		.cfi_endproc
 5317              	.LFE37:
 5319              		.section	.text.getNextState,"ax",%progbits
 5320              		.align	1
 5321              		.global	getNextState
 5322              		.syntax unified
 5323              		.thumb
 5324              		.thumb_func
 5325              		.fpu fpv4-sp-d16
 5327              	getNextState:
 5328              	.LVL442:
 5329              	.LFB38:
1474:Core/Src/MazeLib.c **** state *getNextState(state *now_state, state *next_state, node *next_node)
1475:Core/Src/MazeLib.c **** {
 5330              		.loc 1 1475 1 is_stmt 1 view -0
 5331              		.cfi_startproc
 5332              		@ args = 0, pretend = 0, frame = 0
ARM GAS  /var/folders/v_/kwz_t0cs68g1q1d733r227b80000gn/T//cc7enlx9.s 			page 142


 5333              		@ frame_needed = 0, uses_anonymous_args = 0
 5334              		.loc 1 1475 1 is_stmt 0 view .LVU1551
 5335 0000 70B5     		push	{r4, r5, r6, lr}
 5336              	.LCFI39:
 5337              		.cfi_def_cfa_offset 16
 5338              		.cfi_offset 4, -16
 5339              		.cfi_offset 5, -12
 5340              		.cfi_offset 6, -8
 5341              		.cfi_offset 14, -4
 5342 0002 0346     		mov	r3, r0
 5343 0004 0846     		mov	r0, r1
 5344              	.LVL443:
1476:Core/Src/MazeLib.c ****     //state *next_state;
1477:Core/Src/MazeLib.c ****     //å·®åˆ†ã‚’è¦‹ã¦ã€æ¬¡ã®çŠ¶æ…‹ã‚’å®šç¾©
1478:Core/Src/MazeLib.c ****     //çŠ¶æ…‹ã®ç¨®é¡ã«å¿œã˜ã¦å¾Œã§è¿½åŠ :æ¢ç´¢æ™‚ã¨æœ€çŸ­æ™‚ã€æ—¢çŸ¥åŒºé–“èµ°è¡Œã§ã†ã¾ã
1479:Core/Src/MazeLib.c ****     //ãƒãƒ¼ãƒ‰ã¨æ–¹è§’ã¨åº§æ¨™ã‚’ä½¿ã£ã¦ã€æ¬¡ã®æ–¹è§’ã¨åº§æ¨™ã‚’å¾—ã‚‹
1480:Core/Src/MazeLib.c **** 
1481:Core/Src/MazeLib.c ****     uint8_t now_x = now_state->node->pos.x;
 5345              		.loc 1 1481 5 is_stmt 1 view .LVU1552
 5346              		.loc 1 1481 30 is_stmt 0 view .LVU1553
 5347 0006 9968     		ldr	r1, [r3, #8]
 5348              	.LVL444:
 5349              		.loc 1 1481 13 view .LVU1554
 5350 0008 91F806E0 		ldrb	lr, [r1, #6]	@ zero_extendqisi2
 5351              	.LVL445:
1482:Core/Src/MazeLib.c ****     uint8_t now_y = now_state->node->pos.y;
 5352              		.loc 1 1482 5 is_stmt 1 view .LVU1555
 5353              		.loc 1 1482 13 is_stmt 0 view .LVU1556
 5354 000c CC79     		ldrb	r4, [r1, #7]	@ zero_extendqisi2
 5355              	.LVL446:
1483:Core/Src/MazeLib.c ****     uint8_t next_x = next_node->pos.x;
 5356              		.loc 1 1483 5 is_stmt 1 view .LVU1557
 5357              		.loc 1 1483 13 is_stmt 0 view .LVU1558
 5358 000e 9179     		ldrb	r1, [r2, #6]	@ zero_extendqisi2
 5359              	.LVL447:
1484:Core/Src/MazeLib.c ****     uint8_t next_y = next_node->pos.y;
 5360              		.loc 1 1484 5 is_stmt 1 view .LVU1559
 5361              		.loc 1 1484 13 is_stmt 0 view .LVU1560
 5362 0010 D579     		ldrb	r5, [r2, #7]	@ zero_extendqisi2
 5363              	.LVL448:
1485:Core/Src/MazeLib.c **** 
1486:Core/Src/MazeLib.c ****     switch(now_state->car%8)
 5364              		.loc 1 1486 5 is_stmt 1 view .LVU1561
 5365              		.loc 1 1486 21 is_stmt 0 view .LVU1562
 5366 0012 93F802C0 		ldrb	ip, [r3, #2]	@ zero_extendqisi2
 5367              		.loc 1 1486 5 view .LVU1563
 5368 0016 0CF0070C 		and	ip, ip, #7
 5369 001a BCF1060F 		cmp	ip, #6
 5370 001e 19D8     		bhi	.L349
 5371 0020 DFE81CF0 		tbh	[pc, ip, lsl #1]
 5372              	.L351:
 5373 0024 0700     		.2byte	(.L354-.L351)/2
 5374 0026 1800     		.2byte	(.L349-.L351)/2
 5375 0028 5E00     		.2byte	(.L353-.L351)/2
 5376 002a 1800     		.2byte	(.L349-.L351)/2
 5377 002c B800     		.2byte	(.L352-.L351)/2
 5378 002e 1800     		.2byte	(.L349-.L351)/2
ARM GAS  /var/folders/v_/kwz_t0cs68g1q1d733r227b80000gn/T//cc7enlx9.s 			page 143


 5379 0030 1601     		.2byte	(.L350-.L351)/2
 5380              		.p2align 1
 5381              	.L354:
1487:Core/Src/MazeLib.c ****     {
1488:Core/Src/MazeLib.c ****         case north://è¡Œã‹ã‚‰ã€åˆ—ã«è¡Œãã®ã‹è¡Œã«è¡Œãã®ã‹ã§ã€å·®åˆ†ã®å–ã‚Šæ–¹ã‚’å¤‰
1489:Core/Src/MazeLib.c ****             if(next_node->rc == 0)
 5382              		.loc 1 1489 13 is_stmt 1 view .LVU1564
 5383              		.loc 1 1489 25 is_stmt 0 view .LVU1565
 5384 0032 5279     		ldrb	r2, [r2, #5]	@ zero_extendqisi2
 5385              	.LVL449:
 5386              		.loc 1 1489 15 view .LVU1566
 5387 0034 1AB9     		cbnz	r2, .L355
1490:Core/Src/MazeLib.c ****             {
1491:Core/Src/MazeLib.c ****                 //è¡Œã‹ã‚‰è¡Œ
1492:Core/Src/MazeLib.c ****                 //ç›´é€²ã‹Uã‚¿ãƒ¼ãƒ³ã®ã©ã¡ã‚‰ã‹ã€‚ã¨ã‚Šã‚ãˆãš1æ–¹å‘
1493:Core/Src/MazeLib.c ****                 //éš£æ¥ã™ã‚‹ãƒãƒ¼ãƒ‰ã—ã‹è¦‹ã¦ã„ãªã„
1494:Core/Src/MazeLib.c ****                 //ç›´é€²
1495:Core/Src/MazeLib.c ****                 //åŒ—å‘ãã‹ã‚‰åŒ—å‘ã
1496:Core/Src/MazeLib.c ****                 if( __RAW_TO_RAW_NORTH__(now_x, now_y, next_x, next_y) )
 5388              		.loc 1 1496 17 is_stmt 1 view .LVU1567
 5389              		.loc 1 1496 19 is_stmt 0 view .LVU1568
 5390 0036 8E45     		cmp	lr, r1
 5391 0038 0DD0     		beq	.L376
 5392              	.L356:
1497:Core/Src/MazeLib.c ****                 {
1498:Core/Src/MazeLib.c ****                     next_state->car = north;
1499:Core/Src/MazeLib.c ****                     next_state->pos.y = now_state->pos.y + 1;
1500:Core/Src/MazeLib.c ****                     now_state->dir = front;
1501:Core/Src/MazeLib.c ****                     return next_state;
1502:Core/Src/MazeLib.c ****                 }
1503:Core/Src/MazeLib.c ****                 //å¾Œã‚
1504:Core/Src/MazeLib.c ****                 //åŒ—å‘ãã‹ã‚‰å—å‘ã
1505:Core/Src/MazeLib.c ****                 if( __RAW_TO_RAW_SOUTH__(now_x, now_y, next_x, next_y) )
 5393              		.loc 1 1505 17 is_stmt 1 view .LVU1569
 5394              		.loc 1 1505 19 is_stmt 0 view .LVU1570
 5395 003a 8E45     		cmp	lr, r1
 5396 003c 16D0     		beq	.L377
 5397              	.L355:
1506:Core/Src/MazeLib.c ****                 {
1507:Core/Src/MazeLib.c ****                     next_state->car = south;
1508:Core/Src/MazeLib.c ****                     next_state->pos.y = now_state->pos.y - 2; //æ¬¡ã«å£ã‚’æ›´æ–°ã™ã‚‹ã‚¿ã‚¤ãƒŸãƒ
1509:Core/Src/MazeLib.c ****                     now_state->dir = back;
1510:Core/Src/MazeLib.c ****                     return next_state;
1511:Core/Src/MazeLib.c ****                 }
1512:Core/Src/MazeLib.c **** 
1513:Core/Src/MazeLib.c ****             }
1514:Core/Src/MazeLib.c **** 
1515:Core/Src/MazeLib.c **** 
1516:Core/Src/MazeLib.c ****             if(next_node->rc == 1)
 5398              		.loc 1 1516 13 is_stmt 1 view .LVU1571
 5399              		.loc 1 1516 15 is_stmt 0 view .LVU1572
 5400 003e 4AB1     		cbz	r2, .L349
1517:Core/Src/MazeLib.c ****             {
1518:Core/Src/MazeLib.c ****                 //è¡Œã‹ã‚‰åˆ—.å·¦å³ã®ã©ã¡ã‚‰ã‹åˆ¤æ–­.ã‚ã¨ã§å¾Œã‚ã‚‚å€™è£œã«ã‚ã’ã‚‹
1519:Core/Src/MazeLib.c ****                 //å³æ—‹å›
1520:Core/Src/MazeLib.c ****                 //åŒ—å‘ãã‹ã‚‰åŒ—æ±
1521:Core/Src/MazeLib.c ****                 if( __RAW_TO_COLUMN_NE__(now_x, now_y, next_x, next_y) )
ARM GAS  /var/folders/v_/kwz_t0cs68g1q1d733r227b80000gn/T//cc7enlx9.s 			page 144


 5401              		.loc 1 1521 17 is_stmt 1 view .LVU1573
 5402              		.loc 1 1521 21 is_stmt 0 view .LVU1574
 5403 0040 0EF10102 		add	r2, lr, #1
 5404              		.loc 1 1521 19 view .LVU1575
 5405 0044 8A42     		cmp	r2, r1
 5406 0046 1CD0     		beq	.L378
 5407              	.L357:
1522:Core/Src/MazeLib.c ****                 {
1523:Core/Src/MazeLib.c ****                     next_state->car = east;
1524:Core/Src/MazeLib.c ****                     next_state->pos.x = now_state->pos.x + 1;
1525:Core/Src/MazeLib.c ****                     now_state->dir = right;
1526:Core/Src/MazeLib.c **** //                    ChangeLED(6);
1527:Core/Src/MazeLib.c ****                     return next_state;
1528:Core/Src/MazeLib.c ****                 }
1529:Core/Src/MazeLib.c **** 
1530:Core/Src/MazeLib.c ****                 //å·¦æ—‹å›
1531:Core/Src/MazeLib.c ****                 //åŒ—å‘ãã‹ã‚‰åŒ—è¥¿
1532:Core/Src/MazeLib.c ****                 if( __RAW_TO_COLUMN_NW__(now_x, now_y, next_x, next_y) )
 5408              		.loc 1 1532 17 is_stmt 1 view .LVU1576
 5409              		.loc 1 1532 19 is_stmt 0 view .LVU1577
 5410 0048 8E45     		cmp	lr, r1
 5411 004a 23D0     		beq	.L379
 5412              	.L358:
1533:Core/Src/MazeLib.c ****                 {
1534:Core/Src/MazeLib.c ****                     next_state->car = west;
1535:Core/Src/MazeLib.c ****                     next_state->pos.x = now_state->pos.x - 1;
1536:Core/Src/MazeLib.c ****                     now_state->dir = left;
1537:Core/Src/MazeLib.c ****                     return next_state;
1538:Core/Src/MazeLib.c ****                 }
1539:Core/Src/MazeLib.c **** 
1540:Core/Src/MazeLib.c ****                 //Uã‚¿ãƒ¼ãƒ³ã—ã¦å³æ—‹å›
1541:Core/Src/MazeLib.c ****                 //åŒ—å‘ãã‹ã‚‰å—è¥¿
1542:Core/Src/MazeLib.c ****                 if( __RAW_TO_COLUMN_SW__(now_x, now_y, next_x, next_y) )
 5413              		.loc 1 1542 17 is_stmt 1 view .LVU1578
 5414              		.loc 1 1542 19 is_stmt 0 view .LVU1579
 5415 004c 8E45     		cmp	lr, r1
 5416 004e 2AD0     		beq	.L380
 5417              	.L359:
1543:Core/Src/MazeLib.c ****                 {
1544:Core/Src/MazeLib.c ****                     next_state->car = west;
1545:Core/Src/MazeLib.c ****                     next_state->pos.x = now_state->pos.x - 1;
1546:Core/Src/MazeLib.c ****                     next_state->pos.y = now_state->pos.y - 1;
1547:Core/Src/MazeLib.c ****                     now_state->dir = backright;
1548:Core/Src/MazeLib.c ****                     return next_state;
1549:Core/Src/MazeLib.c ****                 }
1550:Core/Src/MazeLib.c ****                 //Uã‚¿ãƒ¼ãƒ³ã—ã¦å·¦æ—‹å›
1551:Core/Src/MazeLib.c ****                 //åŒ—å‘ãã‹ã‚‰å—æ±
1552:Core/Src/MazeLib.c ****                 if( __RAW_TO_COLUMN_SE__(now_x, now_y, next_x, next_y) )
 5418              		.loc 1 1552 17 is_stmt 1 view .LVU1580
 5419              		.loc 1 1552 19 is_stmt 0 view .LVU1581
 5420 0050 8A42     		cmp	r2, r1
 5421 0052 37D0     		beq	.L381
 5422              	.LVL450:
 5423              	.L349:
1553:Core/Src/MazeLib.c ****                 {
1554:Core/Src/MazeLib.c ****                     next_state->car = east;
1555:Core/Src/MazeLib.c ****                     next_state->pos.x = now_state->pos.x + 1;
ARM GAS  /var/folders/v_/kwz_t0cs68g1q1d733r227b80000gn/T//cc7enlx9.s 			page 145


1556:Core/Src/MazeLib.c ****                     next_state->pos.y = now_state->pos.y - 1;
1557:Core/Src/MazeLib.c ****                     now_state->dir = backleft;
1558:Core/Src/MazeLib.c ****                     return next_state;
1559:Core/Src/MazeLib.c ****                 }
1560:Core/Src/MazeLib.c ****             }
1561:Core/Src/MazeLib.c ****             break;
1562:Core/Src/MazeLib.c **** 
1563:Core/Src/MazeLib.c ****         case east:
1564:Core/Src/MazeLib.c ****             if(next_node->rc == 1)
1565:Core/Src/MazeLib.c ****             {
1566:Core/Src/MazeLib.c ****                 //åˆ—ã‹ã‚‰åˆ—
1567:Core/Src/MazeLib.c ****                 //ç›´é€²ã‹Uã‚¿ãƒ¼ãƒ³ã®ã©ã¡ã‚‰ã‹ã€‚ã¨ã‚Šã‚ãˆãš1æ–¹å‘
1568:Core/Src/MazeLib.c ****                 //éš£æ¥ã™ã‚‹ãƒãƒ¼ãƒ‰ã—ã‹è¦‹ã¦ã„ãªã„
1569:Core/Src/MazeLib.c ****                 //ç›´é€²
1570:Core/Src/MazeLib.c ****                 //æ±å‘ãã‹ã‚‰æ±å‘ã
1571:Core/Src/MazeLib.c ****                 if( __COLUMN_TO_COLUMN_EAST__(now_x, now_y, next_x, next_y) )
1572:Core/Src/MazeLib.c ****                 {
1573:Core/Src/MazeLib.c ****                     next_state->car = east;
1574:Core/Src/MazeLib.c ****                     next_state->pos.x = now_state->pos.x + 1;
1575:Core/Src/MazeLib.c ****                     now_state->dir = front;
1576:Core/Src/MazeLib.c **** //                    ChangeLED(4);
1577:Core/Src/MazeLib.c ****                     return next_state;
1578:Core/Src/MazeLib.c ****                 }
1579:Core/Src/MazeLib.c ****                 //å¾Œã‚
1580:Core/Src/MazeLib.c ****                 //æ±å‘ãã‹ã‚‰è¥¿å‘ã
1581:Core/Src/MazeLib.c ****                 if( __COLUMN_TO_COLUMN_WEST__(now_x, now_y, next_x, next_y) )
1582:Core/Src/MazeLib.c ****                 {
1583:Core/Src/MazeLib.c ****                     next_state->car = west;
1584:Core/Src/MazeLib.c ****                     next_state->pos.x = now_state->pos.x - 2; //æ¬¡ã«å£ã‚’æ›´æ–°ã™ã‚‹ã‚¿ã‚¤ãƒŸãƒ
1585:Core/Src/MazeLib.c ****                     now_state->dir = back;
1586:Core/Src/MazeLib.c ****                     return next_state;
1587:Core/Src/MazeLib.c ****                 }
1588:Core/Src/MazeLib.c **** 
1589:Core/Src/MazeLib.c ****             }
1590:Core/Src/MazeLib.c **** 
1591:Core/Src/MazeLib.c **** 
1592:Core/Src/MazeLib.c ****             if(next_node->rc == 0)
1593:Core/Src/MazeLib.c ****             {
1594:Core/Src/MazeLib.c ****                 //åˆ—ã‹ã‚‰è¡Œ.å·¦å³ã®ã©ã¡ã‚‰ã‹åˆ¤æ–­.ã‚ã¨ã§å¾Œã‚ã‚‚å€™è£œã«ã‚ã’ã‚‹
1595:Core/Src/MazeLib.c ****                 //å³æ—‹å›
1596:Core/Src/MazeLib.c ****                 //æ±å‘ãã‹ã‚‰å—æ±
1597:Core/Src/MazeLib.c ****                 if( __COLUMN_TO_RAW_SE__(now_x, now_y, next_x, next_y) )
1598:Core/Src/MazeLib.c ****                 {
1599:Core/Src/MazeLib.c ****                     next_state->car = south;
1600:Core/Src/MazeLib.c ****                     next_state->pos.y = now_state->pos.y - 1;
1601:Core/Src/MazeLib.c ****                     now_state->dir = right;
1602:Core/Src/MazeLib.c **** //                    ChangeLED(5);
1603:Core/Src/MazeLib.c ****                     return next_state;
1604:Core/Src/MazeLib.c ****                 }
1605:Core/Src/MazeLib.c **** 
1606:Core/Src/MazeLib.c ****                 //å·¦æ—‹å›
1607:Core/Src/MazeLib.c ****                 //æ±å‘ãã‹ã‚‰åŒ—æ±
1608:Core/Src/MazeLib.c ****                 if( __COLUMN_TO_RAW_NE__(now_x, now_y, next_x, next_y) )
1609:Core/Src/MazeLib.c ****                 {
1610:Core/Src/MazeLib.c ****                     next_state->car = north;
1611:Core/Src/MazeLib.c ****                     next_state->pos.y = now_state->pos.y + 1;
1612:Core/Src/MazeLib.c ****                     now_state->dir = left;
ARM GAS  /var/folders/v_/kwz_t0cs68g1q1d733r227b80000gn/T//cc7enlx9.s 			page 146


1613:Core/Src/MazeLib.c ****                     return next_state;
1614:Core/Src/MazeLib.c ****                 }
1615:Core/Src/MazeLib.c ****                 //Uã‚¿ãƒ¼ãƒ³ã—ã¦å³æ—‹å›
1616:Core/Src/MazeLib.c ****                 //æ±å‘ãã‹ã‚‰åŒ—è¥¿
1617:Core/Src/MazeLib.c ****                 if( __COLUMN_TO_RAW_NW__(now_x, now_y, next_x, next_y) )
1618:Core/Src/MazeLib.c ****                 {
1619:Core/Src/MazeLib.c ****                     next_state->car = north;
1620:Core/Src/MazeLib.c ****                     next_state->pos.x = now_state->pos.x - 1;
1621:Core/Src/MazeLib.c ****                     next_state->pos.y = now_state->pos.y + 1;
1622:Core/Src/MazeLib.c ****                     now_state->dir = backright;
1623:Core/Src/MazeLib.c ****                     return next_state;
1624:Core/Src/MazeLib.c ****                 }
1625:Core/Src/MazeLib.c **** 
1626:Core/Src/MazeLib.c ****                 //Uã‚¿ãƒ¼ãƒ³ã—ã¦å·¦æ—‹å›
1627:Core/Src/MazeLib.c ****                 //æ±å‘ãã‹ã‚‰å—è¥¿
1628:Core/Src/MazeLib.c ****                 if( __COLUMN_TO_RAW_SW__(now_x, now_y, next_x, next_y) )
1629:Core/Src/MazeLib.c ****                 {
1630:Core/Src/MazeLib.c ****                     next_state->car = south;
1631:Core/Src/MazeLib.c ****                     next_state->pos.x = now_state->pos.x - 1;
1632:Core/Src/MazeLib.c ****                     next_state->pos.y = now_state->pos.y - 1;
1633:Core/Src/MazeLib.c ****                     now_state->dir = backleft;
1634:Core/Src/MazeLib.c ****                     return next_state;
1635:Core/Src/MazeLib.c ****                 }
1636:Core/Src/MazeLib.c ****             }
1637:Core/Src/MazeLib.c ****             break;
1638:Core/Src/MazeLib.c ****         case south:
1639:Core/Src/MazeLib.c ****             if(next_node->rc == 0)
1640:Core/Src/MazeLib.c ****             {
1641:Core/Src/MazeLib.c ****                 //è¡Œã‹ã‚‰è¡Œ
1642:Core/Src/MazeLib.c ****                 //ç›´é€²ã‹Uã‚¿ãƒ¼ãƒ³ã®ã©ã¡ã‚‰ã‹ã€‚ã¨ã‚Šã‚ãˆãš1æ–¹å‘
1643:Core/Src/MazeLib.c ****                 //éš£æ¥ã™ã‚‹ãƒãƒ¼ãƒ‰ã—ã‹è¦‹ã¦ã„ãªã„
1644:Core/Src/MazeLib.c ****                 //ç›´é€²
1645:Core/Src/MazeLib.c ****                 //å—å‘ãã‹ã‚‰å—
1646:Core/Src/MazeLib.c ****                 if( __RAW_TO_RAW_SOUTH__(now_x, now_y, next_x, next_y) )
1647:Core/Src/MazeLib.c ****                 {
1648:Core/Src/MazeLib.c ****                     next_state->car = south;
1649:Core/Src/MazeLib.c ****                     next_state->pos.y = now_state->pos.y - 1; //æ¬¡ã«å£ã‚’æ›´æ–°ã™ã‚‹ã‚¿ã‚¤ãƒŸãƒ
1650:Core/Src/MazeLib.c ****                     now_state->dir = front;
1651:Core/Src/MazeLib.c ****                     return next_state;
1652:Core/Src/MazeLib.c ****                 }
1653:Core/Src/MazeLib.c ****                 //Uã‚¿ãƒ¼ãƒ³
1654:Core/Src/MazeLib.c ****                 if( __RAW_TO_RAW_NORTH__(now_x, now_y, next_x, next_y) )
1655:Core/Src/MazeLib.c ****                 {
1656:Core/Src/MazeLib.c ****                     next_state->car = north;
1657:Core/Src/MazeLib.c ****                     next_state->pos.y = now_state->pos.y + 2;
1658:Core/Src/MazeLib.c ****                     now_state->dir = back;
1659:Core/Src/MazeLib.c ****                     return next_state;
1660:Core/Src/MazeLib.c ****                 }
1661:Core/Src/MazeLib.c **** 
1662:Core/Src/MazeLib.c ****             }
1663:Core/Src/MazeLib.c **** 
1664:Core/Src/MazeLib.c ****             if(next_node->rc == 1)
1665:Core/Src/MazeLib.c ****             {
1666:Core/Src/MazeLib.c ****                 //è¡Œã‹ã‚‰åˆ—.å·¦å³ã®ã©ã¡ã‚‰ã‹åˆ¤æ–­.ã‚ã¨ã§å¾Œã‚ã‚‚å€™è£œã«ã‚ã’ã‚‹
1667:Core/Src/MazeLib.c ****                 //å³æ—‹å›
1668:Core/Src/MazeLib.c ****                 //å—å‘ãã‹ã‚‰å—è¥¿
1669:Core/Src/MazeLib.c ****                 if( __RAW_TO_COLUMN_SW__(now_x, now_y, next_x, next_y) )
ARM GAS  /var/folders/v_/kwz_t0cs68g1q1d733r227b80000gn/T//cc7enlx9.s 			page 147


1670:Core/Src/MazeLib.c ****                 {
1671:Core/Src/MazeLib.c ****                     next_state->car = west;
1672:Core/Src/MazeLib.c ****                     next_state->pos.x = now_state->pos.x - 1;
1673:Core/Src/MazeLib.c ****                     now_state->dir = right;
1674:Core/Src/MazeLib.c **** //                    ChangeLED(4);
1675:Core/Src/MazeLib.c ****                     //printf("å—å‘ãã‹ã‚‰å—è¥¿:%u, %u\r\n",next_state->pos.y, now_state->pos.x
1676:Core/Src/MazeLib.c ****                     return next_state;
1677:Core/Src/MazeLib.c ****                 }
1678:Core/Src/MazeLib.c ****                 //å·¦æ—‹å›
1679:Core/Src/MazeLib.c ****                 //å—å‘ãã‹ã‚‰å—æ±
1680:Core/Src/MazeLib.c ****                 if( __RAW_TO_COLUMN_SE__(now_x, now_y, next_x, next_y) )
1681:Core/Src/MazeLib.c ****                 {
1682:Core/Src/MazeLib.c ****                     next_state->car = east;
1683:Core/Src/MazeLib.c ****                     next_state->pos.x = now_state->pos.x + 1;
1684:Core/Src/MazeLib.c ****                     now_state->dir = left;
1685:Core/Src/MazeLib.c ****                     return next_state;
1686:Core/Src/MazeLib.c ****                 }
1687:Core/Src/MazeLib.c **** 
1688:Core/Src/MazeLib.c ****                 //Uã‚¿ãƒ¼ãƒ³ã—ã¦ç›´é€²ã—ã¦å³æ—‹å›
1689:Core/Src/MazeLib.c ****                 //å—å‘ãã‹ã‚‰åŒ—æ±
1690:Core/Src/MazeLib.c ****                 if( __RAW_TO_COLUMN_NE__(now_x, now_y, next_x, next_y) )
1691:Core/Src/MazeLib.c ****                 {
1692:Core/Src/MazeLib.c ****                     next_state->car = east;
1693:Core/Src/MazeLib.c ****                     next_state->pos.x = now_state->pos.x + 1;
1694:Core/Src/MazeLib.c ****                     next_state->pos.y = now_state->pos.y + 1;
1695:Core/Src/MazeLib.c ****                     now_state->dir = backright;
1696:Core/Src/MazeLib.c ****                     return next_state;
1697:Core/Src/MazeLib.c ****                 }
1698:Core/Src/MazeLib.c ****                 //Uã‚¿ãƒ¼ãƒ³ã—ã¦ç›´é€²ã—ã¦å·¦æ—‹å›
1699:Core/Src/MazeLib.c ****                 //å—å‘ãã‹ã‚‰åŒ—è¥¿
1700:Core/Src/MazeLib.c ****                 if( __RAW_TO_COLUMN_NW__(now_x, now_y, next_x, next_y) )
1701:Core/Src/MazeLib.c ****                 {
1702:Core/Src/MazeLib.c ****                     next_state->car = west;
1703:Core/Src/MazeLib.c ****                     next_state->pos.x = now_state->pos.x - 1;
1704:Core/Src/MazeLib.c ****                     next_state->pos.y = now_state->pos.y + 1;
1705:Core/Src/MazeLib.c ****                     now_state->dir = backleft;
1706:Core/Src/MazeLib.c ****                     return next_state;
1707:Core/Src/MazeLib.c ****                 }
1708:Core/Src/MazeLib.c ****             }
1709:Core/Src/MazeLib.c ****             break;
1710:Core/Src/MazeLib.c ****         case west:
1711:Core/Src/MazeLib.c ****             if(next_node->rc == 1)
1712:Core/Src/MazeLib.c ****             {
1713:Core/Src/MazeLib.c ****                 //åˆ—ã‹ã‚‰åˆ—
1714:Core/Src/MazeLib.c ****                 //ç›´é€²ã‹Uã‚¿ãƒ¼ãƒ³ã®ã©ã¡ã‚‰ã‹ã€‚ã¨ã‚Šã‚ãˆãš1æ–¹å‘
1715:Core/Src/MazeLib.c ****                 //éš£æ¥ã™ã‚‹ãƒãƒ¼ãƒ‰ã—ã‹è¦‹ã¦ã„ãªã„
1716:Core/Src/MazeLib.c ****                 //ç›´é€²
1717:Core/Src/MazeLib.c ****                 //è¥¿å‘ãã‹ã‚‰è¥¿å‘ã
1718:Core/Src/MazeLib.c ****                 if( __COLUMN_TO_COLUMN_WEST__(now_x, now_y, next_x, next_y) )
1719:Core/Src/MazeLib.c ****                 {
1720:Core/Src/MazeLib.c ****                     next_state->car = west;
1721:Core/Src/MazeLib.c ****                     next_state->pos.x = now_state->pos.x - 1; //æ¬¡ã«å£ã‚’æ›´æ–°ã™ã‚‹ã‚¿ã‚¤ãƒŸãƒ
1722:Core/Src/MazeLib.c ****                     now_state->dir = front;
1723:Core/Src/MazeLib.c ****                     return next_state;
1724:Core/Src/MazeLib.c ****                 }
1725:Core/Src/MazeLib.c ****                 //Uã‚¿ãƒ¼ãƒ³ã—ã¦ç›´é€²
1726:Core/Src/MazeLib.c ****                 //è¥¿å‘ãã‹ã‚‰æ±å‘ã
ARM GAS  /var/folders/v_/kwz_t0cs68g1q1d733r227b80000gn/T//cc7enlx9.s 			page 148


1727:Core/Src/MazeLib.c ****                 if( __COLUMN_TO_COLUMN_EAST__(now_x, now_y, next_x, next_y) )
1728:Core/Src/MazeLib.c ****                 {
1729:Core/Src/MazeLib.c ****                     next_state->car = east;
1730:Core/Src/MazeLib.c ****                     next_state->pos.x = now_state->pos.x + 2;
1731:Core/Src/MazeLib.c ****                     now_state->dir = back;
1732:Core/Src/MazeLib.c ****                     return next_state;
1733:Core/Src/MazeLib.c ****                 }
1734:Core/Src/MazeLib.c **** 
1735:Core/Src/MazeLib.c ****             }
1736:Core/Src/MazeLib.c **** 
1737:Core/Src/MazeLib.c **** 
1738:Core/Src/MazeLib.c ****             if(next_node->rc == 0)
1739:Core/Src/MazeLib.c ****             {
1740:Core/Src/MazeLib.c ****                 //åˆ—ã‹ã‚‰è¡Œ.å·¦å³ã®ã©ã¡ã‚‰ã‹åˆ¤æ–­.ã‚ã¨ã§å¾Œã‚ã‚‚å€™è£œã«ã‚ã’ã‚‹
1741:Core/Src/MazeLib.c ****                 //å³æ—‹å›
1742:Core/Src/MazeLib.c ****                 //è¥¿å‘ãã‹ã‚‰åŒ—è¥¿
1743:Core/Src/MazeLib.c ****                 if( __COLUMN_TO_RAW_NW__(now_x, now_y, next_x, next_y) )
1744:Core/Src/MazeLib.c ****                 {
1745:Core/Src/MazeLib.c ****                     next_state->car = north;
1746:Core/Src/MazeLib.c ****                     next_state->pos.y = now_state->pos.y + 1;
1747:Core/Src/MazeLib.c ****                     now_state->dir = right;
1748:Core/Src/MazeLib.c **** //                    ChangeLED(3);
1749:Core/Src/MazeLib.c ****                     return next_state;
1750:Core/Src/MazeLib.c ****                 }
1751:Core/Src/MazeLib.c **** 
1752:Core/Src/MazeLib.c ****                 //å·¦æ—‹å›
1753:Core/Src/MazeLib.c ****                 //è¥¿å‘ãã‹ã‚‰å—è¥¿
1754:Core/Src/MazeLib.c ****                 if( __COLUMN_TO_RAW_SW__(now_x, now_y, next_x, next_y) )
1755:Core/Src/MazeLib.c ****                 {
1756:Core/Src/MazeLib.c ****                     next_state->car = south;
1757:Core/Src/MazeLib.c ****                     next_state->pos.y = now_state->pos.y - 1;
1758:Core/Src/MazeLib.c ****                     now_state->dir = left;
1759:Core/Src/MazeLib.c ****                     return next_state;
1760:Core/Src/MazeLib.c ****                 }
1761:Core/Src/MazeLib.c **** 
1762:Core/Src/MazeLib.c ****                 //Uã‚¿ãƒ¼ãƒ³ã—ã¦å³æ—‹å›
1763:Core/Src/MazeLib.c ****                 //è¥¿å‘ãã‹ã‚‰å—æ±
1764:Core/Src/MazeLib.c ****                 if( __COLUMN_TO_RAW_SE__(now_x, now_y, next_x, next_y) )
1765:Core/Src/MazeLib.c ****                 {
1766:Core/Src/MazeLib.c ****                     next_state->car = south;
1767:Core/Src/MazeLib.c ****                     next_state->pos.x = now_state->pos.x + 1;
1768:Core/Src/MazeLib.c ****                     next_state->pos.y = now_state->pos.y - 1;
1769:Core/Src/MazeLib.c ****                     now_state->dir = backright;
1770:Core/Src/MazeLib.c ****                     return next_state;
1771:Core/Src/MazeLib.c ****                 }
1772:Core/Src/MazeLib.c ****                 //Uã‚¿ãƒ¼ãƒ³ã—ã¦å·¦æ—‹å›
1773:Core/Src/MazeLib.c ****                 //è¥¿å‘ãã‹ã‚‰åŒ—æ±
1774:Core/Src/MazeLib.c ****                 if( __COLUMN_TO_RAW_NE__(now_x, now_y, next_x, next_y) )
1775:Core/Src/MazeLib.c ****                 {
1776:Core/Src/MazeLib.c ****                     next_state->car = north;
1777:Core/Src/MazeLib.c ****                     next_state->pos.x = now_state->pos.x + 1;
1778:Core/Src/MazeLib.c ****                     next_state->pos.y = now_state->pos.y + 1;
1779:Core/Src/MazeLib.c ****                     now_state->dir = backleft;
1780:Core/Src/MazeLib.c ****                     return next_state;
1781:Core/Src/MazeLib.c ****                 }
1782:Core/Src/MazeLib.c ****             }
1783:Core/Src/MazeLib.c ****             break;
ARM GAS  /var/folders/v_/kwz_t0cs68g1q1d733r227b80000gn/T//cc7enlx9.s 			page 149


1784:Core/Src/MazeLib.c ****         default:
1785:Core/Src/MazeLib.c ****             break;
1786:Core/Src/MazeLib.c ****     }
1787:Core/Src/MazeLib.c **** #if DEBUG_ON
1788:Core/Src/MazeLib.c ****     printf("ã‚¨ãƒ©ãƒ¼ in function 'getNextState'.\r\n");
1789:Core/Src/MazeLib.c **** #endif
1790:Core/Src/MazeLib.c **** 
1791:Core/Src/MazeLib.c ****     return next_state; //ã“ã“ã¾ã§æ¥ã¦ã—ã¾ã£ãŸã‚‰ã‚¨ãƒ©ãƒ¼
1792:Core/Src/MazeLib.c **** }
 5424              		.loc 1 1792 1 view .LVU1582
 5425 0054 70BD     		pop	{r4, r5, r6, pc}
 5426              	.LVL451:
 5427              	.L376:
1496:Core/Src/MazeLib.c ****                 {
 5428              		.loc 1 1496 21 discriminator 1 view .LVU1583
 5429 0056 04F1010C 		add	ip, r4, #1
 5430 005a AC45     		cmp	ip, r5
 5431 005c EDD1     		bne	.L356
1498:Core/Src/MazeLib.c ****                     next_state->pos.y = now_state->pos.y + 1;
 5432              		.loc 1 1498 21 is_stmt 1 view .LVU1584
1498:Core/Src/MazeLib.c ****                     next_state->pos.y = now_state->pos.y + 1;
 5433              		.loc 1 1498 37 is_stmt 0 view .LVU1585
 5434 005e 0021     		movs	r1, #0
 5435              	.LVL452:
1498:Core/Src/MazeLib.c ****                     next_state->pos.y = now_state->pos.y + 1;
 5436              		.loc 1 1498 37 view .LVU1586
 5437 0060 8170     		strb	r1, [r0, #2]
 5438              	.LVL453:
1499:Core/Src/MazeLib.c ****                     now_state->dir = front;
 5439              		.loc 1 1499 21 is_stmt 1 view .LVU1587
1499:Core/Src/MazeLib.c ****                     now_state->dir = front;
 5440              		.loc 1 1499 55 is_stmt 0 view .LVU1588
 5441 0062 5A78     		ldrb	r2, [r3, #1]	@ zero_extendqisi2
1499:Core/Src/MazeLib.c ****                     now_state->dir = front;
 5442              		.loc 1 1499 58 view .LVU1589
 5443 0064 0132     		adds	r2, r2, #1
1499:Core/Src/MazeLib.c ****                     now_state->dir = front;
 5444              		.loc 1 1499 39 view .LVU1590
 5445 0066 4270     		strb	r2, [r0, #1]
1500:Core/Src/MazeLib.c ****                     return next_state;
 5446              		.loc 1 1500 21 is_stmt 1 view .LVU1591
1500:Core/Src/MazeLib.c ****                     return next_state;
 5447              		.loc 1 1500 36 is_stmt 0 view .LVU1592
 5448 0068 D970     		strb	r1, [r3, #3]
1501:Core/Src/MazeLib.c ****                 }
 5449              		.loc 1 1501 21 is_stmt 1 view .LVU1593
1501:Core/Src/MazeLib.c ****                 }
 5450              		.loc 1 1501 28 is_stmt 0 view .LVU1594
 5451 006a F3E7     		b	.L349
 5452              	.LVL454:
 5453              	.L377:
1505:Core/Src/MazeLib.c ****                 {
 5454              		.loc 1 1505 21 discriminator 1 view .LVU1595
 5455 006c 04F1FF3C 		add	ip, r4, #-1
 5456 0070 AC45     		cmp	ip, r5
 5457 0072 E4D1     		bne	.L355
1507:Core/Src/MazeLib.c ****                     next_state->pos.y = now_state->pos.y - 2; //æ¬¡ã«å£ã‚’æ›´æ–°ã™ã‚‹ã‚¿ã‚¤ãƒŸãƒ
ARM GAS  /var/folders/v_/kwz_t0cs68g1q1d733r227b80000gn/T//cc7enlx9.s 			page 150


 5458              		.loc 1 1507 21 is_stmt 1 view .LVU1596
1507:Core/Src/MazeLib.c ****                     next_state->pos.y = now_state->pos.y - 2; //æ¬¡ã«å£ã‚’æ›´æ–°ã™ã‚‹ã‚¿ã‚¤ãƒŸãƒ
 5459              		.loc 1 1507 37 is_stmt 0 view .LVU1597
 5460 0074 0421     		movs	r1, #4
 5461              	.LVL455:
1507:Core/Src/MazeLib.c ****                     next_state->pos.y = now_state->pos.y - 2; //æ¬¡ã«å£ã‚’æ›´æ–°ã™ã‚‹ã‚¿ã‚¤ãƒŸãƒ
 5462              		.loc 1 1507 37 view .LVU1598
 5463 0076 8170     		strb	r1, [r0, #2]
 5464              	.LVL456:
1508:Core/Src/MazeLib.c ****                     now_state->dir = back;
 5465              		.loc 1 1508 21 is_stmt 1 view .LVU1599
1508:Core/Src/MazeLib.c ****                     now_state->dir = back;
 5466              		.loc 1 1508 55 is_stmt 0 view .LVU1600
 5467 0078 5A78     		ldrb	r2, [r3, #1]	@ zero_extendqisi2
1508:Core/Src/MazeLib.c ****                     now_state->dir = back;
 5468              		.loc 1 1508 58 view .LVU1601
 5469 007a 023A     		subs	r2, r2, #2
1508:Core/Src/MazeLib.c ****                     now_state->dir = back;
 5470              		.loc 1 1508 39 view .LVU1602
 5471 007c 4270     		strb	r2, [r0, #1]
1509:Core/Src/MazeLib.c ****                     return next_state;
 5472              		.loc 1 1509 21 is_stmt 1 view .LVU1603
1509:Core/Src/MazeLib.c ****                     return next_state;
 5473              		.loc 1 1509 36 is_stmt 0 view .LVU1604
 5474 007e D970     		strb	r1, [r3, #3]
1510:Core/Src/MazeLib.c ****                 }
 5475              		.loc 1 1510 21 is_stmt 1 view .LVU1605
1510:Core/Src/MazeLib.c ****                 }
 5476              		.loc 1 1510 28 is_stmt 0 view .LVU1606
 5477 0080 E8E7     		b	.L349
 5478              	.LVL457:
 5479              	.L378:
1521:Core/Src/MazeLib.c ****                 {
 5480              		.loc 1 1521 21 discriminator 1 view .LVU1607
 5481 0082 AC42     		cmp	r4, r5
 5482 0084 E0D1     		bne	.L357
1523:Core/Src/MazeLib.c ****                     next_state->pos.x = now_state->pos.x + 1;
 5483              		.loc 1 1523 21 is_stmt 1 view .LVU1608
1523:Core/Src/MazeLib.c ****                     next_state->pos.x = now_state->pos.x + 1;
 5484              		.loc 1 1523 37 is_stmt 0 view .LVU1609
 5485 0086 0221     		movs	r1, #2
 5486              	.LVL458:
1523:Core/Src/MazeLib.c ****                     next_state->pos.x = now_state->pos.x + 1;
 5487              		.loc 1 1523 37 view .LVU1610
 5488 0088 8170     		strb	r1, [r0, #2]
 5489              	.LVL459:
1524:Core/Src/MazeLib.c ****                     now_state->dir = right;
 5490              		.loc 1 1524 21 is_stmt 1 view .LVU1611
1524:Core/Src/MazeLib.c ****                     now_state->dir = right;
 5491              		.loc 1 1524 55 is_stmt 0 view .LVU1612
 5492 008a 1A78     		ldrb	r2, [r3]	@ zero_extendqisi2
1524:Core/Src/MazeLib.c ****                     now_state->dir = right;
 5493              		.loc 1 1524 58 view .LVU1613
 5494 008c 0132     		adds	r2, r2, #1
1524:Core/Src/MazeLib.c ****                     now_state->dir = right;
 5495              		.loc 1 1524 39 view .LVU1614
 5496 008e 0270     		strb	r2, [r0]
ARM GAS  /var/folders/v_/kwz_t0cs68g1q1d733r227b80000gn/T//cc7enlx9.s 			page 151


1525:Core/Src/MazeLib.c **** //                    ChangeLED(6);
 5497              		.loc 1 1525 21 is_stmt 1 view .LVU1615
1525:Core/Src/MazeLib.c **** //                    ChangeLED(6);
 5498              		.loc 1 1525 36 is_stmt 0 view .LVU1616
 5499 0090 D970     		strb	r1, [r3, #3]
1527:Core/Src/MazeLib.c ****                 }
 5500              		.loc 1 1527 21 is_stmt 1 view .LVU1617
1527:Core/Src/MazeLib.c ****                 }
 5501              		.loc 1 1527 28 is_stmt 0 view .LVU1618
 5502 0092 DFE7     		b	.L349
 5503              	.LVL460:
 5504              	.L379:
1532:Core/Src/MazeLib.c ****                 {
 5505              		.loc 1 1532 21 discriminator 1 view .LVU1619
 5506 0094 AC42     		cmp	r4, r5
 5507 0096 D9D1     		bne	.L358
1534:Core/Src/MazeLib.c ****                     next_state->pos.x = now_state->pos.x - 1;
 5508              		.loc 1 1534 21 is_stmt 1 view .LVU1620
1534:Core/Src/MazeLib.c ****                     next_state->pos.x = now_state->pos.x - 1;
 5509              		.loc 1 1534 37 is_stmt 0 view .LVU1621
 5510 0098 0621     		movs	r1, #6
 5511              	.LVL461:
1534:Core/Src/MazeLib.c ****                     next_state->pos.x = now_state->pos.x - 1;
 5512              		.loc 1 1534 37 view .LVU1622
 5513 009a 8170     		strb	r1, [r0, #2]
 5514              	.LVL462:
1535:Core/Src/MazeLib.c ****                     now_state->dir = left;
 5515              		.loc 1 1535 21 is_stmt 1 view .LVU1623
1535:Core/Src/MazeLib.c ****                     now_state->dir = left;
 5516              		.loc 1 1535 55 is_stmt 0 view .LVU1624
 5517 009c 1A78     		ldrb	r2, [r3]	@ zero_extendqisi2
1535:Core/Src/MazeLib.c ****                     now_state->dir = left;
 5518              		.loc 1 1535 58 view .LVU1625
 5519 009e 013A     		subs	r2, r2, #1
1535:Core/Src/MazeLib.c ****                     now_state->dir = left;
 5520              		.loc 1 1535 39 view .LVU1626
 5521 00a0 0270     		strb	r2, [r0]
1536:Core/Src/MazeLib.c ****                     return next_state;
 5522              		.loc 1 1536 21 is_stmt 1 view .LVU1627
1536:Core/Src/MazeLib.c ****                     return next_state;
 5523              		.loc 1 1536 36 is_stmt 0 view .LVU1628
 5524 00a2 D970     		strb	r1, [r3, #3]
1537:Core/Src/MazeLib.c ****                 }
 5525              		.loc 1 1537 21 is_stmt 1 view .LVU1629
1537:Core/Src/MazeLib.c ****                 }
 5526              		.loc 1 1537 28 is_stmt 0 view .LVU1630
 5527 00a4 D6E7     		b	.L349
 5528              	.LVL463:
 5529              	.L380:
1542:Core/Src/MazeLib.c ****                 {
 5530              		.loc 1 1542 21 discriminator 1 view .LVU1631
 5531 00a6 04F1FF3C 		add	ip, r4, #-1
 5532 00aa AC45     		cmp	ip, r5
 5533 00ac D0D1     		bne	.L359
1544:Core/Src/MazeLib.c ****                     next_state->pos.x = now_state->pos.x - 1;
 5534              		.loc 1 1544 21 is_stmt 1 view .LVU1632
1544:Core/Src/MazeLib.c ****                     next_state->pos.x = now_state->pos.x - 1;
ARM GAS  /var/folders/v_/kwz_t0cs68g1q1d733r227b80000gn/T//cc7enlx9.s 			page 152


 5535              		.loc 1 1544 37 is_stmt 0 view .LVU1633
 5536 00ae 0622     		movs	r2, #6
 5537 00b0 8270     		strb	r2, [r0, #2]
1545:Core/Src/MazeLib.c ****                     next_state->pos.y = now_state->pos.y - 1;
 5538              		.loc 1 1545 21 is_stmt 1 view .LVU1634
1545:Core/Src/MazeLib.c ****                     next_state->pos.y = now_state->pos.y - 1;
 5539              		.loc 1 1545 55 is_stmt 0 view .LVU1635
 5540 00b2 1A78     		ldrb	r2, [r3]	@ zero_extendqisi2
1545:Core/Src/MazeLib.c ****                     next_state->pos.y = now_state->pos.y - 1;
 5541              		.loc 1 1545 58 view .LVU1636
 5542 00b4 013A     		subs	r2, r2, #1
1545:Core/Src/MazeLib.c ****                     next_state->pos.y = now_state->pos.y - 1;
 5543              		.loc 1 1545 39 view .LVU1637
 5544 00b6 0270     		strb	r2, [r0]
1546:Core/Src/MazeLib.c ****                     now_state->dir = backright;
 5545              		.loc 1 1546 21 is_stmt 1 view .LVU1638
1546:Core/Src/MazeLib.c ****                     now_state->dir = backright;
 5546              		.loc 1 1546 55 is_stmt 0 view .LVU1639
 5547 00b8 5A78     		ldrb	r2, [r3, #1]	@ zero_extendqisi2
1546:Core/Src/MazeLib.c ****                     now_state->dir = backright;
 5548              		.loc 1 1546 58 view .LVU1640
 5549 00ba 013A     		subs	r2, r2, #1
1546:Core/Src/MazeLib.c ****                     now_state->dir = backright;
 5550              		.loc 1 1546 39 view .LVU1641
 5551 00bc 4270     		strb	r2, [r0, #1]
1547:Core/Src/MazeLib.c ****                     return next_state;
 5552              		.loc 1 1547 21 is_stmt 1 view .LVU1642
1547:Core/Src/MazeLib.c ****                     return next_state;
 5553              		.loc 1 1547 36 is_stmt 0 view .LVU1643
 5554 00be 0322     		movs	r2, #3
 5555 00c0 DA70     		strb	r2, [r3, #3]
1548:Core/Src/MazeLib.c ****                 }
 5556              		.loc 1 1548 21 is_stmt 1 view .LVU1644
1548:Core/Src/MazeLib.c ****                 }
 5557              		.loc 1 1548 28 is_stmt 0 view .LVU1645
 5558 00c2 C7E7     		b	.L349
 5559              	.L381:
1552:Core/Src/MazeLib.c ****                 {
 5560              		.loc 1 1552 21 discriminator 1 view .LVU1646
 5561 00c4 013C     		subs	r4, r4, #1
 5562              	.LVL464:
1552:Core/Src/MazeLib.c ****                 {
 5563              		.loc 1 1552 21 discriminator 1 view .LVU1647
 5564 00c6 AC42     		cmp	r4, r5
 5565 00c8 C4D1     		bne	.L349
1554:Core/Src/MazeLib.c ****                     next_state->pos.x = now_state->pos.x + 1;
 5566              		.loc 1 1554 21 is_stmt 1 view .LVU1648
1554:Core/Src/MazeLib.c ****                     next_state->pos.x = now_state->pos.x + 1;
 5567              		.loc 1 1554 37 is_stmt 0 view .LVU1649
 5568 00ca 0222     		movs	r2, #2
 5569 00cc 8270     		strb	r2, [r0, #2]
1555:Core/Src/MazeLib.c ****                     next_state->pos.y = now_state->pos.y - 1;
 5570              		.loc 1 1555 21 is_stmt 1 view .LVU1650
1555:Core/Src/MazeLib.c ****                     next_state->pos.y = now_state->pos.y - 1;
 5571              		.loc 1 1555 55 is_stmt 0 view .LVU1651
 5572 00ce 1A78     		ldrb	r2, [r3]	@ zero_extendqisi2
1555:Core/Src/MazeLib.c ****                     next_state->pos.y = now_state->pos.y - 1;
ARM GAS  /var/folders/v_/kwz_t0cs68g1q1d733r227b80000gn/T//cc7enlx9.s 			page 153


 5573              		.loc 1 1555 58 view .LVU1652
 5574 00d0 0132     		adds	r2, r2, #1
1555:Core/Src/MazeLib.c ****                     next_state->pos.y = now_state->pos.y - 1;
 5575              		.loc 1 1555 39 view .LVU1653
 5576 00d2 0270     		strb	r2, [r0]
1556:Core/Src/MazeLib.c ****                     now_state->dir = backleft;
 5577              		.loc 1 1556 21 is_stmt 1 view .LVU1654
1556:Core/Src/MazeLib.c ****                     now_state->dir = backleft;
 5578              		.loc 1 1556 55 is_stmt 0 view .LVU1655
 5579 00d4 5A78     		ldrb	r2, [r3, #1]	@ zero_extendqisi2
1556:Core/Src/MazeLib.c ****                     now_state->dir = backleft;
 5580              		.loc 1 1556 58 view .LVU1656
 5581 00d6 013A     		subs	r2, r2, #1
1556:Core/Src/MazeLib.c ****                     now_state->dir = backleft;
 5582              		.loc 1 1556 39 view .LVU1657
 5583 00d8 4270     		strb	r2, [r0, #1]
1557:Core/Src/MazeLib.c ****                     return next_state;
 5584              		.loc 1 1557 21 is_stmt 1 view .LVU1658
1557:Core/Src/MazeLib.c ****                     return next_state;
 5585              		.loc 1 1557 36 is_stmt 0 view .LVU1659
 5586 00da 0522     		movs	r2, #5
 5587 00dc DA70     		strb	r2, [r3, #3]
1558:Core/Src/MazeLib.c ****                 }
 5588              		.loc 1 1558 21 is_stmt 1 view .LVU1660
1558:Core/Src/MazeLib.c ****                 }
 5589              		.loc 1 1558 28 is_stmt 0 view .LVU1661
 5590 00de B9E7     		b	.L349
 5591              	.LVL465:
 5592              	.L353:
1564:Core/Src/MazeLib.c ****             {
 5593              		.loc 1 1564 13 is_stmt 1 view .LVU1662
1564:Core/Src/MazeLib.c ****             {
 5594              		.loc 1 1564 25 is_stmt 0 view .LVU1663
 5595 00e0 5279     		ldrb	r2, [r2, #5]	@ zero_extendqisi2
 5596              	.LVL466:
1564:Core/Src/MazeLib.c ****             {
 5597              		.loc 1 1564 15 view .LVU1664
 5598 00e2 3AB1     		cbz	r2, .L360
1571:Core/Src/MazeLib.c ****                 {
 5599              		.loc 1 1571 17 is_stmt 1 view .LVU1665
1571:Core/Src/MazeLib.c ****                 {
 5600              		.loc 1 1571 21 is_stmt 0 view .LVU1666
 5601 00e4 0EF1010C 		add	ip, lr, #1
1571:Core/Src/MazeLib.c ****                 {
 5602              		.loc 1 1571 19 view .LVU1667
 5603 00e8 8C45     		cmp	ip, r1
 5604 00ea 1CD0     		beq	.L382
 5605              	.L361:
1581:Core/Src/MazeLib.c ****                 {
 5606              		.loc 1 1581 17 is_stmt 1 view .LVU1668
1581:Core/Src/MazeLib.c ****                 {
 5607              		.loc 1 1581 21 is_stmt 0 view .LVU1669
 5608 00ec 0EF1FF3C 		add	ip, lr, #-1
1581:Core/Src/MazeLib.c ****                 {
 5609              		.loc 1 1581 19 view .LVU1670
 5610 00f0 6145     		cmp	r1, ip
 5611 00f2 22D0     		beq	.L383
ARM GAS  /var/folders/v_/kwz_t0cs68g1q1d733r227b80000gn/T//cc7enlx9.s 			page 154


 5612              	.L360:
1592:Core/Src/MazeLib.c ****             {
 5613              		.loc 1 1592 13 is_stmt 1 view .LVU1671
1592:Core/Src/MazeLib.c ****             {
 5614              		.loc 1 1592 15 is_stmt 0 view .LVU1672
 5615 00f4 002A     		cmp	r2, #0
 5616 00f6 ADD1     		bne	.L349
1597:Core/Src/MazeLib.c ****                 {
 5617              		.loc 1 1597 17 is_stmt 1 view .LVU1673
1597:Core/Src/MazeLib.c ****                 {
 5618              		.loc 1 1597 19 is_stmt 0 view .LVU1674
 5619 00f8 8E45     		cmp	lr, r1
 5620 00fa 28D0     		beq	.L384
 5621              	.L362:
1608:Core/Src/MazeLib.c ****                 {
 5622              		.loc 1 1608 17 is_stmt 1 view .LVU1675
1608:Core/Src/MazeLib.c ****                 {
 5623              		.loc 1 1608 19 is_stmt 0 view .LVU1676
 5624 00fc 8E45     		cmp	lr, r1
 5625 00fe 30D0     		beq	.L385
 5626              	.L363:
1617:Core/Src/MazeLib.c ****                 {
 5627              		.loc 1 1617 17 is_stmt 1 view .LVU1677
1617:Core/Src/MazeLib.c ****                 {
 5628              		.loc 1 1617 21 is_stmt 0 view .LVU1678
 5629 0100 0EF1FF3E 		add	lr, lr, #-1
 5630              	.LVL467:
1617:Core/Src/MazeLib.c ****                 {
 5631              		.loc 1 1617 19 view .LVU1679
 5632 0104 8E45     		cmp	lr, r1
 5633 0106 37D0     		beq	.L386
 5634              	.L364:
1628:Core/Src/MazeLib.c ****                 {
 5635              		.loc 1 1628 17 is_stmt 1 view .LVU1680
1628:Core/Src/MazeLib.c ****                 {
 5636              		.loc 1 1628 19 is_stmt 0 view .LVU1681
 5637 0108 8E45     		cmp	lr, r1
 5638 010a A3D1     		bne	.L349
1628:Core/Src/MazeLib.c ****                 {
 5639              		.loc 1 1628 21 discriminator 1 view .LVU1682
 5640 010c AC42     		cmp	r4, r5
 5641 010e A1D1     		bne	.L349
1630:Core/Src/MazeLib.c ****                     next_state->pos.x = now_state->pos.x - 1;
 5642              		.loc 1 1630 21 is_stmt 1 view .LVU1683
1630:Core/Src/MazeLib.c ****                     next_state->pos.x = now_state->pos.x - 1;
 5643              		.loc 1 1630 37 is_stmt 0 view .LVU1684
 5644 0110 0422     		movs	r2, #4
 5645 0112 8270     		strb	r2, [r0, #2]
1631:Core/Src/MazeLib.c ****                     next_state->pos.y = now_state->pos.y - 1;
 5646              		.loc 1 1631 21 is_stmt 1 view .LVU1685
1631:Core/Src/MazeLib.c ****                     next_state->pos.y = now_state->pos.y - 1;
 5647              		.loc 1 1631 55 is_stmt 0 view .LVU1686
 5648 0114 1A78     		ldrb	r2, [r3]	@ zero_extendqisi2
1631:Core/Src/MazeLib.c ****                     next_state->pos.y = now_state->pos.y - 1;
 5649              		.loc 1 1631 58 view .LVU1687
 5650 0116 013A     		subs	r2, r2, #1
1631:Core/Src/MazeLib.c ****                     next_state->pos.y = now_state->pos.y - 1;
ARM GAS  /var/folders/v_/kwz_t0cs68g1q1d733r227b80000gn/T//cc7enlx9.s 			page 155


 5651              		.loc 1 1631 39 view .LVU1688
 5652 0118 0270     		strb	r2, [r0]
1632:Core/Src/MazeLib.c ****                     now_state->dir = backleft;
 5653              		.loc 1 1632 21 is_stmt 1 view .LVU1689
1632:Core/Src/MazeLib.c ****                     now_state->dir = backleft;
 5654              		.loc 1 1632 55 is_stmt 0 view .LVU1690
 5655 011a 5A78     		ldrb	r2, [r3, #1]	@ zero_extendqisi2
1632:Core/Src/MazeLib.c ****                     now_state->dir = backleft;
 5656              		.loc 1 1632 58 view .LVU1691
 5657 011c 013A     		subs	r2, r2, #1
1632:Core/Src/MazeLib.c ****                     now_state->dir = backleft;
 5658              		.loc 1 1632 39 view .LVU1692
 5659 011e 4270     		strb	r2, [r0, #1]
1633:Core/Src/MazeLib.c ****                     return next_state;
 5660              		.loc 1 1633 21 is_stmt 1 view .LVU1693
1633:Core/Src/MazeLib.c ****                     return next_state;
 5661              		.loc 1 1633 36 is_stmt 0 view .LVU1694
 5662 0120 0522     		movs	r2, #5
 5663 0122 DA70     		strb	r2, [r3, #3]
1634:Core/Src/MazeLib.c ****                 }
 5664              		.loc 1 1634 21 is_stmt 1 view .LVU1695
1634:Core/Src/MazeLib.c ****                 }
 5665              		.loc 1 1634 28 is_stmt 0 view .LVU1696
 5666 0124 96E7     		b	.L349
 5667              	.LVL468:
 5668              	.L382:
1571:Core/Src/MazeLib.c ****                 {
 5669              		.loc 1 1571 21 discriminator 1 view .LVU1697
 5670 0126 AC42     		cmp	r4, r5
 5671 0128 E0D1     		bne	.L361
1573:Core/Src/MazeLib.c ****                     next_state->pos.x = now_state->pos.x + 1;
 5672              		.loc 1 1573 21 is_stmt 1 view .LVU1698
1573:Core/Src/MazeLib.c ****                     next_state->pos.x = now_state->pos.x + 1;
 5673              		.loc 1 1573 37 is_stmt 0 view .LVU1699
 5674 012a 0222     		movs	r2, #2
 5675 012c 8270     		strb	r2, [r0, #2]
1574:Core/Src/MazeLib.c ****                     now_state->dir = front;
 5676              		.loc 1 1574 21 is_stmt 1 view .LVU1700
1574:Core/Src/MazeLib.c ****                     now_state->dir = front;
 5677              		.loc 1 1574 55 is_stmt 0 view .LVU1701
 5678 012e 1A78     		ldrb	r2, [r3]	@ zero_extendqisi2
1574:Core/Src/MazeLib.c ****                     now_state->dir = front;
 5679              		.loc 1 1574 58 view .LVU1702
 5680 0130 0132     		adds	r2, r2, #1
1574:Core/Src/MazeLib.c ****                     now_state->dir = front;
 5681              		.loc 1 1574 39 view .LVU1703
 5682 0132 0270     		strb	r2, [r0]
1575:Core/Src/MazeLib.c **** //                    ChangeLED(4);
 5683              		.loc 1 1575 21 is_stmt 1 view .LVU1704
1575:Core/Src/MazeLib.c **** //                    ChangeLED(4);
 5684              		.loc 1 1575 36 is_stmt 0 view .LVU1705
 5685 0134 0022     		movs	r2, #0
 5686 0136 DA70     		strb	r2, [r3, #3]
1577:Core/Src/MazeLib.c ****                 }
 5687              		.loc 1 1577 21 is_stmt 1 view .LVU1706
1577:Core/Src/MazeLib.c ****                 }
 5688              		.loc 1 1577 28 is_stmt 0 view .LVU1707
ARM GAS  /var/folders/v_/kwz_t0cs68g1q1d733r227b80000gn/T//cc7enlx9.s 			page 156


 5689 0138 8CE7     		b	.L349
 5690              	.L383:
1581:Core/Src/MazeLib.c ****                 {
 5691              		.loc 1 1581 21 discriminator 1 view .LVU1708
 5692 013a AC42     		cmp	r4, r5
 5693 013c DAD1     		bne	.L360
1583:Core/Src/MazeLib.c ****                     next_state->pos.x = now_state->pos.x - 2; //æ¬¡ã«å£ã‚’æ›´æ–°ã™ã‚‹ã‚¿ã‚¤ãƒŸãƒ
 5694              		.loc 1 1583 21 is_stmt 1 view .LVU1709
1583:Core/Src/MazeLib.c ****                     next_state->pos.x = now_state->pos.x - 2; //æ¬¡ã«å£ã‚’æ›´æ–°ã™ã‚‹ã‚¿ã‚¤ãƒŸãƒ
 5695              		.loc 1 1583 37 is_stmt 0 view .LVU1710
 5696 013e 0622     		movs	r2, #6
 5697 0140 8270     		strb	r2, [r0, #2]
1584:Core/Src/MazeLib.c ****                     now_state->dir = back;
 5698              		.loc 1 1584 21 is_stmt 1 view .LVU1711
1584:Core/Src/MazeLib.c ****                     now_state->dir = back;
 5699              		.loc 1 1584 55 is_stmt 0 view .LVU1712
 5700 0142 1A78     		ldrb	r2, [r3]	@ zero_extendqisi2
1584:Core/Src/MazeLib.c ****                     now_state->dir = back;
 5701              		.loc 1 1584 58 view .LVU1713
 5702 0144 023A     		subs	r2, r2, #2
1584:Core/Src/MazeLib.c ****                     now_state->dir = back;
 5703              		.loc 1 1584 39 view .LVU1714
 5704 0146 0270     		strb	r2, [r0]
1585:Core/Src/MazeLib.c ****                     return next_state;
 5705              		.loc 1 1585 21 is_stmt 1 view .LVU1715
1585:Core/Src/MazeLib.c ****                     return next_state;
 5706              		.loc 1 1585 36 is_stmt 0 view .LVU1716
 5707 0148 0422     		movs	r2, #4
 5708 014a DA70     		strb	r2, [r3, #3]
1586:Core/Src/MazeLib.c ****                 }
 5709              		.loc 1 1586 21 is_stmt 1 view .LVU1717
1586:Core/Src/MazeLib.c ****                 }
 5710              		.loc 1 1586 28 is_stmt 0 view .LVU1718
 5711 014c 82E7     		b	.L349
 5712              	.L384:
1597:Core/Src/MazeLib.c ****                 {
 5713              		.loc 1 1597 21 discriminator 1 view .LVU1719
 5714 014e AC42     		cmp	r4, r5
 5715 0150 D4D1     		bne	.L362
1599:Core/Src/MazeLib.c ****                     next_state->pos.y = now_state->pos.y - 1;
 5716              		.loc 1 1599 21 is_stmt 1 view .LVU1720
1599:Core/Src/MazeLib.c ****                     next_state->pos.y = now_state->pos.y - 1;
 5717              		.loc 1 1599 37 is_stmt 0 view .LVU1721
 5718 0152 0422     		movs	r2, #4
 5719 0154 8270     		strb	r2, [r0, #2]
1600:Core/Src/MazeLib.c ****                     now_state->dir = right;
 5720              		.loc 1 1600 21 is_stmt 1 view .LVU1722
1600:Core/Src/MazeLib.c ****                     now_state->dir = right;
 5721              		.loc 1 1600 55 is_stmt 0 view .LVU1723
 5722 0156 5A78     		ldrb	r2, [r3, #1]	@ zero_extendqisi2
1600:Core/Src/MazeLib.c ****                     now_state->dir = right;
 5723              		.loc 1 1600 58 view .LVU1724
 5724 0158 013A     		subs	r2, r2, #1
1600:Core/Src/MazeLib.c ****                     now_state->dir = right;
 5725              		.loc 1 1600 39 view .LVU1725
 5726 015a 4270     		strb	r2, [r0, #1]
1601:Core/Src/MazeLib.c **** //                    ChangeLED(5);
ARM GAS  /var/folders/v_/kwz_t0cs68g1q1d733r227b80000gn/T//cc7enlx9.s 			page 157


 5727              		.loc 1 1601 21 is_stmt 1 view .LVU1726
1601:Core/Src/MazeLib.c **** //                    ChangeLED(5);
 5728              		.loc 1 1601 36 is_stmt 0 view .LVU1727
 5729 015c 0222     		movs	r2, #2
 5730 015e DA70     		strb	r2, [r3, #3]
1603:Core/Src/MazeLib.c ****                 }
 5731              		.loc 1 1603 21 is_stmt 1 view .LVU1728
1603:Core/Src/MazeLib.c ****                 }
 5732              		.loc 1 1603 28 is_stmt 0 view .LVU1729
 5733 0160 78E7     		b	.L349
 5734              	.L385:
1608:Core/Src/MazeLib.c ****                 {
 5735              		.loc 1 1608 21 discriminator 1 view .LVU1730
 5736 0162 621C     		adds	r2, r4, #1
 5737 0164 AA42     		cmp	r2, r5
 5738 0166 CBD1     		bne	.L363
1610:Core/Src/MazeLib.c ****                     next_state->pos.y = now_state->pos.y + 1;
 5739              		.loc 1 1610 21 is_stmt 1 view .LVU1731
1610:Core/Src/MazeLib.c ****                     next_state->pos.y = now_state->pos.y + 1;
 5740              		.loc 1 1610 37 is_stmt 0 view .LVU1732
 5741 0168 0022     		movs	r2, #0
 5742 016a 8270     		strb	r2, [r0, #2]
1611:Core/Src/MazeLib.c ****                     now_state->dir = left;
 5743              		.loc 1 1611 21 is_stmt 1 view .LVU1733
1611:Core/Src/MazeLib.c ****                     now_state->dir = left;
 5744              		.loc 1 1611 55 is_stmt 0 view .LVU1734
 5745 016c 5A78     		ldrb	r2, [r3, #1]	@ zero_extendqisi2
1611:Core/Src/MazeLib.c ****                     now_state->dir = left;
 5746              		.loc 1 1611 58 view .LVU1735
 5747 016e 0132     		adds	r2, r2, #1
1611:Core/Src/MazeLib.c ****                     now_state->dir = left;
 5748              		.loc 1 1611 39 view .LVU1736
 5749 0170 4270     		strb	r2, [r0, #1]
1612:Core/Src/MazeLib.c ****                     return next_state;
 5750              		.loc 1 1612 21 is_stmt 1 view .LVU1737
1612:Core/Src/MazeLib.c ****                     return next_state;
 5751              		.loc 1 1612 36 is_stmt 0 view .LVU1738
 5752 0172 0622     		movs	r2, #6
 5753 0174 DA70     		strb	r2, [r3, #3]
1613:Core/Src/MazeLib.c ****                 }
 5754              		.loc 1 1613 21 is_stmt 1 view .LVU1739
1613:Core/Src/MazeLib.c ****                 }
 5755              		.loc 1 1613 28 is_stmt 0 view .LVU1740
 5756 0176 6DE7     		b	.L349
 5757              	.LVL469:
 5758              	.L386:
1617:Core/Src/MazeLib.c ****                 {
 5759              		.loc 1 1617 21 discriminator 1 view .LVU1741
 5760 0178 621C     		adds	r2, r4, #1
 5761 017a AA42     		cmp	r2, r5
 5762 017c C4D1     		bne	.L364
1619:Core/Src/MazeLib.c ****                     next_state->pos.x = now_state->pos.x - 1;
 5763              		.loc 1 1619 21 is_stmt 1 view .LVU1742
1619:Core/Src/MazeLib.c ****                     next_state->pos.x = now_state->pos.x - 1;
 5764              		.loc 1 1619 37 is_stmt 0 view .LVU1743
 5765 017e 0022     		movs	r2, #0
 5766 0180 8270     		strb	r2, [r0, #2]
ARM GAS  /var/folders/v_/kwz_t0cs68g1q1d733r227b80000gn/T//cc7enlx9.s 			page 158


1620:Core/Src/MazeLib.c ****                     next_state->pos.y = now_state->pos.y + 1;
 5767              		.loc 1 1620 21 is_stmt 1 view .LVU1744
1620:Core/Src/MazeLib.c ****                     next_state->pos.y = now_state->pos.y + 1;
 5768              		.loc 1 1620 55 is_stmt 0 view .LVU1745
 5769 0182 1A78     		ldrb	r2, [r3]	@ zero_extendqisi2
1620:Core/Src/MazeLib.c ****                     next_state->pos.y = now_state->pos.y + 1;
 5770              		.loc 1 1620 58 view .LVU1746
 5771 0184 013A     		subs	r2, r2, #1
1620:Core/Src/MazeLib.c ****                     next_state->pos.y = now_state->pos.y + 1;
 5772              		.loc 1 1620 39 view .LVU1747
 5773 0186 0270     		strb	r2, [r0]
1621:Core/Src/MazeLib.c ****                     now_state->dir = backright;
 5774              		.loc 1 1621 21 is_stmt 1 view .LVU1748
1621:Core/Src/MazeLib.c ****                     now_state->dir = backright;
 5775              		.loc 1 1621 55 is_stmt 0 view .LVU1749
 5776 0188 5A78     		ldrb	r2, [r3, #1]	@ zero_extendqisi2
1621:Core/Src/MazeLib.c ****                     now_state->dir = backright;
 5777              		.loc 1 1621 58 view .LVU1750
 5778 018a 0132     		adds	r2, r2, #1
1621:Core/Src/MazeLib.c ****                     now_state->dir = backright;
 5779              		.loc 1 1621 39 view .LVU1751
 5780 018c 4270     		strb	r2, [r0, #1]
1622:Core/Src/MazeLib.c ****                     return next_state;
 5781              		.loc 1 1622 21 is_stmt 1 view .LVU1752
1622:Core/Src/MazeLib.c ****                     return next_state;
 5782              		.loc 1 1622 36 is_stmt 0 view .LVU1753
 5783 018e 0322     		movs	r2, #3
 5784 0190 DA70     		strb	r2, [r3, #3]
1623:Core/Src/MazeLib.c ****                 }
 5785              		.loc 1 1623 21 is_stmt 1 view .LVU1754
1623:Core/Src/MazeLib.c ****                 }
 5786              		.loc 1 1623 28 is_stmt 0 view .LVU1755
 5787 0192 5FE7     		b	.L349
 5788              	.LVL470:
 5789              	.L352:
1639:Core/Src/MazeLib.c ****             {
 5790              		.loc 1 1639 13 is_stmt 1 view .LVU1756
1639:Core/Src/MazeLib.c ****             {
 5791              		.loc 1 1639 25 is_stmt 0 view .LVU1757
 5792 0194 5279     		ldrb	r2, [r2, #5]	@ zero_extendqisi2
 5793              	.LVL471:
1639:Core/Src/MazeLib.c ****             {
 5794              		.loc 1 1639 15 view .LVU1758
 5795 0196 1AB9     		cbnz	r2, .L365
1646:Core/Src/MazeLib.c ****                 {
 5796              		.loc 1 1646 17 is_stmt 1 view .LVU1759
1646:Core/Src/MazeLib.c ****                 {
 5797              		.loc 1 1646 19 is_stmt 0 view .LVU1760
 5798 0198 8E45     		cmp	lr, r1
 5799 019a 1DD0     		beq	.L387
 5800              	.L366:
1654:Core/Src/MazeLib.c ****                 {
 5801              		.loc 1 1654 17 is_stmt 1 view .LVU1761
1654:Core/Src/MazeLib.c ****                 {
 5802              		.loc 1 1654 19 is_stmt 0 view .LVU1762
 5803 019c 8E45     		cmp	lr, r1
 5804 019e 27D0     		beq	.L388
ARM GAS  /var/folders/v_/kwz_t0cs68g1q1d733r227b80000gn/T//cc7enlx9.s 			page 159


 5805              	.L365:
1664:Core/Src/MazeLib.c ****             {
 5806              		.loc 1 1664 13 is_stmt 1 view .LVU1763
1664:Core/Src/MazeLib.c ****             {
 5807              		.loc 1 1664 15 is_stmt 0 view .LVU1764
 5808 01a0 002A     		cmp	r2, #0
 5809 01a2 3FF457AF 		beq	.L349
1669:Core/Src/MazeLib.c ****                 {
 5810              		.loc 1 1669 17 is_stmt 1 view .LVU1765
1669:Core/Src/MazeLib.c ****                 {
 5811              		.loc 1 1669 19 is_stmt 0 view .LVU1766
 5812 01a6 8E45     		cmp	lr, r1
 5813 01a8 2ED0     		beq	.L389
 5814              	.L367:
1680:Core/Src/MazeLib.c ****                 {
 5815              		.loc 1 1680 17 is_stmt 1 view .LVU1767
1680:Core/Src/MazeLib.c ****                 {
 5816              		.loc 1 1680 21 is_stmt 0 view .LVU1768
 5817 01aa 0EF10102 		add	r2, lr, #1
1680:Core/Src/MazeLib.c ****                 {
 5818              		.loc 1 1680 19 view .LVU1769
 5819 01ae 8A42     		cmp	r2, r1
 5820 01b0 35D0     		beq	.L390
 5821              	.L368:
1690:Core/Src/MazeLib.c ****                 {
 5822              		.loc 1 1690 17 is_stmt 1 view .LVU1770
1690:Core/Src/MazeLib.c ****                 {
 5823              		.loc 1 1690 19 is_stmt 0 view .LVU1771
 5824 01b2 8A42     		cmp	r2, r1
 5825 01b4 3FD0     		beq	.L391
 5826              	.L369:
1700:Core/Src/MazeLib.c ****                 {
 5827              		.loc 1 1700 17 is_stmt 1 view .LVU1772
1700:Core/Src/MazeLib.c ****                 {
 5828              		.loc 1 1700 19 is_stmt 0 view .LVU1773
 5829 01b6 8E45     		cmp	lr, r1
 5830 01b8 7FF44CAF 		bne	.L349
1700:Core/Src/MazeLib.c ****                 {
 5831              		.loc 1 1700 21 discriminator 1 view .LVU1774
 5832 01bc AC42     		cmp	r4, r5
 5833 01be 7FF449AF 		bne	.L349
1702:Core/Src/MazeLib.c ****                     next_state->pos.x = now_state->pos.x - 1;
 5834              		.loc 1 1702 21 is_stmt 1 view .LVU1775
1702:Core/Src/MazeLib.c ****                     next_state->pos.x = now_state->pos.x - 1;
 5835              		.loc 1 1702 37 is_stmt 0 view .LVU1776
 5836 01c2 0622     		movs	r2, #6
 5837 01c4 8270     		strb	r2, [r0, #2]
1703:Core/Src/MazeLib.c ****                     next_state->pos.y = now_state->pos.y + 1;
 5838              		.loc 1 1703 21 is_stmt 1 view .LVU1777
1703:Core/Src/MazeLib.c ****                     next_state->pos.y = now_state->pos.y + 1;
 5839              		.loc 1 1703 55 is_stmt 0 view .LVU1778
 5840 01c6 1A78     		ldrb	r2, [r3]	@ zero_extendqisi2
1703:Core/Src/MazeLib.c ****                     next_state->pos.y = now_state->pos.y + 1;
 5841              		.loc 1 1703 58 view .LVU1779
 5842 01c8 013A     		subs	r2, r2, #1
1703:Core/Src/MazeLib.c ****                     next_state->pos.y = now_state->pos.y + 1;
 5843              		.loc 1 1703 39 view .LVU1780
ARM GAS  /var/folders/v_/kwz_t0cs68g1q1d733r227b80000gn/T//cc7enlx9.s 			page 160


 5844 01ca 0270     		strb	r2, [r0]
1704:Core/Src/MazeLib.c ****                     now_state->dir = backleft;
 5845              		.loc 1 1704 21 is_stmt 1 view .LVU1781
1704:Core/Src/MazeLib.c ****                     now_state->dir = backleft;
 5846              		.loc 1 1704 55 is_stmt 0 view .LVU1782
 5847 01cc 5A78     		ldrb	r2, [r3, #1]	@ zero_extendqisi2
1704:Core/Src/MazeLib.c ****                     now_state->dir = backleft;
 5848              		.loc 1 1704 58 view .LVU1783
 5849 01ce 0132     		adds	r2, r2, #1
1704:Core/Src/MazeLib.c ****                     now_state->dir = backleft;
 5850              		.loc 1 1704 39 view .LVU1784
 5851 01d0 4270     		strb	r2, [r0, #1]
1705:Core/Src/MazeLib.c ****                     return next_state;
 5852              		.loc 1 1705 21 is_stmt 1 view .LVU1785
1705:Core/Src/MazeLib.c ****                     return next_state;
 5853              		.loc 1 1705 36 is_stmt 0 view .LVU1786
 5854 01d2 0522     		movs	r2, #5
 5855 01d4 DA70     		strb	r2, [r3, #3]
1706:Core/Src/MazeLib.c ****                 }
 5856              		.loc 1 1706 21 is_stmt 1 view .LVU1787
1706:Core/Src/MazeLib.c ****                 }
 5857              		.loc 1 1706 28 is_stmt 0 view .LVU1788
 5858 01d6 3DE7     		b	.L349
 5859              	.L387:
1646:Core/Src/MazeLib.c ****                 {
 5860              		.loc 1 1646 21 discriminator 1 view .LVU1789
 5861 01d8 04F1FF3C 		add	ip, r4, #-1
 5862 01dc AC45     		cmp	ip, r5
 5863 01de DDD1     		bne	.L366
1648:Core/Src/MazeLib.c ****                     next_state->pos.y = now_state->pos.y - 1; //æ¬¡ã«å£ã‚’æ›´æ–°ã™ã‚‹ã‚¿ã‚¤ãƒŸãƒ
 5864              		.loc 1 1648 21 is_stmt 1 view .LVU1790
1648:Core/Src/MazeLib.c ****                     next_state->pos.y = now_state->pos.y - 1; //æ¬¡ã«å£ã‚’æ›´æ–°ã™ã‚‹ã‚¿ã‚¤ãƒŸãƒ
 5865              		.loc 1 1648 37 is_stmt 0 view .LVU1791
 5866 01e0 0422     		movs	r2, #4
 5867 01e2 8270     		strb	r2, [r0, #2]
1649:Core/Src/MazeLib.c ****                     now_state->dir = front;
 5868              		.loc 1 1649 21 is_stmt 1 view .LVU1792
1649:Core/Src/MazeLib.c ****                     now_state->dir = front;
 5869              		.loc 1 1649 55 is_stmt 0 view .LVU1793
 5870 01e4 5A78     		ldrb	r2, [r3, #1]	@ zero_extendqisi2
1649:Core/Src/MazeLib.c ****                     now_state->dir = front;
 5871              		.loc 1 1649 58 view .LVU1794
 5872 01e6 013A     		subs	r2, r2, #1
1649:Core/Src/MazeLib.c ****                     now_state->dir = front;
 5873              		.loc 1 1649 39 view .LVU1795
 5874 01e8 4270     		strb	r2, [r0, #1]
1650:Core/Src/MazeLib.c ****                     return next_state;
 5875              		.loc 1 1650 21 is_stmt 1 view .LVU1796
1650:Core/Src/MazeLib.c ****                     return next_state;
 5876              		.loc 1 1650 36 is_stmt 0 view .LVU1797
 5877 01ea 0022     		movs	r2, #0
 5878 01ec DA70     		strb	r2, [r3, #3]
1651:Core/Src/MazeLib.c ****                 }
 5879              		.loc 1 1651 21 is_stmt 1 view .LVU1798
1651:Core/Src/MazeLib.c ****                 }
 5880              		.loc 1 1651 28 is_stmt 0 view .LVU1799
 5881 01ee 31E7     		b	.L349
ARM GAS  /var/folders/v_/kwz_t0cs68g1q1d733r227b80000gn/T//cc7enlx9.s 			page 161


 5882              	.L388:
1654:Core/Src/MazeLib.c ****                 {
 5883              		.loc 1 1654 21 discriminator 1 view .LVU1800
 5884 01f0 04F1010C 		add	ip, r4, #1
 5885 01f4 AC45     		cmp	ip, r5
 5886 01f6 D3D1     		bne	.L365
1656:Core/Src/MazeLib.c ****                     next_state->pos.y = now_state->pos.y + 2;
 5887              		.loc 1 1656 21 is_stmt 1 view .LVU1801
1656:Core/Src/MazeLib.c ****                     next_state->pos.y = now_state->pos.y + 2;
 5888              		.loc 1 1656 37 is_stmt 0 view .LVU1802
 5889 01f8 0022     		movs	r2, #0
 5890 01fa 8270     		strb	r2, [r0, #2]
1657:Core/Src/MazeLib.c ****                     now_state->dir = back;
 5891              		.loc 1 1657 21 is_stmt 1 view .LVU1803
1657:Core/Src/MazeLib.c ****                     now_state->dir = back;
 5892              		.loc 1 1657 55 is_stmt 0 view .LVU1804
 5893 01fc 5A78     		ldrb	r2, [r3, #1]	@ zero_extendqisi2
1657:Core/Src/MazeLib.c ****                     now_state->dir = back;
 5894              		.loc 1 1657 58 view .LVU1805
 5895 01fe 0232     		adds	r2, r2, #2
1657:Core/Src/MazeLib.c ****                     now_state->dir = back;
 5896              		.loc 1 1657 39 view .LVU1806
 5897 0200 4270     		strb	r2, [r0, #1]
1658:Core/Src/MazeLib.c ****                     return next_state;
 5898              		.loc 1 1658 21 is_stmt 1 view .LVU1807
1658:Core/Src/MazeLib.c ****                     return next_state;
 5899              		.loc 1 1658 36 is_stmt 0 view .LVU1808
 5900 0202 0422     		movs	r2, #4
 5901 0204 DA70     		strb	r2, [r3, #3]
1659:Core/Src/MazeLib.c ****                 }
 5902              		.loc 1 1659 21 is_stmt 1 view .LVU1809
1659:Core/Src/MazeLib.c ****                 }
 5903              		.loc 1 1659 28 is_stmt 0 view .LVU1810
 5904 0206 25E7     		b	.L349
 5905              	.L389:
1669:Core/Src/MazeLib.c ****                 {
 5906              		.loc 1 1669 21 discriminator 1 view .LVU1811
 5907 0208 621E     		subs	r2, r4, #1
 5908 020a AA42     		cmp	r2, r5
 5909 020c CDD1     		bne	.L367
1671:Core/Src/MazeLib.c ****                     next_state->pos.x = now_state->pos.x - 1;
 5910              		.loc 1 1671 21 is_stmt 1 view .LVU1812
1671:Core/Src/MazeLib.c ****                     next_state->pos.x = now_state->pos.x - 1;
 5911              		.loc 1 1671 37 is_stmt 0 view .LVU1813
 5912 020e 0622     		movs	r2, #6
 5913 0210 8270     		strb	r2, [r0, #2]
1672:Core/Src/MazeLib.c ****                     now_state->dir = right;
 5914              		.loc 1 1672 21 is_stmt 1 view .LVU1814
1672:Core/Src/MazeLib.c ****                     now_state->dir = right;
 5915              		.loc 1 1672 55 is_stmt 0 view .LVU1815
 5916 0212 1A78     		ldrb	r2, [r3]	@ zero_extendqisi2
1672:Core/Src/MazeLib.c ****                     now_state->dir = right;
 5917              		.loc 1 1672 58 view .LVU1816
 5918 0214 013A     		subs	r2, r2, #1
1672:Core/Src/MazeLib.c ****                     now_state->dir = right;
 5919              		.loc 1 1672 39 view .LVU1817
 5920 0216 0270     		strb	r2, [r0]
ARM GAS  /var/folders/v_/kwz_t0cs68g1q1d733r227b80000gn/T//cc7enlx9.s 			page 162


1673:Core/Src/MazeLib.c **** //                    ChangeLED(4);
 5921              		.loc 1 1673 21 is_stmt 1 view .LVU1818
1673:Core/Src/MazeLib.c **** //                    ChangeLED(4);
 5922              		.loc 1 1673 36 is_stmt 0 view .LVU1819
 5923 0218 0222     		movs	r2, #2
 5924 021a DA70     		strb	r2, [r3, #3]
1676:Core/Src/MazeLib.c ****                 }
 5925              		.loc 1 1676 21 is_stmt 1 view .LVU1820
1676:Core/Src/MazeLib.c ****                 }
 5926              		.loc 1 1676 28 is_stmt 0 view .LVU1821
 5927 021c 1AE7     		b	.L349
 5928              	.L390:
1680:Core/Src/MazeLib.c ****                 {
 5929              		.loc 1 1680 21 discriminator 1 view .LVU1822
 5930 021e 04F1FF3C 		add	ip, r4, #-1
 5931 0222 AC45     		cmp	ip, r5
 5932 0224 C5D1     		bne	.L368
1682:Core/Src/MazeLib.c ****                     next_state->pos.x = now_state->pos.x + 1;
 5933              		.loc 1 1682 21 is_stmt 1 view .LVU1823
1682:Core/Src/MazeLib.c ****                     next_state->pos.x = now_state->pos.x + 1;
 5934              		.loc 1 1682 37 is_stmt 0 view .LVU1824
 5935 0226 0222     		movs	r2, #2
 5936 0228 8270     		strb	r2, [r0, #2]
1683:Core/Src/MazeLib.c ****                     now_state->dir = left;
 5937              		.loc 1 1683 21 is_stmt 1 view .LVU1825
1683:Core/Src/MazeLib.c ****                     now_state->dir = left;
 5938              		.loc 1 1683 55 is_stmt 0 view .LVU1826
 5939 022a 1A78     		ldrb	r2, [r3]	@ zero_extendqisi2
1683:Core/Src/MazeLib.c ****                     now_state->dir = left;
 5940              		.loc 1 1683 58 view .LVU1827
 5941 022c 0132     		adds	r2, r2, #1
1683:Core/Src/MazeLib.c ****                     now_state->dir = left;
 5942              		.loc 1 1683 39 view .LVU1828
 5943 022e 0270     		strb	r2, [r0]
1684:Core/Src/MazeLib.c ****                     return next_state;
 5944              		.loc 1 1684 21 is_stmt 1 view .LVU1829
1684:Core/Src/MazeLib.c ****                     return next_state;
 5945              		.loc 1 1684 36 is_stmt 0 view .LVU1830
 5946 0230 0622     		movs	r2, #6
 5947 0232 DA70     		strb	r2, [r3, #3]
1685:Core/Src/MazeLib.c ****                 }
 5948              		.loc 1 1685 21 is_stmt 1 view .LVU1831
1685:Core/Src/MazeLib.c ****                 }
 5949              		.loc 1 1685 28 is_stmt 0 view .LVU1832
 5950 0234 0EE7     		b	.L349
 5951              	.L391:
1690:Core/Src/MazeLib.c ****                 {
 5952              		.loc 1 1690 21 discriminator 1 view .LVU1833
 5953 0236 AC42     		cmp	r4, r5
 5954 0238 BDD1     		bne	.L369
1692:Core/Src/MazeLib.c ****                     next_state->pos.x = now_state->pos.x + 1;
 5955              		.loc 1 1692 21 is_stmt 1 view .LVU1834
1692:Core/Src/MazeLib.c ****                     next_state->pos.x = now_state->pos.x + 1;
 5956              		.loc 1 1692 37 is_stmt 0 view .LVU1835
 5957 023a 0222     		movs	r2, #2
 5958 023c 8270     		strb	r2, [r0, #2]
1693:Core/Src/MazeLib.c ****                     next_state->pos.y = now_state->pos.y + 1;
ARM GAS  /var/folders/v_/kwz_t0cs68g1q1d733r227b80000gn/T//cc7enlx9.s 			page 163


 5959              		.loc 1 1693 21 is_stmt 1 view .LVU1836
1693:Core/Src/MazeLib.c ****                     next_state->pos.y = now_state->pos.y + 1;
 5960              		.loc 1 1693 55 is_stmt 0 view .LVU1837
 5961 023e 1A78     		ldrb	r2, [r3]	@ zero_extendqisi2
1693:Core/Src/MazeLib.c ****                     next_state->pos.y = now_state->pos.y + 1;
 5962              		.loc 1 1693 58 view .LVU1838
 5963 0240 0132     		adds	r2, r2, #1
1693:Core/Src/MazeLib.c ****                     next_state->pos.y = now_state->pos.y + 1;
 5964              		.loc 1 1693 39 view .LVU1839
 5965 0242 0270     		strb	r2, [r0]
1694:Core/Src/MazeLib.c ****                     now_state->dir = backright;
 5966              		.loc 1 1694 21 is_stmt 1 view .LVU1840
1694:Core/Src/MazeLib.c ****                     now_state->dir = backright;
 5967              		.loc 1 1694 55 is_stmt 0 view .LVU1841
 5968 0244 5A78     		ldrb	r2, [r3, #1]	@ zero_extendqisi2
1694:Core/Src/MazeLib.c ****                     now_state->dir = backright;
 5969              		.loc 1 1694 58 view .LVU1842
 5970 0246 0132     		adds	r2, r2, #1
1694:Core/Src/MazeLib.c ****                     now_state->dir = backright;
 5971              		.loc 1 1694 39 view .LVU1843
 5972 0248 4270     		strb	r2, [r0, #1]
1695:Core/Src/MazeLib.c ****                     return next_state;
 5973              		.loc 1 1695 21 is_stmt 1 view .LVU1844
1695:Core/Src/MazeLib.c ****                     return next_state;
 5974              		.loc 1 1695 36 is_stmt 0 view .LVU1845
 5975 024a 0322     		movs	r2, #3
 5976 024c DA70     		strb	r2, [r3, #3]
1696:Core/Src/MazeLib.c ****                 }
 5977              		.loc 1 1696 21 is_stmt 1 view .LVU1846
1696:Core/Src/MazeLib.c ****                 }
 5978              		.loc 1 1696 28 is_stmt 0 view .LVU1847
 5979 024e 01E7     		b	.L349
 5980              	.LVL472:
 5981              	.L350:
1711:Core/Src/MazeLib.c ****             {
 5982              		.loc 1 1711 13 is_stmt 1 view .LVU1848
1711:Core/Src/MazeLib.c ****             {
 5983              		.loc 1 1711 25 is_stmt 0 view .LVU1849
 5984 0250 5279     		ldrb	r2, [r2, #5]	@ zero_extendqisi2
 5985              	.LVL473:
1711:Core/Src/MazeLib.c ****             {
 5986              		.loc 1 1711 15 view .LVU1850
 5987 0252 3AB1     		cbz	r2, .L370
1718:Core/Src/MazeLib.c ****                 {
 5988              		.loc 1 1718 17 is_stmt 1 view .LVU1851
1718:Core/Src/MazeLib.c ****                 {
 5989              		.loc 1 1718 21 is_stmt 0 view .LVU1852
 5990 0254 0EF1FF3C 		add	ip, lr, #-1
1718:Core/Src/MazeLib.c ****                 {
 5991              		.loc 1 1718 19 view .LVU1853
 5992 0258 8C45     		cmp	ip, r1
 5993 025a 20D0     		beq	.L392
 5994              	.L371:
1727:Core/Src/MazeLib.c ****                 {
 5995              		.loc 1 1727 17 is_stmt 1 view .LVU1854
1727:Core/Src/MazeLib.c ****                 {
 5996              		.loc 1 1727 21 is_stmt 0 view .LVU1855
ARM GAS  /var/folders/v_/kwz_t0cs68g1q1d733r227b80000gn/T//cc7enlx9.s 			page 164


 5997 025c 0EF1010C 		add	ip, lr, #1
1727:Core/Src/MazeLib.c ****                 {
 5998              		.loc 1 1727 19 view .LVU1856
 5999 0260 6145     		cmp	r1, ip
 6000 0262 26D0     		beq	.L393
 6001              	.L370:
1738:Core/Src/MazeLib.c ****             {
 6002              		.loc 1 1738 13 is_stmt 1 view .LVU1857
1738:Core/Src/MazeLib.c ****             {
 6003              		.loc 1 1738 15 is_stmt 0 view .LVU1858
 6004 0264 002A     		cmp	r2, #0
 6005 0266 7FF4F5AE 		bne	.L349
1743:Core/Src/MazeLib.c ****                 {
 6006              		.loc 1 1743 17 is_stmt 1 view .LVU1859
1743:Core/Src/MazeLib.c ****                 {
 6007              		.loc 1 1743 21 is_stmt 0 view .LVU1860
 6008 026a 0EF1FF32 		add	r2, lr, #-1
1743:Core/Src/MazeLib.c ****                 {
 6009              		.loc 1 1743 19 view .LVU1861
 6010 026e 8A42     		cmp	r2, r1
 6011 0270 29D0     		beq	.L394
 6012              	.L372:
1754:Core/Src/MazeLib.c ****                 {
 6013              		.loc 1 1754 17 is_stmt 1 view .LVU1862
1754:Core/Src/MazeLib.c ****                 {
 6014              		.loc 1 1754 19 is_stmt 0 view .LVU1863
 6015 0272 8A42     		cmp	r2, r1
 6016 0274 33D0     		beq	.L395
 6017              	.L373:
1764:Core/Src/MazeLib.c ****                 {
 6018              		.loc 1 1764 17 is_stmt 1 view .LVU1864
1764:Core/Src/MazeLib.c ****                 {
 6019              		.loc 1 1764 19 is_stmt 0 view .LVU1865
 6020 0276 8E45     		cmp	lr, r1
 6021 0278 3BD0     		beq	.L396
 6022              	.L374:
1774:Core/Src/MazeLib.c ****                 {
 6023              		.loc 1 1774 17 is_stmt 1 view .LVU1866
1774:Core/Src/MazeLib.c ****                 {
 6024              		.loc 1 1774 19 is_stmt 0 view .LVU1867
 6025 027a 8E45     		cmp	lr, r1
 6026 027c 7FF4EAAE 		bne	.L349
1774:Core/Src/MazeLib.c ****                 {
 6027              		.loc 1 1774 21 discriminator 1 view .LVU1868
 6028 0280 0134     		adds	r4, r4, #1
 6029              	.LVL474:
1774:Core/Src/MazeLib.c ****                 {
 6030              		.loc 1 1774 21 discriminator 1 view .LVU1869
 6031 0282 AC42     		cmp	r4, r5
 6032 0284 7FF4E6AE 		bne	.L349
1776:Core/Src/MazeLib.c ****                     next_state->pos.x = now_state->pos.x + 1;
 6033              		.loc 1 1776 21 is_stmt 1 view .LVU1870
1776:Core/Src/MazeLib.c ****                     next_state->pos.x = now_state->pos.x + 1;
 6034              		.loc 1 1776 37 is_stmt 0 view .LVU1871
 6035 0288 0022     		movs	r2, #0
 6036 028a 8270     		strb	r2, [r0, #2]
1777:Core/Src/MazeLib.c ****                     next_state->pos.y = now_state->pos.y + 1;
ARM GAS  /var/folders/v_/kwz_t0cs68g1q1d733r227b80000gn/T//cc7enlx9.s 			page 165


 6037              		.loc 1 1777 21 is_stmt 1 view .LVU1872
1777:Core/Src/MazeLib.c ****                     next_state->pos.y = now_state->pos.y + 1;
 6038              		.loc 1 1777 55 is_stmt 0 view .LVU1873
 6039 028c 1A78     		ldrb	r2, [r3]	@ zero_extendqisi2
1777:Core/Src/MazeLib.c ****                     next_state->pos.y = now_state->pos.y + 1;
 6040              		.loc 1 1777 58 view .LVU1874
 6041 028e 0132     		adds	r2, r2, #1
1777:Core/Src/MazeLib.c ****                     next_state->pos.y = now_state->pos.y + 1;
 6042              		.loc 1 1777 39 view .LVU1875
 6043 0290 0270     		strb	r2, [r0]
1778:Core/Src/MazeLib.c ****                     now_state->dir = backleft;
 6044              		.loc 1 1778 21 is_stmt 1 view .LVU1876
1778:Core/Src/MazeLib.c ****                     now_state->dir = backleft;
 6045              		.loc 1 1778 55 is_stmt 0 view .LVU1877
 6046 0292 5A78     		ldrb	r2, [r3, #1]	@ zero_extendqisi2
1778:Core/Src/MazeLib.c ****                     now_state->dir = backleft;
 6047              		.loc 1 1778 58 view .LVU1878
 6048 0294 0132     		adds	r2, r2, #1
1778:Core/Src/MazeLib.c ****                     now_state->dir = backleft;
 6049              		.loc 1 1778 39 view .LVU1879
 6050 0296 4270     		strb	r2, [r0, #1]
1779:Core/Src/MazeLib.c ****                     return next_state;
 6051              		.loc 1 1779 21 is_stmt 1 view .LVU1880
1779:Core/Src/MazeLib.c ****                     return next_state;
 6052              		.loc 1 1779 36 is_stmt 0 view .LVU1881
 6053 0298 0522     		movs	r2, #5
 6054 029a DA70     		strb	r2, [r3, #3]
1780:Core/Src/MazeLib.c ****                 }
 6055              		.loc 1 1780 21 is_stmt 1 view .LVU1882
1780:Core/Src/MazeLib.c ****                 }
 6056              		.loc 1 1780 28 is_stmt 0 view .LVU1883
 6057 029c DAE6     		b	.L349
 6058              	.LVL475:
 6059              	.L392:
1718:Core/Src/MazeLib.c ****                 {
 6060              		.loc 1 1718 21 discriminator 1 view .LVU1884
 6061 029e AC42     		cmp	r4, r5
 6062 02a0 DCD1     		bne	.L371
1720:Core/Src/MazeLib.c ****                     next_state->pos.x = now_state->pos.x - 1; //æ¬¡ã«å£ã‚’æ›´æ–°ã™ã‚‹ã‚¿ã‚¤ãƒŸãƒ
 6063              		.loc 1 1720 21 is_stmt 1 view .LVU1885
1720:Core/Src/MazeLib.c ****                     next_state->pos.x = now_state->pos.x - 1; //æ¬¡ã«å£ã‚’æ›´æ–°ã™ã‚‹ã‚¿ã‚¤ãƒŸãƒ
 6064              		.loc 1 1720 37 is_stmt 0 view .LVU1886
 6065 02a2 0622     		movs	r2, #6
 6066 02a4 8270     		strb	r2, [r0, #2]
1721:Core/Src/MazeLib.c ****                     now_state->dir = front;
 6067              		.loc 1 1721 21 is_stmt 1 view .LVU1887
1721:Core/Src/MazeLib.c ****                     now_state->dir = front;
 6068              		.loc 1 1721 55 is_stmt 0 view .LVU1888
 6069 02a6 1A78     		ldrb	r2, [r3]	@ zero_extendqisi2
1721:Core/Src/MazeLib.c ****                     now_state->dir = front;
 6070              		.loc 1 1721 58 view .LVU1889
 6071 02a8 013A     		subs	r2, r2, #1
1721:Core/Src/MazeLib.c ****                     now_state->dir = front;
 6072              		.loc 1 1721 39 view .LVU1890
 6073 02aa 0270     		strb	r2, [r0]
1722:Core/Src/MazeLib.c ****                     return next_state;
 6074              		.loc 1 1722 21 is_stmt 1 view .LVU1891
ARM GAS  /var/folders/v_/kwz_t0cs68g1q1d733r227b80000gn/T//cc7enlx9.s 			page 166


1722:Core/Src/MazeLib.c ****                     return next_state;
 6075              		.loc 1 1722 36 is_stmt 0 view .LVU1892
 6076 02ac 0022     		movs	r2, #0
 6077 02ae DA70     		strb	r2, [r3, #3]
1723:Core/Src/MazeLib.c ****                 }
 6078              		.loc 1 1723 21 is_stmt 1 view .LVU1893
1723:Core/Src/MazeLib.c ****                 }
 6079              		.loc 1 1723 28 is_stmt 0 view .LVU1894
 6080 02b0 D0E6     		b	.L349
 6081              	.L393:
1727:Core/Src/MazeLib.c ****                 {
 6082              		.loc 1 1727 21 discriminator 1 view .LVU1895
 6083 02b2 AC42     		cmp	r4, r5
 6084 02b4 D6D1     		bne	.L370
1729:Core/Src/MazeLib.c ****                     next_state->pos.x = now_state->pos.x + 2;
 6085              		.loc 1 1729 21 is_stmt 1 view .LVU1896
1729:Core/Src/MazeLib.c ****                     next_state->pos.x = now_state->pos.x + 2;
 6086              		.loc 1 1729 37 is_stmt 0 view .LVU1897
 6087 02b6 0222     		movs	r2, #2
 6088 02b8 8270     		strb	r2, [r0, #2]
1730:Core/Src/MazeLib.c ****                     now_state->dir = back;
 6089              		.loc 1 1730 21 is_stmt 1 view .LVU1898
1730:Core/Src/MazeLib.c ****                     now_state->dir = back;
 6090              		.loc 1 1730 55 is_stmt 0 view .LVU1899
 6091 02ba 1A78     		ldrb	r2, [r3]	@ zero_extendqisi2
1730:Core/Src/MazeLib.c ****                     now_state->dir = back;
 6092              		.loc 1 1730 58 view .LVU1900
 6093 02bc 0232     		adds	r2, r2, #2
1730:Core/Src/MazeLib.c ****                     now_state->dir = back;
 6094              		.loc 1 1730 39 view .LVU1901
 6095 02be 0270     		strb	r2, [r0]
1731:Core/Src/MazeLib.c ****                     return next_state;
 6096              		.loc 1 1731 21 is_stmt 1 view .LVU1902
1731:Core/Src/MazeLib.c ****                     return next_state;
 6097              		.loc 1 1731 36 is_stmt 0 view .LVU1903
 6098 02c0 0422     		movs	r2, #4
 6099 02c2 DA70     		strb	r2, [r3, #3]
1732:Core/Src/MazeLib.c ****                 }
 6100              		.loc 1 1732 21 is_stmt 1 view .LVU1904
1732:Core/Src/MazeLib.c ****                 }
 6101              		.loc 1 1732 28 is_stmt 0 view .LVU1905
 6102 02c4 C6E6     		b	.L349
 6103              	.L394:
1743:Core/Src/MazeLib.c ****                 {
 6104              		.loc 1 1743 21 discriminator 1 view .LVU1906
 6105 02c6 04F1010C 		add	ip, r4, #1
 6106 02ca AC45     		cmp	ip, r5
 6107 02cc D1D1     		bne	.L372
1745:Core/Src/MazeLib.c ****                     next_state->pos.y = now_state->pos.y + 1;
 6108              		.loc 1 1745 21 is_stmt 1 view .LVU1907
1745:Core/Src/MazeLib.c ****                     next_state->pos.y = now_state->pos.y + 1;
 6109              		.loc 1 1745 37 is_stmt 0 view .LVU1908
 6110 02ce 0022     		movs	r2, #0
 6111 02d0 8270     		strb	r2, [r0, #2]
1746:Core/Src/MazeLib.c ****                     now_state->dir = right;
 6112              		.loc 1 1746 21 is_stmt 1 view .LVU1909
1746:Core/Src/MazeLib.c ****                     now_state->dir = right;
ARM GAS  /var/folders/v_/kwz_t0cs68g1q1d733r227b80000gn/T//cc7enlx9.s 			page 167


 6113              		.loc 1 1746 55 is_stmt 0 view .LVU1910
 6114 02d2 5A78     		ldrb	r2, [r3, #1]	@ zero_extendqisi2
1746:Core/Src/MazeLib.c ****                     now_state->dir = right;
 6115              		.loc 1 1746 58 view .LVU1911
 6116 02d4 0132     		adds	r2, r2, #1
1746:Core/Src/MazeLib.c ****                     now_state->dir = right;
 6117              		.loc 1 1746 39 view .LVU1912
 6118 02d6 4270     		strb	r2, [r0, #1]
1747:Core/Src/MazeLib.c **** //                    ChangeLED(3);
 6119              		.loc 1 1747 21 is_stmt 1 view .LVU1913
1747:Core/Src/MazeLib.c **** //                    ChangeLED(3);
 6120              		.loc 1 1747 36 is_stmt 0 view .LVU1914
 6121 02d8 0222     		movs	r2, #2
 6122 02da DA70     		strb	r2, [r3, #3]
1749:Core/Src/MazeLib.c ****                 }
 6123              		.loc 1 1749 21 is_stmt 1 view .LVU1915
1749:Core/Src/MazeLib.c ****                 }
 6124              		.loc 1 1749 28 is_stmt 0 view .LVU1916
 6125 02dc BAE6     		b	.L349
 6126              	.L395:
1754:Core/Src/MazeLib.c ****                 {
 6127              		.loc 1 1754 21 discriminator 1 view .LVU1917
 6128 02de AC42     		cmp	r4, r5
 6129 02e0 C9D1     		bne	.L373
1756:Core/Src/MazeLib.c ****                     next_state->pos.y = now_state->pos.y - 1;
 6130              		.loc 1 1756 21 is_stmt 1 view .LVU1918
1756:Core/Src/MazeLib.c ****                     next_state->pos.y = now_state->pos.y - 1;
 6131              		.loc 1 1756 37 is_stmt 0 view .LVU1919
 6132 02e2 0422     		movs	r2, #4
 6133 02e4 8270     		strb	r2, [r0, #2]
1757:Core/Src/MazeLib.c ****                     now_state->dir = left;
 6134              		.loc 1 1757 21 is_stmt 1 view .LVU1920
1757:Core/Src/MazeLib.c ****                     now_state->dir = left;
 6135              		.loc 1 1757 55 is_stmt 0 view .LVU1921
 6136 02e6 5A78     		ldrb	r2, [r3, #1]	@ zero_extendqisi2
1757:Core/Src/MazeLib.c ****                     now_state->dir = left;
 6137              		.loc 1 1757 58 view .LVU1922
 6138 02e8 013A     		subs	r2, r2, #1
1757:Core/Src/MazeLib.c ****                     now_state->dir = left;
 6139              		.loc 1 1757 39 view .LVU1923
 6140 02ea 4270     		strb	r2, [r0, #1]
1758:Core/Src/MazeLib.c ****                     return next_state;
 6141              		.loc 1 1758 21 is_stmt 1 view .LVU1924
1758:Core/Src/MazeLib.c ****                     return next_state;
 6142              		.loc 1 1758 36 is_stmt 0 view .LVU1925
 6143 02ec 0622     		movs	r2, #6
 6144 02ee DA70     		strb	r2, [r3, #3]
1759:Core/Src/MazeLib.c ****                 }
 6145              		.loc 1 1759 21 is_stmt 1 view .LVU1926
1759:Core/Src/MazeLib.c ****                 }
 6146              		.loc 1 1759 28 is_stmt 0 view .LVU1927
 6147 02f0 B0E6     		b	.L349
 6148              	.L396:
1764:Core/Src/MazeLib.c ****                 {
 6149              		.loc 1 1764 21 discriminator 1 view .LVU1928
 6150 02f2 AC42     		cmp	r4, r5
 6151 02f4 C1D1     		bne	.L374
ARM GAS  /var/folders/v_/kwz_t0cs68g1q1d733r227b80000gn/T//cc7enlx9.s 			page 168


1766:Core/Src/MazeLib.c ****                     next_state->pos.x = now_state->pos.x + 1;
 6152              		.loc 1 1766 21 is_stmt 1 view .LVU1929
1766:Core/Src/MazeLib.c ****                     next_state->pos.x = now_state->pos.x + 1;
 6153              		.loc 1 1766 37 is_stmt 0 view .LVU1930
 6154 02f6 0422     		movs	r2, #4
 6155 02f8 8270     		strb	r2, [r0, #2]
1767:Core/Src/MazeLib.c ****                     next_state->pos.y = now_state->pos.y - 1;
 6156              		.loc 1 1767 21 is_stmt 1 view .LVU1931
1767:Core/Src/MazeLib.c ****                     next_state->pos.y = now_state->pos.y - 1;
 6157              		.loc 1 1767 55 is_stmt 0 view .LVU1932
 6158 02fa 1A78     		ldrb	r2, [r3]	@ zero_extendqisi2
1767:Core/Src/MazeLib.c ****                     next_state->pos.y = now_state->pos.y - 1;
 6159              		.loc 1 1767 58 view .LVU1933
 6160 02fc 0132     		adds	r2, r2, #1
1767:Core/Src/MazeLib.c ****                     next_state->pos.y = now_state->pos.y - 1;
 6161              		.loc 1 1767 39 view .LVU1934
 6162 02fe 0270     		strb	r2, [r0]
1768:Core/Src/MazeLib.c ****                     now_state->dir = backright;
 6163              		.loc 1 1768 21 is_stmt 1 view .LVU1935
1768:Core/Src/MazeLib.c ****                     now_state->dir = backright;
 6164              		.loc 1 1768 55 is_stmt 0 view .LVU1936
 6165 0300 5A78     		ldrb	r2, [r3, #1]	@ zero_extendqisi2
1768:Core/Src/MazeLib.c ****                     now_state->dir = backright;
 6166              		.loc 1 1768 58 view .LVU1937
 6167 0302 013A     		subs	r2, r2, #1
1768:Core/Src/MazeLib.c ****                     now_state->dir = backright;
 6168              		.loc 1 1768 39 view .LVU1938
 6169 0304 4270     		strb	r2, [r0, #1]
1769:Core/Src/MazeLib.c ****                     return next_state;
 6170              		.loc 1 1769 21 is_stmt 1 view .LVU1939
1769:Core/Src/MazeLib.c ****                     return next_state;
 6171              		.loc 1 1769 36 is_stmt 0 view .LVU1940
 6172 0306 0322     		movs	r2, #3
 6173 0308 DA70     		strb	r2, [r3, #3]
1770:Core/Src/MazeLib.c ****                 }
 6174              		.loc 1 1770 21 is_stmt 1 view .LVU1941
1770:Core/Src/MazeLib.c ****                 }
 6175              		.loc 1 1770 28 is_stmt 0 view .LVU1942
 6176 030a A3E6     		b	.L349
 6177              		.cfi_endproc
 6178              	.LFE38:
 6180              		.section	.text.getWallNow,"ax",%progbits
 6181              		.align	1
 6182              		.global	getWallNow
 6183              		.syntax unified
 6184              		.thumb
 6185              		.thumb_func
 6186              		.fpu fpv4-sp-d16
 6188              	getWallNow:
 6189              	.LVL476:
 6190              	.LFB39:
1793:Core/Src/MazeLib.c **** 
1794:Core/Src/MazeLib.c **** //å¼•æ•°ã®wall_stãŒå‰å³å·¦
1795:Core/Src/MazeLib.c **** _Bool getWallNow(state *st, wall_state *wall_st)//wall_existence *wall[4])(
1796:Core/Src/MazeLib.c **** {
 6191              		.loc 1 1796 1 is_stmt 1 view -0
 6192              		.cfi_startproc
ARM GAS  /var/folders/v_/kwz_t0cs68g1q1d733r227b80000gn/T//cc7enlx9.s 			page 169


 6193              		@ args = 0, pretend = 0, frame = 0
 6194              		@ frame_needed = 0, uses_anonymous_args = 0
 6195              		@ link register save eliminated.
1797:Core/Src/MazeLib.c ****     switch (st->car)
 6196              		.loc 1 1797 5 view .LVU1944
 6197              		.loc 1 1797 15 is_stmt 0 view .LVU1945
 6198 0000 8378     		ldrb	r3, [r0, #2]	@ zero_extendqisi2
 6199              		.loc 1 1797 5 view .LVU1946
 6200 0002 062B     		cmp	r3, #6
 6201 0004 5DD8     		bhi	.L404
 6202 0006 DFE803F0 		tbb	[pc, r3]
 6203              	.L400:
 6204 000a 04       		.byte	(.L403-.L400)/2
 6205 000b 5C       		.byte	(.L404-.L400)/2
 6206 000c 1A       		.byte	(.L402-.L400)/2
 6207 000d 5C       		.byte	(.L404-.L400)/2
 6208 000e 30       		.byte	(.L401-.L400)/2
 6209 000f 5C       		.byte	(.L404-.L400)/2
 6210 0010 46       		.byte	(.L399-.L400)/2
 6211 0011 00       		.p2align 1
 6212              	.L403:
1798:Core/Src/MazeLib.c ****     {
1799:Core/Src/MazeLib.c ****     case north:
1800:Core/Src/MazeLib.c ****         st->wall.north = wall_st[0];    //åŒ—
 6213              		.loc 1 1800 9 is_stmt 1 view .LVU1947
 6214              		.loc 1 1800 33 is_stmt 0 view .LVU1948
 6215 0012 0A78     		ldrb	r2, [r1]	@ zero_extendqisi2
 6216              		.loc 1 1800 24 view .LVU1949
 6217 0014 0379     		ldrb	r3, [r0, #4]	@ zero_extendqisi2
 6218 0016 62F30103 		bfi	r3, r2, #0, #2
 6219 001a 0371     		strb	r3, [r0, #4]
1801:Core/Src/MazeLib.c ****         st->wall.east = wall_st[1];     //æ±
 6220              		.loc 1 1801 9 is_stmt 1 view .LVU1950
 6221              		.loc 1 1801 32 is_stmt 0 view .LVU1951
 6222 001c 4A78     		ldrb	r2, [r1, #1]	@ zero_extendqisi2
 6223              		.loc 1 1801 23 view .LVU1952
 6224 001e DBB2     		uxtb	r3, r3
 6225 0020 62F38303 		bfi	r3, r2, #2, #2
 6226 0024 0371     		strb	r3, [r0, #4]
1802:Core/Src/MazeLib.c ****         st->wall.south = wall_st[2];    //å—
 6227              		.loc 1 1802 9 is_stmt 1 view .LVU1953
 6228              		.loc 1 1802 33 is_stmt 0 view .LVU1954
 6229 0026 8A78     		ldrb	r2, [r1, #2]	@ zero_extendqisi2
 6230              		.loc 1 1802 24 view .LVU1955
 6231 0028 DBB2     		uxtb	r3, r3
 6232 002a 62F30513 		bfi	r3, r2, #4, #2
 6233 002e 0371     		strb	r3, [r0, #4]
1803:Core/Src/MazeLib.c ****         st->wall.west = wall_st[3];     //è¥¿
 6234              		.loc 1 1803 9 is_stmt 1 view .LVU1956
 6235              		.loc 1 1803 32 is_stmt 0 view .LVU1957
 6236 0030 CA78     		ldrb	r2, [r1, #3]	@ zero_extendqisi2
 6237              		.loc 1 1803 23 view .LVU1958
 6238 0032 DBB2     		uxtb	r3, r3
 6239 0034 62F38713 		bfi	r3, r2, #6, #2
 6240 0038 0371     		strb	r3, [r0, #4]
1804:Core/Src/MazeLib.c ****         break;
 6241              		.loc 1 1804 9 is_stmt 1 view .LVU1959
ARM GAS  /var/folders/v_/kwz_t0cs68g1q1d733r227b80000gn/T//cc7enlx9.s 			page 170


1805:Core/Src/MazeLib.c ****     case east:
1806:Core/Src/MazeLib.c ****         st->wall.north = wall_st[3];    //åŒ—
1807:Core/Src/MazeLib.c ****         st->wall.east = wall_st[0];     //æ±
1808:Core/Src/MazeLib.c ****         st->wall.south = wall_st[1];    //å—
1809:Core/Src/MazeLib.c ****         st->wall.west = wall_st[2];     //è¥¿
1810:Core/Src/MazeLib.c ****         break;
1811:Core/Src/MazeLib.c ****     case south:
1812:Core/Src/MazeLib.c ****         st->wall.north = wall_st[2];    //åŒ—
1813:Core/Src/MazeLib.c ****         st->wall.east = wall_st[3];     //æ±
1814:Core/Src/MazeLib.c ****         st->wall.south = wall_st[0];    //å—
1815:Core/Src/MazeLib.c ****         st->wall.west = wall_st[1];     //è¥¿
1816:Core/Src/MazeLib.c ****         break;
1817:Core/Src/MazeLib.c ****     case west:
1818:Core/Src/MazeLib.c ****         st->wall.north = wall_st[1];    //åŒ—
1819:Core/Src/MazeLib.c ****         st->wall.east = wall_st[2];     //æ±
1820:Core/Src/MazeLib.c ****         st->wall.south = wall_st[3];    //å—
1821:Core/Src/MazeLib.c ****         st->wall.west = wall_st[0];     //è¥¿
1822:Core/Src/MazeLib.c ****         break;
1823:Core/Src/MazeLib.c ****     default:
1824:Core/Src/MazeLib.c ****         //ä¸‡ãŒä¸€æ–œã‚ã®æ–¹è§’ã‚’å‘ã„ã¦ã„ã‚‹ã¨ãã«å‘¼ã³å‡ºã—ã¦ã—ã¾ã£ãŸã‚‰ã€
1825:Core/Src/MazeLib.c ****         return false;
1826:Core/Src/MazeLib.c ****         break;
1827:Core/Src/MazeLib.c ****     }
1828:Core/Src/MazeLib.c ****     return true;
 6242              		.loc 1 1828 12 is_stmt 0 view .LVU1960
 6243 003a 0120     		movs	r0, #1
 6244              	.LVL477:
1804:Core/Src/MazeLib.c ****         break;
 6245              		.loc 1 1804 9 view .LVU1961
 6246 003c 7047     		bx	lr
 6247              	.LVL478:
 6248              	.L402:
1806:Core/Src/MazeLib.c ****         st->wall.east = wall_st[0];     //æ±
 6249              		.loc 1 1806 9 is_stmt 1 view .LVU1962
1806:Core/Src/MazeLib.c ****         st->wall.east = wall_st[0];     //æ±
 6250              		.loc 1 1806 33 is_stmt 0 view .LVU1963
 6251 003e CA78     		ldrb	r2, [r1, #3]	@ zero_extendqisi2
1806:Core/Src/MazeLib.c ****         st->wall.east = wall_st[0];     //æ±
 6252              		.loc 1 1806 24 view .LVU1964
 6253 0040 0379     		ldrb	r3, [r0, #4]	@ zero_extendqisi2
 6254 0042 62F30103 		bfi	r3, r2, #0, #2
 6255 0046 0371     		strb	r3, [r0, #4]
1807:Core/Src/MazeLib.c ****         st->wall.south = wall_st[1];    //å—
 6256              		.loc 1 1807 9 is_stmt 1 view .LVU1965
1807:Core/Src/MazeLib.c ****         st->wall.south = wall_st[1];    //å—
 6257              		.loc 1 1807 32 is_stmt 0 view .LVU1966
 6258 0048 0A78     		ldrb	r2, [r1]	@ zero_extendqisi2
1807:Core/Src/MazeLib.c ****         st->wall.south = wall_st[1];    //å—
 6259              		.loc 1 1807 23 view .LVU1967
 6260 004a DBB2     		uxtb	r3, r3
 6261 004c 62F38303 		bfi	r3, r2, #2, #2
 6262 0050 0371     		strb	r3, [r0, #4]
1808:Core/Src/MazeLib.c ****         st->wall.west = wall_st[2];     //è¥¿
 6263              		.loc 1 1808 9 is_stmt 1 view .LVU1968
1808:Core/Src/MazeLib.c ****         st->wall.west = wall_st[2];     //è¥¿
 6264              		.loc 1 1808 33 is_stmt 0 view .LVU1969
 6265 0052 4A78     		ldrb	r2, [r1, #1]	@ zero_extendqisi2
ARM GAS  /var/folders/v_/kwz_t0cs68g1q1d733r227b80000gn/T//cc7enlx9.s 			page 171


1808:Core/Src/MazeLib.c ****         st->wall.west = wall_st[2];     //è¥¿
 6266              		.loc 1 1808 24 view .LVU1970
 6267 0054 DBB2     		uxtb	r3, r3
 6268 0056 62F30513 		bfi	r3, r2, #4, #2
 6269 005a 0371     		strb	r3, [r0, #4]
1809:Core/Src/MazeLib.c ****         break;
 6270              		.loc 1 1809 9 is_stmt 1 view .LVU1971
1809:Core/Src/MazeLib.c ****         break;
 6271              		.loc 1 1809 32 is_stmt 0 view .LVU1972
 6272 005c 8A78     		ldrb	r2, [r1, #2]	@ zero_extendqisi2
1809:Core/Src/MazeLib.c ****         break;
 6273              		.loc 1 1809 23 view .LVU1973
 6274 005e DBB2     		uxtb	r3, r3
 6275 0060 62F38713 		bfi	r3, r2, #6, #2
 6276 0064 0371     		strb	r3, [r0, #4]
1810:Core/Src/MazeLib.c ****     case south:
 6277              		.loc 1 1810 9 is_stmt 1 view .LVU1974
 6278              		.loc 1 1828 12 is_stmt 0 view .LVU1975
 6279 0066 0120     		movs	r0, #1
 6280              	.LVL479:
1810:Core/Src/MazeLib.c ****     case south:
 6281              		.loc 1 1810 9 view .LVU1976
 6282 0068 7047     		bx	lr
 6283              	.LVL480:
 6284              	.L401:
1812:Core/Src/MazeLib.c ****         st->wall.east = wall_st[3];     //æ±
 6285              		.loc 1 1812 9 is_stmt 1 view .LVU1977
1812:Core/Src/MazeLib.c ****         st->wall.east = wall_st[3];     //æ±
 6286              		.loc 1 1812 33 is_stmt 0 view .LVU1978
 6287 006a 8A78     		ldrb	r2, [r1, #2]	@ zero_extendqisi2
1812:Core/Src/MazeLib.c ****         st->wall.east = wall_st[3];     //æ±
 6288              		.loc 1 1812 24 view .LVU1979
 6289 006c 0379     		ldrb	r3, [r0, #4]	@ zero_extendqisi2
 6290 006e 62F30103 		bfi	r3, r2, #0, #2
 6291 0072 0371     		strb	r3, [r0, #4]
1813:Core/Src/MazeLib.c ****         st->wall.south = wall_st[0];    //å—
 6292              		.loc 1 1813 9 is_stmt 1 view .LVU1980
1813:Core/Src/MazeLib.c ****         st->wall.south = wall_st[0];    //å—
 6293              		.loc 1 1813 32 is_stmt 0 view .LVU1981
 6294 0074 CA78     		ldrb	r2, [r1, #3]	@ zero_extendqisi2
1813:Core/Src/MazeLib.c ****         st->wall.south = wall_st[0];    //å—
 6295              		.loc 1 1813 23 view .LVU1982
 6296 0076 DBB2     		uxtb	r3, r3
 6297 0078 62F38303 		bfi	r3, r2, #2, #2
 6298 007c 0371     		strb	r3, [r0, #4]
1814:Core/Src/MazeLib.c ****         st->wall.west = wall_st[1];     //è¥¿
 6299              		.loc 1 1814 9 is_stmt 1 view .LVU1983
1814:Core/Src/MazeLib.c ****         st->wall.west = wall_st[1];     //è¥¿
 6300              		.loc 1 1814 33 is_stmt 0 view .LVU1984
 6301 007e 0A78     		ldrb	r2, [r1]	@ zero_extendqisi2
1814:Core/Src/MazeLib.c ****         st->wall.west = wall_st[1];     //è¥¿
 6302              		.loc 1 1814 24 view .LVU1985
 6303 0080 DBB2     		uxtb	r3, r3
 6304 0082 62F30513 		bfi	r3, r2, #4, #2
 6305 0086 0371     		strb	r3, [r0, #4]
1815:Core/Src/MazeLib.c ****         break;
 6306              		.loc 1 1815 9 is_stmt 1 view .LVU1986
ARM GAS  /var/folders/v_/kwz_t0cs68g1q1d733r227b80000gn/T//cc7enlx9.s 			page 172


1815:Core/Src/MazeLib.c ****         break;
 6307              		.loc 1 1815 32 is_stmt 0 view .LVU1987
 6308 0088 4A78     		ldrb	r2, [r1, #1]	@ zero_extendqisi2
1815:Core/Src/MazeLib.c ****         break;
 6309              		.loc 1 1815 23 view .LVU1988
 6310 008a DBB2     		uxtb	r3, r3
 6311 008c 62F38713 		bfi	r3, r2, #6, #2
 6312 0090 0371     		strb	r3, [r0, #4]
1816:Core/Src/MazeLib.c ****     case west:
 6313              		.loc 1 1816 9 is_stmt 1 view .LVU1989
 6314              		.loc 1 1828 12 is_stmt 0 view .LVU1990
 6315 0092 0120     		movs	r0, #1
 6316              	.LVL481:
1816:Core/Src/MazeLib.c ****     case west:
 6317              		.loc 1 1816 9 view .LVU1991
 6318 0094 7047     		bx	lr
 6319              	.LVL482:
 6320              	.L399:
1818:Core/Src/MazeLib.c ****         st->wall.east = wall_st[2];     //æ±
 6321              		.loc 1 1818 9 is_stmt 1 view .LVU1992
1818:Core/Src/MazeLib.c ****         st->wall.east = wall_st[2];     //æ±
 6322              		.loc 1 1818 33 is_stmt 0 view .LVU1993
 6323 0096 4A78     		ldrb	r2, [r1, #1]	@ zero_extendqisi2
1818:Core/Src/MazeLib.c ****         st->wall.east = wall_st[2];     //æ±
 6324              		.loc 1 1818 24 view .LVU1994
 6325 0098 0379     		ldrb	r3, [r0, #4]	@ zero_extendqisi2
 6326 009a 62F30103 		bfi	r3, r2, #0, #2
 6327 009e 0371     		strb	r3, [r0, #4]
1819:Core/Src/MazeLib.c ****         st->wall.south = wall_st[3];    //å—
 6328              		.loc 1 1819 9 is_stmt 1 view .LVU1995
1819:Core/Src/MazeLib.c ****         st->wall.south = wall_st[3];    //å—
 6329              		.loc 1 1819 32 is_stmt 0 view .LVU1996
 6330 00a0 8A78     		ldrb	r2, [r1, #2]	@ zero_extendqisi2
1819:Core/Src/MazeLib.c ****         st->wall.south = wall_st[3];    //å—
 6331              		.loc 1 1819 23 view .LVU1997
 6332 00a2 DBB2     		uxtb	r3, r3
 6333 00a4 62F38303 		bfi	r3, r2, #2, #2
 6334 00a8 0371     		strb	r3, [r0, #4]
1820:Core/Src/MazeLib.c ****         st->wall.west = wall_st[0];     //è¥¿
 6335              		.loc 1 1820 9 is_stmt 1 view .LVU1998
1820:Core/Src/MazeLib.c ****         st->wall.west = wall_st[0];     //è¥¿
 6336              		.loc 1 1820 33 is_stmt 0 view .LVU1999
 6337 00aa CA78     		ldrb	r2, [r1, #3]	@ zero_extendqisi2
1820:Core/Src/MazeLib.c ****         st->wall.west = wall_st[0];     //è¥¿
 6338              		.loc 1 1820 24 view .LVU2000
 6339 00ac DBB2     		uxtb	r3, r3
 6340 00ae 62F30513 		bfi	r3, r2, #4, #2
 6341 00b2 0371     		strb	r3, [r0, #4]
1821:Core/Src/MazeLib.c ****         break;
 6342              		.loc 1 1821 9 is_stmt 1 view .LVU2001
1821:Core/Src/MazeLib.c ****         break;
 6343              		.loc 1 1821 32 is_stmt 0 view .LVU2002
 6344 00b4 0A78     		ldrb	r2, [r1]	@ zero_extendqisi2
1821:Core/Src/MazeLib.c ****         break;
 6345              		.loc 1 1821 23 view .LVU2003
 6346 00b6 DBB2     		uxtb	r3, r3
 6347 00b8 62F38713 		bfi	r3, r2, #6, #2
ARM GAS  /var/folders/v_/kwz_t0cs68g1q1d733r227b80000gn/T//cc7enlx9.s 			page 173


 6348 00bc 0371     		strb	r3, [r0, #4]
1822:Core/Src/MazeLib.c ****     default:
 6349              		.loc 1 1822 9 is_stmt 1 view .LVU2004
 6350              		.loc 1 1828 12 is_stmt 0 view .LVU2005
 6351 00be 0120     		movs	r0, #1
 6352              	.LVL483:
1822:Core/Src/MazeLib.c ****     default:
 6353              		.loc 1 1822 9 view .LVU2006
 6354 00c0 7047     		bx	lr
 6355              	.LVL484:
 6356              	.L404:
1797:Core/Src/MazeLib.c ****     {
 6357              		.loc 1 1797 5 view .LVU2007
 6358 00c2 0020     		movs	r0, #0
 6359              	.LVL485:
1829:Core/Src/MazeLib.c **** }
 6360              		.loc 1 1829 1 view .LVU2008
 6361 00c4 7047     		bx	lr
 6362              		.cfi_endproc
 6363              	.LFE39:
 6365              		.section	.text.getNowWallVirtual,"ax",%progbits
 6366              		.align	1
 6367              		.global	getNowWallVirtual
 6368              		.syntax unified
 6369              		.thumb
 6370              		.thumb_func
 6371              		.fpu fpv4-sp-d16
 6373              	getNowWallVirtual:
 6374              	.LVL486:
 6375              	.LFB40:
1830:Core/Src/MazeLib.c **** //åº§æ¨™ã‹ã‚‰å£ã®æœ‰ç„¡ã‚’å–å¾—
1831:Core/Src/MazeLib.c **** void getNowWallVirtual(maze_node *maze, profile *mouse, uint8_t now_x, uint8_t now_y)
1832:Core/Src/MazeLib.c **** {
 6376              		.loc 1 1832 1 is_stmt 1 view -0
 6377              		.cfi_startproc
 6378              		@ args = 0, pretend = 0, frame = 0
 6379              		@ frame_needed = 0, uses_anonymous_args = 0
 6380              		.loc 1 1832 1 is_stmt 0 view .LVU2010
 6381 0000 10B5     		push	{r4, lr}
 6382              	.LCFI40:
 6383              		.cfi_def_cfa_offset 8
 6384              		.cfi_offset 4, -8
 6385              		.cfi_offset 14, -4
1833:Core/Src/MazeLib.c **** 	mouse->now.wall.north = maze->RawNode[now_x][now_y+1].existence;//åŒ—
 6386              		.loc 1 1833 2 is_stmt 1 view .LVU2011
 6387              		.loc 1 1833 52 is_stmt 0 view .LVU2012
 6388 0002 03F1010C 		add	ip, r3, #1
 6389              		.loc 1 1833 55 view .LVU2013
 6390 0006 02EB021E 		add	lr, r2, r2, lsl #4
 6391 000a F444     		add	ip, ip, lr
 6392 000c 10F83C40 		ldrb	r4, [r0, ip, lsl #3]	@ zero_extendqisi2
 6393              		.loc 1 1833 24 view .LVU2014
 6394 0010 91F80CC0 		ldrb	ip, [r1, #12]	@ zero_extendqisi2
 6395 0014 64F3010C 		bfi	ip, r4, #0, #2
 6396 0018 81F80CC0 		strb	ip, [r1, #12]
1834:Core/Src/MazeLib.c **** 	mouse->now.wall.east = maze->ColumnNode[now_x+1][now_y].existence;//æ±
 6397              		.loc 1 1834 2 is_stmt 1 view .LVU2015
ARM GAS  /var/folders/v_/kwz_t0cs68g1q1d733r227b80000gn/T//cc7enlx9.s 			page 174


 6398              		.loc 1 1834 47 is_stmt 0 view .LVU2016
 6399 001c 02F1010C 		add	ip, r2, #1
 6400              		.loc 1 1834 57 view .LVU2017
 6401 0020 03EB0C1C 		add	ip, r3, ip, lsl #4
 6402 0024 0CF5887C 		add	ip, ip, #272
 6403 0028 10F83C40 		ldrb	r4, [r0, ip, lsl #3]	@ zero_extendqisi2
 6404              		.loc 1 1834 23 view .LVU2018
 6405 002c 91F80CC0 		ldrb	ip, [r1, #12]	@ zero_extendqisi2
 6406 0030 64F3830C 		bfi	ip, r4, #2, #2
 6407 0034 81F80CC0 		strb	ip, [r1, #12]
1835:Core/Src/MazeLib.c **** 	mouse->now.wall.south = maze->RawNode[now_x][now_y].existence;//å—
 6408              		.loc 1 1835 2 is_stmt 1 view .LVU2019
 6409              		.loc 1 1835 53 is_stmt 0 view .LVU2020
 6410 0038 9E44     		add	lr, lr, r3
 6411 003a 10F83EE0 		ldrb	lr, [r0, lr, lsl #3]	@ zero_extendqisi2
 6412              		.loc 1 1835 24 view .LVU2021
 6413 003e 5FFA8CFC 		uxtb	ip, ip
 6414 0042 6EF3051C 		bfi	ip, lr, #4, #2
 6415 0046 81F80CC0 		strb	ip, [r1, #12]
1836:Core/Src/MazeLib.c **** 	mouse->now.wall.west = maze->ColumnNode[now_x][now_y].existence;//è¥¿
 6416              		.loc 1 1836 2 is_stmt 1 view .LVU2022
 6417              		.loc 1 1836 55 is_stmt 0 view .LVU2023
 6418 004a 03EB0213 		add	r3, r3, r2, lsl #4
 6419              	.LVL487:
 6420              		.loc 1 1836 55 view .LVU2024
 6421 004e 03F58873 		add	r3, r3, #272
 6422 0052 10F83320 		ldrb	r2, [r0, r3, lsl #3]	@ zero_extendqisi2
 6423              	.LVL488:
 6424              		.loc 1 1836 23 view .LVU2025
 6425 0056 5FFA8CF3 		uxtb	r3, ip
 6426 005a 62F38713 		bfi	r3, r2, #6, #2
 6427 005e 0B73     		strb	r3, [r1, #12]
1837:Core/Src/MazeLib.c **** }
 6428              		.loc 1 1837 1 view .LVU2026
 6429 0060 10BD     		pop	{r4, pc}
 6430              		.cfi_endproc
 6431              	.LFE40:
 6433              		.section	.text.getNextWallVirtual,"ax",%progbits
 6434              		.align	1
 6435              		.global	getNextWallVirtual
 6436              		.syntax unified
 6437              		.thumb
 6438              		.thumb_func
 6439              		.fpu fpv4-sp-d16
 6441              	getNextWallVirtual:
 6442              	.LVL489:
 6443              	.LFB41:
1838:Core/Src/MazeLib.c **** void getNextWallVirtual(maze_node *maze, profile *mouse, uint8_t next_x, uint8_t next_y)
1839:Core/Src/MazeLib.c **** {
 6444              		.loc 1 1839 1 is_stmt 1 view -0
 6445              		.cfi_startproc
 6446              		@ args = 0, pretend = 0, frame = 0
 6447              		@ frame_needed = 0, uses_anonymous_args = 0
 6448              		.loc 1 1839 1 is_stmt 0 view .LVU2028
 6449 0000 10B5     		push	{r4, lr}
 6450              	.LCFI41:
 6451              		.cfi_def_cfa_offset 8
ARM GAS  /var/folders/v_/kwz_t0cs68g1q1d733r227b80000gn/T//cc7enlx9.s 			page 175


 6452              		.cfi_offset 4, -8
 6453              		.cfi_offset 14, -4
1840:Core/Src/MazeLib.c **** 	mouse->next.wall.north = maze->RawNode[next_x][next_y+1].existence;//åŒ—
 6454              		.loc 1 1840 2 is_stmt 1 view .LVU2029
 6455              		.loc 1 1840 55 is_stmt 0 view .LVU2030
 6456 0002 03F1010C 		add	ip, r3, #1
 6457              		.loc 1 1840 58 view .LVU2031
 6458 0006 02EB021E 		add	lr, r2, r2, lsl #4
 6459 000a F444     		add	ip, ip, lr
 6460 000c 10F83C40 		ldrb	r4, [r0, ip, lsl #3]	@ zero_extendqisi2
 6461              		.loc 1 1840 25 view .LVU2032
 6462 0010 91F818C0 		ldrb	ip, [r1, #24]	@ zero_extendqisi2
 6463 0014 64F3010C 		bfi	ip, r4, #0, #2
 6464 0018 81F818C0 		strb	ip, [r1, #24]
1841:Core/Src/MazeLib.c **** 	mouse->next.wall.east = maze->ColumnNode[next_x+1][next_y].existence;//æ±
 6465              		.loc 1 1841 2 is_stmt 1 view .LVU2033
 6466              		.loc 1 1841 49 is_stmt 0 view .LVU2034
 6467 001c 02F1010C 		add	ip, r2, #1
 6468              		.loc 1 1841 60 view .LVU2035
 6469 0020 03EB0C1C 		add	ip, r3, ip, lsl #4
 6470 0024 0CF5887C 		add	ip, ip, #272
 6471 0028 10F83C40 		ldrb	r4, [r0, ip, lsl #3]	@ zero_extendqisi2
 6472              		.loc 1 1841 24 view .LVU2036
 6473 002c 91F818C0 		ldrb	ip, [r1, #24]	@ zero_extendqisi2
 6474 0030 64F3830C 		bfi	ip, r4, #2, #2
 6475 0034 81F818C0 		strb	ip, [r1, #24]
1842:Core/Src/MazeLib.c **** 	mouse->next.wall.south = maze->RawNode[next_x][next_y].existence;//å—
 6476              		.loc 1 1842 2 is_stmt 1 view .LVU2037
 6477              		.loc 1 1842 56 is_stmt 0 view .LVU2038
 6478 0038 9E44     		add	lr, lr, r3
 6479 003a 10F83EE0 		ldrb	lr, [r0, lr, lsl #3]	@ zero_extendqisi2
 6480              		.loc 1 1842 25 view .LVU2039
 6481 003e 5FFA8CFC 		uxtb	ip, ip
 6482 0042 6EF3051C 		bfi	ip, lr, #4, #2
 6483 0046 81F818C0 		strb	ip, [r1, #24]
1843:Core/Src/MazeLib.c **** 	mouse->next.wall.west = maze->ColumnNode[next_x][next_y].existence;//è¥¿
 6484              		.loc 1 1843 2 is_stmt 1 view .LVU2040
 6485              		.loc 1 1843 58 is_stmt 0 view .LVU2041
 6486 004a 03EB0213 		add	r3, r3, r2, lsl #4
 6487              	.LVL490:
 6488              		.loc 1 1843 58 view .LVU2042
 6489 004e 03F58873 		add	r3, r3, #272
 6490 0052 10F83320 		ldrb	r2, [r0, r3, lsl #3]	@ zero_extendqisi2
 6491              	.LVL491:
 6492              		.loc 1 1843 24 view .LVU2043
 6493 0056 5FFA8CF3 		uxtb	r3, ip
 6494 005a 62F38713 		bfi	r3, r2, #6, #2
 6495 005e 0B76     		strb	r3, [r1, #24]
1844:Core/Src/MazeLib.c **** }
 6496              		.loc 1 1844 1 view .LVU2044
 6497 0060 10BD     		pop	{r4, pc}
 6498              		.cfi_endproc
 6499              	.LFE41:
 6501              		.section	.text.initSearchData,"ax",%progbits
 6502              		.align	1
 6503              		.global	initSearchData
 6504              		.syntax unified
ARM GAS  /var/folders/v_/kwz_t0cs68g1q1d733r227b80000gn/T//cc7enlx9.s 			page 176


 6505              		.thumb
 6506              		.thumb_func
 6507              		.fpu fpv4-sp-d16
 6509              	initSearchData:
 6510              	.LVL492:
 6511              	.LFB42:
1845:Core/Src/MazeLib.c **** 
1846:Core/Src/MazeLib.c **** 
1847:Core/Src/MazeLib.c **** int Num_Nodes = 0;
1848:Core/Src/MazeLib.c **** void initSearchData(maze_node *my_maze, profile *Mouse)
1849:Core/Src/MazeLib.c **** {
 6512              		.loc 1 1849 1 is_stmt 1 view -0
 6513              		.cfi_startproc
 6514              		@ args = 0, pretend = 0, frame = 0
 6515              		@ frame_needed = 0, uses_anonymous_args = 0
 6516              		.loc 1 1849 1 is_stmt 0 view .LVU2046
 6517 0000 30B5     		push	{r4, r5, lr}
 6518              	.LCFI42:
 6519              		.cfi_def_cfa_offset 12
 6520              		.cfi_offset 4, -12
 6521              		.cfi_offset 5, -8
 6522              		.cfi_offset 14, -4
 6523 0002 83B0     		sub	sp, sp, #12
 6524              	.LCFI43:
 6525              		.cfi_def_cfa_offset 24
 6526 0004 0446     		mov	r4, r0
 6527 0006 0D46     		mov	r5, r1
1850:Core/Src/MazeLib.c ****     initMaze(my_maze);
 6528              		.loc 1 1850 5 is_stmt 1 view .LVU2047
 6529 0008 FFF7FEFF 		bl	initMaze
 6530              	.LVL493:
1851:Core/Src/MazeLib.c ****     initWeight(my_maze); //3/20ms
 6531              		.loc 1 1851 5 view .LVU2048
 6532 000c 2046     		mov	r0, r4
 6533 000e FFF7FEFF 		bl	initWeight
 6534              	.LVL494:
1852:Core/Src/MazeLib.c ****     //çŠ¶æ…‹ã®åˆæœŸåŒ–
1853:Core/Src/MazeLib.c ****     initProfile(Mouse, my_maze);
 6535              		.loc 1 1853 5 view .LVU2049
 6536 0012 2146     		mov	r1, r4
 6537 0014 2846     		mov	r0, r5
 6538 0016 FFF7FEFF 		bl	initProfile
 6539              	.LVL495:
1854:Core/Src/MazeLib.c **** 
1855:Core/Src/MazeLib.c ****     Mouse->now.node = &(my_maze->RawNode[0][0]);
 6540              		.loc 1 1855 5 view .LVU2050
 6541              		.loc 1 1855 21 is_stmt 0 view .LVU2051
 6542 001a 2C61     		str	r4, [r5, #16]
1856:Core/Src/MazeLib.c ****     Mouse->next.node = &(my_maze->RawNode[0][1]);
 6543              		.loc 1 1856 5 is_stmt 1 view .LVU2052
 6544              		.loc 1 1856 24 is_stmt 0 view .LVU2053
 6545 001c 04F10803 		add	r3, r4, #8
 6546              		.loc 1 1856 22 view .LVU2054
 6547 0020 EB61     		str	r3, [r5, #28]
1857:Core/Src/MazeLib.c **** 
1858:Core/Src/MazeLib.c ****     //ã‚¹ã‚¿ãƒ¼ãƒˆåº§æ¨™ã«ã„ã‚‹çŠ¶æ…‹ã§ã€ç¾åœ¨ã®é‡ã¿ã‚’æ›´æ–°
1859:Core/Src/MazeLib.c ****      updateAllNodeWeight(my_maze, Mouse->goal_lesser.x, Mouse->goal_lesser.y, GOAL_SIZE_X, GOAL_SIZ
ARM GAS  /var/folders/v_/kwz_t0cs68g1q1d733r227b80000gn/T//cc7enlx9.s 			page 177


 6548              		.loc 1 1859 6 is_stmt 1 view .LVU2055
 6549 0022 0123     		movs	r3, #1
 6550 0024 0193     		str	r3, [sp, #4]
 6551 0026 0223     		movs	r3, #2
 6552 0028 0093     		str	r3, [sp]
 6553 002a 6A78     		ldrb	r2, [r5, #1]	@ zero_extendqisi2
 6554 002c 2978     		ldrb	r1, [r5]	@ zero_extendqisi2
 6555 002e 2046     		mov	r0, r4
 6556 0030 FFF7FEFF 		bl	updateAllNodeWeight
 6557              	.LVL496:
1860:Core/Src/MazeLib.c **** //     updateAllNodeWeight(&my_map, my_mouse.goal_lesser.x, my_mouse.goal_lesser.y, GOAL_SIZE_X, GO
1861:Core/Src/MazeLib.c **** }
 6558              		.loc 1 1861 1 is_stmt 0 view .LVU2056
 6559 0034 03B0     		add	sp, sp, #12
 6560              	.LCFI44:
 6561              		.cfi_def_cfa_offset 12
 6562              		@ sp needed
 6563 0036 30BD     		pop	{r4, r5, pc}
 6564              		.loc 1 1861 1 view .LVU2057
 6565              		.cfi_endproc
 6566              	.LFE42:
 6568              		.section	.text.getPathNode,"ax",%progbits
 6569              		.align	1
 6570              		.global	getPathNode
 6571              		.syntax unified
 6572              		.thumb
 6573              		.thumb_func
 6574              		.fpu fpv4-sp-d16
 6576              	getPathNode:
 6577              	.LVL497:
 6578              	.LFB43:
1862:Core/Src/MazeLib.c **** 
1863:Core/Src/MazeLib.c **** 
1864:Core/Src/MazeLib.c **** 
1865:Core/Src/MazeLib.c **** Path FastPath[16*16]={0};
1866:Core/Src/MazeLib.c **** 
1867:Core/Src/MazeLib.c **** //æœ€çŸ­èµ°è¡Œç”¨ã®çµŒè·¯é…åˆ—ä½œæˆ
1868:Core/Src/MazeLib.c **** void getPathNode(maze_node *maze, profile *mouse)
1869:Core/Src/MazeLib.c **** {
 6579              		.loc 1 1869 1 is_stmt 1 view -0
 6580              		.cfi_startproc
 6581              		@ args = 0, pretend = 0, frame = 0
 6582              		@ frame_needed = 0, uses_anonymous_args = 0
 6583              		.loc 1 1869 1 is_stmt 0 view .LVU2059
 6584 0000 70B5     		push	{r4, r5, r6, lr}
 6585              	.LCFI45:
 6586              		.cfi_def_cfa_offset 16
 6587              		.cfi_offset 4, -16
 6588              		.cfi_offset 5, -12
 6589              		.cfi_offset 6, -8
 6590              		.cfi_offset 14, -4
 6591 0002 0646     		mov	r6, r0
 6592 0004 0C46     		mov	r4, r1
1870:Core/Src/MazeLib.c **** 
1871:Core/Src/MazeLib.c **** 	//ãƒãƒ¼ãƒ‰æƒ…å ±ã¯æ—¢ã«ã‚ã‚‹å‰æ
1872:Core/Src/MazeLib.c **** 	for(int i=0; i < 16*16; i++)
 6593              		.loc 1 1872 2 is_stmt 1 view .LVU2060
ARM GAS  /var/folders/v_/kwz_t0cs68g1q1d733r227b80000gn/T//cc7enlx9.s 			page 178


 6594              	.LBB44:
 6595              		.loc 1 1872 6 view .LVU2061
 6596              	.LVL498:
 6597              		.loc 1 1872 10 is_stmt 0 view .LVU2062
 6598 0006 0023     		movs	r3, #0
 6599              		.loc 1 1872 2 view .LVU2063
 6600 0008 05E0     		b	.L412
 6601              	.LVL499:
 6602              	.L413:
1873:Core/Src/MazeLib.c **** 		FastPath[i].path_ahead = false;
 6603              		.loc 1 1873 3 is_stmt 1 discriminator 3 view .LVU2064
 6604              		.loc 1 1873 26 is_stmt 0 discriminator 3 view .LVU2065
 6605 000a 334A     		ldr	r2, .L417
 6606 000c 02EB0312 		add	r2, r2, r3, lsl #4
 6607 0010 0021     		movs	r1, #0
 6608 0012 5173     		strb	r1, [r2, #13]
1872:Core/Src/MazeLib.c **** 		FastPath[i].path_ahead = false;
 6609              		.loc 1 1872 26 is_stmt 1 discriminator 3 view .LVU2066
1872:Core/Src/MazeLib.c **** 		FastPath[i].path_ahead = false;
 6610              		.loc 1 1872 27 is_stmt 0 discriminator 3 view .LVU2067
 6611 0014 0133     		adds	r3, r3, #1
 6612              	.LVL500:
 6613              	.L412:
1872:Core/Src/MazeLib.c **** 		FastPath[i].path_ahead = false;
 6614              		.loc 1 1872 15 is_stmt 1 discriminator 1 view .LVU2068
1872:Core/Src/MazeLib.c **** 		FastPath[i].path_ahead = false;
 6615              		.loc 1 1872 2 is_stmt 0 discriminator 1 view .LVU2069
 6616 0016 FF2B     		cmp	r3, #255
 6617 0018 F7DD     		ble	.L413
 6618              	.LBE44:
1874:Core/Src/MazeLib.c **** 
1875:Core/Src/MazeLib.c **** 	static int path_num=0;
 6619              		.loc 1 1875 2 is_stmt 1 view .LVU2070
1876:Core/Src/MazeLib.c **** 	//æœ€åˆã®æ¬¡ãƒãƒ¼ãƒ‰ã¯æ—¢ã«å…¥ã£ã¦ã„ã‚‹ã®ã§æ ¼ç´
1877:Core/Src/MazeLib.c **** 	getNowWallVirtual(maze, mouse, mouse->now.pos.x, mouse->now.pos.y);//0,1ã®å£ãŒã†ã¾ãæ›´æ–°ã
 6620              		.loc 1 1877 2 view .LVU2071
 6621 001a 637A     		ldrb	r3, [r4, #9]	@ zero_extendqisi2
 6622              	.LVL501:
 6623              		.loc 1 1877 2 is_stmt 0 view .LVU2072
 6624 001c 227A     		ldrb	r2, [r4, #8]	@ zero_extendqisi2
 6625 001e 2146     		mov	r1, r4
 6626 0020 3046     		mov	r0, r6
 6627              	.LVL502:
 6628              		.loc 1 1877 2 view .LVU2073
 6629 0022 FFF7FEFF 		bl	getNowWallVirtual
 6630              	.LVL503:
1878:Core/Src/MazeLib.c **** 	getNextWallVirtual(maze, mouse, mouse->next.pos.x, mouse->next.pos.y);
 6631              		.loc 1 1878 2 is_stmt 1 view .LVU2074
 6632 0026 637D     		ldrb	r3, [r4, #21]	@ zero_extendqisi2
 6633 0028 227D     		ldrb	r2, [r4, #20]	@ zero_extendqisi2
 6634 002a 2146     		mov	r1, r4
 6635 002c 3046     		mov	r0, r6
 6636 002e FFF7FEFF 		bl	getNextWallVirtual
 6637              	.LVL504:
1879:Core/Src/MazeLib.c **** 	FastPath[path_num].path_state = mouse->now;
 6638              		.loc 1 1879 2 view .LVU2075
 6639              		.loc 1 1879 20 is_stmt 0 view .LVU2076
ARM GAS  /var/folders/v_/kwz_t0cs68g1q1d733r227b80000gn/T//cc7enlx9.s 			page 179


 6640 0032 2A4B     		ldr	r3, .L417+4
 6641 0034 1A68     		ldr	r2, [r3]
 6642              		.loc 1 1879 32 view .LVU2077
 6643 0036 284B     		ldr	r3, .L417
 6644 0038 03EB0213 		add	r3, r3, r2, lsl #4
 6645 003c 04F10802 		add	r2, r4, #8
 6646 0040 07CA     		ldm	r2, {r0, r1, r2}
 6647 0042 83E80700 		stm	r3, {r0, r1, r2}
1880:Core/Src/MazeLib.c **** 	FastPath[path_num].path_ahead = true;
 6648              		.loc 1 1880 2 is_stmt 1 view .LVU2078
 6649              		.loc 1 1880 32 is_stmt 0 view .LVU2079
 6650 0046 0122     		movs	r2, #1
 6651 0048 5A73     		strb	r2, [r3, #13]
1881:Core/Src/MazeLib.c **** //		printState(&(my_mouse.now));
1882:Core/Src/MazeLib.c **** 	shiftState(mouse);
 6652              		.loc 1 1882 2 is_stmt 1 view .LVU2080
 6653 004a 2046     		mov	r0, r4
 6654 004c FFF7FEFF 		bl	shiftState
 6655              	.LVL505:
1883:Core/Src/MazeLib.c **** //		printState(&(my_mouse.next));
1884:Core/Src/MazeLib.c **** 	//ä¸€åº¦ãƒ‡ãƒ¼ã‚¿ä¸Šã§æœ€çŸ­èµ°è¡Œã™ã‚‹
1885:Core/Src/MazeLib.c **** 	//ã‚´ãƒ¼ãƒ«ãªã‚‰æ¸›é€Ÿ.ã€€ãªã®ã§whileæ–‡
1886:Core/Src/MazeLib.c **** 	while(! ((mouse->goal_lesser.x <= mouse->now.pos.x && mouse->now.pos.x <= mouse->goal_larger.x) &&
 6656              		.loc 1 1886 2 view .LVU2081
 6657              		.loc 1 1886 7 is_stmt 0 view .LVU2082
 6658 0050 25E0     		b	.L414
 6659              	.L415:
1887:Core/Src/MazeLib.c **** 	{
1888:Core/Src/MazeLib.c **** 		//0,1ã€‚å‰æ–¹ã€‚
1889:Core/Src/MazeLib.c **** //		getNowWallVirtual(my_mouse.now.pos.x, my_mouse.now.pos.y);
1890:Core/Src/MazeLib.c **** 		mouse->next.node = getNextNode(maze, mouse->now.car, mouse->now.node, 0x03);
 6660              		.loc 1 1890 3 is_stmt 1 view .LVU2083
 6661              		.loc 1 1890 22 is_stmt 0 view .LVU2084
 6662 0052 0323     		movs	r3, #3
 6663 0054 2269     		ldr	r2, [r4, #16]
 6664 0056 A17A     		ldrb	r1, [r4, #10]	@ zero_extendqisi2
 6665 0058 3046     		mov	r0, r6
 6666 005a FFF7FEFF 		bl	getNextNode
 6667              	.LVL506:
 6668 005e 0246     		mov	r2, r0
 6669              		.loc 1 1890 20 view .LVU2085
 6670 0060 E061     		str	r0, [r4, #28]
1891:Core/Src/MazeLib.c **** 		getNextState(&(mouse->now),&(mouse->next), mouse->next.node);
 6671              		.loc 1 1891 3 is_stmt 1 view .LVU2086
 6672 0062 04F10805 		add	r5, r4, #8
 6673 0066 04F11401 		add	r1, r4, #20
 6674 006a 2846     		mov	r0, r5
 6675 006c FFF7FEFF 		bl	getNextState
 6676              	.LVL507:
1892:Core/Src/MazeLib.c **** 		getNextWallVirtual(maze, mouse, mouse->next.pos.x, mouse->next.pos.y);
 6677              		.loc 1 1892 3 view .LVU2087
 6678 0070 637D     		ldrb	r3, [r4, #21]	@ zero_extendqisi2
 6679 0072 227D     		ldrb	r2, [r4, #20]	@ zero_extendqisi2
 6680 0074 2146     		mov	r1, r4
 6681 0076 3046     		mov	r0, r6
 6682 0078 FFF7FEFF 		bl	getNextWallVirtual
 6683              	.LVL508:
ARM GAS  /var/folders/v_/kwz_t0cs68g1q1d733r227b80000gn/T//cc7enlx9.s 			page 180


1893:Core/Src/MazeLib.c **** //			printf("now\r\n");
1894:Core/Src/MazeLib.c **** //			printState(&(my_mouse.now));
1895:Core/Src/MazeLib.c **** 		path_num ++;
 6684              		.loc 1 1895 3 view .LVU2088
 6685              		.loc 1 1895 12 is_stmt 0 view .LVU2089
 6686 007c 1749     		ldr	r1, .L417+4
 6687 007e 0B68     		ldr	r3, [r1]
 6688 0080 5A1C     		adds	r2, r3, #1
 6689 0082 0A60     		str	r2, [r1]
1896:Core/Src/MazeLib.c **** 		//æ¬¡ã®æ–¹å‘ã¯ã“ã®æ™‚ç‚¹ã§å…¥ã‚Œã‚‹.nextstateãŒã‚ã‹ã£ãŸæ™‚ç‚¹ã§å…¥ã‚ŒãŸã„
1897:Core/Src/MazeLib.c **** 		FastPath[path_num].path_state = mouse->now; //next.dir
 6690              		.loc 1 1897 3 is_stmt 1 view .LVU2090
 6691              		.loc 1 1897 33 is_stmt 0 view .LVU2091
 6692 0084 144B     		ldr	r3, .L417
 6693 0086 03EB0213 		add	r3, r3, r2, lsl #4
 6694 008a 95E80700 		ldm	r5, {r0, r1, r2}
 6695 008e 83E80700 		stm	r3, {r0, r1, r2}
1898:Core/Src/MazeLib.c **** 		shiftState(mouse);
 6696              		.loc 1 1898 3 is_stmt 1 view .LVU2092
 6697 0092 2046     		mov	r0, r4
 6698 0094 FFF7FEFF 		bl	shiftState
 6699              	.LVL509:
1899:Core/Src/MazeLib.c **** //			printf("next\r\n");
1900:Core/Src/MazeLib.c **** //			printState(&(my_mouse.next));
1901:Core/Src/MazeLib.c **** 
1902:Core/Src/MazeLib.c **** 			printf("\r\n");
 6700              		.loc 1 1902 4 view .LVU2093
 6701 0098 1148     		ldr	r0, .L417+8
 6702 009a FFF7FEFF 		bl	puts
 6703              	.LVL510:
 6704              	.L414:
1886:Core/Src/MazeLib.c **** 	{
 6705              		.loc 1 1886 7 view .LVU2094
1886:Core/Src/MazeLib.c **** 	{
 6706              		.loc 1 1886 30 is_stmt 0 view .LVU2095
 6707 009e 2278     		ldrb	r2, [r4]	@ zero_extendqisi2
1886:Core/Src/MazeLib.c **** 	{
 6708              		.loc 1 1886 50 view .LVU2096
 6709 00a0 237A     		ldrb	r3, [r4, #8]	@ zero_extendqisi2
1886:Core/Src/MazeLib.c **** 	{
 6710              		.loc 1 1886 7 view .LVU2097
 6711 00a2 9A42     		cmp	r2, r3
 6712 00a4 D5D8     		bhi	.L415
1886:Core/Src/MazeLib.c **** 	{
 6713              		.loc 1 1886 94 discriminator 1 view .LVU2098
 6714 00a6 A278     		ldrb	r2, [r4, #2]	@ zero_extendqisi2
1886:Core/Src/MazeLib.c **** 	{
 6715              		.loc 1 1886 53 discriminator 1 view .LVU2099
 6716 00a8 9342     		cmp	r3, r2
 6717 00aa D2D8     		bhi	.L415
1886:Core/Src/MazeLib.c **** 	{
 6718              		.loc 1 1886 120 discriminator 2 view .LVU2100
 6719 00ac 6278     		ldrb	r2, [r4, #1]	@ zero_extendqisi2
1886:Core/Src/MazeLib.c **** 	{
 6720              		.loc 1 1886 140 discriminator 2 view .LVU2101
 6721 00ae 637A     		ldrb	r3, [r4, #9]	@ zero_extendqisi2
1886:Core/Src/MazeLib.c **** 	{
ARM GAS  /var/folders/v_/kwz_t0cs68g1q1d733r227b80000gn/T//cc7enlx9.s 			page 181


 6722              		.loc 1 1886 8 discriminator 2 view .LVU2102
 6723 00b0 9A42     		cmp	r2, r3
 6724 00b2 CED8     		bhi	.L415
1886:Core/Src/MazeLib.c **** 	{
 6725              		.loc 1 1886 184 discriminator 3 view .LVU2103
 6726 00b4 E278     		ldrb	r2, [r4, #3]	@ zero_extendqisi2
1886:Core/Src/MazeLib.c **** 	{
 6727              		.loc 1 1886 143 discriminator 3 view .LVU2104
 6728 00b6 9342     		cmp	r3, r2
 6729 00b8 CBD8     		bhi	.L415
1903:Core/Src/MazeLib.c **** 	}
1904:Core/Src/MazeLib.c **** 	path_num ++;
 6730              		.loc 1 1904 2 is_stmt 1 view .LVU2105
 6731              		.loc 1 1904 11 is_stmt 0 view .LVU2106
 6732 00ba 084A     		ldr	r2, .L417+4
 6733 00bc 1368     		ldr	r3, [r2]
 6734 00be 0133     		adds	r3, r3, #1
 6735 00c0 1360     		str	r3, [r2]
1905:Core/Src/MazeLib.c **** 	FastPath[path_num].path_state = mouse->next;
 6736              		.loc 1 1905 2 is_stmt 1 view .LVU2107
 6737              		.loc 1 1905 32 is_stmt 0 view .LVU2108
 6738 00c2 054D     		ldr	r5, .L417
 6739 00c4 05EB0315 		add	r5, r5, r3, lsl #4
 6740 00c8 1434     		adds	r4, r4, #20
 6741              	.LVL511:
 6742              		.loc 1 1905 32 view .LVU2109
 6743 00ca 94E80700 		ldm	r4, {r0, r1, r2}
 6744 00ce 85E80700 		stm	r5, {r0, r1, r2}
1906:Core/Src/MazeLib.c **** 	Num_Nodes = path_num;
 6745              		.loc 1 1906 2 is_stmt 1 view .LVU2110
 6746              		.loc 1 1906 12 is_stmt 0 view .LVU2111
 6747 00d2 044A     		ldr	r2, .L417+12
 6748 00d4 1360     		str	r3, [r2]
1907:Core/Src/MazeLib.c **** 	//print
1908:Core/Src/MazeLib.c **** //		for(int i=0; i <= path_num; i++)
1909:Core/Src/MazeLib.c **** //		{
1910:Core/Src/MazeLib.c **** //			printState(&(FastPath[i].path_state));
1911:Core/Src/MazeLib.c **** //		}
1912:Core/Src/MazeLib.c **** //		printf("\r\n");
1913:Core/Src/MazeLib.c **** 
1914:Core/Src/MazeLib.c **** }
 6749              		.loc 1 1914 1 view .LVU2112
 6750 00d6 70BD     		pop	{r4, r5, r6, pc}
 6751              	.LVL512:
 6752              	.L418:
 6753              		.loc 1 1914 1 view .LVU2113
 6754              		.align	2
 6755              	.L417:
 6756 00d8 00000000 		.word	FastPath
 6757 00dc 00000000 		.word	.LANCHOR2
 6758 00e0 3C000000 		.word	.LC6
 6759 00e4 00000000 		.word	.LANCHOR3
 6760              		.cfi_endproc
 6761              	.LFE43:
 6763              		.section	.rodata.getPathAction.str1.4,"aMS",%progbits,1
 6764              		.align	2
 6765              	.LC37:
ARM GAS  /var/folders/v_/kwz_t0cs68g1q1d733r227b80000gn/T//cc7enlx9.s 			page 182


 6766 0000 6D697373 		.ascii	"missng action !! in getPathAction.\015\000"
 6766      6E672061 
 6766      6374696F 
 6766      6E202121 
 6766      20696E20 
 6767              		.section	.text.getPathAction,"ax",%progbits
 6768              		.align	1
 6769              		.global	getPathAction
 6770              		.syntax unified
 6771              		.thumb
 6772              		.thumb_func
 6773              		.fpu fpv4-sp-d16
 6775              	getPathAction:
 6776              	.LVL513:
 6777              	.LFB44:
1915:Core/Src/MazeLib.c **** 
1916:Core/Src/MazeLib.c **** void getPathAction(profile *mouse)
1917:Core/Src/MazeLib.c **** {
 6778              		.loc 1 1917 1 is_stmt 1 view -0
 6779              		.cfi_startproc
 6780              		@ args = 0, pretend = 0, frame = 0
 6781              		@ frame_needed = 0, uses_anonymous_args = 0
 6782              		.loc 1 1917 1 is_stmt 0 view .LVU2115
 6783 0000 F8B5     		push	{r3, r4, r5, r6, r7, lr}
 6784              	.LCFI46:
 6785              		.cfi_def_cfa_offset 24
 6786              		.cfi_offset 3, -24
 6787              		.cfi_offset 4, -20
 6788              		.cfi_offset 5, -16
 6789              		.cfi_offset 6, -12
 6790              		.cfi_offset 7, -8
 6791              		.cfi_offset 14, -4
 6792 0002 0546     		mov	r5, r0
1918:Core/Src/MazeLib.c **** 	//Pathã‹ã‚‰ã‚¢ã‚¯ã‚·ãƒ§ãƒ³è¨ˆç”»ã‚’ç«‹ã¦ã‚‹
1919:Core/Src/MazeLib.c **** 	int count = 0;
 6793              		.loc 1 1919 2 is_stmt 1 view .LVU2116
 6794              	.LVL514:
1920:Core/Src/MazeLib.c **** 	if( (mouse->goal_lesser.x <= FastPath[count].path_state.node->pos.x &&  FastPath[count].path_state
 6795              		.loc 1 1920 2 view .LVU2117
 6796              		.loc 1 1920 25 is_stmt 0 view .LVU2118
 6797 0004 0178     		ldrb	r1, [r0]	@ zero_extendqisi2
 6798              		.loc 1 1920 57 view .LVU2119
 6799 0006 564B     		ldr	r3, .L452
 6800 0008 9A68     		ldr	r2, [r3, #8]
 6801              		.loc 1 1920 67 view .LVU2120
 6802 000a 9379     		ldrb	r3, [r2, #6]	@ zero_extendqisi2
 6803              		.loc 1 1920 4 view .LVU2121
 6804 000c 9942     		cmp	r1, r3
 6805 000e 09D8     		bhi	.L420
 6806              		.loc 1 1920 134 discriminator 1 view .LVU2122
 6807 0010 8178     		ldrb	r1, [r0, #2]	@ zero_extendqisi2
 6808              		.loc 1 1920 70 discriminator 1 view .LVU2123
 6809 0012 8B42     		cmp	r3, r1
 6810 0014 06D8     		bhi	.L420
 6811              		.loc 1 1920 160 discriminator 2 view .LVU2124
 6812 0016 4178     		ldrb	r1, [r0, #1]	@ zero_extendqisi2
 6813              		.loc 1 1920 202 discriminator 2 view .LVU2125
ARM GAS  /var/folders/v_/kwz_t0cs68g1q1d733r227b80000gn/T//cc7enlx9.s 			page 183


 6814 0018 D379     		ldrb	r3, [r2, #7]	@ zero_extendqisi2
 6815              		.loc 1 1920 138 discriminator 2 view .LVU2126
 6816 001a 9942     		cmp	r1, r3
 6817 001c 02D8     		bhi	.L420
 6818              		.loc 1 1920 269 discriminator 3 view .LVU2127
 6819 001e C278     		ldrb	r2, [r0, #3]	@ zero_extendqisi2
 6820              		.loc 1 1920 205 discriminator 3 view .LVU2128
 6821 0020 9342     		cmp	r3, r2
 6822 0022 7DD9     		bls	.L443
 6823              	.L420:
1921:Core/Src/MazeLib.c **** 		//ã‚´ãƒ¼ãƒ«ãƒãƒ¼ãƒ‰
1922:Core/Src/MazeLib.c **** 		//çµ‚ç«¯é€Ÿåº¦ã®å¤‰æ•° 0
1923:Core/Src/MazeLib.c **** 		//å‹•ã„ã¦ã„ãªã‘ã‚Œã°å‹•ã‹ãªã„
1924:Core/Src/MazeLib.c **** 		if(count == 0){ //åˆæ‰‹ãƒãƒ¼ãƒ‰ãªã‚‰ã€åŠ æ¸›é€Ÿä¸€å›ã§çµ‚ã‚ã‚Š
1925:Core/Src/MazeLib.c **** 		}
1926:Core/Src/MazeLib.c **** 		else if(count == 1){ //ä¸€æ­©ç›®ãŒã‚´ãƒ¼ãƒ«ãªã‚‰ï¼ˆã‚ã‚Šãˆãªã„ï¼‰
1927:Core/Src/MazeLib.c **** 			FastPath[0].path_action = ACC_DEC;//åŠ æ¸›é€Ÿä¸€å›ã§çµ‚ã‚ã‚Š
1928:Core/Src/MazeLib.c **** 			//61.5+45mm
1929:Core/Src/MazeLib.c **** 		}
1930:Core/Src/MazeLib.c **** 	}
1931:Core/Src/MazeLib.c **** 	else {
1932:Core/Src/MazeLib.c **** 		if(FastPath[2].path_state.node->rc == 1){
 6824              		.loc 1 1932 3 is_stmt 1 view .LVU2129
 6825              		.loc 1 1932 28 is_stmt 0 view .LVU2130
 6826 0024 4E4B     		ldr	r3, .L452
 6827 0026 9B6A     		ldr	r3, [r3, #40]
 6828              		.loc 1 1932 33 view .LVU2131
 6829 0028 5B79     		ldrb	r3, [r3, #5]	@ zero_extendqisi2
 6830              		.loc 1 1932 5 view .LVU2132
 6831 002a 33B1     		cbz	r3, .L422
1933:Core/Src/MazeLib.c **** 			FastPath[0].path_action = START;	 //åˆæ‰‹ã‚¿ãƒ¼ãƒ³ç”¨ã®åŠ é€Ÿ
 6832              		.loc 1 1933 4 is_stmt 1 view .LVU2133
 6833              		.loc 1 1933 28 is_stmt 0 view .LVU2134
 6834 002c 4C4B     		ldr	r3, .L452
 6835 002e 0022     		movs	r2, #0
 6836 0030 1A73     		strb	r2, [r3, #12]
1934:Core/Src/MazeLib.c **** 			FastPath[1].path_action = R_90_SEARCH;
 6837              		.loc 1 1934 4 is_stmt 1 view .LVU2135
 6838              		.loc 1 1934 28 is_stmt 0 view .LVU2136
 6839 0032 0322     		movs	r2, #3
 6840 0034 1A77     		strb	r2, [r3, #28]
 6841              	.L423:
1917:Core/Src/MazeLib.c **** 	//Pathã‹ã‚‰ã‚¢ã‚¯ã‚·ãƒ§ãƒ³è¨ˆç”»ã‚’ç«‹ã¦ã‚‹
 6842              		.loc 1 1917 1 view .LVU2137
 6843 0036 0222     		movs	r2, #2
 6844 0038 0AE0     		b	.L437
 6845              	.L422:
1935:Core/Src/MazeLib.c **** 		}
1936:Core/Src/MazeLib.c **** 		else{
1937:Core/Src/MazeLib.c **** 			//2ãƒã‚¹ä»¥ä¸Šç›´é€²
1938:Core/Src/MazeLib.c **** 			FastPath[0].path_action = ACC_DEC;
 6846              		.loc 1 1938 4 is_stmt 1 view .LVU2138
 6847              		.loc 1 1938 28 is_stmt 0 view .LVU2139
 6848 003a 494B     		ldr	r3, .L452
 6849 003c 0122     		movs	r2, #1
 6850 003e 1A73     		strb	r2, [r3, #12]
1939:Core/Src/MazeLib.c **** 			FastPath[1].path_action = ACC_DEC;
ARM GAS  /var/folders/v_/kwz_t0cs68g1q1d733r227b80000gn/T//cc7enlx9.s 			page 184


 6851              		.loc 1 1939 4 is_stmt 1 view .LVU2140
 6852              		.loc 1 1939 28 is_stmt 0 view .LVU2141
 6853 0040 1A77     		strb	r2, [r3, #28]
 6854 0042 F8E7     		b	.L423
 6855              	.LVL515:
 6856              	.L445:
1940:Core/Src/MazeLib.c **** 		}
1941:Core/Src/MazeLib.c **** 		count = 2; //==2
1942:Core/Src/MazeLib.c **** 		//ä»¥é™ã¯ã‚´ãƒ¼ãƒ«ã¾ã§åŒã˜æµã‚Œã§æ±ºå®š
1943:Core/Src/MazeLib.c **** 		while( !((mouse->goal_lesser.x <= FastPath[count].path_state.pos.x &&  FastPath[count].path_state
1944:Core/Src/MazeLib.c **** 		{
1945:Core/Src/MazeLib.c **** 				//ä»Šè¦‹ã¦ã„ã‚‹ãƒãƒ¼ãƒ‰ãŒã‚´ãƒ¼ãƒ«ãƒãƒ¼ãƒ‰ã§ãªã„. ã‚´ãƒ¼ãƒ«ãŒ3ãƒãƒ¼ãƒ‰ç›®ä»¥ä¸Šã§ã‚
1946:Core/Src/MazeLib.c **** 				//ãƒ‘ã‚¹ã®2å€‹å…ˆã®ãƒãƒ¼ãƒ‰ã‚’è¦‹ã‚‹
1947:Core/Src/MazeLib.c **** 				//ãƒãƒ¼ãƒ‰æƒ…å ±ã®å¤‰å‹•ã«åˆã‚ã›ã¦ã‚¢ã‚¯ã‚·ãƒ§ãƒ³ã‚’å‰²ã‚ŠæŒ¯ã‚‹
1948:Core/Src/MazeLib.c **** 				//åˆæ‰‹ã ã‘æ³¨æ„
1949:Core/Src/MazeLib.c **** 				//ç›´é€²ãŒç¶šãã‹ã€æ—‹å›ã«åˆ‡ã‚Šæ›¿ãˆã‚‹ã‹
1950:Core/Src/MazeLib.c **** 					//count+1ã®æƒ…å ±ã¨æ¯”è¼ƒã—ã¦countã§ã®ã‚¢ã‚¯ã‚·ãƒ§ãƒ³ã‚’æ±ºå®š
1951:Core/Src/MazeLib.c **** 					///è¡Œè¡Œã€åˆ—åˆ—ãªã‚‰ç›´é€²åŠ æ¸›é€Ÿ
1952:Core/Src/MazeLib.c **** 					//2ã‹ã‚‰è¦‹ã‚‹
1953:Core/Src/MazeLib.c **** 						if(FastPath[count].path_state.node->rc == FastPath[count+1].path_state.node->rc){
1954:Core/Src/MazeLib.c **** 							FastPath[count].path_action = ACC_DEC;
 6857              		.loc 1 1954 8 is_stmt 1 view .LVU2142
 6858              		.loc 1 1954 36 is_stmt 0 view .LVU2143
 6859 0044 464B     		ldr	r3, .L452
 6860 0046 03EB0212 		add	r2, r3, r2, lsl #4
 6861              	.LVL516:
 6862              		.loc 1 1954 36 view .LVU2144
 6863 004a 0123     		movs	r3, #1
 6864 004c 1373     		strb	r3, [r2, #12]
 6865              	.L425:
1917:Core/Src/MazeLib.c **** 	//Pathã‹ã‚‰ã‚¢ã‚¯ã‚·ãƒ§ãƒ³è¨ˆç”»ã‚’ç«‹ã¦ã‚‹
 6866              		.loc 1 1917 1 view .LVU2145
 6867 004e 7246     		mov	r2, lr
 6868              	.LVL517:
 6869              	.L437:
1943:Core/Src/MazeLib.c **** 		{
 6870              		.loc 1 1943 8 is_stmt 1 view .LVU2146
1943:Core/Src/MazeLib.c **** 		{
 6871              		.loc 1 1943 31 is_stmt 0 view .LVU2147
 6872 0050 2978     		ldrb	r1, [r5]	@ zero_extendqisi2
1943:Core/Src/MazeLib.c **** 		{
 6873              		.loc 1 1943 67 view .LVU2148
 6874 0052 1301     		lsls	r3, r2, #4
 6875 0054 4248     		ldr	r0, .L452
 6876 0056 C35C     		ldrb	r3, [r0, r3]	@ zero_extendqisi2
1943:Core/Src/MazeLib.c **** 		{
 6877              		.loc 1 1943 8 view .LVU2149
 6878 0058 9942     		cmp	r1, r3
 6879 005a 0BD8     		bhi	.L438
1943:Core/Src/MazeLib.c **** 		{
 6880              		.loc 1 1943 128 discriminator 1 view .LVU2150
 6881 005c A978     		ldrb	r1, [r5, #2]	@ zero_extendqisi2
1943:Core/Src/MazeLib.c **** 		{
 6882              		.loc 1 1943 70 discriminator 1 view .LVU2151
 6883 005e 8B42     		cmp	r3, r1
 6884 0060 08D8     		bhi	.L438
1943:Core/Src/MazeLib.c **** 		{
ARM GAS  /var/folders/v_/kwz_t0cs68g1q1d733r227b80000gn/T//cc7enlx9.s 			page 185


 6885              		.loc 1 1943 154 discriminator 2 view .LVU2152
 6886 0062 6978     		ldrb	r1, [r5, #1]	@ zero_extendqisi2
1943:Core/Src/MazeLib.c **** 		{
 6887              		.loc 1 1943 190 discriminator 2 view .LVU2153
 6888 0064 00EB0213 		add	r3, r0, r2, lsl #4
 6889 0068 5B78     		ldrb	r3, [r3, #1]	@ zero_extendqisi2
1943:Core/Src/MazeLib.c **** 		{
 6890              		.loc 1 1943 10 discriminator 2 view .LVU2154
 6891 006a 9942     		cmp	r1, r3
 6892 006c 02D8     		bhi	.L438
1943:Core/Src/MazeLib.c **** 		{
 6893              		.loc 1 1943 251 discriminator 3 view .LVU2155
 6894 006e E978     		ldrb	r1, [r5, #3]	@ zero_extendqisi2
1943:Core/Src/MazeLib.c **** 		{
 6895              		.loc 1 1943 193 discriminator 3 view .LVU2156
 6896 0070 8B42     		cmp	r3, r1
 6897 0072 56D9     		bls	.L421
 6898              	.L438:
1953:Core/Src/MazeLib.c **** 							FastPath[count].path_action = ACC_DEC;
 6899              		.loc 1 1953 7 is_stmt 1 view .LVU2157
1953:Core/Src/MazeLib.c **** 							FastPath[count].path_action = ACC_DEC;
 6900              		.loc 1 1953 36 is_stmt 0 view .LVU2158
 6901 0074 3A4B     		ldr	r3, .L452
 6902 0076 03EB0211 		add	r1, r3, r2, lsl #4
 6903 007a 8868     		ldr	r0, [r1, #8]
1953:Core/Src/MazeLib.c **** 							FastPath[count].path_action = ACC_DEC;
 6904              		.loc 1 1953 41 view .LVU2159
 6905 007c 4479     		ldrb	r4, [r0, #5]	@ zero_extendqisi2
1953:Core/Src/MazeLib.c **** 							FastPath[count].path_action = ACC_DEC;
 6906              		.loc 1 1953 63 view .LVU2160
 6907 007e 02F1010E 		add	lr, r2, #1
1953:Core/Src/MazeLib.c **** 							FastPath[count].path_action = ACC_DEC;
 6908              		.loc 1 1953 77 view .LVU2161
 6909 0082 03EB0E13 		add	r3, r3, lr, lsl #4
 6910 0086 9968     		ldr	r1, [r3, #8]
1953:Core/Src/MazeLib.c **** 							FastPath[count].path_action = ACC_DEC;
 6911              		.loc 1 1953 82 view .LVU2162
 6912 0088 4B79     		ldrb	r3, [r1, #5]	@ zero_extendqisi2
1953:Core/Src/MazeLib.c **** 							FastPath[count].path_action = ACC_DEC;
 6913              		.loc 1 1953 9 view .LVU2163
 6914 008a 9C42     		cmp	r4, r3
 6915 008c DAD0     		beq	.L445
 6916              	.LBB45:
1955:Core/Src/MazeLib.c **** 						}
1956:Core/Src/MazeLib.c **** 						else{
1957:Core/Src/MazeLib.c **** 							uint8_t now_x = FastPath[count].path_state.node->pos.x, now_y = FastPath[count].path_state.n
 6917              		.loc 1 1957 8 is_stmt 1 view .LVU2164
 6918              		.loc 1 1957 16 is_stmt 0 view .LVU2165
 6919 008e 8379     		ldrb	r3, [r0, #6]	@ zero_extendqisi2
 6920              	.LVL518:
 6921              		.loc 1 1957 64 view .LVU2166
 6922 0090 C079     		ldrb	r0, [r0, #7]	@ zero_extendqisi2
 6923              	.LVL519:
1958:Core/Src/MazeLib.c **** 							uint8_t next_x = FastPath[count+1].path_state.node->pos.x, next_y = FastPath[count+1].path_s
 6924              		.loc 1 1958 8 is_stmt 1 view .LVU2167
 6925              		.loc 1 1958 16 is_stmt 0 view .LVU2168
 6926 0092 91F806C0 		ldrb	ip, [r1, #6]	@ zero_extendqisi2
ARM GAS  /var/folders/v_/kwz_t0cs68g1q1d733r227b80000gn/T//cc7enlx9.s 			page 186


 6927              	.LVL520:
 6928              		.loc 1 1958 67 view .LVU2169
 6929 0096 C979     		ldrb	r1, [r1, #7]	@ zero_extendqisi2
 6930              	.LVL521:
1959:Core/Src/MazeLib.c **** 							//ã‚¿ãƒ¼ãƒ³. å‚¾ãã§é¸ã¶. ãƒã‚¯ãƒ­
1960:Core/Src/MazeLib.c **** 							//è¡Œã‹ã‚‰åˆ—.å·¦å³ã®ã©ã¡ã‚‰ã‹åˆ¤æ–­.ã‚ã¨ã§å¾Œã‚ã‚‚å€™è£œã«ã‚ã’ã‚‹
1961:Core/Src/MazeLib.c **** 							if(FastPath[count].path_state.node->rc == 0)
 6931              		.loc 1 1961 8 is_stmt 1 view .LVU2170
 6932              		.loc 1 1961 10 is_stmt 0 view .LVU2171
 6933 0098 04BB     		cbnz	r4, .L426
1962:Core/Src/MazeLib.c **** 							{
1963:Core/Src/MazeLib.c **** 								//å³æ—‹å›
1964:Core/Src/MazeLib.c **** 								//åŒ—å‘ãã‹ã‚‰åŒ—æ±
1965:Core/Src/MazeLib.c **** 								if( __RAW_TO_COLUMN_NE__(now_x, now_y, next_x, next_y) || __RAW_TO_COLUMN_SW__(now_x, now_y
 6934              		.loc 1 1965 9 is_stmt 1 view .LVU2172
 6935              		.loc 1 1965 13 is_stmt 0 view .LVU2173
 6936 009a 5C1C     		adds	r4, r3, #1
 6937              		.loc 1 1965 11 view .LVU2174
 6938 009c 6445     		cmp	r4, ip
 6939 009e 09D0     		beq	.L446
 6940              	.L427:
 6941              		.loc 1 1965 64 discriminator 3 view .LVU2175
 6942 00a0 6345     		cmp	r3, ip
 6943 00a2 0FD0     		beq	.L447
 6944              	.L429:
1966:Core/Src/MazeLib.c **** 				                {
1967:Core/Src/MazeLib.c **** 									FastPath[count].path_action = R_90_SEARCH;
1968:Core/Src/MazeLib.c **** 				                }
1969:Core/Src/MazeLib.c **** 								//å·¦æ—‹å›
1970:Core/Src/MazeLib.c **** 								//åŒ—å‘ãã‹ã‚‰åŒ—è¥¿ or //å—å‘ãã‹ã‚‰å—æ±
1971:Core/Src/MazeLib.c **** 								if( __RAW_TO_COLUMN_NW__(now_x, now_y, next_x, next_y) || __RAW_TO_COLUMN_SE__(now_x, now_y
 6945              		.loc 1 1971 9 is_stmt 1 view .LVU2176
 6946              		.loc 1 1971 11 is_stmt 0 view .LVU2177
 6947 00a4 6345     		cmp	r3, ip
 6948 00a6 11D0     		beq	.L448
 6949              	.L430:
 6950              		.loc 1 1971 64 discriminator 3 view .LVU2178
 6951 00a8 6445     		cmp	r4, ip
 6952 00aa D0D1     		bne	.L425
 6953              		.loc 1 1971 67 discriminator 4 view .LVU2179
 6954 00ac 0138     		subs	r0, r0, #1
 6955              	.LVL522:
 6956              		.loc 1 1971 67 discriminator 4 view .LVU2180
 6957 00ae 8842     		cmp	r0, r1
 6958 00b0 CDD1     		bne	.L425
 6959 00b2 0DE0     		b	.L431
 6960              	.LVL523:
 6961              	.L446:
1965:Core/Src/MazeLib.c **** 				                {
 6962              		.loc 1 1965 13 discriminator 1 view .LVU2181
 6963 00b4 8842     		cmp	r0, r1
 6964 00b6 F3D1     		bne	.L427
 6965              	.L428:
1967:Core/Src/MazeLib.c **** 				                }
 6966              		.loc 1 1967 10 is_stmt 1 view .LVU2182
1967:Core/Src/MazeLib.c **** 				                }
 6967              		.loc 1 1967 38 is_stmt 0 view .LVU2183
ARM GAS  /var/folders/v_/kwz_t0cs68g1q1d733r227b80000gn/T//cc7enlx9.s 			page 187


 6968 00b8 294E     		ldr	r6, .L452
 6969 00ba 06EB0216 		add	r6, r6, r2, lsl #4
 6970 00be 0327     		movs	r7, #3
 6971 00c0 3773     		strb	r7, [r6, #12]
 6972 00c2 EFE7     		b	.L429
 6973              	.L447:
1965:Core/Src/MazeLib.c **** 				                {
 6974              		.loc 1 1965 67 discriminator 4 view .LVU2184
 6975 00c4 461E     		subs	r6, r0, #1
 6976 00c6 8E42     		cmp	r6, r1
 6977 00c8 ECD1     		bne	.L429
 6978 00ca F5E7     		b	.L428
 6979              	.L448:
 6980              		.loc 1 1971 13 discriminator 1 view .LVU2185
 6981 00cc 8842     		cmp	r0, r1
 6982 00ce EBD1     		bne	.L430
 6983              	.LVL524:
 6984              	.L431:
1972:Core/Src/MazeLib.c **** 				                {
1973:Core/Src/MazeLib.c **** 									FastPath[count].path_action = L_90_SEARCH;
 6985              		.loc 1 1973 10 is_stmt 1 view .LVU2186
 6986              		.loc 1 1973 38 is_stmt 0 view .LVU2187
 6987 00d0 234B     		ldr	r3, .L452
 6988              	.LVL525:
 6989              		.loc 1 1973 38 view .LVU2188
 6990 00d2 03EB0212 		add	r2, r3, r2, lsl #4
 6991              	.LVL526:
 6992              		.loc 1 1973 38 view .LVU2189
 6993 00d6 0223     		movs	r3, #2
 6994 00d8 1373     		strb	r3, [r2, #12]
 6995 00da B8E7     		b	.L425
 6996              	.LVL527:
 6997              	.L426:
1974:Core/Src/MazeLib.c **** 				                }
1975:Core/Src/MazeLib.c **** 							}
1976:Core/Src/MazeLib.c **** 							else if(FastPath[count].path_state.node->rc == 1)
 6998              		.loc 1 1976 13 is_stmt 1 view .LVU2190
1977:Core/Src/MazeLib.c **** 							{
1978:Core/Src/MazeLib.c **** 								//å³æ—‹å›
1979:Core/Src/MazeLib.c **** 								//æ±å‘ãã‹ã‚‰å—æ±
1980:Core/Src/MazeLib.c **** 								if( __COLUMN_TO_RAW_SE__(now_x, now_y, next_x, next_y) || __COLUMN_TO_RAW_NW__(now_x, now_y
 6999              		.loc 1 1980 9 view .LVU2191
 7000              		.loc 1 1980 11 is_stmt 0 view .LVU2192
 7001 00dc 6345     		cmp	r3, ip
 7002 00de 0AD0     		beq	.L449
 7003              	.L432:
 7004              		.loc 1 1980 67 discriminator 3 view .LVU2193
 7005 00e0 5C1E     		subs	r4, r3, #1
 7006              		.loc 1 1980 64 discriminator 3 view .LVU2194
 7007 00e2 6445     		cmp	r4, ip
 7008 00e4 0FD0     		beq	.L450
 7009              	.L434:
1981:Core/Src/MazeLib.c **** 				                {
1982:Core/Src/MazeLib.c **** 									FastPath[count].path_action = R_90_SEARCH;
1983:Core/Src/MazeLib.c **** 				                }
1984:Core/Src/MazeLib.c **** 								//å·¦æ—‹å›
1985:Core/Src/MazeLib.c **** 								//æ±å‘ãã‹ã‚‰åŒ—æ± or //è¥¿å‘ãã‹ã‚‰å—è¥¿
ARM GAS  /var/folders/v_/kwz_t0cs68g1q1d733r227b80000gn/T//cc7enlx9.s 			page 188


1986:Core/Src/MazeLib.c **** 								if( __COLUMN_TO_RAW_NE__(now_x, now_y, next_x, next_y) || __COLUMN_TO_RAW_SW__(now_x, now_y
 7010              		.loc 1 1986 9 is_stmt 1 view .LVU2195
 7011              		.loc 1 1986 11 is_stmt 0 view .LVU2196
 7012 00e6 6345     		cmp	r3, ip
 7013 00e8 11D0     		beq	.L451
 7014              	.L435:
 7015              		.loc 1 1986 67 discriminator 3 view .LVU2197
 7016 00ea 013B     		subs	r3, r3, #1
 7017              	.LVL528:
 7018              		.loc 1 1986 64 discriminator 3 view .LVU2198
 7019 00ec 6345     		cmp	r3, ip
 7020 00ee AED1     		bne	.L425
 7021              		.loc 1 1986 67 discriminator 4 view .LVU2199
 7022 00f0 8842     		cmp	r0, r1
 7023 00f2 ACD1     		bne	.L425
 7024 00f4 0EE0     		b	.L436
 7025              	.LVL529:
 7026              	.L449:
1980:Core/Src/MazeLib.c **** 				                {
 7027              		.loc 1 1980 13 discriminator 1 view .LVU2200
 7028 00f6 8842     		cmp	r0, r1
 7029 00f8 F2D1     		bne	.L432
 7030              	.L433:
1982:Core/Src/MazeLib.c **** 				                }
 7031              		.loc 1 1982 10 is_stmt 1 view .LVU2201
1982:Core/Src/MazeLib.c **** 				                }
 7032              		.loc 1 1982 38 is_stmt 0 view .LVU2202
 7033 00fa 194C     		ldr	r4, .L452
 7034 00fc 04EB0214 		add	r4, r4, r2, lsl #4
 7035 0100 0326     		movs	r6, #3
 7036 0102 2673     		strb	r6, [r4, #12]
 7037 0104 EFE7     		b	.L434
 7038              	.L450:
1980:Core/Src/MazeLib.c **** 				                {
 7039              		.loc 1 1980 67 discriminator 4 view .LVU2203
 7040 0106 441C     		adds	r4, r0, #1
 7041 0108 8C42     		cmp	r4, r1
 7042 010a ECD1     		bne	.L434
 7043 010c F5E7     		b	.L433
 7044              	.L451:
 7045              		.loc 1 1986 13 discriminator 1 view .LVU2204
 7046 010e 441C     		adds	r4, r0, #1
 7047 0110 8C42     		cmp	r4, r1
 7048 0112 EAD1     		bne	.L435
 7049              	.LVL530:
 7050              	.L436:
1987:Core/Src/MazeLib.c **** 								{
1988:Core/Src/MazeLib.c **** 									FastPath[count].path_action = L_90_SEARCH;
 7051              		.loc 1 1988 10 is_stmt 1 view .LVU2205
 7052              		.loc 1 1988 38 is_stmt 0 view .LVU2206
 7053 0114 124B     		ldr	r3, .L452
 7054 0116 03EB0212 		add	r2, r3, r2, lsl #4
 7055              	.LVL531:
 7056              		.loc 1 1988 38 view .LVU2207
 7057 011a 0223     		movs	r3, #2
 7058 011c 1373     		strb	r3, [r2, #12]
 7059 011e 96E7     		b	.L425
ARM GAS  /var/folders/v_/kwz_t0cs68g1q1d733r227b80000gn/T//cc7enlx9.s 			page 189


 7060              	.LVL532:
 7061              	.L443:
 7062              		.loc 1 1988 38 view .LVU2208
 7063              	.LBE45:
1919:Core/Src/MazeLib.c **** 	if( (mouse->goal_lesser.x <= FastPath[count].path_state.node->pos.x &&  FastPath[count].path_state
 7064              		.loc 1 1919 6 view .LVU2209
 7065 0120 0022     		movs	r2, #0
 7066              	.LVL533:
 7067              	.L421:
1989:Core/Src/MazeLib.c **** 								}
1990:Core/Src/MazeLib.c **** 							}
1991:Core/Src/MazeLib.c **** 						}
1992:Core/Src/MazeLib.c **** 
1993:Core/Src/MazeLib.c **** 
1994:Core/Src/MazeLib.c **** 
1995:Core/Src/MazeLib.c **** //			printf("%d, %d, %u, %u, %u, %u, %u, %u\r\n", count, FastPath[count].path_action, FastPath[coun
1996:Core/Src/MazeLib.c **** 			count ++;
1997:Core/Src/MazeLib.c **** 		}
1998:Core/Src/MazeLib.c **** 	}
1999:Core/Src/MazeLib.c **** 	//ã‚´ãƒ¼ãƒ«ãƒãƒ¼ãƒ‰
2000:Core/Src/MazeLib.c **** 	//çµ‚ç«¯é€Ÿåº¦ã®å¤‰æ•° 0
2001:Core/Src/MazeLib.c **** 	//å‰å›ãŒã‚¿ãƒ¼ãƒ³ãªã‚‰åŠ æ¸›é€Ÿã‚’é¸æŠã—ã¦ã€åŠ é€Ÿã®å‰²åˆã‚’0ã¨ã—ã¦æ¸›é€Ÿ
2002:Core/Src/MazeLib.c **** 	//å‰å›ã¾ã§ãŒç›´é€²ãªã‚‰ã€åŠ æ¸›é€Ÿã‚’é¸æŠã—ã¦ã€ã‚´ãƒ¼ãƒ«ãƒ©ã‚¤ãƒ³ã‚’é§†ã‘æŠœã‘ã‚‹å‡¦
2003:Core/Src/MazeLib.c **** 		//ä¸€ã¤å‰ã®path_actionã«ã‚ˆã£ã¦å¤‰ãˆã‚‹
2004:Core/Src/MazeLib.c **** 		switch(FastPath[count-1].path_action)
 7068              		.loc 1 2004 3 is_stmt 1 view .LVU2210
 7069              		.loc 1 2004 24 is_stmt 0 view .LVU2211
 7070 0122 531E     		subs	r3, r2, #1
 7071              		.loc 1 2004 27 view .LVU2212
 7072 0124 0E49     		ldr	r1, .L452
 7073 0126 01EB0313 		add	r3, r1, r3, lsl #4
 7074 012a 1B7B     		ldrb	r3, [r3, #12]	@ zero_extendqisi2
 7075              		.loc 1 2004 3 view .LVU2213
 7076 012c 012B     		cmp	r3, #1
 7077 012e 0CD0     		beq	.L439
 7078 0130 01D8     		bhi	.L440
 7079 0132 83B9     		cbnz	r3, .L442
 7080              	.LVL534:
 7081              	.L419:
2005:Core/Src/MazeLib.c **** 		{
2006:Core/Src/MazeLib.c **** 			case START:
2007:Core/Src/MazeLib.c **** 				//åˆæ‰‹90Â°ã‚¿ãƒ¼ãƒ³ç”¨ãªã®ã§æ¥ãªã„
2008:Core/Src/MazeLib.c **** 				break;
2009:Core/Src/MazeLib.c **** 			case L_90_SEARCH: //LRã§åŒã˜
2010:Core/Src/MazeLib.c **** 			case R_90_SEARCH:
2011:Core/Src/MazeLib.c **** 				FastPath[count].path_action = ACC_DEC; //ãŸã ã®æ¸›é€Ÿ.
2012:Core/Src/MazeLib.c **** 				//åŠ é€Ÿã®å‰²åˆã‚’0ã«ã™ã‚‹
2013:Core/Src/MazeLib.c **** 				break;
2014:Core/Src/MazeLib.c **** 			case ACC_DEC:
2015:Core/Src/MazeLib.c **** 				//å‰å›ACC_DECã¨ã„ã†ã“ã¨ã¯ãã®ã¾ã¾ç¶™ç¶šã§ã²ã¨ã¾ã¨ã‚ã«ã™ã‚‹
2016:Core/Src/MazeLib.c **** 				FastPath[count].path_action = ACC_DEC; //å‰ã®ã‚¢ã‚¯ã‚·ãƒ§ãƒ³ã¨ã²ã¨ã¾ã¨ã‚ï¼ˆcountã‚’åˆ©ç
2017:Core/Src/MazeLib.c **** 				//ã‚´ãƒ¼ãƒ«é€šéæ™‚ã«é€Ÿåº¦ã‚’é«˜ãã—ã¦ãŠããŸã„ã®ã§ã€é€šéå¾Œã«å£ãŒç„¡ã‘ã‚Œã°
2018:Core/Src/MazeLib.c **** 				break;
2019:Core/Src/MazeLib.c **** 			default :
2020:Core/Src/MazeLib.c **** 				printf("missng action !! in getPathAction.\r\n");
2021:Core/Src/MazeLib.c **** 				break;
2022:Core/Src/MazeLib.c **** 		}
ARM GAS  /var/folders/v_/kwz_t0cs68g1q1d733r227b80000gn/T//cc7enlx9.s 			page 190


2023:Core/Src/MazeLib.c **** 	//check
2024:Core/Src/MazeLib.c **** //	printf("count : %d\r\n", count);
2025:Core/Src/MazeLib.c **** //	for(int i=0; i <= count; i++)
2026:Core/Src/MazeLib.c **** //		printf("%d, %d\r\n",i, FastPath[i].path_action);
2027:Core/Src/MazeLib.c **** 
2028:Core/Src/MazeLib.c **** 	//selection limb
2029:Core/Src/MazeLib.c **** 
2030:Core/Src/MazeLib.c **** 		//accel to decel
2031:Core/Src/MazeLib.c **** 		//turn(left, right) = two pattern
2032:Core/Src/MazeLib.c **** 		//90deg slalom
2033:Core/Src/MazeLib.c **** 		//45deg slalom
2034:Core/Src/MazeLib.c **** 		//180deg slalom
2035:Core/Src/MazeLib.c **** }
 7082              		.loc 1 2035 1 view .LVU2214
 7083 0134 F8BD     		pop	{r3, r4, r5, r6, r7, pc}
 7084              	.LVL535:
 7085              	.L440:
2004:Core/Src/MazeLib.c **** 		{
 7086              		.loc 1 2004 3 view .LVU2215
 7087 0136 023B     		subs	r3, r3, #2
 7088 0138 DBB2     		uxtb	r3, r3
 7089 013a 012B     		cmp	r3, #1
 7090 013c 0BD8     		bhi	.L442
2011:Core/Src/MazeLib.c **** 				//åŠ é€Ÿã®å‰²åˆã‚’0ã«ã™ã‚‹
 7091              		.loc 1 2011 5 is_stmt 1 view .LVU2216
2011:Core/Src/MazeLib.c **** 				//åŠ é€Ÿã®å‰²åˆã‚’0ã«ã™ã‚‹
 7092              		.loc 1 2011 33 is_stmt 0 view .LVU2217
 7093 013e 084B     		ldr	r3, .L452
 7094 0140 03EB0212 		add	r2, r3, r2, lsl #4
 7095              	.LVL536:
2011:Core/Src/MazeLib.c **** 				//åŠ é€Ÿã®å‰²åˆã‚’0ã«ã™ã‚‹
 7096              		.loc 1 2011 33 view .LVU2218
 7097 0144 0123     		movs	r3, #1
 7098 0146 1373     		strb	r3, [r2, #12]
2013:Core/Src/MazeLib.c **** 			case ACC_DEC:
 7099              		.loc 1 2013 5 is_stmt 1 view .LVU2219
 7100 0148 F4E7     		b	.L419
 7101              	.LVL537:
 7102              	.L439:
2016:Core/Src/MazeLib.c **** 				//ã‚´ãƒ¼ãƒ«é€šéæ™‚ã«é€Ÿåº¦ã‚’é«˜ãã—ã¦ãŠããŸã„ã®ã§ã€é€šéå¾Œã«å£ãŒç„¡ã‘ã‚Œã°
 7103              		.loc 1 2016 5 view .LVU2220
2016:Core/Src/MazeLib.c **** 				//ã‚´ãƒ¼ãƒ«é€šéæ™‚ã«é€Ÿåº¦ã‚’é«˜ãã—ã¦ãŠããŸã„ã®ã§ã€é€šéå¾Œã«å£ãŒç„¡ã‘ã‚Œã°
 7104              		.loc 1 2016 33 is_stmt 0 view .LVU2221
 7105 014a 054B     		ldr	r3, .L452
 7106 014c 03EB0212 		add	r2, r3, r2, lsl #4
 7107              	.LVL538:
2016:Core/Src/MazeLib.c **** 				//ã‚´ãƒ¼ãƒ«é€šéæ™‚ã«é€Ÿåº¦ã‚’é«˜ãã—ã¦ãŠããŸã„ã®ã§ã€é€šéå¾Œã«å£ãŒç„¡ã‘ã‚Œã°
 7108              		.loc 1 2016 33 view .LVU2222
 7109 0150 0123     		movs	r3, #1
 7110 0152 1373     		strb	r3, [r2, #12]
2018:Core/Src/MazeLib.c **** 			default :
 7111              		.loc 1 2018 5 is_stmt 1 view .LVU2223
 7112 0154 EEE7     		b	.L419
 7113              	.LVL539:
 7114              	.L442:
2020:Core/Src/MazeLib.c **** 				break;
 7115              		.loc 1 2020 5 view .LVU2224
ARM GAS  /var/folders/v_/kwz_t0cs68g1q1d733r227b80000gn/T//cc7enlx9.s 			page 191


 7116 0156 0348     		ldr	r0, .L452+4
 7117 0158 FFF7FEFF 		bl	puts
 7118              	.LVL540:
2021:Core/Src/MazeLib.c **** 		}
 7119              		.loc 1 2021 5 view .LVU2225
 7120              		.loc 1 2035 1 is_stmt 0 view .LVU2226
 7121 015c EAE7     		b	.L419
 7122              	.L453:
 7123 015e 00BF     		.align	2
 7124              	.L452:
 7125 0160 00000000 		.word	FastPath
 7126 0164 00000000 		.word	.LC37
 7127              		.cfi_endproc
 7128              	.LFE44:
 7130              		.global	FastPath
 7131              		.global	Num_Nodes
 7132              		.global	WALL_MASK
 7133              		.section	.rodata
 7134              		.align	2
 7135              		.set	.LANCHOR0,. + 0
 7136              	.LC0:
 7137 0000 00       		.byte	0
 7138 0001 01       		.byte	1
 7139 0002 01       		.byte	1
 7140 0003 01       		.byte	1
 7141              	.LC1:
 7142 0004 02       		.byte	2
 7143 0005 02       		.byte	2
 7144 0006 00       		.byte	0
 7145 0007 01       		.byte	1
 7146              		.section	.bss.FastPath,"aw",%nobits
 7147              		.align	2
 7150              	FastPath:
 7151 0000 00000000 		.space	4096
 7151      00000000 
 7151      00000000 
 7151      00000000 
 7151      00000000 
 7152              		.section	.bss.Num_Nodes,"aw",%nobits
 7153              		.align	2
 7154              		.set	.LANCHOR3,. + 0
 7157              	Num_Nodes:
 7158 0000 00000000 		.space	4
 7159              		.section	.bss.WALL_MASK,"aw",%nobits
 7160              		.align	2
 7163              	WALL_MASK:
 7164 0000 00000000 		.space	4
 7165              		.section	.bss.path_num.0,"aw",%nobits
 7166              		.align	2
 7167              		.set	.LANCHOR2,. + 0
 7170              	path_num.0:
 7171 0000 00000000 		.space	4
 7172              		.section	.data.cnt.1,"aw"
 7173              		.align	2
 7174              		.set	.LANCHOR1,. + 0
 7177              	cnt.1:
 7178 0000 01000000 		.word	1
ARM GAS  /var/folders/v_/kwz_t0cs68g1q1d733r227b80000gn/T//cc7enlx9.s 			page 192


 7179              		.text
 7180              	.Letext0:
 7181              		.file 2 "/usr/local/Cellar/arm-none-eabi-gcc/10.3-2021.07/gcc/lib/gcc/arm-none-eabi/10.3.1/include
 7182              		.file 3 "/usr/local/Cellar/arm-none-eabi-gcc/10.3-2021.07/gcc/lib/gcc/arm-none-eabi/10.3.1/include
 7183              		.file 4 "/usr/local/Cellar/arm-none-eabi-gcc/10.3-2021.07/gcc/arm-none-eabi/include/sys/_types.h"
 7184              		.file 5 "/usr/local/Cellar/arm-none-eabi-gcc/10.3-2021.07/gcc/arm-none-eabi/include/sys/reent.h"
 7185              		.file 6 "/usr/local/Cellar/arm-none-eabi-gcc/10.3-2021.07/gcc/arm-none-eabi/include/sys/lock.h"
 7186              		.file 7 "/usr/local/Cellar/arm-none-eabi-gcc/10.3-2021.07/gcc/arm-none-eabi/include/stdio.h"
 7187              		.file 8 "Core/Inc/MazeLib.h"
 7188              		.file 9 "<built-in>"
ARM GAS  /var/folders/v_/kwz_t0cs68g1q1d733r227b80000gn/T//cc7enlx9.s 			page 193


DEFINED SYMBOLS
                            *ABS*:0000000000000000 MazeLib.c
/var/folders/v_/kwz_t0cs68g1q1d733r227b80000gn/T//cc7enlx9.s:18     .text.judgeRawNodeGoal:0000000000000000 $t
/var/folders/v_/kwz_t0cs68g1q1d733r227b80000gn/T//cc7enlx9.s:25     .text.judgeRawNodeGoal:0000000000000000 judgeRawNodeGoal
/var/folders/v_/kwz_t0cs68g1q1d733r227b80000gn/T//cc7enlx9.s:83     .text.judgeColumnNodeGoal:0000000000000000 $t
/var/folders/v_/kwz_t0cs68g1q1d733r227b80000gn/T//cc7enlx9.s:89     .text.judgeColumnNodeGoal:0000000000000000 judgeColumnNodeGoal
/var/folders/v_/kwz_t0cs68g1q1d733r227b80000gn/T//cc7enlx9.s:147    .text.convertNodeTo16Value:0000000000000000 $t
/var/folders/v_/kwz_t0cs68g1q1d733r227b80000gn/T//cc7enlx9.s:153    .text.convertNodeTo16Value:0000000000000000 convertNodeTo16Value
/var/folders/v_/kwz_t0cs68g1q1d733r227b80000gn/T//cc7enlx9.s:218    .text.initWeight:0000000000000000 $t
/var/folders/v_/kwz_t0cs68g1q1d733r227b80000gn/T//cc7enlx9.s:225    .text.initWeight:0000000000000000 initWeight
/var/folders/v_/kwz_t0cs68g1q1d733r227b80000gn/T//cc7enlx9.s:322    .text.initMaze:0000000000000000 $t
/var/folders/v_/kwz_t0cs68g1q1d733r227b80000gn/T//cc7enlx9.s:329    .text.initMaze:0000000000000000 initMaze
/var/folders/v_/kwz_t0cs68g1q1d733r227b80000gn/T//cc7enlx9.s:580    .text.initTargetAreaWeight:0000000000000000 $t
/var/folders/v_/kwz_t0cs68g1q1d733r227b80000gn/T//cc7enlx9.s:587    .text.initTargetAreaWeight:0000000000000000 initTargetAreaWeight
/var/folders/v_/kwz_t0cs68g1q1d733r227b80000gn/T//cc7enlx9.s:746    .text.setExistanceRawNode:0000000000000000 $t
/var/folders/v_/kwz_t0cs68g1q1d733r227b80000gn/T//cc7enlx9.s:753    .text.setExistanceRawNode:0000000000000000 setExistanceRawNode
/var/folders/v_/kwz_t0cs68g1q1d733r227b80000gn/T//cc7enlx9.s:799    .text.setExistanceColumnNode:0000000000000000 $t
/var/folders/v_/kwz_t0cs68g1q1d733r227b80000gn/T//cc7enlx9.s:806    .text.setExistanceColumnNode:0000000000000000 setExistanceColumnNode
/var/folders/v_/kwz_t0cs68g1q1d733r227b80000gn/T//cc7enlx9.s:852    .text.setWeightRawNode:0000000000000000 $t
/var/folders/v_/kwz_t0cs68g1q1d733r227b80000gn/T//cc7enlx9.s:859    .text.setWeightRawNode:0000000000000000 setWeightRawNode
/var/folders/v_/kwz_t0cs68g1q1d733r227b80000gn/T//cc7enlx9.s:916    .text.setWeightColumnNode:0000000000000000 $t
/var/folders/v_/kwz_t0cs68g1q1d733r227b80000gn/T//cc7enlx9.s:923    .text.setWeightColumnNode:0000000000000000 setWeightColumnNode
/var/folders/v_/kwz_t0cs68g1q1d733r227b80000gn/T//cc7enlx9.s:980    .text.updateAllNodeWeight:0000000000000000 $t
/var/folders/v_/kwz_t0cs68g1q1d733r227b80000gn/T//cc7enlx9.s:987    .text.updateAllNodeWeight:0000000000000000 updateAllNodeWeight
/var/folders/v_/kwz_t0cs68g1q1d733r227b80000gn/T//cc7enlx9.s:1667   .text.updateNodeThree:0000000000000000 $t
/var/folders/v_/kwz_t0cs68g1q1d733r227b80000gn/T//cc7enlx9.s:1674   .text.updateNodeThree:0000000000000000 updateNodeThree
/var/folders/v_/kwz_t0cs68g1q1d733r227b80000gn/T//cc7enlx9.s:1820   .text.updateNodeDraw:0000000000000000 $t
/var/folders/v_/kwz_t0cs68g1q1d733r227b80000gn/T//cc7enlx9.s:1827   .text.updateNodeDraw:0000000000000000 updateNodeDraw
/var/folders/v_/kwz_t0cs68g1q1d733r227b80000gn/T//cc7enlx9.s:1896   .rodata.printAllWeight.str1.4:0000000000000000 $d
/var/folders/v_/kwz_t0cs68g1q1d733r227b80000gn/T//cc7enlx9.s:1916   .text.printAllWeight:0000000000000000 $t
/var/folders/v_/kwz_t0cs68g1q1d733r227b80000gn/T//cc7enlx9.s:1923   .text.printAllWeight:0000000000000000 printAllWeight
/var/folders/v_/kwz_t0cs68g1q1d733r227b80000gn/T//cc7enlx9.s:2186   .text.printAllWeight:000000000000010c $d
/var/folders/v_/kwz_t0cs68g1q1d733r227b80000gn/T//cc7enlx9.s:2196   .rodata.printSingleNode.str1.4:0000000000000000 $d
/var/folders/v_/kwz_t0cs68g1q1d733r227b80000gn/T//cc7enlx9.s:2207   .text.printSingleNode:0000000000000000 $t
/var/folders/v_/kwz_t0cs68g1q1d733r227b80000gn/T//cc7enlx9.s:2214   .text.printSingleNode:0000000000000000 printSingleNode
/var/folders/v_/kwz_t0cs68g1q1d733r227b80000gn/T//cc7enlx9.s:2284   .text.printSingleNode:0000000000000050 $d
/var/folders/v_/kwz_t0cs68g1q1d733r227b80000gn/T//cc7enlx9.s:2290   .rodata.printAllNode.str1.4:0000000000000000 $d
/var/folders/v_/kwz_t0cs68g1q1d733r227b80000gn/T//cc7enlx9.s:2301   .text.printAllNode:0000000000000000 $t
/var/folders/v_/kwz_t0cs68g1q1d733r227b80000gn/T//cc7enlx9.s:2308   .text.printAllNode:0000000000000000 printAllNode
/var/folders/v_/kwz_t0cs68g1q1d733r227b80000gn/T//cc7enlx9.s:2432   .text.printAllNode:000000000000006c $d
/var/folders/v_/kwz_t0cs68g1q1d733r227b80000gn/T//cc7enlx9.s:2440   .rodata.printAllNodeExistence.str1.4:0000000000000000 $d
/var/folders/v_/kwz_t0cs68g1q1d733r227b80000gn/T//cc7enlx9.s:2446   .text.printAllNodeExistence:0000000000000000 $t
/var/folders/v_/kwz_t0cs68g1q1d733r227b80000gn/T//cc7enlx9.s:2453   .text.printAllNodeExistence:0000000000000000 printAllNodeExistence
/var/folders/v_/kwz_t0cs68g1q1d733r227b80000gn/T//cc7enlx9.s:2575   .text.printAllNodeExistence:0000000000000068 $d
/var/folders/v_/kwz_t0cs68g1q1d733r227b80000gn/T//cc7enlx9.s:2583   .rodata.outputDataToFile.str1.4:0000000000000000 $d
/var/folders/v_/kwz_t0cs68g1q1d733r227b80000gn/T//cc7enlx9.s:2602   .text.outputDataToFile:0000000000000000 $t
/var/folders/v_/kwz_t0cs68g1q1d733r227b80000gn/T//cc7enlx9.s:2609   .text.outputDataToFile:0000000000000000 outputDataToFile
/var/folders/v_/kwz_t0cs68g1q1d733r227b80000gn/T//cc7enlx9.s:2924   .text.outputDataToFile:0000000000000150 $d
/var/folders/v_/kwz_t0cs68g1q1d733r227b80000gn/T//cc7enlx9.s:2936   .rodata.printMatrix16ValueFromNode.str1.4:0000000000000000 $d
/var/folders/v_/kwz_t0cs68g1q1d733r227b80000gn/T//cc7enlx9.s:2942   .text.printMatrix16ValueFromNode:0000000000000000 $t
/var/folders/v_/kwz_t0cs68g1q1d733r227b80000gn/T//cc7enlx9.s:2949   .text.printMatrix16ValueFromNode:0000000000000000 printMatrix16ValueFromNode
/var/folders/v_/kwz_t0cs68g1q1d733r227b80000gn/T//cc7enlx9.s:3045   .text.printMatrix16ValueFromNode:000000000000004c $d
/var/folders/v_/kwz_t0cs68g1q1d733r227b80000gn/T//cc7enlx9.s:3052   .rodata.setNextPosition.str1.4:0000000000000000 $d
/var/folders/v_/kwz_t0cs68g1q1d733r227b80000gn/T//cc7enlx9.s:3057   .text.setNextPosition:0000000000000000 $t
/var/folders/v_/kwz_t0cs68g1q1d733r227b80000gn/T//cc7enlx9.s:3064   .text.setNextPosition:0000000000000000 setNextPosition
/var/folders/v_/kwz_t0cs68g1q1d733r227b80000gn/T//cc7enlx9.s:3085   .text.setNextPosition:000000000000000c $d
/var/folders/v_/kwz_t0cs68g1q1d733r227b80000gn/T//cc7enlx9.s:3163   .text.setNextPosition:000000000000004c $d
ARM GAS  /var/folders/v_/kwz_t0cs68g1q1d733r227b80000gn/T//cc7enlx9.s 			page 194


/var/folders/v_/kwz_t0cs68g1q1d733r227b80000gn/T//cc7enlx9.s:3168   .text.setPosition:0000000000000000 $t
/var/folders/v_/kwz_t0cs68g1q1d733r227b80000gn/T//cc7enlx9.s:3175   .text.setPosition:0000000000000000 setPosition
/var/folders/v_/kwz_t0cs68g1q1d733r227b80000gn/T//cc7enlx9.s:3195   .text.setGoal:0000000000000000 $t
/var/folders/v_/kwz_t0cs68g1q1d733r227b80000gn/T//cc7enlx9.s:3202   .text.setGoal:0000000000000000 setGoal
/var/folders/v_/kwz_t0cs68g1q1d733r227b80000gn/T//cc7enlx9.s:3238   .text.setCardinal:0000000000000000 $t
/var/folders/v_/kwz_t0cs68g1q1d733r227b80000gn/T//cc7enlx9.s:3245   .text.setCardinal:0000000000000000 setCardinal
/var/folders/v_/kwz_t0cs68g1q1d733r227b80000gn/T//cc7enlx9.s:3262   .text.setWallExistence:0000000000000000 $t
/var/folders/v_/kwz_t0cs68g1q1d733r227b80000gn/T//cc7enlx9.s:3269   .text.setWallExistence:0000000000000000 setWallExistence
/var/folders/v_/kwz_t0cs68g1q1d733r227b80000gn/T//cc7enlx9.s:3311   .rodata.initState.str1.4:0000000000000000 $d
/var/folders/v_/kwz_t0cs68g1q1d733r227b80000gn/T//cc7enlx9.s:3318   .text.initState:0000000000000000 $t
/var/folders/v_/kwz_t0cs68g1q1d733r227b80000gn/T//cc7enlx9.s:3325   .text.initState:0000000000000000 initState
/var/folders/v_/kwz_t0cs68g1q1d733r227b80000gn/T//cc7enlx9.s:3387   .text.initState:000000000000002c $d
/var/folders/v_/kwz_t0cs68g1q1d733r227b80000gn/T//cc7enlx9.s:3393   .text.initProfile:0000000000000000 $t
/var/folders/v_/kwz_t0cs68g1q1d733r227b80000gn/T//cc7enlx9.s:3400   .text.initProfile:0000000000000000 initProfile
/var/folders/v_/kwz_t0cs68g1q1d733r227b80000gn/T//cc7enlx9.s:3498   .text.initProfile:000000000000006c $d
/var/folders/v_/kwz_t0cs68g1q1d733r227b80000gn/T//cc7enlx9.s:3503   .text.shiftState:0000000000000000 $t
/var/folders/v_/kwz_t0cs68g1q1d733r227b80000gn/T//cc7enlx9.s:3510   .text.shiftState:0000000000000000 shiftState
/var/folders/v_/kwz_t0cs68g1q1d733r227b80000gn/T//cc7enlx9.s:3542   .rodata.printState.str1.4:0000000000000000 $d
/var/folders/v_/kwz_t0cs68g1q1d733r227b80000gn/T//cc7enlx9.s:3563   .text.printState:0000000000000000 $t
/var/folders/v_/kwz_t0cs68g1q1d733r227b80000gn/T//cc7enlx9.s:3570   .text.printState:0000000000000000 printState
/var/folders/v_/kwz_t0cs68g1q1d733r227b80000gn/T//cc7enlx9.s:3651   .text.printState:0000000000000058 $d
/var/folders/v_/kwz_t0cs68g1q1d733r227b80000gn/T//cc7enlx9.s:3661   .rodata.printGoal.str1.4:0000000000000000 $d
/var/folders/v_/kwz_t0cs68g1q1d733r227b80000gn/T//cc7enlx9.s:3666   .text.printGoal:0000000000000000 $t
/var/folders/v_/kwz_t0cs68g1q1d733r227b80000gn/T//cc7enlx9.s:3673   .text.printGoal:0000000000000000 printGoal
/var/folders/v_/kwz_t0cs68g1q1d733r227b80000gn/T//cc7enlx9.s:3710   .text.printGoal:000000000000001c $d
/var/folders/v_/kwz_t0cs68g1q1d733r227b80000gn/T//cc7enlx9.s:3715   .rodata.printProfile.str1.4:0000000000000000 $d
/var/folders/v_/kwz_t0cs68g1q1d733r227b80000gn/T//cc7enlx9.s:3722   .text.printProfile:0000000000000000 $t
/var/folders/v_/kwz_t0cs68g1q1d733r227b80000gn/T//cc7enlx9.s:3729   .text.printProfile:0000000000000000 printProfile
/var/folders/v_/kwz_t0cs68g1q1d733r227b80000gn/T//cc7enlx9.s:3773   .text.printProfile:000000000000002c $d
/var/folders/v_/kwz_t0cs68g1q1d733r227b80000gn/T//cc7enlx9.s:3780   .text.getRouteFastRun:0000000000000000 $t
/var/folders/v_/kwz_t0cs68g1q1d733r227b80000gn/T//cc7enlx9.s:3787   .text.getRouteFastRun:0000000000000000 getRouteFastRun
/var/folders/v_/kwz_t0cs68g1q1d733r227b80000gn/T//cc7enlx9.s:3868   .rodata.printRoute.str1.4:0000000000000000 $d
/var/folders/v_/kwz_t0cs68g1q1d733r227b80000gn/T//cc7enlx9.s:3886   .text.printRoute:0000000000000000 $t
/var/folders/v_/kwz_t0cs68g1q1d733r227b80000gn/T//cc7enlx9.s:3893   .text.printRoute:0000000000000000 printRoute
/var/folders/v_/kwz_t0cs68g1q1d733r227b80000gn/T//cc7enlx9.s:4015   .text.printRoute:0000000000000080 $d
/var/folders/v_/kwz_t0cs68g1q1d733r227b80000gn/T//cc7enlx9.s:4025   .text.getNodeInfo:0000000000000000 $t
/var/folders/v_/kwz_t0cs68g1q1d733r227b80000gn/T//cc7enlx9.s:4032   .text.getNodeInfo:0000000000000000 getNodeInfo
/var/folders/v_/kwz_t0cs68g1q1d733r227b80000gn/T//cc7enlx9.s:4055   .text.getNodeInfo:000000000000000e $d
/var/folders/v_/kwz_t0cs68g1q1d733r227b80000gn/T//cc7enlx9.s:4149   .text.getNextNode:0000000000000000 $t
/var/folders/v_/kwz_t0cs68g1q1d733r227b80000gn/T//cc7enlx9.s:4156   .text.getNextNode:0000000000000000 getNextNode
/var/folders/v_/kwz_t0cs68g1q1d733r227b80000gn/T//cc7enlx9.s:4715   .text.getNextNode:00000000000002cc $d
/var/folders/v_/kwz_t0cs68g1q1d733r227b80000gn/T//cc7enlx9.s:4720   .text.judgeAccelorNot:0000000000000000 $t
/var/folders/v_/kwz_t0cs68g1q1d733r227b80000gn/T//cc7enlx9.s:4727   .text.judgeAccelorNot:0000000000000000 judgeAccelorNot
/var/folders/v_/kwz_t0cs68g1q1d733r227b80000gn/T//cc7enlx9.s:5320   .text.getNextState:0000000000000000 $t
/var/folders/v_/kwz_t0cs68g1q1d733r227b80000gn/T//cc7enlx9.s:5327   .text.getNextState:0000000000000000 getNextState
/var/folders/v_/kwz_t0cs68g1q1d733r227b80000gn/T//cc7enlx9.s:5373   .text.getNextState:0000000000000024 $d
/var/folders/v_/kwz_t0cs68g1q1d733r227b80000gn/T//cc7enlx9.s:5380   .text.getNextState:0000000000000032 $t
/var/folders/v_/kwz_t0cs68g1q1d733r227b80000gn/T//cc7enlx9.s:6181   .text.getWallNow:0000000000000000 $t
/var/folders/v_/kwz_t0cs68g1q1d733r227b80000gn/T//cc7enlx9.s:6188   .text.getWallNow:0000000000000000 getWallNow
/var/folders/v_/kwz_t0cs68g1q1d733r227b80000gn/T//cc7enlx9.s:6204   .text.getWallNow:000000000000000a $d
/var/folders/v_/kwz_t0cs68g1q1d733r227b80000gn/T//cc7enlx9.s:6366   .text.getNowWallVirtual:0000000000000000 $t
/var/folders/v_/kwz_t0cs68g1q1d733r227b80000gn/T//cc7enlx9.s:6373   .text.getNowWallVirtual:0000000000000000 getNowWallVirtual
/var/folders/v_/kwz_t0cs68g1q1d733r227b80000gn/T//cc7enlx9.s:6434   .text.getNextWallVirtual:0000000000000000 $t
/var/folders/v_/kwz_t0cs68g1q1d733r227b80000gn/T//cc7enlx9.s:6441   .text.getNextWallVirtual:0000000000000000 getNextWallVirtual
/var/folders/v_/kwz_t0cs68g1q1d733r227b80000gn/T//cc7enlx9.s:6502   .text.initSearchData:0000000000000000 $t
/var/folders/v_/kwz_t0cs68g1q1d733r227b80000gn/T//cc7enlx9.s:6509   .text.initSearchData:0000000000000000 initSearchData
/var/folders/v_/kwz_t0cs68g1q1d733r227b80000gn/T//cc7enlx9.s:6569   .text.getPathNode:0000000000000000 $t
ARM GAS  /var/folders/v_/kwz_t0cs68g1q1d733r227b80000gn/T//cc7enlx9.s 			page 195


/var/folders/v_/kwz_t0cs68g1q1d733r227b80000gn/T//cc7enlx9.s:6576   .text.getPathNode:0000000000000000 getPathNode
/var/folders/v_/kwz_t0cs68g1q1d733r227b80000gn/T//cc7enlx9.s:6756   .text.getPathNode:00000000000000d8 $d
/var/folders/v_/kwz_t0cs68g1q1d733r227b80000gn/T//cc7enlx9.s:7150   .bss.FastPath:0000000000000000 FastPath
/var/folders/v_/kwz_t0cs68g1q1d733r227b80000gn/T//cc7enlx9.s:6764   .rodata.getPathAction.str1.4:0000000000000000 $d
/var/folders/v_/kwz_t0cs68g1q1d733r227b80000gn/T//cc7enlx9.s:6768   .text.getPathAction:0000000000000000 $t
/var/folders/v_/kwz_t0cs68g1q1d733r227b80000gn/T//cc7enlx9.s:6775   .text.getPathAction:0000000000000000 getPathAction
/var/folders/v_/kwz_t0cs68g1q1d733r227b80000gn/T//cc7enlx9.s:7125   .text.getPathAction:0000000000000160 $d
/var/folders/v_/kwz_t0cs68g1q1d733r227b80000gn/T//cc7enlx9.s:7157   .bss.Num_Nodes:0000000000000000 Num_Nodes
/var/folders/v_/kwz_t0cs68g1q1d733r227b80000gn/T//cc7enlx9.s:7163   .bss.WALL_MASK:0000000000000000 WALL_MASK
/var/folders/v_/kwz_t0cs68g1q1d733r227b80000gn/T//cc7enlx9.s:7134   .rodata:0000000000000000 $d
/var/folders/v_/kwz_t0cs68g1q1d733r227b80000gn/T//cc7enlx9.s:7147   .bss.FastPath:0000000000000000 $d
/var/folders/v_/kwz_t0cs68g1q1d733r227b80000gn/T//cc7enlx9.s:7153   .bss.Num_Nodes:0000000000000000 $d
/var/folders/v_/kwz_t0cs68g1q1d733r227b80000gn/T//cc7enlx9.s:7160   .bss.WALL_MASK:0000000000000000 $d
/var/folders/v_/kwz_t0cs68g1q1d733r227b80000gn/T//cc7enlx9.s:7166   .bss.path_num.0:0000000000000000 $d
/var/folders/v_/kwz_t0cs68g1q1d733r227b80000gn/T//cc7enlx9.s:7170   .bss.path_num.0:0000000000000000 path_num.0
/var/folders/v_/kwz_t0cs68g1q1d733r227b80000gn/T//cc7enlx9.s:7173   .data.cnt.1:0000000000000000 $d
/var/folders/v_/kwz_t0cs68g1q1d733r227b80000gn/T//cc7enlx9.s:7177   .data.cnt.1:0000000000000000 cnt.1
/var/folders/v_/kwz_t0cs68g1q1d733r227b80000gn/T//cc7enlx9.s:3092   .text.setNextPosition:0000000000000013 $d
/var/folders/v_/kwz_t0cs68g1q1d733r227b80000gn/T//cc7enlx9.s:3092   .text.setNextPosition:0000000000000014 $t
/var/folders/v_/kwz_t0cs68g1q1d733r227b80000gn/T//cc7enlx9.s:4062   .text.getNodeInfo:0000000000000015 $d
/var/folders/v_/kwz_t0cs68g1q1d733r227b80000gn/T//cc7enlx9.s:4062   .text.getNodeInfo:0000000000000016 $t
/var/folders/v_/kwz_t0cs68g1q1d733r227b80000gn/T//cc7enlx9.s:6211   .text.getWallNow:0000000000000011 $d
/var/folders/v_/kwz_t0cs68g1q1d733r227b80000gn/T//cc7enlx9.s:6211   .text.getWallNow:0000000000000012 $t

UNDEFINED SYMBOLS
puts
printf
putchar
fopen
fprintf
fwrite
fclose
