ARM GAS  C:\Users\leopi\AppData\Local\Temp\ccgcmXMf.s 			page 1


   1              		.cpu cortex-m4
   2              		.arch armv7e-m
   3              		.fpu fpv4-sp-d16
   4              		.eabi_attribute 27, 1
   5              		.eabi_attribute 28, 1
   6              		.eabi_attribute 20, 1
   7              		.eabi_attribute 21, 1
   8              		.eabi_attribute 23, 3
   9              		.eabi_attribute 24, 1
  10              		.eabi_attribute 25, 1
  11              		.eabi_attribute 26, 1
  12              		.eabi_attribute 30, 1
  13              		.eabi_attribute 34, 1
  14              		.eabi_attribute 18, 4
  15              		.file	"MicroMouse.c"
  16              		.text
  17              	.Ltext0:
  18              		.cfi_sections	.debug_frame
  19              		.global	__aeabi_f2d
  20              		.global	__aeabi_dmul
  21              		.global	__aeabi_d2f
  22              		.section	.text.setSearchTurnParam,"ax",%progbits
  23              		.align	1
  24              		.global	setSearchTurnParam
  25              		.syntax unified
  26              		.thumb
  27              		.thumb_func
  29              	setSearchTurnParam:
  30              	.LVL0:
  31              	.LFB238:
  32              		.file 1 "Core/Src/Main/MicroMouse.c"
   1:Core/Src/Main/MicroMouse.c **** /*
   2:Core/Src/Main/MicroMouse.c ****  * MicroMouse.c
   3:Core/Src/Main/MicroMouse.c ****  *
   4:Core/Src/Main/MicroMouse.c ****  *  Created on: Feb 16, 2022
   5:Core/Src/Main/MicroMouse.c ****  *      Author: leopi
   6:Core/Src/Main/MicroMouse.c ****  */
   7:Core/Src/Main/MicroMouse.c **** 
   8:Core/Src/Main/MicroMouse.c **** #include "MicroMouse.h"
   9:Core/Src/Main/MicroMouse.c **** 
  10:Core/Src/Main/MicroMouse.c **** // ハードウェアと機体の状態の橋渡し。ハードウェア構成に依存するので
  11:Core/Src/Main/MicroMouse.c **** // センサ値、センサから得る今の状態
  12:Core/Src/Main/MicroMouse.c **** // Flashにログを残す処理は担うか否か
  13:Core/Src/Main/MicroMouse.c **** // パラメータテーブル
  14:Core/Src/Main/MicroMouse.c **** 
  15:Core/Src/Main/MicroMouse.c **** #include "IEH2_4096.h"
  16:Core/Src/Main/MicroMouse.c **** #include "mouse_ADC.h"
  17:Core/Src/Main/MicroMouse.c **** #include "LED_Driver.h"
  18:Core/Src/Main/MicroMouse.c **** #include "IR_Emitter.h"
  19:Core/Src/Main/MicroMouse.c **** #include "Motor_Driver.h"
  20:Core/Src/Main/MicroMouse.c **** #include "ICM_20648.h"
  21:Core/Src/Main/MicroMouse.c **** #include "Interrupt.h"
  22:Core/Src/Main/MicroMouse.c **** #include "PID_Control.h"
  23:Core/Src/Main/MicroMouse.c **** #include "Convert.h"
  24:Core/Src/Main/MicroMouse.c **** // #include "MazeLib.h"
  25:Core/Src/Main/MicroMouse.c **** 
  26:Core/Src/Main/MicroMouse.c **** volatile _Bool VelocityMax;
ARM GAS  C:\Users\leopi\AppData\Local\Temp\ccgcmXMf.s 			page 2


  27:Core/Src/Main/MicroMouse.c **** volatile int Calc;
  28:Core/Src/Main/MicroMouse.c **** volatile int SearchOrFast;
  29:Core/Src/Main/MicroMouse.c **** float Photo[4];
  30:Core/Src/Main/MicroMouse.c **** volatile float TargetPhoto[4];
  31:Core/Src/Main/MicroMouse.c **** volatile float PhotoDiff;
  32:Core/Src/Main/MicroMouse.c **** //int PulseDisplacement;//[2]={0};
  33:Core/Src/Main/MicroMouse.c **** int KeepCounter;//
  34:Core/Src/Main/MicroMouse.c **** /*[2]={
  35:Core/Src/Main/MicroMouse.c **** 		INITIAL_PULSE,
  36:Core/Src/Main/MicroMouse.c **** 		INITIAL_PULSE
  37:Core/Src/Main/MicroMouse.c **** };*/
  38:Core/Src/Main/MicroMouse.c **** volatile float CurrentVelocity[3];	//速度 mm/s
  39:Core/Src/Main/MicroMouse.c **** volatile float TargetVelocity[3];
  40:Core/Src/Main/MicroMouse.c **** volatile float ControlTargetVelocity;
  41:Core/Src/Main/MicroMouse.c **** //float CurrentPulseDisplacementLeft,CurrentPulseDisplacementRight;
  42:Core/Src/Main/MicroMouse.c **** //float TargetPulseDisplacementLeft, TargetPulseDisplacementRight;
  43:Core/Src/Main/MicroMouse.c **** //float TotalPulseBody;	//移動量 mm/msを積算
  44:Core/Src/Main/MicroMouse.c **** //float TotalPulseLeft;
  45:Core/Src/Main/MicroMouse.c **** //float TotalPulseRight;
  46:Core/Src/Main/MicroMouse.c **** volatile int KeepPulse[3];
  47:Core/Src/Main/MicroMouse.c **** int PulseDisplacement[3];
  48:Core/Src/Main/MicroMouse.c **** volatile int TotalPulse[3];
  49:Core/Src/Main/MicroMouse.c **** volatile float AngularV=0;			//角速度 rad/s
  50:Core/Src/Main/MicroMouse.c **** float EncAngV=0;
  51:Core/Src/Main/MicroMouse.c **** volatile float Angle=0;				//角度 rad/msを積算
  52:Core/Src/Main/MicroMouse.c **** //ここまでがエンコーダからのUpdate
  53:Core/Src/Main/MicroMouse.c **** 
  54:Core/Src/Main/MicroMouse.c **** //ここからは目標値と現在値を用いた制御。
  55:Core/Src/Main/MicroMouse.c **** //タイヤ目標値計算
  56:Core/Src/Main/MicroMouse.c **** //float TargetVelocity[3]={0};
  57:Core/Src/Main/MicroMouse.c **** //float TargetVelocityBody;
  58:Core/Src/Main/MicroMouse.c **** //float TargetVelocityLeft;
  59:Core/Src/Main/MicroMouse.c **** //float TargetVelocityRight;
  60:Core/Src/Main/MicroMouse.c **** float ExploreVelocity;
  61:Core/Src/Main/MicroMouse.c **** float AddVelocity;
  62:Core/Src/Main/MicroMouse.c **** volatile float Acceleration=0;
  63:Core/Src/Main/MicroMouse.c **** volatile float TargetAngularV;
  64:Core/Src/Main/MicroMouse.c **** volatile float AngularAcceleration=0;
  65:Core/Src/Main/MicroMouse.c **** float AngularLeapsity=0;
  66:Core/Src/Main/MicroMouse.c **** volatile float TargetAngle=0;
  67:Core/Src/Main/MicroMouse.c **** float ImuAngV,ImuAngle;
  68:Core/Src/Main/MicroMouse.c **** float ImuAccel=0, ImuVelocity=0, ImuMileage=0;
  69:Core/Src/Main/MicroMouse.c **** int VelocityLeftOut, VelocityRightOut;
  70:Core/Src/Main/MicroMouse.c **** int WallRightOut, WallLeftOut;
  71:Core/Src/Main/MicroMouse.c **** int L_motor, R_motor;
  72:Core/Src/Main/MicroMouse.c **** 
  73:Core/Src/Main/MicroMouse.c **** 
  74:Core/Src/Main/MicroMouse.c **** //direction my_direction = north;
  75:Core/Src/Main/MicroMouse.c **** goal_edge goal_edge_num;
  76:Core/Src/Main/MicroMouse.c **** 
  77:Core/Src/Main/MicroMouse.c **** 
  78:Core/Src/Main/MicroMouse.c **** slalom_parameter Sla;
  79:Core/Src/Main/MicroMouse.c **** 
  80:Core/Src/Main/MicroMouse.c **** #if 1
  81:Core/Src/Main/MicroMouse.c **** void setSearchTurnParam(int8_t mode){
  33              		.loc 1 81 37 view -0
  34              		.cfi_startproc
ARM GAS  C:\Users\leopi\AppData\Local\Temp\ccgcmXMf.s 			page 3


  35              		@ args = 0, pretend = 0, frame = 0
  36              		@ frame_needed = 0, uses_anonymous_args = 0
  37              		.loc 1 81 37 is_stmt 0 view .LVU1
  38 0000 10B5     		push	{r4, lr}
  39              	.LCFI0:
  40              		.cfi_def_cfa_offset 8
  41              		.cfi_offset 4, -8
  42              		.cfi_offset 14, -4
  82:Core/Src/Main/MicroMouse.c **** 	
  83:Core/Src/Main/MicroMouse.c **** 	switch(mode)
  43              		.loc 1 83 2 is_stmt 1 view .LVU2
  44 0002 0138     		subs	r0, r0, #1
  45              	.LVL1:
  46              		.loc 1 83 2 is_stmt 0 view .LVU3
  47 0004 0328     		cmp	r0, #3
  48 0006 12D8     		bhi	.L2
  49 0008 DFE800F0 		tbb	[pc, r0]
  50              	.L4:
  51 000c 02       		.byte	(.L7-.L4)/2
  52 000d 4A       		.byte	(.L6-.L4)/2
  53 000e 5C       		.byte	(.L5-.L4)/2
  54 000f 6E       		.byte	(.L3-.L4)/2
  55              		.p2align 1
  56              	.L7:
  84:Core/Src/Main/MicroMouse.c **** 	{
  85:Core/Src/Main/MicroMouse.c **** 	case 1:
  86:Core/Src/Main/MicroMouse.c **** 		ExploreVelocity=90;
  57              		.loc 1 86 3 is_stmt 1 view .LVU4
  58              		.loc 1 86 18 is_stmt 0 view .LVU5
  59 0010 434A     		ldr	r2, .L9+16
  60 0012 444B     		ldr	r3, .L9+20
  61 0014 1A60     		str	r2, [r3]	@ float
  87:Core/Src/Main/MicroMouse.c **** 		//未
  88:Core/Src/Main/MicroMouse.c **** 		Sla.Pre = 9;
  62              		.loc 1 88 3 is_stmt 1 view .LVU6
  63              		.loc 1 88 11 is_stmt 0 view .LVU7
  64 0016 444B     		ldr	r3, .L9+24
  65 0018 4449     		ldr	r1, .L9+28
  66 001a 1960     		str	r1, [r3]	@ float
  89:Core/Src/Main/MicroMouse.c **** 		Sla.Fol = 20;
  67              		.loc 1 89 3 is_stmt 1 view .LVU8
  68              		.loc 1 89 11 is_stmt 0 view .LVU9
  69 001c 4449     		ldr	r1, .L9+32
  70 001e 5960     		str	r1, [r3, #4]	@ float
  90:Core/Src/Main/MicroMouse.c **** 		Sla.Alpha = 0.014;
  71              		.loc 1 90 3 is_stmt 1 view .LVU10
  72              		.loc 1 90 13 is_stmt 0 view .LVU11
  73 0020 4449     		ldr	r1, .L9+36
  74 0022 9960     		str	r1, [r3, #8]	@ float
  91:Core/Src/Main/MicroMouse.c **** 		Sla.Theta1 = 30;
  75              		.loc 1 91 3 is_stmt 1 view .LVU12
  76              		.loc 1 91 14 is_stmt 0 view .LVU13
  77 0024 4449     		ldr	r1, .L9+40
  78 0026 1961     		str	r1, [r3, #16]	@ float
  92:Core/Src/Main/MicroMouse.c **** 		Sla.Theta2 = 60;
  79              		.loc 1 92 3 is_stmt 1 view .LVU14
  80              		.loc 1 92 14 is_stmt 0 view .LVU15
ARM GAS  C:\Users\leopi\AppData\Local\Temp\ccgcmXMf.s 			page 4


  81 0028 4449     		ldr	r1, .L9+44
  82 002a 5961     		str	r1, [r3, #20]	@ float
  93:Core/Src/Main/MicroMouse.c **** 		Sla.Theta3 = 90;
  83              		.loc 1 93 3 is_stmt 1 view .LVU16
  84              		.loc 1 93 14 is_stmt 0 view .LVU17
  85 002c 9A61     		str	r2, [r3, #24]	@ float
  94:Core/Src/Main/MicroMouse.c **** 
  95:Core/Src/Main/MicroMouse.c **** //		ExploreVelocity=180;//*40/1000
  96:Core/Src/Main/MicroMouse.c **** //		Sla.Pre = 5;
  97:Core/Src/Main/MicroMouse.c **** //		Sla.Fol = 12;
  98:Core/Src/Main/MicroMouse.c **** //		Sla.Alalpha = 0.0007;
  99:Core/Src/Main/MicroMouse.c **** //		Sla.Theta1 = 30;
 100:Core/Src/Main/MicroMouse.c **** //		Sla.Theta2 = 60;
 101:Core/Src/Main/MicroMouse.c **** //		Sla.Theta3 = 90;
 102:Core/Src/Main/MicroMouse.c **** 		break;
  86              		.loc 1 102 3 is_stmt 1 view .LVU18
  87              	.L2:
 103:Core/Src/Main/MicroMouse.c **** 	case 2:
 104:Core/Src/Main/MicroMouse.c **** 		//完
 105:Core/Src/Main/MicroMouse.c **** //		ExploreVelocity=135;//*40/1000
 106:Core/Src/Main/MicroMouse.c **** //		Sla.Pre = 5;
 107:Core/Src/Main/MicroMouse.c **** //		Sla.Fol = 10;
 108:Core/Src/Main/MicroMouse.c **** //		Sla.Alpha = 0.0273;
 109:Core/Src/Main/MicroMouse.c **** //		Sla.Theta1 = 30;
 110:Core/Src/Main/MicroMouse.c **** //		Sla.Theta2 = 60;
 111:Core/Src/Main/MicroMouse.c **** //		Sla.Theta3 = 90;
 112:Core/Src/Main/MicroMouse.c **** 
 113:Core/Src/Main/MicroMouse.c **** 		ExploreVelocity=180;
 114:Core/Src/Main/MicroMouse.c **** 		Sla.Pre = 8;//2;
 115:Core/Src/Main/MicroMouse.c **** 		Sla.Fol = 12;
 116:Core/Src/Main/MicroMouse.c **** 		Sla.Alpha = 0.043;
 117:Core/Src/Main/MicroMouse.c **** 		Sla.Theta1 = 30;
 118:Core/Src/Main/MicroMouse.c **** 		Sla.Theta2 = 60;
 119:Core/Src/Main/MicroMouse.c **** 		Sla.Theta3 = 90;
 120:Core/Src/Main/MicroMouse.c **** 		break;
 121:Core/Src/Main/MicroMouse.c **** 	case 3:
 122:Core/Src/Main/MicroMouse.c **** 		ExploreVelocity=240;
 123:Core/Src/Main/MicroMouse.c **** 		Sla.Pre = 8;//2;
 124:Core/Src/Main/MicroMouse.c **** 		Sla.Fol = 12; //16
 125:Core/Src/Main/MicroMouse.c **** 		Sla.Alpha = 0.078;
 126:Core/Src/Main/MicroMouse.c **** 		Sla.Theta1 = 30;
 127:Core/Src/Main/MicroMouse.c **** 		Sla.Theta2 = 60;
 128:Core/Src/Main/MicroMouse.c **** 		Sla.Theta3 = 90;
 129:Core/Src/Main/MicroMouse.c **** 		break;
 130:Core/Src/Main/MicroMouse.c **** 	case 4:
 131:Core/Src/Main/MicroMouse.c **** 		ExploreVelocity=300;
 132:Core/Src/Main/MicroMouse.c **** 		Sla.Pre = 3;
 133:Core/Src/Main/MicroMouse.c **** 		Sla.Fol = 5;
 134:Core/Src/Main/MicroMouse.c **** 		Sla.Alpha = 0.117;
 135:Core/Src/Main/MicroMouse.c **** 		Sla.Theta1 = 30;
 136:Core/Src/Main/MicroMouse.c **** 		Sla.Theta2 = 60;
 137:Core/Src/Main/MicroMouse.c **** 		Sla.Theta3 = 90;
 138:Core/Src/Main/MicroMouse.c **** 		//		//未
 139:Core/Src/Main/MicroMouse.c **** 		break;
 140:Core/Src/Main/MicroMouse.c **** 	}
 141:Core/Src/Main/MicroMouse.c **** 	Sla.Pre *=  2/MM_PER_PULSE;
  88              		.loc 1 141 2 view .LVU19
ARM GAS  C:\Users\leopi\AppData\Local\Temp\ccgcmXMf.s 			page 5


  89              		.loc 1 141 10 is_stmt 0 view .LVU20
  90 002e 3E4C     		ldr	r4, .L9+24
  91 0030 2068     		ldr	r0, [r4]	@ float
  92 0032 FFF7FEFF 		bl	__aeabi_f2d
  93              	.LVL2:
  94 0036 36A3     		adr	r3, .L9
  95 0038 D3E90023 		ldrd	r2, [r3]
  96 003c FFF7FEFF 		bl	__aeabi_dmul
  97              	.LVL3:
  98 0040 FFF7FEFF 		bl	__aeabi_d2f
  99              	.LVL4:
 100 0044 2060     		str	r0, [r4]	@ float
 142:Core/Src/Main/MicroMouse.c **** 	Sla.Fol *=  2/MM_PER_PULSE;
 101              		.loc 1 142 2 is_stmt 1 view .LVU21
 102              		.loc 1 142 10 is_stmt 0 view .LVU22
 103 0046 6068     		ldr	r0, [r4, #4]	@ float
 104 0048 FFF7FEFF 		bl	__aeabi_f2d
 105              	.LVL5:
 106 004c 30A3     		adr	r3, .L9
 107 004e D3E90023 		ldrd	r2, [r3]
 108 0052 FFF7FEFF 		bl	__aeabi_dmul
 109              	.LVL6:
 110 0056 FFF7FEFF 		bl	__aeabi_d2f
 111              	.LVL7:
 112 005a 6060     		str	r0, [r4, #4]	@ float
 143:Core/Src/Main/MicroMouse.c **** 	Sla.Theta1 *= M_PI/180;
 113              		.loc 1 143 2 is_stmt 1 view .LVU23
 114              		.loc 1 143 13 is_stmt 0 view .LVU24
 115 005c 2069     		ldr	r0, [r4, #16]	@ float
 116 005e FFF7FEFF 		bl	__aeabi_f2d
 117              	.LVL8:
 118 0062 2DA3     		adr	r3, .L9+8
 119 0064 D3E90023 		ldrd	r2, [r3]
 120 0068 FFF7FEFF 		bl	__aeabi_dmul
 121              	.LVL9:
 122 006c FFF7FEFF 		bl	__aeabi_d2f
 123              	.LVL10:
 124 0070 2061     		str	r0, [r4, #16]	@ float
 144:Core/Src/Main/MicroMouse.c **** 	Sla.Theta2 *= M_PI/180;
 125              		.loc 1 144 2 is_stmt 1 view .LVU25
 126              		.loc 1 144 13 is_stmt 0 view .LVU26
 127 0072 6069     		ldr	r0, [r4, #20]	@ float
 128 0074 FFF7FEFF 		bl	__aeabi_f2d
 129              	.LVL11:
 130 0078 27A3     		adr	r3, .L9+8
 131 007a D3E90023 		ldrd	r2, [r3]
 132 007e FFF7FEFF 		bl	__aeabi_dmul
 133              	.LVL12:
 134 0082 FFF7FEFF 		bl	__aeabi_d2f
 135              	.LVL13:
 136 0086 6061     		str	r0, [r4, #20]	@ float
 145:Core/Src/Main/MicroMouse.c **** 	Sla.Theta3 *= M_PI/180;
 137              		.loc 1 145 2 is_stmt 1 view .LVU27
 138              		.loc 1 145 13 is_stmt 0 view .LVU28
 139 0088 A069     		ldr	r0, [r4, #24]	@ float
 140 008a FFF7FEFF 		bl	__aeabi_f2d
 141              	.LVL14:
ARM GAS  C:\Users\leopi\AppData\Local\Temp\ccgcmXMf.s 			page 6


 142 008e 22A3     		adr	r3, .L9+8
 143 0090 D3E90023 		ldrd	r2, [r3]
 144 0094 FFF7FEFF 		bl	__aeabi_dmul
 145              	.LVL15:
 146 0098 FFF7FEFF 		bl	__aeabi_d2f
 147              	.LVL16:
 148 009c A061     		str	r0, [r4, #24]	@ float
 146:Core/Src/Main/MicroMouse.c **** }
 149              		.loc 1 146 1 view .LVU29
 150 009e 10BD     		pop	{r4, pc}
 151              	.L6:
 113:Core/Src/Main/MicroMouse.c **** 		Sla.Pre = 8;//2;
 152              		.loc 1 113 3 is_stmt 1 view .LVU30
 113:Core/Src/Main/MicroMouse.c **** 		Sla.Pre = 8;//2;
 153              		.loc 1 113 18 is_stmt 0 view .LVU31
 154 00a0 204B     		ldr	r3, .L9+20
 155 00a2 274A     		ldr	r2, .L9+48
 156 00a4 1A60     		str	r2, [r3]	@ float
 114:Core/Src/Main/MicroMouse.c **** 		Sla.Fol = 12;
 157              		.loc 1 114 3 is_stmt 1 view .LVU32
 114:Core/Src/Main/MicroMouse.c **** 		Sla.Fol = 12;
 158              		.loc 1 114 11 is_stmt 0 view .LVU33
 159 00a6 204B     		ldr	r3, .L9+24
 160 00a8 4FF08242 		mov	r2, #1090519040
 161 00ac 1A60     		str	r2, [r3]	@ float
 115:Core/Src/Main/MicroMouse.c **** 		Sla.Alpha = 0.043;
 162              		.loc 1 115 3 is_stmt 1 view .LVU34
 115:Core/Src/Main/MicroMouse.c **** 		Sla.Alpha = 0.043;
 163              		.loc 1 115 11 is_stmt 0 view .LVU35
 164 00ae 254A     		ldr	r2, .L9+52
 165 00b0 5A60     		str	r2, [r3, #4]	@ float
 116:Core/Src/Main/MicroMouse.c **** 		Sla.Theta1 = 30;
 166              		.loc 1 116 3 is_stmt 1 view .LVU36
 116:Core/Src/Main/MicroMouse.c **** 		Sla.Theta1 = 30;
 167              		.loc 1 116 13 is_stmt 0 view .LVU37
 168 00b2 254A     		ldr	r2, .L9+56
 169 00b4 9A60     		str	r2, [r3, #8]	@ float
 117:Core/Src/Main/MicroMouse.c **** 		Sla.Theta2 = 60;
 170              		.loc 1 117 3 is_stmt 1 view .LVU38
 117:Core/Src/Main/MicroMouse.c **** 		Sla.Theta2 = 60;
 171              		.loc 1 117 14 is_stmt 0 view .LVU39
 172 00b6 204A     		ldr	r2, .L9+40
 173 00b8 1A61     		str	r2, [r3, #16]	@ float
 118:Core/Src/Main/MicroMouse.c **** 		Sla.Theta3 = 90;
 174              		.loc 1 118 3 is_stmt 1 view .LVU40
 118:Core/Src/Main/MicroMouse.c **** 		Sla.Theta3 = 90;
 175              		.loc 1 118 14 is_stmt 0 view .LVU41
 176 00ba 204A     		ldr	r2, .L9+44
 177 00bc 5A61     		str	r2, [r3, #20]	@ float
 119:Core/Src/Main/MicroMouse.c **** 		break;
 178              		.loc 1 119 3 is_stmt 1 view .LVU42
 119:Core/Src/Main/MicroMouse.c **** 		break;
 179              		.loc 1 119 14 is_stmt 0 view .LVU43
 180 00be 184A     		ldr	r2, .L9+16
 181 00c0 9A61     		str	r2, [r3, #24]	@ float
 120:Core/Src/Main/MicroMouse.c **** 	case 3:
 182              		.loc 1 120 3 is_stmt 1 view .LVU44
ARM GAS  C:\Users\leopi\AppData\Local\Temp\ccgcmXMf.s 			page 7


 183 00c2 B4E7     		b	.L2
 184              	.L5:
 122:Core/Src/Main/MicroMouse.c **** 		Sla.Pre = 8;//2;
 185              		.loc 1 122 3 view .LVU45
 122:Core/Src/Main/MicroMouse.c **** 		Sla.Pre = 8;//2;
 186              		.loc 1 122 18 is_stmt 0 view .LVU46
 187 00c4 174B     		ldr	r3, .L9+20
 188 00c6 214A     		ldr	r2, .L9+60
 189 00c8 1A60     		str	r2, [r3]	@ float
 123:Core/Src/Main/MicroMouse.c **** 		Sla.Fol = 12; //16
 190              		.loc 1 123 3 is_stmt 1 view .LVU47
 123:Core/Src/Main/MicroMouse.c **** 		Sla.Fol = 12; //16
 191              		.loc 1 123 11 is_stmt 0 view .LVU48
 192 00ca 174B     		ldr	r3, .L9+24
 193 00cc 4FF08242 		mov	r2, #1090519040
 194 00d0 1A60     		str	r2, [r3]	@ float
 124:Core/Src/Main/MicroMouse.c **** 		Sla.Alpha = 0.078;
 195              		.loc 1 124 3 is_stmt 1 view .LVU49
 124:Core/Src/Main/MicroMouse.c **** 		Sla.Alpha = 0.078;
 196              		.loc 1 124 11 is_stmt 0 view .LVU50
 197 00d2 1C4A     		ldr	r2, .L9+52
 198 00d4 5A60     		str	r2, [r3, #4]	@ float
 125:Core/Src/Main/MicroMouse.c **** 		Sla.Theta1 = 30;
 199              		.loc 1 125 3 is_stmt 1 view .LVU51
 125:Core/Src/Main/MicroMouse.c **** 		Sla.Theta1 = 30;
 200              		.loc 1 125 13 is_stmt 0 view .LVU52
 201 00d6 1E4A     		ldr	r2, .L9+64
 202 00d8 9A60     		str	r2, [r3, #8]	@ float
 126:Core/Src/Main/MicroMouse.c **** 		Sla.Theta2 = 60;
 203              		.loc 1 126 3 is_stmt 1 view .LVU53
 126:Core/Src/Main/MicroMouse.c **** 		Sla.Theta2 = 60;
 204              		.loc 1 126 14 is_stmt 0 view .LVU54
 205 00da 174A     		ldr	r2, .L9+40
 206 00dc 1A61     		str	r2, [r3, #16]	@ float
 127:Core/Src/Main/MicroMouse.c **** 		Sla.Theta3 = 90;
 207              		.loc 1 127 3 is_stmt 1 view .LVU55
 127:Core/Src/Main/MicroMouse.c **** 		Sla.Theta3 = 90;
 208              		.loc 1 127 14 is_stmt 0 view .LVU56
 209 00de 174A     		ldr	r2, .L9+44
 210 00e0 5A61     		str	r2, [r3, #20]	@ float
 128:Core/Src/Main/MicroMouse.c **** 		break;
 211              		.loc 1 128 3 is_stmt 1 view .LVU57
 128:Core/Src/Main/MicroMouse.c **** 		break;
 212              		.loc 1 128 14 is_stmt 0 view .LVU58
 213 00e2 0F4A     		ldr	r2, .L9+16
 214 00e4 9A61     		str	r2, [r3, #24]	@ float
 129:Core/Src/Main/MicroMouse.c **** 	case 4:
 215              		.loc 1 129 3 is_stmt 1 view .LVU59
 216 00e6 A2E7     		b	.L2
 217              	.L3:
 131:Core/Src/Main/MicroMouse.c **** 		Sla.Pre = 3;
 218              		.loc 1 131 3 view .LVU60
 131:Core/Src/Main/MicroMouse.c **** 		Sla.Pre = 3;
 219              		.loc 1 131 18 is_stmt 0 view .LVU61
 220 00e8 0E4B     		ldr	r3, .L9+20
 221 00ea 1A4A     		ldr	r2, .L9+68
 222 00ec 1A60     		str	r2, [r3]	@ float
ARM GAS  C:\Users\leopi\AppData\Local\Temp\ccgcmXMf.s 			page 8


 132:Core/Src/Main/MicroMouse.c **** 		Sla.Fol = 5;
 223              		.loc 1 132 3 is_stmt 1 view .LVU62
 132:Core/Src/Main/MicroMouse.c **** 		Sla.Fol = 5;
 224              		.loc 1 132 11 is_stmt 0 view .LVU63
 225 00ee 0E4B     		ldr	r3, .L9+24
 226 00f0 194A     		ldr	r2, .L9+72
 227 00f2 1A60     		str	r2, [r3]	@ float
 133:Core/Src/Main/MicroMouse.c **** 		Sla.Alpha = 0.117;
 228              		.loc 1 133 3 is_stmt 1 view .LVU64
 133:Core/Src/Main/MicroMouse.c **** 		Sla.Alpha = 0.117;
 229              		.loc 1 133 11 is_stmt 0 view .LVU65
 230 00f4 194A     		ldr	r2, .L9+76
 231 00f6 5A60     		str	r2, [r3, #4]	@ float
 134:Core/Src/Main/MicroMouse.c **** 		Sla.Theta1 = 30;
 232              		.loc 1 134 3 is_stmt 1 view .LVU66
 134:Core/Src/Main/MicroMouse.c **** 		Sla.Theta1 = 30;
 233              		.loc 1 134 13 is_stmt 0 view .LVU67
 234 00f8 194A     		ldr	r2, .L9+80
 235 00fa 9A60     		str	r2, [r3, #8]	@ float
 135:Core/Src/Main/MicroMouse.c **** 		Sla.Theta2 = 60;
 236              		.loc 1 135 3 is_stmt 1 view .LVU68
 135:Core/Src/Main/MicroMouse.c **** 		Sla.Theta2 = 60;
 237              		.loc 1 135 14 is_stmt 0 view .LVU69
 238 00fc 0E4A     		ldr	r2, .L9+40
 239 00fe 1A61     		str	r2, [r3, #16]	@ float
 136:Core/Src/Main/MicroMouse.c **** 		Sla.Theta3 = 90;
 240              		.loc 1 136 3 is_stmt 1 view .LVU70
 136:Core/Src/Main/MicroMouse.c **** 		Sla.Theta3 = 90;
 241              		.loc 1 136 14 is_stmt 0 view .LVU71
 242 0100 0E4A     		ldr	r2, .L9+44
 243 0102 5A61     		str	r2, [r3, #20]	@ float
 137:Core/Src/Main/MicroMouse.c **** 		//		//未
 244              		.loc 1 137 3 is_stmt 1 view .LVU72
 137:Core/Src/Main/MicroMouse.c **** 		//		//未
 245              		.loc 1 137 14 is_stmt 0 view .LVU73
 246 0104 064A     		ldr	r2, .L9+16
 247 0106 9A61     		str	r2, [r3, #24]	@ float
 139:Core/Src/Main/MicroMouse.c **** 	}
 248              		.loc 1 139 3 is_stmt 1 view .LVU74
 249 0108 91E7     		b	.L2
 250              	.L10:
 251 010a 00BFAFF3 		.align	3
 251      0080
 252              	.L9:
 253 0110 540D8F9F 		.word	-1618014892
 254 0114 4AE59E40 		.word	1084155210
 255 0118 399D52A2 		.word	-1571644103
 256 011c 46DF913F 		.word	1066524486
 257 0120 0000B442 		.word	1119092736
 258 0124 00000000 		.word	.LANCHOR0
 259 0128 00000000 		.word	.LANCHOR1
 260 012c 00001041 		.word	1091567616
 261 0130 0000A041 		.word	1101004800
 262 0134 4260653C 		.word	1013276738
 263 0138 0000F041 		.word	1106247680
 264 013c 00007042 		.word	1114636288
 265 0140 00003443 		.word	1127481344
ARM GAS  C:\Users\leopi\AppData\Local\Temp\ccgcmXMf.s 			page 9


 266 0144 00004041 		.word	1094713344
 267 0148 C520303D 		.word	1026564293
 268 014c 00007043 		.word	1131413504
 269 0150 77BE9F3D 		.word	1033879159
 270 0154 00009643 		.word	1133903872
 271 0158 00004040 		.word	1077936128
 272 015c 0000A040 		.word	1084227584
 273 0160 B29DEF3D 		.word	1039113650
 274              		.cfi_endproc
 275              	.LFE238:
 277              		.section	.rodata.MouseStartAll.str1.4,"aMS",%progbits,1
 278              		.align	2
 279              	.LC0:
 280 0000 696D755F 		.ascii	"imu_check: \344\270\200\345\233\236\347\233\256: 1\343"
 280      63686563 
 280      6B3A20E4 
 280      B880E59B 
 280      9EE79BAE 
 281 0018 81AAE382 		.ascii	"\201\252\343\202\211OK: %d\015\012\000"
 281      894F4B3A 
 281      2025640D 
 281      0A00
 282 0026 0000     		.align	2
 283              	.LC1:
 284 0028 696D755F 		.ascii	"imu_check: \344\272\214\345\233\236\347\233\256: 1\343"
 284      63686563 
 284      6B3A20E4 
 284      BA8CE59B 
 284      9EE79BAE 
 285 0040 81AAE382 		.ascii	"\201\252\343\202\211OK: %d\015\012\000"
 285      894F4B3A 
 285      2025640D 
 285      0A00
 286 004e 0000     		.align	2
 287              	.LC2:
 288 0050 6779726F 		.ascii	"gyro : %f\015\012\000"
 288      203A2025 
 288      660D0A00 
 289              		.section	.text.MouseStartAll,"ax",%progbits
 290              		.align	1
 291              		.global	MouseStartAll
 292              		.syntax unified
 293              		.thumb
 294              		.thumb_func
 296              	MouseStartAll:
 297              	.LFB239:
 147:Core/Src/Main/MicroMouse.c **** #endif
 148:Core/Src/Main/MicroMouse.c **** 
 149:Core/Src/Main/MicroMouse.c **** void MouseStartAll(){
 298              		.loc 1 149 21 view -0
 299              		.cfi_startproc
 300              		@ args = 0, pretend = 0, frame = 0
 301              		@ frame_needed = 0, uses_anonymous_args = 0
 302 0000 08B5     		push	{r3, lr}
 303              	.LCFI1:
 304              		.cfi_def_cfa_offset 8
 305              		.cfi_offset 3, -8
ARM GAS  C:\Users\leopi\AppData\Local\Temp\ccgcmXMf.s 			page 10


 306              		.cfi_offset 14, -4
 150:Core/Src/Main/MicroMouse.c **** 
 151:Core/Src/Main/MicroMouse.c **** 	uint8_t imu_check;
 307              		.loc 1 151 2 view .LVU76
 152:Core/Src/Main/MicroMouse.c **** 	imu_check = IMU_init();
 308              		.loc 1 152 2 view .LVU77
 309              		.loc 1 152 14 is_stmt 0 view .LVU78
 310 0002 FFF7FEFF 		bl	IMU_init
 311              	.LVL17:
 312 0006 0146     		mov	r1, r0
 313              	.LVL18:
 153:Core/Src/Main/MicroMouse.c **** 	printf("imu_check: 一回目: 1ならOK: %d\r\n",imu_check);
 314              		.loc 1 153 2 is_stmt 1 view .LVU79
 315 0008 1648     		ldr	r0, .L13
 316 000a FFF7FEFF 		bl	printf
 317              	.LVL19:
 154:Core/Src/Main/MicroMouse.c **** 	
 155:Core/Src/Main/MicroMouse.c **** 	//IMUから値が来なくなる現象の対策
 156:Core/Src/Main/MicroMouse.c **** 	imu_check =IMU_init();
 318              		.loc 1 156 2 view .LVU80
 319              		.loc 1 156 13 is_stmt 0 view .LVU81
 320 000e FFF7FEFF 		bl	IMU_init
 321              	.LVL20:
 322 0012 0146     		mov	r1, r0
 323              	.LVL21:
 157:Core/Src/Main/MicroMouse.c **** 	printf("imu_check: 二回目: 1ならOK: %d\r\n",imu_check);
 324              		.loc 1 157 2 is_stmt 1 view .LVU82
 325 0014 1448     		ldr	r0, .L13+4
 326 0016 FFF7FEFF 		bl	printf
 327              	.LVL22:
 158:Core/Src/Main/MicroMouse.c **** 	HAL_Delay(100);
 328              		.loc 1 158 2 view .LVU83
 329 001a 6420     		movs	r0, #100
 330 001c FFF7FEFF 		bl	HAL_Delay
 331              	.LVL23:
 159:Core/Src/Main/MicroMouse.c **** 
 160:Core/Src/Main/MicroMouse.c **** 	ZGyro = ReadIMU(0x37, 0x38);
 332              		.loc 1 160 2 view .LVU84
 333              		.loc 1 160 10 is_stmt 0 view .LVU85
 334 0020 3821     		movs	r1, #56
 335 0022 3720     		movs	r0, #55
 336 0024 FFF7FEFF 		bl	ReadIMU
 337              	.LVL24:
 338              		.loc 1 160 8 view .LVU86
 339 0028 104B     		ldr	r3, .L13+8
 340 002a 83ED000A 		vstr.32	s0, [r3]
 161:Core/Src/Main/MicroMouse.c **** 	printf("gyro : %f\r\n",ZGyro);
 341              		.loc 1 161 2 is_stmt 1 view .LVU87
 342 002e 1868     		ldr	r0, [r3]	@ float
 343 0030 FFF7FEFF 		bl	__aeabi_f2d
 344              	.LVL25:
 345 0034 0246     		mov	r2, r0
 346 0036 0B46     		mov	r3, r1
 347 0038 0D48     		ldr	r0, .L13+12
 348 003a FFF7FEFF 		bl	printf
 349              	.LVL26:
 162:Core/Src/Main/MicroMouse.c **** 
ARM GAS  C:\Users\leopi\AppData\Local\Temp\ccgcmXMf.s 			page 11


 163:Core/Src/Main/MicroMouse.c **** 		//ペリフェラルの動作開始
 164:Core/Src/Main/MicroMouse.c **** 	Motor_PWM_Start();
 350              		.loc 1 164 2 view .LVU88
 351 003e FFF7FEFF 		bl	Motor_PWM_Start
 352              	.LVL27:
 165:Core/Src/Main/MicroMouse.c **** 	EncoderStart(); //戻し忘れないように
 353              		.loc 1 165 2 view .LVU89
 354 0042 FFF7FEFF 		bl	EncoderStart
 355              	.LVL28:
 166:Core/Src/Main/MicroMouse.c **** 	EmitterON();
 356              		.loc 1 166 2 view .LVU90
 357 0046 FFF7FEFF 		bl	EmitterON
 358              	.LVL29:
 167:Core/Src/Main/MicroMouse.c **** 	ADCStart();
 359              		.loc 1 167 2 view .LVU91
 360 004a FFF7FEFF 		bl	ADCStart
 361              	.LVL30:
 168:Core/Src/Main/MicroMouse.c **** 	InitPulse( (int*)(&(TIM3->CNT)),  INITIAL_PULSE);
 362              		.loc 1 168 2 view .LVU92
 363 004e 47F22F51 		movw	r1, #29999
 364 0052 0848     		ldr	r0, .L13+16
 365 0054 FFF7FEFF 		bl	InitPulse
 366              	.LVL31:
 169:Core/Src/Main/MicroMouse.c **** 	InitPulse( (int*)(&(TIM4->CNT)),  INITIAL_PULSE);
 367              		.loc 1 169 2 view .LVU93
 368 0058 47F22F51 		movw	r1, #29999
 369 005c 0648     		ldr	r0, .L13+20
 370 005e FFF7FEFF 		bl	InitPulse
 371              	.LVL32:
 170:Core/Src/Main/MicroMouse.c **** 	
 171:Core/Src/Main/MicroMouse.c **** }
 372              		.loc 1 171 1 is_stmt 0 view .LVU94
 373 0062 08BD     		pop	{r3, pc}
 374              	.L14:
 375              		.align	2
 376              	.L13:
 377 0064 00000000 		.word	.LC0
 378 0068 28000000 		.word	.LC1
 379 006c 00000000 		.word	ZGyro
 380 0070 50000000 		.word	.LC2
 381 0074 24040040 		.word	1073742884
 382 0078 24080040 		.word	1073743908
 383              		.cfi_endproc
 384              	.LFE239:
 386              		.section	.text.MousePIDResetAll,"ax",%progbits
 387              		.align	1
 388              		.global	MousePIDResetAll
 389              		.syntax unified
 390              		.thumb
 391              		.thumb_func
 393              	MousePIDResetAll:
 394              	.LFB240:
 172:Core/Src/Main/MicroMouse.c **** void MousePIDResetAll(){
 395              		.loc 1 172 24 is_stmt 1 view -0
 396              		.cfi_startproc
 397              		@ args = 0, pretend = 0, frame = 0
 398              		@ frame_needed = 0, uses_anonymous_args = 0
ARM GAS  C:\Users\leopi\AppData\Local\Temp\ccgcmXMf.s 			page 12


 399 0000 08B5     		push	{r3, lr}
 400              	.LCFI2:
 401              		.cfi_def_cfa_offset 8
 402              		.cfi_offset 3, -8
 403              		.cfi_offset 14, -4
 173:Core/Src/Main/MicroMouse.c **** 	PIDReset(L_VELO_PID);
 404              		.loc 1 173 2 view .LVU96
 405 0002 0420     		movs	r0, #4
 406 0004 FFF7FEFF 		bl	PIDReset
 407              	.LVL33:
 174:Core/Src/Main/MicroMouse.c **** 	PIDReset(R_VELO_PID);
 408              		.loc 1 174 2 view .LVU97
 409 0008 0520     		movs	r0, #5
 410 000a FFF7FEFF 		bl	PIDReset
 411              	.LVL34:
 175:Core/Src/Main/MicroMouse.c **** 
 176:Core/Src/Main/MicroMouse.c **** 	PIDReset(A_VELO_PID);
 412              		.loc 1 176 2 view .LVU98
 413 000e 0020     		movs	r0, #0
 414 0010 FFF7FEFF 		bl	PIDReset
 415              	.LVL35:
 177:Core/Src/Main/MicroMouse.c **** 	PIDReset(L_WALL_PID);
 416              		.loc 1 177 2 view .LVU99
 417 0014 0220     		movs	r0, #2
 418 0016 FFF7FEFF 		bl	PIDReset
 419              	.LVL36:
 178:Core/Src/Main/MicroMouse.c **** 	PIDReset(R_WALL_PID);
 420              		.loc 1 178 2 view .LVU100
 421 001a 0320     		movs	r0, #3
 422 001c FFF7FEFF 		bl	PIDReset
 423              	.LVL37:
 179:Core/Src/Main/MicroMouse.c **** 	PIDReset(D_WALL_PID);
 424              		.loc 1 179 2 view .LVU101
 425 0020 0120     		movs	r0, #1
 426 0022 FFF7FEFF 		bl	PIDReset
 427              	.LVL38:
 180:Core/Src/Main/MicroMouse.c **** }
 428              		.loc 1 180 1 is_stmt 0 view .LVU102
 429 0026 08BD     		pop	{r3, pc}
 430              		.cfi_endproc
 431              	.LFE240:
 433              		.section	.text.MousePIDFlagAll,"ax",%progbits
 434              		.align	1
 435              		.global	MousePIDFlagAll
 436              		.syntax unified
 437              		.thumb
 438              		.thumb_func
 440              	MousePIDFlagAll:
 441              	.LVL39:
 442              	.LFB241:
 181:Core/Src/Main/MicroMouse.c **** void MousePIDFlagAll(_Bool high_or_low){
 443              		.loc 1 181 40 is_stmt 1 view -0
 444              		.cfi_startproc
 445              		@ args = 0, pretend = 0, frame = 0
 446              		@ frame_needed = 0, uses_anonymous_args = 0
 447              		.loc 1 181 40 is_stmt 0 view .LVU104
 448 0000 10B5     		push	{r4, lr}
ARM GAS  C:\Users\leopi\AppData\Local\Temp\ccgcmXMf.s 			page 13


 449              	.LCFI3:
 450              		.cfi_def_cfa_offset 8
 451              		.cfi_offset 4, -8
 452              		.cfi_offset 14, -4
 453 0002 0446     		mov	r4, r0
 182:Core/Src/Main/MicroMouse.c **** 	PIDChangeFlag(L_VELO_PID, high_or_low);
 454              		.loc 1 182 2 is_stmt 1 view .LVU105
 455 0004 0146     		mov	r1, r0
 456 0006 0420     		movs	r0, #4
 457              	.LVL40:
 458              		.loc 1 182 2 is_stmt 0 view .LVU106
 459 0008 FFF7FEFF 		bl	PIDChangeFlag
 460              	.LVL41:
 183:Core/Src/Main/MicroMouse.c **** 	PIDChangeFlag(R_VELO_PID, high_or_low);
 461              		.loc 1 183 2 is_stmt 1 view .LVU107
 462 000c 2146     		mov	r1, r4
 463 000e 0520     		movs	r0, #5
 464 0010 FFF7FEFF 		bl	PIDChangeFlag
 465              	.LVL42:
 184:Core/Src/Main/MicroMouse.c **** 	PIDChangeFlag(L_WALL_PID, high_or_low);
 466              		.loc 1 184 2 view .LVU108
 467 0014 2146     		mov	r1, r4
 468 0016 0220     		movs	r0, #2
 469 0018 FFF7FEFF 		bl	PIDChangeFlag
 470              	.LVL43:
 185:Core/Src/Main/MicroMouse.c **** 	PIDChangeFlag(R_WALL_PID, high_or_low);
 471              		.loc 1 185 2 view .LVU109
 472 001c 2146     		mov	r1, r4
 473 001e 0320     		movs	r0, #3
 474 0020 FFF7FEFF 		bl	PIDChangeFlag
 475              	.LVL44:
 186:Core/Src/Main/MicroMouse.c **** 	PIDChangeFlag(D_WALL_PID, high_or_low);
 476              		.loc 1 186 2 view .LVU110
 477 0024 2146     		mov	r1, r4
 478 0026 0120     		movs	r0, #1
 479 0028 FFF7FEFF 		bl	PIDChangeFlag
 480              	.LVL45:
 187:Core/Src/Main/MicroMouse.c **** 	//PIDChangeFlag(B_VELO, 0);
 188:Core/Src/Main/MicroMouse.c **** 	PIDChangeFlag(A_VELO_PID, high_or_low);
 481              		.loc 1 188 2 view .LVU111
 482 002c 2146     		mov	r1, r4
 483 002e 0020     		movs	r0, #0
 484 0030 FFF7FEFF 		bl	PIDChangeFlag
 485              	.LVL46:
 189:Core/Src/Main/MicroMouse.c **** }
 486              		.loc 1 189 1 is_stmt 0 view .LVU112
 487 0034 10BD     		pop	{r4, pc}
 488              		.cfi_endproc
 489              	.LFE241:
 491              		.section	.text.MouseResetTotalPulses,"ax",%progbits
 492              		.align	1
 493              		.global	MouseResetTotalPulses
 494              		.syntax unified
 495              		.thumb
 496              		.thumb_func
 498              	MouseResetTotalPulses:
 499              	.LFB242:
ARM GAS  C:\Users\leopi\AppData\Local\Temp\ccgcmXMf.s 			page 14


 190:Core/Src/Main/MicroMouse.c **** void MouseResetTotalPulses(){
 500              		.loc 1 190 29 is_stmt 1 view -0
 501              		.cfi_startproc
 502              		@ args = 0, pretend = 0, frame = 0
 503              		@ frame_needed = 0, uses_anonymous_args = 0
 504              		@ link register save eliminated.
 191:Core/Src/Main/MicroMouse.c **** 	TotalPulse[BODY] = 0;
 505              		.loc 1 191 2 view .LVU114
 506              		.loc 1 191 19 is_stmt 0 view .LVU115
 507 0000 024B     		ldr	r3, .L20
 508 0002 0022     		movs	r2, #0
 509 0004 9A60     		str	r2, [r3, #8]
 192:Core/Src/Main/MicroMouse.c **** 	TotalPulse[LEFT] = 0;
 510              		.loc 1 192 2 is_stmt 1 view .LVU116
 511              		.loc 1 192 19 is_stmt 0 view .LVU117
 512 0006 1A60     		str	r2, [r3]
 193:Core/Src/Main/MicroMouse.c **** 	TotalPulse[RIGHT] = 0;
 513              		.loc 1 193 2 is_stmt 1 view .LVU118
 514              		.loc 1 193 20 is_stmt 0 view .LVU119
 515 0008 5A60     		str	r2, [r3, #4]
 194:Core/Src/Main/MicroMouse.c **** }
 516              		.loc 1 194 1 view .LVU120
 517 000a 7047     		bx	lr
 518              	.L21:
 519              		.align	2
 520              	.L20:
 521 000c 00000000 		.word	.LANCHOR2
 522              		.cfi_endproc
 523              	.LFE242:
 525              		.section	.text.MouseResetParameters,"ax",%progbits
 526              		.align	1
 527              		.global	MouseResetParameters
 528              		.syntax unified
 529              		.thumb
 530              		.thumb_func
 532              	MouseResetParameters:
 533              	.LFB243:
 195:Core/Src/Main/MicroMouse.c **** 
 196:Core/Src/Main/MicroMouse.c **** void MouseResetParameters(){
 534              		.loc 1 196 28 is_stmt 1 view -0
 535              		.cfi_startproc
 536              		@ args = 0, pretend = 0, frame = 0
 537              		@ frame_needed = 0, uses_anonymous_args = 0
 538 0000 08B5     		push	{r3, lr}
 539              	.LCFI4:
 540              		.cfi_def_cfa_offset 8
 541              		.cfi_offset 3, -8
 542              		.cfi_offset 14, -4
 197:Core/Src/Main/MicroMouse.c **** 	MouseResetTotalPulses();
 543              		.loc 1 197 2 view .LVU122
 544 0002 FFF7FEFF 		bl	MouseResetTotalPulses
 545              	.LVL47:
 198:Core/Src/Main/MicroMouse.c **** 	TargetVelocity[BODY] = 0;
 546              		.loc 1 198 2 view .LVU123
 547              		.loc 1 198 23 is_stmt 0 view .LVU124
 548 0006 0023     		movs	r3, #0
 549 0008 0A4A     		ldr	r2, .L24
ARM GAS  C:\Users\leopi\AppData\Local\Temp\ccgcmXMf.s 			page 15


 550 000a 9360     		str	r3, [r2, #8]	@ float
 199:Core/Src/Main/MicroMouse.c **** 	TargetAngularV = 0;
 551              		.loc 1 199 2 is_stmt 1 view .LVU125
 552              		.loc 1 199 17 is_stmt 0 view .LVU126
 553 000c 0A4A     		ldr	r2, .L24+4
 554 000e 1360     		str	r3, [r2]	@ float
 200:Core/Src/Main/MicroMouse.c **** 	Acceleration = 0;
 555              		.loc 1 200 2 is_stmt 1 view .LVU127
 556              		.loc 1 200 15 is_stmt 0 view .LVU128
 557 0010 0A4A     		ldr	r2, .L24+8
 558 0012 1360     		str	r3, [r2]	@ float
 201:Core/Src/Main/MicroMouse.c **** 	AngularAcceleration = 0;
 559              		.loc 1 201 2 is_stmt 1 view .LVU129
 560              		.loc 1 201 22 is_stmt 0 view .LVU130
 561 0014 0A4A     		ldr	r2, .L24+12
 562 0016 1360     		str	r3, [r2]	@ float
 202:Core/Src/Main/MicroMouse.c **** 	TargetAngle = 0;
 563              		.loc 1 202 2 is_stmt 1 view .LVU131
 564              		.loc 1 202 14 is_stmt 0 view .LVU132
 565 0018 0A4A     		ldr	r2, .L24+16
 566 001a 1360     		str	r3, [r2]	@ float
 203:Core/Src/Main/MicroMouse.c **** 	Angle = 0;
 567              		.loc 1 203 2 is_stmt 1 view .LVU133
 568              		.loc 1 203 8 is_stmt 0 view .LVU134
 569 001c 0A4A     		ldr	r2, .L24+20
 570 001e 1360     		str	r3, [r2]	@ float
 204:Core/Src/Main/MicroMouse.c **** 		//両壁の値を取得。それぞれの値と差分を制御目標に反映。
 205:Core/Src/Main/MicroMouse.c **** //	TargetPhoto[SL] = Photo[SL];//439.600006;//THRESHOLD_SL;
 206:Core/Src/Main/MicroMouse.c **** //	TargetPhoto[SIDE_R] = Photo[SIDE_R];//294.299988;//THRESHOLD_SR;
 207:Core/Src/Main/MicroMouse.c **** //	PhotoDiff = TargetPhoto[SL] - TargetPhoto[SIDE_R];
 208:Core/Src/Main/MicroMouse.c **** 	TargetPhoto[SL] = 370;//439.600006;//THRESHOLD_SL;
 571              		.loc 1 208 2 is_stmt 1 view .LVU135
 572              		.loc 1 208 18 is_stmt 0 view .LVU136
 573 0020 0A4B     		ldr	r3, .L24+24
 574 0022 0B4A     		ldr	r2, .L24+28
 575 0024 9A60     		str	r2, [r3, #8]	@ float
 209:Core/Src/Main/MicroMouse.c **** 	TargetPhoto[SIDE_R] = 300;//294.299988;//THRESHOLD_SR;
 576              		.loc 1 209 2 is_stmt 1 view .LVU137
 577              		.loc 1 209 22 is_stmt 0 view .LVU138
 578 0026 0B4A     		ldr	r2, .L24+32
 579 0028 5A60     		str	r2, [r3, #4]	@ float
 210:Core/Src/Main/MicroMouse.c **** 	PhotoDiff = 70;
 580              		.loc 1 210 2 is_stmt 1 view .LVU139
 581              		.loc 1 210 12 is_stmt 0 view .LVU140
 582 002a 0B4B     		ldr	r3, .L24+36
 583 002c 0B4A     		ldr	r2, .L24+40
 584 002e 1A60     		str	r2, [r3]	@ float
 211:Core/Src/Main/MicroMouse.c **** }
 585              		.loc 1 211 1 view .LVU141
 586 0030 08BD     		pop	{r3, pc}
 587              	.L25:
 588 0032 00BF     		.align	2
 589              	.L24:
 590 0034 00000000 		.word	.LANCHOR3
 591 0038 00000000 		.word	.LANCHOR4
 592 003c 00000000 		.word	.LANCHOR5
 593 0040 00000000 		.word	.LANCHOR6
ARM GAS  C:\Users\leopi\AppData\Local\Temp\ccgcmXMf.s 			page 16


 594 0044 00000000 		.word	.LANCHOR7
 595 0048 00000000 		.word	.LANCHOR8
 596 004c 00000000 		.word	.LANCHOR9
 597 0050 0000B943 		.word	1136197632
 598 0054 00009643 		.word	1133903872
 599 0058 00000000 		.word	.LANCHOR10
 600 005c 00008C42 		.word	1116471296
 601              		.cfi_endproc
 602              	.LFE243:
 604              		.section	.text.MouseInit,"ax",%progbits
 605              		.align	1
 606              		.global	MouseInit
 607              		.syntax unified
 608              		.thumb
 609              		.thumb_func
 611              	MouseInit:
 612              	.LFB244:
 212:Core/Src/Main/MicroMouse.c **** void MouseInit(){
 613              		.loc 1 212 17 is_stmt 1 view -0
 614              		.cfi_startproc
 615              		@ args = 0, pretend = 0, frame = 0
 616              		@ frame_needed = 0, uses_anonymous_args = 0
 617 0000 08B5     		push	{r3, lr}
 618              	.LCFI5:
 619              		.cfi_def_cfa_offset 8
 620              		.cfi_offset 3, -8
 621              		.cfi_offset 14, -4
 213:Core/Src/Main/MicroMouse.c **** 	//	Load_Gain();
 214:Core/Src/Main/MicroMouse.c **** 	MouseStartAll(); //各デバイスの起動
 622              		.loc 1 214 2 view .LVU143
 623 0002 FFF7FEFF 		bl	MouseStartAll
 624              	.LVL48:
 215:Core/Src/Main/MicroMouse.c **** 	HAL_TIM_Base_Start_IT(&htim1);//割り込みを有効化
 625              		.loc 1 215 2 view .LVU144
 626 0006 0748     		ldr	r0, .L28
 627 0008 FFF7FEFF 		bl	HAL_TIM_Base_Start_IT
 628              	.LVL49:
 216:Core/Src/Main/MicroMouse.c **** 	HAL_TIM_Base_Start_IT(&htim8);
 629              		.loc 1 216 2 view .LVU145
 630 000c 0648     		ldr	r0, .L28+4
 631 000e FFF7FEFF 		bl	HAL_TIM_Base_Start_IT
 632              	.LVL50:
 217:Core/Src/Main/MicroMouse.c **** 
 218:Core/Src/Main/MicroMouse.c **** 	MousePIDFlagAll(false);
 633              		.loc 1 218 2 view .LVU146
 634 0012 0020     		movs	r0, #0
 635 0014 FFF7FEFF 		bl	MousePIDFlagAll
 636              	.LVL51:
 219:Core/Src/Main/MicroMouse.c **** 	MousePIDResetAll();
 637              		.loc 1 219 2 view .LVU147
 638 0018 FFF7FEFF 		bl	MousePIDResetAll
 639              	.LVL52:
 220:Core/Src/Main/MicroMouse.c **** 
 221:Core/Src/Main/MicroMouse.c **** 	MouseResetParameters();
 640              		.loc 1 221 2 view .LVU148
 641 001c FFF7FEFF 		bl	MouseResetParameters
 642              	.LVL53:
ARM GAS  C:\Users\leopi\AppData\Local\Temp\ccgcmXMf.s 			page 17


 222:Core/Src/Main/MicroMouse.c **** }
 643              		.loc 1 222 1 is_stmt 0 view .LVU149
 644 0020 08BD     		pop	{r3, pc}
 645              	.L29:
 646 0022 00BF     		.align	2
 647              	.L28:
 648 0024 00000000 		.word	htim1
 649 0028 00000000 		.word	htim8
 650              		.cfi_endproc
 651              	.LFE244:
 653              		.global	__aeabi_ddiv
 654              		.section	.text.setTurnParam,"ax",%progbits
 655              		.align	1
 656              		.global	setTurnParam
 657              		.syntax unified
 658              		.thumb
 659              		.thumb_func
 661              	setTurnParam:
 662              	.LVL54:
 663              	.LFB245:
 223:Core/Src/Main/MicroMouse.c **** 
 224:Core/Src/Main/MicroMouse.c **** slalom_parameter fast90diagonal, fast45, fast45reverse, fast90, fast180, fast135, fast135reverse;
 225:Core/Src/Main/MicroMouse.c **** 
 226:Core/Src/Main/MicroMouse.c **** void setTurnParam(slalom_parameter *param, float pre, float fol, float theta1, float theta2, float 
 664              		.loc 1 226 120 is_stmt 1 view -0
 665              		.cfi_startproc
 666              		@ args = 0, pretend = 0, frame = 0
 667              		@ frame_needed = 0, uses_anonymous_args = 0
 668              		.loc 1 226 120 is_stmt 0 view .LVU151
 669 0000 F8B5     		push	{r3, r4, r5, r6, r7, lr}
 670              	.LCFI6:
 671              		.cfi_def_cfa_offset 24
 672              		.cfi_offset 3, -24
 673              		.cfi_offset 4, -20
 674              		.cfi_offset 5, -16
 675              		.cfi_offset 6, -12
 676              		.cfi_offset 7, -8
 677              		.cfi_offset 14, -4
 678 0002 2DED028B 		vpush.64	{d8}
 679              	.LCFI7:
 680              		.cfi_def_cfa_offset 32
 681              		.cfi_offset 80, -32
 682              		.cfi_offset 81, -28
 683 0006 0446     		mov	r4, r0
 684 0008 B0EE608A 		vmov.f32	s16, s1
 685 000c 11EE107A 		vmov	r7, s2
 686 0010 11EE906A 		vmov	r6, s3
 687 0014 12EE105A 		vmov	r5, s4
 688 0018 F0EE628A 		vmov.f32	s17, s5
 227:Core/Src/Main/MicroMouse.c **** 	param->Pre = pre *2/MM_PER_PULSE;
 689              		.loc 1 227 2 is_stmt 1 view .LVU152
 690              		.loc 1 227 19 is_stmt 0 view .LVU153
 691 001c 70EE007A 		vadd.f32	s15, s0, s0
 692 0020 17EE900A 		vmov	r0, s15
 693              	.LVL55:
 694              		.loc 1 227 19 view .LVU154
 695 0024 FFF7FEFF 		bl	__aeabi_f2d
ARM GAS  C:\Users\leopi\AppData\Local\Temp\ccgcmXMf.s 			page 18


 696              	.LVL56:
 697              		.loc 1 227 21 view .LVU155
 698 0028 31A3     		adr	r3, .L32+16
 699 002a D3E90023 		ldrd	r2, [r3]
 700 002e FFF7FEFF 		bl	__aeabi_ddiv
 701              	.LVL57:
 702 0032 FFF7FEFF 		bl	__aeabi_d2f
 703              	.LVL58:
 704              		.loc 1 227 13 view .LVU156
 705 0036 2060     		str	r0, [r4]	@ float
 228:Core/Src/Main/MicroMouse.c **** 	param->Fol = fol *2/MM_PER_PULSE;
 706              		.loc 1 228 2 is_stmt 1 view .LVU157
 707              		.loc 1 228 19 is_stmt 0 view .LVU158
 708 0038 78EE087A 		vadd.f32	s15, s16, s16
 709 003c 17EE900A 		vmov	r0, s15
 710 0040 FFF7FEFF 		bl	__aeabi_f2d
 711              	.LVL59:
 712              		.loc 1 228 21 view .LVU159
 713 0044 2AA3     		adr	r3, .L32+16
 714 0046 D3E90023 		ldrd	r2, [r3]
 715 004a FFF7FEFF 		bl	__aeabi_ddiv
 716              	.LVL60:
 717 004e FFF7FEFF 		bl	__aeabi_d2f
 718              	.LVL61:
 719              		.loc 1 228 13 view .LVU160
 720 0052 6060     		str	r0, [r4, #4]	@ float
 229:Core/Src/Main/MicroMouse.c **** 	param->Theta1 = theta1 *M_PI/180;
 721              		.loc 1 229 2 is_stmt 1 view .LVU161
 722              		.loc 1 229 25 is_stmt 0 view .LVU162
 723 0054 3846     		mov	r0, r7	@ float
 724 0056 FFF7FEFF 		bl	__aeabi_f2d
 725              	.LVL62:
 726 005a 21A3     		adr	r3, .L32
 727 005c D3E90023 		ldrd	r2, [r3]
 728 0060 FFF7FEFF 		bl	__aeabi_dmul
 729              	.LVL63:
 730              		.loc 1 229 30 view .LVU163
 731 0064 0022     		movs	r2, #0
 732 0066 204B     		ldr	r3, .L32+8
 733 0068 FFF7FEFF 		bl	__aeabi_ddiv
 734              	.LVL64:
 735 006c FFF7FEFF 		bl	__aeabi_d2f
 736              	.LVL65:
 737              		.loc 1 229 16 view .LVU164
 738 0070 2061     		str	r0, [r4, #16]	@ float
 230:Core/Src/Main/MicroMouse.c **** 	param->Theta2 = theta2 *M_PI/180;
 739              		.loc 1 230 2 is_stmt 1 view .LVU165
 740              		.loc 1 230 25 is_stmt 0 view .LVU166
 741 0072 3046     		mov	r0, r6	@ float
 742 0074 FFF7FEFF 		bl	__aeabi_f2d
 743              	.LVL66:
 744 0078 19A3     		adr	r3, .L32
 745 007a D3E90023 		ldrd	r2, [r3]
 746 007e FFF7FEFF 		bl	__aeabi_dmul
 747              	.LVL67:
 748              		.loc 1 230 30 view .LVU167
 749 0082 0022     		movs	r2, #0
ARM GAS  C:\Users\leopi\AppData\Local\Temp\ccgcmXMf.s 			page 19


 750 0084 184B     		ldr	r3, .L32+8
 751 0086 FFF7FEFF 		bl	__aeabi_ddiv
 752              	.LVL68:
 753 008a FFF7FEFF 		bl	__aeabi_d2f
 754              	.LVL69:
 755              		.loc 1 230 16 view .LVU168
 756 008e 6061     		str	r0, [r4, #20]	@ float
 231:Core/Src/Main/MicroMouse.c **** 	param->Theta3 = theta3 *M_PI/180;
 757              		.loc 1 231 2 is_stmt 1 view .LVU169
 758              		.loc 1 231 25 is_stmt 0 view .LVU170
 759 0090 2846     		mov	r0, r5	@ float
 760 0092 FFF7FEFF 		bl	__aeabi_f2d
 761              	.LVL70:
 762 0096 12A3     		adr	r3, .L32
 763 0098 D3E90023 		ldrd	r2, [r3]
 764 009c FFF7FEFF 		bl	__aeabi_dmul
 765              	.LVL71:
 766              		.loc 1 231 30 view .LVU171
 767 00a0 0022     		movs	r2, #0
 768 00a2 114B     		ldr	r3, .L32+8
 769 00a4 FFF7FEFF 		bl	__aeabi_ddiv
 770              	.LVL72:
 771 00a8 FFF7FEFF 		bl	__aeabi_d2f
 772              	.LVL73:
 773              		.loc 1 231 16 view .LVU172
 774 00ac A061     		str	r0, [r4, #24]	@ float
 232:Core/Src/Main/MicroMouse.c **** 	param->Alpha = alpha *T1*M_PI/180;
 775              		.loc 1 232 2 is_stmt 1 view .LVU173
 776              		.loc 1 232 23 is_stmt 0 view .LVU174
 777 00ae DFED0F7A 		vldr.32	s15, .L32+12
 778 00b2 68EEA77A 		vmul.f32	s15, s17, s15
 779 00b6 17EE900A 		vmov	r0, s15
 780 00ba FFF7FEFF 		bl	__aeabi_f2d
 781              	.LVL74:
 782              		.loc 1 232 26 view .LVU175
 783 00be 08A3     		adr	r3, .L32
 784 00c0 D3E90023 		ldrd	r2, [r3]
 785 00c4 FFF7FEFF 		bl	__aeabi_dmul
 786              	.LVL75:
 787              		.loc 1 232 31 view .LVU176
 788 00c8 0022     		movs	r2, #0
 789 00ca 074B     		ldr	r3, .L32+8
 790 00cc FFF7FEFF 		bl	__aeabi_ddiv
 791              	.LVL76:
 792 00d0 FFF7FEFF 		bl	__aeabi_d2f
 793              	.LVL77:
 794              		.loc 1 232 15 view .LVU177
 795 00d4 A060     		str	r0, [r4, #8]	@ float
 233:Core/Src/Main/MicroMouse.c **** }
 796              		.loc 1 233 1 view .LVU178
 797 00d6 BDEC028B 		vldm	sp!, {d8}
 798              	.LCFI8:
 799              		.cfi_restore 80
 800              		.cfi_restore 81
 801              		.cfi_def_cfa_offset 24
 802              	.LVL78:
 803              		.loc 1 233 1 view .LVU179
ARM GAS  C:\Users\leopi\AppData\Local\Temp\ccgcmXMf.s 			page 20


 804 00da F8BD     		pop	{r3, r4, r5, r6, r7, pc}
 805              	.LVL79:
 806              	.L33:
 807              		.loc 1 233 1 view .LVU180
 808 00dc AFF30080 		.align	3
 809              	.L32:
 810 00e0 182D4454 		.word	1413754136
 811 00e4 FB210940 		.word	1074340347
 812 00e8 00806640 		.word	1080459264
 813 00ec 6F12833A 		.word	981668463
 814 00f0 6626CA23 		.word	600450662
 815 00f4 6892503F 		.word	1062244968
 816              		.cfi_endproc
 817              	.LFE245:
 819              		.section	.text.setFastDiagonalParam,"ax",%progbits
 820              		.align	1
 821              		.global	setFastDiagonalParam
 822              		.syntax unified
 823              		.thumb
 824              		.thumb_func
 826              	setFastDiagonalParam:
 827              	.LVL80:
 828              	.LFB246:
 234:Core/Src/Main/MicroMouse.c **** 
 235:Core/Src/Main/MicroMouse.c **** void setFastDiagonalParam(int n){ //引数で0~7?個くらいのパラメータから選ぶ
 829              		.loc 1 235 33 is_stmt 1 view -0
 830              		.cfi_startproc
 831              		@ args = 0, pretend = 0, frame = 0
 832              		@ frame_needed = 0, uses_anonymous_args = 0
 236:Core/Src/Main/MicroMouse.c **** 	//300mm/sのパラメータ
 237:Core/Src/Main/MicroMouse.c **** 	switch(n){
 833              		.loc 1 237 2 view .LVU182
 834 0000 00B1     		cbz	r0, .L40
 835 0002 7047     		bx	lr
 836              	.L40:
 235:Core/Src/Main/MicroMouse.c **** 	//300mm/sのパラメータ
 837              		.loc 1 235 33 is_stmt 0 view .LVU183
 838 0004 08B5     		push	{r3, lr}
 839              	.LCFI9:
 840              		.cfi_def_cfa_offset 8
 841              		.cfi_offset 3, -8
 842              		.cfi_offset 14, -4
 843 0006 2DED068B 		vpush.64	{d8, d9, d10}
 844              	.LCFI10:
 845              		.cfi_def_cfa_offset 32
 846              		.cfi_offset 80, -32
 847              		.cfi_offset 81, -28
 848              		.cfi_offset 82, -24
 849              		.cfi_offset 83, -20
 850              		.cfi_offset 84, -16
 851              		.cfi_offset 85, -12
 238:Core/Src/Main/MicroMouse.c **** 		case 0:
 239:Core/Src/Main/MicroMouse.c **** 			setTurnParam(&fast45, 			4, 22, 15,30,45,2750);
 852              		.loc 1 239 4 is_stmt 1 view .LVU184
 853 000a DFED3F8A 		vldr.32	s17, .L41
 854 000e 9FED3F8A 		vldr.32	s16, .L41+4
 855 0012 F0EE682A 		vmov.f32	s5, s17
ARM GAS  C:\Users\leopi\AppData\Local\Temp\ccgcmXMf.s 			page 21


 856 0016 B0EE482A 		vmov.f32	s4, s16
 857 001a F3EE0E1A 		vmov.f32	s3, #3.0e+1
 858 001e B2EE0E1A 		vmov.f32	s2, #1.5e+1
 859 0022 F3EE060A 		vmov.f32	s1, #2.2e+1
 860 0026 B1EE000A 		vmov.f32	s0, #4.0e+0
 861 002a 3948     		ldr	r0, .L41+8
 862              	.LVL81:
 863              		.loc 1 239 4 is_stmt 0 view .LVU185
 864 002c FFF7FEFF 		bl	setTurnParam
 865              	.LVL82:
 240:Core/Src/Main/MicroMouse.c **** 			setTurnParam(&fast45reverse, 	22, 4, 15,30,45,2750);
 866              		.loc 1 240 4 is_stmt 1 view .LVU186
 867 0030 F0EE682A 		vmov.f32	s5, s17
 868 0034 B0EE482A 		vmov.f32	s4, s16
 869 0038 F3EE0E1A 		vmov.f32	s3, #3.0e+1
 870 003c B2EE0E1A 		vmov.f32	s2, #1.5e+1
 871 0040 F1EE000A 		vmov.f32	s1, #4.0e+0
 872 0044 B3EE060A 		vmov.f32	s0, #2.2e+1
 873 0048 3248     		ldr	r0, .L41+12
 874 004a FFF7FEFF 		bl	setTurnParam
 875              	.LVL83:
 241:Core/Src/Main/MicroMouse.c **** 			setTurnParam(&fast90,  0, 3, 30,60,90,1485);
 876              		.loc 1 241 4 view .LVU187
 877 004e 9FED329A 		vldr.32	s18, .L41+16
 878 0052 9FED328A 		vldr.32	s16, .L41+20
 879 0056 DFED328A 		vldr.32	s17, .L41+24
 880 005a DFED322A 		vldr.32	s5, .L41+28
 881 005e B0EE492A 		vmov.f32	s4, s18
 882 0062 F0EE481A 		vmov.f32	s3, s16
 883 0066 B3EE0E1A 		vmov.f32	s2, #3.0e+1
 884 006a F0EE080A 		vmov.f32	s1, #3.0e+0
 885 006e B0EE680A 		vmov.f32	s0, s17
 886 0072 2D48     		ldr	r0, .L41+32
 887 0074 FFF7FEFF 		bl	setTurnParam
 888              	.LVL84:
 242:Core/Src/Main/MicroMouse.c **** 			setTurnParam(&fast180, 0, 0, 60,120,180,1681.25);
 889              		.loc 1 242 4 view .LVU188
 890 0078 DFED2C2A 		vldr.32	s5, .L41+36
 891 007c 9FED2C2A 		vldr.32	s4, .L41+40
 892 0080 DFED2C1A 		vldr.32	s3, .L41+44
 893 0084 B0EE481A 		vmov.f32	s2, s16
 894 0088 F0EE680A 		vmov.f32	s1, s17
 895 008c B0EE680A 		vmov.f32	s0, s17
 896 0090 2948     		ldr	r0, .L41+48
 897 0092 FFF7FEFF 		bl	setTurnParam
 898              	.LVL85:
 243:Core/Src/Main/MicroMouse.c **** 			setTurnParam(&fast135, 			15, 12, 65,70,135, 2700);
 899              		.loc 1 243 4 view .LVU189
 900 0096 DFED29AA 		vldr.32	s21, .L41+52
 901 009a 9FED29AA 		vldr.32	s20, .L41+56
 902 009e DFED299A 		vldr.32	s19, .L41+60
 903 00a2 DFED298A 		vldr.32	s17, .L41+64
 904 00a6 F0EE6A2A 		vmov.f32	s5, s21
 905 00aa B0EE4A2A 		vmov.f32	s4, s20
 906 00ae F0EE691A 		vmov.f32	s3, s19
 907 00b2 B0EE681A 		vmov.f32	s2, s17
 908 00b6 F2EE080A 		vmov.f32	s1, #1.2e+1
ARM GAS  C:\Users\leopi\AppData\Local\Temp\ccgcmXMf.s 			page 22


 909 00ba B2EE0E0A 		vmov.f32	s0, #1.5e+1
 910 00be 2348     		ldr	r0, .L41+68
 911 00c0 FFF7FEFF 		bl	setTurnParam
 912              	.LVL86:
 244:Core/Src/Main/MicroMouse.c **** 			setTurnParam(&fast135reverse, 	12, 15, 65,70,135, 2700);
 913              		.loc 1 244 4 view .LVU190
 914 00c4 F0EE6A2A 		vmov.f32	s5, s21
 915 00c8 B0EE4A2A 		vmov.f32	s4, s20
 916 00cc F0EE691A 		vmov.f32	s3, s19
 917 00d0 B0EE681A 		vmov.f32	s2, s17
 918 00d4 F2EE0E0A 		vmov.f32	s1, #1.5e+1
 919 00d8 B2EE080A 		vmov.f32	s0, #1.2e+1
 920 00dc 1C48     		ldr	r0, .L41+72
 921 00de FFF7FEFF 		bl	setTurnParam
 922              	.LVL87:
 245:Core/Src/Main/MicroMouse.c **** 			setTurnParam(&fast90diagonal, 	16, 16, 30,60,90, 5200);
 923              		.loc 1 245 4 view .LVU191
 924 00e2 DFED1C2A 		vldr.32	s5, .L41+76
 925 00e6 B0EE492A 		vmov.f32	s4, s18
 926 00ea F0EE481A 		vmov.f32	s3, s16
 927 00ee B3EE0E1A 		vmov.f32	s2, #3.0e+1
 928 00f2 F3EE000A 		vmov.f32	s1, #1.6e+1
 929 00f6 B0EE600A 		vmov.f32	s0, s1
 930 00fa 1748     		ldr	r0, .L41+80
 931 00fc FFF7FEFF 		bl	setTurnParam
 932              	.LVL88:
 246:Core/Src/Main/MicroMouse.c **** 			break;
 933              		.loc 1 246 4 view .LVU192
 247:Core/Src/Main/MicroMouse.c **** 		default:
 248:Core/Src/Main/MicroMouse.c **** 			break;
 249:Core/Src/Main/MicroMouse.c **** 	}
 250:Core/Src/Main/MicroMouse.c **** }...
 934              		.loc 1 250 1 is_stmt 0 view .LVU193
 935 0100 BDEC068B 		vldm	sp!, {d8-d10}
 936              	.LCFI11:
 937              		.cfi_restore 84
 938              		.cfi_restore 85
 939              		.cfi_restore 82
 940              		.cfi_restore 83
 941              		.cfi_restore 80
 942              		.cfi_restore 81
 943              		.cfi_def_cfa_offset 8
 944 0104 08BD     		pop	{r3, pc}
 945              	.L42:
 946 0106 00BF     		.align	2
 947              	.L41:
 948 0108 00E02B45 		.word	1160503296
 949 010c 00003442 		.word	1110704128
 950 0110 00000000 		.word	.LANCHOR11
 951 0114 00000000 		.word	.LANCHOR12
 952 0118 0000B442 		.word	1119092736
 953 011c 00007042 		.word	1114636288
 954 0120 00000000 		.word	0
 955 0124 00A0B944 		.word	1153015808
 956 0128 00000000 		.word	.LANCHOR13
 957 012c 0028D244 		.word	1154623488
 958 0130 00003443 		.word	1127481344
ARM GAS  C:\Users\leopi\AppData\Local\Temp\ccgcmXMf.s 			page 23


 959 0134 0000F042 		.word	1123024896
 960 0138 00000000 		.word	.LANCHOR14
 961 013c 00C02845 		.word	1160298496
 962 0140 00000743 		.word	1124532224
 963 0144 00008C42 		.word	1116471296
 964 0148 00008242 		.word	1115815936
 965 014c 00000000 		.word	.LANCHOR15
 966 0150 00000000 		.word	.LANCHOR16
 967 0154 0080A245 		.word	1168277504
 968 0158 00000000 		.word	.LANCHOR17
 969              		.cfi_endproc
 970              	.LFE246:
 972              		.global	fast135reverse
 973              		.global	fast135
 974              		.global	fast180
 975              		.global	fast90
 976              		.global	fast45reverse
 977              		.global	fast45
 978              		.global	fast90diagonal
 979              		.global	Sla
 980              		.global	goal_edge_num
 981              		.global	R_motor
 982              		.global	L_motor
 983              		.global	WallLeftOut
 984              		.global	WallRightOut
 985              		.global	VelocityRightOut
 986              		.global	VelocityLeftOut
 987              		.global	ImuMileage
 988              		.global	ImuVelocity
 989              		.global	ImuAccel
 990              		.global	ImuAngle
 991              		.global	ImuAngV
 992              		.global	TargetAngle
 993              		.global	AngularLeapsity
 994              		.global	AngularAcceleration
 995              		.global	TargetAngularV
 996              		.global	Acceleration
 997              		.global	AddVelocity
 998              		.global	ExploreVelocity
 999              		.global	Angle
 1000              		.global	EncAngV
 1001              		.global	AngularV
 1002              		.global	TotalPulse
 1003              		.global	PulseDisplacement
 1004              		.global	KeepPulse
 1005              		.global	ControlTargetVelocity
 1006              		.global	TargetVelocity
 1007              		.global	CurrentVelocity
 1008              		.global	KeepCounter
 1009              		.global	PhotoDiff
 1010              		.global	TargetPhoto
 1011              		.global	Photo
 1012              		.global	SearchOrFast
 1013              		.global	Calc
 1014              		.global	VelocityMax
 1015              		.section	.bss.Acceleration,"aw",%nobits
 1016              		.align	2
ARM GAS  C:\Users\leopi\AppData\Local\Temp\ccgcmXMf.s 			page 24


 1017              		.set	.LANCHOR5,. + 0
 1020              	Acceleration:
 1021 0000 00000000 		.space	4
 1022              		.section	.bss.AddVelocity,"aw",%nobits
 1023              		.align	2
 1026              	AddVelocity:
 1027 0000 00000000 		.space	4
 1028              		.section	.bss.Angle,"aw",%nobits
 1029              		.align	2
 1030              		.set	.LANCHOR8,. + 0
 1033              	Angle:
 1034 0000 00000000 		.space	4
 1035              		.section	.bss.AngularAcceleration,"aw",%nobits
 1036              		.align	2
 1037              		.set	.LANCHOR6,. + 0
 1040              	AngularAcceleration:
 1041 0000 00000000 		.space	4
 1042              		.section	.bss.AngularLeapsity,"aw",%nobits
 1043              		.align	2
 1046              	AngularLeapsity:
 1047 0000 00000000 		.space	4
 1048              		.section	.bss.AngularV,"aw",%nobits
 1049              		.align	2
 1052              	AngularV:
 1053 0000 00000000 		.space	4
 1054              		.section	.bss.Calc,"aw",%nobits
 1055              		.align	2
 1058              	Calc:
 1059 0000 00000000 		.space	4
 1060              		.section	.bss.ControlTargetVelocity,"aw",%nobits
 1061              		.align	2
 1064              	ControlTargetVelocity:
 1065 0000 00000000 		.space	4
 1066              		.section	.bss.CurrentVelocity,"aw",%nobits
 1067              		.align	2
 1070              	CurrentVelocity:
 1071 0000 00000000 		.space	12
 1071      00000000 
 1071      00000000 
 1072              		.section	.bss.EncAngV,"aw",%nobits
 1073              		.align	2
 1076              	EncAngV:
 1077 0000 00000000 		.space	4
 1078              		.section	.bss.ExploreVelocity,"aw",%nobits
 1079              		.align	2
 1080              		.set	.LANCHOR0,. + 0
 1083              	ExploreVelocity:
 1084 0000 00000000 		.space	4
 1085              		.section	.bss.ImuAccel,"aw",%nobits
 1086              		.align	2
 1089              	ImuAccel:
 1090 0000 00000000 		.space	4
 1091              		.section	.bss.ImuAngV,"aw",%nobits
 1092              		.align	2
 1095              	ImuAngV:
 1096 0000 00000000 		.space	4
 1097              		.section	.bss.ImuAngle,"aw",%nobits
ARM GAS  C:\Users\leopi\AppData\Local\Temp\ccgcmXMf.s 			page 25


 1098              		.align	2
 1101              	ImuAngle:
 1102 0000 00000000 		.space	4
 1103              		.section	.bss.ImuMileage,"aw",%nobits
 1104              		.align	2
 1107              	ImuMileage:
 1108 0000 00000000 		.space	4
 1109              		.section	.bss.ImuVelocity,"aw",%nobits
 1110              		.align	2
 1113              	ImuVelocity:
 1114 0000 00000000 		.space	4
 1115              		.section	.bss.KeepCounter,"aw",%nobits
 1116              		.align	2
 1119              	KeepCounter:
 1120 0000 00000000 		.space	4
 1121              		.section	.bss.KeepPulse,"aw",%nobits
 1122              		.align	2
 1125              	KeepPulse:
 1126 0000 00000000 		.space	12
 1126      00000000 
 1126      00000000 
 1127              		.section	.bss.L_motor,"aw",%nobits
 1128              		.align	2
 1131              	L_motor:
 1132 0000 00000000 		.space	4
 1133              		.section	.bss.Photo,"aw",%nobits
 1134              		.align	2
 1137              	Photo:
 1138 0000 00000000 		.space	16
 1138      00000000 
 1138      00000000 
 1138      00000000 
 1139              		.section	.bss.PhotoDiff,"aw",%nobits
 1140              		.align	2
 1141              		.set	.LANCHOR10,. + 0
 1144              	PhotoDiff:
 1145 0000 00000000 		.space	4
 1146              		.section	.bss.PulseDisplacement,"aw",%nobits
 1147              		.align	2
 1150              	PulseDisplacement:
 1151 0000 00000000 		.space	12
 1151      00000000 
 1151      00000000 
 1152              		.section	.bss.R_motor,"aw",%nobits
 1153              		.align	2
 1156              	R_motor:
 1157 0000 00000000 		.space	4
 1158              		.section	.bss.SearchOrFast,"aw",%nobits
 1159              		.align	2
 1162              	SearchOrFast:
 1163 0000 00000000 		.space	4
 1164              		.section	.bss.Sla,"aw",%nobits
 1165              		.align	2
 1166              		.set	.LANCHOR1,. + 0
 1169              	Sla:
 1170 0000 00000000 		.space	28
 1170      00000000 
ARM GAS  C:\Users\leopi\AppData\Local\Temp\ccgcmXMf.s 			page 26


 1170      00000000 
 1170      00000000 
 1170      00000000 
 1171              		.section	.bss.TargetAngle,"aw",%nobits
 1172              		.align	2
 1173              		.set	.LANCHOR7,. + 0
 1176              	TargetAngle:
 1177 0000 00000000 		.space	4
 1178              		.section	.bss.TargetAngularV,"aw",%nobits
 1179              		.align	2
 1180              		.set	.LANCHOR4,. + 0
 1183              	TargetAngularV:
 1184 0000 00000000 		.space	4
 1185              		.section	.bss.TargetPhoto,"aw",%nobits
 1186              		.align	2
 1187              		.set	.LANCHOR9,. + 0
 1190              	TargetPhoto:
 1191 0000 00000000 		.space	16
 1191      00000000 
 1191      00000000 
 1191      00000000 
 1192              		.section	.bss.TargetVelocity,"aw",%nobits
 1193              		.align	2
 1194              		.set	.LANCHOR3,. + 0
 1197              	TargetVelocity:
 1198 0000 00000000 		.space	12
 1198      00000000 
 1198      00000000 
 1199              		.section	.bss.TotalPulse,"aw",%nobits
 1200              		.align	2
 1201              		.set	.LANCHOR2,. + 0
 1204              	TotalPulse:
 1205 0000 00000000 		.space	12
 1205      00000000 
 1205      00000000 
 1206              		.section	.bss.VelocityLeftOut,"aw",%nobits
 1207              		.align	2
 1210              	VelocityLeftOut:
 1211 0000 00000000 		.space	4
 1212              		.section	.bss.VelocityMax,"aw",%nobits
 1215              	VelocityMax:
 1216 0000 00       		.space	1
 1217              		.section	.bss.VelocityRightOut,"aw",%nobits
 1218              		.align	2
 1221              	VelocityRightOut:
 1222 0000 00000000 		.space	4
 1223              		.section	.bss.WallLeftOut,"aw",%nobits
 1224              		.align	2
 1227              	WallLeftOut:
 1228 0000 00000000 		.space	4
 1229              		.section	.bss.WallRightOut,"aw",%nobits
 1230              		.align	2
 1233              	WallRightOut:
 1234 0000 00000000 		.space	4
 1235              		.section	.bss.fast135,"aw",%nobits
 1236              		.align	2
 1237              		.set	.LANCHOR15,. + 0
ARM GAS  C:\Users\leopi\AppData\Local\Temp\ccgcmXMf.s 			page 27


 1240              	fast135:
 1241 0000 00000000 		.space	28
 1241      00000000 
 1241      00000000 
 1241      00000000 
 1241      00000000 
 1242              		.section	.bss.fast135reverse,"aw",%nobits
 1243              		.align	2
 1244              		.set	.LANCHOR16,. + 0
 1247              	fast135reverse:
 1248 0000 00000000 		.space	28
 1248      00000000 
 1248      00000000 
 1248      00000000 
 1248      00000000 
 1249              		.section	.bss.fast180,"aw",%nobits
 1250              		.align	2
 1251              		.set	.LANCHOR14,. + 0
 1254              	fast180:
 1255 0000 00000000 		.space	28
 1255      00000000 
 1255      00000000 
 1255      00000000 
 1255      00000000 
 1256              		.section	.bss.fast45,"aw",%nobits
 1257              		.align	2
 1258              		.set	.LANCHOR11,. + 0
 1261              	fast45:
 1262 0000 00000000 		.space	28
 1262      00000000 
 1262      00000000 
 1262      00000000 
 1262      00000000 
 1263              		.section	.bss.fast45reverse,"aw",%nobits
 1264              		.align	2
 1265              		.set	.LANCHOR12,. + 0
 1268              	fast45reverse:
 1269 0000 00000000 		.space	28
 1269      00000000 
 1269      00000000 
 1269      00000000 
 1269      00000000 
 1270              		.section	.bss.fast90,"aw",%nobits
 1271              		.align	2
 1272              		.set	.LANCHOR13,. + 0
 1275              	fast90:
 1276 0000 00000000 		.space	28
 1276      00000000 
 1276      00000000 
 1276      00000000 
 1276      00000000 
 1277              		.section	.bss.fast90diagonal,"aw",%nobits
 1278              		.align	2
 1279              		.set	.LANCHOR17,. + 0
 1282              	fast90diagonal:
 1283 0000 00000000 		.space	28
 1283      00000000 
ARM GAS  C:\Users\leopi\AppData\Local\Temp\ccgcmXMf.s 			page 28


 1283      00000000 
 1283      00000000 
 1283      00000000 
 1284              		.section	.bss.goal_edge_num,"aw",%nobits
 1287              	goal_edge_num:
 1288 0000 00       		.space	1
 1289              		.text
 1290              	.Letext0:
 1291              		.file 2 "c:\\tools\\gcc-arm-none-eabi-10_2021.10\\arm-none-eabi\\include\\machine\\_default_types.
 1292              		.file 3 "c:\\tools\\gcc-arm-none-eabi-10_2021.10\\arm-none-eabi\\include\\sys\\_stdint.h"
 1293              		.file 4 "Drivers/CMSIS/Device/ST/STM32F4xx/Include/stm32f405xx.h"
 1294              		.file 5 "Drivers/STM32F4xx_HAL_Driver/Inc/stm32f4xx_hal_def.h"
 1295              		.file 6 "Drivers/STM32F4xx_HAL_Driver/Inc/stm32f4xx_hal_dma.h"
 1296              		.file 7 "Drivers/STM32F4xx_HAL_Driver/Inc/stm32f4xx_hal_tim.h"
 1297              		.file 8 "Core/Inc/Main/MicroMouse.h"
 1298              		.file 9 "Core/Inc/HardWare/IR_Emitter.h"
 1299              		.file 10 "Core/Inc/HardWare/ICM_20648.h"
 1300              		.file 11 "Core/Inc/Tools/PID_Control.h"
 1301              		.file 12 "c:\\tools\\gcc-arm-none-eabi-10_2021.10\\arm-none-eabi\\include\\stdio.h"
 1302              		.file 13 "Drivers/STM32F4xx_HAL_Driver/Inc/stm32f4xx_hal.h"
 1303              		.file 14 "Core/Inc/HardWare/Motor_Driver.h"
 1304              		.file 15 "Core/Inc/HardWare/IEH2_4096.h"
 1305              		.file 16 "Core/Inc/HardWare/mouse_ADC.h"
 1306              		.file 17 "Core/Inc/Tools/Convert.h"
ARM GAS  C:\Users\leopi\AppData\Local\Temp\ccgcmXMf.s 			page 29

