ARM GAS  C:\Users\leopi\AppData\Local\Temp\ccXawahk.s 			page 1


   1              		.cpu cortex-m4
   2              		.arch armv7e-m
   3              		.fpu fpv4-sp-d16
   4              		.eabi_attribute 27, 1
   5              		.eabi_attribute 28, 1
   6              		.eabi_attribute 20, 1
   7              		.eabi_attribute 21, 1
   8              		.eabi_attribute 23, 3
   9              		.eabi_attribute 24, 1
  10              		.eabi_attribute 25, 1
  11              		.eabi_attribute 26, 1
  12              		.eabi_attribute 30, 1
  13              		.eabi_attribute 34, 1
  14              		.eabi_attribute 18, 4
  15              		.file	"Mode.c"
  16              		.text
  17              	.Ltext0:
  18              		.cfi_sections	.debug_frame
  19              		.section	.text.restart,"ax",%progbits
  20              		.align	1
  21              		.syntax unified
  22              		.thumb
  23              		.thumb_func
  25              	restart:
  26              	.LVL0:
  27              	.LFB243:
  28              		.file 1 "Core/Src/Main/Mode.c"
   1:Core/Src/Main/Mode.c **** /*
   2:Core/Src/Main/Mode.c ****  * Mode.c
   3:Core/Src/Main/Mode.c ****  *
   4:Core/Src/Main/Mode.c ****  *  Created on: Feb 17, 2022
   5:Core/Src/Main/Mode.c ****  *      Author: leopi
   6:Core/Src/Main/Mode.c ****  */
   7:Core/Src/Main/Mode.c **** 
   8:Core/Src/Main/Mode.c **** #include "MicroMouse.h"
   9:Core/Src/Main/Mode.c **** #include "Mode.h"
  10:Core/Src/Main/Mode.c **** 
  11:Core/Src/Main/Mode.c **** #include "IEH2_4096.h"
  12:Core/Src/Main/Mode.c **** #include "mouse_ADC.h"
  13:Core/Src/Main/Mode.c **** #include "LED_Driver.h"
  14:Core/Src/Main/Mode.c **** #include "IR_Emitter.h"
  15:Core/Src/Main/Mode.c **** #include "Motor_Driver.h"
  16:Core/Src/Main/Mode.c **** #include "ICM_20648.h"
  17:Core/Src/Main/Mode.c **** #include "Flash.h"
  18:Core/Src/Main/Mode.c **** 
  19:Core/Src/Main/Mode.c **** 
  20:Core/Src/Main/Mode.c **** #include "UI.h"
  21:Core/Src/Main/Mode.c **** #include "PID_Control.h"
  22:Core/Src/Main/Mode.c **** #include "Convert.h"
  23:Core/Src/Main/Mode.c **** #include "Debug.h"
  24:Core/Src/Main/Mode.c **** #include "Sampling.h"
  25:Core/Src/Main/Mode.c **** 
  26:Core/Src/Main/Mode.c **** #include "Interrupt.h"
  27:Core/Src/Main/Mode.c **** #include "Action.h"
  28:Core/Src/Main/Mode.c **** #include "MazeLib.h"
  29:Core/Src/Main/Mode.c **** //#include "test.h"
  30:Core/Src/Main/Mode.c **** #include "Searching.h"
ARM GAS  C:\Users\leopi\AppData\Local\Temp\ccXawahk.s 			page 2


  31:Core/Src/Main/Mode.c **** #include "Record.h"
  32:Core/Src/Main/Mode.c **** #include "dfs.h"
  33:Core/Src/Main/Mode.c **** #include "FastRun.h"
  34:Core/Src/Main/Mode.c **** 
  35:Core/Src/Main/Mode.c **** #include "Running.h"
  36:Core/Src/Main/Mode.c **** #include <main.h>
  37:Core/Src/Main/Mode.c **** #include <stdio.h>
  38:Core/Src/Main/Mode.c **** //å®Ÿç’°å¢ƒå‡¦ç†ç”¨ã«ã€ã‚°ãƒ­ãƒ¼ãƒãƒ«ãªãƒãƒƒãƒ—ãƒ‡ãƒ¼ã‚¿ã¨ãƒ—ãƒ­ãƒ•ã‚£ãƒ¼ãƒ«ã‚’ä½œæˆ
  39:Core/Src/Main/Mode.c **** 
  40:Core/Src/Main/Mode.c **** void Debug()
  41:Core/Src/Main/Mode.c **** {
  42:Core/Src/Main/Mode.c **** 	//ãƒ¢ãƒ¼ãƒ‰é¸æŠã§ãƒ‡ãƒãƒƒã‚°å¯¾è±¡ã‚’é¸æŠï¼ˆå€‹åˆ¥ãƒ‡ãƒãƒƒã‚°ã¯å„ã‚½ãƒ¼ã‚¹ã§è¨˜è¿°ï¼Ÿï¼‰
  43:Core/Src/Main/Mode.c **** 	int8_t mode=0;
  44:Core/Src/Main/Mode.c **** 	ModeSelect(0,7,&mode);
  45:Core/Src/Main/Mode.c **** 	Signal(mode);
  46:Core/Src/Main/Mode.c **** 	switch (mode)
  47:Core/Src/Main/Mode.c **** 	{
  48:Core/Src/Main/Mode.c **** 	case 0:
  49:Core/Src/Main/Mode.c **** 		//ã‚¿ãƒ¼ãƒ³ã®ãƒ‡ãƒãƒƒã‚°. ãƒ‡ãƒãƒƒã‚°ã¨ã„ã†ã‹ãƒ†ã‚¹ãƒˆã¨åŒã˜æ¦‚å¿µãªæ°—ãŒã™ã‚‹
  50:Core/Src/Main/Mode.c **** 		break;
  51:Core/Src/Main/Mode.c **** 	case 1:
  52:Core/Src/Main/Mode.c **** 		HAL_Delay(2000);
  53:Core/Src/Main/Mode.c **** 		ChangeLED(mode);		
  54:Core/Src/Main/Mode.c **** 		printPhotoSampleValue();
  55:Core/Src/Main/Mode.c **** 		ChangeLED(0);
  56:Core/Src/Main/Mode.c **** 		break;
  57:Core/Src/Main/Mode.c **** 	default:
  58:Core/Src/Main/Mode.c **** 		break;
  59:Core/Src/Main/Mode.c **** 	}
  60:Core/Src/Main/Mode.c **** 
  61:Core/Src/Main/Mode.c **** }
  62:Core/Src/Main/Mode.c **** void ParameterSetting()
  63:Core/Src/Main/Mode.c **** {
  64:Core/Src/Main/Mode.c **** 	Load_Gain();
  65:Core/Src/Main/Mode.c **** 	Change_Gain();
  66:Core/Src/Main/Mode.c **** 
  67:Core/Src/Main/Mode.c **** }
  68:Core/Src/Main/Mode.c **** 
  69:Core/Src/Main/Mode.c **** int GainSetting(int n){
  70:Core/Src/Main/Mode.c **** 
  71:Core/Src/Main/Mode.c **** 	_Bool loop_flag=true;
  72:Core/Src/Main/Mode.c **** 	while(loop_flag){
  73:Core/Src/Main/Mode.c **** 		Signal(n);
  74:Core/Src/Main/Mode.c **** 		printf("ã‚»ãƒƒãƒ†ã‚£ãƒ³ã‚°å¯¾è±¡ã®é¸æŠ\r\n");
  75:Core/Src/Main/Mode.c **** 		int8_t setting_target=0;
  76:Core/Src/Main/Mode.c **** 		ModeSelect(0, 7, &setting_target);
  77:Core/Src/Main/Mode.c **** 
  78:Core/Src/Main/Mode.c **** 		if(setting_target == 0) {
  79:Core/Src/Main/Mode.c **** 			continue;
  80:Core/Src/Main/Mode.c **** 		}
  81:Core/Src/Main/Mode.c **** 		else if(setting_target == 7) {
  82:Core/Src/Main/Mode.c **** 			printf("ãƒˆãƒƒãƒ—ã®ãƒ¢ãƒ¼ãƒ‰é¸æŠã¸\r\n");
  83:Core/Src/Main/Mode.c **** 			return 0;
  84:Core/Src/Main/Mode.c **** 		}
  85:Core/Src/Main/Mode.c **** 		else {
  86:Core/Src/Main/Mode.c **** 			ChangeLED(setting_target);
  87:Core/Src/Main/Mode.c **** 		}
ARM GAS  C:\Users\leopi\AppData\Local\Temp\ccXawahk.s 			page 3


  88:Core/Src/Main/Mode.c **** 
  89:Core/Src/Main/Mode.c **** 		//ç¾åœ¨ã®ãƒ‘ãƒ©ãƒ¡ãƒ¼ã‚¿ã‚’è¡¨ç¤ºï¼ˆåˆæœŸã®RAMã§ã‚ˆã„ï¼‰
  90:Core/Src/Main/Mode.c **** //		printParameter(setting_target);
  91:Core/Src/Main/Mode.c **** 		printf("å¯¾è±¡ã®ç¾åœ¨ã®ãƒ‘ãƒ©ãƒ¡ãƒ¼ã‚¿ã‚’è¡¨ç¤º\r\n");
  92:Core/Src/Main/Mode.c **** 
  93:Core/Src/Main/Mode.c **** 		printf("ãƒ‘ãƒ©ãƒ¡ãƒ¼ã‚¿å¤‰æ›´ã—ã¾ã™ã‹? : to Head=0, Yes=1, No=2, to Top=3\r\n");
  94:Core/Src/Main/Mode.c **** 		//ãƒ‘ãƒ©ãƒ¡ãƒ¼ã‚¿å¤‰æ›´ã®æœ‰ç„¡
  95:Core/Src/Main/Mode.c **** 		int8_t change = 0;
  96:Core/Src/Main/Mode.c **** 		ModeSelect(0, 3, &change);
  97:Core/Src/Main/Mode.c **** 		Signal(change);
  98:Core/Src/Main/Mode.c **** 
  99:Core/Src/Main/Mode.c **** 		//å¤‰æ›´ã™ã‚‹ãªã‚‰ã©ã‚Œã‚’å¤‰æ›´ã™ã‚‹ã‹ï¼ˆå¯¾è±¡ã”ã¨ã«é•ã†æ“ä½œï¼‰
 100:Core/Src/Main/Mode.c **** 		if(change == 0) {
 101:Core/Src/Main/Mode.c **** 			continue;
 102:Core/Src/Main/Mode.c **** 		}
 103:Core/Src/Main/Mode.c **** 		else if(change == 1){ //0ãªã‚‰æˆ»ã‚‹2ãªã‚‰ãã®ã¾ã¾é€²ã‚€
 104:Core/Src/Main/Mode.c **** 			 //ã©ã‚Œã‚’å¤‰æ›´ã™ã‚‹ã‹
 105:Core/Src/Main/Mode.c **** 			//0ãªã‚‰ä¸€ã¤æˆ»ã‚‹ã€7ãªã‚‰ãƒˆãƒƒãƒ—ã«æˆ»ã‚‹ ï¼ˆé–¢æ•°ã®æˆ»ã‚Šå€¤ã‹ãƒã‚¤ãƒ³ã‚¿ã§è¿”ã—ã
 106:Core/Src/Main/Mode.c **** 		}
 107:Core/Src/Main/Mode.c **** 		else if(change == 2) {
 108:Core/Src/Main/Mode.c **** 			//ãã®ã¾ã¾æ¬¡ã¸
 109:Core/Src/Main/Mode.c **** 			printf("å¤‰æ›´ã›ãšæ¬¡ã¸\r\n");
 110:Core/Src/Main/Mode.c **** 		}
 111:Core/Src/Main/Mode.c **** 		else if(change == 3) {
 112:Core/Src/Main/Mode.c **** 			printf("ãƒˆãƒƒãƒ—ã®ãƒ¢ãƒ¼ãƒ‰é¸æŠã¸\r\n");
 113:Core/Src/Main/Mode.c **** 			return 0;
 114:Core/Src/Main/Mode.c **** 		}
 115:Core/Src/Main/Mode.c **** 
 116:Core/Src/Main/Mode.c **** 		printf("å‹•ä½œç¢ºèªã¯æ‰‹å‹•ã§å‹•ã‹ã—ã¾ã™ã‹ï¼Ÿãƒ­ãƒœãƒƒãƒˆã«ã‚¢ã‚¯ã‚·ãƒ§ãƒ³ã•ã›ã¾ã™ã
 117:Core/Src/Main/Mode.c **** 				"to Head=0, æ‰‹å‹•=1, ã‚¢ã‚¯ã‚·ãƒ§ãƒ³ï¼ˆ+ãƒ­ã‚°å¯è¦–åŒ–ï¼‰=2, to Top=3\r\n");
 118:Core/Src/Main/Mode.c **** 		//å‹•ä½œç¢ºèª
 119:Core/Src/Main/Mode.c **** 		int8_t self_or_action = 0;
 120:Core/Src/Main/Mode.c **** 		ModeSelect(0, 3, &self_or_action);
 121:Core/Src/Main/Mode.c **** 			//æ‰‹å‹•
 122:Core/Src/Main/Mode.c **** 			//ã‚¢ã‚¯ã‚·ãƒ§ãƒ³ï¼ˆãƒ­ã‚°å¯è¦–åŒ–ã‚ã‚Šï¼‰
 123:Core/Src/Main/Mode.c **** 
 124:Core/Src/Main/Mode.c **** 		if(self_or_action == 0) continue;
 125:Core/Src/Main/Mode.c **** 		else if(self_or_action == 1){ //0ãªã‚‰æˆ»ã‚‹2ãªã‚‰ãã®ã¾ã¾é€²ã‚€
 126:Core/Src/Main/Mode.c **** 			loop_flag = false;
 127:Core/Src/Main/Mode.c **** 			printf("æ‰‹å‹•\r\n");
 128:Core/Src/Main/Mode.c **** 		}
 129:Core/Src/Main/Mode.c **** 		else if(self_or_action == 2) {
 130:Core/Src/Main/Mode.c **** 			loop_flag = false;
 131:Core/Src/Main/Mode.c **** 			printf("ã‚¢ã‚¯ã‚·ãƒ§ãƒ³ + ãƒ­ã‚°å¯è¦–åŒ–\r\n");//ãã®ã¾ã¾æ¬¡ã¸
 132:Core/Src/Main/Mode.c **** 		}
 133:Core/Src/Main/Mode.c **** 		else if(self_or_action == 3) return 0;
 134:Core/Src/Main/Mode.c **** 
 135:Core/Src/Main/Mode.c **** 		//ãƒ«ãƒ¼ãƒ—ã‚’ç¶šã‘ã‚‹ã‹?ï¼ˆãƒãƒ¼ãƒ‰ã‚¦ã‚§ã‚¢ã®ã‚¹ã‚¤ãƒƒãƒã®æŠ¼ä¸‹å¾…ã¡ï¼‰
 136:Core/Src/Main/Mode.c **** 		loop_flag == true ? printf("ç¶šè¡Œ\r\n") : printf("çµ‚äº†\r\n");
 137:Core/Src/Main/Mode.c **** 
 138:Core/Src/Main/Mode.c **** 		//ãã®ã¾ã¾ãƒ•ãƒ©ãƒƒã‚·ãƒ¥ã«æ›¸ãè¾¼ã¿ãŸã„
 139:Core/Src/Main/Mode.c **** 	}
 140:Core/Src/Main/Mode.c **** 	return 1;
 141:Core/Src/Main/Mode.c **** 
 142:Core/Src/Main/Mode.c **** }
 143:Core/Src/Main/Mode.c **** 
 144:Core/Src/Main/Mode.c **** //ä¸€ã¤ã®é–¢æ•°ã§è¨˜è¿°ã™ã‚‹
ARM GAS  C:\Users\leopi\AppData\Local\Temp\ccXawahk.s 			page 4


 145:Core/Src/Main/Mode.c **** 
 146:Core/Src/Main/Mode.c **** // èª¿æ•´å¯¾è±¡ã‚’é¸æŠ
 147:Core/Src/Main/Mode.c **** void GainTest(){
 148:Core/Src/Main/Mode.c **** 	// ãƒ¢ãƒ¼ãƒ‰é¸æŠ
 149:Core/Src/Main/Mode.c **** 	// å…±é€šéƒ¨åˆ†ã®å®Ÿè¡Œ
 150:Core/Src/Main/Mode.c **** 	IT_mode = EXPLORE;
 151:Core/Src/Main/Mode.c **** 	MouseInit();
 152:Core/Src/Main/Mode.c **** 
 153:Core/Src/Main/Mode.c **** 	PIDChangeFlag(L_VELO_PID, 1);
 154:Core/Src/Main/Mode.c **** 	PIDChangeFlag(R_VELO_PID, 1);
 155:Core/Src/Main/Mode.c **** 	// ãƒ¢ãƒ¼ãƒ‰æ¯ã®å‡¦ç†
 156:Core/Src/Main/Mode.c **** 
 157:Core/Src/Main/Mode.c **** 	PIDChangeFlag(A_VELO_PID, 0);
 158:Core/Src/Main/Mode.c **** 	PIDChangeFlag(D_WALL_PID, 0);
 159:Core/Src/Main/Mode.c **** 	PIDChangeFlag(L_WALL_PID, 0);
 160:Core/Src/Main/Mode.c **** 	PIDChangeFlag(R_WALL_PID, 0);
 161:Core/Src/Main/Mode.c **** 	ExploreVelocity=0;
 162:Core/Src/Main/Mode.c **** 	ChangeLED(5);
 163:Core/Src/Main/Mode.c **** 	while(1)
 164:Core/Src/Main/Mode.c **** 	{
 165:Core/Src/Main/Mode.c **** 		TargetVelocity[BODY] = 0;
 166:Core/Src/Main/Mode.c **** 		float a=10.56;
 167:Core/Src/Main/Mode.c **** 		//printf("%f, %f\r\n", AngularV, Angle);
 168:Core/Src/Main/Mode.c **** 		printf("å‰å·¦: %f,å‰å³: %f, å’Œ: %f, æ¨ªå·¦: %f,æ¨ªå³: %f, a: %f\r\n",Photo[FL],Photo[FR],Pho
 169:Core/Src/Main/Mode.c **** 	}
 170:Core/Src/Main/Mode.c **** }
 171:Core/Src/Main/Mode.c **** 
 172:Core/Src/Main/Mode.c **** void WritingFree()
 173:Core/Src/Main/Mode.c **** {
 174:Core/Src/Main/Mode.c **** 	IT_mode = WRITINGFREE;
 175:Core/Src/Main/Mode.c **** 
 176:Core/Src/Main/Mode.c **** 	dbc = 0;
 177:Core/Src/Main/Mode.c **** 	MouseInit();
 178:Core/Src/Main/Mode.c **** 
 179:Core/Src/Main/Mode.c **** 	printf("3\r\n");
 180:Core/Src/Main/Mode.c **** 
 181:Core/Src/Main/Mode.c **** 
 182:Core/Src/Main/Mode.c **** 
 183:Core/Src/Main/Mode.c **** 	printf("4\r\n");
 184:Core/Src/Main/Mode.c **** 
 185:Core/Src/Main/Mode.c **** 	TotalPulse[RIGHT] = 0;
 186:Core/Src/Main/Mode.c **** 	TotalPulse[LEFT] = 0;
 187:Core/Src/Main/Mode.c **** 	TotalPulse[BODY] = 0;
 188:Core/Src/Main/Mode.c **** 
 189:Core/Src/Main/Mode.c **** 	PIDChangeFlag(L_VELO_PID, 1);
 190:Core/Src/Main/Mode.c **** 	PIDChangeFlag(R_VELO_PID, 1);
 191:Core/Src/Main/Mode.c **** 
 192:Core/Src/Main/Mode.c **** 	PIDChangeFlag(D_WALL_PID, 0);
 193:Core/Src/Main/Mode.c **** 	PIDChangeFlag(L_WALL_PID, 0);
 194:Core/Src/Main/Mode.c **** 	PIDChangeFlag(R_WALL_PID, 0);
 195:Core/Src/Main/Mode.c **** 	IT_mode = EXPLORE;
 196:Core/Src/Main/Mode.c **** 	PIDChangeFlag(A_VELO_PID, 1);
 197:Core/Src/Main/Mode.c **** 	ExploreVelocity=0;
 198:Core/Src/Main/Mode.c **** 	ChangeLED(7);
 199:Core/Src/Main/Mode.c **** 	//ãƒ‡ãƒ¼ã‚¿å–ã‚Šï¼ˆé€Ÿåº¦ã€è§’é€Ÿåº¦ï¼‰
 200:Core/Src/Main/Mode.c **** 	dbc = 1;
 201:Core/Src/Main/Mode.c **** 	FastStraight(0.5, 8, 0.5, -0.5, 4000, 10);
ARM GAS  C:\Users\leopi\AppData\Local\Temp\ccXawahk.s 			page 5


 202:Core/Src/Main/Mode.c **** 	dbc = 0;
 203:Core/Src/Main/Mode.c **** 
 204:Core/Src/Main/Mode.c **** 	while(1)
 205:Core/Src/Main/Mode.c **** 	{
 206:Core/Src/Main/Mode.c **** 		PIDChangeFlag(A_VELO_PID, 0);
 207:Core/Src/Main/Mode.c **** 		TargetVelocity[BODY] = 0;
 208:Core/Src/Main/Mode.c **** 		HAL_Delay(5000);
 209:Core/Src/Main/Mode.c **** 		for(int i=0; i < 600; i++){
 210:Core/Src/Main/Mode.c **** 			printf("%d, %lf, %lf\r\n", i, debugVL[i], debugVR[i]);
 211:Core/Src/Main/Mode.c **** 		}
 212:Core/Src/Main/Mode.c **** 	}
 213:Core/Src/Main/Mode.c **** }
 214:Core/Src/Main/Mode.c **** 
 215:Core/Src/Main/Mode.c **** static void restart(char turn_mode){
  29              		.loc 1 215 36 view -0
  30              		.cfi_startproc
  31              		@ args = 0, pretend = 0, frame = 0
  32              		@ frame_needed = 0, uses_anonymous_args = 0
  33              		.loc 1 215 36 is_stmt 0 view .LVU1
  34 0000 F8B5     		push	{r3, r4, r5, r6, r7, lr}
  35              	.LCFI0:
  36              		.cfi_def_cfa_offset 24
  37              		.cfi_offset 3, -24
  38              		.cfi_offset 4, -20
  39              		.cfi_offset 5, -16
  40              		.cfi_offset 6, -12
  41              		.cfi_offset 7, -8
  42              		.cfi_offset 14, -4
  43 0002 0546     		mov	r5, r0
 216:Core/Src/Main/Mode.c **** 	//åœæ­¢çŠ¶æ…‹ã‹ã‚‰å¸°é‚„ã¾ã§ã®å‡¦ç†
 217:Core/Src/Main/Mode.c **** 	//æ¢ç´¢é–¢æ•°ã§ã€ãƒãƒƒãƒ—ã®ã‚¢ãƒƒãƒ—ãƒ‡ãƒ¼ãƒˆã—ãªã„ã¨ã©ã†ãªã‚‹ã‹. æ—¢å­˜ã®ãƒãƒƒãƒ—ã
 218:Core/Src/Main/Mode.c **** 
 219:Core/Src/Main/Mode.c **** 	TargetVelocity[BODY] = 0;
  44              		.loc 1 219 2 is_stmt 1 view .LVU2
  45              		.loc 1 219 23 is_stmt 0 view .LVU3
  46 0004 0023     		movs	r3, #0
  47 0006 734A     		ldr	r2, .L11
  48 0008 9360     		str	r3, [r2, #8]	@ float
 220:Core/Src/Main/Mode.c **** 	Acceleration = 0;
  49              		.loc 1 220 2 is_stmt 1 view .LVU4
  50              		.loc 1 220 15 is_stmt 0 view .LVU5
  51 000a 734A     		ldr	r2, .L11+4
  52 000c 1360     		str	r3, [r2]	@ float
 221:Core/Src/Main/Mode.c **** 	TargetAngularV = 0;
  53              		.loc 1 221 2 is_stmt 1 view .LVU6
  54              		.loc 1 221 17 is_stmt 0 view .LVU7
  55 000e 734A     		ldr	r2, .L11+8
  56 0010 1360     		str	r3, [r2]	@ float
 222:Core/Src/Main/Mode.c **** 	TargetAngle = 0;
  57              		.loc 1 222 2 is_stmt 1 view .LVU8
  58              		.loc 1 222 14 is_stmt 0 view .LVU9
  59 0012 734A     		ldr	r2, .L11+12
  60 0014 1360     		str	r3, [r2]	@ float
 223:Core/Src/Main/Mode.c **** 	Angle = 0;
  61              		.loc 1 223 2 is_stmt 1 view .LVU10
  62              		.loc 1 223 8 is_stmt 0 view .LVU11
  63 0016 734A     		ldr	r2, .L11+16
ARM GAS  C:\Users\leopi\AppData\Local\Temp\ccXawahk.s 			page 6


  64 0018 1360     		str	r3, [r2]	@ float
 224:Core/Src/Main/Mode.c **** 	PIDReset(L_VELO_PID);
  65              		.loc 1 224 2 is_stmt 1 view .LVU12
  66 001a 0420     		movs	r0, #4
  67              	.LVL1:
  68              		.loc 1 224 2 is_stmt 0 view .LVU13
  69 001c FFF7FEFF 		bl	PIDReset
  70              	.LVL2:
 225:Core/Src/Main/Mode.c **** 	PIDReset(R_VELO_PID);
  71              		.loc 1 225 2 is_stmt 1 view .LVU14
  72 0020 0520     		movs	r0, #5
  73 0022 FFF7FEFF 		bl	PIDReset
  74              	.LVL3:
 226:Core/Src/Main/Mode.c **** 	PIDReset(A_VELO_PID);
  75              		.loc 1 226 2 view .LVU15
  76 0026 0020     		movs	r0, #0
  77 0028 FFF7FEFF 		bl	PIDReset
  78              	.LVL4:
 227:Core/Src/Main/Mode.c **** 	PIDReset(L_WALL_PID);
  79              		.loc 1 227 2 view .LVU16
  80 002c 0220     		movs	r0, #2
  81 002e FFF7FEFF 		bl	PIDReset
  82              	.LVL5:
 228:Core/Src/Main/Mode.c **** 	PIDReset(R_WALL_PID);
  83              		.loc 1 228 2 view .LVU17
  84 0032 0320     		movs	r0, #3
  85 0034 FFF7FEFF 		bl	PIDReset
  86              	.LVL6:
 229:Core/Src/Main/Mode.c **** 	PIDReset(D_WALL_PID);
  87              		.loc 1 229 2 view .LVU18
  88 0038 0120     		movs	r0, #1
  89 003a FFF7FEFF 		bl	PIDReset
  90              	.LVL7:
 230:Core/Src/Main/Mode.c **** 
 231:Core/Src/Main/Mode.c **** 	//ãƒãƒƒãƒ—22
 232:Core/Src/Main/Mode.c **** 	updateAllNodeWeight(&my_map, &my_mouse.target_pos, &my_mouse.target_size, WALL_MASK);
  91              		.loc 1 232 2 view .LVU19
  92 003e 6A4F     		ldr	r7, .L11+20
  93 0040 6A4A     		ldr	r2, .L11+24
  94 0042 941E     		subs	r4, r2, #2
  95 0044 6A4E     		ldr	r6, .L11+28
  96 0046 3B68     		ldr	r3, [r7]
  97 0048 2146     		mov	r1, r4
  98 004a 3046     		mov	r0, r6
  99 004c FFF7FEFF 		bl	updateAllNodeWeight
 100              	.LVL8:
 233:Core/Src/Main/Mode.c **** //	int stack_num=0; //stackã¯ãƒãƒƒãƒ—ã‚’æ›´æ–°ã—ã¦ã‹ã‚‰æ±‚ã‚ã‚‹
 234:Core/Src/Main/Mode.c **** 
 235:Core/Src/Main/Mode.c **** 	//æœ€å°ãƒãƒ¼ãƒ‰ã‚’é¸æŠ
 236:Core/Src/Main/Mode.c **** 	my_mouse.next.node = getNextNode(&my_map, my_mouse.now.car, my_mouse.now.node, WALL_MASK); //å‘¨å›
 101              		.loc 1 236 2 view .LVU20
 102              		.loc 1 236 23 is_stmt 0 view .LVU21
 103 0050 3B68     		ldr	r3, [r7]
 104 0052 E268     		ldr	r2, [r4, #12]
 105 0054 A179     		ldrb	r1, [r4, #6]	@ zero_extendqisi2
 106 0056 3046     		mov	r0, r6
 107 0058 FFF7FEFF 		bl	getNextNode
ARM GAS  C:\Users\leopi\AppData\Local\Temp\ccXawahk.s 			page 7


 108              	.LVL9:
 109 005c 0246     		mov	r2, r0
 110              		.loc 1 236 21 view .LVU22
 111 005e A061     		str	r0, [r4, #24]
 237:Core/Src/Main/Mode.c **** 	getNextState(&(my_mouse.now), &(my_mouse.next), my_mouse.next.node);
 112              		.loc 1 237 2 is_stmt 1 view .LVU23
 113 0060 04F11001 		add	r1, r4, #16
 114 0064 201D     		adds	r0, r4, #4
 115 0066 FFF7FEFF 		bl	getNextState
 116              	.LVL10:
 238:Core/Src/Main/Mode.c **** 
 239:Core/Src/Main/Mode.c **** 
 240:Core/Src/Main/Mode.c **** 	//ãã®ãƒãƒ¼ãƒ‰ã«è¡ŒããŸã‚ã®æº–å‚™
 241:Core/Src/Main/Mode.c **** 	//å‰ãªã‚‰45mmåŠ é€Ÿ
 242:Core/Src/Main/Mode.c **** //	while(1){
 243:Core/Src/Main/Mode.c **** //		//ã‚´ãƒ¼ãƒ«ã¨ã‚¹ã‚¿ãƒƒã‚¯ã¨ä»Šã¨æ¬¡
 244:Core/Src/Main/Mode.c **** //		printf("%u, %u\r\n",my_mouse.target_pos.x, my_mouse.target_pos.y);
 245:Core/Src/Main/Mode.c **** //		printAllWeight(&my_map, &(my_mouse.target_pos));
 246:Core/Src/Main/Mode.c **** //		printState(&(my_mouse.now));
 247:Core/Src/Main/Mode.c **** //		printState(&(my_mouse.next));
 248:Core/Src/Main/Mode.c **** //	}
 249:Core/Src/Main/Mode.c **** 	switch(my_mouse.now.dir%8){
 117              		.loc 1 249 2 view .LVU24
 118              		.loc 1 249 21 is_stmt 0 view .LVU25
 119 006a E379     		ldrb	r3, [r4, #7]	@ zero_extendqisi2
 120              		.loc 1 249 2 view .LVU26
 121 006c 03F00703 		and	r3, r3, #7
 122 0070 062B     		cmp	r3, #6
 123 0072 15D8     		bhi	.L1
 124 0074 DFE803F0 		tbb	[pc, r3]
 125              	.L4:
 126 0078 04       		.byte	(.L9-.L4)/2
 127 0079 14       		.byte	(.L1-.L4)/2
 128 007a 15       		.byte	(.L8-.L4)/2
 129 007b 2C       		.byte	(.L7-.L4)/2
 130 007c 4C       		.byte	(.L6-.L4)/2
 131 007d 77       		.byte	(.L5-.L4)/2
 132 007e 97       		.byte	(.L3-.L4)/2
 133 007f 00       		.p2align 1
 134              	.L9:
 250:Core/Src/Main/Mode.c **** 	case front:
 251:Core/Src/Main/Mode.c **** 	//		ChangeLED(0);
 252:Core/Src/Main/Mode.c **** 			AddVelocity = 0;
 135              		.loc 1 252 4 is_stmt 1 view .LVU27
 136              		.loc 1 252 16 is_stmt 0 view .LVU28
 137 0080 5C4B     		ldr	r3, .L11+32
 138 0082 0022     		movs	r2, #0
 139 0084 1A60     		str	r2, [r3]	@ float
 253:Core/Src/Main/Mode.c **** 			//ãŸã ç›´é€²
 254:Core/Src/Main/Mode.c **** 			Calc = SearchOrFast;
 140              		.loc 1 254 4 is_stmt 1 view .LVU29
 141              		.loc 1 254 9 is_stmt 0 view .LVU30
 142 0086 5C4B     		ldr	r3, .L11+36
 143 0088 1A68     		ldr	r2, [r3]
 144 008a 5C4B     		ldr	r3, .L11+40
 145 008c 1A60     		str	r2, [r3]
 255:Core/Src/Main/Mode.c **** 			Accel(45, ExploreVelocity, &my_map, &my_mouse);
ARM GAS  C:\Users\leopi\AppData\Local\Temp\ccXawahk.s 			page 8


 146              		.loc 1 255 4 is_stmt 1 view .LVU31
 147 008e 5C49     		ldr	r1, .L11+44
 148 0090 5748     		ldr	r0, .L11+28
 149 0092 5C4B     		ldr	r3, .L11+48
 150 0094 D3ED000A 		vldr.32	s1, [r3]
 151 0098 9FED5B0A 		vldr.32	s0, .L11+52
 152 009c FFF7FEFF 		bl	Accel
 153              	.LVL11:
 256:Core/Src/Main/Mode.c **** //				GoStraight(90, ExploreVelocity +AddVelocity , accel_or_decel, my_map, my_mouse);
 257:Core/Src/Main/Mode.c **** 			break;
 154              		.loc 1 257 4 view .LVU32
 155              	.L1:
 258:Core/Src/Main/Mode.c **** 		case right:
 259:Core/Src/Main/Mode.c **** 			ChangeLED(0);
 260:Core/Src/Main/Mode.c **** 			//å³æ—‹å›
 261:Core/Src/Main/Mode.c **** 			Calc = SearchOrFast;
 262:Core/Src/Main/Mode.c **** 			Rotate(90, M_PI);
 263:Core/Src/Main/Mode.c **** 			Accel(45, ExploreVelocity, &my_map, &my_mouse);
 264:Core/Src/Main/Mode.c **** //				TurnRight(turn_mode, &my_map, &my_mouse);
 265:Core/Src/Main/Mode.c **** 			break;
 266:Core/Src/Main/Mode.c **** 		case backright:
 267:Core/Src/Main/Mode.c **** 			ChangeLED(0);
 268:Core/Src/Main/Mode.c **** 			Calc = 1;//ãƒãƒƒãƒ—æ›´æ–°ã—ãŸããªã„ã¨ãã¯1ã‚’ä»£å…¥ã€‚
 269:Core/Src/Main/Mode.c **** //				GoBack(my_map, my_mouse); //é–“ã®åº§æ¨™å¤‰å‹•ã‚’
 270:Core/Src/Main/Mode.c **** 			Rotate(180, M_PI);
 271:Core/Src/Main/Mode.c **** 			Accel(45, ExploreVelocity, &my_map, &my_mouse);
 272:Core/Src/Main/Mode.c **** 			Calc = SearchOrFast;
 273:Core/Src/Main/Mode.c **** 			TurnRight(turn_mode, &my_map, &my_mouse);
 274:Core/Src/Main/Mode.c **** 			break;
 275:Core/Src/Main/Mode.c **** 		case back:
 276:Core/Src/Main/Mode.c **** 			ChangeLED(0);
 277:Core/Src/Main/Mode.c **** 			//Uã‚¿ãƒ¼ãƒ³ã—ã¦ç›´é€².åŠ é€Ÿã§ãã‚‹
 278:Core/Src/Main/Mode.c **** 			Calc = 1;//ãƒãƒƒãƒ—æ›´æ–°ã—ãŸããªã„ã¨ãã¯1ã‚’ä»£å…¥ã€‚
 279:Core/Src/Main/Mode.c **** //				GoBack(my_map, my_mouse);
 280:Core/Src/Main/Mode.c **** 			Rotate(180, M_PI);
 281:Core/Src/Main/Mode.c **** 			Accel(45, ExploreVelocity, &my_map, &my_mouse);
 282:Core/Src/Main/Mode.c **** 			AddVelocity = 0;
 283:Core/Src/Main/Mode.c **** 			Calc = SearchOrFast;
 284:Core/Src/Main/Mode.c **** 			GoStraight(90, ExploreVelocity +AddVelocity, 0, &my_map, &my_mouse);
 285:Core/Src/Main/Mode.c **** 			break;
 286:Core/Src/Main/Mode.c **** 		case backleft:
 287:Core/Src/Main/Mode.c **** 			ChangeLED(0);
 288:Core/Src/Main/Mode.c **** 			//Uã‚¿ãƒ¼ãƒ³ã—ã¦å·¦æ—‹å›
 289:Core/Src/Main/Mode.c **** 			Calc = 1;//ãƒãƒƒãƒ—æ›´æ–°ã—ãŸããªã„ã¨ãã¯1ã‚’ä»£å…¥ã€‚
 290:Core/Src/Main/Mode.c **** //				GoBack(my_map, my_mouse);
 291:Core/Src/Main/Mode.c **** 			Rotate(180, -M_PI);
 292:Core/Src/Main/Mode.c **** 			Accel(45, ExploreVelocity, &my_map, &my_mouse);
 293:Core/Src/Main/Mode.c **** 			Calc = SearchOrFast;
 294:Core/Src/Main/Mode.c **** 			TurnLeft(turn_mode, &my_map, &my_mouse);
 295:Core/Src/Main/Mode.c **** 			break;
 296:Core/Src/Main/Mode.c **** 		case left:
 297:Core/Src/Main/Mode.c **** 			ChangeLED(0);
 298:Core/Src/Main/Mode.c **** 			//å·¦æ—‹å›
 299:Core/Src/Main/Mode.c **** 			Calc = SearchOrFast;
 300:Core/Src/Main/Mode.c **** 	//		ChangeLED(4);
 301:Core/Src/Main/Mode.c **** 			Rotate(90, -M_PI);
 302:Core/Src/Main/Mode.c **** 			Accel(45, ExploreVelocity, &my_map, &my_mouse);
ARM GAS  C:\Users\leopi\AppData\Local\Temp\ccXawahk.s 			page 9


 303:Core/Src/Main/Mode.c **** //				TurnLeft(turn_mode, &my_map, &my_mouse);
 304:Core/Src/Main/Mode.c **** 			break;
 305:Core/Src/Main/Mode.c **** 		default:
 306:Core/Src/Main/Mode.c **** 			break;
 307:Core/Src/Main/Mode.c **** 	}
 308:Core/Src/Main/Mode.c **** }
 156              		.loc 1 308 1 is_stmt 0 view .LVU33
 157 00a0 F8BD     		pop	{r3, r4, r5, r6, r7, pc}
 158              	.L8:
 259:Core/Src/Main/Mode.c **** 			//å³æ—‹å›
 159              		.loc 1 259 4 is_stmt 1 view .LVU34
 160 00a2 0020     		movs	r0, #0
 161 00a4 FFF7FEFF 		bl	ChangeLED
 162              	.LVL12:
 261:Core/Src/Main/Mode.c **** 			Rotate(90, M_PI);
 163              		.loc 1 261 4 view .LVU35
 261:Core/Src/Main/Mode.c **** 			Rotate(90, M_PI);
 164              		.loc 1 261 9 is_stmt 0 view .LVU36
 165 00a8 534B     		ldr	r3, .L11+36
 166 00aa 1A68     		ldr	r2, [r3]
 167 00ac 534B     		ldr	r3, .L11+40
 168 00ae 1A60     		str	r2, [r3]
 262:Core/Src/Main/Mode.c **** 			Accel(45, ExploreVelocity, &my_map, &my_mouse);
 169              		.loc 1 262 4 is_stmt 1 view .LVU37
 170 00b0 DFED560A 		vldr.32	s1, .L11+56
 171 00b4 9FED560A 		vldr.32	s0, .L11+60
 172 00b8 FFF7FEFF 		bl	Rotate
 173              	.LVL13:
 263:Core/Src/Main/Mode.c **** //				TurnRight(turn_mode, &my_map, &my_mouse);
 174              		.loc 1 263 4 view .LVU38
 175 00bc 5049     		ldr	r1, .L11+44
 176 00be 4C48     		ldr	r0, .L11+28
 177 00c0 504B     		ldr	r3, .L11+48
 178 00c2 D3ED000A 		vldr.32	s1, [r3]
 179 00c6 9FED500A 		vldr.32	s0, .L11+52
 180 00ca FFF7FEFF 		bl	Accel
 181              	.LVL14:
 265:Core/Src/Main/Mode.c **** 		case backright:
 182              		.loc 1 265 4 view .LVU39
 183 00ce E7E7     		b	.L1
 184              	.L7:
 267:Core/Src/Main/Mode.c **** 			Calc = 1;//ãƒãƒƒãƒ—æ›´æ–°ã—ãŸããªã„ã¨ãã¯1ã‚’ä»£å…¥ã€‚
 185              		.loc 1 267 4 view .LVU40
 186 00d0 0020     		movs	r0, #0
 187 00d2 FFF7FEFF 		bl	ChangeLED
 188              	.LVL15:
 268:Core/Src/Main/Mode.c **** //				GoBack(my_map, my_mouse); //é–“ã®åº§æ¨™å¤‰å‹•ã‚’
 189              		.loc 1 268 4 view .LVU41
 268:Core/Src/Main/Mode.c **** //				GoBack(my_map, my_mouse); //é–“ã®åº§æ¨™å¤‰å‹•ã‚’
 190              		.loc 1 268 9 is_stmt 0 view .LVU42
 191 00d6 494F     		ldr	r7, .L11+40
 192 00d8 0123     		movs	r3, #1
 193 00da 3B60     		str	r3, [r7]
 270:Core/Src/Main/Mode.c **** 			Accel(45, ExploreVelocity, &my_map, &my_mouse);
 194              		.loc 1 270 4 is_stmt 1 view .LVU43
 195 00dc DFED4B0A 		vldr.32	s1, .L11+56
 196 00e0 9FED4C0A 		vldr.32	s0, .L11+64
ARM GAS  C:\Users\leopi\AppData\Local\Temp\ccXawahk.s 			page 10


 197 00e4 FFF7FEFF 		bl	Rotate
 198              	.LVL16:
 271:Core/Src/Main/Mode.c **** 			Calc = SearchOrFast;
 199              		.loc 1 271 4 view .LVU44
 200 00e8 454E     		ldr	r6, .L11+44
 201 00ea 414C     		ldr	r4, .L11+28
 202 00ec 3146     		mov	r1, r6
 203 00ee 2046     		mov	r0, r4
 204 00f0 444B     		ldr	r3, .L11+48
 205 00f2 D3ED000A 		vldr.32	s1, [r3]
 206 00f6 9FED440A 		vldr.32	s0, .L11+52
 207 00fa FFF7FEFF 		bl	Accel
 208              	.LVL17:
 272:Core/Src/Main/Mode.c **** 			TurnRight(turn_mode, &my_map, &my_mouse);
 209              		.loc 1 272 4 view .LVU45
 272:Core/Src/Main/Mode.c **** 			TurnRight(turn_mode, &my_map, &my_mouse);
 210              		.loc 1 272 9 is_stmt 0 view .LVU46
 211 00fe 3E4B     		ldr	r3, .L11+36
 212 0100 1B68     		ldr	r3, [r3]
 213 0102 3B60     		str	r3, [r7]
 273:Core/Src/Main/Mode.c **** 			break;
 214              		.loc 1 273 4 is_stmt 1 view .LVU47
 215 0104 3246     		mov	r2, r6
 216 0106 2146     		mov	r1, r4
 217 0108 2846     		mov	r0, r5
 218 010a FFF7FEFF 		bl	TurnRight
 219              	.LVL18:
 274:Core/Src/Main/Mode.c **** 		case back:
 220              		.loc 1 274 4 view .LVU48
 221 010e C7E7     		b	.L1
 222              	.L6:
 276:Core/Src/Main/Mode.c **** 			//Uã‚¿ãƒ¼ãƒ³ã—ã¦ç›´é€².åŠ é€Ÿã§ãã‚‹
 223              		.loc 1 276 4 view .LVU49
 224 0110 0020     		movs	r0, #0
 225 0112 FFF7FEFF 		bl	ChangeLED
 226              	.LVL19:
 278:Core/Src/Main/Mode.c **** //				GoBack(my_map, my_mouse);
 227              		.loc 1 278 4 view .LVU50
 278:Core/Src/Main/Mode.c **** //				GoBack(my_map, my_mouse);
 228              		.loc 1 278 9 is_stmt 0 view .LVU51
 229 0116 394F     		ldr	r7, .L11+40
 230 0118 0123     		movs	r3, #1
 231 011a 3B60     		str	r3, [r7]
 280:Core/Src/Main/Mode.c **** 			Accel(45, ExploreVelocity, &my_map, &my_mouse);
 232              		.loc 1 280 4 is_stmt 1 view .LVU52
 233 011c DFED3B0A 		vldr.32	s1, .L11+56
 234 0120 9FED3C0A 		vldr.32	s0, .L11+64
 235 0124 FFF7FEFF 		bl	Rotate
 236              	.LVL20:
 281:Core/Src/Main/Mode.c **** 			AddVelocity = 0;
 237              		.loc 1 281 4 view .LVU53
 238 0128 354D     		ldr	r5, .L11+44
 239 012a 314C     		ldr	r4, .L11+28
 240 012c 354E     		ldr	r6, .L11+48
 241 012e 2946     		mov	r1, r5
 242 0130 2046     		mov	r0, r4
 243 0132 D6ED000A 		vldr.32	s1, [r6]
ARM GAS  C:\Users\leopi\AppData\Local\Temp\ccXawahk.s 			page 11


 244 0136 9FED340A 		vldr.32	s0, .L11+52
 245 013a FFF7FEFF 		bl	Accel
 246              	.LVL21:
 282:Core/Src/Main/Mode.c **** 			Calc = SearchOrFast;
 247              		.loc 1 282 4 view .LVU54
 282:Core/Src/Main/Mode.c **** 			Calc = SearchOrFast;
 248              		.loc 1 282 16 is_stmt 0 view .LVU55
 249 013e DFED367A 		vldr.32	s15, .L11+68
 250 0142 2C4B     		ldr	r3, .L11+32
 251 0144 C3ED007A 		vstr.32	s15, [r3]
 283:Core/Src/Main/Mode.c **** 			GoStraight(90, ExploreVelocity +AddVelocity, 0, &my_map, &my_mouse);
 252              		.loc 1 283 4 is_stmt 1 view .LVU56
 283:Core/Src/Main/Mode.c **** 			GoStraight(90, ExploreVelocity +AddVelocity, 0, &my_map, &my_mouse);
 253              		.loc 1 283 9 is_stmt 0 view .LVU57
 254 0148 2B4B     		ldr	r3, .L11+36
 255 014a 1B68     		ldr	r3, [r3]
 256 014c 3B60     		str	r3, [r7]
 284:Core/Src/Main/Mode.c **** 			break;
 257              		.loc 1 284 4 is_stmt 1 view .LVU58
 258 014e D6ED000A 		vldr.32	s1, [r6]
 259 0152 2A46     		mov	r2, r5
 260 0154 2146     		mov	r1, r4
 261 0156 0020     		movs	r0, #0
 262 0158 70EEA70A 		vadd.f32	s1, s1, s15
 263 015c 9FED2C0A 		vldr.32	s0, .L11+60
 264 0160 FFF7FEFF 		bl	GoStraight
 265              	.LVL22:
 285:Core/Src/Main/Mode.c **** 		case backleft:
 266              		.loc 1 285 4 view .LVU59
 267 0164 9CE7     		b	.L1
 268              	.L5:
 287:Core/Src/Main/Mode.c **** 			//Uã‚¿ãƒ¼ãƒ³ã—ã¦å·¦æ—‹å›
 269              		.loc 1 287 4 view .LVU60
 270 0166 0020     		movs	r0, #0
 271 0168 FFF7FEFF 		bl	ChangeLED
 272              	.LVL23:
 289:Core/Src/Main/Mode.c **** //				GoBack(my_map, my_mouse);
 273              		.loc 1 289 4 view .LVU61
 289:Core/Src/Main/Mode.c **** //				GoBack(my_map, my_mouse);
 274              		.loc 1 289 9 is_stmt 0 view .LVU62
 275 016c 234F     		ldr	r7, .L11+40
 276 016e 0123     		movs	r3, #1
 277 0170 3B60     		str	r3, [r7]
 291:Core/Src/Main/Mode.c **** 			Accel(45, ExploreVelocity, &my_map, &my_mouse);
 278              		.loc 1 291 4 is_stmt 1 view .LVU63
 279 0172 DFED2A0A 		vldr.32	s1, .L11+72
 280 0176 9FED270A 		vldr.32	s0, .L11+64
 281 017a FFF7FEFF 		bl	Rotate
 282              	.LVL24:
 292:Core/Src/Main/Mode.c **** 			Calc = SearchOrFast;
 283              		.loc 1 292 4 view .LVU64
 284 017e 204E     		ldr	r6, .L11+44
 285 0180 1B4C     		ldr	r4, .L11+28
 286 0182 3146     		mov	r1, r6
 287 0184 2046     		mov	r0, r4
 288 0186 1F4B     		ldr	r3, .L11+48
 289 0188 D3ED000A 		vldr.32	s1, [r3]
ARM GAS  C:\Users\leopi\AppData\Local\Temp\ccXawahk.s 			page 12


 290 018c 9FED1E0A 		vldr.32	s0, .L11+52
 291 0190 FFF7FEFF 		bl	Accel
 292              	.LVL25:
 293:Core/Src/Main/Mode.c **** 			TurnLeft(turn_mode, &my_map, &my_mouse);
 293              		.loc 1 293 4 view .LVU65
 293:Core/Src/Main/Mode.c **** 			TurnLeft(turn_mode, &my_map, &my_mouse);
 294              		.loc 1 293 9 is_stmt 0 view .LVU66
 295 0194 184B     		ldr	r3, .L11+36
 296 0196 1B68     		ldr	r3, [r3]
 297 0198 3B60     		str	r3, [r7]
 294:Core/Src/Main/Mode.c **** 			break;
 298              		.loc 1 294 4 is_stmt 1 view .LVU67
 299 019a 3246     		mov	r2, r6
 300 019c 2146     		mov	r1, r4
 301 019e 2846     		mov	r0, r5
 302 01a0 FFF7FEFF 		bl	TurnLeft
 303              	.LVL26:
 295:Core/Src/Main/Mode.c **** 		case left:
 304              		.loc 1 295 4 view .LVU68
 305 01a4 7CE7     		b	.L1
 306              	.L3:
 297:Core/Src/Main/Mode.c **** 			//å·¦æ—‹å›
 307              		.loc 1 297 4 view .LVU69
 308 01a6 0020     		movs	r0, #0
 309 01a8 FFF7FEFF 		bl	ChangeLED
 310              	.LVL27:
 299:Core/Src/Main/Mode.c **** 	//		ChangeLED(4);
 311              		.loc 1 299 4 view .LVU70
 299:Core/Src/Main/Mode.c **** 	//		ChangeLED(4);
 312              		.loc 1 299 9 is_stmt 0 view .LVU71
 313 01ac 124B     		ldr	r3, .L11+36
 314 01ae 1A68     		ldr	r2, [r3]
 315 01b0 124B     		ldr	r3, .L11+40
 316 01b2 1A60     		str	r2, [r3]
 301:Core/Src/Main/Mode.c **** 			Accel(45, ExploreVelocity, &my_map, &my_mouse);
 317              		.loc 1 301 4 is_stmt 1 view .LVU72
 318 01b4 DFED190A 		vldr.32	s1, .L11+72
 319 01b8 9FED150A 		vldr.32	s0, .L11+60
 320 01bc FFF7FEFF 		bl	Rotate
 321              	.LVL28:
 302:Core/Src/Main/Mode.c **** //				TurnLeft(turn_mode, &my_map, &my_mouse);
 322              		.loc 1 302 4 view .LVU73
 323 01c0 0F49     		ldr	r1, .L11+44
 324 01c2 0B48     		ldr	r0, .L11+28
 325 01c4 0F4B     		ldr	r3, .L11+48
 326 01c6 D3ED000A 		vldr.32	s1, [r3]
 327 01ca 9FED0F0A 		vldr.32	s0, .L11+52
 328 01ce FFF7FEFF 		bl	Accel
 329              	.LVL29:
 304:Core/Src/Main/Mode.c **** 		default:
 330              		.loc 1 304 4 view .LVU74
 331              		.loc 1 308 1 is_stmt 0 view .LVU75
 332 01d2 65E7     		b	.L1
 333              	.L12:
 334              		.align	2
 335              	.L11:
 336 01d4 00000000 		.word	TargetVelocity
ARM GAS  C:\Users\leopi\AppData\Local\Temp\ccXawahk.s 			page 13


 337 01d8 00000000 		.word	Acceleration
 338 01dc 00000000 		.word	TargetAngularV
 339 01e0 00000000 		.word	TargetAngle
 340 01e4 00000000 		.word	Angle
 341 01e8 00000000 		.word	WALL_MASK
 342 01ec 02000000 		.word	my_mouse+2
 343 01f0 00000000 		.word	my_map
 344 01f4 00000000 		.word	AddVelocity
 345 01f8 00000000 		.word	SearchOrFast
 346 01fc 00000000 		.word	Calc
 347 0200 00000000 		.word	my_mouse
 348 0204 00000000 		.word	ExploreVelocity
 349 0208 00003442 		.word	1110704128
 350 020c DB0F4940 		.word	1078530011
 351 0210 0000B442 		.word	1119092736
 352 0214 00003443 		.word	1127481344
 353 0218 00000000 		.word	0
 354 021c DB0F49C0 		.word	-1068953637
 355              		.cfi_endproc
 356              	.LFE243:
 358              		.section	.text.Debug,"ax",%progbits
 359              		.align	1
 360              		.global	Debug
 361              		.syntax unified
 362              		.thumb
 363              		.thumb_func
 365              	Debug:
 366              	.LFB238:
  41:Core/Src/Main/Mode.c **** 	//ãƒ¢ãƒ¼ãƒ‰é¸æŠã§ãƒ‡ãƒãƒƒã‚°å¯¾è±¡ã‚’é¸æŠï¼ˆå€‹åˆ¥ãƒ‡ãƒãƒƒã‚°ã¯å„ã‚½ãƒ¼ã‚¹ã§è¨˜è¿°ï¼Ÿï¼‰
 367              		.loc 1 41 1 is_stmt 1 view -0
 368              		.cfi_startproc
 369              		@ args = 0, pretend = 0, frame = 8
 370              		@ frame_needed = 0, uses_anonymous_args = 0
 371 0000 00B5     		push	{lr}
 372              	.LCFI1:
 373              		.cfi_def_cfa_offset 4
 374              		.cfi_offset 14, -4
 375 0002 83B0     		sub	sp, sp, #12
 376              	.LCFI2:
 377              		.cfi_def_cfa_offset 16
  43:Core/Src/Main/Mode.c **** 	ModeSelect(0,7,&mode);
 378              		.loc 1 43 2 view .LVU77
  43:Core/Src/Main/Mode.c **** 	ModeSelect(0,7,&mode);
 379              		.loc 1 43 9 is_stmt 0 view .LVU78
 380 0004 0020     		movs	r0, #0
 381 0006 8DF80700 		strb	r0, [sp, #7]
  44:Core/Src/Main/Mode.c **** 	Signal(mode);
 382              		.loc 1 44 2 is_stmt 1 view .LVU79
 383 000a 0DF10702 		add	r2, sp, #7
 384 000e 0721     		movs	r1, #7
 385 0010 FFF7FEFF 		bl	ModeSelect
 386              	.LVL30:
  45:Core/Src/Main/Mode.c **** 	switch (mode)
 387              		.loc 1 45 2 view .LVU80
 388 0014 9DF90700 		ldrsb	r0, [sp, #7]
 389 0018 FFF7FEFF 		bl	Signal
 390              	.LVL31:
ARM GAS  C:\Users\leopi\AppData\Local\Temp\ccXawahk.s 			page 14


  46:Core/Src/Main/Mode.c **** 	{
 391              		.loc 1 46 2 view .LVU81
 392 001c 9DF90730 		ldrsb	r3, [sp, #7]
 393 0020 012B     		cmp	r3, #1
 394 0022 02D0     		beq	.L16
 395              	.L13:
  61:Core/Src/Main/Mode.c **** void ParameterSetting()
 396              		.loc 1 61 1 is_stmt 0 view .LVU82
 397 0024 03B0     		add	sp, sp, #12
 398              	.LCFI3:
 399              		.cfi_remember_state
 400              		.cfi_def_cfa_offset 4
 401              		@ sp needed
 402 0026 5DF804FB 		ldr	pc, [sp], #4
 403              	.L16:
 404              	.LCFI4:
 405              		.cfi_restore_state
  52:Core/Src/Main/Mode.c **** 		ChangeLED(mode);		
 406              		.loc 1 52 3 is_stmt 1 view .LVU83
 407 002a 4FF4FA60 		mov	r0, #2000
 408 002e FFF7FEFF 		bl	HAL_Delay
 409              	.LVL32:
  53:Core/Src/Main/Mode.c **** 		printPhotoSampleValue();
 410              		.loc 1 53 3 view .LVU84
 411 0032 9DF90700 		ldrsb	r0, [sp, #7]
 412 0036 FFF7FEFF 		bl	ChangeLED
 413              	.LVL33:
  54:Core/Src/Main/Mode.c **** 		ChangeLED(0);
 414              		.loc 1 54 3 view .LVU85
 415 003a FFF7FEFF 		bl	printPhotoSampleValue
 416              	.LVL34:
  55:Core/Src/Main/Mode.c **** 		break;
 417              		.loc 1 55 3 view .LVU86
 418 003e 0020     		movs	r0, #0
 419 0040 FFF7FEFF 		bl	ChangeLED
 420              	.LVL35:
  56:Core/Src/Main/Mode.c **** 	default:
 421              		.loc 1 56 3 view .LVU87
  61:Core/Src/Main/Mode.c **** void ParameterSetting()
 422              		.loc 1 61 1 is_stmt 0 view .LVU88
 423 0044 EEE7     		b	.L13
 424              		.cfi_endproc
 425              	.LFE238:
 427              		.section	.text.ParameterSetting,"ax",%progbits
 428              		.align	1
 429              		.global	ParameterSetting
 430              		.syntax unified
 431              		.thumb
 432              		.thumb_func
 434              	ParameterSetting:
 435              	.LFB239:
  63:Core/Src/Main/Mode.c **** 	Load_Gain();
 436              		.loc 1 63 1 is_stmt 1 view -0
 437              		.cfi_startproc
 438              		@ args = 0, pretend = 0, frame = 0
 439              		@ frame_needed = 0, uses_anonymous_args = 0
 440 0000 08B5     		push	{r3, lr}
ARM GAS  C:\Users\leopi\AppData\Local\Temp\ccXawahk.s 			page 15


 441              	.LCFI5:
 442              		.cfi_def_cfa_offset 8
 443              		.cfi_offset 3, -8
 444              		.cfi_offset 14, -4
  64:Core/Src/Main/Mode.c **** 	Change_Gain();
 445              		.loc 1 64 2 view .LVU90
 446 0002 FFF7FEFF 		bl	Load_Gain
 447              	.LVL36:
  65:Core/Src/Main/Mode.c **** 
 448              		.loc 1 65 2 view .LVU91
 449 0006 FFF7FEFF 		bl	Change_Gain
 450              	.LVL37:
  67:Core/Src/Main/Mode.c **** 
 451              		.loc 1 67 1 is_stmt 0 view .LVU92
 452 000a 08BD     		pop	{r3, pc}
 453              		.cfi_endproc
 454              	.LFE239:
 456              		.section	.rodata.GainSetting.str1.4,"aMS",%progbits,1
 457              		.align	2
 458              	.LC0:
 459 0000 E382BBE3 		.ascii	"\343\202\273\343\203\203\343\203\206\343\202\243\343"
 459      8383E383 
 459      86E382A3 
 459      E3
 460 000d 83B3E382 		.ascii	"\203\263\343\202\260\345\257\276\350\261\241\343\201"
 460      B0E5AFBE 
 460      E8B1A1E3 
 460      81
 461 001a AEE981B8 		.ascii	"\256\351\201\270\346\212\236\015\000"
 461      E68A9E0D 
 461      00
 462 0023 00       		.align	2
 463              	.LC1:
 464 0024 E38388E3 		.ascii	"\343\203\210\343\203\203\343\203\227\343\201\256\343"
 464      8383E383 
 464      97E381AE 
 464      E3
 465 0031 83A2E383 		.ascii	"\203\242\343\203\274\343\203\211\351\201\270\346\212"
 465      BCE38389 
 465      E981B8E6 
 465      8A
 466 003e 9EE381B8 		.ascii	"\236\343\201\270\015\000"
 466      0D00
 467              		.align	2
 468              	.LC2:
 469 0044 E5AFBEE8 		.ascii	"\345\257\276\350\261\241\343\201\256\347\217\276\345"
 469      B1A1E381 
 469      AEE78FBE 
 469      E5
 470 0051 9CA8E381 		.ascii	"\234\250\343\201\256\343\203\221\343\203\251\343\203"
 470      AEE38391 
 470      E383A9E3 
 470      83
 471 005e A1E383BC 		.ascii	"\241\343\203\274\343\202\277\343\202\222\350\241\250"
 471      E382BFE3 
 471      8292E8A1 
 471      A8
ARM GAS  C:\Users\leopi\AppData\Local\Temp\ccXawahk.s 			page 16


 472 006b E7A4BA0D 		.ascii	"\347\244\272\015\000"
 472      00
 473              		.align	2
 474              	.LC3:
 475 0070 E38391E3 		.ascii	"\343\203\221\343\203\251\343\203\241\343\203\274\343"
 475      83A9E383 
 475      A1E383BC 
 475      E3
 476 007d 82BFE5A4 		.ascii	"\202\277\345\244\211\346\233\264\343\201\227\343\201"
 476      89E69BB4 
 476      E38197E3 
 476      81
 477 008a BEE38199 		.ascii	"\276\343\201\231\343\201\213? : to Head=0, Yes=1, N"
 477      E3818B3F 
 477      203A2074 
 477      6F204865 
 477      61643D30 
 478 00a8 6F3D322C 		.ascii	"o=2, to Top=3\015\000"
 478      20746F20 
 478      546F703D 
 478      330D00
 479 00b7 00       		.align	2
 480              	.LC4:
 481 00b8 E5A489E6 		.ascii	"\345\244\211\346\233\264\343\201\233\343\201\232\346"
 481      9BB4E381 
 481      9BE3819A 
 481      E6
 482 00c5 ACA1E381 		.ascii	"\254\241\343\201\270\015\000"
 482      B80D00
 483              		.align	2
 484              	.LC5:
 485 00cc E58B95E4 		.ascii	"\345\213\225\344\275\234\347\242\272\350\252\215\343"
 485      BD9CE7A2 
 485      BAE8AA8D 
 485      E3
 486 00d9 81AFE689 		.ascii	"\201\257\346\211\213\345\213\225\343\201\247\345\213"
 486      8BE58B95 
 486      E381A7E5 
 486      8B
 487 00e6 95E3818B 		.ascii	"\225\343\201\213\343\201\227\343\201\276\343\201\231"
 487      E38197E3 
 487      81BEE381 
 487      99
 488 00f3 E3818BEF 		.ascii	"\343\201\213\357\274\237\343\203\255\343\203\234\343"
 488      BC9FE383 
 488      ADE3839C 
 488      E3
 489 0100 8383E383 		.ascii	"\203\203\343\203\210\343\201\253\343\202\242\343\202"
 489      88E381AB 
 489      E382A2E3 
 489      82
 490 010d AFE382B7 		.ascii	"\257\343\202\267\343\203\247\343\203\263\343\201\225"
 490      E383A7E3 
 490      83B3E381 
 490      95
 491 011a E3819BE3 		.ascii	"\343\201\233\343\201\276\343\201\231\343\201\213\357"
 491      81BEE381 
ARM GAS  C:\Users\leopi\AppData\Local\Temp\ccXawahk.s 			page 17


 491      99E3818B 
 491      EF
 492 0127 BC9F200D 		.ascii	"\274\237 \015\012to Head=0, \346\211\213\345\213\225"
 492      0A746F20 
 492      48656164 
 492      3D302C20 
 492      E6898BE5 
 493 013d 3D312C20 		.ascii	"=1, \343\202\242\343\202\257\343\202\267\343\203\247"
 493      E382A2E3 
 493      82AFE382 
 493      B7E383A7 
 494 014d E383B3EF 		.ascii	"\343\203\263\357\274\210+\343\203\255\343\202\260\345"
 494      BC882BE3 
 494      83ADE382 
 494      B0E5
 495 015b 8FAFE8A6 		.ascii	"\217\257\350\246\226\345\214\226\357\274\211=2, to "
 495      96E58C96 
 495      EFBC893D 
 495      322C2074 
 495      6F20
 496 016d 546F703D 		.ascii	"Top=3\015\000"
 496      330D00
 497              		.align	2
 498              	.LC6:
 499 0174 E6898BE5 		.ascii	"\346\211\213\345\213\225\015\000"
 499      8B950D00 
 500              		.align	2
 501              	.LC7:
 502 017c E382A2E3 		.ascii	"\343\202\242\343\202\257\343\202\267\343\203\247\343"
 502      82AFE382 
 502      B7E383A7 
 502      E3
 503 0189 83B3202B 		.ascii	"\203\263 + \343\203\255\343\202\260\345\217\257\350"
 503      20E383AD 
 503      E382B0E5 
 503      8FAFE8
 504 0198 A696E58C 		.ascii	"\246\226\345\214\226\015\000"
 504      960D00
 505 019f 00       		.align	2
 506              	.LC8:
 507 01a0 E7B69AE8 		.ascii	"\347\266\232\350\241\214\015\000"
 507      A18C0D00 
 508              		.align	2
 509              	.LC9:
 510 01a8 E7B582E4 		.ascii	"\347\265\202\344\272\206\015\000"
 510      BA860D00 
 511              		.section	.text.GainSetting,"ax",%progbits
 512              		.align	1
 513              		.global	GainSetting
 514              		.syntax unified
 515              		.thumb
 516              		.thumb_func
 518              	GainSetting:
 519              	.LVL38:
 520              	.LFB240:
  69:Core/Src/Main/Mode.c **** 
 521              		.loc 1 69 23 is_stmt 1 view -0
ARM GAS  C:\Users\leopi\AppData\Local\Temp\ccXawahk.s 			page 18


 522              		.cfi_startproc
 523              		@ args = 0, pretend = 0, frame = 8
 524              		@ frame_needed = 0, uses_anonymous_args = 0
  69:Core/Src/Main/Mode.c **** 
 525              		.loc 1 69 23 is_stmt 0 view .LVU94
 526 0000 30B5     		push	{r4, r5, lr}
 527              	.LCFI6:
 528              		.cfi_def_cfa_offset 12
 529              		.cfi_offset 4, -12
 530              		.cfi_offset 5, -8
 531              		.cfi_offset 14, -4
 532 0002 83B0     		sub	sp, sp, #12
 533              	.LCFI7:
 534              		.cfi_def_cfa_offset 24
 535 0004 0546     		mov	r5, r0
  71:Core/Src/Main/Mode.c **** 	while(loop_flag){
 536              		.loc 1 71 2 is_stmt 1 view .LVU95
 537              	.LVL39:
  72:Core/Src/Main/Mode.c **** 		Signal(n);
 538              		.loc 1 72 2 view .LVU96
  71:Core/Src/Main/Mode.c **** 	while(loop_flag){
 539              		.loc 1 71 8 is_stmt 0 view .LVU97
 540 0006 0124     		movs	r4, #1
  72:Core/Src/Main/Mode.c **** 		Signal(n);
 541              		.loc 1 72 7 view .LVU98
 542 0008 14E0     		b	.L20
 543              	.LVL40:
 544              	.L35:
 545              	.LBB2:
  82:Core/Src/Main/Mode.c **** 			return 0;
 546              		.loc 1 82 4 is_stmt 1 view .LVU99
 547 000a 3448     		ldr	r0, .L40
 548 000c FFF7FEFF 		bl	puts
 549              	.LVL41:
  83:Core/Src/Main/Mode.c **** 		}
 550              		.loc 1 83 4 view .LVU100
 551              	.L23:
  83:Core/Src/Main/Mode.c **** 		}
 552              		.loc 1 83 11 is_stmt 0 discriminator 1 view .LVU101
 553 0010 0020     		movs	r0, #0
 554              	.L19:
 555              	.LBE2:
 142:Core/Src/Main/Mode.c **** 
 556              		.loc 1 142 1 view .LVU102
 557 0012 03B0     		add	sp, sp, #12
 558              	.LCFI8:
 559              		.cfi_remember_state
 560              		.cfi_def_cfa_offset 12
 561              		@ sp needed
 562 0014 30BD     		pop	{r4, r5, pc}
 563              	.LVL42:
 564              	.L36:
 565              	.LCFI9:
 566              		.cfi_restore_state
 567              	.LBB3:
 109:Core/Src/Main/Mode.c **** 		}
 568              		.loc 1 109 4 is_stmt 1 view .LVU103
ARM GAS  C:\Users\leopi\AppData\Local\Temp\ccXawahk.s 			page 19


 569 0016 3248     		ldr	r0, .L40+4
 570 0018 FFF7FEFF 		bl	puts
 571              	.LVL43:
 572 001c 3EE0     		b	.L24
 573              	.L37:
 112:Core/Src/Main/Mode.c **** 			return 0;
 574              		.loc 1 112 4 view .LVU104
 575 001e 2F48     		ldr	r0, .L40
 576 0020 FFF7FEFF 		bl	puts
 577              	.LVL44:
 113:Core/Src/Main/Mode.c **** 		}
 578              		.loc 1 113 4 view .LVU105
 113:Core/Src/Main/Mode.c **** 		}
 579              		.loc 1 113 11 is_stmt 0 view .LVU106
 580 0024 F4E7     		b	.L23
 581              	.L38:
 126:Core/Src/Main/Mode.c **** 			printf("æ‰‹å‹•\r\n");
 582              		.loc 1 126 4 is_stmt 1 view .LVU107
 583              	.LVL45:
 127:Core/Src/Main/Mode.c **** 		}
 584              		.loc 1 127 4 view .LVU108
 585 0026 2F48     		ldr	r0, .L40+8
 586 0028 FFF7FEFF 		bl	puts
 587              	.LVL46:
 136:Core/Src/Main/Mode.c **** 
 588              		.loc 1 136 3 view .LVU109
 589              	.L27:
 136:Core/Src/Main/Mode.c **** 
 590              		.loc 1 136 46 is_stmt 0 discriminator 2 view .LVU110
 591 002c 2E48     		ldr	r0, .L40+12
 592 002e FFF7FEFF 		bl	puts
 593              	.LVL47:
 594 0032 0024     		movs	r4, #0
 595              	.LVL48:
 596              	.L20:
 136:Core/Src/Main/Mode.c **** 
 597              		.loc 1 136 46 discriminator 2 view .LVU111
 598              	.LBE3:
  72:Core/Src/Main/Mode.c **** 		Signal(n);
 599              		.loc 1 72 7 is_stmt 1 view .LVU112
 600 0034 002C     		cmp	r4, #0
 601 0036 4ED0     		beq	.L34
 602              	.LBB4:
  73:Core/Src/Main/Mode.c **** 		printf("ã‚»ãƒƒãƒ†ã‚£ãƒ³ã‚°å¯¾è±¡ã®é¸æŠ\r\n");
 603              		.loc 1 73 3 view .LVU113
 604 0038 68B2     		sxtb	r0, r5
 605 003a FFF7FEFF 		bl	Signal
 606              	.LVL49:
  74:Core/Src/Main/Mode.c **** 		int8_t setting_target=0;
 607              		.loc 1 74 3 view .LVU114
 608 003e 2B48     		ldr	r0, .L40+16
 609 0040 FFF7FEFF 		bl	puts
 610              	.LVL50:
  75:Core/Src/Main/Mode.c **** 		ModeSelect(0, 7, &setting_target);
 611              		.loc 1 75 3 view .LVU115
  75:Core/Src/Main/Mode.c **** 		ModeSelect(0, 7, &setting_target);
 612              		.loc 1 75 10 is_stmt 0 view .LVU116
ARM GAS  C:\Users\leopi\AppData\Local\Temp\ccXawahk.s 			page 20


 613 0044 0020     		movs	r0, #0
 614 0046 8DF80500 		strb	r0, [sp, #5]
  76:Core/Src/Main/Mode.c **** 
 615              		.loc 1 76 3 is_stmt 1 view .LVU117
 616 004a 0DF10502 		add	r2, sp, #5
 617 004e 0721     		movs	r1, #7
 618 0050 FFF7FEFF 		bl	ModeSelect
 619              	.LVL51:
  78:Core/Src/Main/Mode.c **** 			continue;
 620              		.loc 1 78 3 view .LVU118
  78:Core/Src/Main/Mode.c **** 			continue;
 621              		.loc 1 78 21 is_stmt 0 view .LVU119
 622 0054 9DF90500 		ldrsb	r0, [sp, #5]
  78:Core/Src/Main/Mode.c **** 			continue;
 623              		.loc 1 78 5 view .LVU120
 624 0058 0028     		cmp	r0, #0
 625 005a EBD0     		beq	.L20
  81:Core/Src/Main/Mode.c **** 			printf("ãƒˆãƒƒãƒ—ã®ãƒ¢ãƒ¼ãƒ‰é¸æŠã¸\r\n");
 626              		.loc 1 81 8 is_stmt 1 view .LVU121
  81:Core/Src/Main/Mode.c **** 			printf("ãƒˆãƒƒãƒ—ã®ãƒ¢ãƒ¼ãƒ‰é¸æŠã¸\r\n");
 627              		.loc 1 81 10 is_stmt 0 view .LVU122
 628 005c 0728     		cmp	r0, #7
 629 005e D4D0     		beq	.L35
  86:Core/Src/Main/Mode.c **** 		}
 630              		.loc 1 86 4 is_stmt 1 view .LVU123
 631 0060 FFF7FEFF 		bl	ChangeLED
 632              	.LVL52:
  91:Core/Src/Main/Mode.c **** 
 633              		.loc 1 91 3 view .LVU124
 634 0064 2248     		ldr	r0, .L40+20
 635 0066 FFF7FEFF 		bl	puts
 636              	.LVL53:
  93:Core/Src/Main/Mode.c **** 		//ãƒ‘ãƒ©ãƒ¡ãƒ¼ã‚¿å¤‰æ›´ã®æœ‰ç„¡
 637              		.loc 1 93 3 view .LVU125
 638 006a 2248     		ldr	r0, .L40+24
 639 006c FFF7FEFF 		bl	puts
 640              	.LVL54:
  95:Core/Src/Main/Mode.c **** 		ModeSelect(0, 3, &change);
 641              		.loc 1 95 3 view .LVU126
  95:Core/Src/Main/Mode.c **** 		ModeSelect(0, 3, &change);
 642              		.loc 1 95 10 is_stmt 0 view .LVU127
 643 0070 0020     		movs	r0, #0
 644 0072 8DF80600 		strb	r0, [sp, #6]
  96:Core/Src/Main/Mode.c **** 		Signal(change);
 645              		.loc 1 96 3 is_stmt 1 view .LVU128
 646 0076 0DF10602 		add	r2, sp, #6
 647 007a 0321     		movs	r1, #3
 648 007c FFF7FEFF 		bl	ModeSelect
 649              	.LVL55:
  97:Core/Src/Main/Mode.c **** 
 650              		.loc 1 97 3 view .LVU129
 651 0080 9DF90600 		ldrsb	r0, [sp, #6]
 652 0084 FFF7FEFF 		bl	Signal
 653              	.LVL56:
 100:Core/Src/Main/Mode.c **** 			continue;
 654              		.loc 1 100 3 view .LVU130
 100:Core/Src/Main/Mode.c **** 			continue;
ARM GAS  C:\Users\leopi\AppData\Local\Temp\ccXawahk.s 			page 21


 655              		.loc 1 100 13 is_stmt 0 view .LVU131
 656 0088 9DF90630 		ldrsb	r3, [sp, #6]
 100:Core/Src/Main/Mode.c **** 			continue;
 657              		.loc 1 100 5 view .LVU132
 658 008c 002B     		cmp	r3, #0
 659 008e D1D0     		beq	.L20
 103:Core/Src/Main/Mode.c **** 			 //ã©ã‚Œã‚’å¤‰æ›´ã™ã‚‹ã‹
 660              		.loc 1 103 8 is_stmt 1 view .LVU133
 103:Core/Src/Main/Mode.c **** 			 //ã©ã‚Œã‚’å¤‰æ›´ã™ã‚‹ã‹
 661              		.loc 1 103 10 is_stmt 0 view .LVU134
 662 0090 012B     		cmp	r3, #1
 663 0092 03D0     		beq	.L24
 107:Core/Src/Main/Mode.c **** 			//ãã®ã¾ã¾æ¬¡ã¸
 664              		.loc 1 107 8 is_stmt 1 view .LVU135
 107:Core/Src/Main/Mode.c **** 			//ãã®ã¾ã¾æ¬¡ã¸
 665              		.loc 1 107 10 is_stmt 0 view .LVU136
 666 0094 022B     		cmp	r3, #2
 667 0096 BED0     		beq	.L36
 111:Core/Src/Main/Mode.c **** 			printf("ãƒˆãƒƒãƒ—ã®ãƒ¢ãƒ¼ãƒ‰é¸æŠã¸\r\n");
 668              		.loc 1 111 8 is_stmt 1 view .LVU137
 111:Core/Src/Main/Mode.c **** 			printf("ãƒˆãƒƒãƒ—ã®ãƒ¢ãƒ¼ãƒ‰é¸æŠã¸\r\n");
 669              		.loc 1 111 10 is_stmt 0 view .LVU138
 670 0098 032B     		cmp	r3, #3
 671 009a C0D0     		beq	.L37
 672              	.L24:
 116:Core/Src/Main/Mode.c **** 				"to Head=0, æ‰‹å‹•=1, ã‚¢ã‚¯ã‚·ãƒ§ãƒ³ï¼ˆ+ãƒ­ã‚°å¯è¦–åŒ–ï¼‰=2, to Top=3\r\n");
 673              		.loc 1 116 3 is_stmt 1 view .LVU139
 674 009c 1648     		ldr	r0, .L40+28
 675 009e FFF7FEFF 		bl	puts
 676              	.LVL57:
 119:Core/Src/Main/Mode.c **** 		ModeSelect(0, 3, &self_or_action);
 677              		.loc 1 119 3 view .LVU140
 119:Core/Src/Main/Mode.c **** 		ModeSelect(0, 3, &self_or_action);
 678              		.loc 1 119 10 is_stmt 0 view .LVU141
 679 00a2 0020     		movs	r0, #0
 680 00a4 8DF80700 		strb	r0, [sp, #7]
 120:Core/Src/Main/Mode.c **** 			//æ‰‹å‹•
 681              		.loc 1 120 3 is_stmt 1 view .LVU142
 682 00a8 0DF10702 		add	r2, sp, #7
 683 00ac 0321     		movs	r1, #3
 684 00ae FFF7FEFF 		bl	ModeSelect
 685              	.LVL58:
 124:Core/Src/Main/Mode.c **** 		else if(self_or_action == 1){ //0ãªã‚‰æˆ»ã‚‹2ãªã‚‰ãã®ã¾ã¾é€²ã‚€
 686              		.loc 1 124 3 view .LVU143
 124:Core/Src/Main/Mode.c **** 		else if(self_or_action == 1){ //0ãªã‚‰æˆ»ã‚‹2ãªã‚‰ãã®ã¾ã¾é€²ã‚€
 687              		.loc 1 124 21 is_stmt 0 view .LVU144
 688 00b2 9DF90730 		ldrsb	r3, [sp, #7]
 124:Core/Src/Main/Mode.c **** 		else if(self_or_action == 1){ //0ãªã‚‰æˆ»ã‚‹2ãªã‚‰ãã®ã¾ã¾é€²ã‚€
 689              		.loc 1 124 5 view .LVU145
 690 00b6 002B     		cmp	r3, #0
 691 00b8 BCD0     		beq	.L20
 125:Core/Src/Main/Mode.c **** 			loop_flag = false;
 692              		.loc 1 125 8 is_stmt 1 view .LVU146
 125:Core/Src/Main/Mode.c **** 			loop_flag = false;
 693              		.loc 1 125 10 is_stmt 0 view .LVU147
 694 00ba 012B     		cmp	r3, #1
 695 00bc B3D0     		beq	.L38
ARM GAS  C:\Users\leopi\AppData\Local\Temp\ccXawahk.s 			page 22


 129:Core/Src/Main/Mode.c **** 			loop_flag = false;
 696              		.loc 1 129 8 is_stmt 1 view .LVU148
 129:Core/Src/Main/Mode.c **** 			loop_flag = false;
 697              		.loc 1 129 10 is_stmt 0 view .LVU149
 698 00be 022B     		cmp	r3, #2
 699 00c0 05D0     		beq	.L39
 133:Core/Src/Main/Mode.c **** 
 700              		.loc 1 133 8 is_stmt 1 view .LVU150
 133:Core/Src/Main/Mode.c **** 
 701              		.loc 1 133 10 is_stmt 0 view .LVU151
 702 00c2 032B     		cmp	r3, #3
 703 00c4 A4D0     		beq	.L23
 136:Core/Src/Main/Mode.c **** 
 704              		.loc 1 136 3 is_stmt 1 view .LVU152
 136:Core/Src/Main/Mode.c **** 
 705              		.loc 1 136 23 is_stmt 0 view .LVU153
 706 00c6 0D48     		ldr	r0, .L40+32
 707 00c8 FFF7FEFF 		bl	puts
 708              	.LVL59:
 709 00cc B2E7     		b	.L20
 710              	.L39:
 130:Core/Src/Main/Mode.c **** 			printf("ã‚¢ã‚¯ã‚·ãƒ§ãƒ³ + ãƒ­ã‚°å¯è¦–åŒ–\r\n");//ãã®ã¾ã¾æ¬¡ã¸
 711              		.loc 1 130 4 is_stmt 1 view .LVU154
 712              	.LVL60:
 131:Core/Src/Main/Mode.c **** 		}
 713              		.loc 1 131 4 view .LVU155
 714 00ce 0C48     		ldr	r0, .L40+36
 715 00d0 FFF7FEFF 		bl	puts
 716              	.LVL61:
 136:Core/Src/Main/Mode.c **** 
 717              		.loc 1 136 3 view .LVU156
 718 00d4 AAE7     		b	.L27
 719              	.LVL62:
 720              	.L34:
 136:Core/Src/Main/Mode.c **** 
 721              		.loc 1 136 3 is_stmt 0 view .LVU157
 722              	.LBE4:
 140:Core/Src/Main/Mode.c **** 
 723              		.loc 1 140 9 view .LVU158
 724 00d6 0120     		movs	r0, #1
 725 00d8 9BE7     		b	.L19
 726              	.L41:
 727 00da 00BF     		.align	2
 728              	.L40:
 729 00dc 24000000 		.word	.LC1
 730 00e0 B8000000 		.word	.LC4
 731 00e4 74010000 		.word	.LC6
 732 00e8 A8010000 		.word	.LC9
 733 00ec 00000000 		.word	.LC0
 734 00f0 44000000 		.word	.LC2
 735 00f4 70000000 		.word	.LC3
 736 00f8 CC000000 		.word	.LC5
 737 00fc A0010000 		.word	.LC8
 738 0100 7C010000 		.word	.LC7
 739              		.cfi_endproc
 740              	.LFE240:
 742              		.global	__aeabi_f2d
ARM GAS  C:\Users\leopi\AppData\Local\Temp\ccXawahk.s 			page 23


 743              		.section	.rodata.GainTest.str1.4,"aMS",%progbits,1
 744              		.align	2
 745              	.LC10:
 746 0000 E5898DE5 		.ascii	"\345\211\215\345\267\246: %f,\345\211\215\345\217\263"
 746      B7A63A20 
 746      25662CE5 
 746      898DE58F 
 746      B3
 747 0011 3A202566 		.ascii	": %f, \345\222\214: %f, \346\250\252\345\267\246: %"
 747      2C20E592 
 747      8C3A2025 
 747      662C20E6 
 747      A8AAE5B7 
 748 0029 662CE6A8 		.ascii	"f,\346\250\252\345\217\263: %f, a: %f\015\012\000"
 748      AAE58FB3 
 748      3A202566 
 748      2C20613A 
 748      2025660D 
 749              		.section	.text.GainTest,"ax",%progbits
 750              		.align	1
 751              		.global	GainTest
 752              		.syntax unified
 753              		.thumb
 754              		.thumb_func
 756              	GainTest:
 757              	.LFB241:
 147:Core/Src/Main/Mode.c **** 	// ãƒ¢ãƒ¼ãƒ‰é¸æŠ
 758              		.loc 1 147 16 is_stmt 1 view -0
 759              		.cfi_startproc
 760              		@ args = 0, pretend = 0, frame = 0
 761              		@ frame_needed = 0, uses_anonymous_args = 0
 762 0000 F0B5     		push	{r4, r5, r6, r7, lr}
 763              	.LCFI10:
 764              		.cfi_def_cfa_offset 20
 765              		.cfi_offset 4, -20
 766              		.cfi_offset 5, -16
 767              		.cfi_offset 6, -12
 768              		.cfi_offset 7, -8
 769              		.cfi_offset 14, -4
 770 0002 2DED028B 		vpush.64	{d8}
 771              	.LCFI11:
 772              		.cfi_def_cfa_offset 28
 773              		.cfi_offset 80, -28
 774              		.cfi_offset 81, -24
 775 0006 8BB0     		sub	sp, sp, #44
 776              	.LCFI12:
 777              		.cfi_def_cfa_offset 72
 150:Core/Src/Main/Mode.c **** 	MouseInit();
 778              		.loc 1 150 2 view .LVU160
 150:Core/Src/Main/Mode.c **** 	MouseInit();
 779              		.loc 1 150 10 is_stmt 0 view .LVU161
 780 0008 2D4B     		ldr	r3, .L45+8
 781 000a 0622     		movs	r2, #6
 782 000c 1A60     		str	r2, [r3]
 151:Core/Src/Main/Mode.c **** 
 783              		.loc 1 151 2 is_stmt 1 view .LVU162
 784 000e FFF7FEFF 		bl	MouseInit
ARM GAS  C:\Users\leopi\AppData\Local\Temp\ccXawahk.s 			page 24


 785              	.LVL63:
 153:Core/Src/Main/Mode.c **** 	PIDChangeFlag(R_VELO_PID, 1);
 786              		.loc 1 153 2 view .LVU163
 787 0012 0121     		movs	r1, #1
 788 0014 0420     		movs	r0, #4
 789 0016 FFF7FEFF 		bl	PIDChangeFlag
 790              	.LVL64:
 154:Core/Src/Main/Mode.c **** 	// ãƒ¢ãƒ¼ãƒ‰æ¯ã®å‡¦ç†
 791              		.loc 1 154 2 view .LVU164
 792 001a 0121     		movs	r1, #1
 793 001c 0520     		movs	r0, #5
 794 001e FFF7FEFF 		bl	PIDChangeFlag
 795              	.LVL65:
 157:Core/Src/Main/Mode.c **** 	PIDChangeFlag(D_WALL_PID, 0);
 796              		.loc 1 157 2 view .LVU165
 797 0022 0021     		movs	r1, #0
 798 0024 0846     		mov	r0, r1
 799 0026 FFF7FEFF 		bl	PIDChangeFlag
 800              	.LVL66:
 158:Core/Src/Main/Mode.c **** 	PIDChangeFlag(L_WALL_PID, 0);
 801              		.loc 1 158 2 view .LVU166
 802 002a 0021     		movs	r1, #0
 803 002c 0120     		movs	r0, #1
 804 002e FFF7FEFF 		bl	PIDChangeFlag
 805              	.LVL67:
 159:Core/Src/Main/Mode.c **** 	PIDChangeFlag(R_WALL_PID, 0);
 806              		.loc 1 159 2 view .LVU167
 807 0032 0021     		movs	r1, #0
 808 0034 0220     		movs	r0, #2
 809 0036 FFF7FEFF 		bl	PIDChangeFlag
 810              	.LVL68:
 160:Core/Src/Main/Mode.c **** 	ExploreVelocity=0;
 811              		.loc 1 160 2 view .LVU168
 812 003a 0021     		movs	r1, #0
 813 003c 0320     		movs	r0, #3
 814 003e FFF7FEFF 		bl	PIDChangeFlag
 815              	.LVL69:
 161:Core/Src/Main/Mode.c **** 	ChangeLED(5);
 816              		.loc 1 161 2 view .LVU169
 161:Core/Src/Main/Mode.c **** 	ChangeLED(5);
 817              		.loc 1 161 17 is_stmt 0 view .LVU170
 818 0042 204B     		ldr	r3, .L45+12
 819 0044 0022     		movs	r2, #0
 820 0046 1A60     		str	r2, [r3]	@ float
 162:Core/Src/Main/Mode.c **** 	while(1)
 821              		.loc 1 162 2 is_stmt 1 view .LVU171
 822 0048 0520     		movs	r0, #5
 823 004a FFF7FEFF 		bl	ChangeLED
 824              	.LVL70:
 825              	.L43:
 163:Core/Src/Main/Mode.c **** 	{
 826              		.loc 1 163 2 discriminator 1 view .LVU172
 827              	.LBB5:
 165:Core/Src/Main/Mode.c **** 		float a=10.56;
 828              		.loc 1 165 3 discriminator 1 view .LVU173
 165:Core/Src/Main/Mode.c **** 		float a=10.56;
 829              		.loc 1 165 24 is_stmt 0 discriminator 1 view .LVU174
ARM GAS  C:\Users\leopi\AppData\Local\Temp\ccXawahk.s 			page 25


 830 004e 1E4B     		ldr	r3, .L45+16
 831 0050 0022     		movs	r2, #0
 832 0052 9A60     		str	r2, [r3, #8]	@ float
 166:Core/Src/Main/Mode.c **** 		//printf("%f, %f\r\n", AngularV, Angle);
 833              		.loc 1 166 3 is_stmt 1 discriminator 1 view .LVU175
 834              	.LVL71:
 168:Core/Src/Main/Mode.c **** 	}
 835              		.loc 1 168 3 discriminator 1 view .LVU176
 168:Core/Src/Main/Mode.c **** 	}
 836              		.loc 1 168 82 is_stmt 0 discriminator 1 view .LVU177
 837 0054 1D4B     		ldr	r3, .L45+20
 838 0056 D3ED007A 		vldr.32	s15, [r3]
 168:Core/Src/Main/Mode.c **** 	}
 839              		.loc 1 168 92 discriminator 1 view .LVU178
 840 005a 93ED038A 		vldr.32	s16, [r3, #12]
 168:Core/Src/Main/Mode.c **** 	}
 841              		.loc 1 168 106 discriminator 1 view .LVU179
 842 005e 77EE888A 		vadd.f32	s17, s15, s16
 168:Core/Src/Main/Mode.c **** 	}
 843              		.loc 1 168 122 discriminator 1 view .LVU180
 844 0062 9E68     		ldr	r6, [r3, #8]	@ float
 168:Core/Src/Main/Mode.c **** 	}
 845              		.loc 1 168 132 discriminator 1 view .LVU181
 846 0064 5F68     		ldr	r7, [r3, #4]	@ float
 168:Core/Src/Main/Mode.c **** 	}
 847              		.loc 1 168 3 discriminator 1 view .LVU182
 848 0066 17EE900A 		vmov	r0, s15
 849 006a FFF7FEFF 		bl	__aeabi_f2d
 850              	.LVL72:
 851 006e 0446     		mov	r4, r0
 852 0070 0D46     		mov	r5, r1
 853 0072 11A3     		adr	r3, .L45
 854 0074 D3E90023 		ldrd	r2, [r3]
 855 0078 CDE90823 		strd	r2, [sp, #32]
 856 007c 3846     		mov	r0, r7	@ float
 857 007e FFF7FEFF 		bl	__aeabi_f2d
 858              	.LVL73:
 859 0082 CDE90601 		strd	r0, [sp, #24]
 860 0086 3046     		mov	r0, r6	@ float
 861 0088 FFF7FEFF 		bl	__aeabi_f2d
 862              	.LVL74:
 863 008c CDE90401 		strd	r0, [sp, #16]
 864 0090 18EE900A 		vmov	r0, s17
 865 0094 FFF7FEFF 		bl	__aeabi_f2d
 866              	.LVL75:
 867 0098 CDE90201 		strd	r0, [sp, #8]
 868 009c 18EE100A 		vmov	r0, s16
 869 00a0 FFF7FEFF 		bl	__aeabi_f2d
 870              	.LVL76:
 871 00a4 CDE90001 		strd	r0, [sp]
 872 00a8 2246     		mov	r2, r4
 873 00aa 2B46     		mov	r3, r5
 874 00ac 0848     		ldr	r0, .L45+24
 875 00ae FFF7FEFF 		bl	printf
 876              	.LVL77:
 877              	.LBE5:
 163:Core/Src/Main/Mode.c **** 	{
ARM GAS  C:\Users\leopi\AppData\Local\Temp\ccXawahk.s 			page 26


 878              		.loc 1 163 7 is_stmt 1 discriminator 1 view .LVU183
 879 00b2 CCE7     		b	.L43
 880              	.L46:
 881 00b4 AFF30080 		.align	3
 882              	.L45:
 883 00b8 00000060 		.word	1610612736
 884 00bc B81E2540 		.word	1076174520
 885 00c0 00000000 		.word	IT_mode
 886 00c4 00000000 		.word	ExploreVelocity
 887 00c8 00000000 		.word	TargetVelocity
 888 00cc 00000000 		.word	Photo
 889 00d0 00000000 		.word	.LC10
 890              		.cfi_endproc
 891              	.LFE241:
 893              		.section	.rodata.WritingFree.str1.4,"aMS",%progbits,1
 894              		.align	2
 895              	.LC11:
 896 0000 330D00   		.ascii	"3\015\000"
 897 0003 00       		.align	2
 898              	.LC12:
 899 0004 340D00   		.ascii	"4\015\000"
 900 0007 00       		.align	2
 901              	.LC13:
 902 0008 25642C20 		.ascii	"%d, %lf, %lf\015\012\000"
 902      256C662C 
 902      20256C66 
 902      0D0A00
 903              		.section	.text.WritingFree,"ax",%progbits
 904              		.align	1
 905              		.global	WritingFree
 906              		.syntax unified
 907              		.thumb
 908              		.thumb_func
 910              	WritingFree:
 911              	.LFB242:
 173:Core/Src/Main/Mode.c **** 	IT_mode = WRITINGFREE;
 912              		.loc 1 173 1 view -0
 913              		.cfi_startproc
 914              		@ args = 0, pretend = 0, frame = 0
 915              		@ frame_needed = 0, uses_anonymous_args = 0
 916 0000 F0B5     		push	{r4, r5, r6, r7, lr}
 917              	.LCFI13:
 918              		.cfi_def_cfa_offset 20
 919              		.cfi_offset 4, -20
 920              		.cfi_offset 5, -16
 921              		.cfi_offset 6, -12
 922              		.cfi_offset 7, -8
 923              		.cfi_offset 14, -4
 924 0002 83B0     		sub	sp, sp, #12
 925              	.LCFI14:
 926              		.cfi_def_cfa_offset 32
 174:Core/Src/Main/Mode.c **** 
 927              		.loc 1 174 2 view .LVU185
 174:Core/Src/Main/Mode.c **** 
 928              		.loc 1 174 10 is_stmt 0 view .LVU186
 929 0004 354F     		ldr	r7, .L52
 930 0006 0726     		movs	r6, #7
ARM GAS  C:\Users\leopi\AppData\Local\Temp\ccXawahk.s 			page 27


 931 0008 3E60     		str	r6, [r7]
 176:Core/Src/Main/Mode.c **** 	MouseInit();
 932              		.loc 1 176 2 is_stmt 1 view .LVU187
 176:Core/Src/Main/Mode.c **** 	MouseInit();
 933              		.loc 1 176 6 is_stmt 0 view .LVU188
 934 000a 354D     		ldr	r5, .L52+4
 935 000c 0024     		movs	r4, #0
 936 000e 2C60     		str	r4, [r5]
 177:Core/Src/Main/Mode.c **** 
 937              		.loc 1 177 2 is_stmt 1 view .LVU189
 938 0010 FFF7FEFF 		bl	MouseInit
 939              	.LVL78:
 179:Core/Src/Main/Mode.c **** 
 940              		.loc 1 179 2 view .LVU190
 941 0014 3348     		ldr	r0, .L52+8
 942 0016 FFF7FEFF 		bl	puts
 943              	.LVL79:
 183:Core/Src/Main/Mode.c **** 
 944              		.loc 1 183 2 view .LVU191
 945 001a 3348     		ldr	r0, .L52+12
 946 001c FFF7FEFF 		bl	puts
 947              	.LVL80:
 185:Core/Src/Main/Mode.c **** 	TotalPulse[LEFT] = 0;
 948              		.loc 1 185 2 view .LVU192
 185:Core/Src/Main/Mode.c **** 	TotalPulse[LEFT] = 0;
 949              		.loc 1 185 20 is_stmt 0 view .LVU193
 950 0020 324B     		ldr	r3, .L52+16
 951 0022 5C60     		str	r4, [r3, #4]
 186:Core/Src/Main/Mode.c **** 	TotalPulse[BODY] = 0;
 952              		.loc 1 186 2 is_stmt 1 view .LVU194
 186:Core/Src/Main/Mode.c **** 	TotalPulse[BODY] = 0;
 953              		.loc 1 186 19 is_stmt 0 view .LVU195
 954 0024 1C60     		str	r4, [r3]
 187:Core/Src/Main/Mode.c **** 
 955              		.loc 1 187 2 is_stmt 1 view .LVU196
 187:Core/Src/Main/Mode.c **** 
 956              		.loc 1 187 19 is_stmt 0 view .LVU197
 957 0026 9C60     		str	r4, [r3, #8]
 189:Core/Src/Main/Mode.c **** 	PIDChangeFlag(R_VELO_PID, 1);
 958              		.loc 1 189 2 is_stmt 1 view .LVU198
 959 0028 0121     		movs	r1, #1
 960 002a 0420     		movs	r0, #4
 961 002c FFF7FEFF 		bl	PIDChangeFlag
 962              	.LVL81:
 190:Core/Src/Main/Mode.c **** 
 963              		.loc 1 190 2 view .LVU199
 964 0030 0121     		movs	r1, #1
 965 0032 0520     		movs	r0, #5
 966 0034 FFF7FEFF 		bl	PIDChangeFlag
 967              	.LVL82:
 192:Core/Src/Main/Mode.c **** 	PIDChangeFlag(L_WALL_PID, 0);
 968              		.loc 1 192 2 view .LVU200
 969 0038 2146     		mov	r1, r4
 970 003a 0120     		movs	r0, #1
 971 003c FFF7FEFF 		bl	PIDChangeFlag
 972              	.LVL83:
 193:Core/Src/Main/Mode.c **** 	PIDChangeFlag(R_WALL_PID, 0);
ARM GAS  C:\Users\leopi\AppData\Local\Temp\ccXawahk.s 			page 28


 973              		.loc 1 193 2 view .LVU201
 974 0040 2146     		mov	r1, r4
 975 0042 0220     		movs	r0, #2
 976 0044 FFF7FEFF 		bl	PIDChangeFlag
 977              	.LVL84:
 194:Core/Src/Main/Mode.c **** 	IT_mode = EXPLORE;
 978              		.loc 1 194 2 view .LVU202
 979 0048 2146     		mov	r1, r4
 980 004a 0320     		movs	r0, #3
 981 004c FFF7FEFF 		bl	PIDChangeFlag
 982              	.LVL85:
 195:Core/Src/Main/Mode.c **** 	PIDChangeFlag(A_VELO_PID, 1);
 983              		.loc 1 195 2 view .LVU203
 195:Core/Src/Main/Mode.c **** 	PIDChangeFlag(A_VELO_PID, 1);
 984              		.loc 1 195 10 is_stmt 0 view .LVU204
 985 0050 0623     		movs	r3, #6
 986 0052 3B60     		str	r3, [r7]
 196:Core/Src/Main/Mode.c **** 	ExploreVelocity=0;
 987              		.loc 1 196 2 is_stmt 1 view .LVU205
 988 0054 0121     		movs	r1, #1
 989 0056 2046     		mov	r0, r4
 990 0058 FFF7FEFF 		bl	PIDChangeFlag
 991              	.LVL86:
 197:Core/Src/Main/Mode.c **** 	ChangeLED(7);
 992              		.loc 1 197 2 view .LVU206
 197:Core/Src/Main/Mode.c **** 	ChangeLED(7);
 993              		.loc 1 197 17 is_stmt 0 view .LVU207
 994 005c 244B     		ldr	r3, .L52+20
 995 005e 0022     		movs	r2, #0
 996 0060 1A60     		str	r2, [r3]	@ float
 198:Core/Src/Main/Mode.c **** 	//ãƒ‡ãƒ¼ã‚¿å–ã‚Šï¼ˆé€Ÿåº¦ã€è§’é€Ÿåº¦ï¼‰
 997              		.loc 1 198 2 is_stmt 1 view .LVU208
 998 0062 3046     		mov	r0, r6
 999 0064 FFF7FEFF 		bl	ChangeLED
 1000              	.LVL87:
 200:Core/Src/Main/Mode.c **** 	FastStraight(0.5, 8, 0.5, -0.5, 4000, 10);
 1001              		.loc 1 200 2 view .LVU209
 200:Core/Src/Main/Mode.c **** 	FastStraight(0.5, 8, 0.5, -0.5, 4000, 10);
 1002              		.loc 1 200 6 is_stmt 0 view .LVU210
 1003 0068 0123     		movs	r3, #1
 1004 006a 2B60     		str	r3, [r5]
 201:Core/Src/Main/Mode.c **** 	dbc = 0;
 1005              		.loc 1 201 2 is_stmt 1 view .LVU211
 1006 006c F2EE042A 		vmov.f32	s5, #1.0e+1
 1007 0070 9FED202A 		vldr.32	s4, .L52+24
 1008 0074 FEEE001A 		vmov.f32	s3, #-5.0e-1
 1009 0078 B6EE001A 		vmov.f32	s2, #5.0e-1
 1010 007c F2EE000A 		vmov.f32	s1, #8.0e+0
 1011 0080 B0EE410A 		vmov.f32	s0, s2
 1012 0084 FFF7FEFF 		bl	FastStraight
 1013              	.LVL88:
 202:Core/Src/Main/Mode.c **** 
 1014              		.loc 1 202 2 view .LVU212
 202:Core/Src/Main/Mode.c **** 
 1015              		.loc 1 202 6 is_stmt 0 view .LVU213
 1016 0088 2C60     		str	r4, [r5]
 1017 008a 1AE0     		b	.L50
ARM GAS  C:\Users\leopi\AppData\Local\Temp\ccXawahk.s 			page 29


 1018              	.LVL89:
 1019              	.L49:
 1020              	.LBB6:
 210:Core/Src/Main/Mode.c **** 		}
 1021              		.loc 1 210 4 is_stmt 1 discriminator 3 view .LVU214
 210:Core/Src/Main/Mode.c **** 		}
 1022              		.loc 1 210 41 is_stmt 0 discriminator 3 view .LVU215
 1023 008c 1A4B     		ldr	r3, .L52+28
 1024 008e 03EB8403 		add	r3, r3, r4, lsl #2
 210:Core/Src/Main/Mode.c **** 		}
 1025              		.loc 1 210 53 discriminator 3 view .LVU216
 1026 0092 1A4A     		ldr	r2, .L52+32
 1027 0094 02EB8402 		add	r2, r2, r4, lsl #2
 1028 0098 1568     		ldr	r5, [r2]	@ float
 210:Core/Src/Main/Mode.c **** 		}
 1029              		.loc 1 210 4 discriminator 3 view .LVU217
 1030 009a 1868     		ldr	r0, [r3]	@ float
 1031 009c FFF7FEFF 		bl	__aeabi_f2d
 1032              	.LVL90:
 1033 00a0 0646     		mov	r6, r0
 1034 00a2 0F46     		mov	r7, r1
 1035 00a4 2846     		mov	r0, r5	@ float
 1036 00a6 FFF7FEFF 		bl	__aeabi_f2d
 1037              	.LVL91:
 1038 00aa CDE90001 		strd	r0, [sp]
 1039 00ae 3246     		mov	r2, r6
 1040 00b0 3B46     		mov	r3, r7
 1041 00b2 2146     		mov	r1, r4
 1042 00b4 1248     		ldr	r0, .L52+36
 1043 00b6 FFF7FEFF 		bl	printf
 1044              	.LVL92:
 209:Core/Src/Main/Mode.c **** 			printf("%d, %lf, %lf\r\n", i, debugVL[i], debugVR[i]);
 1045              		.loc 1 209 25 is_stmt 1 discriminator 3 view .LVU218
 209:Core/Src/Main/Mode.c **** 			printf("%d, %lf, %lf\r\n", i, debugVL[i], debugVR[i]);
 1046              		.loc 1 209 26 is_stmt 0 discriminator 3 view .LVU219
 1047 00ba 0134     		adds	r4, r4, #1
 1048              	.LVL93:
 1049              	.L48:
 209:Core/Src/Main/Mode.c **** 			printf("%d, %lf, %lf\r\n", i, debugVL[i], debugVR[i]);
 1050              		.loc 1 209 16 is_stmt 1 discriminator 1 view .LVU220
 209:Core/Src/Main/Mode.c **** 			printf("%d, %lf, %lf\r\n", i, debugVL[i], debugVR[i]);
 1051              		.loc 1 209 3 is_stmt 0 discriminator 1 view .LVU221
 1052 00bc B4F5167F 		cmp	r4, #600
 1053 00c0 E4DB     		blt	.L49
 1054              	.LVL94:
 1055              	.L50:
 209:Core/Src/Main/Mode.c **** 			printf("%d, %lf, %lf\r\n", i, debugVL[i], debugVR[i]);
 1056              		.loc 1 209 3 discriminator 1 view .LVU222
 1057              	.LBE6:
 204:Core/Src/Main/Mode.c **** 	{
 1058              		.loc 1 204 2 is_stmt 1 view .LVU223
 206:Core/Src/Main/Mode.c **** 		TargetVelocity[BODY] = 0;
 1059              		.loc 1 206 3 view .LVU224
 1060 00c2 0021     		movs	r1, #0
 1061 00c4 0846     		mov	r0, r1
 1062 00c6 FFF7FEFF 		bl	PIDChangeFlag
 1063              	.LVL95:
ARM GAS  C:\Users\leopi\AppData\Local\Temp\ccXawahk.s 			page 30


 207:Core/Src/Main/Mode.c **** 		HAL_Delay(5000);
 1064              		.loc 1 207 3 view .LVU225
 207:Core/Src/Main/Mode.c **** 		HAL_Delay(5000);
 1065              		.loc 1 207 24 is_stmt 0 view .LVU226
 1066 00ca 0E4B     		ldr	r3, .L52+40
 1067 00cc 0022     		movs	r2, #0
 1068 00ce 9A60     		str	r2, [r3, #8]	@ float
 208:Core/Src/Main/Mode.c **** 		for(int i=0; i < 600; i++){
 1069              		.loc 1 208 3 is_stmt 1 view .LVU227
 1070 00d0 41F28830 		movw	r0, #5000
 1071 00d4 FFF7FEFF 		bl	HAL_Delay
 1072              	.LVL96:
 209:Core/Src/Main/Mode.c **** 			printf("%d, %lf, %lf\r\n", i, debugVL[i], debugVR[i]);
 1073              		.loc 1 209 3 view .LVU228
 1074              	.LBB7:
 209:Core/Src/Main/Mode.c **** 			printf("%d, %lf, %lf\r\n", i, debugVL[i], debugVR[i]);
 1075              		.loc 1 209 7 view .LVU229
 209:Core/Src/Main/Mode.c **** 			printf("%d, %lf, %lf\r\n", i, debugVL[i], debugVR[i]);
 1076              		.loc 1 209 11 is_stmt 0 view .LVU230
 1077 00d8 0024     		movs	r4, #0
 209:Core/Src/Main/Mode.c **** 			printf("%d, %lf, %lf\r\n", i, debugVL[i], debugVR[i]);
 1078              		.loc 1 209 3 view .LVU231
 1079 00da EFE7     		b	.L48
 1080              	.L53:
 1081              		.align	2
 1082              	.L52:
 1083 00dc 00000000 		.word	IT_mode
 1084 00e0 00000000 		.word	dbc
 1085 00e4 00000000 		.word	.LC11
 1086 00e8 04000000 		.word	.LC12
 1087 00ec 00000000 		.word	TotalPulse
 1088 00f0 00000000 		.word	ExploreVelocity
 1089 00f4 00007A45 		.word	1165623296
 1090 00f8 00000000 		.word	debugVL
 1091 00fc 00000000 		.word	debugVR
 1092 0100 08000000 		.word	.LC13
 1093 0104 00000000 		.word	TargetVelocity
 1094              	.LBE7:
 1095              		.cfi_endproc
 1096              	.LFE242:
 1098              		.section	.text.DFS_Running,"ax",%progbits
 1099              		.align	1
 1100              		.global	DFS_Running
 1101              		.syntax unified
 1102              		.thumb
 1103              		.thumb_func
 1105              	DFS_Running:
 1106              	.LVL97:
 1107              	.LFB244:
 309:Core/Src/Main/Mode.c **** 
 310:Core/Src/Main/Mode.c **** //ä¸€å›ç›®ã«é€šå¸¸ã®æ¢ç´¢ + äºŒå›ç›®ã§æœ€çŸ­ + ä¸‰å›ç›®ã§æ®‹ã‚Šã®æ¢ç´¢ + å››å›ç›®ã§æ›´ã
 311:Core/Src/Main/Mode.c **** //ä¸€å›ç›®ã§å…¨æ¢ç´¢(DFS) + å¤±æ•—ã—ãŸã‚‰é€šå¸¸ã®æ¢ç´¢ã¨æœ€çŸ­ + æˆåŠŸã™ã‚Œã°æœ€çŸ­1å›ä
 312:Core/Src/Main/Mode.c **** 
 313:Core/Src/Main/Mode.c **** 
 314:Core/Src/Main/Mode.c **** void DFS_Running(char turn_mode){
 1108              		.loc 1 314 33 is_stmt 1 view -0
 1109              		.cfi_startproc
ARM GAS  C:\Users\leopi\AppData\Local\Temp\ccXawahk.s 			page 31


 1110              		@ args = 0, pretend = 0, frame = 0
 1111              		@ frame_needed = 0, uses_anonymous_args = 0
 1112              		.loc 1 314 33 is_stmt 0 view .LVU233
 1113 0000 70B5     		push	{r4, r5, r6, lr}
 1114              	.LCFI15:
 1115              		.cfi_def_cfa_offset 16
 1116              		.cfi_offset 4, -16
 1117              		.cfi_offset 5, -12
 1118              		.cfi_offset 6, -8
 1119              		.cfi_offset 14, -4
 1120 0002 0546     		mov	r5, r0
 315:Core/Src/Main/Mode.c **** 	//å…¨æ¢ç´¢ï¼ˆæ·±ã•å„ªå…ˆæ¢ç´¢ï¼‰
 316:Core/Src/Main/Mode.c **** 			WALL_MASK = 0x01;
 1121              		.loc 1 316 4 is_stmt 1 view .LVU234
 1122              		.loc 1 316 14 is_stmt 0 view .LVU235
 1123 0004 0124     		movs	r4, #1
 1124 0006 294B     		ldr	r3, .L58
 1125 0008 1C60     		str	r4, [r3]
 317:Core/Src/Main/Mode.c **** 			VelocityMax = false;
 1126              		.loc 1 317 4 is_stmt 1 view .LVU236
 1127              		.loc 1 317 16 is_stmt 0 view .LVU237
 1128 000a 0022     		movs	r2, #0
 1129 000c 284B     		ldr	r3, .L58+4
 1130 000e 1A70     		strb	r2, [r3]
 318:Core/Src/Main/Mode.c **** 			goal_edge_num = 1;
 1131              		.loc 1 318 4 is_stmt 1 view .LVU238
 1132              		.loc 1 318 18 is_stmt 0 view .LVU239
 1133 0010 284B     		ldr	r3, .L58+8
 1134 0012 1C70     		strb	r4, [r3]
 319:Core/Src/Main/Mode.c **** 			SearchOrFast = 0; //search
 1135              		.loc 1 319 4 is_stmt 1 view .LVU240
 1136              		.loc 1 319 17 is_stmt 0 view .LVU241
 1137 0014 284B     		ldr	r3, .L58+12
 1138 0016 1A60     		str	r2, [r3]
 320:Core/Src/Main/Mode.c **** 			Calc = SearchOrFast;
 1139              		.loc 1 320 4 is_stmt 1 view .LVU242
 1140              		.loc 1 320 9 is_stmt 0 view .LVU243
 1141 0018 1A68     		ldr	r2, [r3]
 1142 001a 284B     		ldr	r3, .L58+16
 1143 001c 1A60     		str	r2, [r3]
 321:Core/Src/Main/Mode.c **** 
 322:Core/Src/Main/Mode.c **** 			//0,0ã‚’ã‚´ãƒ¼ãƒ«ã¨ã—ã¦æ·±ã•å„ªå…ˆæ¢ç´¢ã™ã‚Œã°ã„ã„
 323:Core/Src/Main/Mode.c **** 			InitStackNum();
 1144              		.loc 1 323 4 is_stmt 1 view .LVU244
 1145 001e FFF7FEFF 		bl	InitStackNum
 1146              	.LVL98:
 324:Core/Src/Main/Mode.c **** 			//stack_numã‚’ã©ã†ã™ã‚‹ã‹
 325:Core/Src/Main/Mode.c **** 			StackMass(&my_map, &(my_mouse.now));
 1147              		.loc 1 325 4 view .LVU245
 1148 0022 274E     		ldr	r6, .L58+20
 1149 0024 3146     		mov	r1, r6
 1150 0026 2748     		ldr	r0, .L58+24
 1151 0028 FFF7FEFF 		bl	StackMass
 1152              	.LVL99:
 326:Core/Src/Main/Mode.c **** 			int stack_num=GetStackNum(); //stackã§ã‚´ãƒ¼ãƒ«ã—ãŸãƒã‚¹ã®å‘¨è¾ºãŒæ¬¡ã®ãƒã‚¹ã«ãªã‚‹
 1153              		.loc 1 326 4 view .LVU246
 1154              		.loc 1 326 18 is_stmt 0 view .LVU247
ARM GAS  C:\Users\leopi\AppData\Local\Temp\ccXawahk.s 			page 32


 1155 002c FFF7FEFF 		bl	GetStackNum
 1156              	.LVL100:
 327:Core/Src/Main/Mode.c **** 			my_mouse.target_pos.x = mass_stack[stack_num].x;
 1157              		.loc 1 327 4 is_stmt 1 view .LVU248
 1158              		.loc 1 327 49 is_stmt 0 view .LVU249
 1159 0030 254B     		ldr	r3, .L58+28
 1160 0032 13F81010 		ldrb	r1, [r3, r0, lsl #1]	@ zero_extendqisi2
 1161              		.loc 1 327 26 view .LVU250
 1162 0036 06F8041C 		strb	r1, [r6, #-4]
 328:Core/Src/Main/Mode.c **** 			my_mouse.target_pos.y = mass_stack[stack_num].y;
 1163              		.loc 1 328 4 is_stmt 1 view .LVU251
 1164              		.loc 1 328 49 is_stmt 0 view .LVU252
 1165 003a 03EB4003 		add	r3, r3, r0, lsl #1
 1166 003e 5B78     		ldrb	r3, [r3, #1]	@ zero_extendqisi2
 1167              		.loc 1 328 26 view .LVU253
 1168 0040 06F8033C 		strb	r3, [r6, #-3]
 329:Core/Src/Main/Mode.c **** 			my_mouse.target_size.x = 1;
 1169              		.loc 1 329 4 is_stmt 1 view .LVU254
 1170              		.loc 1 329 27 is_stmt 0 view .LVU255
 1171 0044 06F8024C 		strb	r4, [r6, #-2]
 330:Core/Src/Main/Mode.c **** 			my_mouse.target_size.y = 1;
 1172              		.loc 1 330 4 is_stmt 1 view .LVU256
 1173              		.loc 1 330 27 is_stmt 0 view .LVU257
 1174 0048 06F8014C 		strb	r4, [r6, #-1]
 331:Core/Src/Main/Mode.c **** 			stack_num--; //n=2ã‹ã‚‰1ã¸
 1175              		.loc 1 331 4 is_stmt 1 view .LVU258
 1176              		.loc 1 331 13 is_stmt 0 view .LVU259
 1177 004c 441E     		subs	r4, r0, #1
 1178              	.LVL101:
 332:Core/Src/Main/Mode.c **** 			SetStackNum(stack_num);
 1179              		.loc 1 332 4 is_stmt 1 view .LVU260
 1180 004e 2046     		mov	r0, r4
 1181 0050 FFF7FEFF 		bl	SetStackNum
 1182              	.LVL102:
 333:Core/Src/Main/Mode.c **** 			restart(turn_mode); //æ¬¡ãƒãƒ¼ãƒ‰ã®é‡ã¿ãŒ0ãªã®ã¯ãªãœã‹â‡’å£ã‚’èªè­˜ã—ã¦ã„ã‚‹ã®ã
 1183              		.loc 1 333 4 view .LVU261
 1184 0054 2846     		mov	r0, r5
 1185 0056 FFF7FEFF 		bl	restart
 1186              	.LVL103:
 334:Core/Src/Main/Mode.c **** //			Decel(45, 0);
 335:Core/Src/Main/Mode.c **** //						WaitStopAndReset();//ã“ã‚ŒãŒãªã„ã¨ã‚¬ã‚¯ãƒ³ã¨ãªã‚‹.
 336:Core/Src/Main/Mode.c **** //						shiftState(&my_mouse);
 337:Core/Src/Main/Mode.c **** //						VisitedMass(my_mouse.now.pos);
 338:Core/Src/Main/Mode.c **** //
 339:Core/Src/Main/Mode.c **** //						PIDChangeFlag(A_VELO_PID, 0);
 340:Core/Src/Main/Mode.c **** //						PIDChangeFlag(L_VELO_PID, 0);
 341:Core/Src/Main/Mode.c **** //						PIDChangeFlag(R_VELO_PID, 0);
 342:Core/Src/Main/Mode.c **** //			while(1){
 343:Core/Src/Main/Mode.c **** //				printf("ãƒãƒƒãƒ•ã‚¡ç¢ºèª\r\n");
 344:Core/Src/Main/Mode.c **** //				Buffering();
 345:Core/Src/Main/Mode.c **** //				//ã©ã“ã‚’ã‚´ãƒ¼ãƒ«ã¨ã—ã¦ã„ã‚‹ã‹
 346:Core/Src/Main/Mode.c **** //				//ãƒãƒƒãƒ—ã¯ã©ã†ãªã£ã¦ã€ä½•ã«åŸºã¥ã„ã¦æ¬¡ã®åº§æ¨™ã‚’æ±ºã‚ã¦ã„ã‚‹ã‹
 347:Core/Src/Main/Mode.c **** //				//åœæ­¢çŠ¶æ…‹ã‹ã‚‰stackã‚’ç©ã¿ã€å·¦ã«è¡Œã£ãŸã€‚åº§æ¨™ã¨å‘ãã¯åˆã£ã¦ã„ã‚‹
 348:Core/Src/Main/Mode.c **** //
 349:Core/Src/Main/Mode.c **** ////				HAL_TIM_Base_Stop_IT(&htim1);
 350:Core/Src/Main/Mode.c **** ////				HAL_TIM_Base_Stop_IT(&htim8);
 351:Core/Src/Main/Mode.c **** //				HAL_Delay(1000);
ARM GAS  C:\Users\leopi\AppData\Local\Temp\ccXawahk.s 			page 33


 352:Core/Src/Main/Mode.c **** //				printState(&(my_mouse.now));
 353:Core/Src/Main/Mode.c **** //				printState(&(my_mouse.next));
 354:Core/Src/Main/Mode.c **** //				printVisited();
 355:Core/Src/Main/Mode.c **** //				printAllWeight(&my_map, &(my_mouse.now.pos));
 356:Core/Src/Main/Mode.c **** //			}
 357:Core/Src/Main/Mode.c **** 			//å‹•ãå‡ºã—ã¦ã€å£ã‚’æ›´æ–°ã€é‡ã¿ãƒãƒƒãƒ—ã‚’æ›´æ–°ã—ã¦ã‹ã‚‰Stackã‚’å–ã‚‰ãªã„ã¨..
 358:Core/Src/Main/Mode.c **** 			//å£ã‚’èª­ã‚“ã§é‡ã¿ã‚’Updateã—ãŸã‹ã‚‰ã“ãæ¬¡ã®ã‚¹ã‚¿ãƒƒã‚¯ã‚’ç©ã‚ã‚‹ã®ã‹ã€
 359:Core/Src/Main/Mode.c **** 			//é‡ã¿ãƒãƒƒãƒ—ã®Updateã®å‰ã«stackã‹ã‚‰å¼•ã£å¼µã‚Šå‡ºã—ã¦ã„ãªã„ã‹ã‚‰ã€è¡Œå…ˆãŒæ±
 360:Core/Src/Main/Mode.c **** 	//		stack_num = StackMass(&my_map, &(my_mouse.now), stack_num);
 361:Core/Src/Main/Mode.c **** 			while(stack_num != 0){
 1187              		.loc 1 361 4 view .LVU262
 1188              		.loc 1 361 9 is_stmt 0 view .LVU263
 1189 005a 09E0     		b	.L55
 1190              	.L56:
 362:Core/Src/Main/Mode.c **** //				if(stack_num == 0)
 363:Core/Src/Main/Mode.c **** //					break;
 364:Core/Src/Main/Mode.c **** 				//ç›®æ¨™ãƒãƒ¼ãƒ‰ã®x,yã‚’æ›´æ–°
 365:Core/Src/Main/Mode.c **** 				//ç¾åœ¨ãƒãƒ¼ãƒ‰ã¨ç›®æ¨™ãƒãƒ¼ãƒ‰ãŒä¸€è‡´ã—ã¦ã‚‚ç‰¹ã«ä½•ã‚‚ãªã„. stackã‚’è¦‹ã‚‹ã ã‘
 366:Core/Src/Main/Mode.c **** 				//ãƒãƒ¼ãƒ‰ã‚’ç¢ºèªã—ãŸã¨ãã®å‘ã
 367:Core/Src/Main/Mode.c **** 
 368:Core/Src/Main/Mode.c **** 				//ã‚¢ã‚¯ã‚·ãƒ§ãƒ³
 369:Core/Src/Main/Mode.c **** 				getNextDirection(&my_map, &my_mouse, turn_mode, WALL_MASK); //å£ãŒã‚ã‚‹ã®ã«ã€ã‚´ãƒ¼ãƒ«ã‚¨
 1191              		.loc 1 369 5 is_stmt 1 view .LVU264
 1192 005c 134B     		ldr	r3, .L58
 1193 005e 1B68     		ldr	r3, [r3]
 1194 0060 2A46     		mov	r2, r5
 1195 0062 1A49     		ldr	r1, .L58+32
 1196 0064 1748     		ldr	r0, .L58+24
 1197 0066 FFF7FEFF 		bl	getNextDirection
 1198              	.LVL104:
 370:Core/Src/Main/Mode.c **** 				stack_num = GetStackNum();
 1199              		.loc 1 370 5 view .LVU265
 1200              		.loc 1 370 17 is_stmt 0 view .LVU266
 1201 006a FFF7FEFF 		bl	GetStackNum
 1202              	.LVL105:
 1203 006e 0446     		mov	r4, r0
 1204              	.LVL106:
 1205              	.L55:
 361:Core/Src/Main/Mode.c **** //				if(stack_num == 0)
 1206              		.loc 1 361 9 is_stmt 1 view .LVU267
 1207 0070 002C     		cmp	r4, #0
 1208 0072 F3D1     		bne	.L56
 371:Core/Src/Main/Mode.c **** //				ChangeLED(stack_num);
 372:Core/Src/Main/Mode.c **** 				//			stack_num = StackMass(&my_map, &(my_mouse.now), stack_num);
 373:Core/Src/Main/Mode.c **** 			}
 374:Core/Src/Main/Mode.c **** 			//æ¸›é€Ÿåœæ­¢
 375:Core/Src/Main/Mode.c **** 			Decel(45, 0);
 1209              		.loc 1 375 4 view .LVU268
 1210 0074 DFED160A 		vldr.32	s1, .L58+36
 1211 0078 9FED160A 		vldr.32	s0, .L58+40
 1212 007c FFF7FEFF 		bl	Decel
 1213              	.LVL107:
 376:Core/Src/Main/Mode.c **** 			WaitStopAndReset();//ã“ã‚ŒãŒãªã„ã¨ã‚¬ã‚¯ãƒ³ã¨ãªã‚‹.
 1214              		.loc 1 376 4 view .LVU269
 1215 0080 FFF7FEFF 		bl	WaitStopAndReset
 1216              	.LVL108:
 377:Core/Src/Main/Mode.c **** 			shiftState(&my_mouse);
ARM GAS  C:\Users\leopi\AppData\Local\Temp\ccXawahk.s 			page 34


 1217              		.loc 1 377 4 view .LVU270
 1218 0084 114C     		ldr	r4, .L58+32
 1219              	.LVL109:
 1220              		.loc 1 377 4 is_stmt 0 view .LVU271
 1221 0086 2046     		mov	r0, r4
 1222 0088 FFF7FEFF 		bl	shiftState
 1223              	.LVL110:
 378:Core/Src/Main/Mode.c **** 			VisitedMass(my_mouse.now.pos);
 1224              		.loc 1 378 4 is_stmt 1 view .LVU272
 1225 008c 6068     		ldr	r0, [r4, #4]
 1226 008e FFF7FEFF 		bl	VisitedMass
 1227              	.LVL111:
 379:Core/Src/Main/Mode.c **** 
 380:Core/Src/Main/Mode.c **** 			PIDChangeFlag(A_VELO_PID, 0);
 1228              		.loc 1 380 4 view .LVU273
 1229 0092 0021     		movs	r1, #0
 1230 0094 0846     		mov	r0, r1
 1231 0096 FFF7FEFF 		bl	PIDChangeFlag
 1232              	.LVL112:
 381:Core/Src/Main/Mode.c **** 			//flashã®ã‚¯ãƒªã‚¢ã€‚
 382:Core/Src/Main/Mode.c **** 			Flash_clear_sector1();
 1233              		.loc 1 382 4 view .LVU274
 1234 009a FFF7FEFF 		bl	Flash_clear_sector1
 1235              	.LVL113:
 383:Core/Src/Main/Mode.c **** 			//ãƒãƒƒãƒ—æ›¸ãè¾¼ã¿
 384:Core/Src/Main/Mode.c **** 			flashStoreNodes(&my_map);
 1236              		.loc 1 384 4 view .LVU275
 1237 009e 0948     		ldr	r0, .L58+24
 1238 00a0 FFF7FEFF 		bl	flashStoreNodes
 1239              	.LVL114:
 385:Core/Src/Main/Mode.c **** 			//å®Œäº†ã®åˆå›³
 386:Core/Src/Main/Mode.c **** 			Signal(7);
 1240              		.loc 1 386 4 view .LVU276
 1241 00a4 0720     		movs	r0, #7
 1242 00a6 FFF7FEFF 		bl	Signal
 1243              	.LVL115:
 387:Core/Src/Main/Mode.c **** }
 1244              		.loc 1 387 1 is_stmt 0 view .LVU277
 1245 00aa 70BD     		pop	{r4, r5, r6, pc}
 1246              	.L59:
 1247              		.align	2
 1248              	.L58:
 1249 00ac 00000000 		.word	WALL_MASK
 1250 00b0 00000000 		.word	VelocityMax
 1251 00b4 00000000 		.word	goal_edge_num
 1252 00b8 00000000 		.word	SearchOrFast
 1253 00bc 00000000 		.word	Calc
 1254 00c0 04000000 		.word	my_mouse+4
 1255 00c4 00000000 		.word	my_map
 1256 00c8 00000000 		.word	mass_stack
 1257 00cc 00000000 		.word	my_mouse
 1258 00d0 00000000 		.word	0
 1259 00d4 00003442 		.word	1110704128
 1260              		.cfi_endproc
 1261              	.LFE244:
 1263              		.section	.text.FlashWriteTest,"ax",%progbits
 1264              		.align	1
ARM GAS  C:\Users\leopi\AppData\Local\Temp\ccXawahk.s 			page 35


 1265              		.global	FlashWriteTest
 1266              		.syntax unified
 1267              		.thumb
 1268              		.thumb_func
 1270              	FlashWriteTest:
 1271              	.LFB245:
 388:Core/Src/Main/Mode.c **** 
 389:Core/Src/Main/Mode.c **** 
 390:Core/Src/Main/Mode.c **** void FlashWriteTest()
 391:Core/Src/Main/Mode.c **** {
 1272              		.loc 1 391 1 is_stmt 1 view -0
 1273              		.cfi_startproc
 1274              		@ args = 0, pretend = 0, frame = 0
 1275              		@ frame_needed = 0, uses_anonymous_args = 0
 1276 0000 10B5     		push	{r4, lr}
 1277              	.LCFI16:
 1278              		.cfi_def_cfa_offset 8
 1279              		.cfi_offset 4, -8
 1280              		.cfi_offset 14, -4
 392:Core/Src/Main/Mode.c **** 	for(int i=0; i < NUMBER_OF_SQUARES_X; i++)
 1281              		.loc 1 392 2 view .LVU279
 1282              	.LBB8:
 1283              		.loc 1 392 6 view .LVU280
 1284              	.LVL116:
 1285              		.loc 1 392 10 is_stmt 0 view .LVU281
 1286 0002 0021     		movs	r1, #0
 1287              		.loc 1 392 2 view .LVU282
 1288 0004 0BE0     		b	.L61
 1289              	.LVL117:
 1290              	.L62:
 1291              	.LBB9:
 393:Core/Src/Main/Mode.c **** 		{
 394:Core/Src/Main/Mode.c **** 				for(int j=0; j < NUMBER_OF_SQUARES_Y+1; j++)
 395:Core/Src/Main/Mode.c **** 				{
 396:Core/Src/Main/Mode.c **** 					my_map.RawNode[i][j].existence = NOWALL;
 1292              		.loc 1 396 6 is_stmt 1 discriminator 3 view .LVU283
 1293              		.loc 1 396 37 is_stmt 0 discriminator 3 view .LVU284
 1294 0006 01EB0112 		add	r2, r1, r1, lsl #4
 1295 000a 1A44     		add	r2, r2, r3
 1296 000c 1448     		ldr	r0, .L72
 1297 000e 4FF0000C 		mov	ip, #0
 1298 0012 00F832C0 		strb	ip, [r0, r2, lsl #3]
 394:Core/Src/Main/Mode.c **** 				{
 1299              		.loc 1 394 45 is_stmt 1 discriminator 3 view .LVU285
 394:Core/Src/Main/Mode.c **** 				{
 1300              		.loc 1 394 46 is_stmt 0 discriminator 3 view .LVU286
 1301 0016 0133     		adds	r3, r3, #1
 1302              	.LVL118:
 1303              	.L63:
 394:Core/Src/Main/Mode.c **** 				{
 1304              		.loc 1 394 18 is_stmt 1 discriminator 1 view .LVU287
 394:Core/Src/Main/Mode.c **** 				{
 1305              		.loc 1 394 5 is_stmt 0 discriminator 1 view .LVU288
 1306 0018 102B     		cmp	r3, #16
 1307 001a F4DD     		ble	.L62
 1308              	.LBE9:
 392:Core/Src/Main/Mode.c **** 	for(int i=0; i < NUMBER_OF_SQUARES_X; i++)
ARM GAS  C:\Users\leopi\AppData\Local\Temp\ccXawahk.s 			page 36


 1309              		.loc 1 392 40 is_stmt 1 discriminator 2 view .LVU289
 392:Core/Src/Main/Mode.c **** 	for(int i=0; i < NUMBER_OF_SQUARES_X; i++)
 1310              		.loc 1 392 41 is_stmt 0 discriminator 2 view .LVU290
 1311 001c 0131     		adds	r1, r1, #1
 1312              	.LVL119:
 1313              	.L61:
 392:Core/Src/Main/Mode.c **** 	for(int i=0; i < NUMBER_OF_SQUARES_X; i++)
 1314              		.loc 1 392 15 is_stmt 1 discriminator 1 view .LVU291
 392:Core/Src/Main/Mode.c **** 	for(int i=0; i < NUMBER_OF_SQUARES_X; i++)
 1315              		.loc 1 392 2 is_stmt 0 discriminator 1 view .LVU292
 1316 001e 0F29     		cmp	r1, #15
 1317 0020 01DC     		bgt	.L70
 1318              	.LBB10:
 394:Core/Src/Main/Mode.c **** 				{
 1319              		.loc 1 394 13 view .LVU293
 1320 0022 0023     		movs	r3, #0
 1321 0024 F8E7     		b	.L63
 1322              	.L70:
 1323              	.LBE10:
 1324              	.LBE8:
 1325              	.LBB11:
 397:Core/Src/Main/Mode.c **** 				}
 398:Core/Src/Main/Mode.c **** 		}
 399:Core/Src/Main/Mode.c **** 		for(int i=0; i < NUMBER_OF_SQUARES_X+1; i++)
 1326              		.loc 1 399 11 view .LVU294
 1327 0026 4FF0000C 		mov	ip, #0
 1328 002a 0CE0     		b	.L64
 1329              	.LVL120:
 1330              	.L65:
 1331              	.LBB12:
 400:Core/Src/Main/Mode.c **** 		{
 401:Core/Src/Main/Mode.c **** 				for(int j=0; j < NUMBER_OF_SQUARES_Y; j++)
 402:Core/Src/Main/Mode.c **** 				{
 403:Core/Src/Main/Mode.c **** 					my_map.ColumnNode[i][j].existence = WALL;
 1332              		.loc 1 403 6 is_stmt 1 discriminator 3 view .LVU295
 1333              		.loc 1 403 40 is_stmt 0 discriminator 3 view .LVU296
 1334 002c 03EB0C12 		add	r2, r3, ip, lsl #4
 1335 0030 02F58872 		add	r2, r2, #272
 1336 0034 0A49     		ldr	r1, .L72
 1337 0036 0120     		movs	r0, #1
 1338 0038 01F83200 		strb	r0, [r1, r2, lsl #3]
 401:Core/Src/Main/Mode.c **** 				{
 1339              		.loc 1 401 43 is_stmt 1 discriminator 3 view .LVU297
 401:Core/Src/Main/Mode.c **** 				{
 1340              		.loc 1 401 44 is_stmt 0 discriminator 3 view .LVU298
 1341 003c 0344     		add	r3, r3, r0
 1342              	.LVL121:
 1343              	.L66:
 401:Core/Src/Main/Mode.c **** 				{
 1344              		.loc 1 401 18 is_stmt 1 discriminator 1 view .LVU299
 401:Core/Src/Main/Mode.c **** 				{
 1345              		.loc 1 401 5 is_stmt 0 discriminator 1 view .LVU300
 1346 003e 0F2B     		cmp	r3, #15
 1347 0040 F4DD     		ble	.L65
 1348              	.LBE12:
 399:Core/Src/Main/Mode.c **** 		{
 1349              		.loc 1 399 43 is_stmt 1 discriminator 2 view .LVU301
ARM GAS  C:\Users\leopi\AppData\Local\Temp\ccXawahk.s 			page 37


 399:Core/Src/Main/Mode.c **** 		{
 1350              		.loc 1 399 44 is_stmt 0 discriminator 2 view .LVU302
 1351 0042 0CF1010C 		add	ip, ip, #1
 1352              	.LVL122:
 1353              	.L64:
 399:Core/Src/Main/Mode.c **** 		{
 1354              		.loc 1 399 16 is_stmt 1 discriminator 1 view .LVU303
 399:Core/Src/Main/Mode.c **** 		{
 1355              		.loc 1 399 3 is_stmt 0 discriminator 1 view .LVU304
 1356 0046 BCF1100F 		cmp	ip, #16
 1357 004a 01DC     		bgt	.L71
 1358              	.LBB13:
 401:Core/Src/Main/Mode.c **** 				{
 1359              		.loc 1 401 13 view .LVU305
 1360 004c 0023     		movs	r3, #0
 1361 004e F6E7     		b	.L66
 1362              	.L71:
 1363              	.LBE13:
 1364              	.LBE11:
 404:Core/Src/Main/Mode.c **** 				}
 405:Core/Src/Main/Mode.c **** 		}
 406:Core/Src/Main/Mode.c **** 		printAllNodeExistence(&my_map);
 1365              		.loc 1 406 3 is_stmt 1 view .LVU306
 1366 0050 034C     		ldr	r4, .L72
 1367 0052 2046     		mov	r0, r4
 1368 0054 FFF7FEFF 		bl	printAllNodeExistence
 1369              	.LVL123:
 407:Core/Src/Main/Mode.c **** 		//ãƒ•ãƒ©ãƒƒã‚·ãƒ¥ã«æ›¸ãè¾¼ã‚€
 408:Core/Src/Main/Mode.c **** 		flashStoreNodes(&my_map);
 1370              		.loc 1 408 3 view .LVU307
 1371 0058 2046     		mov	r0, r4
 1372 005a FFF7FEFF 		bl	flashStoreNodes
 1373              	.LVL124:
 409:Core/Src/Main/Mode.c **** }
 1374              		.loc 1 409 1 is_stmt 0 view .LVU308
 1375 005e 10BD     		pop	{r4, pc}
 1376              	.L73:
 1377              		.align	2
 1378              	.L72:
 1379 0060 00000000 		.word	my_map
 1380              		.cfi_endproc
 1381              	.LFE245:
 1383              		.section	.text.FlashReadTest,"ax",%progbits
 1384              		.align	1
 1385              		.global	FlashReadTest
 1386              		.syntax unified
 1387              		.thumb
 1388              		.thumb_func
 1390              	FlashReadTest:
 1391              	.LFB246:
 410:Core/Src/Main/Mode.c **** void FlashReadTest()
 411:Core/Src/Main/Mode.c **** {
 1392              		.loc 1 411 1 is_stmt 1 view -0
 1393              		.cfi_startproc
 1394              		@ args = 0, pretend = 0, frame = 0
 1395              		@ frame_needed = 0, uses_anonymous_args = 0
 1396 0000 10B5     		push	{r4, lr}
ARM GAS  C:\Users\leopi\AppData\Local\Temp\ccXawahk.s 			page 38


 1397              	.LCFI17:
 1398              		.cfi_def_cfa_offset 8
 1399              		.cfi_offset 4, -8
 1400              		.cfi_offset 14, -4
 412:Core/Src/Main/Mode.c **** 	//ãƒ•ãƒ©ãƒƒã‚·ãƒ¥ã‚’èª­ã¿å‡ºã™
 413:Core/Src/Main/Mode.c **** 	flashCopyNodesToRam(&my_map);
 1401              		.loc 1 413 2 view .LVU310
 1402 0002 044C     		ldr	r4, .L76
 1403 0004 2046     		mov	r0, r4
 1404 0006 FFF7FEFF 		bl	flashCopyNodesToRam
 1405              	.LVL125:
 414:Core/Src/Main/Mode.c **** 	//åˆã£ã¦ã„ã‚‹ã‹ç¢ºèªã™ã‚‹
 415:Core/Src/Main/Mode.c **** 	printAllNodeExistence(&my_map);
 1406              		.loc 1 415 2 view .LVU311
 1407 000a 2046     		mov	r0, r4
 1408 000c FFF7FEFF 		bl	printAllNodeExistence
 1409              	.LVL126:
 416:Core/Src/Main/Mode.c **** }
 1410              		.loc 1 416 1 is_stmt 0 view .LVU312
 1411 0010 10BD     		pop	{r4, pc}
 1412              	.L77:
 1413 0012 00BF     		.align	2
 1414              	.L76:
 1415 0014 00000000 		.word	my_map
 1416              		.cfi_endproc
 1417              	.LFE246:
 1419              		.section	.text.Simu,"ax",%progbits
 1420              		.align	1
 1421              		.global	Simu
 1422              		.syntax unified
 1423              		.thumb
 1424              		.thumb_func
 1426              	Simu:
 1427              	.LFB247:
 417:Core/Src/Main/Mode.c **** void Simu()
 418:Core/Src/Main/Mode.c **** {
 1428              		.loc 1 418 1 is_stmt 1 view -0
 1429              		.cfi_startproc
 1430              		@ args = 0, pretend = 0, frame = 0
 1431              		@ frame_needed = 0, uses_anonymous_args = 0
 1432 0000 10B5     		push	{r4, lr}
 1433              	.LCFI18:
 1434              		.cfi_def_cfa_offset 8
 1435              		.cfi_offset 4, -8
 1436              		.cfi_offset 14, -4
 419:Core/Src/Main/Mode.c **** 	//ãƒãƒƒãƒ—ã«ä»®ã§ãƒ‡ãƒ¼ã‚¿ã‚’å…¥ã‚Œã‚‹
 420:Core/Src/Main/Mode.c **** 	printAllNodeExistence(&my_map);
 1437              		.loc 1 420 2 view .LVU314
 1438 0002 3148     		ldr	r0, .L100
 1439 0004 FFF7FEFF 		bl	printAllNodeExistence
 1440              	.LVL127:
 421:Core/Src/Main/Mode.c **** 	for(int i=0; i < NUMBER_OF_SQUARES_X; i++)
 1441              		.loc 1 421 2 view .LVU315
 1442              	.LBB14:
 1443              		.loc 1 421 6 view .LVU316
 1444              		.loc 1 421 10 is_stmt 0 view .LVU317
 1445 0008 0021     		movs	r1, #0
ARM GAS  C:\Users\leopi\AppData\Local\Temp\ccXawahk.s 			page 39


 1446              		.loc 1 421 2 view .LVU318
 1447 000a 0BE0     		b	.L79
 1448              	.LVL128:
 1449              	.L80:
 1450              	.LBB15:
 422:Core/Src/Main/Mode.c **** 	{
 423:Core/Src/Main/Mode.c **** 			for(int j=0; j < NUMBER_OF_SQUARES_Y+1; j++)
 424:Core/Src/Main/Mode.c **** 			{
 425:Core/Src/Main/Mode.c **** 				my_map.RawNode[i][j].existence = 2;
 1451              		.loc 1 425 5 is_stmt 1 discriminator 3 view .LVU319
 1452              		.loc 1 425 36 is_stmt 0 discriminator 3 view .LVU320
 1453 000c 01EB0112 		add	r2, r1, r1, lsl #4
 1454 0010 1A44     		add	r2, r2, r3
 1455 0012 2D48     		ldr	r0, .L100
 1456 0014 4FF0020C 		mov	ip, #2
 1457 0018 00F832C0 		strb	ip, [r0, r2, lsl #3]
 423:Core/Src/Main/Mode.c **** 			{
 1458              		.loc 1 423 44 is_stmt 1 discriminator 3 view .LVU321
 423:Core/Src/Main/Mode.c **** 			{
 1459              		.loc 1 423 45 is_stmt 0 discriminator 3 view .LVU322
 1460 001c 0133     		adds	r3, r3, #1
 1461              	.LVL129:
 1462              	.L81:
 423:Core/Src/Main/Mode.c **** 			{
 1463              		.loc 1 423 17 is_stmt 1 discriminator 1 view .LVU323
 423:Core/Src/Main/Mode.c **** 			{
 1464              		.loc 1 423 4 is_stmt 0 discriminator 1 view .LVU324
 1465 001e 102B     		cmp	r3, #16
 1466 0020 F4DD     		ble	.L80
 1467              	.LBE15:
 421:Core/Src/Main/Mode.c **** 	for(int i=0; i < NUMBER_OF_SQUARES_X; i++)
 1468              		.loc 1 421 40 is_stmt 1 discriminator 2 view .LVU325
 421:Core/Src/Main/Mode.c **** 	for(int i=0; i < NUMBER_OF_SQUARES_X; i++)
 1469              		.loc 1 421 41 is_stmt 0 discriminator 2 view .LVU326
 1470 0022 0131     		adds	r1, r1, #1
 1471              	.LVL130:
 1472              	.L79:
 421:Core/Src/Main/Mode.c **** 	for(int i=0; i < NUMBER_OF_SQUARES_X; i++)
 1473              		.loc 1 421 15 is_stmt 1 discriminator 1 view .LVU327
 421:Core/Src/Main/Mode.c **** 	for(int i=0; i < NUMBER_OF_SQUARES_X; i++)
 1474              		.loc 1 421 2 is_stmt 0 discriminator 1 view .LVU328
 1475 0024 0F29     		cmp	r1, #15
 1476 0026 01DC     		bgt	.L96
 1477              	.LBB16:
 423:Core/Src/Main/Mode.c **** 			{
 1478              		.loc 1 423 12 view .LVU329
 1479 0028 0023     		movs	r3, #0
 1480 002a F8E7     		b	.L81
 1481              	.L96:
 1482              	.LBE16:
 1483              	.LBE14:
 1484              	.LBB17:
 426:Core/Src/Main/Mode.c **** 			}
 427:Core/Src/Main/Mode.c **** 	}
 428:Core/Src/Main/Mode.c **** 	for(int i=0; i < NUMBER_OF_SQUARES_X+1; i++)
 1485              		.loc 1 428 10 view .LVU330
 1486 002c 4FF0000C 		mov	ip, #0
ARM GAS  C:\Users\leopi\AppData\Local\Temp\ccXawahk.s 			page 40


 1487 0030 0CE0     		b	.L82
 1488              	.LVL131:
 1489              	.L83:
 1490              	.LBB18:
 429:Core/Src/Main/Mode.c **** 	{
 430:Core/Src/Main/Mode.c **** 			for(int j=0; j < NUMBER_OF_SQUARES_Y; j++)
 431:Core/Src/Main/Mode.c **** 			{
 432:Core/Src/Main/Mode.c **** 				my_map.ColumnNode[i][j].existence = 3;
 1491              		.loc 1 432 5 is_stmt 1 discriminator 3 view .LVU331
 1492              		.loc 1 432 39 is_stmt 0 discriminator 3 view .LVU332
 1493 0032 03EB0C12 		add	r2, r3, ip, lsl #4
 1494 0036 02F58872 		add	r2, r2, #272
 1495 003a 2349     		ldr	r1, .L100
 1496 003c 0320     		movs	r0, #3
 1497 003e 01F83200 		strb	r0, [r1, r2, lsl #3]
 430:Core/Src/Main/Mode.c **** 			{
 1498              		.loc 1 430 42 is_stmt 1 discriminator 3 view .LVU333
 430:Core/Src/Main/Mode.c **** 			{
 1499              		.loc 1 430 43 is_stmt 0 discriminator 3 view .LVU334
 1500 0042 0133     		adds	r3, r3, #1
 1501              	.LVL132:
 1502              	.L84:
 430:Core/Src/Main/Mode.c **** 			{
 1503              		.loc 1 430 17 is_stmt 1 discriminator 1 view .LVU335
 430:Core/Src/Main/Mode.c **** 			{
 1504              		.loc 1 430 4 is_stmt 0 discriminator 1 view .LVU336
 1505 0044 0F2B     		cmp	r3, #15
 1506 0046 F4DD     		ble	.L83
 1507              	.LBE18:
 428:Core/Src/Main/Mode.c **** 	{
 1508              		.loc 1 428 42 is_stmt 1 discriminator 2 view .LVU337
 428:Core/Src/Main/Mode.c **** 	{
 1509              		.loc 1 428 43 is_stmt 0 discriminator 2 view .LVU338
 1510 0048 0CF1010C 		add	ip, ip, #1
 1511              	.LVL133:
 1512              	.L82:
 428:Core/Src/Main/Mode.c **** 	{
 1513              		.loc 1 428 15 is_stmt 1 discriminator 1 view .LVU339
 428:Core/Src/Main/Mode.c **** 	{
 1514              		.loc 1 428 2 is_stmt 0 discriminator 1 view .LVU340
 1515 004c BCF1100F 		cmp	ip, #16
 1516 0050 01DC     		bgt	.L97
 1517              	.LBB19:
 430:Core/Src/Main/Mode.c **** 			{
 1518              		.loc 1 430 12 view .LVU341
 1519 0052 0023     		movs	r3, #0
 1520 0054 F6E7     		b	.L84
 1521              	.L97:
 1522              	.LBE19:
 1523              	.LBE17:
 433:Core/Src/Main/Mode.c **** 			}
 434:Core/Src/Main/Mode.c **** 	}
 435:Core/Src/Main/Mode.c **** 	printAllNodeExistence(&my_map);
 1524              		.loc 1 435 2 is_stmt 1 view .LVU342
 1525 0056 1C4C     		ldr	r4, .L100
 1526 0058 2046     		mov	r0, r4
 1527 005a FFF7FEFF 		bl	printAllNodeExistence
ARM GAS  C:\Users\leopi\AppData\Local\Temp\ccXawahk.s 			page 41


 1528              	.LVL134:
 436:Core/Src/Main/Mode.c **** 	//ãƒ•ãƒ©ãƒƒã‚·ãƒ¥ã«æ›¸ãè¾¼ã‚€
 437:Core/Src/Main/Mode.c **** 	flashStoreNodes(&my_map);
 1529              		.loc 1 437 2 view .LVU343
 1530 005e 2046     		mov	r0, r4
 1531 0060 FFF7FEFF 		bl	flashStoreNodes
 1532              	.LVL135:
 438:Core/Src/Main/Mode.c **** 
 439:Core/Src/Main/Mode.c **** 	//ramã‚’ãƒªã‚»ãƒƒãƒˆ
 440:Core/Src/Main/Mode.c **** 	for(int i=0; i < NUMBER_OF_SQUARES_X; i++)
 1533              		.loc 1 440 2 view .LVU344
 1534              	.LBB20:
 1535              		.loc 1 440 6 view .LVU345
 1536              		.loc 1 440 10 is_stmt 0 view .LVU346
 1537 0064 0021     		movs	r1, #0
 1538              		.loc 1 440 2 view .LVU347
 1539 0066 0BE0     		b	.L85
 1540              	.LVL136:
 1541              	.L86:
 1542              	.LBB21:
 441:Core/Src/Main/Mode.c **** 		{
 442:Core/Src/Main/Mode.c **** 				for(int j=0; j < NUMBER_OF_SQUARES_Y+1; j++)
 443:Core/Src/Main/Mode.c **** 				{
 444:Core/Src/Main/Mode.c **** 					my_map.RawNode[i][j].existence = 0;
 1543              		.loc 1 444 6 is_stmt 1 discriminator 3 view .LVU348
 1544              		.loc 1 444 37 is_stmt 0 discriminator 3 view .LVU349
 1545 0068 01EB0112 		add	r2, r1, r1, lsl #4
 1546 006c 1A44     		add	r2, r2, r3
 1547 006e 1648     		ldr	r0, .L100
 1548 0070 4FF0000C 		mov	ip, #0
 1549 0074 00F832C0 		strb	ip, [r0, r2, lsl #3]
 442:Core/Src/Main/Mode.c **** 				{
 1550              		.loc 1 442 45 is_stmt 1 discriminator 3 view .LVU350
 442:Core/Src/Main/Mode.c **** 				{
 1551              		.loc 1 442 46 is_stmt 0 discriminator 3 view .LVU351
 1552 0078 0133     		adds	r3, r3, #1
 1553              	.LVL137:
 1554              	.L87:
 442:Core/Src/Main/Mode.c **** 				{
 1555              		.loc 1 442 18 is_stmt 1 discriminator 1 view .LVU352
 442:Core/Src/Main/Mode.c **** 				{
 1556              		.loc 1 442 5 is_stmt 0 discriminator 1 view .LVU353
 1557 007a 102B     		cmp	r3, #16
 1558 007c F4DD     		ble	.L86
 1559              	.LBE21:
 440:Core/Src/Main/Mode.c **** 		{
 1560              		.loc 1 440 40 is_stmt 1 discriminator 2 view .LVU354
 440:Core/Src/Main/Mode.c **** 		{
 1561              		.loc 1 440 41 is_stmt 0 discriminator 2 view .LVU355
 1562 007e 0131     		adds	r1, r1, #1
 1563              	.LVL138:
 1564              	.L85:
 440:Core/Src/Main/Mode.c **** 		{
 1565              		.loc 1 440 15 is_stmt 1 discriminator 1 view .LVU356
 440:Core/Src/Main/Mode.c **** 		{
 1566              		.loc 1 440 2 is_stmt 0 discriminator 1 view .LVU357
 1567 0080 0F29     		cmp	r1, #15
ARM GAS  C:\Users\leopi\AppData\Local\Temp\ccXawahk.s 			page 42


 1568 0082 01DC     		bgt	.L98
 1569              	.LBB22:
 442:Core/Src/Main/Mode.c **** 				{
 1570              		.loc 1 442 13 view .LVU358
 1571 0084 0023     		movs	r3, #0
 1572 0086 F8E7     		b	.L87
 1573              	.L98:
 1574              	.LBE22:
 1575              	.LBE20:
 1576              	.LBB23:
 445:Core/Src/Main/Mode.c **** 				}
 446:Core/Src/Main/Mode.c **** 		}
 447:Core/Src/Main/Mode.c **** 		for(int i=0; i < NUMBER_OF_SQUARES_X+1; i++)
 1577              		.loc 1 447 11 view .LVU359
 1578 0088 4FF0000C 		mov	ip, #0
 1579 008c 0CE0     		b	.L88
 1580              	.LVL139:
 1581              	.L89:
 1582              	.LBB24:
 448:Core/Src/Main/Mode.c **** 		{
 449:Core/Src/Main/Mode.c **** 				for(int j=0; j < NUMBER_OF_SQUARES_Y; j++)
 450:Core/Src/Main/Mode.c **** 				{
 451:Core/Src/Main/Mode.c **** 					my_map.ColumnNode[i][j].existence = 0;
 1583              		.loc 1 451 6 is_stmt 1 discriminator 3 view .LVU360
 1584              		.loc 1 451 40 is_stmt 0 discriminator 3 view .LVU361
 1585 008e 03EB0C12 		add	r2, r3, ip, lsl #4
 1586 0092 02F58872 		add	r2, r2, #272
 1587 0096 0C49     		ldr	r1, .L100
 1588 0098 0020     		movs	r0, #0
 1589 009a 01F83200 		strb	r0, [r1, r2, lsl #3]
 449:Core/Src/Main/Mode.c **** 				{
 1590              		.loc 1 449 43 is_stmt 1 discriminator 3 view .LVU362
 449:Core/Src/Main/Mode.c **** 				{
 1591              		.loc 1 449 44 is_stmt 0 discriminator 3 view .LVU363
 1592 009e 0133     		adds	r3, r3, #1
 1593              	.LVL140:
 1594              	.L90:
 449:Core/Src/Main/Mode.c **** 				{
 1595              		.loc 1 449 18 is_stmt 1 discriminator 1 view .LVU364
 449:Core/Src/Main/Mode.c **** 				{
 1596              		.loc 1 449 5 is_stmt 0 discriminator 1 view .LVU365
 1597 00a0 0F2B     		cmp	r3, #15
 1598 00a2 F4DD     		ble	.L89
 1599              	.LBE24:
 447:Core/Src/Main/Mode.c **** 		{
 1600              		.loc 1 447 43 is_stmt 1 discriminator 2 view .LVU366
 447:Core/Src/Main/Mode.c **** 		{
 1601              		.loc 1 447 44 is_stmt 0 discriminator 2 view .LVU367
 1602 00a4 0CF1010C 		add	ip, ip, #1
 1603              	.LVL141:
 1604              	.L88:
 447:Core/Src/Main/Mode.c **** 		{
 1605              		.loc 1 447 16 is_stmt 1 discriminator 1 view .LVU368
 447:Core/Src/Main/Mode.c **** 		{
 1606              		.loc 1 447 3 is_stmt 0 discriminator 1 view .LVU369
 1607 00a8 BCF1100F 		cmp	ip, #16
 1608 00ac 01DC     		bgt	.L99
ARM GAS  C:\Users\leopi\AppData\Local\Temp\ccXawahk.s 			page 43


 1609              	.LBB25:
 449:Core/Src/Main/Mode.c **** 				{
 1610              		.loc 1 449 13 view .LVU370
 1611 00ae 0023     		movs	r3, #0
 1612 00b0 F6E7     		b	.L90
 1613              	.L99:
 1614              	.LBE25:
 1615              	.LBE23:
 452:Core/Src/Main/Mode.c **** 				}
 453:Core/Src/Main/Mode.c **** 		}
 454:Core/Src/Main/Mode.c **** 		printAllNodeExistence(&my_map);
 1616              		.loc 1 454 3 is_stmt 1 view .LVU371
 1617 00b2 054C     		ldr	r4, .L100
 1618 00b4 2046     		mov	r0, r4
 1619 00b6 FFF7FEFF 		bl	printAllNodeExistence
 1620              	.LVL142:
 455:Core/Src/Main/Mode.c **** 	//ãƒ•ãƒ©ãƒƒã‚·ãƒ¥ã‚’èª­ã¿å‡ºã™
 456:Core/Src/Main/Mode.c **** 	flashCopyNodesToRam(&my_map);
 1621              		.loc 1 456 2 view .LVU372
 1622 00ba 2046     		mov	r0, r4
 1623 00bc FFF7FEFF 		bl	flashCopyNodesToRam
 1624              	.LVL143:
 457:Core/Src/Main/Mode.c **** 	//åˆã£ã¦ã„ã‚‹ã‹ç¢ºèªã™ã‚‹
 458:Core/Src/Main/Mode.c **** 	printAllNodeExistence(&my_map);
 1625              		.loc 1 458 2 view .LVU373
 1626 00c0 2046     		mov	r0, r4
 1627 00c2 FFF7FEFF 		bl	printAllNodeExistence
 1628              	.LVL144:
 459:Core/Src/Main/Mode.c **** }
 1629              		.loc 1 459 1 is_stmt 0 view .LVU374
 1630 00c6 10BD     		pop	{r4, pc}
 1631              	.L101:
 1632              		.align	2
 1633              	.L100:
 1634 00c8 00000000 		.word	my_map
 1635              		.cfi_endproc
 1636              	.LFE247:
 1638              		.section	.rodata.TestIMU.str1.4,"aMS",%progbits,1
 1639              		.align	2
 1640              	.LC14:
 1641 0000 696D755F 		.ascii	"imu_check 1\343\201\252\343\202\211OK: %d\015\012\000"
 1641      63686563 
 1641      6B2031E3 
 1641      81AAE382 
 1641      894F4B3A 
 1642 001a 0000     		.align	2
 1643              	.LC15:
 1644 001c 6779726F 		.ascii	"gyro : %f\015\012\000"
 1644      203A2025 
 1644      660D0A00 
 1645              		.align	2
 1646              	.LC16:
 1647 0028 74696D65 		.ascii	"timer1 : %d, \350\247\222\345\272\246 : %f\015\012\000"
 1647      7231203A 
 1647      2025642C 
 1647      20E8A792 
 1647      E5BAA620 
ARM GAS  C:\Users\leopi\AppData\Local\Temp\ccXawahk.s 			page 44


 1648 0043 00       		.align	2
 1649              	.LC17:
 1650 0044 0D00     		.ascii	"\015\000"
 1651              		.section	.text.TestIMU,"ax",%progbits
 1652              		.align	1
 1653              		.global	TestIMU
 1654              		.syntax unified
 1655              		.thumb
 1656              		.thumb_func
 1658              	TestIMU:
 1659              	.LFB248:
 460:Core/Src/Main/Mode.c **** 
 461:Core/Src/Main/Mode.c **** void TestIMU()
 462:Core/Src/Main/Mode.c **** {
 1660              		.loc 1 462 1 is_stmt 1 view -0
 1661              		.cfi_startproc
 1662              		@ args = 0, pretend = 0, frame = 0
 1663              		@ frame_needed = 0, uses_anonymous_args = 0
 1664 0000 10B5     		push	{r4, lr}
 1665              	.LCFI19:
 1666              		.cfi_def_cfa_offset 8
 1667              		.cfi_offset 4, -8
 1668              		.cfi_offset 14, -4
 463:Core/Src/Main/Mode.c **** 	IT_mode = IMU_TEST;
 1669              		.loc 1 463 2 view .LVU376
 1670              		.loc 1 463 10 is_stmt 0 view .LVU377
 1671 0002 244B     		ldr	r3, .L107
 1672 0004 0522     		movs	r2, #5
 1673 0006 1A60     		str	r2, [r3]
 464:Core/Src/Main/Mode.c **** 
 465:Core/Src/Main/Mode.c **** 	uint8_t imu_check;
 1674              		.loc 1 465 2 is_stmt 1 view .LVU378
 466:Core/Src/Main/Mode.c **** 		imu_check = IMU_init();
 1675              		.loc 1 466 3 view .LVU379
 1676              		.loc 1 466 15 is_stmt 0 view .LVU380
 1677 0008 FFF7FEFF 		bl	IMU_init
 1678              	.LVL145:
 1679 000c 0146     		mov	r1, r0
 1680              	.LVL146:
 467:Core/Src/Main/Mode.c **** 		printf("imu_check 1ãªã‚‰OK: %d\r\n",imu_check);
 1681              		.loc 1 467 3 is_stmt 1 view .LVU381
 1682 000e 224C     		ldr	r4, .L107+4
 1683 0010 2046     		mov	r0, r4
 1684 0012 FFF7FEFF 		bl	printf
 1685              	.LVL147:
 468:Core/Src/Main/Mode.c **** 	#if 1 //IMUã‹ã‚‰å€¤ãŒæ¥ãªããªã‚‹ç¾è±¡ã®å¯¾ç­–
 469:Core/Src/Main/Mode.c **** 		imu_check =IMU_init();
 1686              		.loc 1 469 3 view .LVU382
 1687              		.loc 1 469 14 is_stmt 0 view .LVU383
 1688 0016 FFF7FEFF 		bl	IMU_init
 1689              	.LVL148:
 1690 001a 0146     		mov	r1, r0
 1691              	.LVL149:
 470:Core/Src/Main/Mode.c **** 		printf("imu_check 1ãªã‚‰OK: %d\r\n",imu_check);
 1692              		.loc 1 470 3 is_stmt 1 view .LVU384
 1693 001c 2046     		mov	r0, r4
 1694 001e FFF7FEFF 		bl	printf
ARM GAS  C:\Users\leopi\AppData\Local\Temp\ccXawahk.s 			page 45


 1695              	.LVL150:
 471:Core/Src/Main/Mode.c **** 	#endif
 472:Core/Src/Main/Mode.c **** 		HAL_Delay(100);
 1696              		.loc 1 472 3 view .LVU385
 1697 0022 6420     		movs	r0, #100
 1698 0024 FFF7FEFF 		bl	HAL_Delay
 1699              	.LVL151:
 473:Core/Src/Main/Mode.c **** 
 474:Core/Src/Main/Mode.c **** 		ZGyro = ReadIMU(0x37, 0x38);
 1700              		.loc 1 474 3 view .LVU386
 1701              		.loc 1 474 11 is_stmt 0 view .LVU387
 1702 0028 3821     		movs	r1, #56
 1703 002a 3720     		movs	r0, #55
 1704 002c FFF7FEFF 		bl	ReadIMU
 1705              	.LVL152:
 1706              		.loc 1 474 9 view .LVU388
 1707 0030 1A4B     		ldr	r3, .L107+8
 1708 0032 83ED000A 		vstr.32	s0, [r3]
 475:Core/Src/Main/Mode.c **** 		printf("gyro : %f\r\n",ZGyro);
 1709              		.loc 1 475 3 is_stmt 1 view .LVU389
 1710 0036 1868     		ldr	r0, [r3]	@ float
 1711 0038 FFF7FEFF 		bl	__aeabi_f2d
 1712              	.LVL153:
 1713 003c 0246     		mov	r2, r0
 1714 003e 0B46     		mov	r3, r1
 1715 0040 1748     		ldr	r0, .L107+12
 1716 0042 FFF7FEFF 		bl	printf
 1717              	.LVL154:
 476:Core/Src/Main/Mode.c **** 
 477:Core/Src/Main/Mode.c **** //		printf("%d, %hd, %f, %f, %f\r\n", m,ZGFilterd,  ZGyro, AngularV, Angle);
 478:Core/Src/Main/Mode.c **** 
 479:Core/Src/Main/Mode.c **** 		timer1 = 0;
 1718              		.loc 1 479 3 view .LVU390
 1719              		.loc 1 479 10 is_stmt 0 view .LVU391
 1720 0046 0024     		movs	r4, #0
 1721 0048 164B     		ldr	r3, .L107+16
 1722 004a 1C60     		str	r4, [r3]
 480:Core/Src/Main/Mode.c **** 		t = 1;
 1723              		.loc 1 480 3 is_stmt 1 view .LVU392
 1724              		.loc 1 480 5 is_stmt 0 view .LVU393
 1725 004c 164B     		ldr	r3, .L107+20
 1726 004e 0122     		movs	r2, #1
 1727 0050 1A60     		str	r2, [r3]
 481:Core/Src/Main/Mode.c **** 		//å‰²ã‚Šè¾¼ã¿ã‚’æœ‰åŠ¹åŒ–
 482:Core/Src/Main/Mode.c **** 
 483:Core/Src/Main/Mode.c **** 		printf("timer1 : %d, è§’åº¦ : %f\r\n",timer1, Angle);
 1728              		.loc 1 483 3 is_stmt 1 view .LVU394
 1729 0052 164B     		ldr	r3, .L107+24
 1730 0054 1868     		ldr	r0, [r3]	@ float
 1731 0056 FFF7FEFF 		bl	__aeabi_f2d
 1732              	.LVL155:
 1733 005a 0246     		mov	r2, r0
 1734 005c 0B46     		mov	r3, r1
 1735 005e 2146     		mov	r1, r4
 1736 0060 1348     		ldr	r0, .L107+28
 1737 0062 FFF7FEFF 		bl	printf
 1738              	.LVL156:
ARM GAS  C:\Users\leopi\AppData\Local\Temp\ccXawahk.s 			page 46


 484:Core/Src/Main/Mode.c **** 		HAL_TIM_Base_Start_IT(&htim1);
 1739              		.loc 1 484 3 view .LVU395
 1740 0066 1348     		ldr	r0, .L107+32
 1741 0068 FFF7FEFF 		bl	HAL_TIM_Base_Start_IT
 1742              	.LVL157:
 485:Core/Src/Main/Mode.c **** 		while(t == 1) //10s
 1743              		.loc 1 485 3 view .LVU396
 1744              		.loc 1 485 8 is_stmt 0 view .LVU397
 1745 006c 02E0     		b	.L103
 1746              	.L104:
 486:Core/Src/Main/Mode.c **** 		{
 487:Core/Src/Main/Mode.c **** 			printf("\r\n");
 1747              		.loc 1 487 4 is_stmt 1 view .LVU398
 1748 006e 1248     		ldr	r0, .L107+36
 1749 0070 FFF7FEFF 		bl	puts
 1750              	.LVL158:
 1751              	.L103:
 485:Core/Src/Main/Mode.c **** 		while(t == 1) //10s
 1752              		.loc 1 485 8 view .LVU399
 485:Core/Src/Main/Mode.c **** 		while(t == 1) //10s
 1753              		.loc 1 485 11 is_stmt 0 view .LVU400
 1754 0074 0C4B     		ldr	r3, .L107+20
 1755 0076 1B68     		ldr	r3, [r3]
 485:Core/Src/Main/Mode.c **** 		while(t == 1) //10s
 1756              		.loc 1 485 8 view .LVU401
 1757 0078 012B     		cmp	r3, #1
 1758 007a F8D0     		beq	.L104
 488:Core/Src/Main/Mode.c **** 		}
 489:Core/Src/Main/Mode.c **** 
 490:Core/Src/Main/Mode.c **** //		ag = Angle;
 491:Core/Src/Main/Mode.c **** 		t = 0;
 1759              		.loc 1 491 3 is_stmt 1 view .LVU402
 1760              		.loc 1 491 5 is_stmt 0 view .LVU403
 1761 007c 0A4B     		ldr	r3, .L107+20
 1762 007e 0022     		movs	r2, #0
 1763 0080 1A60     		str	r2, [r3]
 492:Core/Src/Main/Mode.c **** 		HAL_TIM_Base_Stop_IT(&htim1);
 1764              		.loc 1 492 3 is_stmt 1 view .LVU404
 1765 0082 0C48     		ldr	r0, .L107+32
 1766 0084 FFF7FEFF 		bl	HAL_TIM_Base_Stop_IT
 1767              	.LVL159:
 493:Core/Src/Main/Mode.c **** 		HAL_Delay(1000);
 1768              		.loc 1 493 3 view .LVU405
 1769 0088 4FF47A70 		mov	r0, #1000
 1770 008c FFF7FEFF 		bl	HAL_Delay
 1771              	.LVL160:
 494:Core/Src/Main/Mode.c **** 
 495:Core/Src/Main/Mode.c **** 
 496:Core/Src/Main/Mode.c **** 
 497:Core/Src/Main/Mode.c **** 			for(int i=0; i < 5000; i++) //0.007495 / 5000;
 1772              		.loc 1 497 4 view .LVU406
 1773              	.LBB26:
 1774              		.loc 1 497 8 view .LVU407
 1775              		.loc 1 497 17 view .LVU408
 1776              	.L105:
 498:Core/Src/Main/Mode.c **** //				printf("%d, %f\r\n",i, debugVL[i]); //-0.001331
 499:Core/Src/Main/Mode.c **** 			while(1)
ARM GAS  C:\Users\leopi\AppData\Local\Temp\ccXawahk.s 			page 47


 1777              		.loc 1 499 4 discriminator 1 view .LVU409
 500:Core/Src/Main/Mode.c **** 					{
 501:Core/Src/Main/Mode.c **** 		}
 1778              		.loc 1 501 3 discriminator 1 view .LVU410
 499:Core/Src/Main/Mode.c **** 					{
 1779              		.loc 1 499 9 discriminator 1 view .LVU411
 1780 0090 FEE7     		b	.L105
 1781              	.L108:
 1782 0092 00BF     		.align	2
 1783              	.L107:
 1784 0094 00000000 		.word	IT_mode
 1785 0098 00000000 		.word	.LC14
 1786 009c 00000000 		.word	ZGyro
 1787 00a0 1C000000 		.word	.LC15
 1788 00a4 00000000 		.word	timer1
 1789 00a8 00000000 		.word	t
 1790 00ac 00000000 		.word	Angle
 1791 00b0 28000000 		.word	.LC16
 1792 00b4 00000000 		.word	htim1
 1793 00b8 44000000 		.word	.LC17
 1794              	.LBE26:
 1795              		.cfi_endproc
 1796              	.LFE248:
 1798              		.text
 1799              	.Letext0:
 1800              		.file 2 "c:\\tools\\gcc-arm-none-eabi-10_2021.10\\arm-none-eabi\\include\\machine\\_default_types.
 1801              		.file 3 "c:\\tools\\gcc-arm-none-eabi-10_2021.10\\arm-none-eabi\\include\\sys\\_stdint.h"
 1802              		.file 4 "Drivers/CMSIS/Device/ST/STM32F4xx/Include/stm32f405xx.h"
 1803              		.file 5 "Drivers/STM32F4xx_HAL_Driver/Inc/stm32f4xx_hal_def.h"
 1804              		.file 6 "Drivers/STM32F4xx_HAL_Driver/Inc/stm32f4xx_hal_dma.h"
 1805              		.file 7 "Drivers/STM32F4xx_HAL_Driver/Inc/stm32f4xx_hal_tim.h"
 1806              		.file 8 "Core/Inc/Main/MicroMouse.h"
 1807              		.file 9 "Core/Inc/HardWare/ICM_20648.h"
 1808              		.file 10 "Core/Inc/Main/Interrupt.h"
 1809              		.file 11 "/Users/leopi/Documents/vs/S-Reo/MazeLibrary/MazeLib.h"
 1810              		.file 12 "/Users/leopi/Documents/vs/S-Reo/MazeLibrary/Searching.h"
 1811              		.file 13 "/Users/leopi/Documents/vs/S-Reo/MazeLibrary/dfs.h"
 1812              		.file 14 "Core/Inc/Main/Running.h"
 1813              		.file 15 "c:\\tools\\gcc-arm-none-eabi-10_2021.10\\arm-none-eabi\\include\\stdio.h"
 1814              		.file 16 "Drivers/STM32F4xx_HAL_Driver/Inc/stm32f4xx_hal.h"
 1815              		.file 17 "Core/Inc/Main/Record.h"
 1816              		.file 18 "Core/Inc/Main/Action.h"
 1817              		.file 19 "Core/Inc/Tools/PID_Control.h"
 1818              		.file 20 "Core/Inc/HardWare/Flash.h"
 1819              		.file 21 "Core/Inc/Tools/UI.h"
 1820              		.file 22 "Core/Inc/HardWare/LED_Driver.h"
 1821              		.file 23 "Core/Inc/Tools/Debug.h"
 1822              		.file 24 "Core/Inc/Tools/Sampling.h"
 1823              		.file 25 "<built-in>"
ARM GAS  C:\Users\leopi\AppData\Local\Temp\ccXawahk.s 			page 48


DEFINED SYMBOLS
                            *ABS*:00000000 Mode.c
C:\Users\leopi\AppData\Local\Temp\ccXawahk.s:20     .text.restart:00000000 $t
C:\Users\leopi\AppData\Local\Temp\ccXawahk.s:25     .text.restart:00000000 restart
C:\Users\leopi\AppData\Local\Temp\ccXawahk.s:126    .text.restart:00000078 $d
C:\Users\leopi\AppData\Local\Temp\ccXawahk.s:336    .text.restart:000001d4 $d
C:\Users\leopi\AppData\Local\Temp\ccXawahk.s:359    .text.Debug:00000000 $t
C:\Users\leopi\AppData\Local\Temp\ccXawahk.s:365    .text.Debug:00000000 Debug
C:\Users\leopi\AppData\Local\Temp\ccXawahk.s:428    .text.ParameterSetting:00000000 $t
C:\Users\leopi\AppData\Local\Temp\ccXawahk.s:434    .text.ParameterSetting:00000000 ParameterSetting
C:\Users\leopi\AppData\Local\Temp\ccXawahk.s:457    .rodata.GainSetting.str1.4:00000000 $d
C:\Users\leopi\AppData\Local\Temp\ccXawahk.s:512    .text.GainSetting:00000000 $t
C:\Users\leopi\AppData\Local\Temp\ccXawahk.s:518    .text.GainSetting:00000000 GainSetting
C:\Users\leopi\AppData\Local\Temp\ccXawahk.s:729    .text.GainSetting:000000dc $d
C:\Users\leopi\AppData\Local\Temp\ccXawahk.s:744    .rodata.GainTest.str1.4:00000000 $d
C:\Users\leopi\AppData\Local\Temp\ccXawahk.s:750    .text.GainTest:00000000 $t
C:\Users\leopi\AppData\Local\Temp\ccXawahk.s:756    .text.GainTest:00000000 GainTest
C:\Users\leopi\AppData\Local\Temp\ccXawahk.s:883    .text.GainTest:000000b8 $d
C:\Users\leopi\AppData\Local\Temp\ccXawahk.s:894    .rodata.WritingFree.str1.4:00000000 $d
C:\Users\leopi\AppData\Local\Temp\ccXawahk.s:904    .text.WritingFree:00000000 $t
C:\Users\leopi\AppData\Local\Temp\ccXawahk.s:910    .text.WritingFree:00000000 WritingFree
C:\Users\leopi\AppData\Local\Temp\ccXawahk.s:1083   .text.WritingFree:000000dc $d
C:\Users\leopi\AppData\Local\Temp\ccXawahk.s:1099   .text.DFS_Running:00000000 $t
C:\Users\leopi\AppData\Local\Temp\ccXawahk.s:1105   .text.DFS_Running:00000000 DFS_Running
C:\Users\leopi\AppData\Local\Temp\ccXawahk.s:1249   .text.DFS_Running:000000ac $d
C:\Users\leopi\AppData\Local\Temp\ccXawahk.s:1264   .text.FlashWriteTest:00000000 $t
C:\Users\leopi\AppData\Local\Temp\ccXawahk.s:1270   .text.FlashWriteTest:00000000 FlashWriteTest
C:\Users\leopi\AppData\Local\Temp\ccXawahk.s:1379   .text.FlashWriteTest:00000060 $d
C:\Users\leopi\AppData\Local\Temp\ccXawahk.s:1384   .text.FlashReadTest:00000000 $t
C:\Users\leopi\AppData\Local\Temp\ccXawahk.s:1390   .text.FlashReadTest:00000000 FlashReadTest
C:\Users\leopi\AppData\Local\Temp\ccXawahk.s:1415   .text.FlashReadTest:00000014 $d
C:\Users\leopi\AppData\Local\Temp\ccXawahk.s:1420   .text.Simu:00000000 $t
C:\Users\leopi\AppData\Local\Temp\ccXawahk.s:1426   .text.Simu:00000000 Simu
C:\Users\leopi\AppData\Local\Temp\ccXawahk.s:1634   .text.Simu:000000c8 $d
C:\Users\leopi\AppData\Local\Temp\ccXawahk.s:1639   .rodata.TestIMU.str1.4:00000000 $d
C:\Users\leopi\AppData\Local\Temp\ccXawahk.s:1652   .text.TestIMU:00000000 $t
C:\Users\leopi\AppData\Local\Temp\ccXawahk.s:1658   .text.TestIMU:00000000 TestIMU
C:\Users\leopi\AppData\Local\Temp\ccXawahk.s:1784   .text.TestIMU:00000094 $d
C:\Users\leopi\AppData\Local\Temp\ccXawahk.s:133    .text.restart:0000007f $d
C:\Users\leopi\AppData\Local\Temp\ccXawahk.s:133    .text.restart:00000080 $t

UNDEFINED SYMBOLS
PIDReset
updateAllNodeWeight
getNextNode
getNextState
Accel
ChangeLED
Rotate
TurnRight
GoStraight
TurnLeft
TargetVelocity
Acceleration
TargetAngularV
TargetAngle
Angle
ARM GAS  C:\Users\leopi\AppData\Local\Temp\ccXawahk.s 			page 49


WALL_MASK
my_mouse
my_map
AddVelocity
SearchOrFast
Calc
ExploreVelocity
ModeSelect
Signal
HAL_Delay
printPhotoSampleValue
Load_Gain
Change_Gain
puts
__aeabi_f2d
MouseInit
PIDChangeFlag
printf
IT_mode
Photo
FastStraight
dbc
TotalPulse
debugVL
debugVR
InitStackNum
StackMass
GetStackNum
SetStackNum
getNextDirection
Decel
WaitStopAndReset
shiftState
VisitedMass
Flash_clear_sector1
flashStoreNodes
VelocityMax
goal_edge_num
mass_stack
printAllNodeExistence
flashCopyNodesToRam
IMU_init
ReadIMU
HAL_TIM_Base_Start_IT
HAL_TIM_Base_Stop_IT
ZGyro
timer1
t
htim1
