ARM GAS  C:\Users\leopi\AppData\Local\Temp\cc3OmPOJ.s 			page 1


   1              		.cpu cortex-m4
   2              		.arch armv7e-m
   3              		.fpu fpv4-sp-d16
   4              		.eabi_attribute 27, 1
   5              		.eabi_attribute 28, 1
   6              		.eabi_attribute 20, 1
   7              		.eabi_attribute 21, 1
   8              		.eabi_attribute 23, 3
   9              		.eabi_attribute 24, 1
  10              		.eabi_attribute 25, 1
  11              		.eabi_attribute 26, 1
  12              		.eabi_attribute 30, 1
  13              		.eabi_attribute 34, 1
  14              		.eabi_attribute 18, 4
  15              		.file	"Mode.c"
  16              		.text
  17              	.Ltext0:
  18              		.cfi_sections	.debug_frame
  19              		.section	.text.loggingMotorVelocityValue,"ax",%progbits
  20              		.align	1
  21              		.syntax unified
  22              		.thumb
  23              		.thumb_func
  25              	loggingMotorVelocityValue:
  26              	.LVL0:
  27              	.LFB238:
  28              		.file 1 "Core/Src/Main/Mode.c"
   1:Core/Src/Main/Mode.c **** /*
   2:Core/Src/Main/Mode.c ****  * Mode.c
   3:Core/Src/Main/Mode.c ****  *
   4:Core/Src/Main/Mode.c ****  *  Created on: Feb 17, 2022
   5:Core/Src/Main/Mode.c ****  *      Author: leopi
   6:Core/Src/Main/Mode.c ****  */
   7:Core/Src/Main/Mode.c **** 
   8:Core/Src/Main/Mode.c **** #include "MicroMouse.h"
   9:Core/Src/Main/Mode.c **** #include "Mode.h"
  10:Core/Src/Main/Mode.c **** 
  11:Core/Src/Main/Mode.c **** #include "IEH2_4096.h"
  12:Core/Src/Main/Mode.c **** #include "mouse_ADC.h"
  13:Core/Src/Main/Mode.c **** #include "LED_Driver.h"
  14:Core/Src/Main/Mode.c **** #include "IR_Emitter.h"
  15:Core/Src/Main/Mode.c **** #include "Motor_Driver.h"
  16:Core/Src/Main/Mode.c **** #include "ICM_20648.h"
  17:Core/Src/Main/Mode.c **** #include "Flash.h"
  18:Core/Src/Main/Mode.c **** 
  19:Core/Src/Main/Mode.c **** 
  20:Core/Src/Main/Mode.c **** #include "UI.h"
  21:Core/Src/Main/Mode.c **** #include "PID_Control.h"
  22:Core/Src/Main/Mode.c **** #include "Convert.h"
  23:Core/Src/Main/Mode.c **** #include "Debug.h"
  24:Core/Src/Main/Mode.c **** #include "Sampling.h"
  25:Core/Src/Main/Mode.c **** 
  26:Core/Src/Main/Mode.c **** #include "Interrupt.h"
  27:Core/Src/Main/Mode.c **** #include "Action.h"
  28:Core/Src/Main/Mode.c **** #include "MazeLib.h"
  29:Core/Src/Main/Mode.c **** #include "Searching.h"
  30:Core/Src/Main/Mode.c **** #include "Record.h"
ARM GAS  C:\Users\leopi\AppData\Local\Temp\cc3OmPOJ.s 			page 2


  31:Core/Src/Main/Mode.c **** #include "dfs.h"
  32:Core/Src/Main/Mode.c **** #include "FastRun.h"
  33:Core/Src/Main/Mode.c **** 
  34:Core/Src/Main/Mode.c **** #include "Running.h"
  35:Core/Src/Main/Mode.c **** #include <main.h>
  36:Core/Src/Main/Mode.c **** #include <stdio.h>
  37:Core/Src/Main/Mode.c **** //å®Ÿç’°å¢ƒå‡¦ç†ç”¨ã«ã€ã‚°ãƒ­ãƒ¼ãƒãƒ«ãªãƒãƒƒãƒ—ãƒ‡ãƒ¼ã‚¿ã¨ãƒ—ãƒ­ãƒ•ã‚£ãƒ¼ãƒ«ã‚’ä½œæˆ
  38:Core/Src/Main/Mode.c **** #define LOG_NUM_VELOCITY 500
  39:Core/Src/Main/Mode.c **** static void loggingMotorVelocityValue(logger_f *log_velocity, float target_velocity){
  29              		.loc 1 39 85 view -0
  30              		.cfi_startproc
  31              		@ args = 0, pretend = 0, frame = 2000
  32              		@ frame_needed = 0, uses_anonymous_args = 0
  33              		.loc 1 39 85 is_stmt 0 view .LVU1
  34 0000 70B5     		push	{r4, r5, r6, lr}
  35              	.LCFI0:
  36              		.cfi_def_cfa_offset 16
  37              		.cfi_offset 4, -16
  38              		.cfi_offset 5, -12
  39              		.cfi_offset 6, -8
  40              		.cfi_offset 14, -4
  41 0002 ADF5FA6D 		sub	sp, sp, #2000
  42              	.LCFI1:
  43              		.cfi_def_cfa_offset 2016
  44 0006 0446     		mov	r4, r0
  45 0008 10EE105A 		vmov	r5, s0
  40:Core/Src/Main/Mode.c **** 	
  41:Core/Src/Main/Mode.c **** 	float data_veloctiy[LOG_NUM_VELOCITY]={0};
  46              		.loc 1 41 2 is_stmt 1 view .LVU2
  47              		.loc 1 41 8 is_stmt 0 view .LVU3
  48 000c 4FF4FA62 		mov	r2, #2000
  49 0010 0021     		movs	r1, #0
  50 0012 6846     		mov	r0, sp
  51              	.LVL1:
  52              		.loc 1 41 8 view .LVU4
  53 0014 FFF7FEFF 		bl	memset
  54              	.LVL2:
  42:Core/Src/Main/Mode.c **** 	initFloatLog(log_velocity, &data_veloctiy[0], false, LOG_NUM_VELOCITY);
  55              		.loc 1 42 2 is_stmt 1 view .LVU5
  56 0018 4FF4FA73 		mov	r3, #500
  57 001c 0022     		movs	r2, #0
  58 001e 6946     		mov	r1, sp
  59 0020 2046     		mov	r0, r4
  60 0022 FFF7FEFF 		bl	initFloatLog
  61              	.LVL3:
  43:Core/Src/Main/Mode.c **** 
  44:Core/Src/Main/Mode.c **** 	MouseResetParameters();
  62              		.loc 1 44 2 view .LVU6
  63 0026 FFF7FEFF 		bl	MouseResetParameters
  64              	.LVL4:
  45:Core/Src/Main/Mode.c **** 	TargetVelocity[BODY] = 0;
  65              		.loc 1 45 2 view .LVU7
  66              		.loc 1 45 23 is_stmt 0 view .LVU8
  67 002a 224E     		ldr	r6, .L4
  68 002c 0023     		movs	r3, #0
  69 002e B360     		str	r3, [r6, #8]	@ float
  46:Core/Src/Main/Mode.c **** 	VelocityLeftOut=VelocityRightOut=0;
ARM GAS  C:\Users\leopi\AppData\Local\Temp\cc3OmPOJ.s 			page 3


  70              		.loc 1 46 2 is_stmt 1 view .LVU9
  71              		.loc 1 46 34 is_stmt 0 view .LVU10
  72 0030 0020     		movs	r0, #0
  73 0032 214B     		ldr	r3, .L4+4
  74 0034 1860     		str	r0, [r3]
  75              		.loc 1 46 17 view .LVU11
  76 0036 214B     		ldr	r3, .L4+8
  77 0038 1860     		str	r0, [r3]
  47:Core/Src/Main/Mode.c **** 	MousePIDFlagAll(false);
  78              		.loc 1 47 2 is_stmt 1 view .LVU12
  79 003a FFF7FEFF 		bl	MousePIDFlagAll
  80              	.LVL5:
  48:Core/Src/Main/Mode.c **** 	MousePIDResetAll();
  81              		.loc 1 48 2 view .LVU13
  82 003e FFF7FEFF 		bl	MousePIDResetAll
  83              	.LVL6:
  49:Core/Src/Main/Mode.c **** 	EncoderStart();
  84              		.loc 1 49 2 view .LVU14
  85 0042 FFF7FEFF 		bl	EncoderStart
  86              	.LVL7:
  50:Core/Src/Main/Mode.c **** 	Motor_PWM_Start();
  87              		.loc 1 50 2 view .LVU15
  88 0046 FFF7FEFF 		bl	Motor_PWM_Start
  89              	.LVL8:
  51:Core/Src/Main/Mode.c **** 
  52:Core/Src/Main/Mode.c **** 	PIDChangeFlag(L_VELO_PID, 1);
  90              		.loc 1 52 2 view .LVU16
  91 004a 0121     		movs	r1, #1
  92 004c 0420     		movs	r0, #4
  93 004e FFF7FEFF 		bl	PIDChangeFlag
  94              	.LVL9:
  53:Core/Src/Main/Mode.c **** 	PIDChangeFlag(R_VELO_PID, 1);
  95              		.loc 1 53 2 view .LVU17
  96 0052 0121     		movs	r1, #1
  97 0054 0520     		movs	r0, #5
  98 0056 FFF7FEFF 		bl	PIDChangeFlag
  99              	.LVL10:
  54:Core/Src/Main/Mode.c **** 	IT_mode = EXPLORE;
 100              		.loc 1 54 2 view .LVU18
 101              		.loc 1 54 10 is_stmt 0 view .LVU19
 102 005a 194B     		ldr	r3, .L4+12
 103 005c 0622     		movs	r2, #6
 104 005e 1A60     		str	r2, [r3]
  55:Core/Src/Main/Mode.c **** 	HAL_TIM_Base_Start_IT(&htim1);
 105              		.loc 1 55 2 is_stmt 1 view .LVU20
 106 0060 1848     		ldr	r0, .L4+16
 107 0062 FFF7FEFF 		bl	HAL_TIM_Base_Start_IT
 108              	.LVL11:
  56:Core/Src/Main/Mode.c **** 	
  57:Core/Src/Main/Mode.c **** 	int hoge = 0;
 109              		.loc 1 57 2 view .LVU21
  58:Core/Src/Main/Mode.c **** 	// printf("ã‚µãƒ³ãƒ—ãƒ«é–‹å§‹\r\n");
  59:Core/Src/Main/Mode.c **** 	Signal(7);
 110              		.loc 1 59 2 view .LVU22
 111 0066 0720     		movs	r0, #7
 112 0068 FFF7FEFF 		bl	Signal
 113              	.LVL12:
ARM GAS  C:\Users\leopi\AppData\Local\Temp\cc3OmPOJ.s 			page 4


  60:Core/Src/Main/Mode.c **** 	TargetVelocity[BODY] = target_velocity;
 114              		.loc 1 60 2 view .LVU23
 115              		.loc 1 60 23 is_stmt 0 view .LVU24
 116 006c B560     		str	r5, [r6, #8]	@ float
  61:Core/Src/Main/Mode.c **** 	setLoggerFlag(&(log_velocity->f), true);
 117              		.loc 1 61 2 is_stmt 1 view .LVU25
 118 006e 0121     		movs	r1, #1
 119 0070 2046     		mov	r0, r4
 120 0072 FFF7FEFF 		bl	setLoggerFlag
 121              	.LVL13:
  62:Core/Src/Main/Mode.c **** 	// Motor_Switch( 60,60);
  63:Core/Src/Main/Mode.c **** 	while(getLoggerFlag(&(log_velocity->f)) == true){
 122              		.loc 1 63 2 view .LVU26
 123              	.L2:
 124              		.loc 1 63 7 view .LVU27
 125              		.loc 1 63 8 is_stmt 0 view .LVU28
 126 0076 2046     		mov	r0, r4
 127 0078 FFF7FEFF 		bl	getLoggerFlag
 128              	.LVL14:
 129              		.loc 1 63 7 view .LVU29
 130 007c 0028     		cmp	r0, #0
 131 007e FAD1     		bne	.L2
  64:Core/Src/Main/Mode.c **** 		// ç„¡é™ãƒ«ãƒ¼ãƒ—ã—ãªã„ã‹ä¸å®‰: printfå…¥ã‚Œãªã„ã¨ç„¡é™ãƒ«ãƒ¼ãƒ—ï¼Ÿã‚ˆãã‚ã‹ã‚‰ãªã
  65:Core/Src/Main/Mode.c **** 		hoge++;
  66:Core/Src/Main/Mode.c **** 	}
  67:Core/Src/Main/Mode.c **** 	TargetVelocity[BODY] = 0;
 132              		.loc 1 67 2 is_stmt 1 view .LVU30
 133              		.loc 1 67 23 is_stmt 0 view .LVU31
 134 0080 0C4B     		ldr	r3, .L4
 135 0082 0022     		movs	r2, #0
 136 0084 9A60     		str	r2, [r3, #8]	@ float
  68:Core/Src/Main/Mode.c **** 	// Motor_Switch( 0,0);
  69:Core/Src/Main/Mode.c **** 	Motor_PWM_Stop();
 137              		.loc 1 69 2 is_stmt 1 view .LVU32
 138 0086 FFF7FEFF 		bl	Motor_PWM_Stop
 139              	.LVL15:
  70:Core/Src/Main/Mode.c **** 	EncoderStop();
 140              		.loc 1 70 2 view .LVU33
 141 008a FFF7FEFF 		bl	EncoderStop
 142              	.LVL16:
  71:Core/Src/Main/Mode.c **** 	MousePIDFlagAll(false);
 143              		.loc 1 71 2 view .LVU34
 144 008e 0020     		movs	r0, #0
 145 0090 FFF7FEFF 		bl	MousePIDFlagAll
 146              	.LVL17:
  72:Core/Src/Main/Mode.c **** 	HAL_TIM_Base_Stop_IT(&htim1);
 147              		.loc 1 72 2 view .LVU35
 148 0094 0B48     		ldr	r0, .L4+16
 149 0096 FFF7FEFF 		bl	HAL_TIM_Base_Stop_IT
 150              	.LVL18:
  73:Core/Src/Main/Mode.c **** 	// printf("ã‚µãƒ³ãƒ—ãƒ«çµ‚äº†\r\n");
  74:Core/Src/Main/Mode.c **** 	// printf("hoge: %d\r\n",hoge);
  75:Core/Src/Main/Mode.c **** 	HAL_Delay(10000);
 151              		.loc 1 75 2 view .LVU36
 152 009a 42F21070 		movw	r0, #10000
 153 009e FFF7FEFF 		bl	HAL_Delay
 154              	.LVL19:
ARM GAS  C:\Users\leopi\AppData\Local\Temp\cc3OmPOJ.s 			page 5


  76:Core/Src/Main/Mode.c **** 	Signal(7);
 155              		.loc 1 76 2 view .LVU37
 156 00a2 0720     		movs	r0, #7
 157 00a4 FFF7FEFF 		bl	Signal
 158              	.LVL20:
  77:Core/Src/Main/Mode.c **** 	printFloatLog(log_velocity);
 159              		.loc 1 77 2 view .LVU38
 160 00a8 2046     		mov	r0, r4
 161 00aa FFF7FEFF 		bl	printFloatLog
 162              	.LVL21:
  78:Core/Src/Main/Mode.c **** }
 163              		.loc 1 78 1 is_stmt 0 view .LVU39
 164 00ae 0DF5FA6D 		add	sp, sp, #2000
 165              	.LCFI2:
 166              		.cfi_def_cfa_offset 16
 167              		@ sp needed
 168 00b2 70BD     		pop	{r4, r5, r6, pc}
 169              	.LVL22:
 170              	.L5:
 171              		.loc 1 78 1 view .LVU40
 172              		.align	2
 173              	.L4:
 174 00b4 00000000 		.word	TargetVelocity
 175 00b8 00000000 		.word	VelocityRightOut
 176 00bc 00000000 		.word	VelocityLeftOut
 177 00c0 00000000 		.word	IT_mode
 178 00c4 00000000 		.word	htim1
 179              		.cfi_endproc
 180              	.LFE238:
 182              		.section	.text.restart,"ax",%progbits
 183              		.align	1
 184              		.syntax unified
 185              		.thumb
 186              		.thumb_func
 188              	restart:
 189              	.LVL23:
 190              	.LFB244:
  79:Core/Src/Main/Mode.c **** void Debug()
  80:Core/Src/Main/Mode.c **** {
  81:Core/Src/Main/Mode.c **** 	//ãƒ¢ãƒ¼ãƒ‰é¸æŠã§ãƒ‡ãƒãƒƒã‚°å¯¾è±¡ã‚’é¸æŠï¼ˆå€‹åˆ¥ãƒ‡ãƒãƒƒã‚°ã¯å„ã‚½ãƒ¼ã‚¹ã§è¨˜è¿°ï¼Ÿï¼‰
  82:Core/Src/Main/Mode.c **** 	int8_t mode=0;
  83:Core/Src/Main/Mode.c **** 	ModeSelect(0,7,&mode);
  84:Core/Src/Main/Mode.c **** 	Signal(mode);
  85:Core/Src/Main/Mode.c **** 	switch (mode)
  86:Core/Src/Main/Mode.c **** 	{
  87:Core/Src/Main/Mode.c **** 	case 0:
  88:Core/Src/Main/Mode.c **** 		//ã‚¿ãƒ¼ãƒ³ã®ãƒ‡ãƒãƒƒã‚°. ãƒ‡ãƒãƒƒã‚°ã¨ã„ã†ã‹ãƒ†ã‚¹ãƒˆã¨åŒã˜æ¦‚å¿µãªæ°—ãŒã™ã‚‹
  89:Core/Src/Main/Mode.c **** 		break;
  90:Core/Src/Main/Mode.c **** 	case 1:
  91:Core/Src/Main/Mode.c **** 		HAL_Delay(2000);
  92:Core/Src/Main/Mode.c **** 		ChangeLED(mode);		
  93:Core/Src/Main/Mode.c **** 		printPhotoSampleValue();
  94:Core/Src/Main/Mode.c **** 		ChangeLED(0);
  95:Core/Src/Main/Mode.c **** 		break;
  96:Core/Src/Main/Mode.c **** 	case 2:
  97:Core/Src/Main/Mode.c **** 		
  98:Core/Src/Main/Mode.c **** 		loggingMotorVelocityValue(&log_velocity, 240);
ARM GAS  C:\Users\leopi\AppData\Local\Temp\cc3OmPOJ.s 			page 6


  99:Core/Src/Main/Mode.c **** 		break;
 100:Core/Src/Main/Mode.c **** 	default:
 101:Core/Src/Main/Mode.c **** 		break;
 102:Core/Src/Main/Mode.c **** 	}
 103:Core/Src/Main/Mode.c **** 
 104:Core/Src/Main/Mode.c **** }
 105:Core/Src/Main/Mode.c **** void ParameterSetting()
 106:Core/Src/Main/Mode.c **** {
 107:Core/Src/Main/Mode.c **** 	Load_Gain();
 108:Core/Src/Main/Mode.c **** 	Change_Gain();
 109:Core/Src/Main/Mode.c **** 
 110:Core/Src/Main/Mode.c **** }
 111:Core/Src/Main/Mode.c **** 
 112:Core/Src/Main/Mode.c **** int GainSetting(int n){
 113:Core/Src/Main/Mode.c **** 
 114:Core/Src/Main/Mode.c **** 	_Bool loop_flag=true;
 115:Core/Src/Main/Mode.c **** 	while(loop_flag){
 116:Core/Src/Main/Mode.c **** 		Signal(n);
 117:Core/Src/Main/Mode.c **** 		printf("ã‚»ãƒƒãƒ†ã‚£ãƒ³ã‚°å¯¾è±¡ã®é¸æŠ\r\n");
 118:Core/Src/Main/Mode.c **** 		int8_t setting_target=0;
 119:Core/Src/Main/Mode.c **** 		ModeSelect(0, 7, &setting_target);
 120:Core/Src/Main/Mode.c **** 
 121:Core/Src/Main/Mode.c **** 		if(setting_target == 0) {
 122:Core/Src/Main/Mode.c **** 			continue;
 123:Core/Src/Main/Mode.c **** 		}
 124:Core/Src/Main/Mode.c **** 		else if(setting_target == 7) {
 125:Core/Src/Main/Mode.c **** 			printf("ãƒˆãƒƒãƒ—ã®ãƒ¢ãƒ¼ãƒ‰é¸æŠã¸\r\n");
 126:Core/Src/Main/Mode.c **** 			return 0;
 127:Core/Src/Main/Mode.c **** 		}
 128:Core/Src/Main/Mode.c **** 		else {
 129:Core/Src/Main/Mode.c **** 			ChangeLED(setting_target);
 130:Core/Src/Main/Mode.c **** 		}
 131:Core/Src/Main/Mode.c **** 
 132:Core/Src/Main/Mode.c **** 		//ç¾åœ¨ã®ãƒ‘ãƒ©ãƒ¡ãƒ¼ã‚¿ã‚’è¡¨ç¤ºï¼ˆåˆæœŸã®RAMã§ã‚ˆã„ï¼‰
 133:Core/Src/Main/Mode.c **** //		printParameter(setting_target);
 134:Core/Src/Main/Mode.c **** 		printf("å¯¾è±¡ã®ç¾åœ¨ã®ãƒ‘ãƒ©ãƒ¡ãƒ¼ã‚¿ã‚’è¡¨ç¤º\r\n");
 135:Core/Src/Main/Mode.c **** 
 136:Core/Src/Main/Mode.c **** 		printf("ãƒ‘ãƒ©ãƒ¡ãƒ¼ã‚¿å¤‰æ›´ã—ã¾ã™ã‹? : to Head=0, Yes=1, No=2, to Top=3\r\n");
 137:Core/Src/Main/Mode.c **** 		//ãƒ‘ãƒ©ãƒ¡ãƒ¼ã‚¿å¤‰æ›´ã®æœ‰ç„¡
 138:Core/Src/Main/Mode.c **** 		int8_t change = 0;
 139:Core/Src/Main/Mode.c **** 		ModeSelect(0, 3, &change);
 140:Core/Src/Main/Mode.c **** 		Signal(change);
 141:Core/Src/Main/Mode.c **** 
 142:Core/Src/Main/Mode.c **** 		//å¤‰æ›´ã™ã‚‹ãªã‚‰ã©ã‚Œã‚’å¤‰æ›´ã™ã‚‹ã‹ï¼ˆå¯¾è±¡ã”ã¨ã«é•ã†æ“ä½œï¼‰
 143:Core/Src/Main/Mode.c **** 		if(change == 0) {
 144:Core/Src/Main/Mode.c **** 			continue;
 145:Core/Src/Main/Mode.c **** 		}
 146:Core/Src/Main/Mode.c **** 		else if(change == 1){ //0ãªã‚‰æˆ»ã‚‹2ãªã‚‰ãã®ã¾ã¾é€²ã‚€
 147:Core/Src/Main/Mode.c **** 			 //ã©ã‚Œã‚’å¤‰æ›´ã™ã‚‹ã‹
 148:Core/Src/Main/Mode.c **** 			//0ãªã‚‰ä¸€ã¤æˆ»ã‚‹ã€7ãªã‚‰ãƒˆãƒƒãƒ—ã«æˆ»ã‚‹ ï¼ˆé–¢æ•°ã®æˆ»ã‚Šå€¤ã‹ãƒã‚¤ãƒ³ã‚¿ã§è¿”ã—ã
 149:Core/Src/Main/Mode.c **** 		}
 150:Core/Src/Main/Mode.c **** 		else if(change == 2) {
 151:Core/Src/Main/Mode.c **** 			//ãã®ã¾ã¾æ¬¡ã¸
 152:Core/Src/Main/Mode.c **** 			printf("å¤‰æ›´ã›ãšæ¬¡ã¸\r\n");
 153:Core/Src/Main/Mode.c **** 		}
 154:Core/Src/Main/Mode.c **** 		else if(change == 3) {
 155:Core/Src/Main/Mode.c **** 			printf("ãƒˆãƒƒãƒ—ã®ãƒ¢ãƒ¼ãƒ‰é¸æŠã¸\r\n");
ARM GAS  C:\Users\leopi\AppData\Local\Temp\cc3OmPOJ.s 			page 7


 156:Core/Src/Main/Mode.c **** 			return 0;
 157:Core/Src/Main/Mode.c **** 		}
 158:Core/Src/Main/Mode.c **** 
 159:Core/Src/Main/Mode.c **** 		printf("å‹•ä½œç¢ºèªã¯æ‰‹å‹•ã§å‹•ã‹ã—ã¾ã™ã‹ï¼Ÿãƒ­ãƒœãƒƒãƒˆã«ã‚¢ã‚¯ã‚·ãƒ§ãƒ³ã•ã›ã¾ã™ã
 160:Core/Src/Main/Mode.c **** 				"to Head=0, æ‰‹å‹•=1, ã‚¢ã‚¯ã‚·ãƒ§ãƒ³ï¼ˆ+ãƒ­ã‚°å¯è¦–åŒ–ï¼‰=2, to Top=3\r\n");
 161:Core/Src/Main/Mode.c **** 		//å‹•ä½œç¢ºèª
 162:Core/Src/Main/Mode.c **** 		int8_t self_or_action = 0;
 163:Core/Src/Main/Mode.c **** 		ModeSelect(0, 3, &self_or_action);
 164:Core/Src/Main/Mode.c **** 			//æ‰‹å‹•
 165:Core/Src/Main/Mode.c **** 			//ã‚¢ã‚¯ã‚·ãƒ§ãƒ³ï¼ˆãƒ­ã‚°å¯è¦–åŒ–ã‚ã‚Šï¼‰
 166:Core/Src/Main/Mode.c **** 
 167:Core/Src/Main/Mode.c **** 		if(self_or_action == 0) continue;
 168:Core/Src/Main/Mode.c **** 		else if(self_or_action == 1){ //0ãªã‚‰æˆ»ã‚‹2ãªã‚‰ãã®ã¾ã¾é€²ã‚€
 169:Core/Src/Main/Mode.c **** 			loop_flag = false;
 170:Core/Src/Main/Mode.c **** 			printf("æ‰‹å‹•\r\n");
 171:Core/Src/Main/Mode.c **** 		}
 172:Core/Src/Main/Mode.c **** 		else if(self_or_action == 2) {
 173:Core/Src/Main/Mode.c **** 			loop_flag = false;
 174:Core/Src/Main/Mode.c **** 			printf("ã‚¢ã‚¯ã‚·ãƒ§ãƒ³ + ãƒ­ã‚°å¯è¦–åŒ–\r\n");//ãã®ã¾ã¾æ¬¡ã¸
 175:Core/Src/Main/Mode.c **** 		}
 176:Core/Src/Main/Mode.c **** 		else if(self_or_action == 3) return 0;
 177:Core/Src/Main/Mode.c **** 
 178:Core/Src/Main/Mode.c **** 		//ãƒ«ãƒ¼ãƒ—ã‚’ç¶šã‘ã‚‹ã‹?ï¼ˆãƒãƒ¼ãƒ‰ã‚¦ã‚§ã‚¢ã®ã‚¹ã‚¤ãƒƒãƒã®æŠ¼ä¸‹å¾…ã¡ï¼‰
 179:Core/Src/Main/Mode.c **** 		loop_flag == true ? printf("ç¶šè¡Œ\r\n") : printf("çµ‚äº†\r\n");
 180:Core/Src/Main/Mode.c **** 
 181:Core/Src/Main/Mode.c **** 		//ãã®ã¾ã¾ãƒ•ãƒ©ãƒƒã‚·ãƒ¥ã«æ›¸ãè¾¼ã¿ãŸã„
 182:Core/Src/Main/Mode.c **** 	}
 183:Core/Src/Main/Mode.c **** 	return 1;
 184:Core/Src/Main/Mode.c **** 
 185:Core/Src/Main/Mode.c **** }
 186:Core/Src/Main/Mode.c **** 
 187:Core/Src/Main/Mode.c **** // èª¿æ•´å¯¾è±¡ã‚’é¸æŠ
 188:Core/Src/Main/Mode.c **** void GainTest(){
 189:Core/Src/Main/Mode.c **** 	// ãƒ¢ãƒ¼ãƒ‰é¸æŠ
 190:Core/Src/Main/Mode.c **** 	// å…±é€šéƒ¨åˆ†ã®å®Ÿè¡Œ
 191:Core/Src/Main/Mode.c **** 	IT_mode = EXPLORE;
 192:Core/Src/Main/Mode.c **** 	MouseInit();
 193:Core/Src/Main/Mode.c **** 
 194:Core/Src/Main/Mode.c **** 	PIDChangeFlag(L_VELO_PID, 1);
 195:Core/Src/Main/Mode.c **** 	PIDChangeFlag(R_VELO_PID, 1);
 196:Core/Src/Main/Mode.c **** 	// ãƒ¢ãƒ¼ãƒ‰æ¯ã®å‡¦ç†
 197:Core/Src/Main/Mode.c **** 
 198:Core/Src/Main/Mode.c **** 	PIDChangeFlag(A_VELO_PID, 0);
 199:Core/Src/Main/Mode.c **** 	PIDChangeFlag(D_WALL_PID, 0);
 200:Core/Src/Main/Mode.c **** 	PIDChangeFlag(L_WALL_PID, 0);
 201:Core/Src/Main/Mode.c **** 	PIDChangeFlag(R_WALL_PID, 0);
 202:Core/Src/Main/Mode.c **** 	ExploreVelocity=0;
 203:Core/Src/Main/Mode.c **** 	ChangeLED(5);
 204:Core/Src/Main/Mode.c **** 	while(1)
 205:Core/Src/Main/Mode.c **** 	{
 206:Core/Src/Main/Mode.c **** 		TargetVelocity[BODY] = 0;
 207:Core/Src/Main/Mode.c **** 		float a=10.56;
 208:Core/Src/Main/Mode.c **** 		//printf("%f, %f\r\n", AngularV, Angle);
 209:Core/Src/Main/Mode.c **** 		printf("å‰å·¦: %f,å‰å³: %f, å’Œ: %f, æ¨ªå·¦: %f,æ¨ªå³: %f, a: %f\r\n",Photo[FL],Photo[FR],Pho
 210:Core/Src/Main/Mode.c **** 	}
 211:Core/Src/Main/Mode.c **** }
 212:Core/Src/Main/Mode.c **** 
ARM GAS  C:\Users\leopi\AppData\Local\Temp\cc3OmPOJ.s 			page 8


 213:Core/Src/Main/Mode.c **** void WritingFree()
 214:Core/Src/Main/Mode.c **** {
 215:Core/Src/Main/Mode.c **** 	IT_mode = WRITINGFREE;
 216:Core/Src/Main/Mode.c **** 
 217:Core/Src/Main/Mode.c **** 	dbc = 0;
 218:Core/Src/Main/Mode.c **** 	MouseInit();
 219:Core/Src/Main/Mode.c **** 
 220:Core/Src/Main/Mode.c **** 	PIDChangeFlag(L_VELO_PID, 1);
 221:Core/Src/Main/Mode.c **** 	PIDChangeFlag(R_VELO_PID, 1);
 222:Core/Src/Main/Mode.c **** 
 223:Core/Src/Main/Mode.c **** 	PIDChangeFlag(D_WALL_PID, 0);
 224:Core/Src/Main/Mode.c **** 	PIDChangeFlag(L_WALL_PID, 0);
 225:Core/Src/Main/Mode.c **** 	PIDChangeFlag(R_WALL_PID, 0);
 226:Core/Src/Main/Mode.c **** 	IT_mode = EXPLORE;
 227:Core/Src/Main/Mode.c **** 	PIDChangeFlag(A_VELO_PID, 1);
 228:Core/Src/Main/Mode.c **** 	ExploreVelocity=0;
 229:Core/Src/Main/Mode.c **** 	ChangeLED(7);
 230:Core/Src/Main/Mode.c **** 	//ãƒ‡ãƒ¼ã‚¿å–ã‚Šï¼ˆé€Ÿåº¦ã€è§’é€Ÿåº¦ï¼‰
 231:Core/Src/Main/Mode.c **** 	dbc = 1;
 232:Core/Src/Main/Mode.c **** 	FastStraight(0.5, 8, 0.5, -0.5, 4000, 10);
 233:Core/Src/Main/Mode.c **** 	dbc = 0;
 234:Core/Src/Main/Mode.c **** 
 235:Core/Src/Main/Mode.c **** 	while(1)
 236:Core/Src/Main/Mode.c **** 	{
 237:Core/Src/Main/Mode.c **** 		PIDChangeFlag(A_VELO_PID, 0);
 238:Core/Src/Main/Mode.c **** 		TargetVelocity[BODY] = 0;
 239:Core/Src/Main/Mode.c **** 		HAL_Delay(5000);
 240:Core/Src/Main/Mode.c **** 		for(int i=0; i < 600; i++){
 241:Core/Src/Main/Mode.c **** 			printf("%d, %lf, %lf\r\n", i, debugVL[i], debugVR[i]);
 242:Core/Src/Main/Mode.c **** 		}
 243:Core/Src/Main/Mode.c **** 	}
 244:Core/Src/Main/Mode.c **** }
 245:Core/Src/Main/Mode.c **** 
 246:Core/Src/Main/Mode.c **** static void restart(char turn_mode){
 191              		.loc 1 246 36 is_stmt 1 view -0
 192              		.cfi_startproc
 193              		@ args = 0, pretend = 0, frame = 0
 194              		@ frame_needed = 0, uses_anonymous_args = 0
 195              		.loc 1 246 36 is_stmt 0 view .LVU42
 196 0000 F8B5     		push	{r3, r4, r5, r6, r7, lr}
 197              	.LCFI3:
 198              		.cfi_def_cfa_offset 24
 199              		.cfi_offset 3, -24
 200              		.cfi_offset 4, -20
 201              		.cfi_offset 5, -16
 202              		.cfi_offset 6, -12
 203              		.cfi_offset 7, -8
 204              		.cfi_offset 14, -4
 205 0002 0546     		mov	r5, r0
 247:Core/Src/Main/Mode.c **** 	
 248:Core/Src/Main/Mode.c **** 	TargetVelocity[BODY] = 0;
 206              		.loc 1 248 2 is_stmt 1 view .LVU43
 207              		.loc 1 248 23 is_stmt 0 view .LVU44
 208 0004 0023     		movs	r3, #0
 209 0006 6B4A     		ldr	r2, .L16
 210 0008 9360     		str	r3, [r2, #8]	@ float
 249:Core/Src/Main/Mode.c **** 	Acceleration = 0;
ARM GAS  C:\Users\leopi\AppData\Local\Temp\cc3OmPOJ.s 			page 9


 211              		.loc 1 249 2 is_stmt 1 view .LVU45
 212              		.loc 1 249 15 is_stmt 0 view .LVU46
 213 000a 6B4A     		ldr	r2, .L16+4
 214 000c 1360     		str	r3, [r2]	@ float
 250:Core/Src/Main/Mode.c **** 	TargetAngularV = 0;
 215              		.loc 1 250 2 is_stmt 1 view .LVU47
 216              		.loc 1 250 17 is_stmt 0 view .LVU48
 217 000e 6B4A     		ldr	r2, .L16+8
 218 0010 1360     		str	r3, [r2]	@ float
 251:Core/Src/Main/Mode.c **** 	TargetAngle = 0;
 219              		.loc 1 251 2 is_stmt 1 view .LVU49
 220              		.loc 1 251 14 is_stmt 0 view .LVU50
 221 0012 6B4A     		ldr	r2, .L16+12
 222 0014 1360     		str	r3, [r2]	@ float
 252:Core/Src/Main/Mode.c **** 	Angle = 0;
 223              		.loc 1 252 2 is_stmt 1 view .LVU51
 224              		.loc 1 252 8 is_stmt 0 view .LVU52
 225 0016 6B4A     		ldr	r2, .L16+16
 226 0018 1360     		str	r3, [r2]	@ float
 253:Core/Src/Main/Mode.c **** 	MousePIDResetAll();
 227              		.loc 1 253 2 is_stmt 1 view .LVU53
 228 001a FFF7FEFF 		bl	MousePIDResetAll
 229              	.LVL24:
 254:Core/Src/Main/Mode.c **** 
 255:Core/Src/Main/Mode.c **** 	updateAllNodeWeight(&my_map, &my_mouse.target_pos, &my_mouse.target_size, WALL_MASK);
 230              		.loc 1 255 2 view .LVU54
 231 001e 6A4F     		ldr	r7, .L16+20
 232 0020 6A4A     		ldr	r2, .L16+24
 233 0022 941E     		subs	r4, r2, #2
 234 0024 6A4E     		ldr	r6, .L16+28
 235 0026 3B68     		ldr	r3, [r7]
 236 0028 2146     		mov	r1, r4
 237 002a 3046     		mov	r0, r6
 238 002c FFF7FEFF 		bl	updateAllNodeWeight
 239              	.LVL25:
 256:Core/Src/Main/Mode.c **** 
 257:Core/Src/Main/Mode.c **** 	//æœ€å°ãƒãƒ¼ãƒ‰ã‚’é¸æŠ
 258:Core/Src/Main/Mode.c **** 	my_mouse.next.node = getNextNode(&my_map, my_mouse.now.car, my_mouse.now.node, WALL_MASK); //å‘¨å›
 240              		.loc 1 258 2 view .LVU55
 241              		.loc 1 258 23 is_stmt 0 view .LVU56
 242 0030 3B68     		ldr	r3, [r7]
 243 0032 E268     		ldr	r2, [r4, #12]
 244 0034 A179     		ldrb	r1, [r4, #6]	@ zero_extendqisi2
 245 0036 3046     		mov	r0, r6
 246 0038 FFF7FEFF 		bl	getNextNode
 247              	.LVL26:
 248 003c 0246     		mov	r2, r0
 249              		.loc 1 258 21 view .LVU57
 250 003e A061     		str	r0, [r4, #24]
 259:Core/Src/Main/Mode.c **** 	getNextState(&(my_mouse.now), &(my_mouse.next), my_mouse.next.node);
 251              		.loc 1 259 2 is_stmt 1 view .LVU58
 252 0040 04F11001 		add	r1, r4, #16
 253 0044 201D     		adds	r0, r4, #4
 254 0046 FFF7FEFF 		bl	getNextState
 255              	.LVL27:
 260:Core/Src/Main/Mode.c **** 
 261:Core/Src/Main/Mode.c **** 	switch(my_mouse.now.dir%8){
ARM GAS  C:\Users\leopi\AppData\Local\Temp\cc3OmPOJ.s 			page 10


 256              		.loc 1 261 2 view .LVU59
 257              		.loc 1 261 21 is_stmt 0 view .LVU60
 258 004a E379     		ldrb	r3, [r4, #7]	@ zero_extendqisi2
 259              		.loc 1 261 2 view .LVU61
 260 004c 03F00703 		and	r3, r3, #7
 261 0050 062B     		cmp	r3, #6
 262 0052 15D8     		bhi	.L6
 263 0054 DFE803F0 		tbb	[pc, r3]
 264              	.L9:
 265 0058 04       		.byte	(.L14-.L9)/2
 266 0059 14       		.byte	(.L6-.L9)/2
 267 005a 15       		.byte	(.L13-.L9)/2
 268 005b 2C       		.byte	(.L12-.L9)/2
 269 005c 4C       		.byte	(.L11-.L9)/2
 270 005d 77       		.byte	(.L10-.L9)/2
 271 005e 97       		.byte	(.L8-.L9)/2
 272 005f 00       		.p2align 1
 273              	.L14:
 262:Core/Src/Main/Mode.c **** 	case front:
 263:Core/Src/Main/Mode.c **** 			AddVelocity = 0;
 274              		.loc 1 263 4 is_stmt 1 view .LVU62
 275              		.loc 1 263 16 is_stmt 0 view .LVU63
 276 0060 5C4B     		ldr	r3, .L16+32
 277 0062 0022     		movs	r2, #0
 278 0064 1A60     		str	r2, [r3]	@ float
 264:Core/Src/Main/Mode.c **** 			//ãŸã ç›´é€²
 265:Core/Src/Main/Mode.c **** 			Calc = SearchOrFast;
 279              		.loc 1 265 4 is_stmt 1 view .LVU64
 280              		.loc 1 265 9 is_stmt 0 view .LVU65
 281 0066 5C4B     		ldr	r3, .L16+36
 282 0068 1A68     		ldr	r2, [r3]
 283 006a 5C4B     		ldr	r3, .L16+40
 284 006c 1A60     		str	r2, [r3]
 266:Core/Src/Main/Mode.c **** 			Accel(45, ExploreVelocity, &my_map, &my_mouse);
 285              		.loc 1 266 4 is_stmt 1 view .LVU66
 286 006e 5C49     		ldr	r1, .L16+44
 287 0070 5748     		ldr	r0, .L16+28
 288 0072 5C4B     		ldr	r3, .L16+48
 289 0074 D3ED000A 		vldr.32	s1, [r3]
 290 0078 9FED5B0A 		vldr.32	s0, .L16+52
 291 007c FFF7FEFF 		bl	Accel
 292              	.LVL28:
 267:Core/Src/Main/Mode.c **** 			break;
 293              		.loc 1 267 4 view .LVU67
 294              	.L6:
 268:Core/Src/Main/Mode.c **** 		case right:
 269:Core/Src/Main/Mode.c **** 			ChangeLED(0);
 270:Core/Src/Main/Mode.c **** 			//å³æ—‹å›
 271:Core/Src/Main/Mode.c **** 			Calc = SearchOrFast;
 272:Core/Src/Main/Mode.c **** 			Rotate(90, M_PI);
 273:Core/Src/Main/Mode.c **** 			Accel(45, ExploreVelocity, &my_map, &my_mouse);
 274:Core/Src/Main/Mode.c **** 			break;
 275:Core/Src/Main/Mode.c **** 		case backright:
 276:Core/Src/Main/Mode.c **** 			ChangeLED(0);
 277:Core/Src/Main/Mode.c **** 			Calc = 1;//ãƒãƒƒãƒ—æ›´æ–°ã—ãŸããªã„ã¨ãã¯1ã‚’ä»£å…¥ã€‚
 278:Core/Src/Main/Mode.c **** 			Rotate(180, M_PI);
 279:Core/Src/Main/Mode.c **** 			Accel(45, ExploreVelocity, &my_map, &my_mouse);
ARM GAS  C:\Users\leopi\AppData\Local\Temp\cc3OmPOJ.s 			page 11


 280:Core/Src/Main/Mode.c **** 			Calc = SearchOrFast;
 281:Core/Src/Main/Mode.c **** 			TurnRight(turn_mode, &my_map, &my_mouse);
 282:Core/Src/Main/Mode.c **** 			break;
 283:Core/Src/Main/Mode.c **** 		case back:
 284:Core/Src/Main/Mode.c **** 			ChangeLED(0);
 285:Core/Src/Main/Mode.c **** 			//Uã‚¿ãƒ¼ãƒ³ã—ã¦ç›´é€².åŠ é€Ÿã§ãã‚‹
 286:Core/Src/Main/Mode.c **** 			Calc = 1;
 287:Core/Src/Main/Mode.c **** 			Rotate(180, M_PI);
 288:Core/Src/Main/Mode.c **** 			Accel(45, ExploreVelocity, &my_map, &my_mouse);
 289:Core/Src/Main/Mode.c **** 			AddVelocity = 0;
 290:Core/Src/Main/Mode.c **** 			Calc = SearchOrFast;
 291:Core/Src/Main/Mode.c **** 			GoStraight(90, ExploreVelocity +AddVelocity, 0, &my_map, &my_mouse);
 292:Core/Src/Main/Mode.c **** 			break;
 293:Core/Src/Main/Mode.c **** 		case backleft:
 294:Core/Src/Main/Mode.c **** 			ChangeLED(0);
 295:Core/Src/Main/Mode.c **** 			//Uã‚¿ãƒ¼ãƒ³ã—ã¦å·¦æ—‹å›
 296:Core/Src/Main/Mode.c **** 			Calc = 1;
 297:Core/Src/Main/Mode.c **** 			Rotate(180, -M_PI);
 298:Core/Src/Main/Mode.c **** 			Accel(45, ExploreVelocity, &my_map, &my_mouse);
 299:Core/Src/Main/Mode.c **** 			Calc = SearchOrFast;
 300:Core/Src/Main/Mode.c **** 			TurnLeft(turn_mode, &my_map, &my_mouse);
 301:Core/Src/Main/Mode.c **** 			break;
 302:Core/Src/Main/Mode.c **** 		case left:
 303:Core/Src/Main/Mode.c **** 			ChangeLED(0);
 304:Core/Src/Main/Mode.c **** 			//å·¦æ—‹å›
 305:Core/Src/Main/Mode.c **** 			Calc = SearchOrFast;
 306:Core/Src/Main/Mode.c **** 			Rotate(90, -M_PI);
 307:Core/Src/Main/Mode.c **** 			Accel(45, ExploreVelocity, &my_map, &my_mouse);
 308:Core/Src/Main/Mode.c **** 			break;
 309:Core/Src/Main/Mode.c **** 		default:
 310:Core/Src/Main/Mode.c **** 			break;
 311:Core/Src/Main/Mode.c **** 	}
 312:Core/Src/Main/Mode.c **** }
 295              		.loc 1 312 1 is_stmt 0 view .LVU68
 296 0080 F8BD     		pop	{r3, r4, r5, r6, r7, pc}
 297              	.L13:
 269:Core/Src/Main/Mode.c **** 			//å³æ—‹å›
 298              		.loc 1 269 4 is_stmt 1 view .LVU69
 299 0082 0020     		movs	r0, #0
 300 0084 FFF7FEFF 		bl	ChangeLED
 301              	.LVL29:
 271:Core/Src/Main/Mode.c **** 			Rotate(90, M_PI);
 302              		.loc 1 271 4 view .LVU70
 271:Core/Src/Main/Mode.c **** 			Rotate(90, M_PI);
 303              		.loc 1 271 9 is_stmt 0 view .LVU71
 304 0088 534B     		ldr	r3, .L16+36
 305 008a 1A68     		ldr	r2, [r3]
 306 008c 534B     		ldr	r3, .L16+40
 307 008e 1A60     		str	r2, [r3]
 272:Core/Src/Main/Mode.c **** 			Accel(45, ExploreVelocity, &my_map, &my_mouse);
 308              		.loc 1 272 4 is_stmt 1 view .LVU72
 309 0090 DFED560A 		vldr.32	s1, .L16+56
 310 0094 9FED560A 		vldr.32	s0, .L16+60
 311 0098 FFF7FEFF 		bl	Rotate
 312              	.LVL30:
 273:Core/Src/Main/Mode.c **** 			break;
 313              		.loc 1 273 4 view .LVU73
ARM GAS  C:\Users\leopi\AppData\Local\Temp\cc3OmPOJ.s 			page 12


 314 009c 5049     		ldr	r1, .L16+44
 315 009e 4C48     		ldr	r0, .L16+28
 316 00a0 504B     		ldr	r3, .L16+48
 317 00a2 D3ED000A 		vldr.32	s1, [r3]
 318 00a6 9FED500A 		vldr.32	s0, .L16+52
 319 00aa FFF7FEFF 		bl	Accel
 320              	.LVL31:
 274:Core/Src/Main/Mode.c **** 		case backright:
 321              		.loc 1 274 4 view .LVU74
 322 00ae E7E7     		b	.L6
 323              	.L12:
 276:Core/Src/Main/Mode.c **** 			Calc = 1;//ãƒãƒƒãƒ—æ›´æ–°ã—ãŸããªã„ã¨ãã¯1ã‚’ä»£å…¥ã€‚
 324              		.loc 1 276 4 view .LVU75
 325 00b0 0020     		movs	r0, #0
 326 00b2 FFF7FEFF 		bl	ChangeLED
 327              	.LVL32:
 277:Core/Src/Main/Mode.c **** 			Rotate(180, M_PI);
 328              		.loc 1 277 4 view .LVU76
 277:Core/Src/Main/Mode.c **** 			Rotate(180, M_PI);
 329              		.loc 1 277 9 is_stmt 0 view .LVU77
 330 00b6 494F     		ldr	r7, .L16+40
 331 00b8 0123     		movs	r3, #1
 332 00ba 3B60     		str	r3, [r7]
 278:Core/Src/Main/Mode.c **** 			Accel(45, ExploreVelocity, &my_map, &my_mouse);
 333              		.loc 1 278 4 is_stmt 1 view .LVU78
 334 00bc DFED4B0A 		vldr.32	s1, .L16+56
 335 00c0 9FED4C0A 		vldr.32	s0, .L16+64
 336 00c4 FFF7FEFF 		bl	Rotate
 337              	.LVL33:
 279:Core/Src/Main/Mode.c **** 			Calc = SearchOrFast;
 338              		.loc 1 279 4 view .LVU79
 339 00c8 454E     		ldr	r6, .L16+44
 340 00ca 414C     		ldr	r4, .L16+28
 341 00cc 3146     		mov	r1, r6
 342 00ce 2046     		mov	r0, r4
 343 00d0 444B     		ldr	r3, .L16+48
 344 00d2 D3ED000A 		vldr.32	s1, [r3]
 345 00d6 9FED440A 		vldr.32	s0, .L16+52
 346 00da FFF7FEFF 		bl	Accel
 347              	.LVL34:
 280:Core/Src/Main/Mode.c **** 			TurnRight(turn_mode, &my_map, &my_mouse);
 348              		.loc 1 280 4 view .LVU80
 280:Core/Src/Main/Mode.c **** 			TurnRight(turn_mode, &my_map, &my_mouse);
 349              		.loc 1 280 9 is_stmt 0 view .LVU81
 350 00de 3E4B     		ldr	r3, .L16+36
 351 00e0 1B68     		ldr	r3, [r3]
 352 00e2 3B60     		str	r3, [r7]
 281:Core/Src/Main/Mode.c **** 			break;
 353              		.loc 1 281 4 is_stmt 1 view .LVU82
 354 00e4 3246     		mov	r2, r6
 355 00e6 2146     		mov	r1, r4
 356 00e8 2846     		mov	r0, r5
 357 00ea FFF7FEFF 		bl	TurnRight
 358              	.LVL35:
 282:Core/Src/Main/Mode.c **** 		case back:
 359              		.loc 1 282 4 view .LVU83
 360 00ee C7E7     		b	.L6
ARM GAS  C:\Users\leopi\AppData\Local\Temp\cc3OmPOJ.s 			page 13


 361              	.L11:
 284:Core/Src/Main/Mode.c **** 			//Uã‚¿ãƒ¼ãƒ³ã—ã¦ç›´é€².åŠ é€Ÿã§ãã‚‹
 362              		.loc 1 284 4 view .LVU84
 363 00f0 0020     		movs	r0, #0
 364 00f2 FFF7FEFF 		bl	ChangeLED
 365              	.LVL36:
 286:Core/Src/Main/Mode.c **** 			Rotate(180, M_PI);
 366              		.loc 1 286 4 view .LVU85
 286:Core/Src/Main/Mode.c **** 			Rotate(180, M_PI);
 367              		.loc 1 286 9 is_stmt 0 view .LVU86
 368 00f6 394F     		ldr	r7, .L16+40
 369 00f8 0123     		movs	r3, #1
 370 00fa 3B60     		str	r3, [r7]
 287:Core/Src/Main/Mode.c **** 			Accel(45, ExploreVelocity, &my_map, &my_mouse);
 371              		.loc 1 287 4 is_stmt 1 view .LVU87
 372 00fc DFED3B0A 		vldr.32	s1, .L16+56
 373 0100 9FED3C0A 		vldr.32	s0, .L16+64
 374 0104 FFF7FEFF 		bl	Rotate
 375              	.LVL37:
 288:Core/Src/Main/Mode.c **** 			AddVelocity = 0;
 376              		.loc 1 288 4 view .LVU88
 377 0108 354D     		ldr	r5, .L16+44
 378 010a 314C     		ldr	r4, .L16+28
 379 010c 354E     		ldr	r6, .L16+48
 380 010e 2946     		mov	r1, r5
 381 0110 2046     		mov	r0, r4
 382 0112 D6ED000A 		vldr.32	s1, [r6]
 383 0116 9FED340A 		vldr.32	s0, .L16+52
 384 011a FFF7FEFF 		bl	Accel
 385              	.LVL38:
 289:Core/Src/Main/Mode.c **** 			Calc = SearchOrFast;
 386              		.loc 1 289 4 view .LVU89
 289:Core/Src/Main/Mode.c **** 			Calc = SearchOrFast;
 387              		.loc 1 289 16 is_stmt 0 view .LVU90
 388 011e DFED367A 		vldr.32	s15, .L16+68
 389 0122 2C4B     		ldr	r3, .L16+32
 390 0124 C3ED007A 		vstr.32	s15, [r3]
 290:Core/Src/Main/Mode.c **** 			GoStraight(90, ExploreVelocity +AddVelocity, 0, &my_map, &my_mouse);
 391              		.loc 1 290 4 is_stmt 1 view .LVU91
 290:Core/Src/Main/Mode.c **** 			GoStraight(90, ExploreVelocity +AddVelocity, 0, &my_map, &my_mouse);
 392              		.loc 1 290 9 is_stmt 0 view .LVU92
 393 0128 2B4B     		ldr	r3, .L16+36
 394 012a 1B68     		ldr	r3, [r3]
 395 012c 3B60     		str	r3, [r7]
 291:Core/Src/Main/Mode.c **** 			break;
 396              		.loc 1 291 4 is_stmt 1 view .LVU93
 397 012e D6ED000A 		vldr.32	s1, [r6]
 398 0132 2A46     		mov	r2, r5
 399 0134 2146     		mov	r1, r4
 400 0136 0020     		movs	r0, #0
 401 0138 70EEA70A 		vadd.f32	s1, s1, s15
 402 013c 9FED2C0A 		vldr.32	s0, .L16+60
 403 0140 FFF7FEFF 		bl	GoStraight
 404              	.LVL39:
 292:Core/Src/Main/Mode.c **** 		case backleft:
 405              		.loc 1 292 4 view .LVU94
 406 0144 9CE7     		b	.L6
ARM GAS  C:\Users\leopi\AppData\Local\Temp\cc3OmPOJ.s 			page 14


 407              	.L10:
 294:Core/Src/Main/Mode.c **** 			//Uã‚¿ãƒ¼ãƒ³ã—ã¦å·¦æ—‹å›
 408              		.loc 1 294 4 view .LVU95
 409 0146 0020     		movs	r0, #0
 410 0148 FFF7FEFF 		bl	ChangeLED
 411              	.LVL40:
 296:Core/Src/Main/Mode.c **** 			Rotate(180, -M_PI);
 412              		.loc 1 296 4 view .LVU96
 296:Core/Src/Main/Mode.c **** 			Rotate(180, -M_PI);
 413              		.loc 1 296 9 is_stmt 0 view .LVU97
 414 014c 234F     		ldr	r7, .L16+40
 415 014e 0123     		movs	r3, #1
 416 0150 3B60     		str	r3, [r7]
 297:Core/Src/Main/Mode.c **** 			Accel(45, ExploreVelocity, &my_map, &my_mouse);
 417              		.loc 1 297 4 is_stmt 1 view .LVU98
 418 0152 DFED2A0A 		vldr.32	s1, .L16+72
 419 0156 9FED270A 		vldr.32	s0, .L16+64
 420 015a FFF7FEFF 		bl	Rotate
 421              	.LVL41:
 298:Core/Src/Main/Mode.c **** 			Calc = SearchOrFast;
 422              		.loc 1 298 4 view .LVU99
 423 015e 204E     		ldr	r6, .L16+44
 424 0160 1B4C     		ldr	r4, .L16+28
 425 0162 3146     		mov	r1, r6
 426 0164 2046     		mov	r0, r4
 427 0166 1F4B     		ldr	r3, .L16+48
 428 0168 D3ED000A 		vldr.32	s1, [r3]
 429 016c 9FED1E0A 		vldr.32	s0, .L16+52
 430 0170 FFF7FEFF 		bl	Accel
 431              	.LVL42:
 299:Core/Src/Main/Mode.c **** 			TurnLeft(turn_mode, &my_map, &my_mouse);
 432              		.loc 1 299 4 view .LVU100
 299:Core/Src/Main/Mode.c **** 			TurnLeft(turn_mode, &my_map, &my_mouse);
 433              		.loc 1 299 9 is_stmt 0 view .LVU101
 434 0174 184B     		ldr	r3, .L16+36
 435 0176 1B68     		ldr	r3, [r3]
 436 0178 3B60     		str	r3, [r7]
 300:Core/Src/Main/Mode.c **** 			break;
 437              		.loc 1 300 4 is_stmt 1 view .LVU102
 438 017a 3246     		mov	r2, r6
 439 017c 2146     		mov	r1, r4
 440 017e 2846     		mov	r0, r5
 441 0180 FFF7FEFF 		bl	TurnLeft
 442              	.LVL43:
 301:Core/Src/Main/Mode.c **** 		case left:
 443              		.loc 1 301 4 view .LVU103
 444 0184 7CE7     		b	.L6
 445              	.L8:
 303:Core/Src/Main/Mode.c **** 			//å·¦æ—‹å›
 446              		.loc 1 303 4 view .LVU104
 447 0186 0020     		movs	r0, #0
 448 0188 FFF7FEFF 		bl	ChangeLED
 449              	.LVL44:
 305:Core/Src/Main/Mode.c **** 			Rotate(90, -M_PI);
 450              		.loc 1 305 4 view .LVU105
 305:Core/Src/Main/Mode.c **** 			Rotate(90, -M_PI);
 451              		.loc 1 305 9 is_stmt 0 view .LVU106
ARM GAS  C:\Users\leopi\AppData\Local\Temp\cc3OmPOJ.s 			page 15


 452 018c 124B     		ldr	r3, .L16+36
 453 018e 1A68     		ldr	r2, [r3]
 454 0190 124B     		ldr	r3, .L16+40
 455 0192 1A60     		str	r2, [r3]
 306:Core/Src/Main/Mode.c **** 			Accel(45, ExploreVelocity, &my_map, &my_mouse);
 456              		.loc 1 306 4 is_stmt 1 view .LVU107
 457 0194 DFED190A 		vldr.32	s1, .L16+72
 458 0198 9FED150A 		vldr.32	s0, .L16+60
 459 019c FFF7FEFF 		bl	Rotate
 460              	.LVL45:
 307:Core/Src/Main/Mode.c **** 			break;
 461              		.loc 1 307 4 view .LVU108
 462 01a0 0F49     		ldr	r1, .L16+44
 463 01a2 0B48     		ldr	r0, .L16+28
 464 01a4 0F4B     		ldr	r3, .L16+48
 465 01a6 D3ED000A 		vldr.32	s1, [r3]
 466 01aa 9FED0F0A 		vldr.32	s0, .L16+52
 467 01ae FFF7FEFF 		bl	Accel
 468              	.LVL46:
 308:Core/Src/Main/Mode.c **** 		default:
 469              		.loc 1 308 4 view .LVU109
 470              		.loc 1 312 1 is_stmt 0 view .LVU110
 471 01b2 65E7     		b	.L6
 472              	.L17:
 473              		.align	2
 474              	.L16:
 475 01b4 00000000 		.word	TargetVelocity
 476 01b8 00000000 		.word	Acceleration
 477 01bc 00000000 		.word	TargetAngularV
 478 01c0 00000000 		.word	TargetAngle
 479 01c4 00000000 		.word	Angle
 480 01c8 00000000 		.word	WALL_MASK
 481 01cc 02000000 		.word	my_mouse+2
 482 01d0 00000000 		.word	my_map
 483 01d4 00000000 		.word	AddVelocity
 484 01d8 00000000 		.word	SearchOrFast
 485 01dc 00000000 		.word	Calc
 486 01e0 00000000 		.word	my_mouse
 487 01e4 00000000 		.word	ExploreVelocity
 488 01e8 00003442 		.word	1110704128
 489 01ec DB0F4940 		.word	1078530011
 490 01f0 0000B442 		.word	1119092736
 491 01f4 00003443 		.word	1127481344
 492 01f8 00000000 		.word	0
 493 01fc DB0F49C0 		.word	-1068953637
 494              		.cfi_endproc
 495              	.LFE244:
 497              		.section	.text.Debug,"ax",%progbits
 498              		.align	1
 499              		.global	Debug
 500              		.syntax unified
 501              		.thumb
 502              		.thumb_func
 504              	Debug:
 505              	.LFB239:
  80:Core/Src/Main/Mode.c **** 	//ãƒ¢ãƒ¼ãƒ‰é¸æŠã§ãƒ‡ãƒãƒƒã‚°å¯¾è±¡ã‚’é¸æŠï¼ˆå€‹åˆ¥ãƒ‡ãƒãƒƒã‚°ã¯å„ã‚½ãƒ¼ã‚¹ã§è¨˜è¿°ï¼Ÿï¼‰
 506              		.loc 1 80 1 is_stmt 1 view -0
ARM GAS  C:\Users\leopi\AppData\Local\Temp\cc3OmPOJ.s 			page 16


 507              		.cfi_startproc
 508              		@ args = 0, pretend = 0, frame = 8
 509              		@ frame_needed = 0, uses_anonymous_args = 0
 510 0000 00B5     		push	{lr}
 511              	.LCFI4:
 512              		.cfi_def_cfa_offset 4
 513              		.cfi_offset 14, -4
 514 0002 83B0     		sub	sp, sp, #12
 515              	.LCFI5:
 516              		.cfi_def_cfa_offset 16
  82:Core/Src/Main/Mode.c **** 	ModeSelect(0,7,&mode);
 517              		.loc 1 82 2 view .LVU112
  82:Core/Src/Main/Mode.c **** 	ModeSelect(0,7,&mode);
 518              		.loc 1 82 9 is_stmt 0 view .LVU113
 519 0004 0020     		movs	r0, #0
 520 0006 8DF80700 		strb	r0, [sp, #7]
  83:Core/Src/Main/Mode.c **** 	Signal(mode);
 521              		.loc 1 83 2 is_stmt 1 view .LVU114
 522 000a 0DF10702 		add	r2, sp, #7
 523 000e 0721     		movs	r1, #7
 524 0010 FFF7FEFF 		bl	ModeSelect
 525              	.LVL47:
  84:Core/Src/Main/Mode.c **** 	switch (mode)
 526              		.loc 1 84 2 view .LVU115
 527 0014 9DF90700 		ldrsb	r0, [sp, #7]
 528 0018 FFF7FEFF 		bl	Signal
 529              	.LVL48:
  85:Core/Src/Main/Mode.c **** 	{
 530              		.loc 1 85 2 view .LVU116
 531 001c 9DF90730 		ldrsb	r3, [sp, #7]
 532 0020 012B     		cmp	r3, #1
 533 0022 04D0     		beq	.L19
 534 0024 022B     		cmp	r3, #2
 535 0026 10D0     		beq	.L20
 536              	.L18:
 104:Core/Src/Main/Mode.c **** void ParameterSetting()
 537              		.loc 1 104 1 is_stmt 0 view .LVU117
 538 0028 03B0     		add	sp, sp, #12
 539              	.LCFI6:
 540              		.cfi_remember_state
 541              		.cfi_def_cfa_offset 4
 542              		@ sp needed
 543 002a 5DF804FB 		ldr	pc, [sp], #4
 544              	.L19:
 545              	.LCFI7:
 546              		.cfi_restore_state
  91:Core/Src/Main/Mode.c **** 		ChangeLED(mode);		
 547              		.loc 1 91 3 is_stmt 1 view .LVU118
 548 002e 4FF4FA60 		mov	r0, #2000
 549 0032 FFF7FEFF 		bl	HAL_Delay
 550              	.LVL49:
  92:Core/Src/Main/Mode.c **** 		printPhotoSampleValue();
 551              		.loc 1 92 3 view .LVU119
 552 0036 9DF90700 		ldrsb	r0, [sp, #7]
 553 003a FFF7FEFF 		bl	ChangeLED
 554              	.LVL50:
  93:Core/Src/Main/Mode.c **** 		ChangeLED(0);
ARM GAS  C:\Users\leopi\AppData\Local\Temp\cc3OmPOJ.s 			page 17


 555              		.loc 1 93 3 view .LVU120
 556 003e FFF7FEFF 		bl	printPhotoSampleValue
 557              	.LVL51:
  94:Core/Src/Main/Mode.c **** 		break;
 558              		.loc 1 94 3 view .LVU121
 559 0042 0020     		movs	r0, #0
 560 0044 FFF7FEFF 		bl	ChangeLED
 561              	.LVL52:
  95:Core/Src/Main/Mode.c **** 	case 2:
 562              		.loc 1 95 3 view .LVU122
 563 0048 EEE7     		b	.L18
 564              	.L20:
  98:Core/Src/Main/Mode.c **** 		break;
 565              		.loc 1 98 3 view .LVU123
 566 004a 9FED030A 		vldr.32	s0, .L23
 567 004e 0348     		ldr	r0, .L23+4
 568 0050 FFF7FEFF 		bl	loggingMotorVelocityValue
 569              	.LVL53:
  99:Core/Src/Main/Mode.c **** 	default:
 570              		.loc 1 99 3 view .LVU124
 104:Core/Src/Main/Mode.c **** void ParameterSetting()
 571              		.loc 1 104 1 is_stmt 0 view .LVU125
 572 0054 E8E7     		b	.L18
 573              	.L24:
 574 0056 00BF     		.align	2
 575              	.L23:
 576 0058 00007043 		.word	1131413504
 577 005c 00000000 		.word	log_velocity
 578              		.cfi_endproc
 579              	.LFE239:
 581              		.section	.text.ParameterSetting,"ax",%progbits
 582              		.align	1
 583              		.global	ParameterSetting
 584              		.syntax unified
 585              		.thumb
 586              		.thumb_func
 588              	ParameterSetting:
 589              	.LFB240:
 106:Core/Src/Main/Mode.c **** 	Load_Gain();
 590              		.loc 1 106 1 is_stmt 1 view -0
 591              		.cfi_startproc
 592              		@ args = 0, pretend = 0, frame = 0
 593              		@ frame_needed = 0, uses_anonymous_args = 0
 594 0000 08B5     		push	{r3, lr}
 595              	.LCFI8:
 596              		.cfi_def_cfa_offset 8
 597              		.cfi_offset 3, -8
 598              		.cfi_offset 14, -4
 107:Core/Src/Main/Mode.c **** 	Change_Gain();
 599              		.loc 1 107 2 view .LVU127
 600 0002 FFF7FEFF 		bl	Load_Gain
 601              	.LVL54:
 108:Core/Src/Main/Mode.c **** 
 602              		.loc 1 108 2 view .LVU128
 603 0006 FFF7FEFF 		bl	Change_Gain
 604              	.LVL55:
 110:Core/Src/Main/Mode.c **** 
ARM GAS  C:\Users\leopi\AppData\Local\Temp\cc3OmPOJ.s 			page 18


 605              		.loc 1 110 1 is_stmt 0 view .LVU129
 606 000a 08BD     		pop	{r3, pc}
 607              		.cfi_endproc
 608              	.LFE240:
 610              		.section	.rodata.GainSetting.str1.4,"aMS",%progbits,1
 611              		.align	2
 612              	.LC0:
 613 0000 E382BBE3 		.ascii	"\343\202\273\343\203\203\343\203\206\343\202\243\343"
 613      8383E383 
 613      86E382A3 
 613      E3
 614 000d 83B3E382 		.ascii	"\203\263\343\202\260\345\257\276\350\261\241\343\201"
 614      B0E5AFBE 
 614      E8B1A1E3 
 614      81
 615 001a AEE981B8 		.ascii	"\256\351\201\270\346\212\236\015\000"
 615      E68A9E0D 
 615      00
 616 0023 00       		.align	2
 617              	.LC1:
 618 0024 E38388E3 		.ascii	"\343\203\210\343\203\203\343\203\227\343\201\256\343"
 618      8383E383 
 618      97E381AE 
 618      E3
 619 0031 83A2E383 		.ascii	"\203\242\343\203\274\343\203\211\351\201\270\346\212"
 619      BCE38389 
 619      E981B8E6 
 619      8A
 620 003e 9EE381B8 		.ascii	"\236\343\201\270\015\000"
 620      0D00
 621              		.align	2
 622              	.LC2:
 623 0044 E5AFBEE8 		.ascii	"\345\257\276\350\261\241\343\201\256\347\217\276\345"
 623      B1A1E381 
 623      AEE78FBE 
 623      E5
 624 0051 9CA8E381 		.ascii	"\234\250\343\201\256\343\203\221\343\203\251\343\203"
 624      AEE38391 
 624      E383A9E3 
 624      83
 625 005e A1E383BC 		.ascii	"\241\343\203\274\343\202\277\343\202\222\350\241\250"
 625      E382BFE3 
 625      8292E8A1 
 625      A8
 626 006b E7A4BA0D 		.ascii	"\347\244\272\015\000"
 626      00
 627              		.align	2
 628              	.LC3:
 629 0070 E38391E3 		.ascii	"\343\203\221\343\203\251\343\203\241\343\203\274\343"
 629      83A9E383 
 629      A1E383BC 
 629      E3
 630 007d 82BFE5A4 		.ascii	"\202\277\345\244\211\346\233\264\343\201\227\343\201"
 630      89E69BB4 
 630      E38197E3 
 630      81
 631 008a BEE38199 		.ascii	"\276\343\201\231\343\201\213? : to Head=0, Yes=1, N"
ARM GAS  C:\Users\leopi\AppData\Local\Temp\cc3OmPOJ.s 			page 19


 631      E3818B3F 
 631      203A2074 
 631      6F204865 
 631      61643D30 
 632 00a8 6F3D322C 		.ascii	"o=2, to Top=3\015\000"
 632      20746F20 
 632      546F703D 
 632      330D00
 633 00b7 00       		.align	2
 634              	.LC4:
 635 00b8 E5A489E6 		.ascii	"\345\244\211\346\233\264\343\201\233\343\201\232\346"
 635      9BB4E381 
 635      9BE3819A 
 635      E6
 636 00c5 ACA1E381 		.ascii	"\254\241\343\201\270\015\000"
 636      B80D00
 637              		.align	2
 638              	.LC5:
 639 00cc E58B95E4 		.ascii	"\345\213\225\344\275\234\347\242\272\350\252\215\343"
 639      BD9CE7A2 
 639      BAE8AA8D 
 639      E3
 640 00d9 81AFE689 		.ascii	"\201\257\346\211\213\345\213\225\343\201\247\345\213"
 640      8BE58B95 
 640      E381A7E5 
 640      8B
 641 00e6 95E3818B 		.ascii	"\225\343\201\213\343\201\227\343\201\276\343\201\231"
 641      E38197E3 
 641      81BEE381 
 641      99
 642 00f3 E3818BEF 		.ascii	"\343\201\213\357\274\237\343\203\255\343\203\234\343"
 642      BC9FE383 
 642      ADE3839C 
 642      E3
 643 0100 8383E383 		.ascii	"\203\203\343\203\210\343\201\253\343\202\242\343\202"
 643      88E381AB 
 643      E382A2E3 
 643      82
 644 010d AFE382B7 		.ascii	"\257\343\202\267\343\203\247\343\203\263\343\201\225"
 644      E383A7E3 
 644      83B3E381 
 644      95
 645 011a E3819BE3 		.ascii	"\343\201\233\343\201\276\343\201\231\343\201\213\357"
 645      81BEE381 
 645      99E3818B 
 645      EF
 646 0127 BC9F200D 		.ascii	"\274\237 \015\012to Head=0, \346\211\213\345\213\225"
 646      0A746F20 
 646      48656164 
 646      3D302C20 
 646      E6898BE5 
 647 013d 3D312C20 		.ascii	"=1, \343\202\242\343\202\257\343\202\267\343\203\247"
 647      E382A2E3 
 647      82AFE382 
 647      B7E383A7 
 648 014d E383B3EF 		.ascii	"\343\203\263\357\274\210+\343\203\255\343\202\260\345"
 648      BC882BE3 
ARM GAS  C:\Users\leopi\AppData\Local\Temp\cc3OmPOJ.s 			page 20


 648      83ADE382 
 648      B0E5
 649 015b 8FAFE8A6 		.ascii	"\217\257\350\246\226\345\214\226\357\274\211=2, to "
 649      96E58C96 
 649      EFBC893D 
 649      322C2074 
 649      6F20
 650 016d 546F703D 		.ascii	"Top=3\015\000"
 650      330D00
 651              		.align	2
 652              	.LC6:
 653 0174 E6898BE5 		.ascii	"\346\211\213\345\213\225\015\000"
 653      8B950D00 
 654              		.align	2
 655              	.LC7:
 656 017c E382A2E3 		.ascii	"\343\202\242\343\202\257\343\202\267\343\203\247\343"
 656      82AFE382 
 656      B7E383A7 
 656      E3
 657 0189 83B3202B 		.ascii	"\203\263 + \343\203\255\343\202\260\345\217\257\350"
 657      20E383AD 
 657      E382B0E5 
 657      8FAFE8
 658 0198 A696E58C 		.ascii	"\246\226\345\214\226\015\000"
 658      960D00
 659 019f 00       		.align	2
 660              	.LC8:
 661 01a0 E7B69AE8 		.ascii	"\347\266\232\350\241\214\015\000"
 661      A18C0D00 
 662              		.align	2
 663              	.LC9:
 664 01a8 E7B582E4 		.ascii	"\347\265\202\344\272\206\015\000"
 664      BA860D00 
 665              		.section	.text.GainSetting,"ax",%progbits
 666              		.align	1
 667              		.global	GainSetting
 668              		.syntax unified
 669              		.thumb
 670              		.thumb_func
 672              	GainSetting:
 673              	.LVL56:
 674              	.LFB241:
 112:Core/Src/Main/Mode.c **** 
 675              		.loc 1 112 23 is_stmt 1 view -0
 676              		.cfi_startproc
 677              		@ args = 0, pretend = 0, frame = 8
 678              		@ frame_needed = 0, uses_anonymous_args = 0
 112:Core/Src/Main/Mode.c **** 
 679              		.loc 1 112 23 is_stmt 0 view .LVU131
 680 0000 30B5     		push	{r4, r5, lr}
 681              	.LCFI9:
 682              		.cfi_def_cfa_offset 12
 683              		.cfi_offset 4, -12
 684              		.cfi_offset 5, -8
 685              		.cfi_offset 14, -4
 686 0002 83B0     		sub	sp, sp, #12
 687              	.LCFI10:
ARM GAS  C:\Users\leopi\AppData\Local\Temp\cc3OmPOJ.s 			page 21


 688              		.cfi_def_cfa_offset 24
 689 0004 0546     		mov	r5, r0
 114:Core/Src/Main/Mode.c **** 	while(loop_flag){
 690              		.loc 1 114 2 is_stmt 1 view .LVU132
 691              	.LVL57:
 115:Core/Src/Main/Mode.c **** 		Signal(n);
 692              		.loc 1 115 2 view .LVU133
 114:Core/Src/Main/Mode.c **** 	while(loop_flag){
 693              		.loc 1 114 8 is_stmt 0 view .LVU134
 694 0006 0124     		movs	r4, #1
 115:Core/Src/Main/Mode.c **** 		Signal(n);
 695              		.loc 1 115 7 view .LVU135
 696 0008 14E0     		b	.L28
 697              	.LVL58:
 698              	.L43:
 699              	.LBB2:
 125:Core/Src/Main/Mode.c **** 			return 0;
 700              		.loc 1 125 4 is_stmt 1 view .LVU136
 701 000a 3448     		ldr	r0, .L48
 702 000c FFF7FEFF 		bl	puts
 703              	.LVL59:
 126:Core/Src/Main/Mode.c **** 		}
 704              		.loc 1 126 4 view .LVU137
 705              	.L31:
 126:Core/Src/Main/Mode.c **** 		}
 706              		.loc 1 126 11 is_stmt 0 discriminator 1 view .LVU138
 707 0010 0020     		movs	r0, #0
 708              	.L27:
 709              	.LBE2:
 185:Core/Src/Main/Mode.c **** 
 710              		.loc 1 185 1 view .LVU139
 711 0012 03B0     		add	sp, sp, #12
 712              	.LCFI11:
 713              		.cfi_remember_state
 714              		.cfi_def_cfa_offset 12
 715              		@ sp needed
 716 0014 30BD     		pop	{r4, r5, pc}
 717              	.LVL60:
 718              	.L44:
 719              	.LCFI12:
 720              		.cfi_restore_state
 721              	.LBB3:
 152:Core/Src/Main/Mode.c **** 		}
 722              		.loc 1 152 4 is_stmt 1 view .LVU140
 723 0016 3248     		ldr	r0, .L48+4
 724 0018 FFF7FEFF 		bl	puts
 725              	.LVL61:
 726 001c 3EE0     		b	.L32
 727              	.L45:
 155:Core/Src/Main/Mode.c **** 			return 0;
 728              		.loc 1 155 4 view .LVU141
 729 001e 2F48     		ldr	r0, .L48
 730 0020 FFF7FEFF 		bl	puts
 731              	.LVL62:
 156:Core/Src/Main/Mode.c **** 		}
 732              		.loc 1 156 4 view .LVU142
 156:Core/Src/Main/Mode.c **** 		}
ARM GAS  C:\Users\leopi\AppData\Local\Temp\cc3OmPOJ.s 			page 22


 733              		.loc 1 156 11 is_stmt 0 view .LVU143
 734 0024 F4E7     		b	.L31
 735              	.L46:
 169:Core/Src/Main/Mode.c **** 			printf("æ‰‹å‹•\r\n");
 736              		.loc 1 169 4 is_stmt 1 view .LVU144
 737              	.LVL63:
 170:Core/Src/Main/Mode.c **** 		}
 738              		.loc 1 170 4 view .LVU145
 739 0026 2F48     		ldr	r0, .L48+8
 740 0028 FFF7FEFF 		bl	puts
 741              	.LVL64:
 179:Core/Src/Main/Mode.c **** 
 742              		.loc 1 179 3 view .LVU146
 743              	.L35:
 179:Core/Src/Main/Mode.c **** 
 744              		.loc 1 179 46 is_stmt 0 discriminator 2 view .LVU147
 745 002c 2E48     		ldr	r0, .L48+12
 746 002e FFF7FEFF 		bl	puts
 747              	.LVL65:
 748 0032 0024     		movs	r4, #0
 749              	.LVL66:
 750              	.L28:
 179:Core/Src/Main/Mode.c **** 
 751              		.loc 1 179 46 discriminator 2 view .LVU148
 752              	.LBE3:
 115:Core/Src/Main/Mode.c **** 		Signal(n);
 753              		.loc 1 115 7 is_stmt 1 view .LVU149
 754 0034 002C     		cmp	r4, #0
 755 0036 4ED0     		beq	.L42
 756              	.LBB4:
 116:Core/Src/Main/Mode.c **** 		printf("ã‚»ãƒƒãƒ†ã‚£ãƒ³ã‚°å¯¾è±¡ã®é¸æŠ\r\n");
 757              		.loc 1 116 3 view .LVU150
 758 0038 68B2     		sxtb	r0, r5
 759 003a FFF7FEFF 		bl	Signal
 760              	.LVL67:
 117:Core/Src/Main/Mode.c **** 		int8_t setting_target=0;
 761              		.loc 1 117 3 view .LVU151
 762 003e 2B48     		ldr	r0, .L48+16
 763 0040 FFF7FEFF 		bl	puts
 764              	.LVL68:
 118:Core/Src/Main/Mode.c **** 		ModeSelect(0, 7, &setting_target);
 765              		.loc 1 118 3 view .LVU152
 118:Core/Src/Main/Mode.c **** 		ModeSelect(0, 7, &setting_target);
 766              		.loc 1 118 10 is_stmt 0 view .LVU153
 767 0044 0020     		movs	r0, #0
 768 0046 8DF80500 		strb	r0, [sp, #5]
 119:Core/Src/Main/Mode.c **** 
 769              		.loc 1 119 3 is_stmt 1 view .LVU154
 770 004a 0DF10502 		add	r2, sp, #5
 771 004e 0721     		movs	r1, #7
 772 0050 FFF7FEFF 		bl	ModeSelect
 773              	.LVL69:
 121:Core/Src/Main/Mode.c **** 			continue;
 774              		.loc 1 121 3 view .LVU155
 121:Core/Src/Main/Mode.c **** 			continue;
 775              		.loc 1 121 21 is_stmt 0 view .LVU156
 776 0054 9DF90500 		ldrsb	r0, [sp, #5]
ARM GAS  C:\Users\leopi\AppData\Local\Temp\cc3OmPOJ.s 			page 23


 121:Core/Src/Main/Mode.c **** 			continue;
 777              		.loc 1 121 5 view .LVU157
 778 0058 0028     		cmp	r0, #0
 779 005a EBD0     		beq	.L28
 124:Core/Src/Main/Mode.c **** 			printf("ãƒˆãƒƒãƒ—ã®ãƒ¢ãƒ¼ãƒ‰é¸æŠã¸\r\n");
 780              		.loc 1 124 8 is_stmt 1 view .LVU158
 124:Core/Src/Main/Mode.c **** 			printf("ãƒˆãƒƒãƒ—ã®ãƒ¢ãƒ¼ãƒ‰é¸æŠã¸\r\n");
 781              		.loc 1 124 10 is_stmt 0 view .LVU159
 782 005c 0728     		cmp	r0, #7
 783 005e D4D0     		beq	.L43
 129:Core/Src/Main/Mode.c **** 		}
 784              		.loc 1 129 4 is_stmt 1 view .LVU160
 785 0060 FFF7FEFF 		bl	ChangeLED
 786              	.LVL70:
 134:Core/Src/Main/Mode.c **** 
 787              		.loc 1 134 3 view .LVU161
 788 0064 2248     		ldr	r0, .L48+20
 789 0066 FFF7FEFF 		bl	puts
 790              	.LVL71:
 136:Core/Src/Main/Mode.c **** 		//ãƒ‘ãƒ©ãƒ¡ãƒ¼ã‚¿å¤‰æ›´ã®æœ‰ç„¡
 791              		.loc 1 136 3 view .LVU162
 792 006a 2248     		ldr	r0, .L48+24
 793 006c FFF7FEFF 		bl	puts
 794              	.LVL72:
 138:Core/Src/Main/Mode.c **** 		ModeSelect(0, 3, &change);
 795              		.loc 1 138 3 view .LVU163
 138:Core/Src/Main/Mode.c **** 		ModeSelect(0, 3, &change);
 796              		.loc 1 138 10 is_stmt 0 view .LVU164
 797 0070 0020     		movs	r0, #0
 798 0072 8DF80600 		strb	r0, [sp, #6]
 139:Core/Src/Main/Mode.c **** 		Signal(change);
 799              		.loc 1 139 3 is_stmt 1 view .LVU165
 800 0076 0DF10602 		add	r2, sp, #6
 801 007a 0321     		movs	r1, #3
 802 007c FFF7FEFF 		bl	ModeSelect
 803              	.LVL73:
 140:Core/Src/Main/Mode.c **** 
 804              		.loc 1 140 3 view .LVU166
 805 0080 9DF90600 		ldrsb	r0, [sp, #6]
 806 0084 FFF7FEFF 		bl	Signal
 807              	.LVL74:
 143:Core/Src/Main/Mode.c **** 			continue;
 808              		.loc 1 143 3 view .LVU167
 143:Core/Src/Main/Mode.c **** 			continue;
 809              		.loc 1 143 13 is_stmt 0 view .LVU168
 810 0088 9DF90630 		ldrsb	r3, [sp, #6]
 143:Core/Src/Main/Mode.c **** 			continue;
 811              		.loc 1 143 5 view .LVU169
 812 008c 002B     		cmp	r3, #0
 813 008e D1D0     		beq	.L28
 146:Core/Src/Main/Mode.c **** 			 //ã©ã‚Œã‚’å¤‰æ›´ã™ã‚‹ã‹
 814              		.loc 1 146 8 is_stmt 1 view .LVU170
 146:Core/Src/Main/Mode.c **** 			 //ã©ã‚Œã‚’å¤‰æ›´ã™ã‚‹ã‹
 815              		.loc 1 146 10 is_stmt 0 view .LVU171
 816 0090 012B     		cmp	r3, #1
 817 0092 03D0     		beq	.L32
 150:Core/Src/Main/Mode.c **** 			//ãã®ã¾ã¾æ¬¡ã¸
ARM GAS  C:\Users\leopi\AppData\Local\Temp\cc3OmPOJ.s 			page 24


 818              		.loc 1 150 8 is_stmt 1 view .LVU172
 150:Core/Src/Main/Mode.c **** 			//ãã®ã¾ã¾æ¬¡ã¸
 819              		.loc 1 150 10 is_stmt 0 view .LVU173
 820 0094 022B     		cmp	r3, #2
 821 0096 BED0     		beq	.L44
 154:Core/Src/Main/Mode.c **** 			printf("ãƒˆãƒƒãƒ—ã®ãƒ¢ãƒ¼ãƒ‰é¸æŠã¸\r\n");
 822              		.loc 1 154 8 is_stmt 1 view .LVU174
 154:Core/Src/Main/Mode.c **** 			printf("ãƒˆãƒƒãƒ—ã®ãƒ¢ãƒ¼ãƒ‰é¸æŠã¸\r\n");
 823              		.loc 1 154 10 is_stmt 0 view .LVU175
 824 0098 032B     		cmp	r3, #3
 825 009a C0D0     		beq	.L45
 826              	.L32:
 159:Core/Src/Main/Mode.c **** 				"to Head=0, æ‰‹å‹•=1, ã‚¢ã‚¯ã‚·ãƒ§ãƒ³ï¼ˆ+ãƒ­ã‚°å¯è¦–åŒ–ï¼‰=2, to Top=3\r\n");
 827              		.loc 1 159 3 is_stmt 1 view .LVU176
 828 009c 1648     		ldr	r0, .L48+28
 829 009e FFF7FEFF 		bl	puts
 830              	.LVL75:
 162:Core/Src/Main/Mode.c **** 		ModeSelect(0, 3, &self_or_action);
 831              		.loc 1 162 3 view .LVU177
 162:Core/Src/Main/Mode.c **** 		ModeSelect(0, 3, &self_or_action);
 832              		.loc 1 162 10 is_stmt 0 view .LVU178
 833 00a2 0020     		movs	r0, #0
 834 00a4 8DF80700 		strb	r0, [sp, #7]
 163:Core/Src/Main/Mode.c **** 			//æ‰‹å‹•
 835              		.loc 1 163 3 is_stmt 1 view .LVU179
 836 00a8 0DF10702 		add	r2, sp, #7
 837 00ac 0321     		movs	r1, #3
 838 00ae FFF7FEFF 		bl	ModeSelect
 839              	.LVL76:
 167:Core/Src/Main/Mode.c **** 		else if(self_or_action == 1){ //0ãªã‚‰æˆ»ã‚‹2ãªã‚‰ãã®ã¾ã¾é€²ã‚€
 840              		.loc 1 167 3 view .LVU180
 167:Core/Src/Main/Mode.c **** 		else if(self_or_action == 1){ //0ãªã‚‰æˆ»ã‚‹2ãªã‚‰ãã®ã¾ã¾é€²ã‚€
 841              		.loc 1 167 21 is_stmt 0 view .LVU181
 842 00b2 9DF90730 		ldrsb	r3, [sp, #7]
 167:Core/Src/Main/Mode.c **** 		else if(self_or_action == 1){ //0ãªã‚‰æˆ»ã‚‹2ãªã‚‰ãã®ã¾ã¾é€²ã‚€
 843              		.loc 1 167 5 view .LVU182
 844 00b6 002B     		cmp	r3, #0
 845 00b8 BCD0     		beq	.L28
 168:Core/Src/Main/Mode.c **** 			loop_flag = false;
 846              		.loc 1 168 8 is_stmt 1 view .LVU183
 168:Core/Src/Main/Mode.c **** 			loop_flag = false;
 847              		.loc 1 168 10 is_stmt 0 view .LVU184
 848 00ba 012B     		cmp	r3, #1
 849 00bc B3D0     		beq	.L46
 172:Core/Src/Main/Mode.c **** 			loop_flag = false;
 850              		.loc 1 172 8 is_stmt 1 view .LVU185
 172:Core/Src/Main/Mode.c **** 			loop_flag = false;
 851              		.loc 1 172 10 is_stmt 0 view .LVU186
 852 00be 022B     		cmp	r3, #2
 853 00c0 05D0     		beq	.L47
 176:Core/Src/Main/Mode.c **** 
 854              		.loc 1 176 8 is_stmt 1 view .LVU187
 176:Core/Src/Main/Mode.c **** 
 855              		.loc 1 176 10 is_stmt 0 view .LVU188
 856 00c2 032B     		cmp	r3, #3
 857 00c4 A4D0     		beq	.L31
 179:Core/Src/Main/Mode.c **** 
ARM GAS  C:\Users\leopi\AppData\Local\Temp\cc3OmPOJ.s 			page 25


 858              		.loc 1 179 3 is_stmt 1 view .LVU189
 179:Core/Src/Main/Mode.c **** 
 859              		.loc 1 179 23 is_stmt 0 view .LVU190
 860 00c6 0D48     		ldr	r0, .L48+32
 861 00c8 FFF7FEFF 		bl	puts
 862              	.LVL77:
 863 00cc B2E7     		b	.L28
 864              	.L47:
 173:Core/Src/Main/Mode.c **** 			printf("ã‚¢ã‚¯ã‚·ãƒ§ãƒ³ + ãƒ­ã‚°å¯è¦–åŒ–\r\n");//ãã®ã¾ã¾æ¬¡ã¸
 865              		.loc 1 173 4 is_stmt 1 view .LVU191
 866              	.LVL78:
 174:Core/Src/Main/Mode.c **** 		}
 867              		.loc 1 174 4 view .LVU192
 868 00ce 0C48     		ldr	r0, .L48+36
 869 00d0 FFF7FEFF 		bl	puts
 870              	.LVL79:
 179:Core/Src/Main/Mode.c **** 
 871              		.loc 1 179 3 view .LVU193
 872 00d4 AAE7     		b	.L35
 873              	.LVL80:
 874              	.L42:
 179:Core/Src/Main/Mode.c **** 
 875              		.loc 1 179 3 is_stmt 0 view .LVU194
 876              	.LBE4:
 183:Core/Src/Main/Mode.c **** 
 877              		.loc 1 183 9 view .LVU195
 878 00d6 0120     		movs	r0, #1
 879 00d8 9BE7     		b	.L27
 880              	.L49:
 881 00da 00BF     		.align	2
 882              	.L48:
 883 00dc 24000000 		.word	.LC1
 884 00e0 B8000000 		.word	.LC4
 885 00e4 74010000 		.word	.LC6
 886 00e8 A8010000 		.word	.LC9
 887 00ec 00000000 		.word	.LC0
 888 00f0 44000000 		.word	.LC2
 889 00f4 70000000 		.word	.LC3
 890 00f8 CC000000 		.word	.LC5
 891 00fc A0010000 		.word	.LC8
 892 0100 7C010000 		.word	.LC7
 893              		.cfi_endproc
 894              	.LFE241:
 896              		.global	__aeabi_f2d
 897              		.section	.rodata.GainTest.str1.4,"aMS",%progbits,1
 898              		.align	2
 899              	.LC10:
 900 0000 E5898DE5 		.ascii	"\345\211\215\345\267\246: %f,\345\211\215\345\217\263"
 900      B7A63A20 
 900      25662CE5 
 900      898DE58F 
 900      B3
 901 0011 3A202566 		.ascii	": %f, \345\222\214: %f, \346\250\252\345\267\246: %"
 901      2C20E592 
 901      8C3A2025 
 901      662C20E6 
 901      A8AAE5B7 
ARM GAS  C:\Users\leopi\AppData\Local\Temp\cc3OmPOJ.s 			page 26


 902 0029 662CE6A8 		.ascii	"f,\346\250\252\345\217\263: %f, a: %f\015\012\000"
 902      AAE58FB3 
 902      3A202566 
 902      2C20613A 
 902      2025660D 
 903              		.section	.text.GainTest,"ax",%progbits
 904              		.align	1
 905              		.global	GainTest
 906              		.syntax unified
 907              		.thumb
 908              		.thumb_func
 910              	GainTest:
 911              	.LFB242:
 188:Core/Src/Main/Mode.c **** 	// ãƒ¢ãƒ¼ãƒ‰é¸æŠ
 912              		.loc 1 188 16 is_stmt 1 view -0
 913              		.cfi_startproc
 914              		@ args = 0, pretend = 0, frame = 0
 915              		@ frame_needed = 0, uses_anonymous_args = 0
 916 0000 F0B5     		push	{r4, r5, r6, r7, lr}
 917              	.LCFI13:
 918              		.cfi_def_cfa_offset 20
 919              		.cfi_offset 4, -20
 920              		.cfi_offset 5, -16
 921              		.cfi_offset 6, -12
 922              		.cfi_offset 7, -8
 923              		.cfi_offset 14, -4
 924 0002 2DED028B 		vpush.64	{d8}
 925              	.LCFI14:
 926              		.cfi_def_cfa_offset 28
 927              		.cfi_offset 80, -28
 928              		.cfi_offset 81, -24
 929 0006 8BB0     		sub	sp, sp, #44
 930              	.LCFI15:
 931              		.cfi_def_cfa_offset 72
 191:Core/Src/Main/Mode.c **** 	MouseInit();
 932              		.loc 1 191 2 view .LVU197
 191:Core/Src/Main/Mode.c **** 	MouseInit();
 933              		.loc 1 191 10 is_stmt 0 view .LVU198
 934 0008 2D4B     		ldr	r3, .L53+8
 935 000a 0622     		movs	r2, #6
 936 000c 1A60     		str	r2, [r3]
 192:Core/Src/Main/Mode.c **** 
 937              		.loc 1 192 2 is_stmt 1 view .LVU199
 938 000e FFF7FEFF 		bl	MouseInit
 939              	.LVL81:
 194:Core/Src/Main/Mode.c **** 	PIDChangeFlag(R_VELO_PID, 1);
 940              		.loc 1 194 2 view .LVU200
 941 0012 0121     		movs	r1, #1
 942 0014 0420     		movs	r0, #4
 943 0016 FFF7FEFF 		bl	PIDChangeFlag
 944              	.LVL82:
 195:Core/Src/Main/Mode.c **** 	// ãƒ¢ãƒ¼ãƒ‰æ¯ã®å‡¦ç†
 945              		.loc 1 195 2 view .LVU201
 946 001a 0121     		movs	r1, #1
 947 001c 0520     		movs	r0, #5
 948 001e FFF7FEFF 		bl	PIDChangeFlag
 949              	.LVL83:
ARM GAS  C:\Users\leopi\AppData\Local\Temp\cc3OmPOJ.s 			page 27


 198:Core/Src/Main/Mode.c **** 	PIDChangeFlag(D_WALL_PID, 0);
 950              		.loc 1 198 2 view .LVU202
 951 0022 0021     		movs	r1, #0
 952 0024 0846     		mov	r0, r1
 953 0026 FFF7FEFF 		bl	PIDChangeFlag
 954              	.LVL84:
 199:Core/Src/Main/Mode.c **** 	PIDChangeFlag(L_WALL_PID, 0);
 955              		.loc 1 199 2 view .LVU203
 956 002a 0021     		movs	r1, #0
 957 002c 0120     		movs	r0, #1
 958 002e FFF7FEFF 		bl	PIDChangeFlag
 959              	.LVL85:
 200:Core/Src/Main/Mode.c **** 	PIDChangeFlag(R_WALL_PID, 0);
 960              		.loc 1 200 2 view .LVU204
 961 0032 0021     		movs	r1, #0
 962 0034 0220     		movs	r0, #2
 963 0036 FFF7FEFF 		bl	PIDChangeFlag
 964              	.LVL86:
 201:Core/Src/Main/Mode.c **** 	ExploreVelocity=0;
 965              		.loc 1 201 2 view .LVU205
 966 003a 0021     		movs	r1, #0
 967 003c 0320     		movs	r0, #3
 968 003e FFF7FEFF 		bl	PIDChangeFlag
 969              	.LVL87:
 202:Core/Src/Main/Mode.c **** 	ChangeLED(5);
 970              		.loc 1 202 2 view .LVU206
 202:Core/Src/Main/Mode.c **** 	ChangeLED(5);
 971              		.loc 1 202 17 is_stmt 0 view .LVU207
 972 0042 204B     		ldr	r3, .L53+12
 973 0044 0022     		movs	r2, #0
 974 0046 1A60     		str	r2, [r3]	@ float
 203:Core/Src/Main/Mode.c **** 	while(1)
 975              		.loc 1 203 2 is_stmt 1 view .LVU208
 976 0048 0520     		movs	r0, #5
 977 004a FFF7FEFF 		bl	ChangeLED
 978              	.LVL88:
 979              	.L51:
 204:Core/Src/Main/Mode.c **** 	{
 980              		.loc 1 204 2 discriminator 1 view .LVU209
 981              	.LBB5:
 206:Core/Src/Main/Mode.c **** 		float a=10.56;
 982              		.loc 1 206 3 discriminator 1 view .LVU210
 206:Core/Src/Main/Mode.c **** 		float a=10.56;
 983              		.loc 1 206 24 is_stmt 0 discriminator 1 view .LVU211
 984 004e 1E4B     		ldr	r3, .L53+16
 985 0050 0022     		movs	r2, #0
 986 0052 9A60     		str	r2, [r3, #8]	@ float
 207:Core/Src/Main/Mode.c **** 		//printf("%f, %f\r\n", AngularV, Angle);
 987              		.loc 1 207 3 is_stmt 1 discriminator 1 view .LVU212
 988              	.LVL89:
 209:Core/Src/Main/Mode.c **** 	}
 989              		.loc 1 209 3 discriminator 1 view .LVU213
 209:Core/Src/Main/Mode.c **** 	}
 990              		.loc 1 209 82 is_stmt 0 discriminator 1 view .LVU214
 991 0054 1D4B     		ldr	r3, .L53+20
 992 0056 D3ED007A 		vldr.32	s15, [r3]
 209:Core/Src/Main/Mode.c **** 	}
ARM GAS  C:\Users\leopi\AppData\Local\Temp\cc3OmPOJ.s 			page 28


 993              		.loc 1 209 92 discriminator 1 view .LVU215
 994 005a 93ED038A 		vldr.32	s16, [r3, #12]
 209:Core/Src/Main/Mode.c **** 	}
 995              		.loc 1 209 106 discriminator 1 view .LVU216
 996 005e 77EE888A 		vadd.f32	s17, s15, s16
 209:Core/Src/Main/Mode.c **** 	}
 997              		.loc 1 209 122 discriminator 1 view .LVU217
 998 0062 9E68     		ldr	r6, [r3, #8]	@ float
 209:Core/Src/Main/Mode.c **** 	}
 999              		.loc 1 209 132 discriminator 1 view .LVU218
 1000 0064 5F68     		ldr	r7, [r3, #4]	@ float
 209:Core/Src/Main/Mode.c **** 	}
 1001              		.loc 1 209 3 discriminator 1 view .LVU219
 1002 0066 17EE900A 		vmov	r0, s15
 1003 006a FFF7FEFF 		bl	__aeabi_f2d
 1004              	.LVL90:
 1005 006e 0446     		mov	r4, r0
 1006 0070 0D46     		mov	r5, r1
 1007 0072 11A3     		adr	r3, .L53
 1008 0074 D3E90023 		ldrd	r2, [r3]
 1009 0078 CDE90823 		strd	r2, [sp, #32]
 1010 007c 3846     		mov	r0, r7	@ float
 1011 007e FFF7FEFF 		bl	__aeabi_f2d
 1012              	.LVL91:
 1013 0082 CDE90601 		strd	r0, [sp, #24]
 1014 0086 3046     		mov	r0, r6	@ float
 1015 0088 FFF7FEFF 		bl	__aeabi_f2d
 1016              	.LVL92:
 1017 008c CDE90401 		strd	r0, [sp, #16]
 1018 0090 18EE900A 		vmov	r0, s17
 1019 0094 FFF7FEFF 		bl	__aeabi_f2d
 1020              	.LVL93:
 1021 0098 CDE90201 		strd	r0, [sp, #8]
 1022 009c 18EE100A 		vmov	r0, s16
 1023 00a0 FFF7FEFF 		bl	__aeabi_f2d
 1024              	.LVL94:
 1025 00a4 CDE90001 		strd	r0, [sp]
 1026 00a8 2246     		mov	r2, r4
 1027 00aa 2B46     		mov	r3, r5
 1028 00ac 0848     		ldr	r0, .L53+24
 1029 00ae FFF7FEFF 		bl	printf
 1030              	.LVL95:
 1031              	.LBE5:
 204:Core/Src/Main/Mode.c **** 	{
 1032              		.loc 1 204 7 is_stmt 1 discriminator 1 view .LVU220
 1033 00b2 CCE7     		b	.L51
 1034              	.L54:
 1035 00b4 AFF30080 		.align	3
 1036              	.L53:
 1037 00b8 00000060 		.word	1610612736
 1038 00bc B81E2540 		.word	1076174520
 1039 00c0 00000000 		.word	IT_mode
 1040 00c4 00000000 		.word	ExploreVelocity
 1041 00c8 00000000 		.word	TargetVelocity
 1042 00cc 00000000 		.word	Photo
 1043 00d0 00000000 		.word	.LC10
 1044              		.cfi_endproc
ARM GAS  C:\Users\leopi\AppData\Local\Temp\cc3OmPOJ.s 			page 29


 1045              	.LFE242:
 1047              		.section	.rodata.WritingFree.str1.4,"aMS",%progbits,1
 1048              		.align	2
 1049              	.LC11:
 1050 0000 25642C20 		.ascii	"%d, %lf, %lf\015\012\000"
 1050      256C662C 
 1050      20256C66 
 1050      0D0A00
 1051              		.section	.text.WritingFree,"ax",%progbits
 1052              		.align	1
 1053              		.global	WritingFree
 1054              		.syntax unified
 1055              		.thumb
 1056              		.thumb_func
 1058              	WritingFree:
 1059              	.LFB243:
 214:Core/Src/Main/Mode.c **** 	IT_mode = WRITINGFREE;
 1060              		.loc 1 214 1 view -0
 1061              		.cfi_startproc
 1062              		@ args = 0, pretend = 0, frame = 0
 1063              		@ frame_needed = 0, uses_anonymous_args = 0
 1064 0000 F0B5     		push	{r4, r5, r6, r7, lr}
 1065              	.LCFI16:
 1066              		.cfi_def_cfa_offset 20
 1067              		.cfi_offset 4, -20
 1068              		.cfi_offset 5, -16
 1069              		.cfi_offset 6, -12
 1070              		.cfi_offset 7, -8
 1071              		.cfi_offset 14, -4
 1072 0002 83B0     		sub	sp, sp, #12
 1073              	.LCFI17:
 1074              		.cfi_def_cfa_offset 32
 215:Core/Src/Main/Mode.c **** 
 1075              		.loc 1 215 2 view .LVU222
 215:Core/Src/Main/Mode.c **** 
 1076              		.loc 1 215 10 is_stmt 0 view .LVU223
 1077 0004 304F     		ldr	r7, .L60
 1078 0006 0726     		movs	r6, #7
 1079 0008 3E60     		str	r6, [r7]
 217:Core/Src/Main/Mode.c **** 	MouseInit();
 1080              		.loc 1 217 2 is_stmt 1 view .LVU224
 217:Core/Src/Main/Mode.c **** 	MouseInit();
 1081              		.loc 1 217 6 is_stmt 0 view .LVU225
 1082 000a 304D     		ldr	r5, .L60+4
 1083 000c 0024     		movs	r4, #0
 1084 000e 2C60     		str	r4, [r5]
 218:Core/Src/Main/Mode.c **** 
 1085              		.loc 1 218 2 is_stmt 1 view .LVU226
 1086 0010 FFF7FEFF 		bl	MouseInit
 1087              	.LVL96:
 220:Core/Src/Main/Mode.c **** 	PIDChangeFlag(R_VELO_PID, 1);
 1088              		.loc 1 220 2 view .LVU227
 1089 0014 0121     		movs	r1, #1
 1090 0016 0420     		movs	r0, #4
 1091 0018 FFF7FEFF 		bl	PIDChangeFlag
 1092              	.LVL97:
 221:Core/Src/Main/Mode.c **** 
ARM GAS  C:\Users\leopi\AppData\Local\Temp\cc3OmPOJ.s 			page 30


 1093              		.loc 1 221 2 view .LVU228
 1094 001c 0121     		movs	r1, #1
 1095 001e 0520     		movs	r0, #5
 1096 0020 FFF7FEFF 		bl	PIDChangeFlag
 1097              	.LVL98:
 223:Core/Src/Main/Mode.c **** 	PIDChangeFlag(L_WALL_PID, 0);
 1098              		.loc 1 223 2 view .LVU229
 1099 0024 2146     		mov	r1, r4
 1100 0026 0120     		movs	r0, #1
 1101 0028 FFF7FEFF 		bl	PIDChangeFlag
 1102              	.LVL99:
 224:Core/Src/Main/Mode.c **** 	PIDChangeFlag(R_WALL_PID, 0);
 1103              		.loc 1 224 2 view .LVU230
 1104 002c 2146     		mov	r1, r4
 1105 002e 0220     		movs	r0, #2
 1106 0030 FFF7FEFF 		bl	PIDChangeFlag
 1107              	.LVL100:
 225:Core/Src/Main/Mode.c **** 	IT_mode = EXPLORE;
 1108              		.loc 1 225 2 view .LVU231
 1109 0034 2146     		mov	r1, r4
 1110 0036 0320     		movs	r0, #3
 1111 0038 FFF7FEFF 		bl	PIDChangeFlag
 1112              	.LVL101:
 226:Core/Src/Main/Mode.c **** 	PIDChangeFlag(A_VELO_PID, 1);
 1113              		.loc 1 226 2 view .LVU232
 226:Core/Src/Main/Mode.c **** 	PIDChangeFlag(A_VELO_PID, 1);
 1114              		.loc 1 226 10 is_stmt 0 view .LVU233
 1115 003c 0623     		movs	r3, #6
 1116 003e 3B60     		str	r3, [r7]
 227:Core/Src/Main/Mode.c **** 	ExploreVelocity=0;
 1117              		.loc 1 227 2 is_stmt 1 view .LVU234
 1118 0040 0121     		movs	r1, #1
 1119 0042 2046     		mov	r0, r4
 1120 0044 FFF7FEFF 		bl	PIDChangeFlag
 1121              	.LVL102:
 228:Core/Src/Main/Mode.c **** 	ChangeLED(7);
 1122              		.loc 1 228 2 view .LVU235
 228:Core/Src/Main/Mode.c **** 	ChangeLED(7);
 1123              		.loc 1 228 17 is_stmt 0 view .LVU236
 1124 0048 214B     		ldr	r3, .L60+8
 1125 004a 0022     		movs	r2, #0
 1126 004c 1A60     		str	r2, [r3]	@ float
 229:Core/Src/Main/Mode.c **** 	//ãƒ‡ãƒ¼ã‚¿å–ã‚Šï¼ˆé€Ÿåº¦ã€è§’é€Ÿåº¦ï¼‰
 1127              		.loc 1 229 2 is_stmt 1 view .LVU237
 1128 004e 3046     		mov	r0, r6
 1129 0050 FFF7FEFF 		bl	ChangeLED
 1130              	.LVL103:
 231:Core/Src/Main/Mode.c **** 	FastStraight(0.5, 8, 0.5, -0.5, 4000, 10);
 1131              		.loc 1 231 2 view .LVU238
 231:Core/Src/Main/Mode.c **** 	FastStraight(0.5, 8, 0.5, -0.5, 4000, 10);
 1132              		.loc 1 231 6 is_stmt 0 view .LVU239
 1133 0054 0123     		movs	r3, #1
 1134 0056 2B60     		str	r3, [r5]
 232:Core/Src/Main/Mode.c **** 	dbc = 0;
 1135              		.loc 1 232 2 is_stmt 1 view .LVU240
 1136 0058 F2EE042A 		vmov.f32	s5, #1.0e+1
 1137 005c 9FED1D2A 		vldr.32	s4, .L60+12
ARM GAS  C:\Users\leopi\AppData\Local\Temp\cc3OmPOJ.s 			page 31


 1138 0060 FEEE001A 		vmov.f32	s3, #-5.0e-1
 1139 0064 B6EE001A 		vmov.f32	s2, #5.0e-1
 1140 0068 F2EE000A 		vmov.f32	s1, #8.0e+0
 1141 006c B0EE410A 		vmov.f32	s0, s2
 1142 0070 FFF7FEFF 		bl	FastStraight
 1143              	.LVL104:
 233:Core/Src/Main/Mode.c **** 
 1144              		.loc 1 233 2 view .LVU241
 233:Core/Src/Main/Mode.c **** 
 1145              		.loc 1 233 6 is_stmt 0 view .LVU242
 1146 0074 2C60     		str	r4, [r5]
 1147 0076 1AE0     		b	.L58
 1148              	.LVL105:
 1149              	.L57:
 1150              	.LBB6:
 241:Core/Src/Main/Mode.c **** 		}
 1151              		.loc 1 241 4 is_stmt 1 discriminator 3 view .LVU243
 241:Core/Src/Main/Mode.c **** 		}
 1152              		.loc 1 241 41 is_stmt 0 discriminator 3 view .LVU244
 1153 0078 174B     		ldr	r3, .L60+16
 1154 007a 03EB8403 		add	r3, r3, r4, lsl #2
 241:Core/Src/Main/Mode.c **** 		}
 1155              		.loc 1 241 53 discriminator 3 view .LVU245
 1156 007e 174A     		ldr	r2, .L60+20
 1157 0080 02EB8402 		add	r2, r2, r4, lsl #2
 1158 0084 1568     		ldr	r5, [r2]	@ float
 241:Core/Src/Main/Mode.c **** 		}
 1159              		.loc 1 241 4 discriminator 3 view .LVU246
 1160 0086 1868     		ldr	r0, [r3]	@ float
 1161 0088 FFF7FEFF 		bl	__aeabi_f2d
 1162              	.LVL106:
 1163 008c 0646     		mov	r6, r0
 1164 008e 0F46     		mov	r7, r1
 1165 0090 2846     		mov	r0, r5	@ float
 1166 0092 FFF7FEFF 		bl	__aeabi_f2d
 1167              	.LVL107:
 1168 0096 CDE90001 		strd	r0, [sp]
 1169 009a 3246     		mov	r2, r6
 1170 009c 3B46     		mov	r3, r7
 1171 009e 2146     		mov	r1, r4
 1172 00a0 0F48     		ldr	r0, .L60+24
 1173 00a2 FFF7FEFF 		bl	printf
 1174              	.LVL108:
 240:Core/Src/Main/Mode.c **** 			printf("%d, %lf, %lf\r\n", i, debugVL[i], debugVR[i]);
 1175              		.loc 1 240 25 is_stmt 1 discriminator 3 view .LVU247
 240:Core/Src/Main/Mode.c **** 			printf("%d, %lf, %lf\r\n", i, debugVL[i], debugVR[i]);
 1176              		.loc 1 240 26 is_stmt 0 discriminator 3 view .LVU248
 1177 00a6 0134     		adds	r4, r4, #1
 1178              	.LVL109:
 1179              	.L56:
 240:Core/Src/Main/Mode.c **** 			printf("%d, %lf, %lf\r\n", i, debugVL[i], debugVR[i]);
 1180              		.loc 1 240 16 is_stmt 1 discriminator 1 view .LVU249
 240:Core/Src/Main/Mode.c **** 			printf("%d, %lf, %lf\r\n", i, debugVL[i], debugVR[i]);
 1181              		.loc 1 240 3 is_stmt 0 discriminator 1 view .LVU250
 1182 00a8 B4F5167F 		cmp	r4, #600
 1183 00ac E4DB     		blt	.L57
 1184              	.LVL110:
ARM GAS  C:\Users\leopi\AppData\Local\Temp\cc3OmPOJ.s 			page 32


 1185              	.L58:
 240:Core/Src/Main/Mode.c **** 			printf("%d, %lf, %lf\r\n", i, debugVL[i], debugVR[i]);
 1186              		.loc 1 240 3 discriminator 1 view .LVU251
 1187              	.LBE6:
 235:Core/Src/Main/Mode.c **** 	{
 1188              		.loc 1 235 2 is_stmt 1 view .LVU252
 237:Core/Src/Main/Mode.c **** 		TargetVelocity[BODY] = 0;
 1189              		.loc 1 237 3 view .LVU253
 1190 00ae 0021     		movs	r1, #0
 1191 00b0 0846     		mov	r0, r1
 1192 00b2 FFF7FEFF 		bl	PIDChangeFlag
 1193              	.LVL111:
 238:Core/Src/Main/Mode.c **** 		HAL_Delay(5000);
 1194              		.loc 1 238 3 view .LVU254
 238:Core/Src/Main/Mode.c **** 		HAL_Delay(5000);
 1195              		.loc 1 238 24 is_stmt 0 view .LVU255
 1196 00b6 0B4B     		ldr	r3, .L60+28
 1197 00b8 0022     		movs	r2, #0
 1198 00ba 9A60     		str	r2, [r3, #8]	@ float
 239:Core/Src/Main/Mode.c **** 		for(int i=0; i < 600; i++){
 1199              		.loc 1 239 3 is_stmt 1 view .LVU256
 1200 00bc 41F28830 		movw	r0, #5000
 1201 00c0 FFF7FEFF 		bl	HAL_Delay
 1202              	.LVL112:
 240:Core/Src/Main/Mode.c **** 			printf("%d, %lf, %lf\r\n", i, debugVL[i], debugVR[i]);
 1203              		.loc 1 240 3 view .LVU257
 1204              	.LBB7:
 240:Core/Src/Main/Mode.c **** 			printf("%d, %lf, %lf\r\n", i, debugVL[i], debugVR[i]);
 1205              		.loc 1 240 7 view .LVU258
 240:Core/Src/Main/Mode.c **** 			printf("%d, %lf, %lf\r\n", i, debugVL[i], debugVR[i]);
 1206              		.loc 1 240 11 is_stmt 0 view .LVU259
 1207 00c4 0024     		movs	r4, #0
 240:Core/Src/Main/Mode.c **** 			printf("%d, %lf, %lf\r\n", i, debugVL[i], debugVR[i]);
 1208              		.loc 1 240 3 view .LVU260
 1209 00c6 EFE7     		b	.L56
 1210              	.L61:
 1211              		.align	2
 1212              	.L60:
 1213 00c8 00000000 		.word	IT_mode
 1214 00cc 00000000 		.word	dbc
 1215 00d0 00000000 		.word	ExploreVelocity
 1216 00d4 00007A45 		.word	1165623296
 1217 00d8 00000000 		.word	debugVL
 1218 00dc 00000000 		.word	debugVR
 1219 00e0 00000000 		.word	.LC11
 1220 00e4 00000000 		.word	TargetVelocity
 1221              	.LBE7:
 1222              		.cfi_endproc
 1223              	.LFE243:
 1225              		.section	.text.DFS_Running,"ax",%progbits
 1226              		.align	1
 1227              		.global	DFS_Running
 1228              		.syntax unified
 1229              		.thumb
 1230              		.thumb_func
 1232              	DFS_Running:
 1233              	.LVL113:
ARM GAS  C:\Users\leopi\AppData\Local\Temp\cc3OmPOJ.s 			page 33


 1234              	.LFB245:
 313:Core/Src/Main/Mode.c **** 
 314:Core/Src/Main/Mode.c **** 
 315:Core/Src/Main/Mode.c **** void DFS_Running(char turn_mode){
 1235              		.loc 1 315 33 is_stmt 1 view -0
 1236              		.cfi_startproc
 1237              		@ args = 0, pretend = 0, frame = 0
 1238              		@ frame_needed = 0, uses_anonymous_args = 0
 1239              		.loc 1 315 33 is_stmt 0 view .LVU262
 1240 0000 70B5     		push	{r4, r5, r6, lr}
 1241              	.LCFI18:
 1242              		.cfi_def_cfa_offset 16
 1243              		.cfi_offset 4, -16
 1244              		.cfi_offset 5, -12
 1245              		.cfi_offset 6, -8
 1246              		.cfi_offset 14, -4
 1247 0002 0546     		mov	r5, r0
 316:Core/Src/Main/Mode.c **** 	//å…¨æ¢ç´¢ï¼ˆæ·±ã•å„ªå…ˆæ¢ç´¢ï¼‰
 317:Core/Src/Main/Mode.c **** 	WALL_MASK = 0x01;
 1248              		.loc 1 317 2 is_stmt 1 view .LVU263
 1249              		.loc 1 317 12 is_stmt 0 view .LVU264
 1250 0004 0124     		movs	r4, #1
 1251 0006 294B     		ldr	r3, .L66
 1252 0008 1C60     		str	r4, [r3]
 318:Core/Src/Main/Mode.c **** 	VelocityMax = false;
 1253              		.loc 1 318 2 is_stmt 1 view .LVU265
 1254              		.loc 1 318 14 is_stmt 0 view .LVU266
 1255 000a 0022     		movs	r2, #0
 1256 000c 284B     		ldr	r3, .L66+4
 1257 000e 1A70     		strb	r2, [r3]
 319:Core/Src/Main/Mode.c **** 	goal_edge_num = 1;
 1258              		.loc 1 319 2 is_stmt 1 view .LVU267
 1259              		.loc 1 319 16 is_stmt 0 view .LVU268
 1260 0010 284B     		ldr	r3, .L66+8
 1261 0012 1C70     		strb	r4, [r3]
 320:Core/Src/Main/Mode.c **** 	SearchOrFast = 0; //search
 1262              		.loc 1 320 2 is_stmt 1 view .LVU269
 1263              		.loc 1 320 15 is_stmt 0 view .LVU270
 1264 0014 284B     		ldr	r3, .L66+12
 1265 0016 1A60     		str	r2, [r3]
 321:Core/Src/Main/Mode.c **** 	Calc = SearchOrFast;
 1266              		.loc 1 321 2 is_stmt 1 view .LVU271
 1267              		.loc 1 321 7 is_stmt 0 view .LVU272
 1268 0018 1A68     		ldr	r2, [r3]
 1269 001a 284B     		ldr	r3, .L66+16
 1270 001c 1A60     		str	r2, [r3]
 322:Core/Src/Main/Mode.c **** 
 323:Core/Src/Main/Mode.c **** 
 324:Core/Src/Main/Mode.c **** 	InitStackNum();
 1271              		.loc 1 324 2 is_stmt 1 view .LVU273
 1272 001e FFF7FEFF 		bl	InitStackNum
 1273              	.LVL114:
 325:Core/Src/Main/Mode.c **** 	
 326:Core/Src/Main/Mode.c **** 	StackMass(&my_map, &(my_mouse.now));
 1274              		.loc 1 326 2 view .LVU274
 1275 0022 274E     		ldr	r6, .L66+20
 1276 0024 3146     		mov	r1, r6
ARM GAS  C:\Users\leopi\AppData\Local\Temp\cc3OmPOJ.s 			page 34


 1277 0026 2748     		ldr	r0, .L66+24
 1278 0028 FFF7FEFF 		bl	StackMass
 1279              	.LVL115:
 327:Core/Src/Main/Mode.c **** 	int stack_num=GetStackNum();
 1280              		.loc 1 327 2 view .LVU275
 1281              		.loc 1 327 16 is_stmt 0 view .LVU276
 1282 002c FFF7FEFF 		bl	GetStackNum
 1283              	.LVL116:
 328:Core/Src/Main/Mode.c **** 	my_mouse.target_pos.x = mass_stack[stack_num].x;
 1284              		.loc 1 328 2 is_stmt 1 view .LVU277
 1285              		.loc 1 328 47 is_stmt 0 view .LVU278
 1286 0030 254B     		ldr	r3, .L66+28
 1287 0032 13F81010 		ldrb	r1, [r3, r0, lsl #1]	@ zero_extendqisi2
 1288              		.loc 1 328 24 view .LVU279
 1289 0036 06F8041C 		strb	r1, [r6, #-4]
 329:Core/Src/Main/Mode.c **** 	my_mouse.target_pos.y = mass_stack[stack_num].y;
 1290              		.loc 1 329 2 is_stmt 1 view .LVU280
 1291              		.loc 1 329 47 is_stmt 0 view .LVU281
 1292 003a 03EB4003 		add	r3, r3, r0, lsl #1
 1293 003e 5B78     		ldrb	r3, [r3, #1]	@ zero_extendqisi2
 1294              		.loc 1 329 24 view .LVU282
 1295 0040 06F8033C 		strb	r3, [r6, #-3]
 330:Core/Src/Main/Mode.c **** 	my_mouse.target_size.x = 1;
 1296              		.loc 1 330 2 is_stmt 1 view .LVU283
 1297              		.loc 1 330 25 is_stmt 0 view .LVU284
 1298 0044 06F8024C 		strb	r4, [r6, #-2]
 331:Core/Src/Main/Mode.c **** 	my_mouse.target_size.y = 1;
 1299              		.loc 1 331 2 is_stmt 1 view .LVU285
 1300              		.loc 1 331 25 is_stmt 0 view .LVU286
 1301 0048 06F8014C 		strb	r4, [r6, #-1]
 332:Core/Src/Main/Mode.c **** 	stack_num--; //n=2ã‹ã‚‰1ã¸
 1302              		.loc 1 332 2 is_stmt 1 view .LVU287
 1303              		.loc 1 332 11 is_stmt 0 view .LVU288
 1304 004c 441E     		subs	r4, r0, #1
 1305              	.LVL117:
 333:Core/Src/Main/Mode.c **** 	SetStackNum(stack_num);
 1306              		.loc 1 333 2 is_stmt 1 view .LVU289
 1307 004e 2046     		mov	r0, r4
 1308 0050 FFF7FEFF 		bl	SetStackNum
 1309              	.LVL118:
 334:Core/Src/Main/Mode.c **** 	restart(turn_mode);
 1310              		.loc 1 334 2 view .LVU290
 1311 0054 2846     		mov	r0, r5
 1312 0056 FFF7FEFF 		bl	restart
 1313              	.LVL119:
 335:Core/Src/Main/Mode.c **** 
 336:Core/Src/Main/Mode.c **** 	while(stack_num != 0){
 1314              		.loc 1 336 2 view .LVU291
 1315              		.loc 1 336 7 is_stmt 0 view .LVU292
 1316 005a 09E0     		b	.L63
 1317              	.L64:
 337:Core/Src/Main/Mode.c **** 
 338:Core/Src/Main/Mode.c **** 		//ã‚¢ã‚¯ã‚·ãƒ§ãƒ³
 339:Core/Src/Main/Mode.c **** 		getNextDirection(&my_map, &my_mouse, turn_mode, WALL_MASK);
 1318              		.loc 1 339 3 is_stmt 1 view .LVU293
 1319 005c 134B     		ldr	r3, .L66
 1320 005e 1B68     		ldr	r3, [r3]
ARM GAS  C:\Users\leopi\AppData\Local\Temp\cc3OmPOJ.s 			page 35


 1321 0060 2A46     		mov	r2, r5
 1322 0062 1A49     		ldr	r1, .L66+32
 1323 0064 1748     		ldr	r0, .L66+24
 1324 0066 FFF7FEFF 		bl	getNextDirection
 1325              	.LVL120:
 340:Core/Src/Main/Mode.c **** 		stack_num = GetStackNum();
 1326              		.loc 1 340 3 view .LVU294
 1327              		.loc 1 340 15 is_stmt 0 view .LVU295
 1328 006a FFF7FEFF 		bl	GetStackNum
 1329              	.LVL121:
 1330 006e 0446     		mov	r4, r0
 1331              	.LVL122:
 1332              	.L63:
 336:Core/Src/Main/Mode.c **** 
 1333              		.loc 1 336 7 is_stmt 1 view .LVU296
 1334 0070 002C     		cmp	r4, #0
 1335 0072 F3D1     		bne	.L64
 341:Core/Src/Main/Mode.c **** 	}
 342:Core/Src/Main/Mode.c **** 	//æ¸›é€Ÿåœæ­¢
 343:Core/Src/Main/Mode.c **** 	Decel(45, 0);
 1336              		.loc 1 343 2 view .LVU297
 1337 0074 DFED160A 		vldr.32	s1, .L66+36
 1338 0078 9FED160A 		vldr.32	s0, .L66+40
 1339 007c FFF7FEFF 		bl	Decel
 1340              	.LVL123:
 344:Core/Src/Main/Mode.c **** 	WaitStopAndReset();//ã“ã‚ŒãŒãªã„ã¨ã‚¬ã‚¯ãƒ³ã¨ãªã‚‹.
 1341              		.loc 1 344 2 view .LVU298
 1342 0080 FFF7FEFF 		bl	WaitStopAndReset
 1343              	.LVL124:
 345:Core/Src/Main/Mode.c **** 	shiftState(&my_mouse);
 1344              		.loc 1 345 2 view .LVU299
 1345 0084 114C     		ldr	r4, .L66+32
 1346              	.LVL125:
 1347              		.loc 1 345 2 is_stmt 0 view .LVU300
 1348 0086 2046     		mov	r0, r4
 1349 0088 FFF7FEFF 		bl	shiftState
 1350              	.LVL126:
 346:Core/Src/Main/Mode.c **** 	VisitedMass(my_mouse.now.pos);
 1351              		.loc 1 346 2 is_stmt 1 view .LVU301
 1352 008c 6068     		ldr	r0, [r4, #4]
 1353 008e FFF7FEFF 		bl	VisitedMass
 1354              	.LVL127:
 347:Core/Src/Main/Mode.c **** 
 348:Core/Src/Main/Mode.c **** 	PIDChangeFlag(A_VELO_PID, 0);
 1355              		.loc 1 348 2 view .LVU302
 1356 0092 0021     		movs	r1, #0
 1357 0094 0846     		mov	r0, r1
 1358 0096 FFF7FEFF 		bl	PIDChangeFlag
 1359              	.LVL128:
 349:Core/Src/Main/Mode.c **** 	//flashã®ã‚¯ãƒªã‚¢ã€‚
 350:Core/Src/Main/Mode.c **** 	Flash_clear_sector1();
 1360              		.loc 1 350 2 view .LVU303
 1361 009a FFF7FEFF 		bl	Flash_clear_sector1
 1362              	.LVL129:
 351:Core/Src/Main/Mode.c **** 	//ãƒãƒƒãƒ—æ›¸ãè¾¼ã¿
 352:Core/Src/Main/Mode.c **** 	flashStoreNodes(&my_map);
 1363              		.loc 1 352 2 view .LVU304
ARM GAS  C:\Users\leopi\AppData\Local\Temp\cc3OmPOJ.s 			page 36


 1364 009e 0948     		ldr	r0, .L66+24
 1365 00a0 FFF7FEFF 		bl	flashStoreNodes
 1366              	.LVL130:
 353:Core/Src/Main/Mode.c **** 	//å®Œäº†ã®åˆå›³
 354:Core/Src/Main/Mode.c **** 	Signal(7);
 1367              		.loc 1 354 2 view .LVU305
 1368 00a4 0720     		movs	r0, #7
 1369 00a6 FFF7FEFF 		bl	Signal
 1370              	.LVL131:
 355:Core/Src/Main/Mode.c **** }
 1371              		.loc 1 355 1 is_stmt 0 view .LVU306
 1372 00aa 70BD     		pop	{r4, r5, r6, pc}
 1373              	.L67:
 1374              		.align	2
 1375              	.L66:
 1376 00ac 00000000 		.word	WALL_MASK
 1377 00b0 00000000 		.word	VelocityMax
 1378 00b4 00000000 		.word	goal_edge_num
 1379 00b8 00000000 		.word	SearchOrFast
 1380 00bc 00000000 		.word	Calc
 1381 00c0 04000000 		.word	my_mouse+4
 1382 00c4 00000000 		.word	my_map
 1383 00c8 00000000 		.word	mass_stack
 1384 00cc 00000000 		.word	my_mouse
 1385 00d0 00000000 		.word	0
 1386 00d4 00003442 		.word	1110704128
 1387              		.cfi_endproc
 1388              	.LFE245:
 1390              		.section	.text.FlashWriteTest,"ax",%progbits
 1391              		.align	1
 1392              		.global	FlashWriteTest
 1393              		.syntax unified
 1394              		.thumb
 1395              		.thumb_func
 1397              	FlashWriteTest:
 1398              	.LFB246:
 356:Core/Src/Main/Mode.c **** 
 357:Core/Src/Main/Mode.c **** 
 358:Core/Src/Main/Mode.c **** void FlashWriteTest()
 359:Core/Src/Main/Mode.c **** {
 1399              		.loc 1 359 1 is_stmt 1 view -0
 1400              		.cfi_startproc
 1401              		@ args = 0, pretend = 0, frame = 0
 1402              		@ frame_needed = 0, uses_anonymous_args = 0
 1403 0000 10B5     		push	{r4, lr}
 1404              	.LCFI19:
 1405              		.cfi_def_cfa_offset 8
 1406              		.cfi_offset 4, -8
 1407              		.cfi_offset 14, -4
 360:Core/Src/Main/Mode.c **** 	for(int i=0; i < NUMBER_OF_SQUARES_X; i++)
 1408              		.loc 1 360 2 view .LVU308
 1409              	.LBB8:
 1410              		.loc 1 360 6 view .LVU309
 1411              	.LVL132:
 1412              		.loc 1 360 10 is_stmt 0 view .LVU310
 1413 0002 0021     		movs	r1, #0
 1414              		.loc 1 360 2 view .LVU311
ARM GAS  C:\Users\leopi\AppData\Local\Temp\cc3OmPOJ.s 			page 37


 1415 0004 0BE0     		b	.L69
 1416              	.LVL133:
 1417              	.L70:
 1418              	.LBB9:
 361:Core/Src/Main/Mode.c **** 		{
 362:Core/Src/Main/Mode.c **** 				for(int j=0; j < NUMBER_OF_SQUARES_Y+1; j++)
 363:Core/Src/Main/Mode.c **** 				{
 364:Core/Src/Main/Mode.c **** 					my_map.RawNode[i][j].existence = NOWALL;
 1419              		.loc 1 364 6 is_stmt 1 discriminator 3 view .LVU312
 1420              		.loc 1 364 37 is_stmt 0 discriminator 3 view .LVU313
 1421 0006 01EB0112 		add	r2, r1, r1, lsl #4
 1422 000a 1A44     		add	r2, r2, r3
 1423 000c 1448     		ldr	r0, .L80
 1424 000e 4FF0000C 		mov	ip, #0
 1425 0012 00F832C0 		strb	ip, [r0, r2, lsl #3]
 362:Core/Src/Main/Mode.c **** 				{
 1426              		.loc 1 362 45 is_stmt 1 discriminator 3 view .LVU314
 362:Core/Src/Main/Mode.c **** 				{
 1427              		.loc 1 362 46 is_stmt 0 discriminator 3 view .LVU315
 1428 0016 0133     		adds	r3, r3, #1
 1429              	.LVL134:
 1430              	.L71:
 362:Core/Src/Main/Mode.c **** 				{
 1431              		.loc 1 362 18 is_stmt 1 discriminator 1 view .LVU316
 362:Core/Src/Main/Mode.c **** 				{
 1432              		.loc 1 362 5 is_stmt 0 discriminator 1 view .LVU317
 1433 0018 102B     		cmp	r3, #16
 1434 001a F4DD     		ble	.L70
 1435              	.LBE9:
 360:Core/Src/Main/Mode.c **** 	for(int i=0; i < NUMBER_OF_SQUARES_X; i++)
 1436              		.loc 1 360 40 is_stmt 1 discriminator 2 view .LVU318
 360:Core/Src/Main/Mode.c **** 	for(int i=0; i < NUMBER_OF_SQUARES_X; i++)
 1437              		.loc 1 360 41 is_stmt 0 discriminator 2 view .LVU319
 1438 001c 0131     		adds	r1, r1, #1
 1439              	.LVL135:
 1440              	.L69:
 360:Core/Src/Main/Mode.c **** 	for(int i=0; i < NUMBER_OF_SQUARES_X; i++)
 1441              		.loc 1 360 15 is_stmt 1 discriminator 1 view .LVU320
 360:Core/Src/Main/Mode.c **** 	for(int i=0; i < NUMBER_OF_SQUARES_X; i++)
 1442              		.loc 1 360 2 is_stmt 0 discriminator 1 view .LVU321
 1443 001e 0F29     		cmp	r1, #15
 1444 0020 01DC     		bgt	.L78
 1445              	.LBB10:
 362:Core/Src/Main/Mode.c **** 				{
 1446              		.loc 1 362 13 view .LVU322
 1447 0022 0023     		movs	r3, #0
 1448 0024 F8E7     		b	.L71
 1449              	.L78:
 1450              	.LBE10:
 1451              	.LBE8:
 1452              	.LBB11:
 365:Core/Src/Main/Mode.c **** 				}
 366:Core/Src/Main/Mode.c **** 		}
 367:Core/Src/Main/Mode.c **** 		for(int i=0; i < NUMBER_OF_SQUARES_X+1; i++)
 1453              		.loc 1 367 11 view .LVU323
 1454 0026 4FF0000C 		mov	ip, #0
 1455 002a 0CE0     		b	.L72
ARM GAS  C:\Users\leopi\AppData\Local\Temp\cc3OmPOJ.s 			page 38


 1456              	.LVL136:
 1457              	.L73:
 1458              	.LBB12:
 368:Core/Src/Main/Mode.c **** 		{
 369:Core/Src/Main/Mode.c **** 				for(int j=0; j < NUMBER_OF_SQUARES_Y; j++)
 370:Core/Src/Main/Mode.c **** 				{
 371:Core/Src/Main/Mode.c **** 					my_map.ColumnNode[i][j].existence = WALL;
 1459              		.loc 1 371 6 is_stmt 1 discriminator 3 view .LVU324
 1460              		.loc 1 371 40 is_stmt 0 discriminator 3 view .LVU325
 1461 002c 03EB0C12 		add	r2, r3, ip, lsl #4
 1462 0030 02F58872 		add	r2, r2, #272
 1463 0034 0A49     		ldr	r1, .L80
 1464 0036 0120     		movs	r0, #1
 1465 0038 01F83200 		strb	r0, [r1, r2, lsl #3]
 369:Core/Src/Main/Mode.c **** 				{
 1466              		.loc 1 369 43 is_stmt 1 discriminator 3 view .LVU326
 369:Core/Src/Main/Mode.c **** 				{
 1467              		.loc 1 369 44 is_stmt 0 discriminator 3 view .LVU327
 1468 003c 0344     		add	r3, r3, r0
 1469              	.LVL137:
 1470              	.L74:
 369:Core/Src/Main/Mode.c **** 				{
 1471              		.loc 1 369 18 is_stmt 1 discriminator 1 view .LVU328
 369:Core/Src/Main/Mode.c **** 				{
 1472              		.loc 1 369 5 is_stmt 0 discriminator 1 view .LVU329
 1473 003e 0F2B     		cmp	r3, #15
 1474 0040 F4DD     		ble	.L73
 1475              	.LBE12:
 367:Core/Src/Main/Mode.c **** 		{
 1476              		.loc 1 367 43 is_stmt 1 discriminator 2 view .LVU330
 367:Core/Src/Main/Mode.c **** 		{
 1477              		.loc 1 367 44 is_stmt 0 discriminator 2 view .LVU331
 1478 0042 0CF1010C 		add	ip, ip, #1
 1479              	.LVL138:
 1480              	.L72:
 367:Core/Src/Main/Mode.c **** 		{
 1481              		.loc 1 367 16 is_stmt 1 discriminator 1 view .LVU332
 367:Core/Src/Main/Mode.c **** 		{
 1482              		.loc 1 367 3 is_stmt 0 discriminator 1 view .LVU333
 1483 0046 BCF1100F 		cmp	ip, #16
 1484 004a 01DC     		bgt	.L79
 1485              	.LBB13:
 369:Core/Src/Main/Mode.c **** 				{
 1486              		.loc 1 369 13 view .LVU334
 1487 004c 0023     		movs	r3, #0
 1488 004e F6E7     		b	.L74
 1489              	.L79:
 1490              	.LBE13:
 1491              	.LBE11:
 372:Core/Src/Main/Mode.c **** 				}
 373:Core/Src/Main/Mode.c **** 		}
 374:Core/Src/Main/Mode.c **** 		printAllNodeExistence(&my_map);
 1492              		.loc 1 374 3 is_stmt 1 view .LVU335
 1493 0050 034C     		ldr	r4, .L80
 1494 0052 2046     		mov	r0, r4
 1495 0054 FFF7FEFF 		bl	printAllNodeExistence
 1496              	.LVL139:
ARM GAS  C:\Users\leopi\AppData\Local\Temp\cc3OmPOJ.s 			page 39


 375:Core/Src/Main/Mode.c **** 		//ãƒ•ãƒ©ãƒƒã‚·ãƒ¥ã«æ›¸ãè¾¼ã‚€
 376:Core/Src/Main/Mode.c **** 		flashStoreNodes(&my_map);
 1497              		.loc 1 376 3 view .LVU336
 1498 0058 2046     		mov	r0, r4
 1499 005a FFF7FEFF 		bl	flashStoreNodes
 1500              	.LVL140:
 377:Core/Src/Main/Mode.c **** }
 1501              		.loc 1 377 1 is_stmt 0 view .LVU337
 1502 005e 10BD     		pop	{r4, pc}
 1503              	.L81:
 1504              		.align	2
 1505              	.L80:
 1506 0060 00000000 		.word	my_map
 1507              		.cfi_endproc
 1508              	.LFE246:
 1510              		.section	.text.FlashReadTest,"ax",%progbits
 1511              		.align	1
 1512              		.global	FlashReadTest
 1513              		.syntax unified
 1514              		.thumb
 1515              		.thumb_func
 1517              	FlashReadTest:
 1518              	.LFB247:
 378:Core/Src/Main/Mode.c **** void FlashReadTest()
 379:Core/Src/Main/Mode.c **** {
 1519              		.loc 1 379 1 is_stmt 1 view -0
 1520              		.cfi_startproc
 1521              		@ args = 0, pretend = 0, frame = 0
 1522              		@ frame_needed = 0, uses_anonymous_args = 0
 1523 0000 10B5     		push	{r4, lr}
 1524              	.LCFI20:
 1525              		.cfi_def_cfa_offset 8
 1526              		.cfi_offset 4, -8
 1527              		.cfi_offset 14, -4
 380:Core/Src/Main/Mode.c **** 	//ãƒ•ãƒ©ãƒƒã‚·ãƒ¥ã‚’èª­ã¿å‡ºã™
 381:Core/Src/Main/Mode.c **** 	flashCopyNodesToRam(&my_map);
 1528              		.loc 1 381 2 view .LVU339
 1529 0002 044C     		ldr	r4, .L84
 1530 0004 2046     		mov	r0, r4
 1531 0006 FFF7FEFF 		bl	flashCopyNodesToRam
 1532              	.LVL141:
 382:Core/Src/Main/Mode.c **** 	//åˆã£ã¦ã„ã‚‹ã‹ç¢ºèªã™ã‚‹
 383:Core/Src/Main/Mode.c **** 	printAllNodeExistence(&my_map);
 1533              		.loc 1 383 2 view .LVU340
 1534 000a 2046     		mov	r0, r4
 1535 000c FFF7FEFF 		bl	printAllNodeExistence
 1536              	.LVL142:
 384:Core/Src/Main/Mode.c **** }
 1537              		.loc 1 384 1 is_stmt 0 view .LVU341
 1538 0010 10BD     		pop	{r4, pc}
 1539              	.L85:
 1540 0012 00BF     		.align	2
 1541              	.L84:
 1542 0014 00000000 		.word	my_map
 1543              		.cfi_endproc
 1544              	.LFE247:
 1546              		.section	.text.Simu,"ax",%progbits
ARM GAS  C:\Users\leopi\AppData\Local\Temp\cc3OmPOJ.s 			page 40


 1547              		.align	1
 1548              		.global	Simu
 1549              		.syntax unified
 1550              		.thumb
 1551              		.thumb_func
 1553              	Simu:
 1554              	.LFB248:
 385:Core/Src/Main/Mode.c **** void Simu()
 386:Core/Src/Main/Mode.c **** {
 1555              		.loc 1 386 1 is_stmt 1 view -0
 1556              		.cfi_startproc
 1557              		@ args = 0, pretend = 0, frame = 0
 1558              		@ frame_needed = 0, uses_anonymous_args = 0
 1559 0000 10B5     		push	{r4, lr}
 1560              	.LCFI21:
 1561              		.cfi_def_cfa_offset 8
 1562              		.cfi_offset 4, -8
 1563              		.cfi_offset 14, -4
 387:Core/Src/Main/Mode.c **** 	//ãƒãƒƒãƒ—ã«ä»®ã§ãƒ‡ãƒ¼ã‚¿ã‚’å…¥ã‚Œã‚‹
 388:Core/Src/Main/Mode.c **** 	printAllNodeExistence(&my_map);
 1564              		.loc 1 388 2 view .LVU343
 1565 0002 3148     		ldr	r0, .L108
 1566 0004 FFF7FEFF 		bl	printAllNodeExistence
 1567              	.LVL143:
 389:Core/Src/Main/Mode.c **** 	for(int i=0; i < NUMBER_OF_SQUARES_X; i++)
 1568              		.loc 1 389 2 view .LVU344
 1569              	.LBB14:
 1570              		.loc 1 389 6 view .LVU345
 1571              		.loc 1 389 10 is_stmt 0 view .LVU346
 1572 0008 0021     		movs	r1, #0
 1573              		.loc 1 389 2 view .LVU347
 1574 000a 0BE0     		b	.L87
 1575              	.LVL144:
 1576              	.L88:
 1577              	.LBB15:
 390:Core/Src/Main/Mode.c **** 	{
 391:Core/Src/Main/Mode.c **** 			for(int j=0; j < NUMBER_OF_SQUARES_Y+1; j++)
 392:Core/Src/Main/Mode.c **** 			{
 393:Core/Src/Main/Mode.c **** 				my_map.RawNode[i][j].existence = 2;
 1578              		.loc 1 393 5 is_stmt 1 discriminator 3 view .LVU348
 1579              		.loc 1 393 36 is_stmt 0 discriminator 3 view .LVU349
 1580 000c 01EB0112 		add	r2, r1, r1, lsl #4
 1581 0010 1A44     		add	r2, r2, r3
 1582 0012 2D48     		ldr	r0, .L108
 1583 0014 4FF0020C 		mov	ip, #2
 1584 0018 00F832C0 		strb	ip, [r0, r2, lsl #3]
 391:Core/Src/Main/Mode.c **** 			{
 1585              		.loc 1 391 44 is_stmt 1 discriminator 3 view .LVU350
 391:Core/Src/Main/Mode.c **** 			{
 1586              		.loc 1 391 45 is_stmt 0 discriminator 3 view .LVU351
 1587 001c 0133     		adds	r3, r3, #1
 1588              	.LVL145:
 1589              	.L89:
 391:Core/Src/Main/Mode.c **** 			{
 1590              		.loc 1 391 17 is_stmt 1 discriminator 1 view .LVU352
 391:Core/Src/Main/Mode.c **** 			{
 1591              		.loc 1 391 4 is_stmt 0 discriminator 1 view .LVU353
ARM GAS  C:\Users\leopi\AppData\Local\Temp\cc3OmPOJ.s 			page 41


 1592 001e 102B     		cmp	r3, #16
 1593 0020 F4DD     		ble	.L88
 1594              	.LBE15:
 389:Core/Src/Main/Mode.c **** 	for(int i=0; i < NUMBER_OF_SQUARES_X; i++)
 1595              		.loc 1 389 40 is_stmt 1 discriminator 2 view .LVU354
 389:Core/Src/Main/Mode.c **** 	for(int i=0; i < NUMBER_OF_SQUARES_X; i++)
 1596              		.loc 1 389 41 is_stmt 0 discriminator 2 view .LVU355
 1597 0022 0131     		adds	r1, r1, #1
 1598              	.LVL146:
 1599              	.L87:
 389:Core/Src/Main/Mode.c **** 	for(int i=0; i < NUMBER_OF_SQUARES_X; i++)
 1600              		.loc 1 389 15 is_stmt 1 discriminator 1 view .LVU356
 389:Core/Src/Main/Mode.c **** 	for(int i=0; i < NUMBER_OF_SQUARES_X; i++)
 1601              		.loc 1 389 2 is_stmt 0 discriminator 1 view .LVU357
 1602 0024 0F29     		cmp	r1, #15
 1603 0026 01DC     		bgt	.L104
 1604              	.LBB16:
 391:Core/Src/Main/Mode.c **** 			{
 1605              		.loc 1 391 12 view .LVU358
 1606 0028 0023     		movs	r3, #0
 1607 002a F8E7     		b	.L89
 1608              	.L104:
 1609              	.LBE16:
 1610              	.LBE14:
 1611              	.LBB17:
 394:Core/Src/Main/Mode.c **** 			}
 395:Core/Src/Main/Mode.c **** 	}
 396:Core/Src/Main/Mode.c **** 	for(int i=0; i < NUMBER_OF_SQUARES_X+1; i++)
 1612              		.loc 1 396 10 view .LVU359
 1613 002c 4FF0000C 		mov	ip, #0
 1614 0030 0CE0     		b	.L90
 1615              	.LVL147:
 1616              	.L91:
 1617              	.LBB18:
 397:Core/Src/Main/Mode.c **** 	{
 398:Core/Src/Main/Mode.c **** 			for(int j=0; j < NUMBER_OF_SQUARES_Y; j++)
 399:Core/Src/Main/Mode.c **** 			{
 400:Core/Src/Main/Mode.c **** 				my_map.ColumnNode[i][j].existence = 3;
 1618              		.loc 1 400 5 is_stmt 1 discriminator 3 view .LVU360
 1619              		.loc 1 400 39 is_stmt 0 discriminator 3 view .LVU361
 1620 0032 03EB0C12 		add	r2, r3, ip, lsl #4
 1621 0036 02F58872 		add	r2, r2, #272
 1622 003a 2349     		ldr	r1, .L108
 1623 003c 0320     		movs	r0, #3
 1624 003e 01F83200 		strb	r0, [r1, r2, lsl #3]
 398:Core/Src/Main/Mode.c **** 			{
 1625              		.loc 1 398 42 is_stmt 1 discriminator 3 view .LVU362
 398:Core/Src/Main/Mode.c **** 			{
 1626              		.loc 1 398 43 is_stmt 0 discriminator 3 view .LVU363
 1627 0042 0133     		adds	r3, r3, #1
 1628              	.LVL148:
 1629              	.L92:
 398:Core/Src/Main/Mode.c **** 			{
 1630              		.loc 1 398 17 is_stmt 1 discriminator 1 view .LVU364
 398:Core/Src/Main/Mode.c **** 			{
 1631              		.loc 1 398 4 is_stmt 0 discriminator 1 view .LVU365
 1632 0044 0F2B     		cmp	r3, #15
ARM GAS  C:\Users\leopi\AppData\Local\Temp\cc3OmPOJ.s 			page 42


 1633 0046 F4DD     		ble	.L91
 1634              	.LBE18:
 396:Core/Src/Main/Mode.c **** 	{
 1635              		.loc 1 396 42 is_stmt 1 discriminator 2 view .LVU366
 396:Core/Src/Main/Mode.c **** 	{
 1636              		.loc 1 396 43 is_stmt 0 discriminator 2 view .LVU367
 1637 0048 0CF1010C 		add	ip, ip, #1
 1638              	.LVL149:
 1639              	.L90:
 396:Core/Src/Main/Mode.c **** 	{
 1640              		.loc 1 396 15 is_stmt 1 discriminator 1 view .LVU368
 396:Core/Src/Main/Mode.c **** 	{
 1641              		.loc 1 396 2 is_stmt 0 discriminator 1 view .LVU369
 1642 004c BCF1100F 		cmp	ip, #16
 1643 0050 01DC     		bgt	.L105
 1644              	.LBB19:
 398:Core/Src/Main/Mode.c **** 			{
 1645              		.loc 1 398 12 view .LVU370
 1646 0052 0023     		movs	r3, #0
 1647 0054 F6E7     		b	.L92
 1648              	.L105:
 1649              	.LBE19:
 1650              	.LBE17:
 401:Core/Src/Main/Mode.c **** 			}
 402:Core/Src/Main/Mode.c **** 	}
 403:Core/Src/Main/Mode.c **** 	printAllNodeExistence(&my_map);
 1651              		.loc 1 403 2 is_stmt 1 view .LVU371
 1652 0056 1C4C     		ldr	r4, .L108
 1653 0058 2046     		mov	r0, r4
 1654 005a FFF7FEFF 		bl	printAllNodeExistence
 1655              	.LVL150:
 404:Core/Src/Main/Mode.c **** 	//ãƒ•ãƒ©ãƒƒã‚·ãƒ¥ã«æ›¸ãè¾¼ã‚€
 405:Core/Src/Main/Mode.c **** 	flashStoreNodes(&my_map);
 1656              		.loc 1 405 2 view .LVU372
 1657 005e 2046     		mov	r0, r4
 1658 0060 FFF7FEFF 		bl	flashStoreNodes
 1659              	.LVL151:
 406:Core/Src/Main/Mode.c **** 
 407:Core/Src/Main/Mode.c **** 	//ramã‚’ãƒªã‚»ãƒƒãƒˆ
 408:Core/Src/Main/Mode.c **** 	for(int i=0; i < NUMBER_OF_SQUARES_X; i++)
 1660              		.loc 1 408 2 view .LVU373
 1661              	.LBB20:
 1662              		.loc 1 408 6 view .LVU374
 1663              		.loc 1 408 10 is_stmt 0 view .LVU375
 1664 0064 0021     		movs	r1, #0
 1665              		.loc 1 408 2 view .LVU376
 1666 0066 0BE0     		b	.L93
 1667              	.LVL152:
 1668              	.L94:
 1669              	.LBB21:
 409:Core/Src/Main/Mode.c **** 		{
 410:Core/Src/Main/Mode.c **** 				for(int j=0; j < NUMBER_OF_SQUARES_Y+1; j++)
 411:Core/Src/Main/Mode.c **** 				{
 412:Core/Src/Main/Mode.c **** 					my_map.RawNode[i][j].existence = 0;
 1670              		.loc 1 412 6 is_stmt 1 discriminator 3 view .LVU377
 1671              		.loc 1 412 37 is_stmt 0 discriminator 3 view .LVU378
 1672 0068 01EB0112 		add	r2, r1, r1, lsl #4
ARM GAS  C:\Users\leopi\AppData\Local\Temp\cc3OmPOJ.s 			page 43


 1673 006c 1A44     		add	r2, r2, r3
 1674 006e 1648     		ldr	r0, .L108
 1675 0070 4FF0000C 		mov	ip, #0
 1676 0074 00F832C0 		strb	ip, [r0, r2, lsl #3]
 410:Core/Src/Main/Mode.c **** 				{
 1677              		.loc 1 410 45 is_stmt 1 discriminator 3 view .LVU379
 410:Core/Src/Main/Mode.c **** 				{
 1678              		.loc 1 410 46 is_stmt 0 discriminator 3 view .LVU380
 1679 0078 0133     		adds	r3, r3, #1
 1680              	.LVL153:
 1681              	.L95:
 410:Core/Src/Main/Mode.c **** 				{
 1682              		.loc 1 410 18 is_stmt 1 discriminator 1 view .LVU381
 410:Core/Src/Main/Mode.c **** 				{
 1683              		.loc 1 410 5 is_stmt 0 discriminator 1 view .LVU382
 1684 007a 102B     		cmp	r3, #16
 1685 007c F4DD     		ble	.L94
 1686              	.LBE21:
 408:Core/Src/Main/Mode.c **** 		{
 1687              		.loc 1 408 40 is_stmt 1 discriminator 2 view .LVU383
 408:Core/Src/Main/Mode.c **** 		{
 1688              		.loc 1 408 41 is_stmt 0 discriminator 2 view .LVU384
 1689 007e 0131     		adds	r1, r1, #1
 1690              	.LVL154:
 1691              	.L93:
 408:Core/Src/Main/Mode.c **** 		{
 1692              		.loc 1 408 15 is_stmt 1 discriminator 1 view .LVU385
 408:Core/Src/Main/Mode.c **** 		{
 1693              		.loc 1 408 2 is_stmt 0 discriminator 1 view .LVU386
 1694 0080 0F29     		cmp	r1, #15
 1695 0082 01DC     		bgt	.L106
 1696              	.LBB22:
 410:Core/Src/Main/Mode.c **** 				{
 1697              		.loc 1 410 13 view .LVU387
 1698 0084 0023     		movs	r3, #0
 1699 0086 F8E7     		b	.L95
 1700              	.L106:
 1701              	.LBE22:
 1702              	.LBE20:
 1703              	.LBB23:
 413:Core/Src/Main/Mode.c **** 				}
 414:Core/Src/Main/Mode.c **** 		}
 415:Core/Src/Main/Mode.c **** 		for(int i=0; i < NUMBER_OF_SQUARES_X+1; i++)
 1704              		.loc 1 415 11 view .LVU388
 1705 0088 4FF0000C 		mov	ip, #0
 1706 008c 0CE0     		b	.L96
 1707              	.LVL155:
 1708              	.L97:
 1709              	.LBB24:
 416:Core/Src/Main/Mode.c **** 		{
 417:Core/Src/Main/Mode.c **** 				for(int j=0; j < NUMBER_OF_SQUARES_Y; j++)
 418:Core/Src/Main/Mode.c **** 				{
 419:Core/Src/Main/Mode.c **** 					my_map.ColumnNode[i][j].existence = 0;
 1710              		.loc 1 419 6 is_stmt 1 discriminator 3 view .LVU389
 1711              		.loc 1 419 40 is_stmt 0 discriminator 3 view .LVU390
 1712 008e 03EB0C12 		add	r2, r3, ip, lsl #4
 1713 0092 02F58872 		add	r2, r2, #272
ARM GAS  C:\Users\leopi\AppData\Local\Temp\cc3OmPOJ.s 			page 44


 1714 0096 0C49     		ldr	r1, .L108
 1715 0098 0020     		movs	r0, #0
 1716 009a 01F83200 		strb	r0, [r1, r2, lsl #3]
 417:Core/Src/Main/Mode.c **** 				{
 1717              		.loc 1 417 43 is_stmt 1 discriminator 3 view .LVU391
 417:Core/Src/Main/Mode.c **** 				{
 1718              		.loc 1 417 44 is_stmt 0 discriminator 3 view .LVU392
 1719 009e 0133     		adds	r3, r3, #1
 1720              	.LVL156:
 1721              	.L98:
 417:Core/Src/Main/Mode.c **** 				{
 1722              		.loc 1 417 18 is_stmt 1 discriminator 1 view .LVU393
 417:Core/Src/Main/Mode.c **** 				{
 1723              		.loc 1 417 5 is_stmt 0 discriminator 1 view .LVU394
 1724 00a0 0F2B     		cmp	r3, #15
 1725 00a2 F4DD     		ble	.L97
 1726              	.LBE24:
 415:Core/Src/Main/Mode.c **** 		{
 1727              		.loc 1 415 43 is_stmt 1 discriminator 2 view .LVU395
 415:Core/Src/Main/Mode.c **** 		{
 1728              		.loc 1 415 44 is_stmt 0 discriminator 2 view .LVU396
 1729 00a4 0CF1010C 		add	ip, ip, #1
 1730              	.LVL157:
 1731              	.L96:
 415:Core/Src/Main/Mode.c **** 		{
 1732              		.loc 1 415 16 is_stmt 1 discriminator 1 view .LVU397
 415:Core/Src/Main/Mode.c **** 		{
 1733              		.loc 1 415 3 is_stmt 0 discriminator 1 view .LVU398
 1734 00a8 BCF1100F 		cmp	ip, #16
 1735 00ac 01DC     		bgt	.L107
 1736              	.LBB25:
 417:Core/Src/Main/Mode.c **** 				{
 1737              		.loc 1 417 13 view .LVU399
 1738 00ae 0023     		movs	r3, #0
 1739 00b0 F6E7     		b	.L98
 1740              	.L107:
 1741              	.LBE25:
 1742              	.LBE23:
 420:Core/Src/Main/Mode.c **** 				}
 421:Core/Src/Main/Mode.c **** 		}
 422:Core/Src/Main/Mode.c **** 		printAllNodeExistence(&my_map);
 1743              		.loc 1 422 3 is_stmt 1 view .LVU400
 1744 00b2 054C     		ldr	r4, .L108
 1745 00b4 2046     		mov	r0, r4
 1746 00b6 FFF7FEFF 		bl	printAllNodeExistence
 1747              	.LVL158:
 423:Core/Src/Main/Mode.c **** 	//ãƒ•ãƒ©ãƒƒã‚·ãƒ¥ã‚’èª­ã¿å‡ºã™
 424:Core/Src/Main/Mode.c **** 	flashCopyNodesToRam(&my_map);
 1748              		.loc 1 424 2 view .LVU401
 1749 00ba 2046     		mov	r0, r4
 1750 00bc FFF7FEFF 		bl	flashCopyNodesToRam
 1751              	.LVL159:
 425:Core/Src/Main/Mode.c **** 	//åˆã£ã¦ã„ã‚‹ã‹ç¢ºèªã™ã‚‹
 426:Core/Src/Main/Mode.c **** 	printAllNodeExistence(&my_map);
 1752              		.loc 1 426 2 view .LVU402
 1753 00c0 2046     		mov	r0, r4
 1754 00c2 FFF7FEFF 		bl	printAllNodeExistence
ARM GAS  C:\Users\leopi\AppData\Local\Temp\cc3OmPOJ.s 			page 45


 1755              	.LVL160:
 427:Core/Src/Main/Mode.c **** }
 1756              		.loc 1 427 1 is_stmt 0 view .LVU403
 1757 00c6 10BD     		pop	{r4, pc}
 1758              	.L109:
 1759              		.align	2
 1760              	.L108:
 1761 00c8 00000000 		.word	my_map
 1762              		.cfi_endproc
 1763              	.LFE248:
 1765              		.section	.rodata.TestIMU.str1.4,"aMS",%progbits,1
 1766              		.align	2
 1767              	.LC12:
 1768 0000 696D755F 		.ascii	"imu_check 1\343\201\252\343\202\211OK: %d\015\012\000"
 1768      63686563 
 1768      6B2031E3 
 1768      81AAE382 
 1768      894F4B3A 
 1769 001a 0000     		.align	2
 1770              	.LC13:
 1771 001c 6779726F 		.ascii	"gyro : %f\015\012\000"
 1771      203A2025 
 1771      660D0A00 
 1772              		.align	2
 1773              	.LC14:
 1774 0028 74696D65 		.ascii	"timer1 : %d, \350\247\222\345\272\246 : %f\015\012\000"
 1774      7231203A 
 1774      2025642C 
 1774      20E8A792 
 1774      E5BAA620 
 1775 0043 00       		.align	2
 1776              	.LC15:
 1777 0044 0D00     		.ascii	"\015\000"
 1778              		.section	.text.TestIMU,"ax",%progbits
 1779              		.align	1
 1780              		.global	TestIMU
 1781              		.syntax unified
 1782              		.thumb
 1783              		.thumb_func
 1785              	TestIMU:
 1786              	.LFB249:
 428:Core/Src/Main/Mode.c **** 
 429:Core/Src/Main/Mode.c **** void TestIMU()
 430:Core/Src/Main/Mode.c **** {
 1787              		.loc 1 430 1 is_stmt 1 view -0
 1788              		.cfi_startproc
 1789              		@ args = 0, pretend = 0, frame = 0
 1790              		@ frame_needed = 0, uses_anonymous_args = 0
 1791 0000 10B5     		push	{r4, lr}
 1792              	.LCFI22:
 1793              		.cfi_def_cfa_offset 8
 1794              		.cfi_offset 4, -8
 1795              		.cfi_offset 14, -4
 431:Core/Src/Main/Mode.c **** 	IT_mode = IMU_TEST;
 1796              		.loc 1 431 2 view .LVU405
 1797              		.loc 1 431 10 is_stmt 0 view .LVU406
 1798 0002 244B     		ldr	r3, .L115
ARM GAS  C:\Users\leopi\AppData\Local\Temp\cc3OmPOJ.s 			page 46


 1799 0004 0522     		movs	r2, #5
 1800 0006 1A60     		str	r2, [r3]
 432:Core/Src/Main/Mode.c **** 
 433:Core/Src/Main/Mode.c **** 	uint8_t imu_check;
 1801              		.loc 1 433 2 is_stmt 1 view .LVU407
 434:Core/Src/Main/Mode.c **** 		imu_check = IMU_init();
 1802              		.loc 1 434 3 view .LVU408
 1803              		.loc 1 434 15 is_stmt 0 view .LVU409
 1804 0008 FFF7FEFF 		bl	IMU_init
 1805              	.LVL161:
 1806 000c 0146     		mov	r1, r0
 1807              	.LVL162:
 435:Core/Src/Main/Mode.c **** 		printf("imu_check 1ãªã‚‰OK: %d\r\n",imu_check);
 1808              		.loc 1 435 3 is_stmt 1 view .LVU410
 1809 000e 224C     		ldr	r4, .L115+4
 1810 0010 2046     		mov	r0, r4
 1811 0012 FFF7FEFF 		bl	printf
 1812              	.LVL163:
 436:Core/Src/Main/Mode.c **** 	#if 1 //IMUã‹ã‚‰å€¤ãŒæ¥ãªããªã‚‹ç¾è±¡ã®å¯¾ç­–
 437:Core/Src/Main/Mode.c **** 		imu_check =IMU_init();
 1813              		.loc 1 437 3 view .LVU411
 1814              		.loc 1 437 14 is_stmt 0 view .LVU412
 1815 0016 FFF7FEFF 		bl	IMU_init
 1816              	.LVL164:
 1817 001a 0146     		mov	r1, r0
 1818              	.LVL165:
 438:Core/Src/Main/Mode.c **** 		printf("imu_check 1ãªã‚‰OK: %d\r\n",imu_check);
 1819              		.loc 1 438 3 is_stmt 1 view .LVU413
 1820 001c 2046     		mov	r0, r4
 1821 001e FFF7FEFF 		bl	printf
 1822              	.LVL166:
 439:Core/Src/Main/Mode.c **** 	#endif
 440:Core/Src/Main/Mode.c **** 		HAL_Delay(100);
 1823              		.loc 1 440 3 view .LVU414
 1824 0022 6420     		movs	r0, #100
 1825 0024 FFF7FEFF 		bl	HAL_Delay
 1826              	.LVL167:
 441:Core/Src/Main/Mode.c **** 
 442:Core/Src/Main/Mode.c **** 		ZGyro = ReadIMU(0x37, 0x38);
 1827              		.loc 1 442 3 view .LVU415
 1828              		.loc 1 442 11 is_stmt 0 view .LVU416
 1829 0028 3821     		movs	r1, #56
 1830 002a 3720     		movs	r0, #55
 1831 002c FFF7FEFF 		bl	ReadIMU
 1832              	.LVL168:
 1833              		.loc 1 442 9 view .LVU417
 1834 0030 1A4B     		ldr	r3, .L115+8
 1835 0032 83ED000A 		vstr.32	s0, [r3]
 443:Core/Src/Main/Mode.c **** 		printf("gyro : %f\r\n",ZGyro);
 1836              		.loc 1 443 3 is_stmt 1 view .LVU418
 1837 0036 1868     		ldr	r0, [r3]	@ float
 1838 0038 FFF7FEFF 		bl	__aeabi_f2d
 1839              	.LVL169:
 1840 003c 0246     		mov	r2, r0
 1841 003e 0B46     		mov	r3, r1
 1842 0040 1748     		ldr	r0, .L115+12
 1843 0042 FFF7FEFF 		bl	printf
ARM GAS  C:\Users\leopi\AppData\Local\Temp\cc3OmPOJ.s 			page 47


 1844              	.LVL170:
 444:Core/Src/Main/Mode.c **** 		timer1 = 0;
 1845              		.loc 1 444 3 view .LVU419
 1846              		.loc 1 444 10 is_stmt 0 view .LVU420
 1847 0046 0024     		movs	r4, #0
 1848 0048 164B     		ldr	r3, .L115+16
 1849 004a 1C60     		str	r4, [r3]
 445:Core/Src/Main/Mode.c **** 		t = 1;
 1850              		.loc 1 445 3 is_stmt 1 view .LVU421
 1851              		.loc 1 445 5 is_stmt 0 view .LVU422
 1852 004c 164B     		ldr	r3, .L115+20
 1853 004e 0122     		movs	r2, #1
 1854 0050 1A60     		str	r2, [r3]
 446:Core/Src/Main/Mode.c **** 		//å‰²ã‚Šè¾¼ã¿ã‚’æœ‰åŠ¹åŒ–
 447:Core/Src/Main/Mode.c **** 
 448:Core/Src/Main/Mode.c **** 		printf("timer1 : %d, è§’åº¦ : %f\r\n",timer1, Angle);
 1855              		.loc 1 448 3 is_stmt 1 view .LVU423
 1856 0052 164B     		ldr	r3, .L115+24
 1857 0054 1868     		ldr	r0, [r3]	@ float
 1858 0056 FFF7FEFF 		bl	__aeabi_f2d
 1859              	.LVL171:
 1860 005a 0246     		mov	r2, r0
 1861 005c 0B46     		mov	r3, r1
 1862 005e 2146     		mov	r1, r4
 1863 0060 1348     		ldr	r0, .L115+28
 1864 0062 FFF7FEFF 		bl	printf
 1865              	.LVL172:
 449:Core/Src/Main/Mode.c **** 		HAL_TIM_Base_Start_IT(&htim1);
 1866              		.loc 1 449 3 view .LVU424
 1867 0066 1348     		ldr	r0, .L115+32
 1868 0068 FFF7FEFF 		bl	HAL_TIM_Base_Start_IT
 1869              	.LVL173:
 450:Core/Src/Main/Mode.c **** 		while(t == 1) //10s
 1870              		.loc 1 450 3 view .LVU425
 1871              		.loc 1 450 8 is_stmt 0 view .LVU426
 1872 006c 02E0     		b	.L111
 1873              	.L112:
 451:Core/Src/Main/Mode.c **** 		{
 452:Core/Src/Main/Mode.c **** 			printf("\r\n");
 1874              		.loc 1 452 4 is_stmt 1 view .LVU427
 1875 006e 1248     		ldr	r0, .L115+36
 1876 0070 FFF7FEFF 		bl	puts
 1877              	.LVL174:
 1878              	.L111:
 450:Core/Src/Main/Mode.c **** 		while(t == 1) //10s
 1879              		.loc 1 450 8 view .LVU428
 450:Core/Src/Main/Mode.c **** 		while(t == 1) //10s
 1880              		.loc 1 450 11 is_stmt 0 view .LVU429
 1881 0074 0C4B     		ldr	r3, .L115+20
 1882 0076 1B68     		ldr	r3, [r3]
 450:Core/Src/Main/Mode.c **** 		while(t == 1) //10s
 1883              		.loc 1 450 8 view .LVU430
 1884 0078 012B     		cmp	r3, #1
 1885 007a F8D0     		beq	.L112
 453:Core/Src/Main/Mode.c **** 		}
 454:Core/Src/Main/Mode.c **** 
 455:Core/Src/Main/Mode.c **** 		t = 0;
ARM GAS  C:\Users\leopi\AppData\Local\Temp\cc3OmPOJ.s 			page 48


 1886              		.loc 1 455 3 is_stmt 1 view .LVU431
 1887              		.loc 1 455 5 is_stmt 0 view .LVU432
 1888 007c 0A4B     		ldr	r3, .L115+20
 1889 007e 0022     		movs	r2, #0
 1890 0080 1A60     		str	r2, [r3]
 456:Core/Src/Main/Mode.c **** 		HAL_TIM_Base_Stop_IT(&htim1);
 1891              		.loc 1 456 3 is_stmt 1 view .LVU433
 1892 0082 0C48     		ldr	r0, .L115+32
 1893 0084 FFF7FEFF 		bl	HAL_TIM_Base_Stop_IT
 1894              	.LVL175:
 457:Core/Src/Main/Mode.c **** 		HAL_Delay(1000);
 1895              		.loc 1 457 3 view .LVU434
 1896 0088 4FF47A70 		mov	r0, #1000
 1897 008c FFF7FEFF 		bl	HAL_Delay
 1898              	.LVL176:
 458:Core/Src/Main/Mode.c **** 			for(int i=0; i < 5000; i++) //0.007495 / 5000;
 1899              		.loc 1 458 4 view .LVU435
 1900              	.LBB26:
 1901              		.loc 1 458 8 view .LVU436
 1902              		.loc 1 458 17 view .LVU437
 1903              	.L113:
 459:Core/Src/Main/Mode.c **** //				printf("%d, %f\r\n",i, debugVL[i]); //-0.001331
 460:Core/Src/Main/Mode.c **** 			while(1)
 1904              		.loc 1 460 4 discriminator 1 view .LVU438
 461:Core/Src/Main/Mode.c **** 			{
 462:Core/Src/Main/Mode.c **** 			}
 1905              		.loc 1 462 4 discriminator 1 view .LVU439
 460:Core/Src/Main/Mode.c **** 			{
 1906              		.loc 1 460 9 discriminator 1 view .LVU440
 1907 0090 FEE7     		b	.L113
 1908              	.L116:
 1909 0092 00BF     		.align	2
 1910              	.L115:
 1911 0094 00000000 		.word	IT_mode
 1912 0098 00000000 		.word	.LC12
 1913 009c 00000000 		.word	ZGyro
 1914 00a0 1C000000 		.word	.LC13
 1915 00a4 00000000 		.word	timer1
 1916 00a8 00000000 		.word	t
 1917 00ac 00000000 		.word	Angle
 1918 00b0 28000000 		.word	.LC14
 1919 00b4 00000000 		.word	htim1
 1920 00b8 44000000 		.word	.LC15
 1921              	.LBE26:
 1922              		.cfi_endproc
 1923              	.LFE249:
 1925              		.text
 1926              	.Letext0:
 1927              		.file 2 "c:\\tools\\gcc-arm-none-eabi-10_2021.10\\arm-none-eabi\\include\\machine\\_default_types.
 1928              		.file 3 "c:\\tools\\gcc-arm-none-eabi-10_2021.10\\arm-none-eabi\\include\\sys\\_stdint.h"
 1929              		.file 4 "Drivers/CMSIS/Device/ST/STM32F4xx/Include/stm32f405xx.h"
 1930              		.file 5 "Drivers/STM32F4xx_HAL_Driver/Inc/stm32f4xx_hal_def.h"
 1931              		.file 6 "Drivers/STM32F4xx_HAL_Driver/Inc/stm32f4xx_hal_dma.h"
 1932              		.file 7 "Drivers/STM32F4xx_HAL_Driver/Inc/stm32f4xx_hal_tim.h"
 1933              		.file 8 "Core/Inc/Main/MicroMouse.h"
 1934              		.file 9 "Core/Inc/HardWare/ICM_20648.h"
 1935              		.file 10 "Core/Inc/Tools/Sampling.h"
ARM GAS  C:\Users\leopi\AppData\Local\Temp\cc3OmPOJ.s 			page 49


 1936              		.file 11 "Core/Inc/Main/Interrupt.h"
 1937              		.file 12 "/Users/leopi/Documents/vs/S-Reo/MazeLibrary/MazeLib.h"
 1938              		.file 13 "/Users/leopi/Documents/vs/S-Reo/MazeLibrary/Searching.h"
 1939              		.file 14 "/Users/leopi/Documents/vs/S-Reo/MazeLibrary/dfs.h"
 1940              		.file 15 "Core/Inc/Main/Running.h"
 1941              		.file 16 "c:\\tools\\gcc-arm-none-eabi-10_2021.10\\arm-none-eabi\\include\\stdio.h"
 1942              		.file 17 "Drivers/STM32F4xx_HAL_Driver/Inc/stm32f4xx_hal.h"
 1943              		.file 18 "Core/Inc/Main/Record.h"
 1944              		.file 19 "Core/Inc/Main/Action.h"
 1945              		.file 20 "Core/Inc/Tools/PID_Control.h"
 1946              		.file 21 "Core/Inc/HardWare/Flash.h"
 1947              		.file 22 "Core/Inc/Tools/UI.h"
 1948              		.file 23 "Core/Inc/HardWare/LED_Driver.h"
 1949              		.file 24 "Core/Inc/Tools/Debug.h"
 1950              		.file 25 "<built-in>"
 1951              		.file 26 "Core/Inc/HardWare/IEH2_4096.h"
 1952              		.file 27 "Core/Inc/HardWare/Motor_Driver.h"
ARM GAS  C:\Users\leopi\AppData\Local\Temp\cc3OmPOJ.s 			page 50


DEFINED SYMBOLS
                            *ABS*:00000000 Mode.c
C:\Users\leopi\AppData\Local\Temp\cc3OmPOJ.s:20     .text.loggingMotorVelocityValue:00000000 $t
C:\Users\leopi\AppData\Local\Temp\cc3OmPOJ.s:25     .text.loggingMotorVelocityValue:00000000 loggingMotorVelocityValue
C:\Users\leopi\AppData\Local\Temp\cc3OmPOJ.s:174    .text.loggingMotorVelocityValue:000000b4 $d
C:\Users\leopi\AppData\Local\Temp\cc3OmPOJ.s:183    .text.restart:00000000 $t
C:\Users\leopi\AppData\Local\Temp\cc3OmPOJ.s:188    .text.restart:00000000 restart
C:\Users\leopi\AppData\Local\Temp\cc3OmPOJ.s:265    .text.restart:00000058 $d
C:\Users\leopi\AppData\Local\Temp\cc3OmPOJ.s:475    .text.restart:000001b4 $d
C:\Users\leopi\AppData\Local\Temp\cc3OmPOJ.s:498    .text.Debug:00000000 $t
C:\Users\leopi\AppData\Local\Temp\cc3OmPOJ.s:504    .text.Debug:00000000 Debug
C:\Users\leopi\AppData\Local\Temp\cc3OmPOJ.s:576    .text.Debug:00000058 $d
C:\Users\leopi\AppData\Local\Temp\cc3OmPOJ.s:582    .text.ParameterSetting:00000000 $t
C:\Users\leopi\AppData\Local\Temp\cc3OmPOJ.s:588    .text.ParameterSetting:00000000 ParameterSetting
C:\Users\leopi\AppData\Local\Temp\cc3OmPOJ.s:611    .rodata.GainSetting.str1.4:00000000 $d
C:\Users\leopi\AppData\Local\Temp\cc3OmPOJ.s:666    .text.GainSetting:00000000 $t
C:\Users\leopi\AppData\Local\Temp\cc3OmPOJ.s:672    .text.GainSetting:00000000 GainSetting
C:\Users\leopi\AppData\Local\Temp\cc3OmPOJ.s:883    .text.GainSetting:000000dc $d
C:\Users\leopi\AppData\Local\Temp\cc3OmPOJ.s:898    .rodata.GainTest.str1.4:00000000 $d
C:\Users\leopi\AppData\Local\Temp\cc3OmPOJ.s:904    .text.GainTest:00000000 $t
C:\Users\leopi\AppData\Local\Temp\cc3OmPOJ.s:910    .text.GainTest:00000000 GainTest
C:\Users\leopi\AppData\Local\Temp\cc3OmPOJ.s:1037   .text.GainTest:000000b8 $d
C:\Users\leopi\AppData\Local\Temp\cc3OmPOJ.s:1048   .rodata.WritingFree.str1.4:00000000 $d
C:\Users\leopi\AppData\Local\Temp\cc3OmPOJ.s:1052   .text.WritingFree:00000000 $t
C:\Users\leopi\AppData\Local\Temp\cc3OmPOJ.s:1058   .text.WritingFree:00000000 WritingFree
C:\Users\leopi\AppData\Local\Temp\cc3OmPOJ.s:1213   .text.WritingFree:000000c8 $d
C:\Users\leopi\AppData\Local\Temp\cc3OmPOJ.s:1226   .text.DFS_Running:00000000 $t
C:\Users\leopi\AppData\Local\Temp\cc3OmPOJ.s:1232   .text.DFS_Running:00000000 DFS_Running
C:\Users\leopi\AppData\Local\Temp\cc3OmPOJ.s:1376   .text.DFS_Running:000000ac $d
C:\Users\leopi\AppData\Local\Temp\cc3OmPOJ.s:1391   .text.FlashWriteTest:00000000 $t
C:\Users\leopi\AppData\Local\Temp\cc3OmPOJ.s:1397   .text.FlashWriteTest:00000000 FlashWriteTest
C:\Users\leopi\AppData\Local\Temp\cc3OmPOJ.s:1506   .text.FlashWriteTest:00000060 $d
C:\Users\leopi\AppData\Local\Temp\cc3OmPOJ.s:1511   .text.FlashReadTest:00000000 $t
C:\Users\leopi\AppData\Local\Temp\cc3OmPOJ.s:1517   .text.FlashReadTest:00000000 FlashReadTest
C:\Users\leopi\AppData\Local\Temp\cc3OmPOJ.s:1542   .text.FlashReadTest:00000014 $d
C:\Users\leopi\AppData\Local\Temp\cc3OmPOJ.s:1547   .text.Simu:00000000 $t
C:\Users\leopi\AppData\Local\Temp\cc3OmPOJ.s:1553   .text.Simu:00000000 Simu
C:\Users\leopi\AppData\Local\Temp\cc3OmPOJ.s:1761   .text.Simu:000000c8 $d
C:\Users\leopi\AppData\Local\Temp\cc3OmPOJ.s:1766   .rodata.TestIMU.str1.4:00000000 $d
C:\Users\leopi\AppData\Local\Temp\cc3OmPOJ.s:1779   .text.TestIMU:00000000 $t
C:\Users\leopi\AppData\Local\Temp\cc3OmPOJ.s:1785   .text.TestIMU:00000000 TestIMU
C:\Users\leopi\AppData\Local\Temp\cc3OmPOJ.s:1911   .text.TestIMU:00000094 $d
C:\Users\leopi\AppData\Local\Temp\cc3OmPOJ.s:272    .text.restart:0000005f $d
C:\Users\leopi\AppData\Local\Temp\cc3OmPOJ.s:272    .text.restart:00000060 $t

UNDEFINED SYMBOLS
memset
initFloatLog
MouseResetParameters
MousePIDFlagAll
MousePIDResetAll
EncoderStart
Motor_PWM_Start
PIDChangeFlag
HAL_TIM_Base_Start_IT
Signal
setLoggerFlag
ARM GAS  C:\Users\leopi\AppData\Local\Temp\cc3OmPOJ.s 			page 51


getLoggerFlag
Motor_PWM_Stop
EncoderStop
HAL_TIM_Base_Stop_IT
HAL_Delay
printFloatLog
TargetVelocity
VelocityRightOut
VelocityLeftOut
IT_mode
htim1
updateAllNodeWeight
getNextNode
getNextState
Accel
ChangeLED
Rotate
TurnRight
GoStraight
TurnLeft
Acceleration
TargetAngularV
TargetAngle
Angle
WALL_MASK
my_mouse
my_map
AddVelocity
SearchOrFast
Calc
ExploreVelocity
ModeSelect
printPhotoSampleValue
log_velocity
Load_Gain
Change_Gain
puts
__aeabi_f2d
MouseInit
printf
Photo
FastStraight
dbc
debugVL
debugVR
InitStackNum
StackMass
GetStackNum
SetStackNum
getNextDirection
Decel
WaitStopAndReset
shiftState
VisitedMass
Flash_clear_sector1
flashStoreNodes
VelocityMax
ARM GAS  C:\Users\leopi\AppData\Local\Temp\cc3OmPOJ.s 			page 52


goal_edge_num
mass_stack
printAllNodeExistence
flashCopyNodesToRam
IMU_init
ReadIMU
ZGyro
timer1
t
