ARM GAS  C:\Users\leopi\AppData\Local\Temp\ccwr4j0m.s 			page 1


   1              		.cpu cortex-m4
   2              		.arch armv7e-m
   3              		.fpu fpv4-sp-d16
   4              		.eabi_attribute 27, 1
   5              		.eabi_attribute 28, 1
   6              		.eabi_attribute 20, 1
   7              		.eabi_attribute 21, 1
   8              		.eabi_attribute 23, 3
   9              		.eabi_attribute 24, 1
  10              		.eabi_attribute 25, 1
  11              		.eabi_attribute 26, 1
  12              		.eabi_attribute 30, 1
  13              		.eabi_attribute 34, 1
  14              		.eabi_attribute 18, 4
  15              		.file	"Motor_Driver.c"
  16              		.text
  17              	.Ltext0:
  18              		.cfi_sections	.debug_frame
  19              		.section	.text.Motor_PWM_Start,"ax",%progbits
  20              		.align	1
  21              		.global	Motor_PWM_Start
  22              		.syntax unified
  23              		.thumb
  24              		.thumb_func
  26              	Motor_PWM_Start:
  27              	.LFB235:
  28              		.file 1 "Core/Src/HardWare/Motor_Driver.c"
   1:Core/Src/HardWare/Motor_Driver.c **** /*
   2:Core/Src/HardWare/Motor_Driver.c ****  * Motor_Driver.c
   3:Core/Src/HardWare/Motor_Driver.c ****  *
   4:Core/Src/HardWare/Motor_Driver.c ****  *  Created on: 2022/02/15
   5:Core/Src/HardWare/Motor_Driver.c ****  *      Author: leopi
   6:Core/Src/HardWare/Motor_Driver.c ****  */
   7:Core/Src/HardWare/Motor_Driver.c **** 
   8:Core/Src/HardWare/Motor_Driver.c **** #include "Motor_Driver.h"
   9:Core/Src/HardWare/Motor_Driver.c **** 
  10:Core/Src/HardWare/Motor_Driver.c **** 
  11:Core/Src/HardWare/Motor_Driver.c **** void Motor_PWM_Start(){ 
  29              		.loc 1 11 23 view -0
  30              		.cfi_startproc
  31              		@ args = 0, pretend = 0, frame = 0
  32              		@ frame_needed = 0, uses_anonymous_args = 0
  33 0000 08B5     		push	{r3, lr}
  34              	.LCFI0:
  35              		.cfi_def_cfa_offset 8
  36              		.cfi_offset 3, -8
  37              		.cfi_offset 14, -4
  12:Core/Src/HardWare/Motor_Driver.c **** #if 1
  13:Core/Src/HardWare/Motor_Driver.c ****   if (HAL_TIM_PWM_Start(&htim2, TIM_CHANNEL_4) != HAL_OK)
  38              		.loc 1 13 3 view .LVU1
  39              		.loc 1 13 7 is_stmt 0 view .LVU2
  40 0002 0C21     		movs	r1, #12
  41 0004 0748     		ldr	r0, .L7
  42 0006 FFF7FEFF 		bl	HAL_TIM_PWM_Start
  43              	.LVL0:
  44              		.loc 1 13 6 view .LVU3
  45 000a 28B9     		cbnz	r0, .L5
ARM GAS  C:\Users\leopi\AppData\Local\Temp\ccwr4j0m.s 			page 2


  46              	.L2:
  14:Core/Src/HardWare/Motor_Driver.c ****   {
  15:Core/Src/HardWare/Motor_Driver.c **** 	  Error_Handler();
  16:Core/Src/HardWare/Motor_Driver.c ****   }
  17:Core/Src/HardWare/Motor_Driver.c ****   if (HAL_TIM_PWM_Start(&htim5, TIM_CHANNEL_2) != HAL_OK)
  47              		.loc 1 17 3 is_stmt 1 view .LVU4
  48              		.loc 1 17 7 is_stmt 0 view .LVU5
  49 000c 0421     		movs	r1, #4
  50 000e 0648     		ldr	r0, .L7+4
  51 0010 FFF7FEFF 		bl	HAL_TIM_PWM_Start
  52              	.LVL1:
  53              		.loc 1 17 6 view .LVU6
  54 0014 18B9     		cbnz	r0, .L6
  55              	.L1:
  18:Core/Src/HardWare/Motor_Driver.c ****   {
  19:Core/Src/HardWare/Motor_Driver.c **** 	  Error_Handler();
  20:Core/Src/HardWare/Motor_Driver.c ****   }
  21:Core/Src/HardWare/Motor_Driver.c **** #endif
  22:Core/Src/HardWare/Motor_Driver.c **** }
  56              		.loc 1 22 1 view .LVU7
  57 0016 08BD     		pop	{r3, pc}
  58              	.L5:
  15:Core/Src/HardWare/Motor_Driver.c ****   }
  59              		.loc 1 15 4 is_stmt 1 view .LVU8
  60 0018 FFF7FEFF 		bl	Error_Handler
  61              	.LVL2:
  62 001c F6E7     		b	.L2
  63              	.L6:
  19:Core/Src/HardWare/Motor_Driver.c ****   }
  64              		.loc 1 19 4 view .LVU9
  65 001e FFF7FEFF 		bl	Error_Handler
  66              	.LVL3:
  67              		.loc 1 22 1 is_stmt 0 view .LVU10
  68 0022 F8E7     		b	.L1
  69              	.L8:
  70              		.align	2
  71              	.L7:
  72 0024 00000000 		.word	htim2
  73 0028 00000000 		.word	htim5
  74              		.cfi_endproc
  75              	.LFE235:
  77              		.section	.text.Motor_PWM_Stop,"ax",%progbits
  78              		.align	1
  79              		.global	Motor_PWM_Stop
  80              		.syntax unified
  81              		.thumb
  82              		.thumb_func
  84              	Motor_PWM_Stop:
  85              	.LFB236:
  23:Core/Src/HardWare/Motor_Driver.c **** 
  24:Core/Src/HardWare/Motor_Driver.c **** void Motor_PWM_Stop(){
  86              		.loc 1 24 22 is_stmt 1 view -0
  87              		.cfi_startproc
  88              		@ args = 0, pretend = 0, frame = 0
  89              		@ frame_needed = 0, uses_anonymous_args = 0
  90 0000 08B5     		push	{r3, lr}
  91              	.LCFI1:
ARM GAS  C:\Users\leopi\AppData\Local\Temp\ccwr4j0m.s 			page 3


  92              		.cfi_def_cfa_offset 8
  93              		.cfi_offset 3, -8
  94              		.cfi_offset 14, -4
  25:Core/Src/HardWare/Motor_Driver.c **** #if 1
  26:Core/Src/HardWare/Motor_Driver.c ****   if (HAL_TIM_PWM_Stop(&htim2, TIM_CHANNEL_4) != HAL_OK)
  95              		.loc 1 26 3 view .LVU12
  96              		.loc 1 26 7 is_stmt 0 view .LVU13
  97 0002 0C21     		movs	r1, #12
  98 0004 0748     		ldr	r0, .L15
  99 0006 FFF7FEFF 		bl	HAL_TIM_PWM_Stop
 100              	.LVL4:
 101              		.loc 1 26 6 view .LVU14
 102 000a 28B9     		cbnz	r0, .L13
 103              	.L10:
  27:Core/Src/HardWare/Motor_Driver.c ****   {
  28:Core/Src/HardWare/Motor_Driver.c **** 	  Error_Handler();
  29:Core/Src/HardWare/Motor_Driver.c ****   }
  30:Core/Src/HardWare/Motor_Driver.c ****   if (HAL_TIM_PWM_Stop(&htim5, TIM_CHANNEL_2) != HAL_OK)
 104              		.loc 1 30 3 is_stmt 1 view .LVU15
 105              		.loc 1 30 7 is_stmt 0 view .LVU16
 106 000c 0421     		movs	r1, #4
 107 000e 0648     		ldr	r0, .L15+4
 108 0010 FFF7FEFF 		bl	HAL_TIM_PWM_Stop
 109              	.LVL5:
 110              		.loc 1 30 6 view .LVU17
 111 0014 18B9     		cbnz	r0, .L14
 112              	.L9:
  31:Core/Src/HardWare/Motor_Driver.c ****   {
  32:Core/Src/HardWare/Motor_Driver.c **** 	  Error_Handler();
  33:Core/Src/HardWare/Motor_Driver.c ****   }
  34:Core/Src/HardWare/Motor_Driver.c **** #endif
  35:Core/Src/HardWare/Motor_Driver.c **** }
 113              		.loc 1 35 1 view .LVU18
 114 0016 08BD     		pop	{r3, pc}
 115              	.L13:
  28:Core/Src/HardWare/Motor_Driver.c ****   }
 116              		.loc 1 28 4 is_stmt 1 view .LVU19
 117 0018 FFF7FEFF 		bl	Error_Handler
 118              	.LVL6:
 119 001c F6E7     		b	.L10
 120              	.L14:
  32:Core/Src/HardWare/Motor_Driver.c ****   }
 121              		.loc 1 32 4 view .LVU20
 122 001e FFF7FEFF 		bl	Error_Handler
 123              	.LVL7:
 124              		.loc 1 35 1 is_stmt 0 view .LVU21
 125 0022 F8E7     		b	.L9
 126              	.L16:
 127              		.align	2
 128              	.L15:
 129 0024 00000000 		.word	htim2
 130 0028 00000000 		.word	htim5
 131              		.cfi_endproc
 132              	.LFE236:
 134              		.section	.text.Motor_Switch,"ax",%progbits
 135              		.align	1
 136              		.global	Motor_Switch
ARM GAS  C:\Users\leopi\AppData\Local\Temp\ccwr4j0m.s 			page 4


 137              		.syntax unified
 138              		.thumb
 139              		.thumb_func
 141              	Motor_Switch:
 142              	.LVL8:
 143              	.LFB237:
  36:Core/Src/HardWare/Motor_Driver.c **** inline void Motor_Switch(int left, int right){
 144              		.loc 1 36 46 is_stmt 1 view -0
 145              		.cfi_startproc
 146              		@ args = 0, pretend = 0, frame = 0
 147              		@ frame_needed = 0, uses_anonymous_args = 0
 148              		.loc 1 36 46 is_stmt 0 view .LVU23
 149 0000 38B5     		push	{r3, r4, r5, lr}
 150              	.LCFI2:
 151              		.cfi_def_cfa_offset 16
 152              		.cfi_offset 3, -16
 153              		.cfi_offset 4, -12
 154              		.cfi_offset 5, -8
 155              		.cfi_offset 14, -4
 156 0002 0D46     		mov	r5, r1
  37:Core/Src/HardWare/Motor_Driver.c **** 	if (left > 0 ){
 157              		.loc 1 37 2 is_stmt 1 view .LVU24
 158              		.loc 1 37 5 is_stmt 0 view .LVU25
 159 0004 041E     		subs	r4, r0, #0
 160 0006 16DC     		bgt	.L27
  38:Core/Src/HardWare/Motor_Driver.c **** 		//to -
  39:Core/Src/HardWare/Motor_Driver.c **** 		HAL_GPIO_WritePin(GPIO_LEFT, GPIO_L_PIN_NUM, GPIO_PIN_SET); //A2が左SET:1で正転
  40:Core/Src/HardWare/Motor_Driver.c **** 
  41:Core/Src/HardWare/Motor_Driver.c **** 	}
  42:Core/Src/HardWare/Motor_Driver.c **** 	else  if (left < 0){
 161              		.loc 1 42 8 is_stmt 1 view .LVU26
 162              		.loc 1 42 11 is_stmt 0 view .LVU27
 163 0008 002C     		cmp	r4, #0
 164 000a 1ADB     		blt	.L28
 165              	.LVL9:
 166              	.L19:
  43:Core/Src/HardWare/Motor_Driver.c **** 		//to +
  44:Core/Src/HardWare/Motor_Driver.c **** 		HAL_GPIO_WritePin(GPIO_LEFT, GPIO_L_PIN_NUM, GPIO_PIN_RESET); //A2が左,RESET:0で転
  45:Core/Src/HardWare/Motor_Driver.c **** 		left = -left;
  46:Core/Src/HardWare/Motor_Driver.c **** 	}
  47:Core/Src/HardWare/Motor_Driver.c **** 	if (right > 0){
 167              		.loc 1 47 2 is_stmt 1 view .LVU28
 168              		.loc 1 47 5 is_stmt 0 view .LVU29
 169 000c 002D     		cmp	r5, #0
 170 000e 1FDC     		bgt	.L29
  48:Core/Src/HardWare/Motor_Driver.c **** 		//to -
  49:Core/Src/HardWare/Motor_Driver.c **** 		HAL_GPIO_WritePin(GPIO_RIGHT, GPIO_R_PIN_NUM, GPIO_PIN_RESET); //A0が右,RESET:0で転
  50:Core/Src/HardWare/Motor_Driver.c **** 
  51:Core/Src/HardWare/Motor_Driver.c **** 	}
  52:Core/Src/HardWare/Motor_Driver.c **** 
  53:Core/Src/HardWare/Motor_Driver.c **** 	else if (right < 0){
 171              		.loc 1 53 7 is_stmt 1 view .LVU30
 172              		.loc 1 53 10 is_stmt 0 view .LVU31
 173 0010 002D     		cmp	r5, #0
 174 0012 23DB     		blt	.L30
 175              	.L21:
  54:Core/Src/HardWare/Motor_Driver.c **** 	  	//to +
ARM GAS  C:\Users\leopi\AppData\Local\Temp\ccwr4j0m.s 			page 5


  55:Core/Src/HardWare/Motor_Driver.c **** 	  	HAL_GPIO_WritePin(GPIO_RIGHT, GPIO_R_PIN_NUM, GPIO_PIN_SET); //A0が右,SET:1で正転
  56:Core/Src/HardWare/Motor_Driver.c **** 	  	right = -right;
  57:Core/Src/HardWare/Motor_Driver.c **** 	}
  58:Core/Src/HardWare/Motor_Driver.c **** 
  59:Core/Src/HardWare/Motor_Driver.c **** 	//上限はマクロで設定
  60:Core/Src/HardWare/Motor_Driver.c **** 	if(left > OUTPUT_MAX) left = OUTPUT_MAX;
 176              		.loc 1 60 2 is_stmt 1 view .LVU32
 177              		.loc 1 60 4 is_stmt 0 view .LVU33
 178 0014 B4F5137F 		cmp	r4, #588
 179 0018 01DD     		ble	.L22
 180              		.loc 1 60 29 view .LVU34
 181 001a 4FF41374 		mov	r4, #588
 182              	.LVL10:
 183              	.L22:
  61:Core/Src/HardWare/Motor_Driver.c **** 	if(right > OUTPUT_MAX) right = OUTPUT_MAX;
 184              		.loc 1 61 2 is_stmt 1 view .LVU35
 185              		.loc 1 61 4 is_stmt 0 view .LVU36
 186 001e B5F5137F 		cmp	r5, #588
 187 0022 01DD     		ble	.L23
 188              		.loc 1 61 31 view .LVU37
 189 0024 4FF41375 		mov	r5, #588
 190              	.LVL11:
 191              	.L23:
  62:Core/Src/HardWare/Motor_Driver.c **** 
  63:Core/Src/HardWare/Motor_Driver.c **** 
  64:Core/Src/HardWare/Motor_Driver.c **** 	  __HAL_TIM_SET_COMPARE(&htim5, TIM_CHANNEL_2, right); //tim5ch2が右
 192              		.loc 1 64 4 is_stmt 1 view .LVU38
 193 0028 104B     		ldr	r3, .L31
 194 002a 1B68     		ldr	r3, [r3]
 195 002c 9D63     		str	r5, [r3, #56]
  65:Core/Src/HardWare/Motor_Driver.c **** 	  __HAL_TIM_SET_COMPARE(&htim2, TIM_CHANNEL_4, left); //tim2ch4が左
 196              		.loc 1 65 4 view .LVU39
 197 002e 104B     		ldr	r3, .L31+4
 198 0030 1B68     		ldr	r3, [r3]
 199 0032 1C64     		str	r4, [r3, #64]
  66:Core/Src/HardWare/Motor_Driver.c **** }
 200              		.loc 1 66 1 is_stmt 0 view .LVU40
 201 0034 38BD     		pop	{r3, r4, r5, pc}
 202              	.LVL12:
 203              	.L27:
  39:Core/Src/HardWare/Motor_Driver.c **** 
 204              		.loc 1 39 3 is_stmt 1 view .LVU41
 205 0036 0122     		movs	r2, #1
 206 0038 0421     		movs	r1, #4
 207              	.LVL13:
  39:Core/Src/HardWare/Motor_Driver.c **** 
 208              		.loc 1 39 3 is_stmt 0 view .LVU42
 209 003a 0E48     		ldr	r0, .L31+8
 210              	.LVL14:
  39:Core/Src/HardWare/Motor_Driver.c **** 
 211              		.loc 1 39 3 view .LVU43
 212 003c FFF7FEFF 		bl	HAL_GPIO_WritePin
 213              	.LVL15:
 214 0040 E4E7     		b	.L19
 215              	.LVL16:
 216              	.L28:
  44:Core/Src/HardWare/Motor_Driver.c **** 		left = -left;
ARM GAS  C:\Users\leopi\AppData\Local\Temp\ccwr4j0m.s 			page 6


 217              		.loc 1 44 3 is_stmt 1 view .LVU44
 218 0042 0022     		movs	r2, #0
 219 0044 0421     		movs	r1, #4
 220              	.LVL17:
  44:Core/Src/HardWare/Motor_Driver.c **** 		left = -left;
 221              		.loc 1 44 3 is_stmt 0 view .LVU45
 222 0046 0B48     		ldr	r0, .L31+8
 223              	.LVL18:
  44:Core/Src/HardWare/Motor_Driver.c **** 		left = -left;
 224              		.loc 1 44 3 view .LVU46
 225 0048 FFF7FEFF 		bl	HAL_GPIO_WritePin
 226              	.LVL19:
  45:Core/Src/HardWare/Motor_Driver.c **** 	}
 227              		.loc 1 45 3 is_stmt 1 view .LVU47
  45:Core/Src/HardWare/Motor_Driver.c **** 	}
 228              		.loc 1 45 8 is_stmt 0 view .LVU48
 229 004c 6442     		rsbs	r4, r4, #0
 230              	.LVL20:
  45:Core/Src/HardWare/Motor_Driver.c **** 	}
 231              		.loc 1 45 8 view .LVU49
 232 004e DDE7     		b	.L19
 233              	.L29:
  49:Core/Src/HardWare/Motor_Driver.c **** 
 234              		.loc 1 49 3 is_stmt 1 view .LVU50
 235 0050 0022     		movs	r2, #0
 236 0052 0121     		movs	r1, #1
 237 0054 0748     		ldr	r0, .L31+8
 238 0056 FFF7FEFF 		bl	HAL_GPIO_WritePin
 239              	.LVL21:
 240 005a DBE7     		b	.L21
 241              	.L30:
  55:Core/Src/HardWare/Motor_Driver.c **** 	  	right = -right;
 242              		.loc 1 55 5 view .LVU51
 243 005c 0122     		movs	r2, #1
 244 005e 1146     		mov	r1, r2
 245 0060 0448     		ldr	r0, .L31+8
 246 0062 FFF7FEFF 		bl	HAL_GPIO_WritePin
 247              	.LVL22:
  56:Core/Src/HardWare/Motor_Driver.c **** 	}
 248              		.loc 1 56 5 view .LVU52
  56:Core/Src/HardWare/Motor_Driver.c **** 	}
 249              		.loc 1 56 11 is_stmt 0 view .LVU53
 250 0066 6D42     		rsbs	r5, r5, #0
 251              	.LVL23:
  56:Core/Src/HardWare/Motor_Driver.c **** 	}
 252              		.loc 1 56 11 view .LVU54
 253 0068 D4E7     		b	.L21
 254              	.L32:
 255 006a 00BF     		.align	2
 256              	.L31:
 257 006c 00000000 		.word	htim5
 258 0070 00000000 		.word	htim2
 259 0074 00000240 		.word	1073872896
 260              		.cfi_endproc
 261              	.LFE237:
 263              		.text
 264              	.Letext0:
ARM GAS  C:\Users\leopi\AppData\Local\Temp\ccwr4j0m.s 			page 7


 265              		.file 2 "c:\\tools\\gcc-arm-none-eabi-10_2021.10\\arm-none-eabi\\include\\machine\\_default_types.
 266              		.file 3 "c:\\tools\\gcc-arm-none-eabi-10_2021.10\\arm-none-eabi\\include\\sys\\_stdint.h"
 267              		.file 4 "Drivers/CMSIS/Device/ST/STM32F4xx/Include/stm32f405xx.h"
 268              		.file 5 "Drivers/STM32F4xx_HAL_Driver/Inc/stm32f4xx_hal_def.h"
 269              		.file 6 "Drivers/STM32F4xx_HAL_Driver/Inc/stm32f4xx_hal_gpio.h"
 270              		.file 7 "Drivers/STM32F4xx_HAL_Driver/Inc/stm32f4xx_hal_dma.h"
 271              		.file 8 "Drivers/STM32F4xx_HAL_Driver/Inc/stm32f4xx_hal_tim.h"
 272              		.file 9 "Core/Inc/HardWare/Motor_Driver.h"
 273              		.file 10 "Core/Inc/main.h"
ARM GAS  C:\Users\leopi\AppData\Local\Temp\ccwr4j0m.s 			page 8


DEFINED SYMBOLS
                            *ABS*:00000000 Motor_Driver.c
C:\Users\leopi\AppData\Local\Temp\ccwr4j0m.s:20     .text.Motor_PWM_Start:00000000 $t
C:\Users\leopi\AppData\Local\Temp\ccwr4j0m.s:26     .text.Motor_PWM_Start:00000000 Motor_PWM_Start
C:\Users\leopi\AppData\Local\Temp\ccwr4j0m.s:72     .text.Motor_PWM_Start:00000024 $d
C:\Users\leopi\AppData\Local\Temp\ccwr4j0m.s:78     .text.Motor_PWM_Stop:00000000 $t
C:\Users\leopi\AppData\Local\Temp\ccwr4j0m.s:84     .text.Motor_PWM_Stop:00000000 Motor_PWM_Stop
C:\Users\leopi\AppData\Local\Temp\ccwr4j0m.s:129    .text.Motor_PWM_Stop:00000024 $d
C:\Users\leopi\AppData\Local\Temp\ccwr4j0m.s:135    .text.Motor_Switch:00000000 $t
C:\Users\leopi\AppData\Local\Temp\ccwr4j0m.s:141    .text.Motor_Switch:00000000 Motor_Switch
C:\Users\leopi\AppData\Local\Temp\ccwr4j0m.s:257    .text.Motor_Switch:0000006c $d

UNDEFINED SYMBOLS
HAL_TIM_PWM_Start
Error_Handler
htim2
htim5
HAL_TIM_PWM_Stop
HAL_GPIO_WritePin
