ARM GAS  C:\Users\leopi\AppData\Local\Temp\ccrT03tY.s 			page 1


   1              		.cpu cortex-m4
   2              		.arch armv7e-m
   3              		.fpu fpv4-sp-d16
   4              		.eabi_attribute 27, 1
   5              		.eabi_attribute 28, 1
   6              		.eabi_attribute 20, 1
   7              		.eabi_attribute 21, 1
   8              		.eabi_attribute 23, 3
   9              		.eabi_attribute 24, 1
  10              		.eabi_attribute 25, 1
  11              		.eabi_attribute 26, 1
  12              		.eabi_attribute 30, 1
  13              		.eabi_attribute 34, 1
  14              		.eabi_attribute 18, 4
  15              		.file	"PID_Control.c"
  16              		.text
  17              	.Ltext0:
  18              		.cfi_sections	.debug_frame
  19              		.section	.text.PIDSetGain,"ax",%progbits
  20              		.align	1
  21              		.global	PIDSetGain
  22              		.syntax unified
  23              		.thumb
  24              		.thumb_func
  26              	PIDSetGain:
  27              	.LVL0:
  28              	.LFB0:
  29              		.file 1 "Core/Src/Tools/PID_Control.c"
   1:Core/Src/Tools/PID_Control.c **** /*
   2:Core/Src/Tools/PID_Control.c ****  * PID_Control.c
   3:Core/Src/Tools/PID_Control.c ****  *
   4:Core/Src/Tools/PID_Control.c ****  *  Created on: 2022/02/15
   5:Core/Src/Tools/PID_Control.c ****  *      Author: leopi
   6:Core/Src/Tools/PID_Control.c ****  */
   7:Core/Src/Tools/PID_Control.c **** 
   8:Core/Src/Tools/PID_Control.c **** #include "../../Inc/Tools/PID_Control.h"
   9:Core/Src/Tools/PID_Control.c **** #include "math.h"
  10:Core/Src/Tools/PID_Control.c **** //motor_control Pid;//[ PID_TARGET_NUM ] = {0};
  11:Core/Src/Tools/PID_Control.c **** motor_control Pid[ 11 ] = {0};
  12:Core/Src/Tools/PID_Control.c **** 
  13:Core/Src/Tools/PID_Control.c **** const float pid_T = 0.001f;
  14:Core/Src/Tools/PID_Control.c **** const float pid_DT = 1.0f/0.001f;
  15:Core/Src/Tools/PID_Control.c **** void PIDSetGain(int n, float kp, float ki, float kd)	//Âêå„Åò„Éá„Éº„ÇøÊßãÈÄ†‰Ωì„Çí„Ç∑„Çπ„ÉÜ„É†ÂêåÂÆ
  16:Core/Src/Tools/PID_Control.c **** {
  30              		.loc 1 16 1 view -0
  31              		.cfi_startproc
  32              		@ args = 0, pretend = 0, frame = 0
  33              		@ frame_needed = 0, uses_anonymous_args = 0
  34              		@ link register save eliminated.
  17:Core/Src/Tools/PID_Control.c **** 	Pid[n].KP = kp;
  35              		.loc 1 17 2 view .LVU1
  36              		.loc 1 17 12 is_stmt 0 view .LVU2
  37 0000 054B     		ldr	r3, .L2
  38 0002 2C22     		movs	r2, #44
  39 0004 02FB0030 		mla	r0, r2, r0, r3
  40              	.LVL1:
  41              		.loc 1 17 12 view .LVU3
ARM GAS  C:\Users\leopi\AppData\Local\Temp\ccrT03tY.s 			page 2


  42 0008 80ED000A 		vstr.32	s0, [r0]
  18:Core/Src/Tools/PID_Control.c **** 	Pid[n].KI = ki;
  43              		.loc 1 18 2 is_stmt 1 view .LVU4
  44              		.loc 1 18 12 is_stmt 0 view .LVU5
  45 000c C0ED010A 		vstr.32	s1, [r0, #4]
  19:Core/Src/Tools/PID_Control.c **** 	Pid[n].KD = kd;
  46              		.loc 1 19 2 is_stmt 1 view .LVU6
  47              		.loc 1 19 12 is_stmt 0 view .LVU7
  48 0010 80ED021A 		vstr.32	s2, [r0, #8]
  20:Core/Src/Tools/PID_Control.c **** 
  21:Core/Src/Tools/PID_Control.c **** }
  49              		.loc 1 21 1 view .LVU8
  50 0014 7047     		bx	lr
  51              	.L3:
  52 0016 00BF     		.align	2
  53              	.L2:
  54 0018 00000000 		.word	.LANCHOR0
  55              		.cfi_endproc
  56              	.LFE0:
  58              		.section	.text.PIDChangeFlag,"ax",%progbits
  59              		.align	1
  60              		.global	PIDChangeFlag
  61              		.syntax unified
  62              		.thumb
  63              		.thumb_func
  65              	PIDChangeFlag:
  66              	.LVL2:
  67              	.LFB1:
  22:Core/Src/Tools/PID_Control.c **** 
  23:Core/Src/Tools/PID_Control.c **** void PIDChangeFlag(int n, int on_or_off)
  24:Core/Src/Tools/PID_Control.c **** {
  68              		.loc 1 24 1 is_stmt 1 view -0
  69              		.cfi_startproc
  70              		@ args = 0, pretend = 0, frame = 0
  71              		@ frame_needed = 0, uses_anonymous_args = 0
  72              		@ link register save eliminated.
  25:Core/Src/Tools/PID_Control.c **** 	Pid[n].flag = on_or_off;
  73              		.loc 1 25 2 view .LVU10
  74              		.loc 1 25 14 is_stmt 0 view .LVU11
  75 0000 024B     		ldr	r3, .L5
  76 0002 2C22     		movs	r2, #44
  77 0004 02FB0033 		mla	r3, r2, r0, r3
  78 0008 9962     		str	r1, [r3, #40]
  26:Core/Src/Tools/PID_Control.c **** }
  79              		.loc 1 26 1 view .LVU12
  80 000a 7047     		bx	lr
  81              	.L6:
  82              		.align	2
  83              	.L5:
  84 000c 00000000 		.word	.LANCHOR0
  85              		.cfi_endproc
  86              	.LFE1:
  88              		.section	.text.PIDGetFlag,"ax",%progbits
  89              		.align	1
  90              		.global	PIDGetFlag
  91              		.syntax unified
  92              		.thumb
ARM GAS  C:\Users\leopi\AppData\Local\Temp\ccrT03tY.s 			page 3


  93              		.thumb_func
  95              	PIDGetFlag:
  96              	.LVL3:
  97              	.LFB2:
  27:Core/Src/Tools/PID_Control.c **** int PIDGetFlag(int n)
  28:Core/Src/Tools/PID_Control.c **** {
  98              		.loc 1 28 1 is_stmt 1 view -0
  99              		.cfi_startproc
 100              		@ args = 0, pretend = 0, frame = 0
 101              		@ frame_needed = 0, uses_anonymous_args = 0
 102              		@ link register save eliminated.
  29:Core/Src/Tools/PID_Control.c **** 	return Pid[n].flag;
 103              		.loc 1 29 2 view .LVU14
 104              		.loc 1 29 15 is_stmt 0 view .LVU15
 105 0000 024B     		ldr	r3, .L8
 106 0002 2C22     		movs	r2, #44
 107 0004 02FB0033 		mla	r3, r2, r0, r3
  30:Core/Src/Tools/PID_Control.c **** }
 108              		.loc 1 30 1 view .LVU16
 109 0008 986A     		ldr	r0, [r3, #40]
 110              	.LVL4:
 111              		.loc 1 30 1 view .LVU17
 112 000a 7047     		bx	lr
 113              	.L9:
 114              		.align	2
 115              	.L8:
 116 000c 00000000 		.word	.LANCHOR0
 117              		.cfi_endproc
 118              	.LFE2:
 120              		.section	.text.PIDReset,"ax",%progbits
 121              		.align	1
 122              		.global	PIDReset
 123              		.syntax unified
 124              		.thumb
 125              		.thumb_func
 127              	PIDReset:
 128              	.LVL5:
 129              	.LFB3:
  31:Core/Src/Tools/PID_Control.c **** void PIDReset(int n)
  32:Core/Src/Tools/PID_Control.c **** {
 130              		.loc 1 32 1 is_stmt 1 view -0
 131              		.cfi_startproc
 132              		@ args = 0, pretend = 0, frame = 0
 133              		@ frame_needed = 0, uses_anonymous_args = 0
 134              		@ link register save eliminated.
  33:Core/Src/Tools/PID_Control.c **** 	//ÈÄüÂ∫¶„Å´Èôê„Çâ„Åö„ÇÑ„Çå„Å∞„Çà„ÅÑ„ÅÆ„Åß„ÅØ
  34:Core/Src/Tools/PID_Control.c **** 	Pid[n].e = 0;
 135              		.loc 1 34 2 view .LVU19
 136              		.loc 1 34 11 is_stmt 0 view .LVU20
 137 0000 064B     		ldr	r3, .L11
 138 0002 2C22     		movs	r2, #44
 139 0004 02FB0030 		mla	r0, r2, r0, r3
 140              	.LVL6:
 141              		.loc 1 34 11 view .LVU21
 142 0008 0023     		movs	r3, #0
 143 000a C360     		str	r3, [r0, #12]	@ float
  35:Core/Src/Tools/PID_Control.c **** 	Pid[n].ei = 0;
ARM GAS  C:\Users\leopi\AppData\Local\Temp\ccrT03tY.s 			page 4


 144              		.loc 1 35 2 is_stmt 1 view .LVU22
 145              		.loc 1 35 12 is_stmt 0 view .LVU23
 146 000c 0361     		str	r3, [r0, #16]	@ float
  36:Core/Src/Tools/PID_Control.c **** 	Pid[n].ed = 0;
 147              		.loc 1 36 2 is_stmt 1 view .LVU24
 148              		.loc 1 36 12 is_stmt 0 view .LVU25
 149 000e 4361     		str	r3, [r0, #20]	@ float
  37:Core/Src/Tools/PID_Control.c **** 	Pid[n].elast = 0;
 150              		.loc 1 37 2 is_stmt 1 view .LVU26
 151              		.loc 1 37 15 is_stmt 0 view .LVU27
 152 0010 8361     		str	r3, [r0, #24]	@ float
  38:Core/Src/Tools/PID_Control.c **** 	Pid[n].out = 0;
 153              		.loc 1 38 2 is_stmt 1 view .LVU28
 154              		.loc 1 38 13 is_stmt 0 view .LVU29
 155 0012 0022     		movs	r2, #0
 156 0014 4262     		str	r2, [r0, #36]
  39:Core/Src/Tools/PID_Control.c **** 
  40:Core/Src/Tools/PID_Control.c **** 	Pid[n].target = 0;
 157              		.loc 1 40 2 is_stmt 1 view .LVU30
 158              		.loc 1 40 16 is_stmt 0 view .LVU31
 159 0016 0362     		str	r3, [r0, #32]	@ float
  41:Core/Src/Tools/PID_Control.c **** 	Pid[n].current = 0;
 160              		.loc 1 41 2 is_stmt 1 view .LVU32
 161              		.loc 1 41 17 is_stmt 0 view .LVU33
 162 0018 C361     		str	r3, [r0, #28]	@ float
  42:Core/Src/Tools/PID_Control.c **** 
  43:Core/Src/Tools/PID_Control.c **** }
 163              		.loc 1 43 1 view .LVU34
 164 001a 7047     		bx	lr
 165              	.L12:
 166              		.align	2
 167              	.L11:
 168 001c 00000000 		.word	.LANCHOR0
 169              		.cfi_endproc
 170              	.LFE3:
 172              		.global	__aeabi_f2d
 173              		.global	__aeabi_d2iz
 174              		.section	.text.PIDControl,"ax",%progbits
 175              		.align	1
 176              		.global	PIDControl
 177              		.syntax unified
 178              		.thumb
 179              		.thumb_func
 181              	PIDControl:
 182              	.LVL7:
 183              	.LFB4:
  44:Core/Src/Tools/PID_Control.c **** 
  45:Core/Src/Tools/PID_Control.c **** inline int PIDControl(int n, float target, float current)
  46:Core/Src/Tools/PID_Control.c **** {
 184              		.loc 1 46 1 is_stmt 1 view -0
 185              		.cfi_startproc
 186              		@ args = 0, pretend = 0, frame = 0
 187              		@ frame_needed = 0, uses_anonymous_args = 0
 188              		.loc 1 46 1 is_stmt 0 view .LVU36
 189 0000 10B5     		push	{r4, lr}
 190              	.LCFI0:
 191              		.cfi_def_cfa_offset 8
ARM GAS  C:\Users\leopi\AppData\Local\Temp\ccrT03tY.s 			page 5


 192              		.cfi_offset 4, -8
 193              		.cfi_offset 14, -4
 194 0002 0446     		mov	r4, r0
  47:Core/Src/Tools/PID_Control.c **** 	//PIDInput( n, target, current);
  48:Core/Src/Tools/PID_Control.c **** 	//PIDCalculate( n, T );
  49:Core/Src/Tools/PID_Control.c **** 	//Âá∫Âäõ„ÅÆÂâç„Å´ÂÖ®ÈÉ®0„Å´„Åô„ÇãÂá¶ÁêÜ„Çí„Éï„É©„Ç∞„Åß
  50:Core/Src/Tools/PID_Control.c **** 	if(Pid[n].flag == 0)
 195              		.loc 1 50 2 is_stmt 1 view .LVU37
 196              		.loc 1 50 11 is_stmt 0 view .LVU38
 197 0004 284B     		ldr	r3, .L17
 198 0006 2C22     		movs	r2, #44
 199 0008 02FB0033 		mla	r3, r2, r0, r3
 200 000c 986A     		ldr	r0, [r3, #40]
 201              	.LVL8:
 202              		.loc 1 50 4 view .LVU39
 203 000e 50B9     		cbnz	r0, .L14
  51:Core/Src/Tools/PID_Control.c **** 	{
  52:Core/Src/Tools/PID_Control.c **** 		Pid[n].e = 0.0f;
 204              		.loc 1 52 3 is_stmt 1 view .LVU40
 205              		.loc 1 52 12 is_stmt 0 view .LVU41
 206 0010 254B     		ldr	r3, .L17
 207 0012 02FB0434 		mla	r4, r2, r4, r3
 208              	.LVL9:
 209              		.loc 1 52 12 view .LVU42
 210 0016 0023     		movs	r3, #0
 211 0018 E360     		str	r3, [r4, #12]	@ float
  53:Core/Src/Tools/PID_Control.c **** 		Pid[n].ei = 0.0f;
 212              		.loc 1 53 3 is_stmt 1 view .LVU43
 213              		.loc 1 53 13 is_stmt 0 view .LVU44
 214 001a 2361     		str	r3, [r4, #16]	@ float
  54:Core/Src/Tools/PID_Control.c **** 		Pid[n].ed = 0.0f;
 215              		.loc 1 54 3 is_stmt 1 view .LVU45
 216              		.loc 1 54 13 is_stmt 0 view .LVU46
 217 001c 6361     		str	r3, [r4, #20]	@ float
  55:Core/Src/Tools/PID_Control.c **** 		Pid[n].elast = 0.0f;
 218              		.loc 1 55 3 is_stmt 1 view .LVU47
 219              		.loc 1 55 16 is_stmt 0 view .LVU48
 220 001e A361     		str	r3, [r4, #24]	@ float
  56:Core/Src/Tools/PID_Control.c **** 		Pid[n].out = 0;
 221              		.loc 1 56 3 is_stmt 1 view .LVU49
 222              		.loc 1 56 14 is_stmt 0 view .LVU50
 223 0020 0023     		movs	r3, #0
 224 0022 6362     		str	r3, [r4, #36]
  57:Core/Src/Tools/PID_Control.c **** 		return 0;
 225              		.loc 1 57 3 is_stmt 1 view .LVU51
 226              	.LVL10:
 227              	.L13:
  58:Core/Src/Tools/PID_Control.c **** 		//PIDReset(n);
  59:Core/Src/Tools/PID_Control.c **** 	}
  60:Core/Src/Tools/PID_Control.c **** 	else
  61:Core/Src/Tools/PID_Control.c **** 	{
  62:Core/Src/Tools/PID_Control.c **** 		Pid[n].target = target;
  63:Core/Src/Tools/PID_Control.c **** 		Pid[n].current = current;
  64:Core/Src/Tools/PID_Control.c **** 
  65:Core/Src/Tools/PID_Control.c **** 		Pid[n].e = Pid[n].target - Pid[n].current;
  66:Core/Src/Tools/PID_Control.c **** 		Pid[n].ei += Pid[n].e * pid_T;
  67:Core/Src/Tools/PID_Control.c **** 		Pid[n].ed = ( Pid[n].e - Pid[n].elast ) * pid_DT;
ARM GAS  C:\Users\leopi\AppData\Local\Temp\ccrT03tY.s 			page 6


  68:Core/Src/Tools/PID_Control.c **** 		Pid[n].elast = Pid[n].e;
  69:Core/Src/Tools/PID_Control.c **** 		Pid[n].out = round(Pid[n].KP*Pid[n].e + Pid[n].KI*Pid[n].ei + Pid[n].KD*Pid[n].ed);
  70:Core/Src/Tools/PID_Control.c **** 		return Pid[n].out;
  71:Core/Src/Tools/PID_Control.c **** 	}
  72:Core/Src/Tools/PID_Control.c **** }
 228              		.loc 1 72 1 is_stmt 0 view .LVU52
 229 0024 10BD     		pop	{r4, pc}
 230              	.LVL11:
 231              	.L14:
  62:Core/Src/Tools/PID_Control.c **** 		Pid[n].current = current;
 232              		.loc 1 62 3 is_stmt 1 view .LVU53
  62:Core/Src/Tools/PID_Control.c **** 		Pid[n].current = current;
 233              		.loc 1 62 17 is_stmt 0 view .LVU54
 234 0026 204B     		ldr	r3, .L17
 235 0028 2C20     		movs	r0, #44
 236 002a 00FB0434 		mla	r4, r0, r4, r3
 237              	.LVL12:
  62:Core/Src/Tools/PID_Control.c **** 		Pid[n].current = current;
 238              		.loc 1 62 17 view .LVU55
 239 002e 84ED080A 		vstr.32	s0, [r4, #32]
  63:Core/Src/Tools/PID_Control.c **** 
 240              		.loc 1 63 3 is_stmt 1 view .LVU56
  63:Core/Src/Tools/PID_Control.c **** 
 241              		.loc 1 63 18 is_stmt 0 view .LVU57
 242 0032 C4ED070A 		vstr.32	s1, [r4, #28]
  65:Core/Src/Tools/PID_Control.c **** 		Pid[n].ei += Pid[n].e * pid_T;
 243              		.loc 1 65 3 is_stmt 1 view .LVU58
  65:Core/Src/Tools/PID_Control.c **** 		Pid[n].ei += Pid[n].e * pid_T;
 244              		.loc 1 65 28 is_stmt 0 view .LVU59
 245 0036 70EE600A 		vsub.f32	s1, s0, s1
 246              	.LVL13:
  65:Core/Src/Tools/PID_Control.c **** 		Pid[n].ei += Pid[n].e * pid_T;
 247              		.loc 1 65 12 view .LVU60
 248 003a C4ED030A 		vstr.32	s1, [r4, #12]
  66:Core/Src/Tools/PID_Control.c **** 		Pid[n].ed = ( Pid[n].e - Pid[n].elast ) * pid_DT;
 249              		.loc 1 66 3 is_stmt 1 view .LVU61
  66:Core/Src/Tools/PID_Control.c **** 		Pid[n].ed = ( Pid[n].e - Pid[n].elast ) * pid_DT;
 250              		.loc 1 66 25 is_stmt 0 view .LVU62
 251 003e 9FED1B7A 		vldr.32	s14, .L17+4
 252 0042 20EE877A 		vmul.f32	s14, s1, s14
  66:Core/Src/Tools/PID_Control.c **** 		Pid[n].ed = ( Pid[n].e - Pid[n].elast ) * pid_DT;
 253              		.loc 1 66 13 view .LVU63
 254 0046 D4ED047A 		vldr.32	s15, [r4, #16]
 255 004a 37EE277A 		vadd.f32	s14, s14, s15
 256 004e 84ED047A 		vstr.32	s14, [r4, #16]
  67:Core/Src/Tools/PID_Control.c **** 		Pid[n].elast = Pid[n].e;
 257              		.loc 1 67 3 is_stmt 1 view .LVU64
  67:Core/Src/Tools/PID_Control.c **** 		Pid[n].elast = Pid[n].e;
 258              		.loc 1 67 34 is_stmt 0 view .LVU65
 259 0052 D4ED067A 		vldr.32	s15, [r4, #24]
  67:Core/Src/Tools/PID_Control.c **** 		Pid[n].elast = Pid[n].e;
 260              		.loc 1 67 26 view .LVU66
 261 0056 70EEE77A 		vsub.f32	s15, s1, s15
  67:Core/Src/Tools/PID_Control.c **** 		Pid[n].elast = Pid[n].e;
 262              		.loc 1 67 43 view .LVU67
 263 005a DFED156A 		vldr.32	s13, .L17+8
 264 005e 67EEA67A 		vmul.f32	s15, s15, s13
ARM GAS  C:\Users\leopi\AppData\Local\Temp\ccrT03tY.s 			page 7


  67:Core/Src/Tools/PID_Control.c **** 		Pid[n].elast = Pid[n].e;
 265              		.loc 1 67 13 view .LVU68
 266 0062 C4ED057A 		vstr.32	s15, [r4, #20]
  68:Core/Src/Tools/PID_Control.c **** 		Pid[n].out = round(Pid[n].KP*Pid[n].e + Pid[n].KI*Pid[n].ei + Pid[n].KD*Pid[n].ed);
 267              		.loc 1 68 3 is_stmt 1 view .LVU69
  68:Core/Src/Tools/PID_Control.c **** 		Pid[n].out = round(Pid[n].KP*Pid[n].e + Pid[n].KI*Pid[n].ei + Pid[n].KD*Pid[n].ed);
 268              		.loc 1 68 16 is_stmt 0 view .LVU70
 269 0066 C4ED060A 		vstr.32	s1, [r4, #24]
  69:Core/Src/Tools/PID_Control.c **** 		return Pid[n].out;
 270              		.loc 1 69 3 is_stmt 1 view .LVU71
  69:Core/Src/Tools/PID_Control.c **** 		return Pid[n].out;
 271              		.loc 1 69 28 is_stmt 0 view .LVU72
 272 006a 94ED000A 		vldr.32	s0, [r4]
 273              	.LVL14:
  69:Core/Src/Tools/PID_Control.c **** 		return Pid[n].out;
 274              		.loc 1 69 31 view .LVU73
 275 006e 60EE800A 		vmul.f32	s1, s1, s0
  69:Core/Src/Tools/PID_Control.c **** 		return Pid[n].out;
 276              		.loc 1 69 49 view .LVU74
 277 0072 D4ED016A 		vldr.32	s13, [r4, #4]
  69:Core/Src/Tools/PID_Control.c **** 		return Pid[n].out;
 278              		.loc 1 69 52 view .LVU75
 279 0076 27EE267A 		vmul.f32	s14, s14, s13
  69:Core/Src/Tools/PID_Control.c **** 		return Pid[n].out;
 280              		.loc 1 69 41 view .LVU76
 281 007a 70EE870A 		vadd.f32	s1, s1, s14
  69:Core/Src/Tools/PID_Control.c **** 		return Pid[n].out;
 282              		.loc 1 69 71 view .LVU77
 283 007e 94ED027A 		vldr.32	s14, [r4, #8]
  69:Core/Src/Tools/PID_Control.c **** 		return Pid[n].out;
 284              		.loc 1 69 74 view .LVU78
 285 0082 67EE877A 		vmul.f32	s15, s15, s14
  69:Core/Src/Tools/PID_Control.c **** 		return Pid[n].out;
 286              		.loc 1 69 16 view .LVU79
 287 0086 70EEA77A 		vadd.f32	s15, s1, s15
 288 008a 17EE900A 		vmov	r0, s15
 289 008e FFF7FEFF 		bl	__aeabi_f2d
 290              	.LVL15:
  69:Core/Src/Tools/PID_Control.c **** 		return Pid[n].out;
 291              		.loc 1 69 16 view .LVU80
 292 0092 41EC100B 		vmov	d0, r0, r1
 293 0096 FFF7FEFF 		bl	round
 294              	.LVL16:
 295 009a 51EC100B 		vmov	r0, r1, d0
  69:Core/Src/Tools/PID_Control.c **** 		return Pid[n].out;
 296              		.loc 1 69 14 view .LVU81
 297 009e FFF7FEFF 		bl	__aeabi_d2iz
 298              	.LVL17:
 299 00a2 6062     		str	r0, [r4, #36]
  70:Core/Src/Tools/PID_Control.c **** 	}
 300              		.loc 1 70 3 is_stmt 1 view .LVU82
  70:Core/Src/Tools/PID_Control.c **** 	}
 301              		.loc 1 70 16 is_stmt 0 view .LVU83
 302 00a4 BEE7     		b	.L13
 303              	.L18:
 304 00a6 00BF     		.align	2
 305              	.L17:
ARM GAS  C:\Users\leopi\AppData\Local\Temp\ccrT03tY.s 			page 8


 306 00a8 00000000 		.word	.LANCHOR0
 307 00ac 6F12833A 		.word	981668463
 308 00b0 FFFF7944 		.word	1148846079
 309              		.cfi_endproc
 310              	.LFE4:
 312              		.global	pid_DT
 313              		.global	pid_T
 314              		.global	Pid
 315              		.section	.bss.Pid,"aw",%nobits
 316              		.align	2
 317              		.set	.LANCHOR0,. + 0
 320              	Pid:
 321 0000 00000000 		.space	484
 321      00000000 
 321      00000000 
 321      00000000 
 321      00000000 
 322              		.section	.rodata.pid_DT,"a"
 323              		.align	2
 326              	pid_DT:
 327 0000 FFFF7944 		.word	1148846079
 328              		.section	.rodata.pid_T,"a"
 329              		.align	2
 332              	pid_T:
 333 0000 6F12833A 		.word	981668463
 334              		.text
 335              	.Letext0:
 336              		.file 2 "Core/Src/Tools/../../Inc/Tools/PID_Control.h"
 337              		.file 3 "c:\\tools\\gcc-arm-none-eabi-10_2021.10\\arm-none-eabi\\include\\math.h"
ARM GAS  C:\Users\leopi\AppData\Local\Temp\ccrT03tY.s 			page 9

