ARM GAS  /var/folders/v_/kwz_t0cs68g1q1d733r227b80000gn/T//ccdIQ2Sq.s 			page 1


   1              		.cpu cortex-m4
   2              		.eabi_attribute 27, 1
   3              		.eabi_attribute 28, 1
   4              		.eabi_attribute 20, 1
   5              		.eabi_attribute 21, 1
   6              		.eabi_attribute 23, 3
   7              		.eabi_attribute 24, 1
   8              		.eabi_attribute 25, 1
   9              		.eabi_attribute 26, 1
  10              		.eabi_attribute 30, 1
  11              		.eabi_attribute 34, 1
  12              		.eabi_attribute 18, 4
  13              		.file	"Record.c"
  14              		.text
  15              	.Ltext0:
  16              		.cfi_sections	.debug_frame
  17              		.section	.text.flashStoreNodes,"ax",%progbits
  18              		.align	1
  19              		.global	flashStoreNodes
  20              		.arch armv7e-m
  21              		.syntax unified
  22              		.thumb
  23              		.thumb_func
  24              		.fpu fpv4-sp-d16
  26              	flashStoreNodes:
  27              	.LVL0:
  28              	.LFB238:
  29              		.file 1 "Core/Src/Record.c"
   1:Core/Src/Record.c **** /*
   2:Core/Src/Record.c ****  * Record.c
   3:Core/Src/Record.c ****  *
   4:Core/Src/Record.c ****  *  Created on: 2022/10/28
   5:Core/Src/Record.c ****  *      Author: leopi
   6:Core/Src/Record.c ****  */
   7:Core/Src/Record.c **** 
   8:Core/Src/Record.c **** #include "Record.h"
   9:Core/Src/Record.c **** #include <stdio.h>
  10:Core/Src/Record.c **** 
  11:Core/Src/Record.c **** //#include "MicroMouse.h"
  12:Core/Src/Record.c **** //マップデータをフラッシュに書き込む処理
  13:Core/Src/Record.c **** #include "Flash.h"
  14:Core/Src/Record.c **** #include "MazeLib.h"
  15:Core/Src/Record.c **** void flashStoreNodes(maze_node *maze)
  16:Core/Src/Record.c **** {
  30              		.loc 1 16 1 view -0
  31              		.cfi_startproc
  32              		@ args = 0, pretend = 0, frame = 0
  33              		@ frame_needed = 0, uses_anonymous_args = 0
  34              		.loc 1 16 1 is_stmt 0 view .LVU1
  35 0000 F8B5     		push	{r3, r4, r5, r6, r7, lr}
  36              	.LCFI0:
  37              		.cfi_def_cfa_offset 24
  38              		.cfi_offset 3, -24
  39              		.cfi_offset 4, -20
  40              		.cfi_offset 5, -16
  41              		.cfi_offset 6, -12
  42              		.cfi_offset 7, -8
ARM GAS  /var/folders/v_/kwz_t0cs68g1q1d733r227b80000gn/T//ccdIQ2Sq.s 			page 2


  43              		.cfi_offset 14, -4
  44 0002 0646     		mov	r6, r0
  17:Core/Src/Record.c **** 	uint32_t address=start_adress_sector1;
  45              		.loc 1 17 2 is_stmt 1 view .LVU2
  46              		.loc 1 17 11 is_stmt 0 view .LVU3
  47 0004 144B     		ldr	r3, .L13
  48 0006 1C68     		ldr	r4, [r3]
  49              	.LVL1:
  18:Core/Src/Record.c **** 
  19:Core/Src/Record.c **** 	for(int i=0; i < NUMBER_OF_SQUARES_X; i++)
  50              		.loc 1 19 2 is_stmt 1 view .LVU4
  51              	.LBB2:
  52              		.loc 1 19 6 view .LVU5
  53              		.loc 1 19 10 is_stmt 0 view .LVU6
  54 0008 0027     		movs	r7, #0
  55              		.loc 1 19 2 view .LVU7
  56 000a 0CE0     		b	.L2
  57              	.LVL2:
  58              	.L3:
  59              	.LBB3:
  20:Core/Src/Record.c **** 	{
  21:Core/Src/Record.c **** 			for(int j=0; j < NUMBER_OF_SQUARES_Y+1; j++)
  22:Core/Src/Record.c **** 			{
  23:Core/Src/Record.c **** 				FLASH_Write_Word(address+0, maze->RawNode[i][j].existence);
  60              		.loc 1 23 5 is_stmt 1 discriminator 3 view .LVU8
  61              		.loc 1 23 52 is_stmt 0 discriminator 3 view .LVU9
  62 000c 07EB0713 		add	r3, r7, r7, lsl #4
  63 0010 2B44     		add	r3, r3, r5
  64              		.loc 1 23 5 discriminator 3 view .LVU10
  65 0012 16F83310 		ldrb	r1, [r6, r3, lsl #3]	@ zero_extendqisi2
  66 0016 2046     		mov	r0, r4
  67 0018 FFF7FEFF 		bl	FLASH_Write_Word
  68              	.LVL3:
  24:Core/Src/Record.c **** 				address += 4;
  69              		.loc 1 24 5 is_stmt 1 discriminator 3 view .LVU11
  70              		.loc 1 24 13 is_stmt 0 discriminator 3 view .LVU12
  71 001c 0434     		adds	r4, r4, #4
  72              	.LVL4:
  21:Core/Src/Record.c **** 			{
  73              		.loc 1 21 44 is_stmt 1 discriminator 3 view .LVU13
  21:Core/Src/Record.c **** 			{
  74              		.loc 1 21 45 is_stmt 0 discriminator 3 view .LVU14
  75 001e 0135     		adds	r5, r5, #1
  76              	.LVL5:
  77              	.L4:
  21:Core/Src/Record.c **** 			{
  78              		.loc 1 21 17 is_stmt 1 discriminator 1 view .LVU15
  21:Core/Src/Record.c **** 			{
  79              		.loc 1 21 4 is_stmt 0 discriminator 1 view .LVU16
  80 0020 102D     		cmp	r5, #16
  81 0022 F3DD     		ble	.L3
  21:Core/Src/Record.c **** 			{
  82              		.loc 1 21 4 discriminator 1 view .LVU17
  83              	.LBE3:
  19:Core/Src/Record.c **** 	{
  84              		.loc 1 19 40 is_stmt 1 discriminator 2 view .LVU18
  19:Core/Src/Record.c **** 	{
ARM GAS  /var/folders/v_/kwz_t0cs68g1q1d733r227b80000gn/T//ccdIQ2Sq.s 			page 3


  85              		.loc 1 19 41 is_stmt 0 discriminator 2 view .LVU19
  86 0024 0137     		adds	r7, r7, #1
  87              	.LVL6:
  88              	.L2:
  19:Core/Src/Record.c **** 	{
  89              		.loc 1 19 15 is_stmt 1 discriminator 1 view .LVU20
  19:Core/Src/Record.c **** 	{
  90              		.loc 1 19 2 is_stmt 0 discriminator 1 view .LVU21
  91 0026 0F2F     		cmp	r7, #15
  92 0028 01DC     		bgt	.L11
  93              	.LBB4:
  21:Core/Src/Record.c **** 			{
  94              		.loc 1 21 12 view .LVU22
  95 002a 0025     		movs	r5, #0
  96 002c F8E7     		b	.L4
  97              	.L11:
  98              	.LBE4:
  99              	.LBE2:
 100              	.LBB5:
  25:Core/Src/Record.c **** 			}
  26:Core/Src/Record.c **** 	}//2*N*(N+1)*4byte = 64*33*4byte
  27:Core/Src/Record.c **** 	//列
  28:Core/Src/Record.c **** 	for(int i=0; i < NUMBER_OF_SQUARES_X+1; i++)
 101              		.loc 1 28 10 view .LVU23
 102 002e 0027     		movs	r7, #0
 103              	.LVL7:
 104              		.loc 1 28 10 view .LVU24
 105 0030 0DE0     		b	.L5
 106              	.LVL8:
 107              	.L6:
 108              	.LBB6:
  29:Core/Src/Record.c **** 	{
  30:Core/Src/Record.c **** 			for(int j=0; j < NUMBER_OF_SQUARES_Y; j++)
  31:Core/Src/Record.c **** 			{
  32:Core/Src/Record.c **** 				FLASH_Write_Word(address+0, maze->ColumnNode[i][j].existence);
 109              		.loc 1 32 5 is_stmt 1 discriminator 3 view .LVU25
 110              		.loc 1 32 55 is_stmt 0 discriminator 3 view .LVU26
 111 0032 05EB0713 		add	r3, r5, r7, lsl #4
 112 0036 03F58873 		add	r3, r3, #272
 113              		.loc 1 32 5 discriminator 3 view .LVU27
 114 003a 16F83310 		ldrb	r1, [r6, r3, lsl #3]	@ zero_extendqisi2
 115 003e 2046     		mov	r0, r4
 116 0040 FFF7FEFF 		bl	FLASH_Write_Word
 117              	.LVL9:
  33:Core/Src/Record.c **** 				address += 4;
 118              		.loc 1 33 5 is_stmt 1 discriminator 3 view .LVU28
 119              		.loc 1 33 13 is_stmt 0 discriminator 3 view .LVU29
 120 0044 0434     		adds	r4, r4, #4
 121              	.LVL10:
  30:Core/Src/Record.c **** 			{
 122              		.loc 1 30 42 is_stmt 1 discriminator 3 view .LVU30
  30:Core/Src/Record.c **** 			{
 123              		.loc 1 30 43 is_stmt 0 discriminator 3 view .LVU31
 124 0046 0135     		adds	r5, r5, #1
 125              	.LVL11:
 126              	.L7:
  30:Core/Src/Record.c **** 			{
ARM GAS  /var/folders/v_/kwz_t0cs68g1q1d733r227b80000gn/T//ccdIQ2Sq.s 			page 4


 127              		.loc 1 30 17 is_stmt 1 discriminator 1 view .LVU32
  30:Core/Src/Record.c **** 			{
 128              		.loc 1 30 4 is_stmt 0 discriminator 1 view .LVU33
 129 0048 0F2D     		cmp	r5, #15
 130 004a F2DD     		ble	.L6
  30:Core/Src/Record.c **** 			{
 131              		.loc 1 30 4 discriminator 1 view .LVU34
 132              	.LBE6:
  28:Core/Src/Record.c **** 	{
 133              		.loc 1 28 42 is_stmt 1 discriminator 2 view .LVU35
  28:Core/Src/Record.c **** 	{
 134              		.loc 1 28 43 is_stmt 0 discriminator 2 view .LVU36
 135 004c 0137     		adds	r7, r7, #1
 136              	.LVL12:
 137              	.L5:
  28:Core/Src/Record.c **** 	{
 138              		.loc 1 28 15 is_stmt 1 discriminator 1 view .LVU37
  28:Core/Src/Record.c **** 	{
 139              		.loc 1 28 2 is_stmt 0 discriminator 1 view .LVU38
 140 004e 102F     		cmp	r7, #16
 141 0050 01DC     		bgt	.L12
 142              	.LBB7:
  30:Core/Src/Record.c **** 			{
 143              		.loc 1 30 12 view .LVU39
 144 0052 0025     		movs	r5, #0
 145 0054 F8E7     		b	.L7
 146              	.L12:
 147              	.LBE7:
 148              	.LBE5:
  34:Core/Src/Record.c **** 			}
  35:Core/Src/Record.c **** 	}
  36:Core/Src/Record.c **** }
 149              		.loc 1 36 1 view .LVU40
 150 0056 F8BD     		pop	{r3, r4, r5, r6, r7, pc}
 151              	.LVL13:
 152              	.L14:
 153              		.loc 1 36 1 view .LVU41
 154              		.align	2
 155              	.L13:
 156 0058 00000000 		.word	start_adress_sector1
 157              		.cfi_endproc
 158              	.LFE238:
 160              		.section	.rodata.wall_flash_print.str1.4,"aMS",%progbits,1
 161              		.align	2
 162              	.LC0:
 163 0000 256C7500 		.ascii	"%lu\000"
 164              		.align	2
 165              	.LC1:
 166 0004 0D00     		.ascii	"\015\000"
 167              		.section	.text.wall_flash_print,"ax",%progbits
 168              		.align	1
 169              		.global	wall_flash_print
 170              		.syntax unified
 171              		.thumb
 172              		.thumb_func
 173              		.fpu fpv4-sp-d16
 175              	wall_flash_print:
ARM GAS  /var/folders/v_/kwz_t0cs68g1q1d733r227b80000gn/T//ccdIQ2Sq.s 			page 5


 176              	.LFB239:
  37:Core/Src/Record.c **** 
  38:Core/Src/Record.c **** void wall_flash_print()
  39:Core/Src/Record.c **** {
 177              		.loc 1 39 1 is_stmt 1 view -0
 178              		.cfi_startproc
 179              		@ args = 0, pretend = 0, frame = 8
 180              		@ frame_needed = 0, uses_anonymous_args = 0
 181 0000 70B5     		push	{r4, r5, r6, lr}
 182              	.LCFI1:
 183              		.cfi_def_cfa_offset 16
 184              		.cfi_offset 4, -16
 185              		.cfi_offset 5, -12
 186              		.cfi_offset 6, -8
 187              		.cfi_offset 14, -4
 188 0002 82B0     		sub	sp, sp, #8
 189              	.LCFI2:
 190              		.cfi_def_cfa_offset 24
  40:Core/Src/Record.c **** 	uint32_t address = start_adress_sector1;
 191              		.loc 1 40 2 view .LVU43
 192              		.loc 1 40 11 is_stmt 0 view .LVU44
 193 0004 164B     		ldr	r3, .L24
 194 0006 1D68     		ldr	r5, [r3]
 195              	.LVL14:
  41:Core/Src/Record.c **** 	address += (NUMBER_OF_SQUARES_X-1) * 16*NUMBER_OF_SQUARES_Y;
 196              		.loc 1 41 2 is_stmt 1 view .LVU45
 197              		.loc 1 41 10 is_stmt 0 view .LVU46
 198 0008 05F57065 		add	r5, r5, #3840
 199              	.LVL15:
  42:Core/Src/Record.c **** 
  43:Core/Src/Record.c **** 	for(int i=0; i < NUMBER_OF_SQUARES_X ; i++)
 200              		.loc 1 43 2 is_stmt 1 view .LVU47
 201              	.LBB8:
 202              		.loc 1 43 6 view .LVU48
 203              		.loc 1 43 10 is_stmt 0 view .LVU49
 204 000c 0026     		movs	r6, #0
 205              		.loc 1 43 2 view .LVU50
 206 000e 05E0     		b	.L16
 207              	.LVL16:
 208              	.L23:
  44:Core/Src/Record.c **** 	{
  45:Core/Src/Record.c **** 		for(int j=0; j < NUMBER_OF_SQUARES_Y*4 ; j++)
  46:Core/Src/Record.c **** 		{
  47:Core/Src/Record.c **** 			uint32_t wall_data=0;
  48:Core/Src/Record.c **** 			//printf("%lu %lu\r\n",address,wall_data);
  49:Core/Src/Record.c **** 			FLASH_Read_Word(address, &wall_data);
  50:Core/Src/Record.c **** 			printf("%lu",wall_data);
  51:Core/Src/Record.c **** 			address+= 0x04;
  52:Core/Src/Record.c **** 			if( (j+1)%4 == 0)
  53:Core/Src/Record.c **** 			{
  54:Core/Src/Record.c **** 				printf(" ");
  55:Core/Src/Record.c **** 			}
  56:Core/Src/Record.c **** 		}
  57:Core/Src/Record.c **** 		address -= 2*16*NUMBER_OF_SQUARES_X;
 209              		.loc 1 57 3 is_stmt 1 discriminator 2 view .LVU51
 210              		.loc 1 57 11 is_stmt 0 discriminator 2 view .LVU52
 211 0010 A5F50075 		sub	r5, r5, #512
ARM GAS  /var/folders/v_/kwz_t0cs68g1q1d733r227b80000gn/T//ccdIQ2Sq.s 			page 6


 212              	.LVL17:
  58:Core/Src/Record.c **** 		printf("\r\n");
 213              		.loc 1 58 3 is_stmt 1 discriminator 2 view .LVU53
 214 0014 1348     		ldr	r0, .L24+4
 215 0016 FFF7FEFF 		bl	puts
 216              	.LVL18:
  43:Core/Src/Record.c **** 	{
 217              		.loc 1 43 41 discriminator 2 view .LVU54
  43:Core/Src/Record.c **** 	{
 218              		.loc 1 43 42 is_stmt 0 discriminator 2 view .LVU55
 219 001a 0136     		adds	r6, r6, #1
 220              	.LVL19:
 221              	.L16:
  43:Core/Src/Record.c **** 	{
 222              		.loc 1 43 15 is_stmt 1 discriminator 1 view .LVU56
  43:Core/Src/Record.c **** 	{
 223              		.loc 1 43 2 is_stmt 0 discriminator 1 view .LVU57
 224 001c 0F2E     		cmp	r6, #15
 225 001e 15DC     		bgt	.L22
 226              	.LBB9:
  45:Core/Src/Record.c **** 		{
 227              		.loc 1 45 11 view .LVU58
 228 0020 0024     		movs	r4, #0
 229              	.L19:
 230              	.LVL20:
  45:Core/Src/Record.c **** 		{
 231              		.loc 1 45 16 is_stmt 1 discriminator 1 view .LVU59
  45:Core/Src/Record.c **** 		{
 232              		.loc 1 45 3 is_stmt 0 discriminator 1 view .LVU60
 233 0022 3F2C     		cmp	r4, #63
 234 0024 F4DC     		bgt	.L23
 235              	.LBB10:
  47:Core/Src/Record.c **** 			//printf("%lu %lu\r\n",address,wall_data);
 236              		.loc 1 47 4 is_stmt 1 view .LVU61
  47:Core/Src/Record.c **** 			//printf("%lu %lu\r\n",address,wall_data);
 237              		.loc 1 47 13 is_stmt 0 view .LVU62
 238 0026 0023     		movs	r3, #0
 239 0028 0193     		str	r3, [sp, #4]
  49:Core/Src/Record.c **** 			printf("%lu",wall_data);
 240              		.loc 1 49 4 is_stmt 1 view .LVU63
 241 002a 01A9     		add	r1, sp, #4
 242 002c 2846     		mov	r0, r5
 243 002e FFF7FEFF 		bl	FLASH_Read_Word
 244              	.LVL21:
  50:Core/Src/Record.c **** 			address+= 0x04;
 245              		.loc 1 50 4 view .LVU64
 246 0032 0199     		ldr	r1, [sp, #4]
 247 0034 0C48     		ldr	r0, .L24+8
 248 0036 FFF7FEFF 		bl	printf
 249              	.LVL22:
  51:Core/Src/Record.c **** 			if( (j+1)%4 == 0)
 250              		.loc 1 51 4 view .LVU65
  51:Core/Src/Record.c **** 			if( (j+1)%4 == 0)
 251              		.loc 1 51 11 is_stmt 0 view .LVU66
 252 003a 0435     		adds	r5, r5, #4
 253              	.LVL23:
  52:Core/Src/Record.c **** 			{
ARM GAS  /var/folders/v_/kwz_t0cs68g1q1d733r227b80000gn/T//ccdIQ2Sq.s 			page 7


 254              		.loc 1 52 4 is_stmt 1 view .LVU67
  52:Core/Src/Record.c **** 			{
 255              		.loc 1 52 10 is_stmt 0 view .LVU68
 256 003c 0134     		adds	r4, r4, #1
 257              	.LVL24:
  52:Core/Src/Record.c **** 			{
 258              		.loc 1 52 6 view .LVU69
 259 003e 14F0030F 		tst	r4, #3
 260 0042 EED1     		bne	.L19
  54:Core/Src/Record.c **** 			}
 261              		.loc 1 54 5 is_stmt 1 view .LVU70
 262 0044 2020     		movs	r0, #32
 263 0046 FFF7FEFF 		bl	putchar
 264              	.LVL25:
 265              	.LBE10:
  45:Core/Src/Record.c **** 		{
 266              		.loc 1 45 44 view .LVU71
  45:Core/Src/Record.c **** 		{
 267              		.loc 1 45 44 is_stmt 0 view .LVU72
 268 004a EAE7     		b	.L19
 269              	.LVL26:
 270              	.L22:
  45:Core/Src/Record.c **** 		{
 271              		.loc 1 45 44 view .LVU73
 272              	.LBE9:
 273              	.LBE8:
  59:Core/Src/Record.c **** 	}
  60:Core/Src/Record.c **** 
  61:Core/Src/Record.c **** 	printf("\r\n");
 274              		.loc 1 61 2 is_stmt 1 view .LVU74
 275 004c 054C     		ldr	r4, .L24+4
 276 004e 2046     		mov	r0, r4
 277 0050 FFF7FEFF 		bl	puts
 278              	.LVL27:
  62:Core/Src/Record.c **** 	printf("\r\n");
 279              		.loc 1 62 2 view .LVU75
 280 0054 2046     		mov	r0, r4
 281 0056 FFF7FEFF 		bl	puts
 282              	.LVL28:
  63:Core/Src/Record.c **** 
  64:Core/Src/Record.c **** }
 283              		.loc 1 64 1 is_stmt 0 view .LVU76
 284 005a 02B0     		add	sp, sp, #8
 285              	.LCFI3:
 286              		.cfi_def_cfa_offset 16
 287              		@ sp needed
 288 005c 70BD     		pop	{r4, r5, r6, pc}
 289              	.LVL29:
 290              	.L25:
 291              		.loc 1 64 1 view .LVU77
 292 005e 00BF     		.align	2
 293              	.L24:
 294 0060 00000000 		.word	start_adress_sector1
 295 0064 04000000 		.word	.LC1
 296 0068 00000000 		.word	.LC0
 297              		.cfi_endproc
 298              	.LFE239:
ARM GAS  /var/folders/v_/kwz_t0cs68g1q1d733r227b80000gn/T//ccdIQ2Sq.s 			page 8


 300              		.section	.text.flashCopyNodesToRam,"ax",%progbits
 301              		.align	1
 302              		.global	flashCopyNodesToRam
 303              		.syntax unified
 304              		.thumb
 305              		.thumb_func
 306              		.fpu fpv4-sp-d16
 308              	flashCopyNodesToRam:
 309              	.LVL30:
 310              	.LFB240:
  65:Core/Src/Record.c **** //評価値マップ生成。
  66:Core/Src/Record.c **** void flashCopyNodesToRam(maze_node *maze)
  67:Core/Src/Record.c **** {
 311              		.loc 1 67 1 is_stmt 1 view -0
 312              		.cfi_startproc
 313              		@ args = 0, pretend = 0, frame = 8
 314              		@ frame_needed = 0, uses_anonymous_args = 0
 315              		.loc 1 67 1 is_stmt 0 view .LVU79
 316 0000 F0B5     		push	{r4, r5, r6, r7, lr}
 317              	.LCFI4:
 318              		.cfi_def_cfa_offset 20
 319              		.cfi_offset 4, -20
 320              		.cfi_offset 5, -16
 321              		.cfi_offset 6, -12
 322              		.cfi_offset 7, -8
 323              		.cfi_offset 14, -4
 324 0002 83B0     		sub	sp, sp, #12
 325              	.LCFI5:
 326              		.cfi_def_cfa_offset 32
 327 0004 0646     		mov	r6, r0
  68:Core/Src/Record.c **** 	uint32_t address=start_adress_sector1;
 328              		.loc 1 68 2 is_stmt 1 view .LVU80
 329              		.loc 1 68 11 is_stmt 0 view .LVU81
 330 0006 194B     		ldr	r3, .L38
 331 0008 1C68     		ldr	r4, [r3]
 332              	.LVL31:
  69:Core/Src/Record.c **** 
  70:Core/Src/Record.c **** 	for(int i=0; i < NUMBER_OF_SQUARES_X; i++)
 333              		.loc 1 70 2 is_stmt 1 view .LVU82
 334              	.LBB11:
 335              		.loc 1 70 6 view .LVU83
 336              		.loc 1 70 10 is_stmt 0 view .LVU84
 337 000a 0027     		movs	r7, #0
 338              		.loc 1 70 2 view .LVU85
 339 000c 10E0     		b	.L27
 340              	.LVL32:
 341              	.L28:
 342              	.LBB12:
 343              	.LBB13:
  71:Core/Src/Record.c **** 	{
  72:Core/Src/Record.c **** 			for(int j=0; j < NUMBER_OF_SQUARES_Y+1; j++)
  73:Core/Src/Record.c **** 			{
  74:Core/Src/Record.c **** 				uint32_t wall_data=0;
 344              		.loc 1 74 5 is_stmt 1 discriminator 3 view .LVU86
 345              		.loc 1 74 14 is_stmt 0 discriminator 3 view .LVU87
 346 000e 0023     		movs	r3, #0
 347 0010 0193     		str	r3, [sp, #4]
ARM GAS  /var/folders/v_/kwz_t0cs68g1q1d733r227b80000gn/T//ccdIQ2Sq.s 			page 9


  75:Core/Src/Record.c **** 				FLASH_Read_Word(address, &wall_data);
 348              		.loc 1 75 5 is_stmt 1 discriminator 3 view .LVU88
 349 0012 01A9     		add	r1, sp, #4
 350 0014 2046     		mov	r0, r4
 351 0016 FFF7FEFF 		bl	FLASH_Read_Word
 352              	.LVL33:
  76:Core/Src/Record.c **** 				maze->RawNode[i][j].existence = wall_data;
 353              		.loc 1 76 5 discriminator 3 view .LVU89
 354              		.loc 1 76 35 is_stmt 0 discriminator 3 view .LVU90
 355 001a 07EB0713 		add	r3, r7, r7, lsl #4
 356 001e 2B44     		add	r3, r3, r5
 357 0020 019A     		ldr	r2, [sp, #4]
 358 0022 06F83320 		strb	r2, [r6, r3, lsl #3]
  77:Core/Src/Record.c **** 				address += sizeof(wall_data);
 359              		.loc 1 77 5 is_stmt 1 discriminator 3 view .LVU91
 360              		.loc 1 77 13 is_stmt 0 discriminator 3 view .LVU92
 361 0026 0434     		adds	r4, r4, #4
 362              	.LVL34:
 363              		.loc 1 77 13 discriminator 3 view .LVU93
 364              	.LBE13:
  72:Core/Src/Record.c **** 			{
 365              		.loc 1 72 44 is_stmt 1 discriminator 3 view .LVU94
  72:Core/Src/Record.c **** 			{
 366              		.loc 1 72 45 is_stmt 0 discriminator 3 view .LVU95
 367 0028 0135     		adds	r5, r5, #1
 368              	.LVL35:
 369              	.L29:
  72:Core/Src/Record.c **** 			{
 370              		.loc 1 72 17 is_stmt 1 discriminator 1 view .LVU96
  72:Core/Src/Record.c **** 			{
 371              		.loc 1 72 4 is_stmt 0 discriminator 1 view .LVU97
 372 002a 102D     		cmp	r5, #16
 373 002c EFDD     		ble	.L28
  72:Core/Src/Record.c **** 			{
 374              		.loc 1 72 4 discriminator 1 view .LVU98
 375              	.LBE12:
  70:Core/Src/Record.c **** 	{
 376              		.loc 1 70 40 is_stmt 1 discriminator 2 view .LVU99
  70:Core/Src/Record.c **** 	{
 377              		.loc 1 70 41 is_stmt 0 discriminator 2 view .LVU100
 378 002e 0137     		adds	r7, r7, #1
 379              	.LVL36:
 380              	.L27:
  70:Core/Src/Record.c **** 	{
 381              		.loc 1 70 15 is_stmt 1 discriminator 1 view .LVU101
  70:Core/Src/Record.c **** 	{
 382              		.loc 1 70 2 is_stmt 0 discriminator 1 view .LVU102
 383 0030 0F2F     		cmp	r7, #15
 384 0032 01DC     		bgt	.L36
 385              	.LBB14:
  72:Core/Src/Record.c **** 			{
 386              		.loc 1 72 12 view .LVU103
 387 0034 0025     		movs	r5, #0
 388 0036 F8E7     		b	.L29
 389              	.L36:
 390              	.LBE14:
 391              	.LBE11:
ARM GAS  /var/folders/v_/kwz_t0cs68g1q1d733r227b80000gn/T//ccdIQ2Sq.s 			page 10


 392              	.LBB15:
  78:Core/Src/Record.c **** 			}
  79:Core/Src/Record.c **** 	}
  80:Core/Src/Record.c **** 	for(int i=0; i < NUMBER_OF_SQUARES_X+1; i++)
 393              		.loc 1 80 10 view .LVU104
 394 0038 0027     		movs	r7, #0
 395              	.LVL37:
 396              		.loc 1 80 10 view .LVU105
 397 003a 11E0     		b	.L30
 398              	.LVL38:
 399              	.L31:
 400              	.LBB16:
 401              	.LBB17:
  81:Core/Src/Record.c **** 	{
  82:Core/Src/Record.c **** 			for(int j=0; j < NUMBER_OF_SQUARES_Y; j++)
  83:Core/Src/Record.c **** 			{
  84:Core/Src/Record.c **** 				uint32_t wall_data=0;
 402              		.loc 1 84 5 is_stmt 1 discriminator 3 view .LVU106
 403              		.loc 1 84 14 is_stmt 0 discriminator 3 view .LVU107
 404 003c 0023     		movs	r3, #0
 405 003e 0193     		str	r3, [sp, #4]
  85:Core/Src/Record.c **** 				FLASH_Read_Word(address, &wall_data);
 406              		.loc 1 85 5 is_stmt 1 discriminator 3 view .LVU108
 407 0040 01A9     		add	r1, sp, #4
 408 0042 2046     		mov	r0, r4
 409 0044 FFF7FEFF 		bl	FLASH_Read_Word
 410              	.LVL39:
  86:Core/Src/Record.c **** 				maze->ColumnNode[i][j].existence = wall_data;
 411              		.loc 1 86 5 discriminator 3 view .LVU109
 412              		.loc 1 86 38 is_stmt 0 discriminator 3 view .LVU110
 413 0048 05EB0713 		add	r3, r5, r7, lsl #4
 414 004c 03F58873 		add	r3, r3, #272
 415 0050 019A     		ldr	r2, [sp, #4]
 416 0052 06F83320 		strb	r2, [r6, r3, lsl #3]
  87:Core/Src/Record.c **** 				address += sizeof(wall_data);
 417              		.loc 1 87 5 is_stmt 1 discriminator 3 view .LVU111
 418              		.loc 1 87 13 is_stmt 0 discriminator 3 view .LVU112
 419 0056 0434     		adds	r4, r4, #4
 420              	.LVL40:
 421              		.loc 1 87 13 discriminator 3 view .LVU113
 422              	.LBE17:
  82:Core/Src/Record.c **** 			{
 423              		.loc 1 82 42 is_stmt 1 discriminator 3 view .LVU114
  82:Core/Src/Record.c **** 			{
 424              		.loc 1 82 43 is_stmt 0 discriminator 3 view .LVU115
 425 0058 0135     		adds	r5, r5, #1
 426              	.LVL41:
 427              	.L32:
  82:Core/Src/Record.c **** 			{
 428              		.loc 1 82 17 is_stmt 1 discriminator 1 view .LVU116
  82:Core/Src/Record.c **** 			{
 429              		.loc 1 82 4 is_stmt 0 discriminator 1 view .LVU117
 430 005a 0F2D     		cmp	r5, #15
 431 005c EEDD     		ble	.L31
  82:Core/Src/Record.c **** 			{
 432              		.loc 1 82 4 discriminator 1 view .LVU118
 433              	.LBE16:
ARM GAS  /var/folders/v_/kwz_t0cs68g1q1d733r227b80000gn/T//ccdIQ2Sq.s 			page 11


  80:Core/Src/Record.c **** 	{
 434              		.loc 1 80 42 is_stmt 1 discriminator 2 view .LVU119
  80:Core/Src/Record.c **** 	{
 435              		.loc 1 80 43 is_stmt 0 discriminator 2 view .LVU120
 436 005e 0137     		adds	r7, r7, #1
 437              	.LVL42:
 438              	.L30:
  80:Core/Src/Record.c **** 	{
 439              		.loc 1 80 15 is_stmt 1 discriminator 1 view .LVU121
  80:Core/Src/Record.c **** 	{
 440              		.loc 1 80 2 is_stmt 0 discriminator 1 view .LVU122
 441 0060 102F     		cmp	r7, #16
 442 0062 01DC     		bgt	.L37
 443              	.LBB18:
  82:Core/Src/Record.c **** 			{
 444              		.loc 1 82 12 view .LVU123
 445 0064 0025     		movs	r5, #0
 446 0066 F8E7     		b	.L32
 447              	.L37:
 448              	.LBE18:
 449              	.LBE15:
  88:Core/Src/Record.c **** 			}
  89:Core/Src/Record.c **** 	}
  90:Core/Src/Record.c **** }
 450              		.loc 1 90 1 view .LVU124
 451 0068 03B0     		add	sp, sp, #12
 452              	.LCFI6:
 453              		.cfi_def_cfa_offset 20
 454              		@ sp needed
 455 006a F0BD     		pop	{r4, r5, r6, r7, pc}
 456              	.LVL43:
 457              	.L39:
 458              		.loc 1 90 1 view .LVU125
 459              		.align	2
 460              	.L38:
 461 006c 00000000 		.word	start_adress_sector1
 462              		.cfi_endproc
 463              	.LFE240:
 465              		.text
 466              	.Letext0:
 467              		.file 2 "/usr/local/Cellar/arm-none-eabi-gcc/10.3-2021.07/gcc/arm-none-eabi/include/machine/_defau
 468              		.file 3 "/usr/local/Cellar/arm-none-eabi-gcc/10.3-2021.07/gcc/arm-none-eabi/include/sys/_stdint.h"
 469              		.file 4 "Core/Inc/MazeLib.h"
 470              		.file 5 "Core/Inc/Flash.h"
 471              		.file 6 "/usr/local/Cellar/arm-none-eabi-gcc/10.3-2021.07/gcc/arm-none-eabi/include/stdio.h"
 472              		.file 7 "<built-in>"
ARM GAS  /var/folders/v_/kwz_t0cs68g1q1d733r227b80000gn/T//ccdIQ2Sq.s 			page 12

