ARM GAS  C:\Users\leopi\AppData\Local\Temp\cc19K7kN.s 			page 1


   1              		.cpu cortex-m4
   2              		.arch armv7e-m
   3              		.fpu fpv4-sp-d16
   4              		.eabi_attribute 27, 1
   5              		.eabi_attribute 28, 1
   6              		.eabi_attribute 20, 1
   7              		.eabi_attribute 21, 1
   8              		.eabi_attribute 23, 3
   9              		.eabi_attribute 24, 1
  10              		.eabi_attribute 25, 1
  11              		.eabi_attribute 26, 1
  12              		.eabi_attribute 30, 1
  13              		.eabi_attribute 34, 1
  14              		.eabi_attribute 18, 4
  15              		.file	"Searching.c"
  16              		.text
  17              	.Ltext0:
  18              		.cfi_sections	.debug_frame
  19              		.section	.text.updateNodeThree,"ax",%progbits
  20              		.align	1
  21              		.global	updateNodeThree
  22              		.syntax unified
  23              		.thumb
  24              		.thumb_func
  26              	updateNodeThree:
  27              	.LVL0:
  28              	.LFB3:
  29              		.file 1 "C:/Users/leopi/Documents/vs/S-Reo/MazeLibrary/Searching.c"
   1:C:/Users/leopi/Documents/vs/S-Reo/MazeLibrary\Searching.c **** /*
   2:C:/Users/leopi/Documents/vs/S-Reo/MazeLibrary\Searching.c ****  * Search.c
   3:C:/Users/leopi/Documents/vs/S-Reo/MazeLibrary\Searching.c ****  *
   4:C:/Users/leopi/Documents/vs/S-Reo/MazeLibrary\Searching.c ****  *  Created on: 2022/10/28
   5:C:/Users/leopi/Documents/vs/S-Reo/MazeLibrary\Searching.c ****  *      Author: leopi
   6:C:/Users/leopi/Documents/vs/S-Reo/MazeLibrary\Searching.c ****  */
   7:C:/Users/leopi/Documents/vs/S-Reo/MazeLibrary\Searching.c **** 
   8:C:/Users/leopi/Documents/vs/S-Reo/MazeLibrary\Searching.c **** // SearchとFastRunで分けて、Runningで統合する
   9:C:/Users/leopi/Documents/vs/S-Reo/MazeLibrary\Searching.c **** #include "Searching.h"
  10:C:/Users/leopi/Documents/vs/S-Reo/MazeLibrary\Searching.c **** #include "dfs.h"
  11:C:/Users/leopi/Documents/vs/S-Reo/MazeLibrary\Searching.c **** 
  12:C:/Users/leopi/Documents/vs/S-Reo/MazeLibrary\Searching.c **** // 探索中: 座標の4方向の壁の有無を更新
  13:C:/Users/leopi/Documents/vs/S-Reo/MazeLibrary\Searching.c **** void updateNodeThree(maze_node *maze, wall_existence *wall, uint8_t x, uint8_t y)
  14:C:/Users/leopi/Documents/vs/S-Reo/MazeLibrary\Searching.c **** {
  30              		.loc 1 14 1 view -0
  31              		.cfi_startproc
  32              		@ args = 0, pretend = 0, frame = 0
  33              		@ frame_needed = 0, uses_anonymous_args = 0
  34              		.loc 1 14 1 is_stmt 0 view .LVU1
  35 0000 70B5     		push	{r4, r5, r6, lr}
  36              	.LCFI0:
  37              		.cfi_def_cfa_offset 16
  38              		.cfi_offset 4, -16
  39              		.cfi_offset 5, -12
  40              		.cfi_offset 6, -8
  41              		.cfi_offset 14, -4
  15:C:/Users/leopi/Documents/vs/S-Reo/MazeLibrary\Searching.c ****     //壁の有無の更新。既知の壁には上書きしない。重みの更新は？既知か
  16:C:/Users/leopi/Documents/vs/S-Reo/MazeLibrary\Searching.c ****         //重みは？壁があればMAX値、なければそのまま
  17:C:/Users/leopi/Documents/vs/S-Reo/MazeLibrary\Searching.c ****     maze->RawNode[x][y+1].existence = (maze->RawNode[x][y+1].existence == UNKNOWN) ? wall->north : 
ARM GAS  C:\Users\leopi\AppData\Local\Temp\cc19K7kN.s 			page 2


  42              		.loc 1 17 5 is_stmt 1 view .LVU2
  43              		.loc 1 17 58 is_stmt 0 view .LVU3
  44 0002 03F1010E 		add	lr, r3, #1
  45              		.loc 1 17 61 view .LVU4
  46 0006 02EB4214 		add	r4, r2, r2, lsl #5
  47 000a 7444     		add	r4, r4, lr
  48 000c 10F83440 		ldrb	r4, [r0, r4, lsl #3]	@ zero_extendqisi2
  49              		.loc 1 17 37 view .LVU5
  50 0010 022C     		cmp	r4, #2
  51 0012 5CD0     		beq	.L7
  52              	.L2:
  53              		.loc 1 17 37 discriminator 4 view .LVU6
  54 0014 02EB4215 		add	r5, r2, r2, lsl #5
  55 0018 7544     		add	r5, r5, lr
  56 001a 00F83540 		strb	r4, [r0, r5, lsl #3]
  18:C:/Users/leopi/Documents/vs/S-Reo/MazeLibrary\Searching.c ****     maze->ColumnNode[x+1][y].existence = (maze->ColumnNode[x+1][y].existence == UNKNOWN) ? wall->ea
  57              		.loc 1 18 5 is_stmt 1 discriminator 4 view .LVU7
  58              		.loc 1 18 61 is_stmt 0 discriminator 4 view .LVU8
  59 001e 02F1010C 		add	ip, r2, #1
  60              		.loc 1 18 67 discriminator 4 view .LVU9
  61 0022 03EB4C14 		add	r4, r3, ip, lsl #5
  62 0026 04F58464 		add	r4, r4, #1056
  63 002a 10F83440 		ldrb	r4, [r0, r4, lsl #3]	@ zero_extendqisi2
  64              		.loc 1 18 40 discriminator 4 view .LVU10
  65 002e 022C     		cmp	r4, #2
  66 0030 51D0     		beq	.L8
  67              	.L3:
  68 0032 03EB4C15 		add	r5, r3, ip, lsl #5
  69 0036 05F58465 		add	r5, r5, #1056
  70 003a 00F83540 		strb	r4, [r0, r5, lsl #3]
  19:C:/Users/leopi/Documents/vs/S-Reo/MazeLibrary\Searching.c ****     maze->RawNode[x][y].existence = (maze->RawNode[x][y].existence == UNKNOWN) ? wall->south : maze
  71              		.loc 1 19 5 is_stmt 1 discriminator 4 view .LVU11
  72              		.loc 1 19 57 is_stmt 0 discriminator 4 view .LVU12
  73 003e 02EB4214 		add	r4, r2, r2, lsl #5
  74 0042 1C44     		add	r4, r4, r3
  75 0044 10F83450 		ldrb	r5, [r0, r4, lsl #3]	@ zero_extendqisi2
  76              		.loc 1 19 35 discriminator 4 view .LVU13
  77 0048 022D     		cmp	r5, #2
  78 004a 48D0     		beq	.L9
  79              	.L4:
  80 004c 02EB4214 		add	r4, r2, r2, lsl #5
  81 0050 1C44     		add	r4, r4, r3
  82 0052 00F83450 		strb	r5, [r0, r4, lsl #3]
  20:C:/Users/leopi/Documents/vs/S-Reo/MazeLibrary\Searching.c ****     maze->ColumnNode[x][y].existence = (maze->ColumnNode[x][y].existence == UNKNOWN) ? wall->west :
  83              		.loc 1 20 5 is_stmt 1 discriminator 4 view .LVU14
  84              		.loc 1 20 63 is_stmt 0 discriminator 4 view .LVU15
  85 0056 03EB4214 		add	r4, r3, r2, lsl #5
  86 005a 04F58464 		add	r4, r4, #1056
  87 005e 10F83440 		ldrb	r4, [r0, r4, lsl #3]	@ zero_extendqisi2
  88              		.loc 1 20 38 discriminator 4 view .LVU16
  89 0062 022C     		cmp	r4, #2
  90 0064 3FD0     		beq	.L10
  91              	.L5:
  92 0066 03EB4211 		add	r1, r3, r2, lsl #5
  93              	.LVL1:
  94              		.loc 1 20 38 discriminator 4 view .LVU17
  95 006a 01F58461 		add	r1, r1, #1056
ARM GAS  C:\Users\leopi\AppData\Local\Temp\cc19K7kN.s 			page 3


  96 006e 00F83140 		strb	r4, [r0, r1, lsl #3]
  21:C:/Users/leopi/Documents/vs/S-Reo/MazeLibrary\Searching.c **** 
  22:C:/Users/leopi/Documents/vs/S-Reo/MazeLibrary\Searching.c ****     // maze->RawNode[x][y+1].flag = true;      //北
  23:C:/Users/leopi/Documents/vs/S-Reo/MazeLibrary\Searching.c ****     // maze->ColumnNode[x+1][y].flag = true;   //東
  24:C:/Users/leopi/Documents/vs/S-Reo/MazeLibrary\Searching.c ****     // maze->RawNode[x][y].flag = true;        //南
  25:C:/Users/leopi/Documents/vs/S-Reo/MazeLibrary\Searching.c ****     // maze->ColumnNode[x][y].flag = true;     //西
  26:C:/Users/leopi/Documents/vs/S-Reo/MazeLibrary\Searching.c **** 
  27:C:/Users/leopi/Documents/vs/S-Reo/MazeLibrary\Searching.c ****     maze->RawNode[x][y+1].draw = (maze->RawNode[x][y+1].existence == WALL) ? true : false;         
  97              		.loc 1 27 5 is_stmt 1 discriminator 4 view .LVU18
  98              		.loc 1 27 56 is_stmt 0 discriminator 4 view .LVU19
  99 0072 02EB4212 		add	r2, r2, r2, lsl #5
 100              	.LVL2:
 101              		.loc 1 27 56 discriminator 4 view .LVU20
 102 0076 9644     		add	lr, lr, r2
 103 0078 10F83E60 		ldrb	r6, [r0, lr, lsl #3]	@ zero_extendqisi2
 104              		.loc 1 27 83 discriminator 4 view .LVU21
 105 007c 012E     		cmp	r6, #1
 106 007e 14BF     		ite	ne
 107 0080 0026     		movne	r6, #0
 108 0082 0126     		moveq	r6, #1
 109              		.loc 1 27 32 discriminator 4 view .LVU22
 110 0084 00EBCE0E 		add	lr, r0, lr, lsl #3
 111 0088 8EF80460 		strb	r6, [lr, #4]
  28:C:/Users/leopi/Documents/vs/S-Reo/MazeLibrary\Searching.c ****     maze->ColumnNode[x+1][y].draw = (maze->ColumnNode[x+1][y].existence == WALL) ? true : false;   
 112              		.loc 1 28 5 is_stmt 1 discriminator 4 view .LVU23
 113              		.loc 1 28 62 is_stmt 0 discriminator 4 view .LVU24
 114 008c 03EB4C1C 		add	ip, r3, ip, lsl #5
 115 0090 0CF5846C 		add	ip, ip, #1056
 116 0094 10F83CE0 		ldrb	lr, [r0, ip, lsl #3]	@ zero_extendqisi2
 117              		.loc 1 28 89 discriminator 4 view .LVU25
 118 0098 BEF1010F 		cmp	lr, #1
 119 009c 14BF     		ite	ne
 120 009e 4FF0000E 		movne	lr, #0
 121 00a2 4FF0010E 		moveq	lr, #1
 122              		.loc 1 28 35 discriminator 4 view .LVU26
 123 00a6 00EBCC0C 		add	ip, r0, ip, lsl #3
 124 00aa 8CF804E0 		strb	lr, [ip, #4]
  29:C:/Users/leopi/Documents/vs/S-Reo/MazeLibrary\Searching.c ****     maze->RawNode[x][y].draw = (maze->RawNode[x][y].existence == WALL) ? true : false;             
 125              		.loc 1 29 5 is_stmt 1 discriminator 4 view .LVU27
 126              		.loc 1 29 79 is_stmt 0 discriminator 4 view .LVU28
 127 00ae 012D     		cmp	r5, #1
 128 00b0 14BF     		ite	ne
 129 00b2 0025     		movne	r5, #0
 130 00b4 0125     		moveq	r5, #1
 131              		.loc 1 29 30 discriminator 4 view .LVU29
 132 00b6 1A44     		add	r2, r2, r3
 133 00b8 00EBC202 		add	r2, r0, r2, lsl #3
 134 00bc 1571     		strb	r5, [r2, #4]
  30:C:/Users/leopi/Documents/vs/S-Reo/MazeLibrary\Searching.c ****     maze->ColumnNode[x][y].draw = (maze->ColumnNode[x][y].existence == WALL) ? true : false;       
 135              		.loc 1 30 5 is_stmt 1 discriminator 4 view .LVU30
 136              		.loc 1 30 85 is_stmt 0 discriminator 4 view .LVU31
 137 00be 012C     		cmp	r4, #1
 138 00c0 14BF     		ite	ne
 139 00c2 0024     		movne	r4, #0
 140 00c4 0124     		moveq	r4, #1
 141              		.loc 1 30 33 discriminator 4 view .LVU32
 142 00c6 00EBC100 		add	r0, r0, r1, lsl #3
ARM GAS  C:\Users\leopi\AppData\Local\Temp\cc19K7kN.s 			page 4


 143              	.LVL3:
 144              		.loc 1 30 33 discriminator 4 view .LVU33
 145 00ca 0471     		strb	r4, [r0, #4]
  31:C:/Users/leopi/Documents/vs/S-Reo/MazeLibrary\Searching.c **** }
 146              		.loc 1 31 1 discriminator 4 view .LVU34
 147 00cc 70BD     		pop	{r4, r5, r6, pc}
 148              	.LVL4:
 149              	.L7:
  17:C:/Users/leopi/Documents/vs/S-Reo/MazeLibrary\Searching.c ****     maze->ColumnNode[x+1][y].existence = (maze->ColumnNode[x+1][y].existence == UNKNOWN) ? wall->ea
 150              		.loc 1 17 90 discriminator 1 view .LVU35
 151 00ce 0C78     		ldrb	r4, [r1]	@ zero_extendqisi2
 152 00d0 04F00304 		and	r4, r4, #3
 153 00d4 9EE7     		b	.L2
 154              	.L8:
  18:C:/Users/leopi/Documents/vs/S-Reo/MazeLibrary\Searching.c ****     maze->RawNode[x][y].existence = (maze->RawNode[x][y].existence == UNKNOWN) ? wall->south : maze
 155              		.loc 1 18 96 discriminator 1 view .LVU36
 156 00d6 0C78     		ldrb	r4, [r1]	@ zero_extendqisi2
 157 00d8 C4F38104 		ubfx	r4, r4, #2, #2
 158 00dc A9E7     		b	.L3
 159              	.L9:
  19:C:/Users/leopi/Documents/vs/S-Reo/MazeLibrary\Searching.c ****     maze->ColumnNode[x][y].existence = (maze->ColumnNode[x][y].existence == UNKNOWN) ? wall->west :
 160              		.loc 1 19 86 discriminator 1 view .LVU37
 161 00de 0D78     		ldrb	r5, [r1]	@ zero_extendqisi2
 162 00e0 C5F30115 		ubfx	r5, r5, #4, #2
 163 00e4 B2E7     		b	.L4
 164              	.L10:
  20:C:/Users/leopi/Documents/vs/S-Reo/MazeLibrary\Searching.c **** 
 165              		.loc 1 20 92 discriminator 1 view .LVU38
 166 00e6 0C78     		ldrb	r4, [r1]	@ zero_extendqisi2
 167 00e8 A409     		lsrs	r4, r4, #6
 168 00ea BCE7     		b	.L5
 169              		.cfi_endproc
 170              	.LFE3:
 172              		.section	.text.updateNodeDraw,"ax",%progbits
 173              		.align	1
 174              		.global	updateNodeDraw
 175              		.syntax unified
 176              		.thumb
 177              		.thumb_func
 179              	updateNodeDraw:
 180              	.LVL5:
 181              	.LFB4:
  32:C:/Users/leopi/Documents/vs/S-Reo/MazeLibrary\Searching.c **** void updateNodeDraw(maze_node *maze, uint8_t x, uint8_t y)
  33:C:/Users/leopi/Documents/vs/S-Reo/MazeLibrary\Searching.c **** {
 182              		.loc 1 33 1 is_stmt 1 view -0
 183              		.cfi_startproc
 184              		@ args = 0, pretend = 0, frame = 0
 185              		@ frame_needed = 0, uses_anonymous_args = 0
 186              		.loc 1 33 1 is_stmt 0 view .LVU40
 187 0000 00B5     		push	{lr}
 188              	.LCFI1:
 189              		.cfi_def_cfa_offset 4
 190              		.cfi_offset 14, -4
  34:C:/Users/leopi/Documents/vs/S-Reo/MazeLibrary\Searching.c ****     maze->RawNode[x][y+1].draw = maze->RawNode[x][y+1].existence;       //北
 191              		.loc 1 34 5 is_stmt 1 view .LVU41
 192              		.loc 1 34 52 is_stmt 0 view .LVU42
 193 0002 531C     		adds	r3, r2, #1
ARM GAS  C:\Users\leopi\AppData\Local\Temp\cc19K7kN.s 			page 5


 194              		.loc 1 34 55 view .LVU43
 195 0004 01EB411C 		add	ip, r1, r1, lsl #5
 196 0008 6344     		add	r3, r3, ip
 197 000a 10F833E0 		ldrb	lr, [r0, r3, lsl #3]	@ zero_extendqisi2
 198 000e BEF1000E 		subs	lr, lr, #0
 199 0012 18BF     		it	ne
 200 0014 4FF0010E 		movne	lr, #1
 201              		.loc 1 34 32 view .LVU44
 202 0018 00EBC303 		add	r3, r0, r3, lsl #3
 203 001c 83F804E0 		strb	lr, [r3, #4]
  35:C:/Users/leopi/Documents/vs/S-Reo/MazeLibrary\Searching.c ****     maze->ColumnNode[x+1][y].draw = maze->ColumnNode[x+1][y].existence; //東
 204              		.loc 1 35 5 is_stmt 1 view .LVU45
 205              		.loc 1 35 55 is_stmt 0 view .LVU46
 206 0020 4B1C     		adds	r3, r1, #1
 207              		.loc 1 35 61 view .LVU47
 208 0022 02EB4313 		add	r3, r2, r3, lsl #5
 209 0026 03F58463 		add	r3, r3, #1056
 210 002a 10F833E0 		ldrb	lr, [r0, r3, lsl #3]	@ zero_extendqisi2
 211 002e BEF1000E 		subs	lr, lr, #0
 212 0032 18BF     		it	ne
 213 0034 4FF0010E 		movne	lr, #1
 214              		.loc 1 35 35 view .LVU48
 215 0038 00EBC303 		add	r3, r0, r3, lsl #3
 216 003c 83F804E0 		strb	lr, [r3, #4]
  36:C:/Users/leopi/Documents/vs/S-Reo/MazeLibrary\Searching.c ****     maze->RawNode[x][y].draw = maze->RawNode[x][y].existence;           //南
 217              		.loc 1 36 5 is_stmt 1 view .LVU49
 218              		.loc 1 36 51 is_stmt 0 view .LVU50
 219 0040 0CEB0203 		add	r3, ip, r2
 220 0044 10F833C0 		ldrb	ip, [r0, r3, lsl #3]	@ zero_extendqisi2
 221 0048 BCF1000C 		subs	ip, ip, #0
 222 004c 18BF     		it	ne
 223 004e 4FF0010C 		movne	ip, #1
 224              		.loc 1 36 30 view .LVU51
 225 0052 00EBC303 		add	r3, r0, r3, lsl #3
 226 0056 83F804C0 		strb	ip, [r3, #4]
  37:C:/Users/leopi/Documents/vs/S-Reo/MazeLibrary\Searching.c ****     maze->ColumnNode[x][y].draw = maze->ColumnNode[x][y].existence;     //西
 227              		.loc 1 37 5 is_stmt 1 view .LVU52
 228              		.loc 1 37 57 is_stmt 0 view .LVU53
 229 005a 02EB4112 		add	r2, r2, r1, lsl #5
 230              	.LVL6:
 231              		.loc 1 37 57 view .LVU54
 232 005e 02F58462 		add	r2, r2, #1056
 233 0062 10F83230 		ldrb	r3, [r0, r2, lsl #3]	@ zero_extendqisi2
 234 0066 003B     		subs	r3, r3, #0
 235 0068 18BF     		it	ne
 236 006a 0123     		movne	r3, #1
 237              		.loc 1 37 33 view .LVU55
 238 006c 00EBC200 		add	r0, r0, r2, lsl #3
 239              	.LVL7:
 240              		.loc 1 37 33 view .LVU56
 241 0070 0371     		strb	r3, [r0, #4]
  38:C:/Users/leopi/Documents/vs/S-Reo/MazeLibrary\Searching.c **** }
 242              		.loc 1 38 1 view .LVU57
 243 0072 5DF804FB 		ldr	pc, [sp], #4
 244              		.cfi_endproc
 245              	.LFE4:
 247              		.section	.rodata.setNextPosition.str1.4,"aMS",%progbits,1
ARM GAS  C:\Users\leopi\AppData\Local\Temp\cc19K7kN.s 			page 6


 248              		.align	2
 249              	.LC3:
 250 0000 E696B9E8 		.ascii	"\346\226\271\350\247\222\343\203\237\343\202\271\015"
 250      A792E383 
 250      9FE382B9 
 250      0D
 251 000d 00       		.ascii	"\000"
 252              		.section	.text.setNextPosition,"ax",%progbits
 253              		.align	1
 254              		.global	setNextPosition
 255              		.syntax unified
 256              		.thumb
 257              		.thumb_func
 259              	setNextPosition:
 260              	.LVL8:
 261              	.LFB5:
  39:C:/Users/leopi/Documents/vs/S-Reo/MazeLibrary\Searching.c **** 
  40:C:/Users/leopi/Documents/vs/S-Reo/MazeLibrary\Searching.c **** 
  41:C:/Users/leopi/Documents/vs/S-Reo/MazeLibrary\Searching.c **** // 探索に必要な迷路データ、プロフィールの処理
  42:C:/Users/leopi/Documents/vs/S-Reo/MazeLibrary\Searching.c **** // 迷路データ、プロフィールの更新用の関数など
  43:C:/Users/leopi/Documents/vs/S-Reo/MazeLibrary\Searching.c **** 
  44:C:/Users/leopi/Documents/vs/S-Reo/MazeLibrary\Searching.c **** /* ----- 探索者データ管理 ここから----- */
  45:C:/Users/leopi/Documents/vs/S-Reo/MazeLibrary\Searching.c **** void setNextPosition(state *st)
  46:C:/Users/leopi/Documents/vs/S-Reo/MazeLibrary\Searching.c **** {
 262              		.loc 1 46 1 is_stmt 1 view -0
 263              		.cfi_startproc
 264              		@ args = 0, pretend = 0, frame = 0
 265              		@ frame_needed = 0, uses_anonymous_args = 0
 266              		.loc 1 46 1 is_stmt 0 view .LVU59
 267 0000 08B5     		push	{r3, lr}
 268              	.LCFI2:
 269              		.cfi_def_cfa_offset 8
 270              		.cfi_offset 3, -8
 271              		.cfi_offset 14, -4
  47:C:/Users/leopi/Documents/vs/S-Reo/MazeLibrary\Searching.c ****     switch (st->car)
 272              		.loc 1 47 5 is_stmt 1 view .LVU60
 273              		.loc 1 47 15 is_stmt 0 view .LVU61
 274 0002 8378     		ldrb	r3, [r0, #2]	@ zero_extendqisi2
 275              		.loc 1 47 5 view .LVU62
 276 0004 062B     		cmp	r3, #6
 277 0006 1CD8     		bhi	.L14
 278 0008 DFE803F0 		tbb	[pc, r3]
 279              	.L16:
 280 000c 04       		.byte	(.L20-.L16)/2
 281 000d 08       		.byte	(.L19-.L16)/2
 282 000e 0F       		.byte	(.L18-.L16)/2
 283 000f 1B       		.byte	(.L14-.L16)/2
 284 0010 13       		.byte	(.L17-.L16)/2
 285 0011 1B       		.byte	(.L14-.L16)/2
 286 0012 17       		.byte	(.L15-.L16)/2
 287 0013 00       		.p2align 1
 288              	.L20:
  48:C:/Users/leopi/Documents/vs/S-Reo/MazeLibrary\Searching.c ****     {
  49:C:/Users/leopi/Documents/vs/S-Reo/MazeLibrary\Searching.c ****     case north:
  50:C:/Users/leopi/Documents/vs/S-Reo/MazeLibrary\Searching.c ****         st->pos.x += 0;
 289              		.loc 1 50 9 is_stmt 1 view .LVU63
  51:C:/Users/leopi/Documents/vs/S-Reo/MazeLibrary\Searching.c ****         st->pos.y += 1;
ARM GAS  C:\Users\leopi\AppData\Local\Temp\cc19K7kN.s 			page 7


 290              		.loc 1 51 9 view .LVU64
 291              		.loc 1 51 19 is_stmt 0 view .LVU65
 292 0014 4378     		ldrb	r3, [r0, #1]	@ zero_extendqisi2
 293 0016 0133     		adds	r3, r3, #1
 294 0018 4370     		strb	r3, [r0, #1]
  52:C:/Users/leopi/Documents/vs/S-Reo/MazeLibrary\Searching.c ****         /* code */
  53:C:/Users/leopi/Documents/vs/S-Reo/MazeLibrary\Searching.c ****         break;
 295              		.loc 1 53 9 is_stmt 1 view .LVU66
 296              	.LVL9:
 297              	.L13:
  54:C:/Users/leopi/Documents/vs/S-Reo/MazeLibrary\Searching.c ****     case ne: //斜めのときの座標の変更条件をうまくやる
  55:C:/Users/leopi/Documents/vs/S-Reo/MazeLibrary\Searching.c ****         if(1);
  56:C:/Users/leopi/Documents/vs/S-Reo/MazeLibrary\Searching.c ****         st->pos.x += 1;
  57:C:/Users/leopi/Documents/vs/S-Reo/MazeLibrary\Searching.c ****         st->pos.y += 0;
  58:C:/Users/leopi/Documents/vs/S-Reo/MazeLibrary\Searching.c ****         
  59:C:/Users/leopi/Documents/vs/S-Reo/MazeLibrary\Searching.c ****         st->pos.x += 0;
  60:C:/Users/leopi/Documents/vs/S-Reo/MazeLibrary\Searching.c ****         st->pos.y += 1;
  61:C:/Users/leopi/Documents/vs/S-Reo/MazeLibrary\Searching.c ****         break;
  62:C:/Users/leopi/Documents/vs/S-Reo/MazeLibrary\Searching.c ****     case east:
  63:C:/Users/leopi/Documents/vs/S-Reo/MazeLibrary\Searching.c ****         st->pos.x += 1;
  64:C:/Users/leopi/Documents/vs/S-Reo/MazeLibrary\Searching.c ****         st->pos.y += 0; 
  65:C:/Users/leopi/Documents/vs/S-Reo/MazeLibrary\Searching.c ****         break;
  66:C:/Users/leopi/Documents/vs/S-Reo/MazeLibrary\Searching.c ****     case south:
  67:C:/Users/leopi/Documents/vs/S-Reo/MazeLibrary\Searching.c ****         st->pos.x += 0;
  68:C:/Users/leopi/Documents/vs/S-Reo/MazeLibrary\Searching.c ****         st->pos.y += -1;  
  69:C:/Users/leopi/Documents/vs/S-Reo/MazeLibrary\Searching.c ****         /* code */
  70:C:/Users/leopi/Documents/vs/S-Reo/MazeLibrary\Searching.c ****         break;
  71:C:/Users/leopi/Documents/vs/S-Reo/MazeLibrary\Searching.c ****     case west:
  72:C:/Users/leopi/Documents/vs/S-Reo/MazeLibrary\Searching.c ****         st->pos.x += -1;
  73:C:/Users/leopi/Documents/vs/S-Reo/MazeLibrary\Searching.c ****         st->pos.y += 0; 
  74:C:/Users/leopi/Documents/vs/S-Reo/MazeLibrary\Searching.c ****         break;
  75:C:/Users/leopi/Documents/vs/S-Reo/MazeLibrary\Searching.c ****     
  76:C:/Users/leopi/Documents/vs/S-Reo/MazeLibrary\Searching.c ****     default:
  77:C:/Users/leopi/Documents/vs/S-Reo/MazeLibrary\Searching.c ****         printf("方角ミス\r\n");
  78:C:/Users/leopi/Documents/vs/S-Reo/MazeLibrary\Searching.c ****         break;
  79:C:/Users/leopi/Documents/vs/S-Reo/MazeLibrary\Searching.c ****     }
  80:C:/Users/leopi/Documents/vs/S-Reo/MazeLibrary\Searching.c **** }
 298              		.loc 1 80 1 is_stmt 0 view .LVU67
 299 001a 08BD     		pop	{r3, pc}
 300              	.LVL10:
 301              	.L19:
  55:C:/Users/leopi/Documents/vs/S-Reo/MazeLibrary\Searching.c ****         st->pos.x += 1;
 302              		.loc 1 55 9 is_stmt 1 view .LVU68
  56:C:/Users/leopi/Documents/vs/S-Reo/MazeLibrary\Searching.c ****         st->pos.y += 0;
 303              		.loc 1 56 9 view .LVU69
  56:C:/Users/leopi/Documents/vs/S-Reo/MazeLibrary\Searching.c ****         st->pos.y += 0;
 304              		.loc 1 56 19 is_stmt 0 view .LVU70
 305 001c 0378     		ldrb	r3, [r0]	@ zero_extendqisi2
 306 001e 0133     		adds	r3, r3, #1
 307 0020 0370     		strb	r3, [r0]
  57:C:/Users/leopi/Documents/vs/S-Reo/MazeLibrary\Searching.c ****         
 308              		.loc 1 57 9 is_stmt 1 view .LVU71
  57:C:/Users/leopi/Documents/vs/S-Reo/MazeLibrary\Searching.c ****         
 309              		.loc 1 57 19 is_stmt 0 view .LVU72
 310 0022 4378     		ldrb	r3, [r0, #1]	@ zero_extendqisi2
  59:C:/Users/leopi/Documents/vs/S-Reo/MazeLibrary\Searching.c ****         st->pos.y += 1;
 311              		.loc 1 59 9 is_stmt 1 view .LVU73
ARM GAS  C:\Users\leopi\AppData\Local\Temp\cc19K7kN.s 			page 8


  60:C:/Users/leopi/Documents/vs/S-Reo/MazeLibrary\Searching.c ****         break;
 312              		.loc 1 60 9 view .LVU74
  60:C:/Users/leopi/Documents/vs/S-Reo/MazeLibrary\Searching.c ****         break;
 313              		.loc 1 60 19 is_stmt 0 view .LVU75
 314 0024 0133     		adds	r3, r3, #1
 315 0026 4370     		strb	r3, [r0, #1]
  61:C:/Users/leopi/Documents/vs/S-Reo/MazeLibrary\Searching.c ****     case east:
 316              		.loc 1 61 9 is_stmt 1 view .LVU76
 317 0028 F7E7     		b	.L13
 318              	.L18:
  63:C:/Users/leopi/Documents/vs/S-Reo/MazeLibrary\Searching.c ****         st->pos.y += 0; 
 319              		.loc 1 63 9 view .LVU77
  63:C:/Users/leopi/Documents/vs/S-Reo/MazeLibrary\Searching.c ****         st->pos.y += 0; 
 320              		.loc 1 63 19 is_stmt 0 view .LVU78
 321 002a 0378     		ldrb	r3, [r0]	@ zero_extendqisi2
 322 002c 0133     		adds	r3, r3, #1
 323 002e 0370     		strb	r3, [r0]
  64:C:/Users/leopi/Documents/vs/S-Reo/MazeLibrary\Searching.c ****         break;
 324              		.loc 1 64 9 is_stmt 1 view .LVU79
  65:C:/Users/leopi/Documents/vs/S-Reo/MazeLibrary\Searching.c ****     case south:
 325              		.loc 1 65 9 view .LVU80
 326 0030 F3E7     		b	.L13
 327              	.L17:
  67:C:/Users/leopi/Documents/vs/S-Reo/MazeLibrary\Searching.c ****         st->pos.y += -1;  
 328              		.loc 1 67 9 view .LVU81
  68:C:/Users/leopi/Documents/vs/S-Reo/MazeLibrary\Searching.c ****         /* code */
 329              		.loc 1 68 9 view .LVU82
  68:C:/Users/leopi/Documents/vs/S-Reo/MazeLibrary\Searching.c ****         /* code */
 330              		.loc 1 68 19 is_stmt 0 view .LVU83
 331 0032 4378     		ldrb	r3, [r0, #1]	@ zero_extendqisi2
 332 0034 013B     		subs	r3, r3, #1
 333 0036 4370     		strb	r3, [r0, #1]
  70:C:/Users/leopi/Documents/vs/S-Reo/MazeLibrary\Searching.c ****     case west:
 334              		.loc 1 70 9 is_stmt 1 view .LVU84
 335 0038 EFE7     		b	.L13
 336              	.L15:
  72:C:/Users/leopi/Documents/vs/S-Reo/MazeLibrary\Searching.c ****         st->pos.y += 0; 
 337              		.loc 1 72 9 view .LVU85
  72:C:/Users/leopi/Documents/vs/S-Reo/MazeLibrary\Searching.c ****         st->pos.y += 0; 
 338              		.loc 1 72 19 is_stmt 0 view .LVU86
 339 003a 0378     		ldrb	r3, [r0]	@ zero_extendqisi2
 340 003c 013B     		subs	r3, r3, #1
 341 003e 0370     		strb	r3, [r0]
  73:C:/Users/leopi/Documents/vs/S-Reo/MazeLibrary\Searching.c ****         break;
 342              		.loc 1 73 9 is_stmt 1 view .LVU87
  74:C:/Users/leopi/Documents/vs/S-Reo/MazeLibrary\Searching.c ****     
 343              		.loc 1 74 9 view .LVU88
 344 0040 EBE7     		b	.L13
 345              	.L14:
  77:C:/Users/leopi/Documents/vs/S-Reo/MazeLibrary\Searching.c ****         break;
 346              		.loc 1 77 9 view .LVU89
 347 0042 0248     		ldr	r0, .L23
 348              	.LVL11:
  77:C:/Users/leopi/Documents/vs/S-Reo/MazeLibrary\Searching.c ****         break;
 349              		.loc 1 77 9 is_stmt 0 view .LVU90
 350 0044 FFF7FEFF 		bl	puts
 351              	.LVL12:
ARM GAS  C:\Users\leopi\AppData\Local\Temp\cc19K7kN.s 			page 9


  78:C:/Users/leopi/Documents/vs/S-Reo/MazeLibrary\Searching.c ****     }
 352              		.loc 1 78 9 is_stmt 1 view .LVU91
 353              		.loc 1 80 1 is_stmt 0 view .LVU92
 354 0048 E7E7     		b	.L13
 355              	.L24:
 356 004a 00BF     		.align	2
 357              	.L23:
 358 004c 00000000 		.word	.LC3
 359              		.cfi_endproc
 360              	.LFE5:
 362              		.section	.text.setPosition,"ax",%progbits
 363              		.align	1
 364              		.global	setPosition
 365              		.syntax unified
 366              		.thumb
 367              		.thumb_func
 369              	setPosition:
 370              	.LVL13:
 371              	.LFB6:
  81:C:/Users/leopi/Documents/vs/S-Reo/MazeLibrary\Searching.c **** void setPosition(position *pos,uint8_t x, uint8_t y)
  82:C:/Users/leopi/Documents/vs/S-Reo/MazeLibrary\Searching.c **** {
 372              		.loc 1 82 1 is_stmt 1 view -0
 373              		.cfi_startproc
 374              		@ args = 0, pretend = 0, frame = 0
 375              		@ frame_needed = 0, uses_anonymous_args = 0
 376              		@ link register save eliminated.
  83:C:/Users/leopi/Documents/vs/S-Reo/MazeLibrary\Searching.c ****     pos->x = x;
 377              		.loc 1 83 5 view .LVU94
 378              		.loc 1 83 12 is_stmt 0 view .LVU95
 379 0000 0170     		strb	r1, [r0]
  84:C:/Users/leopi/Documents/vs/S-Reo/MazeLibrary\Searching.c ****     pos->y = y;
 380              		.loc 1 84 5 is_stmt 1 view .LVU96
 381              		.loc 1 84 12 is_stmt 0 view .LVU97
 382 0002 4270     		strb	r2, [r0, #1]
  85:C:/Users/leopi/Documents/vs/S-Reo/MazeLibrary\Searching.c **** }
 383              		.loc 1 85 1 view .LVU98
 384 0004 7047     		bx	lr
 385              		.cfi_endproc
 386              	.LFE6:
 388              		.section	.text.setGoal,"ax",%progbits
 389              		.align	1
 390              		.global	setGoal
 391              		.syntax unified
 392              		.thumb
 393              		.thumb_func
 395              	setGoal:
 396              	.LVL14:
 397              	.LFB7:
  86:C:/Users/leopi/Documents/vs/S-Reo/MazeLibrary\Searching.c **** void setGoal(profile *prof)
  87:C:/Users/leopi/Documents/vs/S-Reo/MazeLibrary\Searching.c **** {
 398              		.loc 1 87 1 is_stmt 1 view -0
 399              		.cfi_startproc
 400              		@ args = 0, pretend = 0, frame = 0
 401              		@ frame_needed = 0, uses_anonymous_args = 0
 402              		.loc 1 87 1 is_stmt 0 view .LVU100
 403 0000 10B5     		push	{r4, lr}
 404              	.LCFI3:
ARM GAS  C:\Users\leopi\AppData\Local\Temp\cc19K7kN.s 			page 10


 405              		.cfi_def_cfa_offset 8
 406              		.cfi_offset 4, -8
 407              		.cfi_offset 14, -4
 408 0002 0446     		mov	r4, r0
  88:C:/Users/leopi/Documents/vs/S-Reo/MazeLibrary\Searching.c ****     setPosition( &(prof->target_pos) , GOAL_X, GOAL_Y );
 409              		.loc 1 88 5 is_stmt 1 view .LVU101
 410 0004 0222     		movs	r2, #2
 411 0006 1146     		mov	r1, r2
 412 0008 FFF7FEFF 		bl	setPosition
 413              	.LVL15:
  89:C:/Users/leopi/Documents/vs/S-Reo/MazeLibrary\Searching.c ****     setPosition( &(prof->target_size), GOAL_SIZE_X, GOAL_SIZE_Y );
 414              		.loc 1 89 5 view .LVU102
 415 000c 0222     		movs	r2, #2
 416 000e 1146     		mov	r1, r2
 417 0010 A018     		adds	r0, r4, r2
 418 0012 FFF7FEFF 		bl	setPosition
 419              	.LVL16:
  90:C:/Users/leopi/Documents/vs/S-Reo/MazeLibrary\Searching.c **** }
 420              		.loc 1 90 1 is_stmt 0 view .LVU103
 421 0016 10BD     		pop	{r4, pc}
 422              		.loc 1 90 1 view .LVU104
 423              		.cfi_endproc
 424              	.LFE7:
 426              		.section	.text.setCardinal,"ax",%progbits
 427              		.align	1
 428              		.global	setCardinal
 429              		.syntax unified
 430              		.thumb
 431              		.thumb_func
 433              	setCardinal:
 434              	.LVL17:
 435              	.LFB8:
  91:C:/Users/leopi/Documents/vs/S-Reo/MazeLibrary\Searching.c **** void setCardinal(state *st, cardinal car)
  92:C:/Users/leopi/Documents/vs/S-Reo/MazeLibrary\Searching.c **** {
 436              		.loc 1 92 1 is_stmt 1 view -0
 437              		.cfi_startproc
 438              		@ args = 0, pretend = 0, frame = 0
 439              		@ frame_needed = 0, uses_anonymous_args = 0
 440              		@ link register save eliminated.
  93:C:/Users/leopi/Documents/vs/S-Reo/MazeLibrary\Searching.c ****     st->car = car;
 441              		.loc 1 93 5 view .LVU106
 442              		.loc 1 93 13 is_stmt 0 view .LVU107
 443 0000 8170     		strb	r1, [r0, #2]
  94:C:/Users/leopi/Documents/vs/S-Reo/MazeLibrary\Searching.c **** }
 444              		.loc 1 94 1 view .LVU108
 445 0002 7047     		bx	lr
 446              		.cfi_endproc
 447              	.LFE8:
 449              		.section	.text.setWallExistence,"ax",%progbits
 450              		.align	1
 451              		.global	setWallExistence
 452              		.syntax unified
 453              		.thumb
 454              		.thumb_func
 456              	setWallExistence:
 457              	.LVL18:
 458              	.LFB9:
ARM GAS  C:\Users\leopi\AppData\Local\Temp\cc19K7kN.s 			page 11


  95:C:/Users/leopi/Documents/vs/S-Reo/MazeLibrary\Searching.c **** void setWallExistence(wall_existence *existence, wall_state *state)
  96:C:/Users/leopi/Documents/vs/S-Reo/MazeLibrary\Searching.c **** {
 459              		.loc 1 96 1 is_stmt 1 view -0
 460              		.cfi_startproc
 461              		@ args = 0, pretend = 0, frame = 0
 462              		@ frame_needed = 0, uses_anonymous_args = 0
 463              		@ link register save eliminated.
  97:C:/Users/leopi/Documents/vs/S-Reo/MazeLibrary\Searching.c ****     existence->north = state[0];
 464              		.loc 1 97 5 view .LVU110
 465              		.loc 1 97 29 is_stmt 0 view .LVU111
 466 0000 0A78     		ldrb	r2, [r1]	@ zero_extendqisi2
 467              		.loc 1 97 22 view .LVU112
 468 0002 0378     		ldrb	r3, [r0]	@ zero_extendqisi2
 469 0004 62F30103 		bfi	r3, r2, #0, #2
 470 0008 0370     		strb	r3, [r0]
  98:C:/Users/leopi/Documents/vs/S-Reo/MazeLibrary\Searching.c ****     existence->east = state[1];
 471              		.loc 1 98 5 is_stmt 1 view .LVU113
 472              		.loc 1 98 28 is_stmt 0 view .LVU114
 473 000a 4A78     		ldrb	r2, [r1, #1]	@ zero_extendqisi2
 474              		.loc 1 98 21 view .LVU115
 475 000c DBB2     		uxtb	r3, r3
 476 000e 62F38303 		bfi	r3, r2, #2, #2
 477 0012 0370     		strb	r3, [r0]
  99:C:/Users/leopi/Documents/vs/S-Reo/MazeLibrary\Searching.c ****     existence->south = state[2];
 478              		.loc 1 99 5 is_stmt 1 view .LVU116
 479              		.loc 1 99 29 is_stmt 0 view .LVU117
 480 0014 8A78     		ldrb	r2, [r1, #2]	@ zero_extendqisi2
 481              		.loc 1 99 22 view .LVU118
 482 0016 DBB2     		uxtb	r3, r3
 483 0018 62F30513 		bfi	r3, r2, #4, #2
 484 001c 0370     		strb	r3, [r0]
 100:C:/Users/leopi/Documents/vs/S-Reo/MazeLibrary\Searching.c ****     existence->west = state[3];
 485              		.loc 1 100 5 is_stmt 1 view .LVU119
 486              		.loc 1 100 28 is_stmt 0 view .LVU120
 487 001e CA78     		ldrb	r2, [r1, #3]	@ zero_extendqisi2
 488              		.loc 1 100 21 view .LVU121
 489 0020 DBB2     		uxtb	r3, r3
 490 0022 62F38713 		bfi	r3, r2, #6, #2
 491 0026 0370     		strb	r3, [r0]
 101:C:/Users/leopi/Documents/vs/S-Reo/MazeLibrary\Searching.c **** }
 492              		.loc 1 101 1 view .LVU122
 493 0028 7047     		bx	lr
 494              		.cfi_endproc
 495              	.LFE9:
 497              		.section	.rodata.initState.str1.4,"aMS",%progbits,1
 498              		.align	2
 499              	.LC4:
 500 0000 25702C20 		.ascii	"%p, \000"
 500      00
 501 0005 000000   		.align	2
 502              	.LC5:
 503 0008 E381840D 		.ascii	"\343\201\204\015\000"
 503      00
 504              		.section	.text.initState,"ax",%progbits
 505              		.align	1
 506              		.global	initState
 507              		.syntax unified
ARM GAS  C:\Users\leopi\AppData\Local\Temp\cc19K7kN.s 			page 12


 508              		.thumb
 509              		.thumb_func
 511              	initState:
 512              	.LVL19:
 513              	.LFB10:
 102:C:/Users/leopi/Documents/vs/S-Reo/MazeLibrary\Searching.c **** 
 103:C:/Users/leopi/Documents/vs/S-Reo/MazeLibrary\Searching.c **** //斜め方角で壁情報どうするか.壁情報では斜め使わない.向きだけ
 104:C:/Users/leopi/Documents/vs/S-Reo/MazeLibrary\Searching.c **** void initState(state *log_st, int n, node *nd)
 105:C:/Users/leopi/Documents/vs/S-Reo/MazeLibrary\Searching.c **** {
 514              		.loc 1 105 1 is_stmt 1 view -0
 515              		.cfi_startproc
 516              		@ args = 0, pretend = 0, frame = 0
 517              		@ frame_needed = 0, uses_anonymous_args = 0
 518              		.loc 1 105 1 is_stmt 0 view .LVU124
 519 0000 F8B5     		push	{r3, r4, r5, r6, r7, lr}
 520              	.LCFI4:
 521              		.cfi_def_cfa_offset 24
 522              		.cfi_offset 3, -24
 523              		.cfi_offset 4, -20
 524              		.cfi_offset 5, -16
 525              		.cfi_offset 6, -12
 526              		.cfi_offset 7, -8
 527              		.cfi_offset 14, -4
 528 0002 0746     		mov	r7, r0
 529 0004 0C46     		mov	r4, r1
 530 0006 1646     		mov	r6, r2
 106:C:/Users/leopi/Documents/vs/S-Reo/MazeLibrary\Searching.c ****     for(int i=0; i < n; i++)
 531              		.loc 1 106 5 is_stmt 1 view .LVU125
 532              	.LBB2:
 533              		.loc 1 106 9 view .LVU126
 534              	.LVL20:
 535              		.loc 1 106 13 is_stmt 0 view .LVU127
 536 0008 0025     		movs	r5, #0
 537              		.loc 1 106 5 view .LVU128
 538 000a 09E0     		b	.L31
 539              	.LVL21:
 540              	.L32:
 107:C:/Users/leopi/Documents/vs/S-Reo/MazeLibrary\Searching.c ****     {
 108:C:/Users/leopi/Documents/vs/S-Reo/MazeLibrary\Searching.c ****         log_st[n].node = nd;
 541              		.loc 1 108 9 is_stmt 1 discriminator 3 view .LVU129
 542              		.loc 1 108 15 is_stmt 0 discriminator 3 view .LVU130
 543 000c 04EB4403 		add	r3, r4, r4, lsl #1
 544 0010 07EB8303 		add	r3, r7, r3, lsl #2
 545              		.loc 1 108 24 discriminator 3 view .LVU131
 546 0014 9E60     		str	r6, [r3, #8]
 109:C:/Users/leopi/Documents/vs/S-Reo/MazeLibrary\Searching.c ****         printf("%p, ",log_st[n].node);
 547              		.loc 1 109 9 is_stmt 1 discriminator 3 view .LVU132
 548 0016 3146     		mov	r1, r6
 549 0018 0448     		ldr	r0, .L34
 550 001a FFF7FEFF 		bl	printf
 551              	.LVL22:
 106:C:/Users/leopi/Documents/vs/S-Reo/MazeLibrary\Searching.c ****     for(int i=0; i < n; i++)
 552              		.loc 1 106 25 discriminator 3 view .LVU133
 106:C:/Users/leopi/Documents/vs/S-Reo/MazeLibrary\Searching.c ****     for(int i=0; i < n; i++)
 553              		.loc 1 106 26 is_stmt 0 discriminator 3 view .LVU134
 554 001e 0135     		adds	r5, r5, #1
 555              	.LVL23:
ARM GAS  C:\Users\leopi\AppData\Local\Temp\cc19K7kN.s 			page 13


 556              	.L31:
 106:C:/Users/leopi/Documents/vs/S-Reo/MazeLibrary\Searching.c ****     for(int i=0; i < n; i++)
 557              		.loc 1 106 18 is_stmt 1 discriminator 1 view .LVU135
 106:C:/Users/leopi/Documents/vs/S-Reo/MazeLibrary\Searching.c ****     for(int i=0; i < n; i++)
 558              		.loc 1 106 5 is_stmt 0 discriminator 1 view .LVU136
 559 0020 A542     		cmp	r5, r4
 560 0022 F3DB     		blt	.L32
 561              	.LBE2:
 110:C:/Users/leopi/Documents/vs/S-Reo/MazeLibrary\Searching.c ****     }
 111:C:/Users/leopi/Documents/vs/S-Reo/MazeLibrary\Searching.c ****     printf("い\r\n");
 562              		.loc 1 111 5 is_stmt 1 view .LVU137
 563 0024 0248     		ldr	r0, .L34+4
 564 0026 FFF7FEFF 		bl	puts
 565              	.LVL24:
 112:C:/Users/leopi/Documents/vs/S-Reo/MazeLibrary\Searching.c **** }
 566              		.loc 1 112 1 is_stmt 0 view .LVU138
 567 002a F8BD     		pop	{r3, r4, r5, r6, r7, pc}
 568              	.LVL25:
 569              	.L35:
 570              		.loc 1 112 1 view .LVU139
 571              		.align	2
 572              	.L34:
 573 002c 00000000 		.word	.LC4
 574 0030 08000000 		.word	.LC5
 575              		.cfi_endproc
 576              	.LFE10:
 578              		.section	.text.initProfile,"ax",%progbits
 579              		.align	1
 580              		.global	initProfile
 581              		.syntax unified
 582              		.thumb
 583              		.thumb_func
 585              	initProfile:
 586              	.LVL26:
 587              	.LFB11:
 113:C:/Users/leopi/Documents/vs/S-Reo/MazeLibrary\Searching.c **** void initProfile(profile *prof, maze_node *maze)
 114:C:/Users/leopi/Documents/vs/S-Reo/MazeLibrary\Searching.c **** {
 588              		.loc 1 114 1 is_stmt 1 view -0
 589              		.cfi_startproc
 590              		@ args = 0, pretend = 0, frame = 8
 591              		@ frame_needed = 0, uses_anonymous_args = 0
 592              		.loc 1 114 1 is_stmt 0 view .LVU141
 593 0000 F0B5     		push	{r4, r5, r6, r7, lr}
 594              	.LCFI5:
 595              		.cfi_def_cfa_offset 20
 596              		.cfi_offset 4, -20
 597              		.cfi_offset 5, -16
 598              		.cfi_offset 6, -12
 599              		.cfi_offset 7, -8
 600              		.cfi_offset 14, -4
 601 0002 83B0     		sub	sp, sp, #12
 602              	.LCFI6:
 603              		.cfi_def_cfa_offset 32
 604 0004 0446     		mov	r4, r0
 605 0006 0D46     		mov	r5, r1
 115:C:/Users/leopi/Documents/vs/S-Reo/MazeLibrary\Searching.c ****     setGoal(prof);
 606              		.loc 1 115 5 is_stmt 1 view .LVU142
ARM GAS  C:\Users\leopi\AppData\Local\Temp\cc19K7kN.s 			page 14


 607 0008 FFF7FEFF 		bl	setGoal
 608              	.LVL27:
 116:C:/Users/leopi/Documents/vs/S-Reo/MazeLibrary\Searching.c **** 
 117:C:/Users/leopi/Documents/vs/S-Reo/MazeLibrary\Searching.c ****     setPosition(&(prof->now.pos), 0, 0);
 609              		.loc 1 117 5 view .LVU143
 610 000c 261D     		adds	r6, r4, #4
 611 000e 0022     		movs	r2, #0
 612 0010 1146     		mov	r1, r2
 613 0012 3046     		mov	r0, r6
 614 0014 FFF7FEFF 		bl	setPosition
 615              	.LVL28:
 118:C:/Users/leopi/Documents/vs/S-Reo/MazeLibrary\Searching.c ****     setCardinal(&(prof->now), north);
 616              		.loc 1 118 5 view .LVU144
 617 0018 0021     		movs	r1, #0
 618 001a 3046     		mov	r0, r6
 619 001c FFF7FEFF 		bl	setCardinal
 620              	.LVL29:
 119:C:/Users/leopi/Documents/vs/S-Reo/MazeLibrary\Searching.c ****     prof->now.dir = front;
 621              		.loc 1 119 5 view .LVU145
 622              		.loc 1 119 19 is_stmt 0 view .LVU146
 623 0020 0026     		movs	r6, #0
 624 0022 E671     		strb	r6, [r4, #7]
 120:C:/Users/leopi/Documents/vs/S-Reo/MazeLibrary\Searching.c **** 
 121:C:/Users/leopi/Documents/vs/S-Reo/MazeLibrary\Searching.c ****     setPosition(&(prof->next.pos), 0, 1);
 625              		.loc 1 121 5 is_stmt 1 view .LVU147
 626 0024 04F11007 		add	r7, r4, #16
 627 0028 0122     		movs	r2, #1
 628 002a 3146     		mov	r1, r6
 629 002c 3846     		mov	r0, r7
 630 002e FFF7FEFF 		bl	setPosition
 631              	.LVL30:
 122:C:/Users/leopi/Documents/vs/S-Reo/MazeLibrary\Searching.c ****     setCardinal(&(prof->next), north);
 632              		.loc 1 122 5 view .LVU148
 633 0032 3146     		mov	r1, r6
 634 0034 3846     		mov	r0, r7
 635 0036 FFF7FEFF 		bl	setCardinal
 636              	.LVL31:
 123:C:/Users/leopi/Documents/vs/S-Reo/MazeLibrary\Searching.c **** 
 124:C:/Users/leopi/Documents/vs/S-Reo/MazeLibrary\Searching.c ****     InitVisit();
 637              		.loc 1 124 5 view .LVU149
 638 003a FFF7FEFF 		bl	InitVisit
 639              	.LVL32:
 125:C:/Users/leopi/Documents/vs/S-Reo/MazeLibrary\Searching.c ****     // prof->next.dir = 1; //not use while running
 126:C:/Users/leopi/Documents/vs/S-Reo/MazeLibrary\Searching.c ****     //壁のセット
 127:C:/Users/leopi/Documents/vs/S-Reo/MazeLibrary\Searching.c ****     wall_state w_st[4]={
 640              		.loc 1 127 5 view .LVU150
 641              		.loc 1 127 16 is_stmt 0 view .LVU151
 642 003e 0A4B     		ldr	r3, .L38
 643 0040 1A68     		ldr	r2, [r3]
 644 0042 0192     		str	r2, [sp, #4]
 128:C:/Users/leopi/Documents/vs/S-Reo/MazeLibrary\Searching.c ****         NOWALL,
 129:C:/Users/leopi/Documents/vs/S-Reo/MazeLibrary\Searching.c ****         WALL,
 130:C:/Users/leopi/Documents/vs/S-Reo/MazeLibrary\Searching.c ****         WALL,
 131:C:/Users/leopi/Documents/vs/S-Reo/MazeLibrary\Searching.c ****         WALL
 132:C:/Users/leopi/Documents/vs/S-Reo/MazeLibrary\Searching.c ****     },
 133:C:/Users/leopi/Documents/vs/S-Reo/MazeLibrary\Searching.c ****     next[4]={
 645              		.loc 1 133 5 view .LVU152
ARM GAS  C:\Users\leopi\AppData\Local\Temp\cc19K7kN.s 			page 15


 646 0044 5B68     		ldr	r3, [r3, #4]
 647 0046 0093     		str	r3, [sp]
 134:C:/Users/leopi/Documents/vs/S-Reo/MazeLibrary\Searching.c ****         UNKNOWN,
 135:C:/Users/leopi/Documents/vs/S-Reo/MazeLibrary\Searching.c ****         UNKNOWN,
 136:C:/Users/leopi/Documents/vs/S-Reo/MazeLibrary\Searching.c ****         NOWALL,
 137:C:/Users/leopi/Documents/vs/S-Reo/MazeLibrary\Searching.c ****         WALL
 138:C:/Users/leopi/Documents/vs/S-Reo/MazeLibrary\Searching.c ****     };
 139:C:/Users/leopi/Documents/vs/S-Reo/MazeLibrary\Searching.c ****     setWallExistence(&(prof->now.wall), &w_st[0]);
 648              		.loc 1 139 5 is_stmt 1 view .LVU153
 649 0048 01A9     		add	r1, sp, #4
 650 004a 04F10800 		add	r0, r4, #8
 651 004e FFF7FEFF 		bl	setWallExistence
 652              	.LVL33:
 140:C:/Users/leopi/Documents/vs/S-Reo/MazeLibrary\Searching.c ****     setWallExistence(&(prof->next.wall), &next[0]);
 653              		.loc 1 140 5 view .LVU154
 654 0052 6946     		mov	r1, sp
 655 0054 04F11400 		add	r0, r4, #20
 656 0058 FFF7FEFF 		bl	setWallExistence
 657              	.LVL34:
 141:C:/Users/leopi/Documents/vs/S-Reo/MazeLibrary\Searching.c **** 
 142:C:/Users/leopi/Documents/vs/S-Reo/MazeLibrary\Searching.c ****     prof->now.node = &(maze->RawNode[0][0]);
 658              		.loc 1 142 5 view .LVU155
 659              		.loc 1 142 20 is_stmt 0 view .LVU156
 660 005c E560     		str	r5, [r4, #12]
 143:C:/Users/leopi/Documents/vs/S-Reo/MazeLibrary\Searching.c ****     prof->next.node = &(maze->RawNode[0][1]);
 661              		.loc 1 143 5 is_stmt 1 view .LVU157
 662              		.loc 1 143 23 is_stmt 0 view .LVU158
 663 005e 0835     		adds	r5, r5, #8
 664              	.LVL35:
 665              		.loc 1 143 21 view .LVU159
 666 0060 A561     		str	r5, [r4, #24]
 144:C:/Users/leopi/Documents/vs/S-Reo/MazeLibrary\Searching.c ****     // prof->now.node->rc = 0;
 145:C:/Users/leopi/Documents/vs/S-Reo/MazeLibrary\Searching.c ****     // prof->now.node->pos.x = 0;
 146:C:/Users/leopi/Documents/vs/S-Reo/MazeLibrary\Searching.c ****     // prof->now.node->pos.y = 0;
 147:C:/Users/leopi/Documents/vs/S-Reo/MazeLibrary\Searching.c **** }
 667              		.loc 1 147 1 view .LVU160
 668 0062 03B0     		add	sp, sp, #12
 669              	.LCFI7:
 670              		.cfi_def_cfa_offset 20
 671              		@ sp needed
 672 0064 F0BD     		pop	{r4, r5, r6, r7, pc}
 673              	.LVL36:
 674              	.L39:
 675              		.loc 1 147 1 view .LVU161
 676 0066 00BF     		.align	2
 677              	.L38:
 678 0068 00000000 		.word	.LANCHOR0
 679              		.cfi_endproc
 680              	.LFE11:
 682              		.section	.text.shiftState,"ax",%progbits
 683              		.align	1
 684              		.global	shiftState
 685              		.syntax unified
 686              		.thumb
 687              		.thumb_func
 689              	shiftState:
 690              	.LVL37:
ARM GAS  C:\Users\leopi\AppData\Local\Temp\cc19K7kN.s 			page 16


 691              	.LFB12:
 148:C:/Users/leopi/Documents/vs/S-Reo/MazeLibrary\Searching.c **** void shiftState(profile *prof) //update
 149:C:/Users/leopi/Documents/vs/S-Reo/MazeLibrary\Searching.c **** {
 692              		.loc 1 149 1 is_stmt 1 view -0
 693              		.cfi_startproc
 694              		@ args = 0, pretend = 0, frame = 0
 695              		@ frame_needed = 0, uses_anonymous_args = 0
 696              		@ link register save eliminated.
 150:C:/Users/leopi/Documents/vs/S-Reo/MazeLibrary\Searching.c **** //	prof->now.node->visit = true;
 151:C:/Users/leopi/Documents/vs/S-Reo/MazeLibrary\Searching.c **** 
 152:C:/Users/leopi/Documents/vs/S-Reo/MazeLibrary\Searching.c ****     prof->now.car = prof->next.car;
 697              		.loc 1 152 5 view .LVU163
 698              		.loc 1 152 31 is_stmt 0 view .LVU164
 699 0000 837C     		ldrb	r3, [r0, #18]	@ zero_extendqisi2
 700              		.loc 1 152 19 view .LVU165
 701 0002 8371     		strb	r3, [r0, #6]
 153:C:/Users/leopi/Documents/vs/S-Reo/MazeLibrary\Searching.c ****    prof->now.dir = prof->next.dir;
 702              		.loc 1 153 4 is_stmt 1 view .LVU166
 703              		.loc 1 153 30 is_stmt 0 view .LVU167
 704 0004 C37C     		ldrb	r3, [r0, #19]	@ zero_extendqisi2
 705              		.loc 1 153 18 view .LVU168
 706 0006 C371     		strb	r3, [r0, #7]
 154:C:/Users/leopi/Documents/vs/S-Reo/MazeLibrary\Searching.c ****     prof->now.pos = prof->next.pos;
 707              		.loc 1 154 5 is_stmt 1 view .LVU169
 708              		.loc 1 154 19 is_stmt 0 view .LVU170
 709 0008 038A     		ldrh	r3, [r0, #16]
 710 000a 8380     		strh	r3, [r0, #4]	@ movhi
 155:C:/Users/leopi/Documents/vs/S-Reo/MazeLibrary\Searching.c ****     prof->now.node = prof->next.node;//ポインタ渡し
 711              		.loc 1 155 5 is_stmt 1 view .LVU171
 712              		.loc 1 155 32 is_stmt 0 view .LVU172
 713 000c 8369     		ldr	r3, [r0, #24]
 714              		.loc 1 155 20 view .LVU173
 715 000e C360     		str	r3, [r0, #12]
 156:C:/Users/leopi/Documents/vs/S-Reo/MazeLibrary\Searching.c ****     prof->now.wall = prof->next.wall;
 716              		.loc 1 156 5 is_stmt 1 view .LVU174
 717              		.loc 1 156 20 is_stmt 0 view .LVU175
 718 0010 037D     		ldrb	r3, [r0, #20]	@ zero_extendqisi2
 719 0012 0372     		strb	r3, [r0, #8]
 157:C:/Users/leopi/Documents/vs/S-Reo/MazeLibrary\Searching.c **** }
 720              		.loc 1 157 1 view .LVU176
 721 0014 7047     		bx	lr
 722              		.cfi_endproc
 723              	.LFE12:
 725              		.section	.rodata.printState.str1.4,"aMS",%progbits,1
 726              		.align	2
 727              	.LC6:
 728 0000 20202020 		.ascii	"    \345\272\247\346\250\231    :   %u, %u\015\012\000"
 728      E5BAA7E6 
 728      A8992020 
 728      20203A20 
 728      20202575 
 729 001b 00       		.align	2
 730              	.LC7:
 731 001c 20202020 		.ascii	"    \346\226\271\350\247\222    :   %d\015\012\000"
 731      E696B9E8 
 731      A7922020 
 731      20203A20 
ARM GAS  C:\Users\leopi\AppData\Local\Temp\cc19K7kN.s 			page 17


 731      20202564 
 732 0033 00       		.align	2
 733              	.LC8:
 734 0034 20202020 		.ascii	"    \345\220\221\343\201\215    :   %d\015\012\000"
 734      E59091E3 
 734      818D2020 
 734      20203A20 
 734      20202564 
 735 004b 00       		.align	2
 736              	.LC9:
 737 004c 20202020 		.ascii	"    \345\243\201      :   %u, %u, %u, %u\015\012\000"
 737      E5A38120 
 737      20202020 
 737      203A2020 
 737      2025752C 
 738 006e 0000     		.align	2
 739              	.LC10:
 740 0070 20202020 		.ascii	"    \343\203\216\343\203\274\343\203\211 :   \350\241"
 740      E3838EE3 
 740      83BCE383 
 740      89203A20 
 740      2020E8A1 
 741 0084 8C283029 		.ascii	"\214(0) or \345\210\227(1) : %d, \343\203\216\343\203"
 741      206F7220 
 741      E5889728 
 741      3129203A 
 741      2025642C 
 742 009e BCE38389 		.ascii	"\274\343\203\211x : %u, \343\203\216\343\203\274\343"
 742      78203A20 
 742      25752C20 
 742      E3838EE3 
 742      83BCE3
 743 00b1 83897920 		.ascii	"\203\211y : %u, \351\207\215\343\201\277 : %u, \345"
 743      3A202575 
 743      2C20E987 
 743      8DE381BF 
 743      203A2025 
 744 00c9 A381E381 		.ascii	"\243\201\343\201\256\347\212\266\346\205\213 : %u\015"
 744      AEE78AB6 
 744      E6858B20 
 744      3A202575 
 744      0D
 745 00da 0A00     		.ascii	"\012\000"
 746              		.align	2
 747              	.LC11:
 748 00dc 0D00     		.ascii	"\015\000"
 749              		.section	.text.printState,"ax",%progbits
 750              		.align	1
 751              		.global	printState
 752              		.syntax unified
 753              		.thumb
 754              		.thumb_func
 756              	printState:
 757              	.LVL38:
 758              	.LFB13:
 158:C:/Users/leopi/Documents/vs/S-Reo/MazeLibrary\Searching.c **** 
 159:C:/Users/leopi/Documents/vs/S-Reo/MazeLibrary\Searching.c **** void printState(state *st)
ARM GAS  C:\Users\leopi\AppData\Local\Temp\cc19K7kN.s 			page 18


 160:C:/Users/leopi/Documents/vs/S-Reo/MazeLibrary\Searching.c **** {
 759              		.loc 1 160 1 is_stmt 1 view -0
 760              		.cfi_startproc
 761              		@ args = 0, pretend = 0, frame = 0
 762              		@ frame_needed = 0, uses_anonymous_args = 0
 763              		.loc 1 160 1 is_stmt 0 view .LVU178
 764 0000 10B5     		push	{r4, lr}
 765              	.LCFI8:
 766              		.cfi_def_cfa_offset 8
 767              		.cfi_offset 4, -8
 768              		.cfi_offset 14, -4
 769 0002 82B0     		sub	sp, sp, #8
 770              	.LCFI9:
 771              		.cfi_def_cfa_offset 16
 772 0004 0446     		mov	r4, r0
 161:C:/Users/leopi/Documents/vs/S-Reo/MazeLibrary\Searching.c ****     printf("    座標    :   %u, %u\r\n", st->pos.x, st->pos.y);
 773              		.loc 1 161 5 is_stmt 1 view .LVU179
 774 0006 4278     		ldrb	r2, [r0, #1]	@ zero_extendqisi2
 775 0008 0178     		ldrb	r1, [r0]	@ zero_extendqisi2
 776 000a 1348     		ldr	r0, .L43
 777              	.LVL39:
 778              		.loc 1 161 5 is_stmt 0 view .LVU180
 779 000c FFF7FEFF 		bl	printf
 780              	.LVL40:
 162:C:/Users/leopi/Documents/vs/S-Reo/MazeLibrary\Searching.c ****     printf("    方角    :   %d\r\n", st->car);
 781              		.loc 1 162 5 is_stmt 1 view .LVU181
 782 0010 A178     		ldrb	r1, [r4, #2]	@ zero_extendqisi2
 783 0012 1248     		ldr	r0, .L43+4
 784 0014 FFF7FEFF 		bl	printf
 785              	.LVL41:
 163:C:/Users/leopi/Documents/vs/S-Reo/MazeLibrary\Searching.c ****     printf("    向き    :   %d\r\n", st->dir);
 786              		.loc 1 163 5 view .LVU182
 787 0018 E178     		ldrb	r1, [r4, #3]	@ zero_extendqisi2
 788 001a 1148     		ldr	r0, .L43+8
 789 001c FFF7FEFF 		bl	printf
 790              	.LVL42:
 164:C:/Users/leopi/Documents/vs/S-Reo/MazeLibrary\Searching.c ****     printf("    壁      :   %u, %u, %u, %u\r\n", st->wall.north, st->wall.east, st->wall.south, st
 791              		.loc 1 164 5 view .LVU183
 792              		.loc 1 164 59 is_stmt 0 view .LVU184
 793 0020 2179     		ldrb	r1, [r4, #4]	@ zero_extendqisi2
 794              		.loc 1 164 106 view .LVU185
 795 0022 8B09     		lsrs	r3, r1, #6
 796              		.loc 1 164 5 view .LVU186
 797 0024 0093     		str	r3, [sp]
 798 0026 C1F30113 		ubfx	r3, r1, #4, #2
 799 002a C1F38102 		ubfx	r2, r1, #2, #2
 800 002e 01F00301 		and	r1, r1, #3
 801 0032 0C48     		ldr	r0, .L43+12
 802 0034 FFF7FEFF 		bl	printf
 803              	.LVL43:
 165:C:/Users/leopi/Documents/vs/S-Reo/MazeLibrary\Searching.c **** 
 166:C:/Users/leopi/Documents/vs/S-Reo/MazeLibrary\Searching.c ****     printf("    ノード :   行(0) or 列(1) : %d, ノードx : %u, ノードy : %u, 重み : %u,
 804              		.loc 1 166 5 is_stmt 1 view .LVU187
 805              		.loc 1 166 127 is_stmt 0 view .LVU188
 806 0038 A068     		ldr	r0, [r4, #8]
 807              		.loc 1 166 133 view .LVU189
 808 003a 4179     		ldrb	r1, [r0, #5]	@ zero_extendqisi2
ARM GAS  C:\Users\leopi\AppData\Local\Temp\cc19K7kN.s 			page 19


 809              		.loc 1 166 152 view .LVU190
 810 003c 8279     		ldrb	r2, [r0, #6]	@ zero_extendqisi2
 811              		.loc 1 166 169 view .LVU191
 812 003e C379     		ldrb	r3, [r0, #7]	@ zero_extendqisi2
 813              		.loc 1 166 181 view .LVU192
 814 0040 4488     		ldrh	r4, [r0, #2]
 815              	.LVL44:
 816              		.loc 1 166 199 view .LVU193
 817 0042 0078     		ldrb	r0, [r0]	@ zero_extendqisi2
 818              		.loc 1 166 5 view .LVU194
 819 0044 0190     		str	r0, [sp, #4]
 820 0046 0094     		str	r4, [sp]
 821 0048 0748     		ldr	r0, .L43+16
 822 004a FFF7FEFF 		bl	printf
 823              	.LVL45:
 167:C:/Users/leopi/Documents/vs/S-Reo/MazeLibrary\Searching.c ****     printf("\r\n");
 824              		.loc 1 167 5 is_stmt 1 view .LVU195
 825 004e 0748     		ldr	r0, .L43+20
 826 0050 FFF7FEFF 		bl	puts
 827              	.LVL46:
 168:C:/Users/leopi/Documents/vs/S-Reo/MazeLibrary\Searching.c **** }
 828              		.loc 1 168 1 is_stmt 0 view .LVU196
 829 0054 02B0     		add	sp, sp, #8
 830              	.LCFI10:
 831              		.cfi_def_cfa_offset 8
 832              		@ sp needed
 833 0056 10BD     		pop	{r4, pc}
 834              	.L44:
 835              		.align	2
 836              	.L43:
 837 0058 00000000 		.word	.LC6
 838 005c 1C000000 		.word	.LC7
 839 0060 34000000 		.word	.LC8
 840 0064 4C000000 		.word	.LC9
 841 0068 70000000 		.word	.LC10
 842 006c DC000000 		.word	.LC11
 843              		.cfi_endproc
 844              	.LFE13:
 846              		.section	.rodata.printGoal.str1.4,"aMS",%progbits,1
 847              		.align	2
 848              	.LC12:
 849 0000 E5B7A6E4 		.ascii	"\345\267\246\344\270\213 : (%u,%u), \345\217\263\344"
 849      B88B203A 
 849      20282575 
 849      2C257529 
 849      2C20E58F 
 850 0016 B88A203A 		.ascii	"\270\212 : (%u,%u)\015\012\000"
 850      20282575 
 850      2C257529 
 850      0D0A00
 851              		.section	.text.printGoal,"ax",%progbits
 852              		.align	1
 853              		.global	printGoal
 854              		.syntax unified
 855              		.thumb
 856              		.thumb_func
 858              	printGoal:
ARM GAS  C:\Users\leopi\AppData\Local\Temp\cc19K7kN.s 			page 20


 859              	.LVL47:
 860              	.LFB14:
 169:C:/Users/leopi/Documents/vs/S-Reo/MazeLibrary\Searching.c **** void printGoal(profile *prof)
 170:C:/Users/leopi/Documents/vs/S-Reo/MazeLibrary\Searching.c **** {
 861              		.loc 1 170 1 is_stmt 1 view -0
 862              		.cfi_startproc
 863              		@ args = 0, pretend = 0, frame = 0
 864              		@ frame_needed = 0, uses_anonymous_args = 0
 865              		.loc 1 170 1 is_stmt 0 view .LVU198
 866 0000 00B5     		push	{lr}
 867              	.LCFI11:
 868              		.cfi_def_cfa_offset 4
 869              		.cfi_offset 14, -4
 870 0002 83B0     		sub	sp, sp, #12
 871              	.LCFI12:
 872              		.cfi_def_cfa_offset 16
 171:C:/Users/leopi/Documents/vs/S-Reo/MazeLibrary\Searching.c ****     uint8_t x_small = prof->target_pos.x;
 873              		.loc 1 171 5 is_stmt 1 view .LVU199
 874              		.loc 1 171 13 is_stmt 0 view .LVU200
 875 0004 0178     		ldrb	r1, [r0]	@ zero_extendqisi2
 876              	.LVL48:
 172:C:/Users/leopi/Documents/vs/S-Reo/MazeLibrary\Searching.c ****     uint8_t y_small = prof->target_pos.y;
 877              		.loc 1 172 5 is_stmt 1 view .LVU201
 878              		.loc 1 172 13 is_stmt 0 view .LVU202
 879 0006 4278     		ldrb	r2, [r0, #1]	@ zero_extendqisi2
 880              	.LVL49:
 173:C:/Users/leopi/Documents/vs/S-Reo/MazeLibrary\Searching.c ****     uint8_t x_large = x_small + prof->target_size.x;
 881              		.loc 1 173 5 is_stmt 1 view .LVU203
 882              		.loc 1 173 50 is_stmt 0 view .LVU204
 883 0008 8378     		ldrb	r3, [r0, #2]	@ zero_extendqisi2
 884              		.loc 1 173 13 view .LVU205
 885 000a 0B44     		add	r3, r3, r1
 886              	.LVL50:
 174:C:/Users/leopi/Documents/vs/S-Reo/MazeLibrary\Searching.c ****     uint8_t y_large = y_small + prof->target_size.y;
 887              		.loc 1 174 5 is_stmt 1 view .LVU206
 888              		.loc 1 174 50 is_stmt 0 view .LVU207
 889 000c C078     		ldrb	r0, [r0, #3]	@ zero_extendqisi2
 890              	.LVL51:
 891              		.loc 1 174 13 view .LVU208
 892 000e 1044     		add	r0, r0, r2
 893 0010 C0B2     		uxtb	r0, r0
 894              	.LVL52:
 175:C:/Users/leopi/Documents/vs/S-Reo/MazeLibrary\Searching.c ****     printf("左下 : (%u,%u), 右上 : (%u,%u)\r\n",x_small, y_small, x_large, y_large);
 895              		.loc 1 175 5 is_stmt 1 view .LVU209
 896 0012 0090     		str	r0, [sp]
 897 0014 DBB2     		uxtb	r3, r3
 898              		.loc 1 175 5 is_stmt 0 view .LVU210
 899 0016 0348     		ldr	r0, .L47
 900              	.LVL53:
 901              		.loc 1 175 5 view .LVU211
 902 0018 FFF7FEFF 		bl	printf
 903              	.LVL54:
 176:C:/Users/leopi/Documents/vs/S-Reo/MazeLibrary\Searching.c **** }
 904              		.loc 1 176 1 view .LVU212
 905 001c 03B0     		add	sp, sp, #12
 906              	.LCFI13:
 907              		.cfi_def_cfa_offset 4
ARM GAS  C:\Users\leopi\AppData\Local\Temp\cc19K7kN.s 			page 21


 908              		@ sp needed
 909 001e 5DF804FB 		ldr	pc, [sp], #4
 910              	.L48:
 911 0022 00BF     		.align	2
 912              	.L47:
 913 0024 00000000 		.word	.LC12
 914              		.cfi_endproc
 915              	.LFE14:
 917              		.section	.rodata.printProfile.str1.4,"aMS",%progbits,1
 918              		.align	2
 919              	.LC13:
 920 0000 E78FBEE5 		.ascii	"\347\217\276\345\234\250\015\000"
 920      9CA80D00 
 921              		.align	2
 922              	.LC14:
 923 0008 E6ACA10D 		.ascii	"\346\254\241\015\000"
 923      00
 924              		.section	.text.printProfile,"ax",%progbits
 925              		.align	1
 926              		.global	printProfile
 927              		.syntax unified
 928              		.thumb
 929              		.thumb_func
 931              	printProfile:
 932              	.LVL55:
 933              	.LFB15:
 177:C:/Users/leopi/Documents/vs/S-Reo/MazeLibrary\Searching.c **** void printProfile(profile *prof)
 178:C:/Users/leopi/Documents/vs/S-Reo/MazeLibrary\Searching.c **** {
 934              		.loc 1 178 1 is_stmt 1 view -0
 935              		.cfi_startproc
 936              		@ args = 0, pretend = 0, frame = 0
 937              		@ frame_needed = 0, uses_anonymous_args = 0
 938              		.loc 1 178 1 is_stmt 0 view .LVU214
 939 0000 10B5     		push	{r4, lr}
 940              	.LCFI14:
 941              		.cfi_def_cfa_offset 8
 942              		.cfi_offset 4, -8
 943              		.cfi_offset 14, -4
 944 0002 0446     		mov	r4, r0
 179:C:/Users/leopi/Documents/vs/S-Reo/MazeLibrary\Searching.c ****     printGoal(prof);
 945              		.loc 1 179 5 is_stmt 1 view .LVU215
 946 0004 FFF7FEFF 		bl	printGoal
 947              	.LVL56:
 180:C:/Users/leopi/Documents/vs/S-Reo/MazeLibrary\Searching.c **** 
 181:C:/Users/leopi/Documents/vs/S-Reo/MazeLibrary\Searching.c ****     printf("現在\r\n");
 948              		.loc 1 181 5 view .LVU216
 949 0008 0848     		ldr	r0, .L51
 950 000a FFF7FEFF 		bl	puts
 951              	.LVL57:
 182:C:/Users/leopi/Documents/vs/S-Reo/MazeLibrary\Searching.c ****     printState( &(prof->now) );
 952              		.loc 1 182 5 view .LVU217
 953 000e 201D     		adds	r0, r4, #4
 954 0010 FFF7FEFF 		bl	printState
 955              	.LVL58:
 183:C:/Users/leopi/Documents/vs/S-Reo/MazeLibrary\Searching.c **** 
 184:C:/Users/leopi/Documents/vs/S-Reo/MazeLibrary\Searching.c ****     printf("次\r\n");
 956              		.loc 1 184 5 view .LVU218
ARM GAS  C:\Users\leopi\AppData\Local\Temp\cc19K7kN.s 			page 22


 957 0014 0648     		ldr	r0, .L51+4
 958 0016 FFF7FEFF 		bl	puts
 959              	.LVL59:
 185:C:/Users/leopi/Documents/vs/S-Reo/MazeLibrary\Searching.c ****     printState( &(prof->next) );
 960              		.loc 1 185 5 view .LVU219
 961 001a 04F11000 		add	r0, r4, #16
 962 001e FFF7FEFF 		bl	printState
 963              	.LVL60:
 186:C:/Users/leopi/Documents/vs/S-Reo/MazeLibrary\Searching.c **** 
 187:C:/Users/leopi/Documents/vs/S-Reo/MazeLibrary\Searching.c ****     printf("\r\n");
 964              		.loc 1 187 5 view .LVU220
 965 0022 0448     		ldr	r0, .L51+8
 966 0024 FFF7FEFF 		bl	puts
 967              	.LVL61:
 188:C:/Users/leopi/Documents/vs/S-Reo/MazeLibrary\Searching.c ****     
 189:C:/Users/leopi/Documents/vs/S-Reo/MazeLibrary\Searching.c **** }
 968              		.loc 1 189 1 is_stmt 0 view .LVU221
 969 0028 10BD     		pop	{r4, pc}
 970              	.LVL62:
 971              	.L52:
 972              		.loc 1 189 1 view .LVU222
 973 002a 00BF     		.align	2
 974              	.L51:
 975 002c 00000000 		.word	.LC13
 976 0030 08000000 		.word	.LC14
 977 0034 DC000000 		.word	.LC11
 978              		.cfi_endproc
 979              	.LFE15:
 981              		.section	.text.FindUnwantedSquares,"ax",%progbits
 982              		.align	1
 983              		.global	FindUnwantedSquares
 984              		.syntax unified
 985              		.thumb
 986              		.thumb_func
 988              	FindUnwantedSquares:
 989              	.LVL63:
 990              	.LFB16:
 190:C:/Users/leopi/Documents/vs/S-Reo/MazeLibrary\Searching.c **** 
 191:C:/Users/leopi/Documents/vs/S-Reo/MazeLibrary\Searching.c **** void FindUnwantedSquares(maze_node *maze){
 991              		.loc 1 191 42 is_stmt 1 view -0
 992              		.cfi_startproc
 993              		@ args = 0, pretend = 0, frame = 0
 994              		@ frame_needed = 0, uses_anonymous_args = 0
 192:C:/Users/leopi/Documents/vs/S-Reo/MazeLibrary\Searching.c **** 	//未訪問のマスをピックアップ
 193:C:/Users/leopi/Documents/vs/S-Reo/MazeLibrary\Searching.c **** 	//それぞれの四方のノードを確認
 194:C:/Users/leopi/Documents/vs/S-Reo/MazeLibrary\Searching.c **** 	//未探索がひとつもなければVisitedに
 195:C:/Users/leopi/Documents/vs/S-Reo/MazeLibrary\Searching.c **** 	//未探索が三つなら、全て壁があるのか見て、そうならVisitedに
 196:C:/Users/leopi/Documents/vs/S-Reo/MazeLibrary\Searching.c **** 	for(int i=0; i < NUMBER_OF_SQUARES_X; i++){
 995              		.loc 1 196 2 view .LVU224
 996              	.LBB3:
 997              		.loc 1 196 6 view .LVU225
 998              		.loc 1 196 10 is_stmt 0 view .LVU226
 999 0000 0021     		movs	r1, #0
 1000              		.loc 1 196 2 view .LVU227
 1001 0002 57E0     		b	.L61
 1002              	.LVL64:
 1003              	.L56:
ARM GAS  C:\Users\leopi\AppData\Local\Temp\cc19K7kN.s 			page 23


 1004              	.LCFI15:
 1005              		.cfi_def_cfa_offset 8
 1006              		.cfi_offset 4, -8
 1007              		.cfi_offset 14, -4
 1008              	.LBB4:
 1009              	.LBB5:
 197:C:/Users/leopi/Documents/vs/S-Reo/MazeLibrary\Searching.c **** 		for(int j=0; j < NUMBER_OF_SQUARES_Y; j++){
 198:C:/Users/leopi/Documents/vs/S-Reo/MazeLibrary\Searching.c **** 			if(Visit[i][j] == true)
 199:C:/Users/leopi/Documents/vs/S-Reo/MazeLibrary\Searching.c **** 				continue;
 200:C:/Users/leopi/Documents/vs/S-Reo/MazeLibrary\Searching.c **** 			uint8_t n = maze->RawNode[i][j+1].existence;	//北
 201:C:/Users/leopi/Documents/vs/S-Reo/MazeLibrary\Searching.c **** 			uint8_t e = maze->ColumnNode[i+1][j].existence;	//東
 202:C:/Users/leopi/Documents/vs/S-Reo/MazeLibrary\Searching.c **** 			uint8_t w = maze->ColumnNode[i][j].existence;//西
 203:C:/Users/leopi/Documents/vs/S-Reo/MazeLibrary\Searching.c **** 			uint8_t s = maze->RawNode[i][j].existence;	//南
 204:C:/Users/leopi/Documents/vs/S-Reo/MazeLibrary\Searching.c **** 			if(n != UNKNOWN && e != UNKNOWN && w != UNKNOWN && s != UNKNOWN){
 205:C:/Users/leopi/Documents/vs/S-Reo/MazeLibrary\Searching.c **** 				Visit[i][j] = true;
 206:C:/Users/leopi/Documents/vs/S-Reo/MazeLibrary\Searching.c **** 				continue;
 207:C:/Users/leopi/Documents/vs/S-Reo/MazeLibrary\Searching.c **** 			}
 208:C:/Users/leopi/Documents/vs/S-Reo/MazeLibrary\Searching.c **** 			int known_check=0;
 1010              		.loc 1 208 4 is_stmt 1 view .LVU228
 209:C:/Users/leopi/Documents/vs/S-Reo/MazeLibrary\Searching.c **** 			known_check += (n == WALL) ? true : false;
 1011              		.loc 1 209 4 view .LVU229
 210:C:/Users/leopi/Documents/vs/S-Reo/MazeLibrary\Searching.c **** 			known_check += (e == WALL) ? true : false;
 1012              		.loc 1 210 4 view .LVU230
 1013              		.loc 1 210 38 is_stmt 0 view .LVU231
 1014 0004 012A     		cmp	r2, #1
 1015 0006 14BF     		ite	ne
 1016 0008 0022     		movne	r2, #0
 1017              	.LVL65:
 1018              		.loc 1 210 38 view .LVU232
 1019 000a 0122     		moveq	r2, #1
 1020              		.loc 1 210 16 view .LVU233
 1021 000c 012C     		cmp	r4, #1
 1022 000e 08BF     		it	eq
 1023 0010 0132     		addeq	r2, r2, #1
 1024              	.LVL66:
 211:C:/Users/leopi/Documents/vs/S-Reo/MazeLibrary\Searching.c **** 			known_check += (w == WALL) ? true : false;
 1025              		.loc 1 211 4 is_stmt 1 view .LVU234
 1026              		.loc 1 211 16 is_stmt 0 view .LVU235
 1027 0012 BEF1010F 		cmp	lr, #1
 1028 0016 08BF     		it	eq
 1029 0018 0132     		addeq	r2, r2, #1
 1030              	.LVL67:
 212:C:/Users/leopi/Documents/vs/S-Reo/MazeLibrary\Searching.c **** 			known_check += (s == WALL) ? true : false;
 1031              		.loc 1 212 4 is_stmt 1 view .LVU236
 1032              		.loc 1 212 16 is_stmt 0 view .LVU237
 1033 001a BCF1010F 		cmp	ip, #1
 1034 001e 08BF     		it	eq
 1035 0020 0132     		addeq	r2, r2, #1
 1036              	.LVL68:
 213:C:/Users/leopi/Documents/vs/S-Reo/MazeLibrary\Searching.c **** 			if(known_check == 3){
 1037              		.loc 1 213 4 is_stmt 1 view .LVU238
 1038              		.loc 1 213 6 is_stmt 0 view .LVU239
 1039 0022 032A     		cmp	r2, #3
 1040 0024 2ED0     		beq	.L69
 1041              	.LVL69:
 1042              	.L55:
 1043              		.loc 1 213 6 view .LVU240
ARM GAS  C:\Users\leopi\AppData\Local\Temp\cc19K7kN.s 			page 24


 1044              	.LBE5:
 197:C:/Users/leopi/Documents/vs/S-Reo/MazeLibrary\Searching.c **** 			if(Visit[i][j] == true)
 1045              		.loc 1 197 41 is_stmt 1 discriminator 2 view .LVU241
 197:C:/Users/leopi/Documents/vs/S-Reo/MazeLibrary\Searching.c **** 			if(Visit[i][j] == true)
 1046              		.loc 1 197 42 is_stmt 0 discriminator 2 view .LVU242
 1047 0026 0133     		adds	r3, r3, #1
 1048              	.LVL70:
 1049              	.L58:
 197:C:/Users/leopi/Documents/vs/S-Reo/MazeLibrary\Searching.c **** 			if(Visit[i][j] == true)
 1050              		.loc 1 197 16 is_stmt 1 discriminator 1 view .LVU243
 197:C:/Users/leopi/Documents/vs/S-Reo/MazeLibrary\Searching.c **** 			if(Visit[i][j] == true)
 1051              		.loc 1 197 3 is_stmt 0 discriminator 1 view .LVU244
 1052 0028 1F2B     		cmp	r3, #31
 1053 002a 31DC     		bgt	.L70
 1054              	.LBB6:
 198:C:/Users/leopi/Documents/vs/S-Reo/MazeLibrary\Searching.c **** 				continue;
 1055              		.loc 1 198 4 is_stmt 1 view .LVU245
 198:C:/Users/leopi/Documents/vs/S-Reo/MazeLibrary\Searching.c **** 				continue;
 1056              		.loc 1 198 15 is_stmt 0 view .LVU246
 1057 002c 244A     		ldr	r2, .L75
 1058 002e 02EB4112 		add	r2, r2, r1, lsl #5
 1059 0032 D25C     		ldrb	r2, [r2, r3]	@ zero_extendqisi2
 198:C:/Users/leopi/Documents/vs/S-Reo/MazeLibrary\Searching.c **** 				continue;
 1060              		.loc 1 198 6 view .LVU247
 1061 0034 002A     		cmp	r2, #0
 1062 0036 F6D1     		bne	.L55
 1063              	.LVL71:
 1064              	.L63:
 200:C:/Users/leopi/Documents/vs/S-Reo/MazeLibrary\Searching.c **** 			uint8_t e = maze->ColumnNode[i+1][j].existence;	//東
 1065              		.loc 1 200 4 is_stmt 1 view .LVU248
 200:C:/Users/leopi/Documents/vs/S-Reo/MazeLibrary\Searching.c **** 			uint8_t e = maze->ColumnNode[i+1][j].existence;	//東
 1066              		.loc 1 200 34 is_stmt 0 view .LVU249
 1067 0038 5A1C     		adds	r2, r3, #1
 200:C:/Users/leopi/Documents/vs/S-Reo/MazeLibrary\Searching.c **** 			uint8_t e = maze->ColumnNode[i+1][j].existence;	//東
 1068              		.loc 1 200 12 view .LVU250
 1069 003a 01EB411C 		add	ip, r1, r1, lsl #5
 1070 003e 6244     		add	r2, r2, ip
 1071 0040 10F83240 		ldrb	r4, [r0, r2, lsl #3]	@ zero_extendqisi2
 1072              	.LVL72:
 201:C:/Users/leopi/Documents/vs/S-Reo/MazeLibrary\Searching.c **** 			uint8_t w = maze->ColumnNode[i][j].existence;//西
 1073              		.loc 1 201 4 is_stmt 1 view .LVU251
 201:C:/Users/leopi/Documents/vs/S-Reo/MazeLibrary\Searching.c **** 			uint8_t w = maze->ColumnNode[i][j].existence;//西
 1074              		.loc 1 201 34 is_stmt 0 view .LVU252
 1075 0044 4A1C     		adds	r2, r1, #1
 201:C:/Users/leopi/Documents/vs/S-Reo/MazeLibrary\Searching.c **** 			uint8_t w = maze->ColumnNode[i][j].existence;//西
 1076              		.loc 1 201 12 view .LVU253
 1077 0046 03EB4212 		add	r2, r3, r2, lsl #5
 1078 004a 02F58462 		add	r2, r2, #1056
 1079 004e 10F83220 		ldrb	r2, [r0, r2, lsl #3]	@ zero_extendqisi2
 1080              	.LVL73:
 202:C:/Users/leopi/Documents/vs/S-Reo/MazeLibrary\Searching.c **** 			uint8_t s = maze->RawNode[i][j].existence;	//南
 1081              		.loc 1 202 4 is_stmt 1 view .LVU254
 202:C:/Users/leopi/Documents/vs/S-Reo/MazeLibrary\Searching.c **** 			uint8_t s = maze->RawNode[i][j].existence;	//南
 1082              		.loc 1 202 12 is_stmt 0 view .LVU255
 1083 0052 03EB411E 		add	lr, r3, r1, lsl #5
 1084 0056 0EF5846E 		add	lr, lr, #1056
 1085 005a 10F83EE0 		ldrb	lr, [r0, lr, lsl #3]	@ zero_extendqisi2
ARM GAS  C:\Users\leopi\AppData\Local\Temp\cc19K7kN.s 			page 25


 1086              	.LVL74:
 203:C:/Users/leopi/Documents/vs/S-Reo/MazeLibrary\Searching.c **** 			if(n != UNKNOWN && e != UNKNOWN && w != UNKNOWN && s != UNKNOWN){
 1087              		.loc 1 203 4 is_stmt 1 view .LVU256
 203:C:/Users/leopi/Documents/vs/S-Reo/MazeLibrary\Searching.c **** 			if(n != UNKNOWN && e != UNKNOWN && w != UNKNOWN && s != UNKNOWN){
 1088              		.loc 1 203 12 is_stmt 0 view .LVU257
 1089 005e 9C44     		add	ip, ip, r3
 1090 0060 10F83CC0 		ldrb	ip, [r0, ip, lsl #3]	@ zero_extendqisi2
 1091              	.LVL75:
 204:C:/Users/leopi/Documents/vs/S-Reo/MazeLibrary\Searching.c **** 				Visit[i][j] = true;
 1092              		.loc 1 204 4 is_stmt 1 view .LVU258
 204:C:/Users/leopi/Documents/vs/S-Reo/MazeLibrary\Searching.c **** 				Visit[i][j] = true;
 1093              		.loc 1 204 6 is_stmt 0 view .LVU259
 1094 0064 022C     		cmp	r4, #2
 1095 0066 CDD0     		beq	.L56
 204:C:/Users/leopi/Documents/vs/S-Reo/MazeLibrary\Searching.c **** 				Visit[i][j] = true;
 1096              		.loc 1 204 20 discriminator 1 view .LVU260
 1097 0068 022A     		cmp	r2, #2
 1098 006a CBD0     		beq	.L56
 204:C:/Users/leopi/Documents/vs/S-Reo/MazeLibrary\Searching.c **** 				Visit[i][j] = true;
 1099              		.loc 1 204 36 discriminator 2 view .LVU261
 1100 006c BEF1020F 		cmp	lr, #2
 1101 0070 C8D0     		beq	.L56
 204:C:/Users/leopi/Documents/vs/S-Reo/MazeLibrary\Searching.c **** 				Visit[i][j] = true;
 1102              		.loc 1 204 52 discriminator 3 view .LVU262
 1103 0072 BCF1020F 		cmp	ip, #2
 1104 0076 C5D0     		beq	.L56
 205:C:/Users/leopi/Documents/vs/S-Reo/MazeLibrary\Searching.c **** 				continue;
 1105              		.loc 1 205 5 is_stmt 1 view .LVU263
 205:C:/Users/leopi/Documents/vs/S-Reo/MazeLibrary\Searching.c **** 				continue;
 1106              		.loc 1 205 17 is_stmt 0 view .LVU264
 1107 0078 114A     		ldr	r2, .L75
 1108              	.LVL76:
 205:C:/Users/leopi/Documents/vs/S-Reo/MazeLibrary\Searching.c **** 				continue;
 1109              		.loc 1 205 17 view .LVU265
 1110 007a 02EB4112 		add	r2, r2, r1, lsl #5
 1111 007e 0124     		movs	r4, #1
 1112              	.LVL77:
 205:C:/Users/leopi/Documents/vs/S-Reo/MazeLibrary\Searching.c **** 				continue;
 1113              		.loc 1 205 17 view .LVU266
 1114 0080 D454     		strb	r4, [r2, r3]
 1115              	.LVL78:
 206:C:/Users/leopi/Documents/vs/S-Reo/MazeLibrary\Searching.c **** 			}
 1116              		.loc 1 206 5 is_stmt 1 view .LVU267
 1117 0082 D0E7     		b	.L55
 1118              	.LVL79:
 1119              	.L69:
 214:C:/Users/leopi/Documents/vs/S-Reo/MazeLibrary\Searching.c **** 				Visit[i][j] = true;
 1120              		.loc 1 214 5 view .LVU268
 1121              		.loc 1 214 17 is_stmt 0 view .LVU269
 1122 0084 0E4A     		ldr	r2, .L75
 1123              	.LVL80:
 1124              		.loc 1 214 17 view .LVU270
 1125 0086 02EB4112 		add	r2, r2, r1, lsl #5
 1126 008a 0124     		movs	r4, #1
 1127              	.LVL81:
 1128              		.loc 1 214 17 view .LVU271
 1129 008c D454     		strb	r4, [r2, r3]
ARM GAS  C:\Users\leopi\AppData\Local\Temp\cc19K7kN.s 			page 26


 1130              	.LVL82:
 215:C:/Users/leopi/Documents/vs/S-Reo/MazeLibrary\Searching.c **** 				continue;
 1131              		.loc 1 215 5 is_stmt 1 view .LVU272
 1132 008e CAE7     		b	.L55
 1133              	.L70:
 1134              		.loc 1 215 5 is_stmt 0 view .LVU273
 1135              	.LBE6:
 1136              	.LBE4:
 196:C:/Users/leopi/Documents/vs/S-Reo/MazeLibrary\Searching.c **** 		for(int j=0; j < NUMBER_OF_SQUARES_Y; j++){
 1137              		.loc 1 196 40 is_stmt 1 discriminator 2 view .LVU274
 196:C:/Users/leopi/Documents/vs/S-Reo/MazeLibrary\Searching.c **** 		for(int j=0; j < NUMBER_OF_SQUARES_Y; j++){
 1138              		.loc 1 196 41 is_stmt 0 discriminator 2 view .LVU275
 1139 0090 0131     		adds	r1, r1, #1
 1140              	.LVL83:
 196:C:/Users/leopi/Documents/vs/S-Reo/MazeLibrary\Searching.c **** 		for(int j=0; j < NUMBER_OF_SQUARES_Y; j++){
 1141              		.loc 1 196 15 is_stmt 1 discriminator 2 view .LVU276
 196:C:/Users/leopi/Documents/vs/S-Reo/MazeLibrary\Searching.c **** 		for(int j=0; j < NUMBER_OF_SQUARES_Y; j++){
 1142              		.loc 1 196 2 is_stmt 0 discriminator 2 view .LVU277
 1143 0092 1F29     		cmp	r1, #31
 1144 0094 01DC     		bgt	.L71
 1145              	.LBB8:
 197:C:/Users/leopi/Documents/vs/S-Reo/MazeLibrary\Searching.c **** 			if(Visit[i][j] == true)
 1146              		.loc 1 197 11 view .LVU278
 1147 0096 0023     		movs	r3, #0
 1148              	.LVL84:
 197:C:/Users/leopi/Documents/vs/S-Reo/MazeLibrary\Searching.c **** 			if(Visit[i][j] == true)
 1149              		.loc 1 197 11 view .LVU279
 1150 0098 C6E7     		b	.L58
 1151              	.LVL85:
 1152              	.L71:
 197:C:/Users/leopi/Documents/vs/S-Reo/MazeLibrary\Searching.c **** 			if(Visit[i][j] == true)
 1153              		.loc 1 197 11 view .LVU280
 1154              	.LBE8:
 1155              	.LBE3:
 216:C:/Users/leopi/Documents/vs/S-Reo/MazeLibrary\Searching.c **** 			}
 217:C:/Users/leopi/Documents/vs/S-Reo/MazeLibrary\Searching.c **** 		}
 218:C:/Users/leopi/Documents/vs/S-Reo/MazeLibrary\Searching.c **** 	}
 219:C:/Users/leopi/Documents/vs/S-Reo/MazeLibrary\Searching.c **** }
 1156              		.loc 1 219 1 view .LVU281
 1157 009a 10BD     		pop	{r4, pc}
 1158              	.LVL86:
 1159              	.L73:
 1160              	.LCFI16:
 1161              		.cfi_def_cfa_offset 0
 1162              		.cfi_restore 4
 1163              		.cfi_restore 14
 1164              	.LBB11:
 1165              	.LBB9:
 197:C:/Users/leopi/Documents/vs/S-Reo/MazeLibrary\Searching.c **** 			if(Visit[i][j] == true)
 1166              		.loc 1 197 41 is_stmt 1 view .LVU282
 197:C:/Users/leopi/Documents/vs/S-Reo/MazeLibrary\Searching.c **** 			if(Visit[i][j] == true)
 1167              		.loc 1 197 42 is_stmt 0 view .LVU283
 1168 009c 0133     		adds	r3, r3, #1
 1169              	.LVL87:
 1170              	.L64:
 197:C:/Users/leopi/Documents/vs/S-Reo/MazeLibrary\Searching.c **** 			if(Visit[i][j] == true)
 1171              		.loc 1 197 16 is_stmt 1 view .LVU284
ARM GAS  C:\Users\leopi\AppData\Local\Temp\cc19K7kN.s 			page 27


 197:C:/Users/leopi/Documents/vs/S-Reo/MazeLibrary\Searching.c **** 			if(Visit[i][j] == true)
 1172              		.loc 1 197 3 is_stmt 0 view .LVU285
 1173 009e 1F2B     		cmp	r3, #31
 1174 00a0 07DC     		bgt	.L72
 1175              	.LBB7:
 198:C:/Users/leopi/Documents/vs/S-Reo/MazeLibrary\Searching.c **** 				continue;
 1176              		.loc 1 198 4 is_stmt 1 view .LVU286
 198:C:/Users/leopi/Documents/vs/S-Reo/MazeLibrary\Searching.c **** 				continue;
 1177              		.loc 1 198 15 is_stmt 0 view .LVU287
 1178 00a2 074A     		ldr	r2, .L75
 1179 00a4 02EB4112 		add	r2, r2, r1, lsl #5
 1180 00a8 D25C     		ldrb	r2, [r2, r3]	@ zero_extendqisi2
 198:C:/Users/leopi/Documents/vs/S-Reo/MazeLibrary\Searching.c **** 				continue;
 1181              		.loc 1 198 6 view .LVU288
 1182 00aa 002A     		cmp	r2, #0
 1183 00ac F6D1     		bne	.L73
 198:C:/Users/leopi/Documents/vs/S-Reo/MazeLibrary\Searching.c **** 				continue;
 1184              		.loc 1 198 6 view .LVU289
 1185              	.LBE7:
 1186              	.LBE9:
 1187              	.LBE11:
 191:C:/Users/leopi/Documents/vs/S-Reo/MazeLibrary\Searching.c **** 	//未訪問のマスをピックアップ
 1188              		.loc 1 191 42 view .LVU290
 1189 00ae 10B5     		push	{r4, lr}
 1190              	.LCFI17:
 1191              		.cfi_def_cfa_offset 8
 1192              		.cfi_offset 4, -8
 1193              		.cfi_offset 14, -4
 1194 00b0 C2E7     		b	.L63
 1195              	.L72:
 1196              	.LCFI18:
 1197              		.cfi_def_cfa_offset 0
 1198              		.cfi_restore 4
 1199              		.cfi_restore 14
 1200              	.LBB12:
 196:C:/Users/leopi/Documents/vs/S-Reo/MazeLibrary\Searching.c **** 		for(int j=0; j < NUMBER_OF_SQUARES_Y; j++){
 1201              		.loc 1 196 40 is_stmt 1 view .LVU291
 196:C:/Users/leopi/Documents/vs/S-Reo/MazeLibrary\Searching.c **** 		for(int j=0; j < NUMBER_OF_SQUARES_Y; j++){
 1202              		.loc 1 196 41 is_stmt 0 view .LVU292
 1203 00b2 0131     		adds	r1, r1, #1
 1204              	.LVL88:
 1205              	.L61:
 196:C:/Users/leopi/Documents/vs/S-Reo/MazeLibrary\Searching.c **** 		for(int j=0; j < NUMBER_OF_SQUARES_Y; j++){
 1206              		.loc 1 196 15 is_stmt 1 view .LVU293
 196:C:/Users/leopi/Documents/vs/S-Reo/MazeLibrary\Searching.c **** 		for(int j=0; j < NUMBER_OF_SQUARES_Y; j++){
 1207              		.loc 1 196 2 is_stmt 0 view .LVU294
 1208 00b4 1F29     		cmp	r1, #31
 1209 00b6 01DC     		bgt	.L74
 1210              	.LBB10:
 197:C:/Users/leopi/Documents/vs/S-Reo/MazeLibrary\Searching.c **** 			if(Visit[i][j] == true)
 1211              		.loc 1 197 11 view .LVU295
 1212 00b8 0023     		movs	r3, #0
 1213 00ba F0E7     		b	.L64
 1214              	.L74:
 1215 00bc 7047     		bx	lr
 1216              	.L76:
 1217 00be 00BF     		.align	2
ARM GAS  C:\Users\leopi\AppData\Local\Temp\cc19K7kN.s 			page 28


 1218              	.L75:
 1219 00c0 00000000 		.word	Visit
 1220              	.LBE10:
 1221              	.LBE12:
 1222              		.cfi_endproc
 1223              	.LFE16:
 1225              		.section	.text.getNodeInfo,"ax",%progbits
 1226              		.align	1
 1227              		.global	getNodeInfo
 1228              		.syntax unified
 1229              		.thumb
 1230              		.thumb_func
 1232              	getNodeInfo:
 1233              	.LVL89:
 1234              	.LFB18:
 220:C:/Users/leopi/Documents/vs/S-Reo/MazeLibrary\Searching.c **** 
 221:C:/Users/leopi/Documents/vs/S-Reo/MazeLibrary\Searching.c **** 
 222:C:/Users/leopi/Documents/vs/S-Reo/MazeLibrary\Searching.c **** void getNextDirection(maze_node *maze, profile *Mouse, char turn_mode, int mask)
 223:C:/Users/leopi/Documents/vs/S-Reo/MazeLibrary\Searching.c **** {
 224:C:/Users/leopi/Documents/vs/S-Reo/MazeLibrary\Searching.c **** 	Mouse->next.node = getNextNode(maze, Mouse->now.car, Mouse->now.node, mask); // 次のノードを
 225:C:/Users/leopi/Documents/vs/S-Reo/MazeLibrary\Searching.c **** 	
 226:C:/Users/leopi/Documents/vs/S-Reo/MazeLibrary\Searching.c **** 	getNextState(&(Mouse->now), &(Mouse->next), Mouse->next.node); // 現ノードと次ノードを
 227:C:/Users/leopi/Documents/vs/S-Reo/MazeLibrary\Searching.c **** }
 228:C:/Users/leopi/Documents/vs/S-Reo/MazeLibrary\Searching.c **** 
 229:C:/Users/leopi/Documents/vs/S-Reo/MazeLibrary\Searching.c **** 
 230:C:/Users/leopi/Documents/vs/S-Reo/MazeLibrary\Searching.c **** 
 231:C:/Users/leopi/Documents/vs/S-Reo/MazeLibrary\Searching.c **** 
 232:C:/Users/leopi/Documents/vs/S-Reo/MazeLibrary\Searching.c **** //今いるノード情報を返す（区画進入時の方角を使用する）
 233:C:/Users/leopi/Documents/vs/S-Reo/MazeLibrary\Searching.c **** node *getNodeInfo(maze_node *maze, uint8_t x, uint8_t y, cardinal car)
 234:C:/Users/leopi/Documents/vs/S-Reo/MazeLibrary\Searching.c **** {
 1235              		.loc 1 234 1 is_stmt 1 view -0
 1236              		.cfi_startproc
 1237              		@ args = 0, pretend = 0, frame = 0
 1238              		@ frame_needed = 0, uses_anonymous_args = 0
 1239              		.loc 1 234 1 is_stmt 0 view .LVU297
 1240 0000 00B5     		push	{lr}
 1241              	.LCFI19:
 1242              		.cfi_def_cfa_offset 4
 1243              		.cfi_offset 14, -4
 1244 0002 8446     		mov	ip, r0
 235:C:/Users/leopi/Documents/vs/S-Reo/MazeLibrary\Searching.c **** 	node *error;
 1245              		.loc 1 235 2 is_stmt 1 view .LVU298
 236:C:/Users/leopi/Documents/vs/S-Reo/MazeLibrary\Searching.c **** 	error = &(maze->RawNode[0][1]);
 1246              		.loc 1 236 2 view .LVU299
 1247              		.loc 1 236 8 is_stmt 0 view .LVU300
 1248 0004 0830     		adds	r0, r0, #8
 1249              	.LVL90:
 237:C:/Users/leopi/Documents/vs/S-Reo/MazeLibrary\Searching.c ****     //breakは要らないけどお決まりとして入れてるだけ
 238:C:/Users/leopi/Documents/vs/S-Reo/MazeLibrary\Searching.c ****     switch (car)//区画侵入時の方角
 1250              		.loc 1 238 5 is_stmt 1 view .LVU301
 1251 0006 062B     		cmp	r3, #6
 1252 0008 0CD8     		bhi	.L77
 1253 000a DFE803F0 		tbb	[pc, r3]
 1254              	.L80:
 1255 000e 04       		.byte	(.L83-.L80)/2
 1256 000f 0B       		.byte	(.L77-.L80)/2
 1257 0010 0D       		.byte	(.L82-.L80)/2
ARM GAS  C:\Users\leopi\AppData\Local\Temp\cc19K7kN.s 			page 29


 1258 0011 0B       		.byte	(.L77-.L80)/2
 1259 0012 16       		.byte	(.L81-.L80)/2
 1260 0013 0B       		.byte	(.L77-.L80)/2
 1261 0014 1F       		.byte	(.L79-.L80)/2
 1262 0015 00       		.p2align 1
 1263              	.L83:
 239:C:/Users/leopi/Documents/vs/S-Reo/MazeLibrary\Searching.c ****     {
 240:C:/Users/leopi/Documents/vs/S-Reo/MazeLibrary\Searching.c ****     case north:
 241:C:/Users/leopi/Documents/vs/S-Reo/MazeLibrary\Searching.c ****         //南ノードを返す
 242:C:/Users/leopi/Documents/vs/S-Reo/MazeLibrary\Searching.c ****         maze->RawNode[x][y].pos.x = x;
 1264              		.loc 1 242 9 view .LVU302
 1265              		.loc 1 242 35 is_stmt 0 view .LVU303
 1266 0016 01EB4113 		add	r3, r1, r1, lsl #5
 1267              	.LVL91:
 1268              		.loc 1 242 35 view .LVU304
 1269 001a 1344     		add	r3, r3, r2
 1270 001c 0CEBC300 		add	r0, ip, r3, lsl #3
 1271              	.LVL92:
 1272              		.loc 1 242 35 view .LVU305
 1273 0020 8171     		strb	r1, [r0, #6]
 243:C:/Users/leopi/Documents/vs/S-Reo/MazeLibrary\Searching.c ****         maze->RawNode[x][y].pos.y = y;
 1274              		.loc 1 243 9 is_stmt 1 view .LVU306
 1275              		.loc 1 243 35 is_stmt 0 view .LVU307
 1276 0022 C271     		strb	r2, [r0, #7]
 244:C:/Users/leopi/Documents/vs/S-Reo/MazeLibrary\Searching.c ****         return &(maze->RawNode[x][y]);
 1277              		.loc 1 244 9 is_stmt 1 view .LVU308
 1278              	.LVL93:
 1279              	.L77:
 245:C:/Users/leopi/Documents/vs/S-Reo/MazeLibrary\Searching.c ****         break;
 246:C:/Users/leopi/Documents/vs/S-Reo/MazeLibrary\Searching.c ****     case east:
 247:C:/Users/leopi/Documents/vs/S-Reo/MazeLibrary\Searching.c ****         //西ノードを返す
 248:C:/Users/leopi/Documents/vs/S-Reo/MazeLibrary\Searching.c ****         maze->ColumnNode[x][y].pos.x = x;
 249:C:/Users/leopi/Documents/vs/S-Reo/MazeLibrary\Searching.c ****         maze->ColumnNode[x][y].pos.y = y;
 250:C:/Users/leopi/Documents/vs/S-Reo/MazeLibrary\Searching.c ****         return &(maze->ColumnNode[x][y]);
 251:C:/Users/leopi/Documents/vs/S-Reo/MazeLibrary\Searching.c ****         break;
 252:C:/Users/leopi/Documents/vs/S-Reo/MazeLibrary\Searching.c ****     case south:
 253:C:/Users/leopi/Documents/vs/S-Reo/MazeLibrary\Searching.c ****         //北ノードを返す
 254:C:/Users/leopi/Documents/vs/S-Reo/MazeLibrary\Searching.c ****         maze->RawNode[x][y+1].pos.x = x;
 255:C:/Users/leopi/Documents/vs/S-Reo/MazeLibrary\Searching.c ****         maze->RawNode[x][y+1].pos.y = y+1;
 256:C:/Users/leopi/Documents/vs/S-Reo/MazeLibrary\Searching.c ****         return &(maze->RawNode[x][y+1]);
 257:C:/Users/leopi/Documents/vs/S-Reo/MazeLibrary\Searching.c ****         break;
 258:C:/Users/leopi/Documents/vs/S-Reo/MazeLibrary\Searching.c ****     case west:
 259:C:/Users/leopi/Documents/vs/S-Reo/MazeLibrary\Searching.c ****         //東ノードを返す
 260:C:/Users/leopi/Documents/vs/S-Reo/MazeLibrary\Searching.c ****         maze->ColumnNode[x+1][y].pos.x = x+1;
 261:C:/Users/leopi/Documents/vs/S-Reo/MazeLibrary\Searching.c ****         maze->ColumnNode[x+1][y].pos.y = y;
 262:C:/Users/leopi/Documents/vs/S-Reo/MazeLibrary\Searching.c ****         return &(maze->ColumnNode[x+1][y]);
 263:C:/Users/leopi/Documents/vs/S-Reo/MazeLibrary\Searching.c ****         break;
 264:C:/Users/leopi/Documents/vs/S-Reo/MazeLibrary\Searching.c ****     case ne:    //斜め探索では必要で、かなり面倒（侵入時の方角のあとに2
 265:C:/Users/leopi/Documents/vs/S-Reo/MazeLibrary\Searching.c ****         break;
 266:C:/Users/leopi/Documents/vs/S-Reo/MazeLibrary\Searching.c ****     case se:
 267:C:/Users/leopi/Documents/vs/S-Reo/MazeLibrary\Searching.c ****         break;
 268:C:/Users/leopi/Documents/vs/S-Reo/MazeLibrary\Searching.c ****     case sw:
 269:C:/Users/leopi/Documents/vs/S-Reo/MazeLibrary\Searching.c ****         break;
 270:C:/Users/leopi/Documents/vs/S-Reo/MazeLibrary\Searching.c ****     case nw:
 271:C:/Users/leopi/Documents/vs/S-Reo/MazeLibrary\Searching.c ****         break;
 272:C:/Users/leopi/Documents/vs/S-Reo/MazeLibrary\Searching.c ****     default:
 273:C:/Users/leopi/Documents/vs/S-Reo/MazeLibrary\Searching.c ****     	return error; //
ARM GAS  C:\Users\leopi\AppData\Local\Temp\cc19K7kN.s 			page 30


 274:C:/Users/leopi/Documents/vs/S-Reo/MazeLibrary\Searching.c ****         break;
 275:C:/Users/leopi/Documents/vs/S-Reo/MazeLibrary\Searching.c ****     }
 276:C:/Users/leopi/Documents/vs/S-Reo/MazeLibrary\Searching.c ****     return error;
 277:C:/Users/leopi/Documents/vs/S-Reo/MazeLibrary\Searching.c **** }
 1280              		.loc 1 277 1 is_stmt 0 view .LVU309
 1281 0024 5DF804FB 		ldr	pc, [sp], #4
 1282              	.LVL94:
 1283              	.L82:
 245:C:/Users/leopi/Documents/vs/S-Reo/MazeLibrary\Searching.c ****         break;
 1284              		.loc 1 245 9 is_stmt 1 view .LVU310
 248:C:/Users/leopi/Documents/vs/S-Reo/MazeLibrary\Searching.c ****         maze->ColumnNode[x][y].pos.y = y;
 1285              		.loc 1 248 9 view .LVU311
 248:C:/Users/leopi/Documents/vs/S-Reo/MazeLibrary\Searching.c ****         maze->ColumnNode[x][y].pos.y = y;
 1286              		.loc 1 248 38 is_stmt 0 view .LVU312
 1287 0028 02EB4113 		add	r3, r2, r1, lsl #5
 1288              	.LVL95:
 248:C:/Users/leopi/Documents/vs/S-Reo/MazeLibrary\Searching.c ****         maze->ColumnNode[x][y].pos.y = y;
 1289              		.loc 1 248 38 view .LVU313
 1290 002c 03F58463 		add	r3, r3, #1056
 1291 0030 0CEBC300 		add	r0, ip, r3, lsl #3
 1292              	.LVL96:
 248:C:/Users/leopi/Documents/vs/S-Reo/MazeLibrary\Searching.c ****         maze->ColumnNode[x][y].pos.y = y;
 1293              		.loc 1 248 38 view .LVU314
 1294 0034 8171     		strb	r1, [r0, #6]
 249:C:/Users/leopi/Documents/vs/S-Reo/MazeLibrary\Searching.c ****         return &(maze->ColumnNode[x][y]);
 1295              		.loc 1 249 9 is_stmt 1 view .LVU315
 249:C:/Users/leopi/Documents/vs/S-Reo/MazeLibrary\Searching.c ****         return &(maze->ColumnNode[x][y]);
 1296              		.loc 1 249 38 is_stmt 0 view .LVU316
 1297 0036 C271     		strb	r2, [r0, #7]
 250:C:/Users/leopi/Documents/vs/S-Reo/MazeLibrary\Searching.c ****         break;
 1298              		.loc 1 250 9 is_stmt 1 view .LVU317
 250:C:/Users/leopi/Documents/vs/S-Reo/MazeLibrary\Searching.c ****         break;
 1299              		.loc 1 250 16 is_stmt 0 view .LVU318
 1300 0038 F4E7     		b	.L77
 1301              	.LVL97:
 1302              	.L81:
 251:C:/Users/leopi/Documents/vs/S-Reo/MazeLibrary\Searching.c ****     case south:
 1303              		.loc 1 251 9 is_stmt 1 view .LVU319
 254:C:/Users/leopi/Documents/vs/S-Reo/MazeLibrary\Searching.c ****         maze->RawNode[x][y+1].pos.y = y+1;
 1304              		.loc 1 254 9 view .LVU320
 254:C:/Users/leopi/Documents/vs/S-Reo/MazeLibrary\Searching.c ****         maze->RawNode[x][y+1].pos.y = y+1;
 1305              		.loc 1 254 27 is_stmt 0 view .LVU321
 1306 003a 0132     		adds	r2, r2, #1
 1307              	.LVL98:
 254:C:/Users/leopi/Documents/vs/S-Reo/MazeLibrary\Searching.c ****         maze->RawNode[x][y+1].pos.y = y+1;
 1308              		.loc 1 254 37 view .LVU322
 1309 003c 01EB4113 		add	r3, r1, r1, lsl #5
 1310              	.LVL99:
 254:C:/Users/leopi/Documents/vs/S-Reo/MazeLibrary\Searching.c ****         maze->RawNode[x][y+1].pos.y = y+1;
 1311              		.loc 1 254 37 view .LVU323
 1312 0040 1344     		add	r3, r3, r2
 1313 0042 0CEBC300 		add	r0, ip, r3, lsl #3
 1314              	.LVL100:
 254:C:/Users/leopi/Documents/vs/S-Reo/MazeLibrary\Searching.c ****         maze->RawNode[x][y+1].pos.y = y+1;
 1315              		.loc 1 254 37 view .LVU324
 1316 0046 8171     		strb	r1, [r0, #6]
 255:C:/Users/leopi/Documents/vs/S-Reo/MazeLibrary\Searching.c ****         return &(maze->RawNode[x][y+1]);
ARM GAS  C:\Users\leopi\AppData\Local\Temp\cc19K7kN.s 			page 31


 1317              		.loc 1 255 9 is_stmt 1 view .LVU325
 255:C:/Users/leopi/Documents/vs/S-Reo/MazeLibrary\Searching.c ****         return &(maze->RawNode[x][y+1]);
 1318              		.loc 1 255 37 is_stmt 0 view .LVU326
 1319 0048 C271     		strb	r2, [r0, #7]
 256:C:/Users/leopi/Documents/vs/S-Reo/MazeLibrary\Searching.c ****         break;
 1320              		.loc 1 256 9 is_stmt 1 view .LVU327
 256:C:/Users/leopi/Documents/vs/S-Reo/MazeLibrary\Searching.c ****         break;
 1321              		.loc 1 256 16 is_stmt 0 view .LVU328
 1322 004a EBE7     		b	.L77
 1323              	.LVL101:
 1324              	.L79:
 257:C:/Users/leopi/Documents/vs/S-Reo/MazeLibrary\Searching.c ****     case west:
 1325              		.loc 1 257 9 is_stmt 1 view .LVU329
 260:C:/Users/leopi/Documents/vs/S-Reo/MazeLibrary\Searching.c ****         maze->ColumnNode[x+1][y].pos.y = y;
 1326              		.loc 1 260 9 view .LVU330
 260:C:/Users/leopi/Documents/vs/S-Reo/MazeLibrary\Searching.c ****         maze->ColumnNode[x+1][y].pos.y = y;
 1327              		.loc 1 260 27 is_stmt 0 view .LVU331
 1328 004c 0131     		adds	r1, r1, #1
 1329              	.LVL102:
 260:C:/Users/leopi/Documents/vs/S-Reo/MazeLibrary\Searching.c ****         maze->ColumnNode[x+1][y].pos.y = y;
 1330              		.loc 1 260 40 view .LVU332
 1331 004e 02EB4113 		add	r3, r2, r1, lsl #5
 1332              	.LVL103:
 260:C:/Users/leopi/Documents/vs/S-Reo/MazeLibrary\Searching.c ****         maze->ColumnNode[x+1][y].pos.y = y;
 1333              		.loc 1 260 40 view .LVU333
 1334 0052 03F58463 		add	r3, r3, #1056
 1335 0056 0CEBC300 		add	r0, ip, r3, lsl #3
 1336              	.LVL104:
 260:C:/Users/leopi/Documents/vs/S-Reo/MazeLibrary\Searching.c ****         maze->ColumnNode[x+1][y].pos.y = y;
 1337              		.loc 1 260 40 view .LVU334
 1338 005a 8171     		strb	r1, [r0, #6]
 261:C:/Users/leopi/Documents/vs/S-Reo/MazeLibrary\Searching.c ****         return &(maze->ColumnNode[x+1][y]);
 1339              		.loc 1 261 9 is_stmt 1 view .LVU335
 261:C:/Users/leopi/Documents/vs/S-Reo/MazeLibrary\Searching.c ****         return &(maze->ColumnNode[x+1][y]);
 1340              		.loc 1 261 40 is_stmt 0 view .LVU336
 1341 005c C271     		strb	r2, [r0, #7]
 262:C:/Users/leopi/Documents/vs/S-Reo/MazeLibrary\Searching.c ****         break;
 1342              		.loc 1 262 9 is_stmt 1 view .LVU337
 262:C:/Users/leopi/Documents/vs/S-Reo/MazeLibrary\Searching.c ****         break;
 1343              		.loc 1 262 16 is_stmt 0 view .LVU338
 1344 005e E1E7     		b	.L77
 1345              		.cfi_endproc
 1346              	.LFE18:
 1348              		.section	.text.getNextNode,"ax",%progbits
 1349              		.align	1
 1350              		.global	getNextNode
 1351              		.syntax unified
 1352              		.thumb
 1353              		.thumb_func
 1355              	getNextNode:
 1356              	.LVL105:
 1357              	.LFB19:
 278:C:/Users/leopi/Documents/vs/S-Reo/MazeLibrary\Searching.c **** node *getNextNode(maze_node *maze, cardinal car, node *now_node, int mask)
 279:C:/Users/leopi/Documents/vs/S-Reo/MazeLibrary\Searching.c **** {
 1358              		.loc 1 279 1 is_stmt 1 view -0
 1359              		.cfi_startproc
 1360              		@ args = 0, pretend = 0, frame = 0
ARM GAS  C:\Users\leopi\AppData\Local\Temp\cc19K7kN.s 			page 32


 1361              		@ frame_needed = 0, uses_anonymous_args = 0
 1362              		.loc 1 279 1 is_stmt 0 view .LVU340
 1363 0000 2DE9F043 		push	{r4, r5, r6, r7, r8, r9, lr}
 1364              	.LCFI20:
 1365              		.cfi_def_cfa_offset 28
 1366              		.cfi_offset 4, -28
 1367              		.cfi_offset 5, -24
 1368              		.cfi_offset 6, -20
 1369              		.cfi_offset 7, -16
 1370              		.cfi_offset 8, -12
 1371              		.cfi_offset 9, -8
 1372              		.cfi_offset 14, -4
 1373 0004 0546     		mov	r5, r0
 1374 0006 1046     		mov	r0, r2
 1375              	.LVL106:
 280:C:/Users/leopi/Documents/vs/S-Reo/MazeLibrary\Searching.c ****     //6ノードの重みを比較して、次のノードへのアドレスを返す
 281:C:/Users/leopi/Documents/vs/S-Reo/MazeLibrary\Searching.c ****     //現ノードの情報から見るべきノードを選び、比較する
 282:C:/Users/leopi/Documents/vs/S-Reo/MazeLibrary\Searching.c ****     //現在ノードの情報を使って周囲ノードを比較し、一番重みが低いノー
 283:C:/Users/leopi/Documents/vs/S-Reo/MazeLibrary\Searching.c ****     node *next_node;
 1376              		.loc 1 283 5 is_stmt 1 view .LVU341
 284:C:/Users/leopi/Documents/vs/S-Reo/MazeLibrary\Searching.c ****     uint16_t compare_weight=0;
 1377              		.loc 1 284 5 view .LVU342
 285:C:/Users/leopi/Documents/vs/S-Reo/MazeLibrary\Searching.c ****     compare_weight = now_node->weight;
 1378              		.loc 1 285 5 view .LVU343
 1379              		.loc 1 285 20 is_stmt 0 view .LVU344
 1380 0008 B2F802C0 		ldrh	ip, [r2, #2]
 1381              	.LVL107:
 286:C:/Users/leopi/Documents/vs/S-Reo/MazeLibrary\Searching.c **** 
 287:C:/Users/leopi/Documents/vs/S-Reo/MazeLibrary\Searching.c ****     _Bool flag=false;
 1382              		.loc 1 287 5 is_stmt 1 view .LVU345
 288:C:/Users/leopi/Documents/vs/S-Reo/MazeLibrary\Searching.c ****     //printf("マイノードが01のどちらか:%d\r\n",now_node->rc);
 289:C:/Users/leopi/Documents/vs/S-Reo/MazeLibrary\Searching.c ****     if(now_node->rc == 0)
 1383              		.loc 1 289 5 view .LVU346
 1384              		.loc 1 289 16 is_stmt 0 view .LVU347
 1385 000c 5179     		ldrb	r1, [r2, #5]	@ zero_extendqisi2
 1386              	.LVL108:
 1387              		.loc 1 289 7 view .LVU348
 1388 000e 0029     		cmp	r1, #0
 1389 0010 40F0AE80 		bne	.L86
 290:C:/Users/leopi/Documents/vs/S-Reo/MazeLibrary\Searching.c ****     {
 291:C:/Users/leopi/Documents/vs/S-Reo/MazeLibrary\Searching.c **** #if DEBUG_ON
 292:C:/Users/leopi/Documents/vs/S-Reo/MazeLibrary\Searching.c ****         printf("行ノードから");
 293:C:/Users/leopi/Documents/vs/S-Reo/MazeLibrary\Searching.c **** #endif
 294:C:/Users/leopi/Documents/vs/S-Reo/MazeLibrary\Searching.c ****         //条件がおかしい？printしている全ノードの重みと、アドレスを入れ
 295:C:/Users/leopi/Documents/vs/S-Reo/MazeLibrary\Searching.c **** 
 296:C:/Users/leopi/Documents/vs/S-Reo/MazeLibrary\Searching.c ****         //行にいるとき
 297:C:/Users/leopi/Documents/vs/S-Reo/MazeLibrary\Searching.c ****         //北側ノード
 298:C:/Users/leopi/Documents/vs/S-Reo/MazeLibrary\Searching.c ****         if(now_node->pos.y < NUMBER_OF_SQUARES_Y-1)					//範囲チェック
 1390              		.loc 1 298 9 is_stmt 1 view .LVU349
 1391              		.loc 1 298 25 is_stmt 0 view .LVU350
 1392 0014 D279     		ldrb	r2, [r2, #7]	@ zero_extendqisi2
 1393              	.LVL109:
 1394              		.loc 1 298 11 view .LVU351
 1395 0016 1E2A     		cmp	r2, #30
 1396 0018 1FD8     		bhi	.L87
 299:C:/Users/leopi/Documents/vs/S-Reo/MazeLibrary\Searching.c ****         {
 300:C:/Users/leopi/Documents/vs/S-Reo/MazeLibrary\Searching.c **** 
ARM GAS  C:\Users\leopi\AppData\Local\Temp\cc19K7kN.s 			page 33


 301:C:/Users/leopi/Documents/vs/S-Reo/MazeLibrary\Searching.c ****             //printf("%u\r\n",now_node->pos.y);
 302:C:/Users/leopi/Documents/vs/S-Reo/MazeLibrary\Searching.c ****             if( (maze->RawNode[now_node->pos.x][now_node->pos.y+1].existence & mask) == NOWALL)	//
 1397              		.loc 1 302 13 is_stmt 1 view .LVU352
 1398              		.loc 1 302 45 is_stmt 0 view .LVU353
 1399 001a 8679     		ldrb	r6, [r0, #6]	@ zero_extendqisi2
 1400              		.loc 1 302 64 view .LVU354
 1401 001c 571C     		adds	r7, r2, #1
 1402              		.loc 1 302 67 view .LVU355
 1403 001e 06EB4614 		add	r4, r6, r6, lsl #5
 1404 0022 3C44     		add	r4, r4, r7
 1405 0024 15F83440 		ldrb	r4, [r5, r4, lsl #3]	@ zero_extendqisi2
 1406              		.loc 1 302 15 view .LVU356
 1407 0028 1C42     		tst	r4, r3
 1408 002a 16D1     		bne	.L87
 1409              	.LBB13:
 303:C:/Users/leopi/Documents/vs/S-Reo/MazeLibrary\Searching.c ****             {
 304:C:/Users/leopi/Documents/vs/S-Reo/MazeLibrary\Searching.c ****             	static int cnt = 1;
 1410              		.loc 1 304 14 is_stmt 1 view .LVU357
 305:C:/Users/leopi/Documents/vs/S-Reo/MazeLibrary\Searching.c **** //            				ChangeLED(cnt%7);
 306:C:/Users/leopi/Documents/vs/S-Reo/MazeLibrary\Searching.c ****             				cnt ++;
 1411              		.loc 1 306 17 view .LVU358
 1412              		.loc 1 306 21 is_stmt 0 view .LVU359
 1413 002c DFF89C82 		ldr	r8, .L107
 1414 0030 D8F80040 		ldr	r4, [r8]
 1415 0034 0134     		adds	r4, r4, #1
 1416 0036 C8F80040 		str	r4, [r8]
 307:C:/Users/leopi/Documents/vs/S-Reo/MazeLibrary\Searching.c **** 
 308:C:/Users/leopi/Documents/vs/S-Reo/MazeLibrary\Searching.c **** 
 309:C:/Users/leopi/Documents/vs/S-Reo/MazeLibrary\Searching.c ****                 // printf("%d\r\n", maze->RawNode[now_node->pos.x][now_node->pos.y+1].existence);//
 310:C:/Users/leopi/Documents/vs/S-Reo/MazeLibrary\Searching.c ****                 if(compare_weight > maze->RawNode[now_node->pos.x][now_node->pos.y+1].weight)
 1417              		.loc 1 310 17 is_stmt 1 view .LVU360
 1418              		.loc 1 310 86 is_stmt 0 view .LVU361
 1419 003a 06EB4614 		add	r4, r6, r6, lsl #5
 1420 003e 3C44     		add	r4, r4, r7
 1421 0040 05EBC404 		add	r4, r5, r4, lsl #3
 1422 0044 6488     		ldrh	r4, [r4, #2]
 1423              		.loc 1 310 19 view .LVU362
 1424 0046 6445     		cmp	r4, ip
 1425 0048 07D2     		bcs	.L87
 311:C:/Users/leopi/Documents/vs/S-Reo/MazeLibrary\Searching.c ****                 {
 312:C:/Users/leopi/Documents/vs/S-Reo/MazeLibrary\Searching.c **** 
 313:C:/Users/leopi/Documents/vs/S-Reo/MazeLibrary\Searching.c **** #if DEBUG_ON
 314:C:/Users/leopi/Documents/vs/S-Reo/MazeLibrary\Searching.c ****                     printf("北へ\r\n");
 315:C:/Users/leopi/Documents/vs/S-Reo/MazeLibrary\Searching.c **** #endif
 316:C:/Users/leopi/Documents/vs/S-Reo/MazeLibrary\Searching.c ****                     compare_weight = maze->RawNode[now_node->pos.x][now_node->pos.y+1].weight;
 1426              		.loc 1 316 21 is_stmt 1 view .LVU363
 1427              	.LVL110:
 317:C:/Users/leopi/Documents/vs/S-Reo/MazeLibrary\Searching.c ****                     next_node = &(maze->RawNode[now_node->pos.x][now_node->pos.y+1]);
 1428              		.loc 1 317 21 view .LVU364
 1429              		.loc 1 317 31 is_stmt 0 view .LVU365
 1430 004a 06EB4616 		add	r6, r6, r6, lsl #5
 1431 004e 06EB070E 		add	lr, r6, r7
 1432 0052 05EBCE0E 		add	lr, r5, lr, lsl #3
 1433              	.LVL111:
 318:C:/Users/leopi/Documents/vs/S-Reo/MazeLibrary\Searching.c ****                     flag = true;
 1434              		.loc 1 318 21 is_stmt 1 view .LVU366
 316:C:/Users/leopi/Documents/vs/S-Reo/MazeLibrary\Searching.c ****                     next_node = &(maze->RawNode[now_node->pos.x][now_node->pos.y+1]);
ARM GAS  C:\Users\leopi\AppData\Local\Temp\cc19K7kN.s 			page 34


 1435              		.loc 1 316 36 is_stmt 0 view .LVU367
 1436 0056 A446     		mov	ip, r4
 1437              		.loc 1 318 26 view .LVU368
 1438 0058 0121     		movs	r1, #1
 1439              	.LVL112:
 1440              	.L87:
 1441              		.loc 1 318 26 view .LVU369
 1442              	.LBE13:
 319:C:/Users/leopi/Documents/vs/S-Reo/MazeLibrary\Searching.c ****                 }
 320:C:/Users/leopi/Documents/vs/S-Reo/MazeLibrary\Searching.c ****             }
 321:C:/Users/leopi/Documents/vs/S-Reo/MazeLibrary\Searching.c ****         }
 322:C:/Users/leopi/Documents/vs/S-Reo/MazeLibrary\Searching.c ****         //南へ側ノード
 323:C:/Users/leopi/Documents/vs/S-Reo/MazeLibrary\Searching.c ****         if(now_node->pos.y > 1)						//範囲チェック
 1443              		.loc 1 323 9 is_stmt 1 view .LVU370
 1444              		.loc 1 323 11 is_stmt 0 view .LVU371
 1445 005a 012A     		cmp	r2, #1
 1446 005c 18D9     		bls	.L88
 324:C:/Users/leopi/Documents/vs/S-Reo/MazeLibrary\Searching.c ****         {
 325:C:/Users/leopi/Documents/vs/S-Reo/MazeLibrary\Searching.c ****             if( (maze->RawNode[now_node->pos.x][now_node->pos.y-1].existence & mask) == NOWALL)	//
 1447              		.loc 1 325 13 is_stmt 1 view .LVU372
 1448              		.loc 1 325 45 is_stmt 0 view .LVU373
 1449 005e 8479     		ldrb	r4, [r0, #6]	@ zero_extendqisi2
 1450              		.loc 1 325 64 view .LVU374
 1451 0060 571E     		subs	r7, r2, #1
 1452              		.loc 1 325 67 view .LVU375
 1453 0062 04EB4416 		add	r6, r4, r4, lsl #5
 1454 0066 3E44     		add	r6, r6, r7
 1455 0068 15F83660 		ldrb	r6, [r5, r6, lsl #3]	@ zero_extendqisi2
 1456              		.loc 1 325 15 view .LVU376
 1457 006c 1E42     		tst	r6, r3
 1458 006e 0FD1     		bne	.L88
 326:C:/Users/leopi/Documents/vs/S-Reo/MazeLibrary\Searching.c ****             {
 327:C:/Users/leopi/Documents/vs/S-Reo/MazeLibrary\Searching.c ****                 //重みを比較して更新
 328:C:/Users/leopi/Documents/vs/S-Reo/MazeLibrary\Searching.c ****                 if(compare_weight > maze->RawNode[now_node->pos.x][now_node->pos.y-1].weight)
 1459              		.loc 1 328 17 is_stmt 1 view .LVU377
 1460              		.loc 1 328 86 is_stmt 0 view .LVU378
 1461 0070 04EB4416 		add	r6, r4, r4, lsl #5
 1462 0074 3E44     		add	r6, r6, r7
 1463 0076 05EBC606 		add	r6, r5, r6, lsl #3
 1464 007a 7688     		ldrh	r6, [r6, #2]
 1465              		.loc 1 328 19 view .LVU379
 1466 007c 6645     		cmp	r6, ip
 1467 007e 07D2     		bcs	.L88
 329:C:/Users/leopi/Documents/vs/S-Reo/MazeLibrary\Searching.c ****                 {
 330:C:/Users/leopi/Documents/vs/S-Reo/MazeLibrary\Searching.c **** #if DEBUG_ON
 331:C:/Users/leopi/Documents/vs/S-Reo/MazeLibrary\Searching.c ****                     printf("南へ\r\n");
 332:C:/Users/leopi/Documents/vs/S-Reo/MazeLibrary\Searching.c **** #endif
 333:C:/Users/leopi/Documents/vs/S-Reo/MazeLibrary\Searching.c ****                     compare_weight = maze->RawNode[now_node->pos.x][now_node->pos.y-1].weight;
 1468              		.loc 1 333 21 is_stmt 1 view .LVU380
 1469              	.LVL113:
 334:C:/Users/leopi/Documents/vs/S-Reo/MazeLibrary\Searching.c ****                     next_node = &(maze->RawNode[now_node->pos.x][now_node->pos.y-1]);
 1470              		.loc 1 334 21 view .LVU381
 1471              		.loc 1 334 31 is_stmt 0 view .LVU382
 1472 0080 04EB4414 		add	r4, r4, r4, lsl #5
 1473 0084 04EB070E 		add	lr, r4, r7
 1474              	.LVL114:
 1475              		.loc 1 334 31 view .LVU383
ARM GAS  C:\Users\leopi\AppData\Local\Temp\cc19K7kN.s 			page 35


 1476 0088 05EBCE0E 		add	lr, r5, lr, lsl #3
 1477              	.LVL115:
 335:C:/Users/leopi/Documents/vs/S-Reo/MazeLibrary\Searching.c ****                     flag = true;
 1478              		.loc 1 335 21 is_stmt 1 view .LVU384
 333:C:/Users/leopi/Documents/vs/S-Reo/MazeLibrary\Searching.c ****                     next_node = &(maze->RawNode[now_node->pos.x][now_node->pos.y-1]);
 1479              		.loc 1 333 36 is_stmt 0 view .LVU385
 1480 008c B446     		mov	ip, r6
 1481              		.loc 1 335 26 view .LVU386
 1482 008e 0121     		movs	r1, #1
 1483              	.LVL116:
 1484              	.L88:
 336:C:/Users/leopi/Documents/vs/S-Reo/MazeLibrary\Searching.c ****                 }
 337:C:/Users/leopi/Documents/vs/S-Reo/MazeLibrary\Searching.c ****             }
 338:C:/Users/leopi/Documents/vs/S-Reo/MazeLibrary\Searching.c ****         }
 339:C:/Users/leopi/Documents/vs/S-Reo/MazeLibrary\Searching.c ****         //東へ側に斜めが2方向
 340:C:/Users/leopi/Documents/vs/S-Reo/MazeLibrary\Searching.c ****         if(now_node->pos.x +1 < NUMBER_OF_SQUARES_X)					//範囲チェック
 1485              		.loc 1 340 9 is_stmt 1 view .LVU387
 1486              		.loc 1 340 25 is_stmt 0 view .LVU388
 1487 0090 8479     		ldrb	r4, [r0, #6]	@ zero_extendqisi2
 1488              		.loc 1 340 11 view .LVU389
 1489 0092 1E2C     		cmp	r4, #30
 1490 0094 34D8     		bhi	.L89
 341:C:/Users/leopi/Documents/vs/S-Reo/MazeLibrary\Searching.c ****         {
 342:C:/Users/leopi/Documents/vs/S-Reo/MazeLibrary\Searching.c ****             //北東へ
 343:C:/Users/leopi/Documents/vs/S-Reo/MazeLibrary\Searching.c ****             if( (maze->ColumnNode[now_node->pos.x+1][now_node->pos.y].existence & mask) == NOWALL)	
 1491              		.loc 1 343 13 is_stmt 1 view .LVU390
 1492              		.loc 1 343 50 is_stmt 0 view .LVU391
 1493 0096 661C     		adds	r6, r4, #1
 1494              		.loc 1 343 70 view .LVU392
 1495 0098 02EB4617 		add	r7, r2, r6, lsl #5
 1496 009c 07F58467 		add	r7, r7, #1056
 1497 00a0 15F83770 		ldrb	r7, [r5, r7, lsl #3]	@ zero_extendqisi2
 1498              		.loc 1 343 15 view .LVU393
 1499 00a4 1F42     		tst	r7, r3
 1500 00a6 10D1     		bne	.L90
 344:C:/Users/leopi/Documents/vs/S-Reo/MazeLibrary\Searching.c ****             {
 345:C:/Users/leopi/Documents/vs/S-Reo/MazeLibrary\Searching.c ****                 //重みを比較して更新
 346:C:/Users/leopi/Documents/vs/S-Reo/MazeLibrary\Searching.c ****                 if(compare_weight > maze->ColumnNode[now_node->pos.x+1][now_node->pos.y].weight)
 1501              		.loc 1 346 17 is_stmt 1 view .LVU394
 1502              		.loc 1 346 89 is_stmt 0 view .LVU395
 1503 00a8 02EB4617 		add	r7, r2, r6, lsl #5
 1504 00ac 07F58467 		add	r7, r7, #1056
 1505 00b0 05EBC707 		add	r7, r5, r7, lsl #3
 1506 00b4 7F88     		ldrh	r7, [r7, #2]
 1507              		.loc 1 346 19 view .LVU396
 1508 00b6 6745     		cmp	r7, ip
 1509 00b8 07D2     		bcs	.L90
 347:C:/Users/leopi/Documents/vs/S-Reo/MazeLibrary\Searching.c ****                 {
 348:C:/Users/leopi/Documents/vs/S-Reo/MazeLibrary\Searching.c **** #if DEBUG_ON
 349:C:/Users/leopi/Documents/vs/S-Reo/MazeLibrary\Searching.c ****                     printf("北東へ\r\n");
 350:C:/Users/leopi/Documents/vs/S-Reo/MazeLibrary\Searching.c **** #endif
 351:C:/Users/leopi/Documents/vs/S-Reo/MazeLibrary\Searching.c ****                     compare_weight = maze->ColumnNode[now_node->pos.x+1][now_node->pos.y].weight;
 1510              		.loc 1 351 21 is_stmt 1 view .LVU397
 1511              	.LVL117:
 352:C:/Users/leopi/Documents/vs/S-Reo/MazeLibrary\Searching.c ****                     next_node = &(maze->ColumnNode[now_node->pos.x+1][now_node->pos.y]);
 1512              		.loc 1 352 21 view .LVU398
 1513              		.loc 1 352 31 is_stmt 0 view .LVU399
ARM GAS  C:\Users\leopi\AppData\Local\Temp\cc19K7kN.s 			page 36


 1514 00ba 02EB461E 		add	lr, r2, r6, lsl #5
 1515              	.LVL118:
 1516              		.loc 1 352 31 view .LVU400
 1517 00be 0EF5846E 		add	lr, lr, #1056
 1518 00c2 05EBCE0E 		add	lr, r5, lr, lsl #3
 1519              	.LVL119:
 353:C:/Users/leopi/Documents/vs/S-Reo/MazeLibrary\Searching.c ****                     flag = true;
 1520              		.loc 1 353 21 is_stmt 1 view .LVU401
 351:C:/Users/leopi/Documents/vs/S-Reo/MazeLibrary\Searching.c ****                     next_node = &(maze->ColumnNode[now_node->pos.x+1][now_node->pos.y]);
 1521              		.loc 1 351 36 is_stmt 0 view .LVU402
 1522 00c6 BC46     		mov	ip, r7
 1523              		.loc 1 353 26 view .LVU403
 1524 00c8 0121     		movs	r1, #1
 1525              	.LVL120:
 1526              	.L90:
 354:C:/Users/leopi/Documents/vs/S-Reo/MazeLibrary\Searching.c ****                 }
 355:C:/Users/leopi/Documents/vs/S-Reo/MazeLibrary\Searching.c ****             }
 356:C:/Users/leopi/Documents/vs/S-Reo/MazeLibrary\Searching.c **** 
 357:C:/Users/leopi/Documents/vs/S-Reo/MazeLibrary\Searching.c ****             //南へ東へ
 358:C:/Users/leopi/Documents/vs/S-Reo/MazeLibrary\Searching.c ****             if( (maze->ColumnNode[now_node->pos.x+1][now_node->pos.y-1].existence & mask) == NOWALL
 1527              		.loc 1 358 13 is_stmt 1 view .LVU404
 1528              		.loc 1 358 69 is_stmt 0 view .LVU405
 1529 00ca 02F1FF38 		add	r8, r2, #-1
 1530              		.loc 1 358 72 view .LVU406
 1531 00ce 08EB4617 		add	r7, r8, r6, lsl #5
 1532 00d2 07F58467 		add	r7, r7, #1056
 1533 00d6 15F83770 		ldrb	r7, [r5, r7, lsl #3]	@ zero_extendqisi2
 1534              		.loc 1 358 15 view .LVU407
 1535 00da 1F42     		tst	r7, r3
 1536 00dc 10D1     		bne	.L89
 359:C:/Users/leopi/Documents/vs/S-Reo/MazeLibrary\Searching.c ****             {
 360:C:/Users/leopi/Documents/vs/S-Reo/MazeLibrary\Searching.c ****                 //重みを比較して更新
 361:C:/Users/leopi/Documents/vs/S-Reo/MazeLibrary\Searching.c ****                 if(compare_weight > maze->ColumnNode[now_node->pos.x+1][now_node->pos.y-1].weight)
 1537              		.loc 1 361 17 is_stmt 1 view .LVU408
 1538              		.loc 1 361 91 is_stmt 0 view .LVU409
 1539 00de 08EB4617 		add	r7, r8, r6, lsl #5
 1540 00e2 07F58467 		add	r7, r7, #1056
 1541 00e6 05EBC707 		add	r7, r5, r7, lsl #3
 1542 00ea 7F88     		ldrh	r7, [r7, #2]
 1543              		.loc 1 361 19 view .LVU410
 1544 00ec 6745     		cmp	r7, ip
 1545 00ee 07D2     		bcs	.L89
 362:C:/Users/leopi/Documents/vs/S-Reo/MazeLibrary\Searching.c ****                 {
 363:C:/Users/leopi/Documents/vs/S-Reo/MazeLibrary\Searching.c **** #if DEBUG_ON
 364:C:/Users/leopi/Documents/vs/S-Reo/MazeLibrary\Searching.c ****                     printf("南東へ\r\n");
 365:C:/Users/leopi/Documents/vs/S-Reo/MazeLibrary\Searching.c **** #endif
 366:C:/Users/leopi/Documents/vs/S-Reo/MazeLibrary\Searching.c ****                     compare_weight = maze->ColumnNode[now_node->pos.x+1][now_node->pos.y-1].weight;
 1546              		.loc 1 366 21 is_stmt 1 view .LVU411
 1547              	.LVL121:
 367:C:/Users/leopi/Documents/vs/S-Reo/MazeLibrary\Searching.c ****                     next_node = &(maze->ColumnNode[now_node->pos.x+1][now_node->pos.y-1]);
 1548              		.loc 1 367 21 view .LVU412
 1549              		.loc 1 367 31 is_stmt 0 view .LVU413
 1550 00f0 08EB461E 		add	lr, r8, r6, lsl #5
 1551              	.LVL122:
 1552              		.loc 1 367 31 view .LVU414
 1553 00f4 0EF5846E 		add	lr, lr, #1056
 1554 00f8 05EBCE0E 		add	lr, r5, lr, lsl #3
ARM GAS  C:\Users\leopi\AppData\Local\Temp\cc19K7kN.s 			page 37


 1555              	.LVL123:
 368:C:/Users/leopi/Documents/vs/S-Reo/MazeLibrary\Searching.c ****                     flag = true;
 1556              		.loc 1 368 21 is_stmt 1 view .LVU415
 366:C:/Users/leopi/Documents/vs/S-Reo/MazeLibrary\Searching.c ****                     next_node = &(maze->ColumnNode[now_node->pos.x+1][now_node->pos.y-1]);
 1557              		.loc 1 366 36 is_stmt 0 view .LVU416
 1558 00fc BC46     		mov	ip, r7
 1559              		.loc 1 368 26 view .LVU417
 1560 00fe 0121     		movs	r1, #1
 1561              	.LVL124:
 1562              	.L89:
 369:C:/Users/leopi/Documents/vs/S-Reo/MazeLibrary\Searching.c ****                 }
 370:C:/Users/leopi/Documents/vs/S-Reo/MazeLibrary\Searching.c ****             }
 371:C:/Users/leopi/Documents/vs/S-Reo/MazeLibrary\Searching.c ****         }
 372:C:/Users/leopi/Documents/vs/S-Reo/MazeLibrary\Searching.c **** 
 373:C:/Users/leopi/Documents/vs/S-Reo/MazeLibrary\Searching.c ****         //西へ側に斜めが2方向
 374:C:/Users/leopi/Documents/vs/S-Reo/MazeLibrary\Searching.c ****         if(now_node->pos.x > 0)						//範囲チェック
 1563              		.loc 1 374 9 is_stmt 1 view .LVU418
 1564              		.loc 1 374 11 is_stmt 0 view .LVU419
 1565 0100 002C     		cmp	r4, #0
 1566 0102 00F0DD80 		beq	.L91
 375:C:/Users/leopi/Documents/vs/S-Reo/MazeLibrary\Searching.c ****         {
 376:C:/Users/leopi/Documents/vs/S-Reo/MazeLibrary\Searching.c ****             //北西へ
 377:C:/Users/leopi/Documents/vs/S-Reo/MazeLibrary\Searching.c ****             if( (maze->ColumnNode[now_node->pos.x][now_node->pos.y].existence & mask) == NOWALL)		/
 1567              		.loc 1 377 13 is_stmt 1 view .LVU420
 1568              		.loc 1 377 68 is_stmt 0 view .LVU421
 1569 0106 02EB4416 		add	r6, r2, r4, lsl #5
 1570 010a 06F58466 		add	r6, r6, #1056
 1571 010e 15F83660 		ldrb	r6, [r5, r6, lsl #3]	@ zero_extendqisi2
 1572              		.loc 1 377 15 view .LVU422
 1573 0112 1E42     		tst	r6, r3
 1574 0114 10D1     		bne	.L92
 378:C:/Users/leopi/Documents/vs/S-Reo/MazeLibrary\Searching.c ****             {
 379:C:/Users/leopi/Documents/vs/S-Reo/MazeLibrary\Searching.c ****                 //重みを比較して更新
 380:C:/Users/leopi/Documents/vs/S-Reo/MazeLibrary\Searching.c **** 
 381:C:/Users/leopi/Documents/vs/S-Reo/MazeLibrary\Searching.c ****                 if(compare_weight > maze->ColumnNode[now_node->pos.x][now_node->pos.y].weight)
 1575              		.loc 1 381 17 is_stmt 1 view .LVU423
 1576              		.loc 1 381 87 is_stmt 0 view .LVU424
 1577 0116 02EB4416 		add	r6, r2, r4, lsl #5
 1578 011a 06F58466 		add	r6, r6, #1056
 1579 011e 05EBC606 		add	r6, r5, r6, lsl #3
 1580 0122 7688     		ldrh	r6, [r6, #2]
 1581              		.loc 1 381 19 view .LVU425
 1582 0124 6645     		cmp	r6, ip
 1583 0126 07D2     		bcs	.L92
 382:C:/Users/leopi/Documents/vs/S-Reo/MazeLibrary\Searching.c ****                 {
 383:C:/Users/leopi/Documents/vs/S-Reo/MazeLibrary\Searching.c **** #if DEBUG_ON
 384:C:/Users/leopi/Documents/vs/S-Reo/MazeLibrary\Searching.c ****                     printf("北西へ\r\n");
 385:C:/Users/leopi/Documents/vs/S-Reo/MazeLibrary\Searching.c **** #endif
 386:C:/Users/leopi/Documents/vs/S-Reo/MazeLibrary\Searching.c ****                     compare_weight = maze->ColumnNode[now_node->pos.x][now_node->pos.y].weight;
 1584              		.loc 1 386 21 is_stmt 1 view .LVU426
 1585              	.LVL125:
 387:C:/Users/leopi/Documents/vs/S-Reo/MazeLibrary\Searching.c ****                     next_node = &(maze->ColumnNode[now_node->pos.x][now_node->pos.y]);
 1586              		.loc 1 387 21 view .LVU427
 1587              		.loc 1 387 31 is_stmt 0 view .LVU428
 1588 0128 02EB441E 		add	lr, r2, r4, lsl #5
 1589              	.LVL126:
 1590              		.loc 1 387 31 view .LVU429
ARM GAS  C:\Users\leopi\AppData\Local\Temp\cc19K7kN.s 			page 38


 1591 012c 0EF5846E 		add	lr, lr, #1056
 1592 0130 05EBCE0E 		add	lr, r5, lr, lsl #3
 1593              	.LVL127:
 388:C:/Users/leopi/Documents/vs/S-Reo/MazeLibrary\Searching.c ****                     flag = true;
 1594              		.loc 1 388 21 is_stmt 1 view .LVU430
 386:C:/Users/leopi/Documents/vs/S-Reo/MazeLibrary\Searching.c ****                     next_node = &(maze->ColumnNode[now_node->pos.x][now_node->pos.y]);
 1595              		.loc 1 386 36 is_stmt 0 view .LVU431
 1596 0134 B446     		mov	ip, r6
 1597              		.loc 1 388 26 view .LVU432
 1598 0136 0121     		movs	r1, #1
 1599              	.LVL128:
 1600              	.L92:
 389:C:/Users/leopi/Documents/vs/S-Reo/MazeLibrary\Searching.c ****                 }
 390:C:/Users/leopi/Documents/vs/S-Reo/MazeLibrary\Searching.c ****             }
 391:C:/Users/leopi/Documents/vs/S-Reo/MazeLibrary\Searching.c ****             //南へ西へ
 392:C:/Users/leopi/Documents/vs/S-Reo/MazeLibrary\Searching.c ****             if( (maze->ColumnNode[now_node->pos.x][now_node->pos.y-1].existence & mask) == NOWALL)	
 1601              		.loc 1 392 13 is_stmt 1 view .LVU433
 1602              		.loc 1 392 67 is_stmt 0 view .LVU434
 1603 0138 013A     		subs	r2, r2, #1
 1604              		.loc 1 392 70 view .LVU435
 1605 013a 02EB4416 		add	r6, r2, r4, lsl #5
 1606 013e 06F58466 		add	r6, r6, #1056
 1607 0142 15F83660 		ldrb	r6, [r5, r6, lsl #3]	@ zero_extendqisi2
 1608              		.loc 1 392 15 view .LVU436
 1609 0146 1E42     		tst	r6, r3
 1610 0148 40F0BA80 		bne	.L91
 393:C:/Users/leopi/Documents/vs/S-Reo/MazeLibrary\Searching.c ****             {
 394:C:/Users/leopi/Documents/vs/S-Reo/MazeLibrary\Searching.c ****                 //重みを比較して更新
 395:C:/Users/leopi/Documents/vs/S-Reo/MazeLibrary\Searching.c ****                 if(compare_weight > maze->ColumnNode[now_node->pos.x][now_node->pos.y-1].weight)
 1611              		.loc 1 395 17 is_stmt 1 view .LVU437
 1612              		.loc 1 395 89 is_stmt 0 view .LVU438
 1613 014c 02EB4413 		add	r3, r2, r4, lsl #5
 1614              	.LVL129:
 1615              		.loc 1 395 89 view .LVU439
 1616 0150 03F58463 		add	r3, r3, #1056
 1617 0154 05EBC303 		add	r3, r5, r3, lsl #3
 1618 0158 5B88     		ldrh	r3, [r3, #2]
 1619              		.loc 1 395 19 view .LVU440
 1620 015a 6345     		cmp	r3, ip
 1621 015c 80F0B080 		bcs	.L91
 396:C:/Users/leopi/Documents/vs/S-Reo/MazeLibrary\Searching.c ****                 {
 397:C:/Users/leopi/Documents/vs/S-Reo/MazeLibrary\Searching.c **** #if DEBUG_ON
 398:C:/Users/leopi/Documents/vs/S-Reo/MazeLibrary\Searching.c ****                     printf("南西へ\r\n");
 399:C:/Users/leopi/Documents/vs/S-Reo/MazeLibrary\Searching.c **** #endif
 400:C:/Users/leopi/Documents/vs/S-Reo/MazeLibrary\Searching.c ****                     compare_weight = maze->ColumnNode[now_node->pos.x][now_node->pos.y-1].weight;
 1622              		.loc 1 400 21 is_stmt 1 view .LVU441
 1623              	.LVL130:
 401:C:/Users/leopi/Documents/vs/S-Reo/MazeLibrary\Searching.c ****                     next_node = &(maze->ColumnNode[now_node->pos.x][now_node->pos.y-1]);
 1624              		.loc 1 401 21 view .LVU442
 1625              		.loc 1 401 31 is_stmt 0 view .LVU443
 1626 0160 02EB4412 		add	r2, r2, r4, lsl #5
 1627 0164 02F5846E 		add	lr, r2, #1056
 1628              	.LVL131:
 1629              		.loc 1 401 31 view .LVU444
 1630 0168 05EBCE0E 		add	lr, r5, lr, lsl #3
 1631              	.LVL132:
 402:C:/Users/leopi/Documents/vs/S-Reo/MazeLibrary\Searching.c ****                     //このノードあやしい
ARM GAS  C:\Users\leopi\AppData\Local\Temp\cc19K7kN.s 			page 39


 403:C:/Users/leopi/Documents/vs/S-Reo/MazeLibrary\Searching.c ****                     flag = true;
 1632              		.loc 1 403 21 is_stmt 1 view .LVU445
 404:C:/Users/leopi/Documents/vs/S-Reo/MazeLibrary\Searching.c ****                 }
 405:C:/Users/leopi/Documents/vs/S-Reo/MazeLibrary\Searching.c ****             }
 406:C:/Users/leopi/Documents/vs/S-Reo/MazeLibrary\Searching.c ****         }
 407:C:/Users/leopi/Documents/vs/S-Reo/MazeLibrary\Searching.c ****         //6つのうち最小ノードを選ぶ
 408:C:/Users/leopi/Documents/vs/S-Reo/MazeLibrary\Searching.c ****     }
 409:C:/Users/leopi/Documents/vs/S-Reo/MazeLibrary\Searching.c ****     else if(now_node->rc == 1)
 410:C:/Users/leopi/Documents/vs/S-Reo/MazeLibrary\Searching.c ****     {
 411:C:/Users/leopi/Documents/vs/S-Reo/MazeLibrary\Searching.c ****         //printf("列にいる\r\n");
 412:C:/Users/leopi/Documents/vs/S-Reo/MazeLibrary\Searching.c ****         //列にいるとき
 413:C:/Users/leopi/Documents/vs/S-Reo/MazeLibrary\Searching.c **** #if DEBUG_ON
 414:C:/Users/leopi/Documents/vs/S-Reo/MazeLibrary\Searching.c ****         printf("列ノードから");
 415:C:/Users/leopi/Documents/vs/S-Reo/MazeLibrary\Searching.c **** #endif
 416:C:/Users/leopi/Documents/vs/S-Reo/MazeLibrary\Searching.c ****         //東へ側ノード
 417:C:/Users/leopi/Documents/vs/S-Reo/MazeLibrary\Searching.c ****         if(now_node->pos.x < NUMBER_OF_SQUARES_X-1)					//範囲チェック
 418:C:/Users/leopi/Documents/vs/S-Reo/MazeLibrary\Searching.c ****         {
 419:C:/Users/leopi/Documents/vs/S-Reo/MazeLibrary\Searching.c ****             if( (maze->ColumnNode[now_node->pos.x+1][now_node->pos.y].existence & mask) == NOWALL)	
 420:C:/Users/leopi/Documents/vs/S-Reo/MazeLibrary\Searching.c ****             {
 421:C:/Users/leopi/Documents/vs/S-Reo/MazeLibrary\Searching.c ****                 if(compare_weight > maze->ColumnNode[now_node->pos.x+1][now_node->pos.y].weight)
 422:C:/Users/leopi/Documents/vs/S-Reo/MazeLibrary\Searching.c ****                 {
 423:C:/Users/leopi/Documents/vs/S-Reo/MazeLibrary\Searching.c **** #if DEBUG_ON
 424:C:/Users/leopi/Documents/vs/S-Reo/MazeLibrary\Searching.c ****                     printf("東へ\r\n");
 425:C:/Users/leopi/Documents/vs/S-Reo/MazeLibrary\Searching.c **** #endif
 426:C:/Users/leopi/Documents/vs/S-Reo/MazeLibrary\Searching.c ****                     //
 427:C:/Users/leopi/Documents/vs/S-Reo/MazeLibrary\Searching.c **** //                    ChangeLED(2);
 428:C:/Users/leopi/Documents/vs/S-Reo/MazeLibrary\Searching.c ****                     compare_weight = maze->ColumnNode[now_node->pos.x+1][now_node->pos.y].weight;
 429:C:/Users/leopi/Documents/vs/S-Reo/MazeLibrary\Searching.c ****                     next_node = &(maze->ColumnNode[now_node->pos.x+1][now_node->pos.y]);
 430:C:/Users/leopi/Documents/vs/S-Reo/MazeLibrary\Searching.c ****                     flag = true;
 431:C:/Users/leopi/Documents/vs/S-Reo/MazeLibrary\Searching.c ****                 }
 432:C:/Users/leopi/Documents/vs/S-Reo/MazeLibrary\Searching.c ****             }
 433:C:/Users/leopi/Documents/vs/S-Reo/MazeLibrary\Searching.c ****         }
 434:C:/Users/leopi/Documents/vs/S-Reo/MazeLibrary\Searching.c ****         //西へ側ノード
 435:C:/Users/leopi/Documents/vs/S-Reo/MazeLibrary\Searching.c ****         if(now_node->pos.x > 1)						//範囲チェック
 436:C:/Users/leopi/Documents/vs/S-Reo/MazeLibrary\Searching.c ****         {
 437:C:/Users/leopi/Documents/vs/S-Reo/MazeLibrary\Searching.c ****             if( (maze->ColumnNode[now_node->pos.x-1][now_node->pos.y].existence & mask) == NOWALL)	
 438:C:/Users/leopi/Documents/vs/S-Reo/MazeLibrary\Searching.c ****             {
 439:C:/Users/leopi/Documents/vs/S-Reo/MazeLibrary\Searching.c ****                 //重みを比較して更新
 440:C:/Users/leopi/Documents/vs/S-Reo/MazeLibrary\Searching.c ****                 if(compare_weight > maze->ColumnNode[now_node->pos.x-1][now_node->pos.y].weight)
 441:C:/Users/leopi/Documents/vs/S-Reo/MazeLibrary\Searching.c ****                 {
 442:C:/Users/leopi/Documents/vs/S-Reo/MazeLibrary\Searching.c **** //                	ChangeLED(3);
 443:C:/Users/leopi/Documents/vs/S-Reo/MazeLibrary\Searching.c **** #if DEBUG_ON
 444:C:/Users/leopi/Documents/vs/S-Reo/MazeLibrary\Searching.c ****                     printf("西へ\r\n");
 445:C:/Users/leopi/Documents/vs/S-Reo/MazeLibrary\Searching.c **** #endif
 446:C:/Users/leopi/Documents/vs/S-Reo/MazeLibrary\Searching.c ****                     compare_weight = maze->ColumnNode[now_node->pos.x-1][now_node->pos.y].weight;
 447:C:/Users/leopi/Documents/vs/S-Reo/MazeLibrary\Searching.c ****                     next_node = &(maze->ColumnNode[now_node->pos.x-1][now_node->pos.y]);
 448:C:/Users/leopi/Documents/vs/S-Reo/MazeLibrary\Searching.c ****                     flag = true;
 449:C:/Users/leopi/Documents/vs/S-Reo/MazeLibrary\Searching.c ****                 }
 450:C:/Users/leopi/Documents/vs/S-Reo/MazeLibrary\Searching.c ****             }
 451:C:/Users/leopi/Documents/vs/S-Reo/MazeLibrary\Searching.c ****         }
 452:C:/Users/leopi/Documents/vs/S-Reo/MazeLibrary\Searching.c ****         //北側に斜めが2方向
 453:C:/Users/leopi/Documents/vs/S-Reo/MazeLibrary\Searching.c ****         if(now_node->pos.y < NUMBER_OF_SQUARES_Y-1)					//範囲チェック
 454:C:/Users/leopi/Documents/vs/S-Reo/MazeLibrary\Searching.c ****         {
 455:C:/Users/leopi/Documents/vs/S-Reo/MazeLibrary\Searching.c ****             //北東へ
 456:C:/Users/leopi/Documents/vs/S-Reo/MazeLibrary\Searching.c ****             if( (maze->RawNode[now_node->pos.x][now_node->pos.y+1].existence & mask) == NOWALL)		//
 457:C:/Users/leopi/Documents/vs/S-Reo/MazeLibrary\Searching.c ****             {
 458:C:/Users/leopi/Documents/vs/S-Reo/MazeLibrary\Searching.c ****                 //重みを比較して更新
ARM GAS  C:\Users\leopi\AppData\Local\Temp\cc19K7kN.s 			page 40


 459:C:/Users/leopi/Documents/vs/S-Reo/MazeLibrary\Searching.c ****                 if(compare_weight > maze->RawNode[now_node->pos.x][now_node->pos.y+1].weight)
 460:C:/Users/leopi/Documents/vs/S-Reo/MazeLibrary\Searching.c ****                 {
 461:C:/Users/leopi/Documents/vs/S-Reo/MazeLibrary\Searching.c **** //                	ChangeLED(4);
 462:C:/Users/leopi/Documents/vs/S-Reo/MazeLibrary\Searching.c **** #if DEBUG_ON
 463:C:/Users/leopi/Documents/vs/S-Reo/MazeLibrary\Searching.c ****                     printf("北東へ\r\n");
 464:C:/Users/leopi/Documents/vs/S-Reo/MazeLibrary\Searching.c **** #endif
 465:C:/Users/leopi/Documents/vs/S-Reo/MazeLibrary\Searching.c ****                     compare_weight = maze->RawNode[now_node->pos.x][now_node->pos.y+1].weight;
 466:C:/Users/leopi/Documents/vs/S-Reo/MazeLibrary\Searching.c ****                     next_node = &(maze->RawNode[now_node->pos.x][now_node->pos.y+1]);
 467:C:/Users/leopi/Documents/vs/S-Reo/MazeLibrary\Searching.c ****                     flag = true;
 468:C:/Users/leopi/Documents/vs/S-Reo/MazeLibrary\Searching.c ****                 }
 469:C:/Users/leopi/Documents/vs/S-Reo/MazeLibrary\Searching.c ****             }
 470:C:/Users/leopi/Documents/vs/S-Reo/MazeLibrary\Searching.c **** 
 471:C:/Users/leopi/Documents/vs/S-Reo/MazeLibrary\Searching.c ****             //北西へ
 472:C:/Users/leopi/Documents/vs/S-Reo/MazeLibrary\Searching.c ****             if( (maze->RawNode[now_node->pos.x-1][now_node->pos.y+1].existence & mask) == NOWALL)		
 473:C:/Users/leopi/Documents/vs/S-Reo/MazeLibrary\Searching.c ****             {
 474:C:/Users/leopi/Documents/vs/S-Reo/MazeLibrary\Searching.c ****                 //重みを比較して更新
 475:C:/Users/leopi/Documents/vs/S-Reo/MazeLibrary\Searching.c ****                 if(compare_weight > maze->RawNode[now_node->pos.x-1][now_node->pos.y+1].weight)
 476:C:/Users/leopi/Documents/vs/S-Reo/MazeLibrary\Searching.c ****                 {
 477:C:/Users/leopi/Documents/vs/S-Reo/MazeLibrary\Searching.c **** #if DEBUG_ON
 478:C:/Users/leopi/Documents/vs/S-Reo/MazeLibrary\Searching.c ****                     printf("北西へ\r\n");
 479:C:/Users/leopi/Documents/vs/S-Reo/MazeLibrary\Searching.c **** #endif
 480:C:/Users/leopi/Documents/vs/S-Reo/MazeLibrary\Searching.c **** //                    ChangeLED(5);
 481:C:/Users/leopi/Documents/vs/S-Reo/MazeLibrary\Searching.c ****                     compare_weight = maze->RawNode[now_node->pos.x-1][now_node->pos.y+1].weight;
 482:C:/Users/leopi/Documents/vs/S-Reo/MazeLibrary\Searching.c ****                     next_node = &(maze->RawNode[now_node->pos.x-1][now_node->pos.y+1]);
 483:C:/Users/leopi/Documents/vs/S-Reo/MazeLibrary\Searching.c ****                     flag = true;
 484:C:/Users/leopi/Documents/vs/S-Reo/MazeLibrary\Searching.c ****                 }
 485:C:/Users/leopi/Documents/vs/S-Reo/MazeLibrary\Searching.c ****             }
 486:C:/Users/leopi/Documents/vs/S-Reo/MazeLibrary\Searching.c ****         }
 487:C:/Users/leopi/Documents/vs/S-Reo/MazeLibrary\Searching.c **** 
 488:C:/Users/leopi/Documents/vs/S-Reo/MazeLibrary\Searching.c ****         //南へ側に斜めが2方向
 489:C:/Users/leopi/Documents/vs/S-Reo/MazeLibrary\Searching.c ****         if(now_node->pos.y > 0)						//範囲チェック
 490:C:/Users/leopi/Documents/vs/S-Reo/MazeLibrary\Searching.c ****         {
 491:C:/Users/leopi/Documents/vs/S-Reo/MazeLibrary\Searching.c ****             //南へ東へ
 492:C:/Users/leopi/Documents/vs/S-Reo/MazeLibrary\Searching.c ****             if( (maze->RawNode[now_node->pos.x][now_node->pos.y].existence & mask) == NOWALL)		//
 493:C:/Users/leopi/Documents/vs/S-Reo/MazeLibrary\Searching.c ****             {
 494:C:/Users/leopi/Documents/vs/S-Reo/MazeLibrary\Searching.c ****                 //重みを比較して更新
 495:C:/Users/leopi/Documents/vs/S-Reo/MazeLibrary\Searching.c ****                 if(compare_weight > maze->RawNode[now_node->pos.x][now_node->pos.y].weight)
 496:C:/Users/leopi/Documents/vs/S-Reo/MazeLibrary\Searching.c ****                 {
 497:C:/Users/leopi/Documents/vs/S-Reo/MazeLibrary\Searching.c ****                 	//二回目にここが選ばれている
 498:C:/Users/leopi/Documents/vs/S-Reo/MazeLibrary\Searching.c **** //                	ChangeLED(2);
 499:C:/Users/leopi/Documents/vs/S-Reo/MazeLibrary\Searching.c **** #if DEBUG_ON
 500:C:/Users/leopi/Documents/vs/S-Reo/MazeLibrary\Searching.c ****                     printf("南東へ\r\n");
 501:C:/Users/leopi/Documents/vs/S-Reo/MazeLibrary\Searching.c **** #endif
 502:C:/Users/leopi/Documents/vs/S-Reo/MazeLibrary\Searching.c ****                     compare_weight = maze->RawNode[now_node->pos.x][now_node->pos.y].weight;
 503:C:/Users/leopi/Documents/vs/S-Reo/MazeLibrary\Searching.c ****                     next_node = &(maze->RawNode[now_node->pos.x][now_node->pos.y]);
 504:C:/Users/leopi/Documents/vs/S-Reo/MazeLibrary\Searching.c ****                     flag = true;
 505:C:/Users/leopi/Documents/vs/S-Reo/MazeLibrary\Searching.c ****                 }
 506:C:/Users/leopi/Documents/vs/S-Reo/MazeLibrary\Searching.c ****             }
 507:C:/Users/leopi/Documents/vs/S-Reo/MazeLibrary\Searching.c ****             //南へ西へ
 508:C:/Users/leopi/Documents/vs/S-Reo/MazeLibrary\Searching.c ****             if( (maze->RawNode[now_node->pos.x-1][now_node->pos.y].existence & mask) == NOWALL)		//
 509:C:/Users/leopi/Documents/vs/S-Reo/MazeLibrary\Searching.c ****             {
 510:C:/Users/leopi/Documents/vs/S-Reo/MazeLibrary\Searching.c ****                 //重みを比較して更新
 511:C:/Users/leopi/Documents/vs/S-Reo/MazeLibrary\Searching.c ****                 if(compare_weight > maze->RawNode[now_node->pos.x-1][now_node->pos.y].weight)
 512:C:/Users/leopi/Documents/vs/S-Reo/MazeLibrary\Searching.c ****                 {
 513:C:/Users/leopi/Documents/vs/S-Reo/MazeLibrary\Searching.c **** #if DEBUG_ON
 514:C:/Users/leopi/Documents/vs/S-Reo/MazeLibrary\Searching.c ****                     printf("南西へ\r\n");
 515:C:/Users/leopi/Documents/vs/S-Reo/MazeLibrary\Searching.c **** #endif
ARM GAS  C:\Users\leopi\AppData\Local\Temp\cc19K7kN.s 			page 41


 516:C:/Users/leopi/Documents/vs/S-Reo/MazeLibrary\Searching.c ****                     compare_weight = maze->RawNode[now_node->pos.x-1][now_node->pos.y].weight;
 517:C:/Users/leopi/Documents/vs/S-Reo/MazeLibrary\Searching.c ****                     next_node = &(maze->RawNode[now_node->pos.x-1][now_node->pos.y]);
 518:C:/Users/leopi/Documents/vs/S-Reo/MazeLibrary\Searching.c ****                     flag = true;
 519:C:/Users/leopi/Documents/vs/S-Reo/MazeLibrary\Searching.c ****                 }
 520:C:/Users/leopi/Documents/vs/S-Reo/MazeLibrary\Searching.c ****             }
 521:C:/Users/leopi/Documents/vs/S-Reo/MazeLibrary\Searching.c ****         }
 522:C:/Users/leopi/Documents/vs/S-Reo/MazeLibrary\Searching.c ****     }
 523:C:/Users/leopi/Documents/vs/S-Reo/MazeLibrary\Searching.c ****     //next_node = now_node;
 524:C:/Users/leopi/Documents/vs/S-Reo/MazeLibrary\Searching.c ****     //printf("ノード更新無し\r\n\r\n");
 525:C:/Users/leopi/Documents/vs/S-Reo/MazeLibrary\Searching.c ****     if(flag == true)
 1633              		.loc 1 525 5 view .LVU446
 1634              	.L93:
 526:C:/Users/leopi/Documents/vs/S-Reo/MazeLibrary\Searching.c ****     {
 527:C:/Users/leopi/Documents/vs/S-Reo/MazeLibrary\Searching.c **** //    	ChangeLED(7);
 528:C:/Users/leopi/Documents/vs/S-Reo/MazeLibrary\Searching.c **** #if DEBUG_ON
 529:C:/Users/leopi/Documents/vs/S-Reo/MazeLibrary\Searching.c ****         printf("ノード更新有り:%p\r\n", next_node);
 530:C:/Users/leopi/Documents/vs/S-Reo/MazeLibrary\Searching.c **** #endif
 531:C:/Users/leopi/Documents/vs/S-Reo/MazeLibrary\Searching.c ****         return next_node;
 1635              		.loc 1 531 9 view .LVU447
 1636              		.loc 1 531 16 is_stmt 0 view .LVU448
 1637 016c 7046     		mov	r0, lr
 1638              	.LVL133:
 1639              		.loc 1 531 16 view .LVU449
 1640 016e AAE0     		b	.L99
 1641              	.LVL134:
 1642              	.L86:
 409:C:/Users/leopi/Documents/vs/S-Reo/MazeLibrary\Searching.c ****     {
 1643              		.loc 1 409 10 is_stmt 1 view .LVU450
 417:C:/Users/leopi/Documents/vs/S-Reo/MazeLibrary\Searching.c ****         {
 1644              		.loc 1 417 9 view .LVU451
 417:C:/Users/leopi/Documents/vs/S-Reo/MazeLibrary\Searching.c ****         {
 1645              		.loc 1 417 25 is_stmt 0 view .LVU452
 1646 0170 9279     		ldrb	r2, [r2, #6]	@ zero_extendqisi2
 417:C:/Users/leopi/Documents/vs/S-Reo/MazeLibrary\Searching.c ****         {
 1647              		.loc 1 417 11 view .LVU453
 1648 0172 1E2A     		cmp	r2, #30
 1649 0174 1BD8     		bhi	.L100
 419:C:/Users/leopi/Documents/vs/S-Reo/MazeLibrary\Searching.c ****             {
 1650              		.loc 1 419 13 is_stmt 1 view .LVU454
 419:C:/Users/leopi/Documents/vs/S-Reo/MazeLibrary\Searching.c ****             {
 1651              		.loc 1 419 50 is_stmt 0 view .LVU455
 1652 0176 571C     		adds	r7, r2, #1
 419:C:/Users/leopi/Documents/vs/S-Reo/MazeLibrary\Searching.c ****             {
 1653              		.loc 1 419 67 view .LVU456
 1654 0178 C679     		ldrb	r6, [r0, #7]	@ zero_extendqisi2
 419:C:/Users/leopi/Documents/vs/S-Reo/MazeLibrary\Searching.c ****             {
 1655              		.loc 1 419 70 view .LVU457
 1656 017a 06EB4714 		add	r4, r6, r7, lsl #5
 1657 017e 04F58464 		add	r4, r4, #1056
 1658 0182 15F83440 		ldrb	r4, [r5, r4, lsl #3]	@ zero_extendqisi2
 419:C:/Users/leopi/Documents/vs/S-Reo/MazeLibrary\Searching.c ****             {
 1659              		.loc 1 419 15 view .LVU458
 1660 0186 1C42     		tst	r4, r3
 1661 0188 7CD1     		bne	.L101
 421:C:/Users/leopi/Documents/vs/S-Reo/MazeLibrary\Searching.c ****                 {
 1662              		.loc 1 421 17 is_stmt 1 view .LVU459
 421:C:/Users/leopi/Documents/vs/S-Reo/MazeLibrary\Searching.c ****                 {
ARM GAS  C:\Users\leopi\AppData\Local\Temp\cc19K7kN.s 			page 42


 1663              		.loc 1 421 89 is_stmt 0 view .LVU460
 1664 018a 06EB4714 		add	r4, r6, r7, lsl #5
 1665 018e 04F58464 		add	r4, r4, #1056
 1666 0192 05EBC404 		add	r4, r5, r4, lsl #3
 1667 0196 6488     		ldrh	r4, [r4, #2]
 421:C:/Users/leopi/Documents/vs/S-Reo/MazeLibrary\Searching.c ****                 {
 1668              		.loc 1 421 19 view .LVU461
 1669 0198 6445     		cmp	r4, ip
 1670 019a 75D2     		bcs	.L102
 428:C:/Users/leopi/Documents/vs/S-Reo/MazeLibrary\Searching.c ****                     next_node = &(maze->ColumnNode[now_node->pos.x+1][now_node->pos.y]);
 1671              		.loc 1 428 21 is_stmt 1 view .LVU462
 1672              	.LVL135:
 429:C:/Users/leopi/Documents/vs/S-Reo/MazeLibrary\Searching.c ****                     flag = true;
 1673              		.loc 1 429 21 view .LVU463
 429:C:/Users/leopi/Documents/vs/S-Reo/MazeLibrary\Searching.c ****                     flag = true;
 1674              		.loc 1 429 31 is_stmt 0 view .LVU464
 1675 019c 06EB471E 		add	lr, r6, r7, lsl #5
 1676 01a0 0EF5846E 		add	lr, lr, #1056
 1677 01a4 05EBCE0E 		add	lr, r5, lr, lsl #3
 1678              	.LVL136:
 430:C:/Users/leopi/Documents/vs/S-Reo/MazeLibrary\Searching.c ****                 }
 1679              		.loc 1 430 21 is_stmt 1 view .LVU465
 430:C:/Users/leopi/Documents/vs/S-Reo/MazeLibrary\Searching.c ****                 }
 1680              		.loc 1 430 26 is_stmt 0 view .LVU466
 1681 01a8 0F46     		mov	r7, r1
 428:C:/Users/leopi/Documents/vs/S-Reo/MazeLibrary\Searching.c ****                     next_node = &(maze->ColumnNode[now_node->pos.x+1][now_node->pos.y]);
 1682              		.loc 1 428 36 view .LVU467
 1683 01aa A446     		mov	ip, r4
 1684 01ac 00E0     		b	.L94
 1685              	.LVL137:
 1686              	.L100:
 287:C:/Users/leopi/Documents/vs/S-Reo/MazeLibrary\Searching.c ****     //printf("マイノードが01のどちらか:%d\r\n",now_node->rc);
 1687              		.loc 1 287 11 view .LVU468
 1688 01ae 0027     		movs	r7, #0
 1689              	.LVL138:
 1690              	.L94:
 435:C:/Users/leopi/Documents/vs/S-Reo/MazeLibrary\Searching.c ****         {
 1691              		.loc 1 435 9 is_stmt 1 view .LVU469
 435:C:/Users/leopi/Documents/vs/S-Reo/MazeLibrary\Searching.c ****         {
 1692              		.loc 1 435 11 is_stmt 0 view .LVU470
 1693 01b0 012A     		cmp	r2, #1
 1694 01b2 1BD9     		bls	.L95
 437:C:/Users/leopi/Documents/vs/S-Reo/MazeLibrary\Searching.c ****             {
 1695              		.loc 1 437 13 is_stmt 1 view .LVU471
 437:C:/Users/leopi/Documents/vs/S-Reo/MazeLibrary\Searching.c ****             {
 1696              		.loc 1 437 50 is_stmt 0 view .LVU472
 1697 01b4 02F1FF38 		add	r8, r2, #-1
 437:C:/Users/leopi/Documents/vs/S-Reo/MazeLibrary\Searching.c ****             {
 1698              		.loc 1 437 67 view .LVU473
 1699 01b8 C679     		ldrb	r6, [r0, #7]	@ zero_extendqisi2
 437:C:/Users/leopi/Documents/vs/S-Reo/MazeLibrary\Searching.c ****             {
 1700              		.loc 1 437 70 view .LVU474
 1701 01ba 06EB4814 		add	r4, r6, r8, lsl #5
 1702 01be 04F58464 		add	r4, r4, #1056
 1703 01c2 15F83440 		ldrb	r4, [r5, r4, lsl #3]	@ zero_extendqisi2
 437:C:/Users/leopi/Documents/vs/S-Reo/MazeLibrary\Searching.c ****             {
 1704              		.loc 1 437 15 view .LVU475
ARM GAS  C:\Users\leopi\AppData\Local\Temp\cc19K7kN.s 			page 43


 1705 01c6 1C42     		tst	r4, r3
 1706 01c8 10D1     		bne	.L95
 440:C:/Users/leopi/Documents/vs/S-Reo/MazeLibrary\Searching.c ****                 {
 1707              		.loc 1 440 17 is_stmt 1 view .LVU476
 440:C:/Users/leopi/Documents/vs/S-Reo/MazeLibrary\Searching.c ****                 {
 1708              		.loc 1 440 89 is_stmt 0 view .LVU477
 1709 01ca 06EB4814 		add	r4, r6, r8, lsl #5
 1710 01ce 04F58464 		add	r4, r4, #1056
 1711 01d2 05EBC404 		add	r4, r5, r4, lsl #3
 1712 01d6 6488     		ldrh	r4, [r4, #2]
 440:C:/Users/leopi/Documents/vs/S-Reo/MazeLibrary\Searching.c ****                 {
 1713              		.loc 1 440 19 view .LVU478
 1714 01d8 6445     		cmp	r4, ip
 1715 01da 07D2     		bcs	.L95
 446:C:/Users/leopi/Documents/vs/S-Reo/MazeLibrary\Searching.c ****                     next_node = &(maze->ColumnNode[now_node->pos.x-1][now_node->pos.y]);
 1716              		.loc 1 446 21 is_stmt 1 view .LVU479
 1717              	.LVL139:
 447:C:/Users/leopi/Documents/vs/S-Reo/MazeLibrary\Searching.c ****                     flag = true;
 1718              		.loc 1 447 21 view .LVU480
 447:C:/Users/leopi/Documents/vs/S-Reo/MazeLibrary\Searching.c ****                     flag = true;
 1719              		.loc 1 447 31 is_stmt 0 view .LVU481
 1720 01dc 06EB481E 		add	lr, r6, r8, lsl #5
 1721              	.LVL140:
 447:C:/Users/leopi/Documents/vs/S-Reo/MazeLibrary\Searching.c ****                     flag = true;
 1722              		.loc 1 447 31 view .LVU482
 1723 01e0 0EF5846E 		add	lr, lr, #1056
 1724 01e4 05EBCE0E 		add	lr, r5, lr, lsl #3
 1725              	.LVL141:
 448:C:/Users/leopi/Documents/vs/S-Reo/MazeLibrary\Searching.c ****                 }
 1726              		.loc 1 448 21 is_stmt 1 view .LVU483
 448:C:/Users/leopi/Documents/vs/S-Reo/MazeLibrary\Searching.c ****                 }
 1727              		.loc 1 448 26 is_stmt 0 view .LVU484
 1728 01e8 0F46     		mov	r7, r1
 446:C:/Users/leopi/Documents/vs/S-Reo/MazeLibrary\Searching.c ****                     next_node = &(maze->ColumnNode[now_node->pos.x-1][now_node->pos.y]);
 1729              		.loc 1 446 36 view .LVU485
 1730 01ea A446     		mov	ip, r4
 1731              	.LVL142:
 1732              	.L95:
 453:C:/Users/leopi/Documents/vs/S-Reo/MazeLibrary\Searching.c ****         {
 1733              		.loc 1 453 9 is_stmt 1 view .LVU486
 453:C:/Users/leopi/Documents/vs/S-Reo/MazeLibrary\Searching.c ****         {
 1734              		.loc 1 453 25 is_stmt 0 view .LVU487
 1735 01ec C479     		ldrb	r4, [r0, #7]	@ zero_extendqisi2
 453:C:/Users/leopi/Documents/vs/S-Reo/MazeLibrary\Searching.c ****         {
 1736              		.loc 1 453 11 view .LVU488
 1737 01ee 1E2C     		cmp	r4, #30
 1738 01f0 31D8     		bhi	.L96
 456:C:/Users/leopi/Documents/vs/S-Reo/MazeLibrary\Searching.c ****             {
 1739              		.loc 1 456 13 is_stmt 1 view .LVU489
 456:C:/Users/leopi/Documents/vs/S-Reo/MazeLibrary\Searching.c ****             {
 1740              		.loc 1 456 64 is_stmt 0 view .LVU490
 1741 01f2 04F10108 		add	r8, r4, #1
 456:C:/Users/leopi/Documents/vs/S-Reo/MazeLibrary\Searching.c ****             {
 1742              		.loc 1 456 67 view .LVU491
 1743 01f6 02EB4216 		add	r6, r2, r2, lsl #5
 1744 01fa 4644     		add	r6, r6, r8
 1745 01fc 15F83660 		ldrb	r6, [r5, r6, lsl #3]	@ zero_extendqisi2
ARM GAS  C:\Users\leopi\AppData\Local\Temp\cc19K7kN.s 			page 44


 456:C:/Users/leopi/Documents/vs/S-Reo/MazeLibrary\Searching.c ****             {
 1746              		.loc 1 456 15 view .LVU492
 1747 0200 1E42     		tst	r6, r3
 1748 0202 0ED1     		bne	.L97
 459:C:/Users/leopi/Documents/vs/S-Reo/MazeLibrary\Searching.c ****                 {
 1749              		.loc 1 459 17 is_stmt 1 view .LVU493
 459:C:/Users/leopi/Documents/vs/S-Reo/MazeLibrary\Searching.c ****                 {
 1750              		.loc 1 459 86 is_stmt 0 view .LVU494
 1751 0204 02EB4216 		add	r6, r2, r2, lsl #5
 1752 0208 4644     		add	r6, r6, r8
 1753 020a 05EBC606 		add	r6, r5, r6, lsl #3
 1754 020e 7688     		ldrh	r6, [r6, #2]
 459:C:/Users/leopi/Documents/vs/S-Reo/MazeLibrary\Searching.c ****                 {
 1755              		.loc 1 459 19 view .LVU495
 1756 0210 6645     		cmp	r6, ip
 1757 0212 06D2     		bcs	.L97
 465:C:/Users/leopi/Documents/vs/S-Reo/MazeLibrary\Searching.c ****                     next_node = &(maze->RawNode[now_node->pos.x][now_node->pos.y+1]);
 1758              		.loc 1 465 21 is_stmt 1 view .LVU496
 1759              	.LVL143:
 466:C:/Users/leopi/Documents/vs/S-Reo/MazeLibrary\Searching.c ****                     flag = true;
 1760              		.loc 1 466 21 view .LVU497
 466:C:/Users/leopi/Documents/vs/S-Reo/MazeLibrary\Searching.c ****                     flag = true;
 1761              		.loc 1 466 31 is_stmt 0 view .LVU498
 1762 0214 02EB421E 		add	lr, r2, r2, lsl #5
 1763              	.LVL144:
 466:C:/Users/leopi/Documents/vs/S-Reo/MazeLibrary\Searching.c ****                     flag = true;
 1764              		.loc 1 466 31 view .LVU499
 1765 0218 C644     		add	lr, lr, r8
 1766 021a 05EBCE0E 		add	lr, r5, lr, lsl #3
 1767              	.LVL145:
 467:C:/Users/leopi/Documents/vs/S-Reo/MazeLibrary\Searching.c ****                 }
 1768              		.loc 1 467 21 is_stmt 1 view .LVU500
 467:C:/Users/leopi/Documents/vs/S-Reo/MazeLibrary\Searching.c ****                 }
 1769              		.loc 1 467 26 is_stmt 0 view .LVU501
 1770 021e 0F46     		mov	r7, r1
 465:C:/Users/leopi/Documents/vs/S-Reo/MazeLibrary\Searching.c ****                     next_node = &(maze->RawNode[now_node->pos.x][now_node->pos.y+1]);
 1771              		.loc 1 465 36 view .LVU502
 1772 0220 B446     		mov	ip, r6
 1773              	.LVL146:
 1774              	.L97:
 472:C:/Users/leopi/Documents/vs/S-Reo/MazeLibrary\Searching.c ****             {
 1775              		.loc 1 472 13 is_stmt 1 view .LVU503
 472:C:/Users/leopi/Documents/vs/S-Reo/MazeLibrary\Searching.c ****             {
 1776              		.loc 1 472 47 is_stmt 0 view .LVU504
 1777 0222 561E     		subs	r6, r2, #1
 472:C:/Users/leopi/Documents/vs/S-Reo/MazeLibrary\Searching.c ****             {
 1778              		.loc 1 472 69 view .LVU505
 1779 0224 06EB4619 		add	r9, r6, r6, lsl #5
 1780 0228 C144     		add	r9, r9, r8
 1781 022a 15F83990 		ldrb	r9, [r5, r9, lsl #3]	@ zero_extendqisi2
 472:C:/Users/leopi/Documents/vs/S-Reo/MazeLibrary\Searching.c ****             {
 1782              		.loc 1 472 15 view .LVU506
 1783 022e 19EA030F 		tst	r9, r3
 1784 0232 10D1     		bne	.L96
 475:C:/Users/leopi/Documents/vs/S-Reo/MazeLibrary\Searching.c ****                 {
 1785              		.loc 1 475 17 is_stmt 1 view .LVU507
 475:C:/Users/leopi/Documents/vs/S-Reo/MazeLibrary\Searching.c ****                 {
ARM GAS  C:\Users\leopi\AppData\Local\Temp\cc19K7kN.s 			page 45


 1786              		.loc 1 475 88 is_stmt 0 view .LVU508
 1787 0234 06EB4619 		add	r9, r6, r6, lsl #5
 1788 0238 C144     		add	r9, r9, r8
 1789 023a 05EBC909 		add	r9, r5, r9, lsl #3
 1790 023e B9F80290 		ldrh	r9, [r9, #2]
 475:C:/Users/leopi/Documents/vs/S-Reo/MazeLibrary\Searching.c ****                 {
 1791              		.loc 1 475 19 view .LVU509
 1792 0242 E145     		cmp	r9, ip
 1793 0244 07D2     		bcs	.L96
 481:C:/Users/leopi/Documents/vs/S-Reo/MazeLibrary\Searching.c ****                     next_node = &(maze->RawNode[now_node->pos.x-1][now_node->pos.y+1]);
 1794              		.loc 1 481 21 is_stmt 1 view .LVU510
 1795              	.LVL147:
 482:C:/Users/leopi/Documents/vs/S-Reo/MazeLibrary\Searching.c ****                     flag = true;
 1796              		.loc 1 482 21 view .LVU511
 482:C:/Users/leopi/Documents/vs/S-Reo/MazeLibrary\Searching.c ****                     flag = true;
 1797              		.loc 1 482 31 is_stmt 0 view .LVU512
 1798 0246 06EB4616 		add	r6, r6, r6, lsl #5
 1799 024a 06EB080E 		add	lr, r6, r8
 1800              	.LVL148:
 482:C:/Users/leopi/Documents/vs/S-Reo/MazeLibrary\Searching.c ****                     flag = true;
 1801              		.loc 1 482 31 view .LVU513
 1802 024e 05EBCE0E 		add	lr, r5, lr, lsl #3
 1803              	.LVL149:
 483:C:/Users/leopi/Documents/vs/S-Reo/MazeLibrary\Searching.c ****                 }
 1804              		.loc 1 483 21 is_stmt 1 view .LVU514
 483:C:/Users/leopi/Documents/vs/S-Reo/MazeLibrary\Searching.c ****                 }
 1805              		.loc 1 483 26 is_stmt 0 view .LVU515
 1806 0252 0F46     		mov	r7, r1
 481:C:/Users/leopi/Documents/vs/S-Reo/MazeLibrary\Searching.c ****                     next_node = &(maze->RawNode[now_node->pos.x-1][now_node->pos.y+1]);
 1807              		.loc 1 481 36 view .LVU516
 1808 0254 CC46     		mov	ip, r9
 1809              	.LVL150:
 1810              	.L96:
 489:C:/Users/leopi/Documents/vs/S-Reo/MazeLibrary\Searching.c ****         {
 1811              		.loc 1 489 9 is_stmt 1 view .LVU517
 489:C:/Users/leopi/Documents/vs/S-Reo/MazeLibrary\Searching.c ****         {
 1812              		.loc 1 489 11 is_stmt 0 view .LVU518
 1813 0256 94B3     		cbz	r4, .L103
 492:C:/Users/leopi/Documents/vs/S-Reo/MazeLibrary\Searching.c ****             {
 1814              		.loc 1 492 13 is_stmt 1 view .LVU519
 492:C:/Users/leopi/Documents/vs/S-Reo/MazeLibrary\Searching.c ****             {
 1815              		.loc 1 492 65 is_stmt 0 view .LVU520
 1816 0258 02EB4216 		add	r6, r2, r2, lsl #5
 1817 025c 2644     		add	r6, r6, r4
 1818 025e 15F83660 		ldrb	r6, [r5, r6, lsl #3]	@ zero_extendqisi2
 492:C:/Users/leopi/Documents/vs/S-Reo/MazeLibrary\Searching.c ****             {
 1819              		.loc 1 492 15 view .LVU521
 1820 0262 1E42     		tst	r6, r3
 1821 0264 12D1     		bne	.L104
 495:C:/Users/leopi/Documents/vs/S-Reo/MazeLibrary\Searching.c ****                 {
 1822              		.loc 1 495 17 is_stmt 1 view .LVU522
 495:C:/Users/leopi/Documents/vs/S-Reo/MazeLibrary\Searching.c ****                 {
 1823              		.loc 1 495 84 is_stmt 0 view .LVU523
 1824 0266 02EB4216 		add	r6, r2, r2, lsl #5
 1825 026a 2644     		add	r6, r6, r4
 1826 026c 05EBC606 		add	r6, r5, r6, lsl #3
 1827 0270 7688     		ldrh	r6, [r6, #2]
ARM GAS  C:\Users\leopi\AppData\Local\Temp\cc19K7kN.s 			page 46


 495:C:/Users/leopi/Documents/vs/S-Reo/MazeLibrary\Searching.c ****                 {
 1828              		.loc 1 495 19 view .LVU524
 1829 0272 6645     		cmp	r6, ip
 1830 0274 21D2     		bcs	.L105
 502:C:/Users/leopi/Documents/vs/S-Reo/MazeLibrary\Searching.c ****                     next_node = &(maze->RawNode[now_node->pos.x][now_node->pos.y]);
 1831              		.loc 1 502 21 is_stmt 1 view .LVU525
 1832              	.LVL151:
 503:C:/Users/leopi/Documents/vs/S-Reo/MazeLibrary\Searching.c ****                     flag = true;
 1833              		.loc 1 503 21 view .LVU526
 503:C:/Users/leopi/Documents/vs/S-Reo/MazeLibrary\Searching.c ****                     flag = true;
 1834              		.loc 1 503 31 is_stmt 0 view .LVU527
 1835 0276 02EB421E 		add	lr, r2, r2, lsl #5
 1836              	.LVL152:
 503:C:/Users/leopi/Documents/vs/S-Reo/MazeLibrary\Searching.c ****                     flag = true;
 1837              		.loc 1 503 31 view .LVU528
 1838 027a A644     		add	lr, lr, r4
 1839 027c 05EBCE0E 		add	lr, r5, lr, lsl #3
 1840              	.LVL153:
 504:C:/Users/leopi/Documents/vs/S-Reo/MazeLibrary\Searching.c ****                 }
 1841              		.loc 1 504 21 is_stmt 1 view .LVU529
 502:C:/Users/leopi/Documents/vs/S-Reo/MazeLibrary\Searching.c ****                     next_node = &(maze->RawNode[now_node->pos.x][now_node->pos.y]);
 1842              		.loc 1 502 36 is_stmt 0 view .LVU530
 1843 0280 B446     		mov	ip, r6
 1844 0282 04E0     		b	.L98
 1845              	.LVL154:
 1846              	.L101:
 287:C:/Users/leopi/Documents/vs/S-Reo/MazeLibrary\Searching.c ****     //printf("マイノードが01のどちらか:%d\r\n",now_node->rc);
 1847              		.loc 1 287 11 view .LVU531
 1848 0284 0027     		movs	r7, #0
 1849 0286 93E7     		b	.L94
 1850              	.L102:
 1851 0288 0027     		movs	r7, #0
 1852 028a 91E7     		b	.L94
 1853              	.LVL155:
 1854              	.L104:
 287:C:/Users/leopi/Documents/vs/S-Reo/MazeLibrary\Searching.c ****     //printf("マイノードが01のどちらか:%d\r\n",now_node->rc);
 1855              		.loc 1 287 11 view .LVU532
 1856 028c 3946     		mov	r1, r7
 1857              	.LVL156:
 1858              	.L98:
 508:C:/Users/leopi/Documents/vs/S-Reo/MazeLibrary\Searching.c ****             {
 1859              		.loc 1 508 13 is_stmt 1 view .LVU533
 508:C:/Users/leopi/Documents/vs/S-Reo/MazeLibrary\Searching.c ****             {
 1860              		.loc 1 508 47 is_stmt 0 view .LVU534
 1861 028e 013A     		subs	r2, r2, #1
 508:C:/Users/leopi/Documents/vs/S-Reo/MazeLibrary\Searching.c ****             {
 1862              		.loc 1 508 67 view .LVU535
 1863 0290 02EB4216 		add	r6, r2, r2, lsl #5
 1864 0294 2644     		add	r6, r6, r4
 1865 0296 15F83660 		ldrb	r6, [r5, r6, lsl #3]	@ zero_extendqisi2
 508:C:/Users/leopi/Documents/vs/S-Reo/MazeLibrary\Searching.c ****             {
 1866              		.loc 1 508 15 view .LVU536
 1867 029a 1E42     		tst	r6, r3
 1868 029c 10D1     		bne	.L91
 511:C:/Users/leopi/Documents/vs/S-Reo/MazeLibrary\Searching.c ****                 {
 1869              		.loc 1 511 17 is_stmt 1 view .LVU537
 511:C:/Users/leopi/Documents/vs/S-Reo/MazeLibrary\Searching.c ****                 {
ARM GAS  C:\Users\leopi\AppData\Local\Temp\cc19K7kN.s 			page 47


 1870              		.loc 1 511 86 is_stmt 0 view .LVU538
 1871 029e 02EB4213 		add	r3, r2, r2, lsl #5
 1872              	.LVL157:
 511:C:/Users/leopi/Documents/vs/S-Reo/MazeLibrary\Searching.c ****                 {
 1873              		.loc 1 511 86 view .LVU539
 1874 02a2 2344     		add	r3, r3, r4
 1875 02a4 05EBC303 		add	r3, r5, r3, lsl #3
 1876 02a8 5B88     		ldrh	r3, [r3, #2]
 511:C:/Users/leopi/Documents/vs/S-Reo/MazeLibrary\Searching.c ****                 {
 1877              		.loc 1 511 19 view .LVU540
 1878 02aa 6345     		cmp	r3, ip
 1879 02ac 08D2     		bcs	.L91
 516:C:/Users/leopi/Documents/vs/S-Reo/MazeLibrary\Searching.c ****                     next_node = &(maze->RawNode[now_node->pos.x-1][now_node->pos.y]);
 1880              		.loc 1 516 21 is_stmt 1 view .LVU541
 1881              	.LVL158:
 517:C:/Users/leopi/Documents/vs/S-Reo/MazeLibrary\Searching.c ****                     flag = true;
 1882              		.loc 1 517 21 view .LVU542
 517:C:/Users/leopi/Documents/vs/S-Reo/MazeLibrary\Searching.c ****                     flag = true;
 1883              		.loc 1 517 31 is_stmt 0 view .LVU543
 1884 02ae 02EB4212 		add	r2, r2, r2, lsl #5
 1885 02b2 1444     		add	r4, r4, r2
 1886 02b4 05EBC40E 		add	lr, r5, r4, lsl #3
 1887              	.LVL159:
 518:C:/Users/leopi/Documents/vs/S-Reo/MazeLibrary\Searching.c ****                 }
 1888              		.loc 1 518 21 is_stmt 1 view .LVU544
 525:C:/Users/leopi/Documents/vs/S-Reo/MazeLibrary\Searching.c ****     {
 1889              		.loc 1 525 5 view .LVU545
 1890 02b8 58E7     		b	.L93
 1891              	.LVL160:
 1892              	.L105:
 525:C:/Users/leopi/Documents/vs/S-Reo/MazeLibrary\Searching.c ****     {
 1893              		.loc 1 525 5 is_stmt 0 view .LVU546
 1894 02ba 3946     		mov	r1, r7
 1895 02bc E7E7     		b	.L98
 1896              	.L103:
 525:C:/Users/leopi/Documents/vs/S-Reo/MazeLibrary\Searching.c ****     {
 1897              		.loc 1 525 5 view .LVU547
 1898 02be 3946     		mov	r1, r7
 1899              	.LVL161:
 1900              	.L91:
 525:C:/Users/leopi/Documents/vs/S-Reo/MazeLibrary\Searching.c ****     {
 1901              		.loc 1 525 5 is_stmt 1 view .LVU548
 525:C:/Users/leopi/Documents/vs/S-Reo/MazeLibrary\Searching.c ****     {
 1902              		.loc 1 525 7 is_stmt 0 view .LVU549
 1903 02c0 0029     		cmp	r1, #0
 1904 02c2 7FF453AF 		bne	.L93
 1905              	.LVL162:
 1906              	.L99:
 532:C:/Users/leopi/Documents/vs/S-Reo/MazeLibrary\Searching.c ****     }
 533:C:/Users/leopi/Documents/vs/S-Reo/MazeLibrary\Searching.c ****     if(flag == false)
 534:C:/Users/leopi/Documents/vs/S-Reo/MazeLibrary\Searching.c ****     {
 535:C:/Users/leopi/Documents/vs/S-Reo/MazeLibrary\Searching.c **** 
 536:C:/Users/leopi/Documents/vs/S-Reo/MazeLibrary\Searching.c **** //    	ChangeLED(1);
 537:C:/Users/leopi/Documents/vs/S-Reo/MazeLibrary\Searching.c **** #if DEBUG_ON
 538:C:/Users/leopi/Documents/vs/S-Reo/MazeLibrary\Searching.c ****     	printf("ノード更新無し\r\n\r\n");
 539:C:/Users/leopi/Documents/vs/S-Reo/MazeLibrary\Searching.c **** #endif
 540:C:/Users/leopi/Documents/vs/S-Reo/MazeLibrary\Searching.c **** 
ARM GAS  C:\Users\leopi\AppData\Local\Temp\cc19K7kN.s 			page 48


 541:C:/Users/leopi/Documents/vs/S-Reo/MazeLibrary\Searching.c ****         return now_node;//万が一更新されなかったら、今いるノードが目標ノー
 542:C:/Users/leopi/Documents/vs/S-Reo/MazeLibrary\Searching.c ****         //停止しなかった。前回の情報がそのまま反映されるだけ
 543:C:/Users/leopi/Documents/vs/S-Reo/MazeLibrary\Searching.c ****     }
 544:C:/Users/leopi/Documents/vs/S-Reo/MazeLibrary\Searching.c ****     return now_node; //
 545:C:/Users/leopi/Documents/vs/S-Reo/MazeLibrary\Searching.c **** 
 546:C:/Users/leopi/Documents/vs/S-Reo/MazeLibrary\Searching.c **** }
 1907              		.loc 1 546 1 view .LVU550
 1908 02c6 BDE8F083 		pop	{r4, r5, r6, r7, r8, r9, pc}
 1909              	.LVL163:
 1910              	.L108:
 1911              		.loc 1 546 1 view .LVU551
 1912 02ca 00BF     		.align	2
 1913              	.L107:
 1914 02cc 00000000 		.word	.LANCHOR1
 1915              		.cfi_endproc
 1916              	.LFE19:
 1918              		.section	.text.judgeAccelorNot,"ax",%progbits
 1919              		.align	1
 1920              		.global	judgeAccelorNot
 1921              		.syntax unified
 1922              		.thumb
 1923              		.thumb_func
 1925              	judgeAccelorNot:
 1926              	.LVL164:
 1927              	.LFB20:
 547:C:/Users/leopi/Documents/vs/S-Reo/MazeLibrary\Searching.c **** _Bool judgeAccelorNot(maze_node *maze, cardinal car, node *now_node)
 548:C:/Users/leopi/Documents/vs/S-Reo/MazeLibrary\Searching.c **** {
 1928              		.loc 1 548 1 is_stmt 1 view -0
 1929              		.cfi_startproc
 1930              		@ args = 0, pretend = 0, frame = 0
 1931              		@ frame_needed = 0, uses_anonymous_args = 0
 1932              		.loc 1 548 1 is_stmt 0 view .LVU553
 1933 0000 70B5     		push	{r4, r5, r6, lr}
 1934              	.LCFI21:
 1935              		.cfi_def_cfa_offset 16
 1936              		.cfi_offset 4, -16
 1937              		.cfi_offset 5, -12
 1938              		.cfi_offset 6, -8
 1939              		.cfi_offset 14, -4
 1940 0002 0346     		mov	r3, r0
 549:C:/Users/leopi/Documents/vs/S-Reo/MazeLibrary\Searching.c **** 	uint16_t compare_weight=0;
 1941              		.loc 1 549 2 is_stmt 1 view .LVU554
 1942              	.LVL165:
 550:C:/Users/leopi/Documents/vs/S-Reo/MazeLibrary\Searching.c **** 
 551:C:/Users/leopi/Documents/vs/S-Reo/MazeLibrary\Searching.c **** 	compare_weight = now_node->weight;
 1943              		.loc 1 551 2 view .LVU555
 1944              		.loc 1 551 17 is_stmt 0 view .LVU556
 1945 0004 B2F802C0 		ldrh	ip, [r2, #2]
 1946              	.LVL166:
 552:C:/Users/leopi/Documents/vs/S-Reo/MazeLibrary\Searching.c **** 
 553:C:/Users/leopi/Documents/vs/S-Reo/MazeLibrary\Searching.c **** 	_Bool flag=false;
 1947              		.loc 1 553 2 is_stmt 1 view .LVU557
 554:C:/Users/leopi/Documents/vs/S-Reo/MazeLibrary\Searching.c **** 	//現ノードから3方向ノードを見て、未知なら即return
 555:C:/Users/leopi/Documents/vs/S-Reo/MazeLibrary\Searching.c **** 	if(now_node->rc == 0)
 1948              		.loc 1 555 2 view .LVU558
 1949              		.loc 1 555 13 is_stmt 0 view .LVU559
 1950 0008 5079     		ldrb	r0, [r2, #5]	@ zero_extendqisi2
ARM GAS  C:\Users\leopi\AppData\Local\Temp\cc19K7kN.s 			page 49


 1951              	.LVL167:
 1952              		.loc 1 555 4 view .LVU560
 1953 000a 0028     		cmp	r0, #0
 1954 000c 40F0AE80 		bne	.L110
 556:C:/Users/leopi/Documents/vs/S-Reo/MazeLibrary\Searching.c **** 	{
 557:C:/Users/leopi/Documents/vs/S-Reo/MazeLibrary\Searching.c **** 		switch(car%8)
 1955              		.loc 1 557 3 is_stmt 1 view .LVU561
 1956 0010 11F00701 		ands	r1, r1, #7
 1957              	.LVL168:
 1958              		.loc 1 557 3 is_stmt 0 view .LVU562
 1959 0014 02D0     		beq	.L111
 1960 0016 0429     		cmp	r1, #4
 1961 0018 52D0     		beq	.L112
 1962              	.LVL169:
 1963              	.L113:
 558:C:/Users/leopi/Documents/vs/S-Reo/MazeLibrary\Searching.c **** 		{
 559:C:/Users/leopi/Documents/vs/S-Reo/MazeLibrary\Searching.c **** 		case north:
 560:C:/Users/leopi/Documents/vs/S-Reo/MazeLibrary\Searching.c **** 		//行にいるとき
 561:C:/Users/leopi/Documents/vs/S-Reo/MazeLibrary\Searching.c **** 	        //北側ノード
 562:C:/Users/leopi/Documents/vs/S-Reo/MazeLibrary\Searching.c **** 	        if(now_node->pos.y < NUMBER_OF_SQUARES_Y-1)					//範囲チェック
 563:C:/Users/leopi/Documents/vs/S-Reo/MazeLibrary\Searching.c **** 	        {
 564:C:/Users/leopi/Documents/vs/S-Reo/MazeLibrary\Searching.c **** 	            //printf("%u\r\n",now_node->pos.y);
 565:C:/Users/leopi/Documents/vs/S-Reo/MazeLibrary\Searching.c **** 	            if( (maze->RawNode[now_node->pos.x][now_node->pos.y+1].existence ) == UNKNOWN)	//壁
 566:C:/Users/leopi/Documents/vs/S-Reo/MazeLibrary\Searching.c **** 	            {
 567:C:/Users/leopi/Documents/vs/S-Reo/MazeLibrary\Searching.c **** 	            	//UNKNOWNなら即return.
 568:C:/Users/leopi/Documents/vs/S-Reo/MazeLibrary\Searching.c **** 	            	return false;
 569:C:/Users/leopi/Documents/vs/S-Reo/MazeLibrary\Searching.c **** 	            }
 570:C:/Users/leopi/Documents/vs/S-Reo/MazeLibrary\Searching.c **** 	            else if((maze->RawNode[now_node->pos.x][now_node->pos.y+1].existence ) == NOWALL)
 571:C:/Users/leopi/Documents/vs/S-Reo/MazeLibrary\Searching.c **** 	            {
 572:C:/Users/leopi/Documents/vs/S-Reo/MazeLibrary\Searching.c **** 	            	// 壁が既知なら、あるかないかなので、無いときは、候補にな
 573:C:/Users/leopi/Documents/vs/S-Reo/MazeLibrary\Searching.c **** 	            	// UNKNOWNでなければ、重みを比較しておく. 一個もアンノウンで
 574:C:/Users/leopi/Documents/vs/S-Reo/MazeLibrary\Searching.c **** 	                // printf("%d\r\n", maze->RawNode[now_node->pos.x][now_node->pos.y+1].existence);/
 575:C:/Users/leopi/Documents/vs/S-Reo/MazeLibrary\Searching.c **** 	                if(compare_weight > maze->RawNode[now_node->pos.x][now_node->pos.y+1].weight)
 576:C:/Users/leopi/Documents/vs/S-Reo/MazeLibrary\Searching.c **** 	                {
 577:C:/Users/leopi/Documents/vs/S-Reo/MazeLibrary\Searching.c **** 	                    compare_weight = maze->RawNode[now_node->pos.x][now_node->pos.y+1].weight;
 578:C:/Users/leopi/Documents/vs/S-Reo/MazeLibrary\Searching.c **** //	                    next_node = &(maze->RawNode[now_node->pos.x][now_node->pos.y+1]);
 579:C:/Users/leopi/Documents/vs/S-Reo/MazeLibrary\Searching.c **** 	                    flag = true;
 580:C:/Users/leopi/Documents/vs/S-Reo/MazeLibrary\Searching.c **** 	                }
 581:C:/Users/leopi/Documents/vs/S-Reo/MazeLibrary\Searching.c **** 	            }
 582:C:/Users/leopi/Documents/vs/S-Reo/MazeLibrary\Searching.c **** 	        }
 583:C:/Users/leopi/Documents/vs/S-Reo/MazeLibrary\Searching.c **** 
 584:C:/Users/leopi/Documents/vs/S-Reo/MazeLibrary\Searching.c **** 	        //北東
 585:C:/Users/leopi/Documents/vs/S-Reo/MazeLibrary\Searching.c **** 	        if(now_node->pos.x < NUMBER_OF_SQUARES_X-1)					//範囲チェック
 586:C:/Users/leopi/Documents/vs/S-Reo/MazeLibrary\Searching.c **** 	        {
 587:C:/Users/leopi/Documents/vs/S-Reo/MazeLibrary\Searching.c **** 	            //北東へ
 588:C:/Users/leopi/Documents/vs/S-Reo/MazeLibrary\Searching.c **** 	            if( (maze->ColumnNode[now_node->pos.x+1][now_node->pos.y].existence ) == UNKNOWN)
 589:C:/Users/leopi/Documents/vs/S-Reo/MazeLibrary\Searching.c **** 	            {
 590:C:/Users/leopi/Documents/vs/S-Reo/MazeLibrary\Searching.c **** 	            	return false;
 591:C:/Users/leopi/Documents/vs/S-Reo/MazeLibrary\Searching.c **** 	            }
 592:C:/Users/leopi/Documents/vs/S-Reo/MazeLibrary\Searching.c **** 	            else if( (maze->ColumnNode[now_node->pos.x+1][now_node->pos.y].existence ) == NOWALL)
 593:C:/Users/leopi/Documents/vs/S-Reo/MazeLibrary\Searching.c **** 	            {//重みを比較して更新
 594:C:/Users/leopi/Documents/vs/S-Reo/MazeLibrary\Searching.c **** 	                if(compare_weight > maze->ColumnNode[now_node->pos.x+1][now_node->pos.y].weight)
 595:C:/Users/leopi/Documents/vs/S-Reo/MazeLibrary\Searching.c **** 	                {
 596:C:/Users/leopi/Documents/vs/S-Reo/MazeLibrary\Searching.c **** 	                    compare_weight = maze->ColumnNode[now_node->pos.x+1][now_node->pos.y].weight;
 597:C:/Users/leopi/Documents/vs/S-Reo/MazeLibrary\Searching.c **** //	                    next_node = &(maze->ColumnNode[now_node->pos.x+1][now_node->pos.y]);
 598:C:/Users/leopi/Documents/vs/S-Reo/MazeLibrary\Searching.c **** 	                    flag = false;
 599:C:/Users/leopi/Documents/vs/S-Reo/MazeLibrary\Searching.c **** 	                }
ARM GAS  C:\Users\leopi\AppData\Local\Temp\cc19K7kN.s 			page 50


 600:C:/Users/leopi/Documents/vs/S-Reo/MazeLibrary\Searching.c **** 	            }
 601:C:/Users/leopi/Documents/vs/S-Reo/MazeLibrary\Searching.c **** 	        }
 602:C:/Users/leopi/Documents/vs/S-Reo/MazeLibrary\Searching.c **** 
 603:C:/Users/leopi/Documents/vs/S-Reo/MazeLibrary\Searching.c **** 	        //北西
 604:C:/Users/leopi/Documents/vs/S-Reo/MazeLibrary\Searching.c **** 	        if(now_node->pos.x > 0)						//範囲チェック
 605:C:/Users/leopi/Documents/vs/S-Reo/MazeLibrary\Searching.c **** 	        {
 606:C:/Users/leopi/Documents/vs/S-Reo/MazeLibrary\Searching.c **** 	            //北西へ
 607:C:/Users/leopi/Documents/vs/S-Reo/MazeLibrary\Searching.c **** 	            if( (maze->ColumnNode[now_node->pos.x][now_node->pos.y].existence ) == UNKNOWN)		//壁
 608:C:/Users/leopi/Documents/vs/S-Reo/MazeLibrary\Searching.c **** 	            {
 609:C:/Users/leopi/Documents/vs/S-Reo/MazeLibrary\Searching.c **** 	            	return false;
 610:C:/Users/leopi/Documents/vs/S-Reo/MazeLibrary\Searching.c **** 	            }
 611:C:/Users/leopi/Documents/vs/S-Reo/MazeLibrary\Searching.c **** 	                //重みを比較して更新
 612:C:/Users/leopi/Documents/vs/S-Reo/MazeLibrary\Searching.c **** 	            else if( (maze->ColumnNode[now_node->pos.x][now_node->pos.y].existence) == NOWALL)		//
 613:C:/Users/leopi/Documents/vs/S-Reo/MazeLibrary\Searching.c **** 	            {
 614:C:/Users/leopi/Documents/vs/S-Reo/MazeLibrary\Searching.c **** 	                if(compare_weight > maze->ColumnNode[now_node->pos.x][now_node->pos.y].weight)
 615:C:/Users/leopi/Documents/vs/S-Reo/MazeLibrary\Searching.c **** 	                {
 616:C:/Users/leopi/Documents/vs/S-Reo/MazeLibrary\Searching.c **** 	                    compare_weight = maze->ColumnNode[now_node->pos.x][now_node->pos.y].weight;
 617:C:/Users/leopi/Documents/vs/S-Reo/MazeLibrary\Searching.c **** //	                    next_node = &(maze->ColumnNode[now_node->pos.x][now_node->pos.y]);
 618:C:/Users/leopi/Documents/vs/S-Reo/MazeLibrary\Searching.c **** 	                    flag = false;
 619:C:/Users/leopi/Documents/vs/S-Reo/MazeLibrary\Searching.c **** 	                }
 620:C:/Users/leopi/Documents/vs/S-Reo/MazeLibrary\Searching.c **** 	            }
 621:C:/Users/leopi/Documents/vs/S-Reo/MazeLibrary\Searching.c **** 	        }
 622:C:/Users/leopi/Documents/vs/S-Reo/MazeLibrary\Searching.c **** 	        break;
 623:C:/Users/leopi/Documents/vs/S-Reo/MazeLibrary\Searching.c **** 		case south:
 624:C:/Users/leopi/Documents/vs/S-Reo/MazeLibrary\Searching.c **** 			//南へ
 625:C:/Users/leopi/Documents/vs/S-Reo/MazeLibrary\Searching.c **** 			if(now_node->pos.y > 1)						//範囲チェック
 626:C:/Users/leopi/Documents/vs/S-Reo/MazeLibrary\Searching.c **** 			{
 627:C:/Users/leopi/Documents/vs/S-Reo/MazeLibrary\Searching.c **** 				if( (maze->RawNode[now_node->pos.x][now_node->pos.y-1].existence ) == UNKNOWN)	//壁がなけ
 628:C:/Users/leopi/Documents/vs/S-Reo/MazeLibrary\Searching.c **** 				{
 629:C:/Users/leopi/Documents/vs/S-Reo/MazeLibrary\Searching.c **** 					return false;
 630:C:/Users/leopi/Documents/vs/S-Reo/MazeLibrary\Searching.c **** 				}
 631:C:/Users/leopi/Documents/vs/S-Reo/MazeLibrary\Searching.c **** 					//重みを比較して更新
 632:C:/Users/leopi/Documents/vs/S-Reo/MazeLibrary\Searching.c **** 				else if( (maze->RawNode[now_node->pos.x][now_node->pos.y-1].existence ) == NOWALL)
 633:C:/Users/leopi/Documents/vs/S-Reo/MazeLibrary\Searching.c **** 				{
 634:C:/Users/leopi/Documents/vs/S-Reo/MazeLibrary\Searching.c **** 					if(compare_weight > maze->RawNode[now_node->pos.x][now_node->pos.y-1].weight)
 635:C:/Users/leopi/Documents/vs/S-Reo/MazeLibrary\Searching.c **** 					{
 636:C:/Users/leopi/Documents/vs/S-Reo/MazeLibrary\Searching.c **** 						compare_weight = maze->RawNode[now_node->pos.x][now_node->pos.y-1].weight;
 637:C:/Users/leopi/Documents/vs/S-Reo/MazeLibrary\Searching.c **** //						next_node = &(maze->RawNode[now_node->pos.x][now_node->pos.y-1]);
 638:C:/Users/leopi/Documents/vs/S-Reo/MazeLibrary\Searching.c **** 						flag = true;
 639:C:/Users/leopi/Documents/vs/S-Reo/MazeLibrary\Searching.c **** 					}
 640:C:/Users/leopi/Documents/vs/S-Reo/MazeLibrary\Searching.c **** 				}
 641:C:/Users/leopi/Documents/vs/S-Reo/MazeLibrary\Searching.c **** 			}
 642:C:/Users/leopi/Documents/vs/S-Reo/MazeLibrary\Searching.c **** 			if(now_node->pos.x < NUMBER_OF_SQUARES_X-1)					//範囲チェック
 643:C:/Users/leopi/Documents/vs/S-Reo/MazeLibrary\Searching.c **** 			{
 644:C:/Users/leopi/Documents/vs/S-Reo/MazeLibrary\Searching.c **** 				//南へ東へ
 645:C:/Users/leopi/Documents/vs/S-Reo/MazeLibrary\Searching.c **** 				if( (maze->ColumnNode[now_node->pos.x+1][now_node->pos.y-1].existence ) == UNKNOWN)		//壁が
 646:C:/Users/leopi/Documents/vs/S-Reo/MazeLibrary\Searching.c **** 				{
 647:C:/Users/leopi/Documents/vs/S-Reo/MazeLibrary\Searching.c **** 					return false;
 648:C:/Users/leopi/Documents/vs/S-Reo/MazeLibrary\Searching.c **** 				}
 649:C:/Users/leopi/Documents/vs/S-Reo/MazeLibrary\Searching.c **** 				else if( (maze->ColumnNode[now_node->pos.x+1][now_node->pos.y-1].existence ) == NOWALL)		//壁
 650:C:/Users/leopi/Documents/vs/S-Reo/MazeLibrary\Searching.c **** 				{
 651:C:/Users/leopi/Documents/vs/S-Reo/MazeLibrary\Searching.c **** 					//重みを比較して更新
 652:C:/Users/leopi/Documents/vs/S-Reo/MazeLibrary\Searching.c **** 					if(compare_weight > maze->ColumnNode[now_node->pos.x+1][now_node->pos.y-1].weight)
 653:C:/Users/leopi/Documents/vs/S-Reo/MazeLibrary\Searching.c **** 					{
 654:C:/Users/leopi/Documents/vs/S-Reo/MazeLibrary\Searching.c **** 						compare_weight = maze->ColumnNode[now_node->pos.x+1][now_node->pos.y-1].weight;
 655:C:/Users/leopi/Documents/vs/S-Reo/MazeLibrary\Searching.c **** //						next_node = &(maze->ColumnNode[now_node->pos.x+1][now_node->pos.y-1]);
 656:C:/Users/leopi/Documents/vs/S-Reo/MazeLibrary\Searching.c **** 						flag = false;
ARM GAS  C:\Users\leopi\AppData\Local\Temp\cc19K7kN.s 			page 51


 657:C:/Users/leopi/Documents/vs/S-Reo/MazeLibrary\Searching.c **** 					}
 658:C:/Users/leopi/Documents/vs/S-Reo/MazeLibrary\Searching.c **** 				}
 659:C:/Users/leopi/Documents/vs/S-Reo/MazeLibrary\Searching.c **** 			}
 660:C:/Users/leopi/Documents/vs/S-Reo/MazeLibrary\Searching.c **** 			if(now_node->pos.x > 0)						//範囲チェック
 661:C:/Users/leopi/Documents/vs/S-Reo/MazeLibrary\Searching.c **** 			{
 662:C:/Users/leopi/Documents/vs/S-Reo/MazeLibrary\Searching.c **** 				//南へ西へ
 663:C:/Users/leopi/Documents/vs/S-Reo/MazeLibrary\Searching.c **** 				if( (maze->ColumnNode[now_node->pos.x][now_node->pos.y-1].existence ) == UNKNOWN)		//壁がな
 664:C:/Users/leopi/Documents/vs/S-Reo/MazeLibrary\Searching.c **** 				{
 665:C:/Users/leopi/Documents/vs/S-Reo/MazeLibrary\Searching.c **** 					return false;
 666:C:/Users/leopi/Documents/vs/S-Reo/MazeLibrary\Searching.c **** 				}
 667:C:/Users/leopi/Documents/vs/S-Reo/MazeLibrary\Searching.c **** 				else if( (maze->ColumnNode[now_node->pos.x][now_node->pos.y-1].existence ) == NOWALL)		//壁が
 668:C:/Users/leopi/Documents/vs/S-Reo/MazeLibrary\Searching.c **** 				{
 669:C:/Users/leopi/Documents/vs/S-Reo/MazeLibrary\Searching.c **** 					//重みを比較して更新
 670:C:/Users/leopi/Documents/vs/S-Reo/MazeLibrary\Searching.c **** 					if(compare_weight > maze->ColumnNode[now_node->pos.x][now_node->pos.y-1].weight)
 671:C:/Users/leopi/Documents/vs/S-Reo/MazeLibrary\Searching.c **** 					{
 672:C:/Users/leopi/Documents/vs/S-Reo/MazeLibrary\Searching.c **** 						compare_weight = maze->ColumnNode[now_node->pos.x][now_node->pos.y-1].weight;
 673:C:/Users/leopi/Documents/vs/S-Reo/MazeLibrary\Searching.c **** //						next_node = &(maze->ColumnNode[now_node->pos.x][now_node->pos.y-1]);
 674:C:/Users/leopi/Documents/vs/S-Reo/MazeLibrary\Searching.c **** 						//このノードあやしい
 675:C:/Users/leopi/Documents/vs/S-Reo/MazeLibrary\Searching.c **** 						flag = false;
 676:C:/Users/leopi/Documents/vs/S-Reo/MazeLibrary\Searching.c **** 					}
 677:C:/Users/leopi/Documents/vs/S-Reo/MazeLibrary\Searching.c **** 				}
 678:C:/Users/leopi/Documents/vs/S-Reo/MazeLibrary\Searching.c **** 			}
 679:C:/Users/leopi/Documents/vs/S-Reo/MazeLibrary\Searching.c **** 			break;
 680:C:/Users/leopi/Documents/vs/S-Reo/MazeLibrary\Searching.c **** 		default :
 681:C:/Users/leopi/Documents/vs/S-Reo/MazeLibrary\Searching.c **** 			//斜め向きは未定義
 682:C:/Users/leopi/Documents/vs/S-Reo/MazeLibrary\Searching.c **** 			break;
 683:C:/Users/leopi/Documents/vs/S-Reo/MazeLibrary\Searching.c **** 		}
 684:C:/Users/leopi/Documents/vs/S-Reo/MazeLibrary\Searching.c **** 	        //6つのうち最小ノードを選ぶ
 685:C:/Users/leopi/Documents/vs/S-Reo/MazeLibrary\Searching.c **** 	}
 686:C:/Users/leopi/Documents/vs/S-Reo/MazeLibrary\Searching.c **** 	else if(now_node->rc == 1)
 687:C:/Users/leopi/Documents/vs/S-Reo/MazeLibrary\Searching.c **** 	{
 688:C:/Users/leopi/Documents/vs/S-Reo/MazeLibrary\Searching.c **** 		//列にいるとき
 689:C:/Users/leopi/Documents/vs/S-Reo/MazeLibrary\Searching.c **** 		//東を向いているか、西を向いているか
 690:C:/Users/leopi/Documents/vs/S-Reo/MazeLibrary\Searching.c **** 		switch(car%8)
 691:C:/Users/leopi/Documents/vs/S-Reo/MazeLibrary\Searching.c **** 		{
 692:C:/Users/leopi/Documents/vs/S-Reo/MazeLibrary\Searching.c **** 		case east:
 693:C:/Users/leopi/Documents/vs/S-Reo/MazeLibrary\Searching.c **** 
 694:C:/Users/leopi/Documents/vs/S-Reo/MazeLibrary\Searching.c **** 			//東側ノード
 695:C:/Users/leopi/Documents/vs/S-Reo/MazeLibrary\Searching.c **** 			if(now_node->pos.x < NUMBER_OF_SQUARES_X-1)					//範囲チェック
 696:C:/Users/leopi/Documents/vs/S-Reo/MazeLibrary\Searching.c **** 			{
 697:C:/Users/leopi/Documents/vs/S-Reo/MazeLibrary\Searching.c **** 				if( (maze->ColumnNode[now_node->pos.x+1][now_node->pos.y].existence ) == UNKNOWN)	//壁がな
 698:C:/Users/leopi/Documents/vs/S-Reo/MazeLibrary\Searching.c **** 				{
 699:C:/Users/leopi/Documents/vs/S-Reo/MazeLibrary\Searching.c **** 					return false;
 700:C:/Users/leopi/Documents/vs/S-Reo/MazeLibrary\Searching.c **** 				}
 701:C:/Users/leopi/Documents/vs/S-Reo/MazeLibrary\Searching.c **** 				else if( (maze->ColumnNode[now_node->pos.x+1][now_node->pos.y].existence ) == NOWALL)	//壁が
 702:C:/Users/leopi/Documents/vs/S-Reo/MazeLibrary\Searching.c **** 				{
 703:C:/Users/leopi/Documents/vs/S-Reo/MazeLibrary\Searching.c **** 					if(compare_weight > maze->ColumnNode[now_node->pos.x+1][now_node->pos.y].weight)
 704:C:/Users/leopi/Documents/vs/S-Reo/MazeLibrary\Searching.c **** 					{
 705:C:/Users/leopi/Documents/vs/S-Reo/MazeLibrary\Searching.c **** 						compare_weight = maze->ColumnNode[now_node->pos.x+1][now_node->pos.y].weight;
 706:C:/Users/leopi/Documents/vs/S-Reo/MazeLibrary\Searching.c **** //							next_node = &(maze->ColumnNode[now_node->pos.x+1][now_node->pos.y]);
 707:C:/Users/leopi/Documents/vs/S-Reo/MazeLibrary\Searching.c **** 						flag = true;
 708:C:/Users/leopi/Documents/vs/S-Reo/MazeLibrary\Searching.c **** 					}
 709:C:/Users/leopi/Documents/vs/S-Reo/MazeLibrary\Searching.c **** 				}
 710:C:/Users/leopi/Documents/vs/S-Reo/MazeLibrary\Searching.c **** 			}
 711:C:/Users/leopi/Documents/vs/S-Reo/MazeLibrary\Searching.c **** 
 712:C:/Users/leopi/Documents/vs/S-Reo/MazeLibrary\Searching.c **** 			//北東
 713:C:/Users/leopi/Documents/vs/S-Reo/MazeLibrary\Searching.c **** 			if(now_node->pos.y < NUMBER_OF_SQUARES_Y-1)					//範囲チェック
ARM GAS  C:\Users\leopi\AppData\Local\Temp\cc19K7kN.s 			page 52


 714:C:/Users/leopi/Documents/vs/S-Reo/MazeLibrary\Searching.c **** 			{
 715:C:/Users/leopi/Documents/vs/S-Reo/MazeLibrary\Searching.c **** 				//北東へ
 716:C:/Users/leopi/Documents/vs/S-Reo/MazeLibrary\Searching.c **** 				if( (maze->RawNode[now_node->pos.x][now_node->pos.y+1].existence ) == UNKNOWN)		//壁がなけ
 717:C:/Users/leopi/Documents/vs/S-Reo/MazeLibrary\Searching.c **** 				{
 718:C:/Users/leopi/Documents/vs/S-Reo/MazeLibrary\Searching.c **** 					return false;
 719:C:/Users/leopi/Documents/vs/S-Reo/MazeLibrary\Searching.c **** 				}
 720:C:/Users/leopi/Documents/vs/S-Reo/MazeLibrary\Searching.c **** 				else if( (maze->RawNode[now_node->pos.x][now_node->pos.y+1].existence ) == NOWALL)		//壁がな
 721:C:/Users/leopi/Documents/vs/S-Reo/MazeLibrary\Searching.c **** 				{
 722:C:/Users/leopi/Documents/vs/S-Reo/MazeLibrary\Searching.c **** 					//重みを比較して更新
 723:C:/Users/leopi/Documents/vs/S-Reo/MazeLibrary\Searching.c **** 					if(compare_weight > maze->RawNode[now_node->pos.x][now_node->pos.y+1].weight)
 724:C:/Users/leopi/Documents/vs/S-Reo/MazeLibrary\Searching.c **** 					{
 725:C:/Users/leopi/Documents/vs/S-Reo/MazeLibrary\Searching.c **** 						compare_weight = maze->RawNode[now_node->pos.x][now_node->pos.y+1].weight;
 726:C:/Users/leopi/Documents/vs/S-Reo/MazeLibrary\Searching.c **** //							next_node = &(maze->RawNode[now_node->pos.x][now_node->pos.y+1]);
 727:C:/Users/leopi/Documents/vs/S-Reo/MazeLibrary\Searching.c **** 						flag = false;
 728:C:/Users/leopi/Documents/vs/S-Reo/MazeLibrary\Searching.c **** 					}
 729:C:/Users/leopi/Documents/vs/S-Reo/MazeLibrary\Searching.c **** 				}
 730:C:/Users/leopi/Documents/vs/S-Reo/MazeLibrary\Searching.c **** 			}
 731:C:/Users/leopi/Documents/vs/S-Reo/MazeLibrary\Searching.c **** 
 732:C:/Users/leopi/Documents/vs/S-Reo/MazeLibrary\Searching.c **** 			//南東
 733:C:/Users/leopi/Documents/vs/S-Reo/MazeLibrary\Searching.c **** 			if(now_node->pos.y > 0)						//範囲チェック
 734:C:/Users/leopi/Documents/vs/S-Reo/MazeLibrary\Searching.c **** 			{
 735:C:/Users/leopi/Documents/vs/S-Reo/MazeLibrary\Searching.c **** 				//南東へ
 736:C:/Users/leopi/Documents/vs/S-Reo/MazeLibrary\Searching.c **** 				if( (maze->RawNode[now_node->pos.x][now_node->pos.y].existence ) == UNKNOWN)		//壁がなけれ
 737:C:/Users/leopi/Documents/vs/S-Reo/MazeLibrary\Searching.c **** 				{
 738:C:/Users/leopi/Documents/vs/S-Reo/MazeLibrary\Searching.c **** 					return false;
 739:C:/Users/leopi/Documents/vs/S-Reo/MazeLibrary\Searching.c **** 				}
 740:C:/Users/leopi/Documents/vs/S-Reo/MazeLibrary\Searching.c **** 				else if( (maze->RawNode[now_node->pos.x][now_node->pos.y].existence ) == NOWALL)		//壁がな
 741:C:/Users/leopi/Documents/vs/S-Reo/MazeLibrary\Searching.c **** 				{
 742:C:/Users/leopi/Documents/vs/S-Reo/MazeLibrary\Searching.c **** 					//重みを比較して更新
 743:C:/Users/leopi/Documents/vs/S-Reo/MazeLibrary\Searching.c **** 					if(compare_weight > maze->RawNode[now_node->pos.x][now_node->pos.y].weight)
 744:C:/Users/leopi/Documents/vs/S-Reo/MazeLibrary\Searching.c **** 					{
 745:C:/Users/leopi/Documents/vs/S-Reo/MazeLibrary\Searching.c **** 						compare_weight = maze->RawNode[now_node->pos.x][now_node->pos.y].weight;
 746:C:/Users/leopi/Documents/vs/S-Reo/MazeLibrary\Searching.c **** //							next_node = &(maze->RawNode[now_node->pos.x][now_node->pos.y]);
 747:C:/Users/leopi/Documents/vs/S-Reo/MazeLibrary\Searching.c **** 						flag = false;
 748:C:/Users/leopi/Documents/vs/S-Reo/MazeLibrary\Searching.c **** 					}
 749:C:/Users/leopi/Documents/vs/S-Reo/MazeLibrary\Searching.c **** 				}
 750:C:/Users/leopi/Documents/vs/S-Reo/MazeLibrary\Searching.c **** 			}
 751:C:/Users/leopi/Documents/vs/S-Reo/MazeLibrary\Searching.c **** 			break;
 752:C:/Users/leopi/Documents/vs/S-Reo/MazeLibrary\Searching.c **** 
 753:C:/Users/leopi/Documents/vs/S-Reo/MazeLibrary\Searching.c **** 		case west:
 754:C:/Users/leopi/Documents/vs/S-Reo/MazeLibrary\Searching.c **** 			//西側ノード
 755:C:/Users/leopi/Documents/vs/S-Reo/MazeLibrary\Searching.c **** 			if(now_node->pos.x > 1)						//範囲チェック
 756:C:/Users/leopi/Documents/vs/S-Reo/MazeLibrary\Searching.c **** 			{
 757:C:/Users/leopi/Documents/vs/S-Reo/MazeLibrary\Searching.c **** 				if( (maze->ColumnNode[now_node->pos.x-1][now_node->pos.y].existence ) ==UNKNOWN)	//壁がなけ
 758:C:/Users/leopi/Documents/vs/S-Reo/MazeLibrary\Searching.c **** 				{
 759:C:/Users/leopi/Documents/vs/S-Reo/MazeLibrary\Searching.c **** 					return false;
 760:C:/Users/leopi/Documents/vs/S-Reo/MazeLibrary\Searching.c **** 				}
 761:C:/Users/leopi/Documents/vs/S-Reo/MazeLibrary\Searching.c **** 				else if( (maze->ColumnNode[now_node->pos.x-1][now_node->pos.y].existence ) == NOWALL)	//壁が
 762:C:/Users/leopi/Documents/vs/S-Reo/MazeLibrary\Searching.c **** 				{
 763:C:/Users/leopi/Documents/vs/S-Reo/MazeLibrary\Searching.c **** 					//重みを比較して更新
 764:C:/Users/leopi/Documents/vs/S-Reo/MazeLibrary\Searching.c **** 					if(compare_weight > maze->ColumnNode[now_node->pos.x-1][now_node->pos.y].weight)
 765:C:/Users/leopi/Documents/vs/S-Reo/MazeLibrary\Searching.c **** 					{
 766:C:/Users/leopi/Documents/vs/S-Reo/MazeLibrary\Searching.c **** 						compare_weight = maze->ColumnNode[now_node->pos.x-1][now_node->pos.y].weight;
 767:C:/Users/leopi/Documents/vs/S-Reo/MazeLibrary\Searching.c **** //							next_node = &(maze->ColumnNode[now_node->pos.x-1][now_node->pos.y]);
 768:C:/Users/leopi/Documents/vs/S-Reo/MazeLibrary\Searching.c **** 						flag = true;
 769:C:/Users/leopi/Documents/vs/S-Reo/MazeLibrary\Searching.c **** 					}
 770:C:/Users/leopi/Documents/vs/S-Reo/MazeLibrary\Searching.c **** 				}
ARM GAS  C:\Users\leopi\AppData\Local\Temp\cc19K7kN.s 			page 53


 771:C:/Users/leopi/Documents/vs/S-Reo/MazeLibrary\Searching.c **** 			}
 772:C:/Users/leopi/Documents/vs/S-Reo/MazeLibrary\Searching.c **** 			if(now_node->pos.y < NUMBER_OF_SQUARES_Y-1)					//範囲チェック
 773:C:/Users/leopi/Documents/vs/S-Reo/MazeLibrary\Searching.c **** 			{
 774:C:/Users/leopi/Documents/vs/S-Reo/MazeLibrary\Searching.c **** 				//北西へ
 775:C:/Users/leopi/Documents/vs/S-Reo/MazeLibrary\Searching.c **** 				if( (maze->RawNode[now_node->pos.x-1][now_node->pos.y+1].existence ) == UNKNOWN)		//壁がな
 776:C:/Users/leopi/Documents/vs/S-Reo/MazeLibrary\Searching.c **** 				{
 777:C:/Users/leopi/Documents/vs/S-Reo/MazeLibrary\Searching.c **** 					return false;
 778:C:/Users/leopi/Documents/vs/S-Reo/MazeLibrary\Searching.c **** 				}
 779:C:/Users/leopi/Documents/vs/S-Reo/MazeLibrary\Searching.c **** 				else if( (maze->RawNode[now_node->pos.x-1][now_node->pos.y+1].existence ) == NOWALL)		//壁が
 780:C:/Users/leopi/Documents/vs/S-Reo/MazeLibrary\Searching.c **** 				{
 781:C:/Users/leopi/Documents/vs/S-Reo/MazeLibrary\Searching.c **** 					//重みを比較して更新
 782:C:/Users/leopi/Documents/vs/S-Reo/MazeLibrary\Searching.c **** 					if(compare_weight > maze->RawNode[now_node->pos.x-1][now_node->pos.y+1].weight)
 783:C:/Users/leopi/Documents/vs/S-Reo/MazeLibrary\Searching.c **** 					{
 784:C:/Users/leopi/Documents/vs/S-Reo/MazeLibrary\Searching.c **** 						compare_weight = maze->RawNode[now_node->pos.x-1][now_node->pos.y+1].weight;
 785:C:/Users/leopi/Documents/vs/S-Reo/MazeLibrary\Searching.c **** //							next_node = &(maze->RawNode[now_node->pos.x-1][now_node->pos.y+1]);
 786:C:/Users/leopi/Documents/vs/S-Reo/MazeLibrary\Searching.c **** 						flag = false;
 787:C:/Users/leopi/Documents/vs/S-Reo/MazeLibrary\Searching.c **** 					}
 788:C:/Users/leopi/Documents/vs/S-Reo/MazeLibrary\Searching.c **** 				}
 789:C:/Users/leopi/Documents/vs/S-Reo/MazeLibrary\Searching.c **** 			}
 790:C:/Users/leopi/Documents/vs/S-Reo/MazeLibrary\Searching.c **** 			if(now_node->pos.y > 0)						//範囲チェック
 791:C:/Users/leopi/Documents/vs/S-Reo/MazeLibrary\Searching.c **** 			{
 792:C:/Users/leopi/Documents/vs/S-Reo/MazeLibrary\Searching.c **** 				//南へ西へ
 793:C:/Users/leopi/Documents/vs/S-Reo/MazeLibrary\Searching.c **** 				if( (maze->RawNode[now_node->pos.x-1][now_node->pos.y].existence ) == UNKNOWN)		//壁がなけ
 794:C:/Users/leopi/Documents/vs/S-Reo/MazeLibrary\Searching.c **** 				{
 795:C:/Users/leopi/Documents/vs/S-Reo/MazeLibrary\Searching.c **** 					return false;
 796:C:/Users/leopi/Documents/vs/S-Reo/MazeLibrary\Searching.c **** 				}
 797:C:/Users/leopi/Documents/vs/S-Reo/MazeLibrary\Searching.c **** 				else if( (maze->RawNode[now_node->pos.x-1][now_node->pos.y].existence ) == NOWALL)		//壁がな
 798:C:/Users/leopi/Documents/vs/S-Reo/MazeLibrary\Searching.c **** 				{
 799:C:/Users/leopi/Documents/vs/S-Reo/MazeLibrary\Searching.c **** 					//重みを比較して更新
 800:C:/Users/leopi/Documents/vs/S-Reo/MazeLibrary\Searching.c **** 					if(compare_weight > maze->RawNode[now_node->pos.x-1][now_node->pos.y].weight)
 801:C:/Users/leopi/Documents/vs/S-Reo/MazeLibrary\Searching.c **** 					{
 802:C:/Users/leopi/Documents/vs/S-Reo/MazeLibrary\Searching.c **** 						compare_weight = maze->RawNode[now_node->pos.x-1][now_node->pos.y].weight;
 803:C:/Users/leopi/Documents/vs/S-Reo/MazeLibrary\Searching.c **** //							next_node = &(maze->RawNode[now_node->pos.x-1][now_node->pos.y]);
 804:C:/Users/leopi/Documents/vs/S-Reo/MazeLibrary\Searching.c **** 						flag = false;
 805:C:/Users/leopi/Documents/vs/S-Reo/MazeLibrary\Searching.c **** 					}
 806:C:/Users/leopi/Documents/vs/S-Reo/MazeLibrary\Searching.c **** 				}
 807:C:/Users/leopi/Documents/vs/S-Reo/MazeLibrary\Searching.c **** 
 808:C:/Users/leopi/Documents/vs/S-Reo/MazeLibrary\Searching.c **** 			}
 809:C:/Users/leopi/Documents/vs/S-Reo/MazeLibrary\Searching.c **** 			break;
 810:C:/Users/leopi/Documents/vs/S-Reo/MazeLibrary\Searching.c **** 		default :
 811:C:/Users/leopi/Documents/vs/S-Reo/MazeLibrary\Searching.c **** 			break;
 812:C:/Users/leopi/Documents/vs/S-Reo/MazeLibrary\Searching.c **** 		}
 813:C:/Users/leopi/Documents/vs/S-Reo/MazeLibrary\Searching.c **** 	}
 814:C:/Users/leopi/Documents/vs/S-Reo/MazeLibrary\Searching.c **** 	return flag; //壁が全部あるときもfalseになっている
 815:C:/Users/leopi/Documents/vs/S-Reo/MazeLibrary\Searching.c **** 	//未知があった時点でreturn false
 816:C:/Users/leopi/Documents/vs/S-Reo/MazeLibrary\Searching.c **** 	//直進かどうかまで見て、直進でなければfalse
 817:C:/Users/leopi/Documents/vs/S-Reo/MazeLibrary\Searching.c **** 	//既知でかつ直進ならtrue
 818:C:/Users/leopi/Documents/vs/S-Reo/MazeLibrary\Searching.c **** }
 1964              		.loc 1 818 1 view .LVU563
 1965 001a 70BD     		pop	{r4, r5, r6, pc}
 1966              	.LVL170:
 1967              	.L111:
 562:C:/Users/leopi/Documents/vs/S-Reo/MazeLibrary\Searching.c **** 	        {
 1968              		.loc 1 562 10 is_stmt 1 view .LVU564
 562:C:/Users/leopi/Documents/vs/S-Reo/MazeLibrary\Searching.c **** 	        {
 1969              		.loc 1 562 26 is_stmt 0 view .LVU565
 1970 001c D179     		ldrb	r1, [r2, #7]	@ zero_extendqisi2
ARM GAS  C:\Users\leopi\AppData\Local\Temp\cc19K7kN.s 			page 54


 562:C:/Users/leopi/Documents/vs/S-Reo/MazeLibrary\Searching.c **** 	        {
 1971              		.loc 1 562 12 view .LVU566
 1972 001e 1E29     		cmp	r1, #30
 1973 0020 16D8     		bhi	.L124
 565:C:/Users/leopi/Documents/vs/S-Reo/MazeLibrary\Searching.c **** 	            {
 1974              		.loc 1 565 14 is_stmt 1 view .LVU567
 565:C:/Users/leopi/Documents/vs/S-Reo/MazeLibrary\Searching.c **** 	            {
 1975              		.loc 1 565 46 is_stmt 0 view .LVU568
 1976 0022 92F806E0 		ldrb	lr, [r2, #6]	@ zero_extendqisi2
 565:C:/Users/leopi/Documents/vs/S-Reo/MazeLibrary\Searching.c **** 	            {
 1977              		.loc 1 565 65 view .LVU569
 1978 0026 4D1C     		adds	r5, r1, #1
 565:C:/Users/leopi/Documents/vs/S-Reo/MazeLibrary\Searching.c **** 	            {
 1979              		.loc 1 565 68 view .LVU570
 1980 0028 0EEB4E14 		add	r4, lr, lr, lsl #5
 1981 002c 2C44     		add	r4, r4, r5
 1982 002e 13F83440 		ldrb	r4, [r3, r4, lsl #3]	@ zero_extendqisi2
 565:C:/Users/leopi/Documents/vs/S-Reo/MazeLibrary\Searching.c **** 	            {
 1983              		.loc 1 565 16 view .LVU571
 1984 0032 022C     		cmp	r4, #2
 1985 0034 F1D0     		beq	.L113
 570:C:/Users/leopi/Documents/vs/S-Reo/MazeLibrary\Searching.c **** 	            {
 1986              		.loc 1 570 19 is_stmt 1 view .LVU572
 570:C:/Users/leopi/Documents/vs/S-Reo/MazeLibrary\Searching.c **** 	            {
 1987              		.loc 1 570 21 is_stmt 0 view .LVU573
 1988 0036 002C     		cmp	r4, #0
 1989 0038 3CD1     		bne	.L125
 575:C:/Users/leopi/Documents/vs/S-Reo/MazeLibrary\Searching.c **** 	                {
 1990              		.loc 1 575 18 is_stmt 1 view .LVU574
 575:C:/Users/leopi/Documents/vs/S-Reo/MazeLibrary\Searching.c **** 	                {
 1991              		.loc 1 575 87 is_stmt 0 view .LVU575
 1992 003a 0EEB4E1E 		add	lr, lr, lr, lsl #5
 1993 003e AE44     		add	lr, lr, r5
 1994 0040 03EBCE0E 		add	lr, r3, lr, lsl #3
 1995 0044 BEF80240 		ldrh	r4, [lr, #2]
 575:C:/Users/leopi/Documents/vs/S-Reo/MazeLibrary\Searching.c **** 	                {
 1996              		.loc 1 575 20 view .LVU576
 1997 0048 6445     		cmp	r4, ip
 1998 004a 35D3     		bcc	.L126
 553:C:/Users/leopi/Documents/vs/S-Reo/MazeLibrary\Searching.c **** 	//現ノードから3方向ノードを見て、未知なら即return
 1999              		.loc 1 553 8 view .LVU577
 2000 004c 8646     		mov	lr, r0
 2001 004e 00E0     		b	.L114
 2002              	.L124:
 553:C:/Users/leopi/Documents/vs/S-Reo/MazeLibrary\Searching.c **** 	//現ノードから3方向ノードを見て、未知なら即return
 2003              		.loc 1 553 8 view .LVU578
 2004 0050 8646     		mov	lr, r0
 2005              	.LVL171:
 2006              	.L114:
 585:C:/Users/leopi/Documents/vs/S-Reo/MazeLibrary\Searching.c **** 	        {
 2007              		.loc 1 585 10 is_stmt 1 view .LVU579
 585:C:/Users/leopi/Documents/vs/S-Reo/MazeLibrary\Searching.c **** 	        {
 2008              		.loc 1 585 26 is_stmt 0 view .LVU580
 2009 0052 9279     		ldrb	r2, [r2, #6]	@ zero_extendqisi2
 2010              	.LVL172:
 585:C:/Users/leopi/Documents/vs/S-Reo/MazeLibrary\Searching.c **** 	        {
 2011              		.loc 1 585 12 view .LVU581
ARM GAS  C:\Users\leopi\AppData\Local\Temp\cc19K7kN.s 			page 55


 2012 0054 1E2A     		cmp	r2, #30
 2013 0056 14D8     		bhi	.L115
 588:C:/Users/leopi/Documents/vs/S-Reo/MazeLibrary\Searching.c **** 	            {
 2014              		.loc 1 588 14 is_stmt 1 view .LVU582
 588:C:/Users/leopi/Documents/vs/S-Reo/MazeLibrary\Searching.c **** 	            {
 2015              		.loc 1 588 51 is_stmt 0 view .LVU583
 2016 0058 541C     		adds	r4, r2, #1
 588:C:/Users/leopi/Documents/vs/S-Reo/MazeLibrary\Searching.c **** 	            {
 2017              		.loc 1 588 71 view .LVU584
 2018 005a 01EB4415 		add	r5, r1, r4, lsl #5
 2019 005e 05F58465 		add	r5, r5, #1056
 2020 0062 13F83550 		ldrb	r5, [r3, r5, lsl #3]	@ zero_extendqisi2
 588:C:/Users/leopi/Documents/vs/S-Reo/MazeLibrary\Searching.c **** 	            {
 2021              		.loc 1 588 16 view .LVU585
 2022 0066 022D     		cmp	r5, #2
 2023 0068 D7D0     		beq	.L113
 592:C:/Users/leopi/Documents/vs/S-Reo/MazeLibrary\Searching.c **** 	            {//重みを比較して更新
 2024              		.loc 1 592 19 is_stmt 1 view .LVU586
 592:C:/Users/leopi/Documents/vs/S-Reo/MazeLibrary\Searching.c **** 	            {//重みを比較して更新
 2025              		.loc 1 592 21 is_stmt 0 view .LVU587
 2026 006a 55B9     		cbnz	r5, .L115
 594:C:/Users/leopi/Documents/vs/S-Reo/MazeLibrary\Searching.c **** 	                {
 2027              		.loc 1 594 18 is_stmt 1 view .LVU588
 594:C:/Users/leopi/Documents/vs/S-Reo/MazeLibrary\Searching.c **** 	                {
 2028              		.loc 1 594 90 is_stmt 0 view .LVU589
 2029 006c 01EB4414 		add	r4, r1, r4, lsl #5
 2030 0070 04F58464 		add	r4, r4, #1056
 2031 0074 03EBC404 		add	r4, r3, r4, lsl #3
 2032 0078 6488     		ldrh	r4, [r4, #2]
 594:C:/Users/leopi/Documents/vs/S-Reo/MazeLibrary\Searching.c **** 	                {
 2033              		.loc 1 594 20 view .LVU590
 2034 007a 6445     		cmp	r4, ip
 2035 007c 01D2     		bcs	.L115
 598:C:/Users/leopi/Documents/vs/S-Reo/MazeLibrary\Searching.c **** 	                }
 2036              		.loc 1 598 27 view .LVU591
 2037 007e 8646     		mov	lr, r0
 2038              	.LVL173:
 596:C:/Users/leopi/Documents/vs/S-Reo/MazeLibrary\Searching.c **** //	                    next_node = &(maze->ColumnNode[now_node->pos.x+1][now_node->pos.y]);
 2039              		.loc 1 596 37 view .LVU592
 2040 0080 A446     		mov	ip, r4
 2041              	.LVL174:
 2042              	.L115:
 604:C:/Users/leopi/Documents/vs/S-Reo/MazeLibrary\Searching.c **** 	        {
 2043              		.loc 1 604 10 is_stmt 1 view .LVU593
 604:C:/Users/leopi/Documents/vs/S-Reo/MazeLibrary\Searching.c **** 	        {
 2044              		.loc 1 604 12 is_stmt 0 view .LVU594
 2045 0082 002A     		cmp	r2, #0
 2046 0084 00F01781 		beq	.L128
 607:C:/Users/leopi/Documents/vs/S-Reo/MazeLibrary\Searching.c **** 	            {
 2047              		.loc 1 607 14 is_stmt 1 view .LVU595
 607:C:/Users/leopi/Documents/vs/S-Reo/MazeLibrary\Searching.c **** 	            {
 2048              		.loc 1 607 69 is_stmt 0 view .LVU596
 2049 0088 01EB4214 		add	r4, r1, r2, lsl #5
 2050 008c 04F58464 		add	r4, r4, #1056
 2051 0090 13F83440 		ldrb	r4, [r3, r4, lsl #3]	@ zero_extendqisi2
 607:C:/Users/leopi/Documents/vs/S-Reo/MazeLibrary\Searching.c **** 	            {
 2052              		.loc 1 607 16 view .LVU597
ARM GAS  C:\Users\leopi\AppData\Local\Temp\cc19K7kN.s 			page 56


 2053 0094 022C     		cmp	r4, #2
 2054 0096 C0D0     		beq	.L113
 612:C:/Users/leopi/Documents/vs/S-Reo/MazeLibrary\Searching.c **** 	            {
 2055              		.loc 1 612 19 is_stmt 1 view .LVU598
 612:C:/Users/leopi/Documents/vs/S-Reo/MazeLibrary\Searching.c **** 	            {
 2056              		.loc 1 612 21 is_stmt 0 view .LVU599
 2057 0098 002C     		cmp	r4, #0
 2058 009a 40F00E81 		bne	.L129
 614:C:/Users/leopi/Documents/vs/S-Reo/MazeLibrary\Searching.c **** 	                {
 2059              		.loc 1 614 18 is_stmt 1 view .LVU600
 614:C:/Users/leopi/Documents/vs/S-Reo/MazeLibrary\Searching.c **** 	                {
 2060              		.loc 1 614 88 is_stmt 0 view .LVU601
 2061 009e 01EB4211 		add	r1, r1, r2, lsl #5
 2062 00a2 01F58461 		add	r1, r1, #1056
 2063 00a6 03EBC103 		add	r3, r3, r1, lsl #3
 2064              	.LVL175:
 614:C:/Users/leopi/Documents/vs/S-Reo/MazeLibrary\Searching.c **** 	                {
 2065              		.loc 1 614 88 view .LVU602
 2066 00aa 5B88     		ldrh	r3, [r3, #2]
 614:C:/Users/leopi/Documents/vs/S-Reo/MazeLibrary\Searching.c **** 	                {
 2067              		.loc 1 614 20 view .LVU603
 2068 00ac 6345     		cmp	r3, ip
 2069 00ae B4D3     		bcc	.L113
 2070 00b0 7046     		mov	r0, lr
 2071 00b2 B2E7     		b	.L113
 2072              	.LVL176:
 2073              	.L125:
 553:C:/Users/leopi/Documents/vs/S-Reo/MazeLibrary\Searching.c **** 	//現ノードから3方向ノードを見て、未知なら即return
 2074              		.loc 1 553 8 view .LVU604
 2075 00b4 8646     		mov	lr, r0
 2076 00b6 CCE7     		b	.L114
 2077              	.L126:
 577:C:/Users/leopi/Documents/vs/S-Reo/MazeLibrary\Searching.c **** //	                    next_node = &(maze->RawNode[now_node->pos.x][now_node->pos.y+1]);
 2078              		.loc 1 577 37 view .LVU605
 2079 00b8 A446     		mov	ip, r4
 2080              	.LVL177:
 579:C:/Users/leopi/Documents/vs/S-Reo/MazeLibrary\Searching.c **** 	                }
 2081              		.loc 1 579 27 view .LVU606
 2082 00ba 4FF0010E 		mov	lr, #1
 2083 00be C8E7     		b	.L114
 2084              	.LVL178:
 2085              	.L112:
 625:C:/Users/leopi/Documents/vs/S-Reo/MazeLibrary\Searching.c **** 			{
 2086              		.loc 1 625 4 is_stmt 1 view .LVU607
 625:C:/Users/leopi/Documents/vs/S-Reo/MazeLibrary\Searching.c **** 			{
 2087              		.loc 1 625 20 is_stmt 0 view .LVU608
 2088 00c0 D179     		ldrb	r1, [r2, #7]	@ zero_extendqisi2
 625:C:/Users/leopi/Documents/vs/S-Reo/MazeLibrary\Searching.c **** 			{
 2089              		.loc 1 625 6 view .LVU609
 2090 00c2 0129     		cmp	r1, #1
 2091 00c4 16D9     		bls	.L130
 627:C:/Users/leopi/Documents/vs/S-Reo/MazeLibrary\Searching.c **** 				{
 2092              		.loc 1 627 5 is_stmt 1 view .LVU610
 627:C:/Users/leopi/Documents/vs/S-Reo/MazeLibrary\Searching.c **** 				{
 2093              		.loc 1 627 37 is_stmt 0 view .LVU611
 2094 00c6 92F806E0 		ldrb	lr, [r2, #6]	@ zero_extendqisi2
 627:C:/Users/leopi/Documents/vs/S-Reo/MazeLibrary\Searching.c **** 				{
ARM GAS  C:\Users\leopi\AppData\Local\Temp\cc19K7kN.s 			page 57


 2095              		.loc 1 627 56 view .LVU612
 2096 00ca 4D1E     		subs	r5, r1, #1
 627:C:/Users/leopi/Documents/vs/S-Reo/MazeLibrary\Searching.c **** 				{
 2097              		.loc 1 627 59 view .LVU613
 2098 00cc 0EEB4E14 		add	r4, lr, lr, lsl #5
 2099 00d0 2C44     		add	r4, r4, r5
 2100 00d2 13F83440 		ldrb	r4, [r3, r4, lsl #3]	@ zero_extendqisi2
 627:C:/Users/leopi/Documents/vs/S-Reo/MazeLibrary\Searching.c **** 				{
 2101              		.loc 1 627 7 view .LVU614
 2102 00d6 022C     		cmp	r4, #2
 2103 00d8 9FD0     		beq	.L113
 632:C:/Users/leopi/Documents/vs/S-Reo/MazeLibrary\Searching.c **** 				{
 2104              		.loc 1 632 10 is_stmt 1 view .LVU615
 632:C:/Users/leopi/Documents/vs/S-Reo/MazeLibrary\Searching.c **** 				{
 2105              		.loc 1 632 12 is_stmt 0 view .LVU616
 2106 00da 002C     		cmp	r4, #0
 2107 00dc 40D1     		bne	.L131
 634:C:/Users/leopi/Documents/vs/S-Reo/MazeLibrary\Searching.c **** 					{
 2108              		.loc 1 634 6 is_stmt 1 view .LVU617
 634:C:/Users/leopi/Documents/vs/S-Reo/MazeLibrary\Searching.c **** 					{
 2109              		.loc 1 634 75 is_stmt 0 view .LVU618
 2110 00de 0EEB4E1E 		add	lr, lr, lr, lsl #5
 2111 00e2 AE44     		add	lr, lr, r5
 2112 00e4 03EBCE0E 		add	lr, r3, lr, lsl #3
 2113 00e8 BEF80240 		ldrh	r4, [lr, #2]
 634:C:/Users/leopi/Documents/vs/S-Reo/MazeLibrary\Searching.c **** 					{
 2114              		.loc 1 634 8 view .LVU619
 2115 00ec 6445     		cmp	r4, ip
 2116 00ee 39D3     		bcc	.L132
 553:C:/Users/leopi/Documents/vs/S-Reo/MazeLibrary\Searching.c **** 	//現ノードから3方向ノードを見て、未知なら即return
 2117              		.loc 1 553 8 view .LVU620
 2118 00f0 8646     		mov	lr, r0
 2119 00f2 00E0     		b	.L116
 2120              	.L130:
 553:C:/Users/leopi/Documents/vs/S-Reo/MazeLibrary\Searching.c **** 	//現ノードから3方向ノードを見て、未知なら即return
 2121              		.loc 1 553 8 view .LVU621
 2122 00f4 8646     		mov	lr, r0
 2123              	.LVL179:
 2124              	.L116:
 642:C:/Users/leopi/Documents/vs/S-Reo/MazeLibrary\Searching.c **** 			{
 2125              		.loc 1 642 4 is_stmt 1 view .LVU622
 642:C:/Users/leopi/Documents/vs/S-Reo/MazeLibrary\Searching.c **** 			{
 2126              		.loc 1 642 20 is_stmt 0 view .LVU623
 2127 00f6 9279     		ldrb	r2, [r2, #6]	@ zero_extendqisi2
 2128              	.LVL180:
 642:C:/Users/leopi/Documents/vs/S-Reo/MazeLibrary\Searching.c **** 			{
 2129              		.loc 1 642 6 view .LVU624
 2130 00f8 1E2A     		cmp	r2, #30
 2131 00fa 15D8     		bhi	.L117
 645:C:/Users/leopi/Documents/vs/S-Reo/MazeLibrary\Searching.c **** 				{
 2132              		.loc 1 645 5 is_stmt 1 view .LVU625
 645:C:/Users/leopi/Documents/vs/S-Reo/MazeLibrary\Searching.c **** 				{
 2133              		.loc 1 645 42 is_stmt 0 view .LVU626
 2134 00fc 561C     		adds	r6, r2, #1
 645:C:/Users/leopi/Documents/vs/S-Reo/MazeLibrary\Searching.c **** 				{
 2135              		.loc 1 645 61 view .LVU627
 2136 00fe 4C1E     		subs	r4, r1, #1
ARM GAS  C:\Users\leopi\AppData\Local\Temp\cc19K7kN.s 			page 58


 645:C:/Users/leopi/Documents/vs/S-Reo/MazeLibrary\Searching.c **** 				{
 2137              		.loc 1 645 64 view .LVU628
 2138 0100 04EB4615 		add	r5, r4, r6, lsl #5
 2139 0104 05F58465 		add	r5, r5, #1056
 2140 0108 13F83550 		ldrb	r5, [r3, r5, lsl #3]	@ zero_extendqisi2
 645:C:/Users/leopi/Documents/vs/S-Reo/MazeLibrary\Searching.c **** 				{
 2141              		.loc 1 645 7 view .LVU629
 2142 010c 022D     		cmp	r5, #2
 2143 010e 84D0     		beq	.L113
 649:C:/Users/leopi/Documents/vs/S-Reo/MazeLibrary\Searching.c **** 				{
 2144              		.loc 1 649 10 is_stmt 1 view .LVU630
 649:C:/Users/leopi/Documents/vs/S-Reo/MazeLibrary\Searching.c **** 				{
 2145              		.loc 1 649 12 is_stmt 0 view .LVU631
 2146 0110 55B9     		cbnz	r5, .L117
 652:C:/Users/leopi/Documents/vs/S-Reo/MazeLibrary\Searching.c **** 					{
 2147              		.loc 1 652 6 is_stmt 1 view .LVU632
 652:C:/Users/leopi/Documents/vs/S-Reo/MazeLibrary\Searching.c **** 					{
 2148              		.loc 1 652 80 is_stmt 0 view .LVU633
 2149 0112 04EB4614 		add	r4, r4, r6, lsl #5
 2150 0116 04F58464 		add	r4, r4, #1056
 2151 011a 03EBC404 		add	r4, r3, r4, lsl #3
 2152 011e 6488     		ldrh	r4, [r4, #2]
 652:C:/Users/leopi/Documents/vs/S-Reo/MazeLibrary\Searching.c **** 					{
 2153              		.loc 1 652 8 view .LVU634
 2154 0120 6445     		cmp	r4, ip
 2155 0122 01D2     		bcs	.L117
 656:C:/Users/leopi/Documents/vs/S-Reo/MazeLibrary\Searching.c **** 					}
 2156              		.loc 1 656 12 view .LVU635
 2157 0124 8646     		mov	lr, r0
 2158              	.LVL181:
 654:C:/Users/leopi/Documents/vs/S-Reo/MazeLibrary\Searching.c **** //						next_node = &(maze->ColumnNode[now_node->pos.x+1][now_node->pos.y-1]);
 2159              		.loc 1 654 22 view .LVU636
 2160 0126 A446     		mov	ip, r4
 2161              	.LVL182:
 2162              	.L117:
 660:C:/Users/leopi/Documents/vs/S-Reo/MazeLibrary\Searching.c **** 			{
 2163              		.loc 1 660 4 is_stmt 1 view .LVU637
 660:C:/Users/leopi/Documents/vs/S-Reo/MazeLibrary\Searching.c **** 			{
 2164              		.loc 1 660 6 is_stmt 0 view .LVU638
 2165 0128 002A     		cmp	r2, #0
 2166 012a 00F0C880 		beq	.L134
 663:C:/Users/leopi/Documents/vs/S-Reo/MazeLibrary\Searching.c **** 				{
 2167              		.loc 1 663 5 is_stmt 1 view .LVU639
 663:C:/Users/leopi/Documents/vs/S-Reo/MazeLibrary\Searching.c **** 				{
 2168              		.loc 1 663 59 is_stmt 0 view .LVU640
 2169 012e 0139     		subs	r1, r1, #1
 663:C:/Users/leopi/Documents/vs/S-Reo/MazeLibrary\Searching.c **** 				{
 2170              		.loc 1 663 62 view .LVU641
 2171 0130 01EB4214 		add	r4, r1, r2, lsl #5
 2172 0134 04F58464 		add	r4, r4, #1056
 2173 0138 13F83440 		ldrb	r4, [r3, r4, lsl #3]	@ zero_extendqisi2
 663:C:/Users/leopi/Documents/vs/S-Reo/MazeLibrary\Searching.c **** 				{
 2174              		.loc 1 663 7 view .LVU642
 2175 013c 022C     		cmp	r4, #2
 2176 013e 3FF46CAF 		beq	.L113
 667:C:/Users/leopi/Documents/vs/S-Reo/MazeLibrary\Searching.c **** 				{
 2177              		.loc 1 667 10 is_stmt 1 view .LVU643
ARM GAS  C:\Users\leopi\AppData\Local\Temp\cc19K7kN.s 			page 59


 667:C:/Users/leopi/Documents/vs/S-Reo/MazeLibrary\Searching.c **** 				{
 2178              		.loc 1 667 12 is_stmt 0 view .LVU644
 2179 0142 002C     		cmp	r4, #0
 2180 0144 40F0BD80 		bne	.L135
 670:C:/Users/leopi/Documents/vs/S-Reo/MazeLibrary\Searching.c **** 					{
 2181              		.loc 1 670 6 is_stmt 1 view .LVU645
 670:C:/Users/leopi/Documents/vs/S-Reo/MazeLibrary\Searching.c **** 					{
 2182              		.loc 1 670 78 is_stmt 0 view .LVU646
 2183 0148 01EB4211 		add	r1, r1, r2, lsl #5
 2184 014c 01F58461 		add	r1, r1, #1056
 2185 0150 03EBC103 		add	r3, r3, r1, lsl #3
 2186              	.LVL183:
 670:C:/Users/leopi/Documents/vs/S-Reo/MazeLibrary\Searching.c **** 					{
 2187              		.loc 1 670 78 view .LVU647
 2188 0154 5B88     		ldrh	r3, [r3, #2]
 670:C:/Users/leopi/Documents/vs/S-Reo/MazeLibrary\Searching.c **** 					{
 2189              		.loc 1 670 8 view .LVU648
 2190 0156 6345     		cmp	r3, ip
 2191 0158 FFF45FAF 		bcc	.L113
 2192 015c 7046     		mov	r0, lr
 2193 015e 5CE7     		b	.L113
 2194              	.LVL184:
 2195              	.L131:
 553:C:/Users/leopi/Documents/vs/S-Reo/MazeLibrary\Searching.c **** 	//現ノードから3方向ノードを見て、未知なら即return
 2196              		.loc 1 553 8 view .LVU649
 2197 0160 8646     		mov	lr, r0
 2198 0162 C8E7     		b	.L116
 2199              	.L132:
 636:C:/Users/leopi/Documents/vs/S-Reo/MazeLibrary\Searching.c **** //						next_node = &(maze->RawNode[now_node->pos.x][now_node->pos.y-1]);
 2200              		.loc 1 636 22 view .LVU650
 2201 0164 A446     		mov	ip, r4
 2202              	.LVL185:
 638:C:/Users/leopi/Documents/vs/S-Reo/MazeLibrary\Searching.c **** 					}
 2203              		.loc 1 638 12 view .LVU651
 2204 0166 4FF0010E 		mov	lr, #1
 2205 016a C4E7     		b	.L116
 2206              	.LVL186:
 2207              	.L110:
 686:C:/Users/leopi/Documents/vs/S-Reo/MazeLibrary\Searching.c **** 	{
 2208              		.loc 1 686 7 is_stmt 1 view .LVU652
 690:C:/Users/leopi/Documents/vs/S-Reo/MazeLibrary\Searching.c **** 		{
 2209              		.loc 1 690 3 view .LVU653
 2210 016c 01F00701 		and	r1, r1, #7
 2211              	.LVL187:
 690:C:/Users/leopi/Documents/vs/S-Reo/MazeLibrary\Searching.c **** 		{
 2212              		.loc 1 690 3 is_stmt 0 view .LVU654
 2213 0170 0229     		cmp	r1, #2
 2214 0172 03D0     		beq	.L118
 2215 0174 0629     		cmp	r1, #6
 2216 0176 4BD0     		beq	.L119
 2217 0178 0020     		movs	r0, #0
 2218 017a 4EE7     		b	.L113
 2219              	.L118:
 695:C:/Users/leopi/Documents/vs/S-Reo/MazeLibrary\Searching.c **** 			{
 2220              		.loc 1 695 4 is_stmt 1 view .LVU655
 695:C:/Users/leopi/Documents/vs/S-Reo/MazeLibrary\Searching.c **** 			{
 2221              		.loc 1 695 20 is_stmt 0 view .LVU656
ARM GAS  C:\Users\leopi\AppData\Local\Temp\cc19K7kN.s 			page 60


 2222 017c 9179     		ldrb	r1, [r2, #6]	@ zero_extendqisi2
 695:C:/Users/leopi/Documents/vs/S-Reo/MazeLibrary\Searching.c **** 			{
 2223              		.loc 1 695 6 view .LVU657
 2224 017e 1E29     		cmp	r1, #30
 2225 0180 12D8     		bhi	.L136
 697:C:/Users/leopi/Documents/vs/S-Reo/MazeLibrary\Searching.c **** 				{
 2226              		.loc 1 697 5 is_stmt 1 view .LVU658
 697:C:/Users/leopi/Documents/vs/S-Reo/MazeLibrary\Searching.c **** 				{
 2227              		.loc 1 697 42 is_stmt 0 view .LVU659
 2228 0182 4E1C     		adds	r6, r1, #1
 697:C:/Users/leopi/Documents/vs/S-Reo/MazeLibrary\Searching.c **** 				{
 2229              		.loc 1 697 59 view .LVU660
 2230 0184 D479     		ldrb	r4, [r2, #7]	@ zero_extendqisi2
 697:C:/Users/leopi/Documents/vs/S-Reo/MazeLibrary\Searching.c **** 				{
 2231              		.loc 1 697 62 view .LVU661
 2232 0186 04EB461E 		add	lr, r4, r6, lsl #5
 2233 018a 0EF5846E 		add	lr, lr, #1056
 2234 018e 13F83E50 		ldrb	r5, [r3, lr, lsl #3]	@ zero_extendqisi2
 697:C:/Users/leopi/Documents/vs/S-Reo/MazeLibrary\Searching.c **** 				{
 2235              		.loc 1 697 7 view .LVU662
 2236 0192 022D     		cmp	r5, #2
 2237 0194 00F09780 		beq	.L137
 701:C:/Users/leopi/Documents/vs/S-Reo/MazeLibrary\Searching.c **** 				{
 2238              		.loc 1 701 10 is_stmt 1 view .LVU663
 701:C:/Users/leopi/Documents/vs/S-Reo/MazeLibrary\Searching.c **** 				{
 2239              		.loc 1 701 12 is_stmt 0 view .LVU664
 2240 0198 B5BB     		cbnz	r5, .L138
 703:C:/Users/leopi/Documents/vs/S-Reo/MazeLibrary\Searching.c **** 					{
 2241              		.loc 1 703 6 is_stmt 1 view .LVU665
 703:C:/Users/leopi/Documents/vs/S-Reo/MazeLibrary\Searching.c **** 					{
 2242              		.loc 1 703 78 is_stmt 0 view .LVU666
 2243 019a 03EBCE04 		add	r4, r3, lr, lsl #3
 2244 019e 6488     		ldrh	r4, [r4, #2]
 703:C:/Users/leopi/Documents/vs/S-Reo/MazeLibrary\Searching.c **** 					{
 2245              		.loc 1 703 8 view .LVU667
 2246 01a0 6445     		cmp	r4, ip
 2247 01a2 33D3     		bcc	.L139
 553:C:/Users/leopi/Documents/vs/S-Reo/MazeLibrary\Searching.c **** 	//現ノードから3方向ノードを見て、未知なら即return
 2248              		.loc 1 553 8 view .LVU668
 2249 01a4 0020     		movs	r0, #0
 2250 01a6 00E0     		b	.L120
 2251              	.L136:
 553:C:/Users/leopi/Documents/vs/S-Reo/MazeLibrary\Searching.c **** 	//現ノードから3方向ノードを見て、未知なら即return
 2252              		.loc 1 553 8 view .LVU669
 2253 01a8 0020     		movs	r0, #0
 2254              	.LVL188:
 2255              	.L120:
 713:C:/Users/leopi/Documents/vs/S-Reo/MazeLibrary\Searching.c **** 			{
 2256              		.loc 1 713 4 is_stmt 1 view .LVU670
 713:C:/Users/leopi/Documents/vs/S-Reo/MazeLibrary\Searching.c **** 			{
 2257              		.loc 1 713 20 is_stmt 0 view .LVU671
 2258 01aa D279     		ldrb	r2, [r2, #7]	@ zero_extendqisi2
 2259              	.LVL189:
 713:C:/Users/leopi/Documents/vs/S-Reo/MazeLibrary\Searching.c **** 			{
 2260              		.loc 1 713 6 view .LVU672
 2261 01ac 1E2A     		cmp	r2, #30
 2262 01ae 13D8     		bhi	.L121
ARM GAS  C:\Users\leopi\AppData\Local\Temp\cc19K7kN.s 			page 61


 716:C:/Users/leopi/Documents/vs/S-Reo/MazeLibrary\Searching.c **** 				{
 2263              		.loc 1 716 5 is_stmt 1 view .LVU673
 716:C:/Users/leopi/Documents/vs/S-Reo/MazeLibrary\Searching.c **** 				{
 2264              		.loc 1 716 56 is_stmt 0 view .LVU674
 2265 01b0 551C     		adds	r5, r2, #1
 716:C:/Users/leopi/Documents/vs/S-Reo/MazeLibrary\Searching.c **** 				{
 2266              		.loc 1 716 59 view .LVU675
 2267 01b2 01EB4114 		add	r4, r1, r1, lsl #5
 2268 01b6 2C44     		add	r4, r4, r5
 2269 01b8 13F83440 		ldrb	r4, [r3, r4, lsl #3]	@ zero_extendqisi2
 716:C:/Users/leopi/Documents/vs/S-Reo/MazeLibrary\Searching.c **** 				{
 2270              		.loc 1 716 7 view .LVU676
 2271 01bc 022C     		cmp	r4, #2
 2272 01be 00F08480 		beq	.L140
 720:C:/Users/leopi/Documents/vs/S-Reo/MazeLibrary\Searching.c **** 				{
 2273              		.loc 1 720 10 is_stmt 1 view .LVU677
 720:C:/Users/leopi/Documents/vs/S-Reo/MazeLibrary\Searching.c **** 				{
 2274              		.loc 1 720 12 is_stmt 0 view .LVU678
 2275 01c2 4CB9     		cbnz	r4, .L121
 723:C:/Users/leopi/Documents/vs/S-Reo/MazeLibrary\Searching.c **** 					{
 2276              		.loc 1 723 6 is_stmt 1 view .LVU679
 723:C:/Users/leopi/Documents/vs/S-Reo/MazeLibrary\Searching.c **** 					{
 2277              		.loc 1 723 75 is_stmt 0 view .LVU680
 2278 01c4 01EB4114 		add	r4, r1, r1, lsl #5
 2279 01c8 2544     		add	r5, r5, r4
 2280 01ca 03EBC505 		add	r5, r3, r5, lsl #3
 2281 01ce 6C88     		ldrh	r4, [r5, #2]
 723:C:/Users/leopi/Documents/vs/S-Reo/MazeLibrary\Searching.c **** 					{
 2282              		.loc 1 723 8 view .LVU681
 2283 01d0 6445     		cmp	r4, ip
 2284 01d2 01D2     		bcs	.L121
 725:C:/Users/leopi/Documents/vs/S-Reo/MazeLibrary\Searching.c **** //							next_node = &(maze->RawNode[now_node->pos.x][now_node->pos.y+1]);
 2285              		.loc 1 725 22 view .LVU682
 2286 01d4 A446     		mov	ip, r4
 2287              	.LVL190:
 727:C:/Users/leopi/Documents/vs/S-Reo/MazeLibrary\Searching.c **** 					}
 2288              		.loc 1 727 12 view .LVU683
 2289 01d6 0020     		movs	r0, #0
 2290              	.LVL191:
 2291              	.L121:
 733:C:/Users/leopi/Documents/vs/S-Reo/MazeLibrary\Searching.c **** 			{
 2292              		.loc 1 733 4 is_stmt 1 view .LVU684
 733:C:/Users/leopi/Documents/vs/S-Reo/MazeLibrary\Searching.c **** 			{
 2293              		.loc 1 733 6 is_stmt 0 view .LVU685
 2294 01d8 002A     		cmp	r2, #0
 2295 01da 3FF41EAF 		beq	.L113
 736:C:/Users/leopi/Documents/vs/S-Reo/MazeLibrary\Searching.c **** 				{
 2296              		.loc 1 736 5 is_stmt 1 view .LVU686
 736:C:/Users/leopi/Documents/vs/S-Reo/MazeLibrary\Searching.c **** 				{
 2297              		.loc 1 736 57 is_stmt 0 view .LVU687
 2298 01de 01EB4114 		add	r4, r1, r1, lsl #5
 2299 01e2 1444     		add	r4, r4, r2
 2300 01e4 13F83440 		ldrb	r4, [r3, r4, lsl #3]	@ zero_extendqisi2
 736:C:/Users/leopi/Documents/vs/S-Reo/MazeLibrary\Searching.c **** 				{
 2301              		.loc 1 736 7 view .LVU688
 2302 01e8 022C     		cmp	r4, #2
 2303 01ea 70D0     		beq	.L142
ARM GAS  C:\Users\leopi\AppData\Local\Temp\cc19K7kN.s 			page 62


 740:C:/Users/leopi/Documents/vs/S-Reo/MazeLibrary\Searching.c **** 				{
 2304              		.loc 1 740 10 is_stmt 1 view .LVU689
 740:C:/Users/leopi/Documents/vs/S-Reo/MazeLibrary\Searching.c **** 				{
 2305              		.loc 1 740 12 is_stmt 0 view .LVU690
 2306 01ec 002C     		cmp	r4, #0
 2307 01ee 7FF414AF 		bne	.L113
 743:C:/Users/leopi/Documents/vs/S-Reo/MazeLibrary\Searching.c **** 					{
 2308              		.loc 1 743 6 is_stmt 1 view .LVU691
 743:C:/Users/leopi/Documents/vs/S-Reo/MazeLibrary\Searching.c **** 					{
 2309              		.loc 1 743 73 is_stmt 0 view .LVU692
 2310 01f2 01EB4111 		add	r1, r1, r1, lsl #5
 2311 01f6 1144     		add	r1, r1, r2
 2312 01f8 03EBC103 		add	r3, r3, r1, lsl #3
 2313              	.LVL192:
 743:C:/Users/leopi/Documents/vs/S-Reo/MazeLibrary\Searching.c **** 					{
 2314              		.loc 1 743 73 view .LVU693
 2315 01fc 5B88     		ldrh	r3, [r3, #2]
 743:C:/Users/leopi/Documents/vs/S-Reo/MazeLibrary\Searching.c **** 					{
 2316              		.loc 1 743 8 view .LVU694
 2317 01fe 6345     		cmp	r3, ip
 2318 0200 BFF40BAF 		bcs	.L113
 747:C:/Users/leopi/Documents/vs/S-Reo/MazeLibrary\Searching.c **** 					}
 2319              		.loc 1 747 12 view .LVU695
 2320 0204 0020     		movs	r0, #0
 2321              	.LVL193:
 747:C:/Users/leopi/Documents/vs/S-Reo/MazeLibrary\Searching.c **** 					}
 2322              		.loc 1 747 12 view .LVU696
 2323 0206 08E7     		b	.L113
 2324              	.LVL194:
 2325              	.L138:
 553:C:/Users/leopi/Documents/vs/S-Reo/MazeLibrary\Searching.c **** 	//現ノードから3方向ノードを見て、未知なら即return
 2326              		.loc 1 553 8 view .LVU697
 2327 0208 0020     		movs	r0, #0
 2328 020a CEE7     		b	.L120
 2329              	.L139:
 705:C:/Users/leopi/Documents/vs/S-Reo/MazeLibrary\Searching.c **** //							next_node = &(maze->ColumnNode[now_node->pos.x+1][now_node->pos.y]);
 2330              		.loc 1 705 22 view .LVU698
 2331 020c A446     		mov	ip, r4
 2332              	.LVL195:
 705:C:/Users/leopi/Documents/vs/S-Reo/MazeLibrary\Searching.c **** //							next_node = &(maze->ColumnNode[now_node->pos.x+1][now_node->pos.y]);
 2333              		.loc 1 705 22 view .LVU699
 2334 020e CCE7     		b	.L120
 2335              	.LVL196:
 2336              	.L119:
 755:C:/Users/leopi/Documents/vs/S-Reo/MazeLibrary\Searching.c **** 			{
 2337              		.loc 1 755 4 is_stmt 1 view .LVU700
 755:C:/Users/leopi/Documents/vs/S-Reo/MazeLibrary\Searching.c **** 			{
 2338              		.loc 1 755 20 is_stmt 0 view .LVU701
 2339 0210 9179     		ldrb	r1, [r2, #6]	@ zero_extendqisi2
 755:C:/Users/leopi/Documents/vs/S-Reo/MazeLibrary\Searching.c **** 			{
 2340              		.loc 1 755 6 view .LVU702
 2341 0212 0129     		cmp	r1, #1
 2342 0214 18D9     		bls	.L144
 757:C:/Users/leopi/Documents/vs/S-Reo/MazeLibrary\Searching.c **** 				{
 2343              		.loc 1 757 5 is_stmt 1 view .LVU703
 757:C:/Users/leopi/Documents/vs/S-Reo/MazeLibrary\Searching.c **** 				{
 2344              		.loc 1 757 42 is_stmt 0 view .LVU704
ARM GAS  C:\Users\leopi\AppData\Local\Temp\cc19K7kN.s 			page 63


 2345 0216 4D1E     		subs	r5, r1, #1
 757:C:/Users/leopi/Documents/vs/S-Reo/MazeLibrary\Searching.c **** 				{
 2346              		.loc 1 757 59 view .LVU705
 2347 0218 92F807E0 		ldrb	lr, [r2, #7]	@ zero_extendqisi2
 757:C:/Users/leopi/Documents/vs/S-Reo/MazeLibrary\Searching.c **** 				{
 2348              		.loc 1 757 62 view .LVU706
 2349 021c 0EEB4514 		add	r4, lr, r5, lsl #5
 2350 0220 04F58464 		add	r4, r4, #1056
 2351 0224 13F83440 		ldrb	r4, [r3, r4, lsl #3]	@ zero_extendqisi2
 757:C:/Users/leopi/Documents/vs/S-Reo/MazeLibrary\Searching.c **** 				{
 2352              		.loc 1 757 7 view .LVU707
 2353 0228 022C     		cmp	r4, #2
 2354 022a 52D0     		beq	.L145
 761:C:/Users/leopi/Documents/vs/S-Reo/MazeLibrary\Searching.c **** 				{
 2355              		.loc 1 761 10 is_stmt 1 view .LVU708
 761:C:/Users/leopi/Documents/vs/S-Reo/MazeLibrary\Searching.c **** 				{
 2356              		.loc 1 761 12 is_stmt 0 view .LVU709
 2357 022c 002C     		cmp	r4, #0
 2358 022e 3ED1     		bne	.L146
 764:C:/Users/leopi/Documents/vs/S-Reo/MazeLibrary\Searching.c **** 					{
 2359              		.loc 1 764 6 is_stmt 1 view .LVU710
 764:C:/Users/leopi/Documents/vs/S-Reo/MazeLibrary\Searching.c **** 					{
 2360              		.loc 1 764 78 is_stmt 0 view .LVU711
 2361 0230 0EEB451E 		add	lr, lr, r5, lsl #5
 2362 0234 0EF5846E 		add	lr, lr, #1056
 2363 0238 03EBCE0E 		add	lr, r3, lr, lsl #3
 2364 023c BEF80240 		ldrh	r4, [lr, #2]
 764:C:/Users/leopi/Documents/vs/S-Reo/MazeLibrary\Searching.c **** 					{
 2365              		.loc 1 764 8 view .LVU712
 2366 0240 6445     		cmp	r4, ip
 2367 0242 36D3     		bcc	.L147
 553:C:/Users/leopi/Documents/vs/S-Reo/MazeLibrary\Searching.c **** 	//現ノードから3方向ノードを見て、未知なら即return
 2368              		.loc 1 553 8 view .LVU713
 2369 0244 0020     		movs	r0, #0
 2370 0246 00E0     		b	.L122
 2371              	.L144:
 553:C:/Users/leopi/Documents/vs/S-Reo/MazeLibrary\Searching.c **** 	//現ノードから3方向ノードを見て、未知なら即return
 2372              		.loc 1 553 8 view .LVU714
 2373 0248 0020     		movs	r0, #0
 2374              	.LVL197:
 2375              	.L122:
 772:C:/Users/leopi/Documents/vs/S-Reo/MazeLibrary\Searching.c **** 			{
 2376              		.loc 1 772 4 is_stmt 1 view .LVU715
 772:C:/Users/leopi/Documents/vs/S-Reo/MazeLibrary\Searching.c **** 			{
 2377              		.loc 1 772 20 is_stmt 0 view .LVU716
 2378 024a D279     		ldrb	r2, [r2, #7]	@ zero_extendqisi2
 2379              	.LVL198:
 772:C:/Users/leopi/Documents/vs/S-Reo/MazeLibrary\Searching.c **** 			{
 2380              		.loc 1 772 6 view .LVU717
 2381 024c 1E2A     		cmp	r2, #30
 2382 024e 15D8     		bhi	.L123
 775:C:/Users/leopi/Documents/vs/S-Reo/MazeLibrary\Searching.c **** 				{
 2383              		.loc 1 775 5 is_stmt 1 view .LVU718
 775:C:/Users/leopi/Documents/vs/S-Reo/MazeLibrary\Searching.c **** 				{
 2384              		.loc 1 775 39 is_stmt 0 view .LVU719
 2385 0250 01F1FF3E 		add	lr, r1, #-1
 775:C:/Users/leopi/Documents/vs/S-Reo/MazeLibrary\Searching.c **** 				{
ARM GAS  C:\Users\leopi\AppData\Local\Temp\cc19K7kN.s 			page 64


 2386              		.loc 1 775 58 view .LVU720
 2387 0254 551C     		adds	r5, r2, #1
 775:C:/Users/leopi/Documents/vs/S-Reo/MazeLibrary\Searching.c **** 				{
 2388              		.loc 1 775 61 view .LVU721
 2389 0256 0EEB4E14 		add	r4, lr, lr, lsl #5
 2390 025a 2C44     		add	r4, r4, r5
 2391 025c 13F83440 		ldrb	r4, [r3, r4, lsl #3]	@ zero_extendqisi2
 775:C:/Users/leopi/Documents/vs/S-Reo/MazeLibrary\Searching.c **** 				{
 2392              		.loc 1 775 7 view .LVU722
 2393 0260 022C     		cmp	r4, #2
 2394 0262 38D0     		beq	.L148
 779:C:/Users/leopi/Documents/vs/S-Reo/MazeLibrary\Searching.c **** 				{
 2395              		.loc 1 779 10 is_stmt 1 view .LVU723
 779:C:/Users/leopi/Documents/vs/S-Reo/MazeLibrary\Searching.c **** 				{
 2396              		.loc 1 779 12 is_stmt 0 view .LVU724
 2397 0264 54B9     		cbnz	r4, .L123
 782:C:/Users/leopi/Documents/vs/S-Reo/MazeLibrary\Searching.c **** 					{
 2398              		.loc 1 782 6 is_stmt 1 view .LVU725
 782:C:/Users/leopi/Documents/vs/S-Reo/MazeLibrary\Searching.c **** 					{
 2399              		.loc 1 782 77 is_stmt 0 view .LVU726
 2400 0266 0EEB4E1E 		add	lr, lr, lr, lsl #5
 2401 026a AE44     		add	lr, lr, r5
 2402 026c 03EBCE0E 		add	lr, r3, lr, lsl #3
 2403 0270 BEF80240 		ldrh	r4, [lr, #2]
 782:C:/Users/leopi/Documents/vs/S-Reo/MazeLibrary\Searching.c **** 					{
 2404              		.loc 1 782 8 view .LVU727
 2405 0274 6445     		cmp	r4, ip
 2406 0276 01D2     		bcs	.L123
 784:C:/Users/leopi/Documents/vs/S-Reo/MazeLibrary\Searching.c **** //							next_node = &(maze->RawNode[now_node->pos.x-1][now_node->pos.y+1]);
 2407              		.loc 1 784 22 view .LVU728
 2408 0278 A446     		mov	ip, r4
 2409              	.LVL199:
 786:C:/Users/leopi/Documents/vs/S-Reo/MazeLibrary\Searching.c **** 					}
 2410              		.loc 1 786 12 view .LVU729
 2411 027a 0020     		movs	r0, #0
 2412              	.LVL200:
 2413              	.L123:
 790:C:/Users/leopi/Documents/vs/S-Reo/MazeLibrary\Searching.c **** 			{
 2414              		.loc 1 790 4 is_stmt 1 view .LVU730
 790:C:/Users/leopi/Documents/vs/S-Reo/MazeLibrary\Searching.c **** 			{
 2415              		.loc 1 790 6 is_stmt 0 view .LVU731
 2416 027c 002A     		cmp	r2, #0
 2417 027e 3FF4CCAE 		beq	.L113
 793:C:/Users/leopi/Documents/vs/S-Reo/MazeLibrary\Searching.c **** 				{
 2418              		.loc 1 793 5 is_stmt 1 view .LVU732
 793:C:/Users/leopi/Documents/vs/S-Reo/MazeLibrary\Searching.c **** 				{
 2419              		.loc 1 793 39 is_stmt 0 view .LVU733
 2420 0282 0139     		subs	r1, r1, #1
 793:C:/Users/leopi/Documents/vs/S-Reo/MazeLibrary\Searching.c **** 				{
 2421              		.loc 1 793 59 view .LVU734
 2422 0284 01EB4114 		add	r4, r1, r1, lsl #5
 2423 0288 1444     		add	r4, r4, r2
 2424 028a 13F83440 		ldrb	r4, [r3, r4, lsl #3]	@ zero_extendqisi2
 793:C:/Users/leopi/Documents/vs/S-Reo/MazeLibrary\Searching.c **** 				{
 2425              		.loc 1 793 7 view .LVU735
 2426 028e 022C     		cmp	r4, #2
 2427 0290 23D0     		beq	.L150
ARM GAS  C:\Users\leopi\AppData\Local\Temp\cc19K7kN.s 			page 65


 797:C:/Users/leopi/Documents/vs/S-Reo/MazeLibrary\Searching.c **** 				{
 2428              		.loc 1 797 10 is_stmt 1 view .LVU736
 797:C:/Users/leopi/Documents/vs/S-Reo/MazeLibrary\Searching.c **** 				{
 2429              		.loc 1 797 12 is_stmt 0 view .LVU737
 2430 0292 002C     		cmp	r4, #0
 2431 0294 7FF4C1AE 		bne	.L113
 800:C:/Users/leopi/Documents/vs/S-Reo/MazeLibrary\Searching.c **** 					{
 2432              		.loc 1 800 6 is_stmt 1 view .LVU738
 800:C:/Users/leopi/Documents/vs/S-Reo/MazeLibrary\Searching.c **** 					{
 2433              		.loc 1 800 75 is_stmt 0 view .LVU739
 2434 0298 01EB4111 		add	r1, r1, r1, lsl #5
 2435 029c 1144     		add	r1, r1, r2
 2436 029e 03EBC103 		add	r3, r3, r1, lsl #3
 2437              	.LVL201:
 800:C:/Users/leopi/Documents/vs/S-Reo/MazeLibrary\Searching.c **** 					{
 2438              		.loc 1 800 75 view .LVU740
 2439 02a2 5B88     		ldrh	r3, [r3, #2]
 800:C:/Users/leopi/Documents/vs/S-Reo/MazeLibrary\Searching.c **** 					{
 2440              		.loc 1 800 8 view .LVU741
 2441 02a4 6345     		cmp	r3, ip
 2442 02a6 BFF4B8AE 		bcs	.L113
 804:C:/Users/leopi/Documents/vs/S-Reo/MazeLibrary\Searching.c **** 					}
 2443              		.loc 1 804 12 view .LVU742
 2444 02aa 0020     		movs	r0, #0
 2445              	.LVL202:
 804:C:/Users/leopi/Documents/vs/S-Reo/MazeLibrary\Searching.c **** 					}
 2446              		.loc 1 804 12 view .LVU743
 2447 02ac B5E6     		b	.L113
 2448              	.LVL203:
 2449              	.L146:
 553:C:/Users/leopi/Documents/vs/S-Reo/MazeLibrary\Searching.c **** 	//現ノードから3方向ノードを見て、未知なら即return
 2450              		.loc 1 553 8 view .LVU744
 2451 02ae 0020     		movs	r0, #0
 2452 02b0 CBE7     		b	.L122
 2453              	.L147:
 766:C:/Users/leopi/Documents/vs/S-Reo/MazeLibrary\Searching.c **** //							next_node = &(maze->ColumnNode[now_node->pos.x-1][now_node->pos.y]);
 2454              		.loc 1 766 22 view .LVU745
 2455 02b2 A446     		mov	ip, r4
 2456              	.LVL204:
 766:C:/Users/leopi/Documents/vs/S-Reo/MazeLibrary\Searching.c **** //							next_node = &(maze->ColumnNode[now_node->pos.x-1][now_node->pos.y]);
 2457              		.loc 1 766 22 view .LVU746
 2458 02b4 C9E7     		b	.L122
 2459              	.LVL205:
 2460              	.L128:
 766:C:/Users/leopi/Documents/vs/S-Reo/MazeLibrary\Searching.c **** //							next_node = &(maze->ColumnNode[now_node->pos.x-1][now_node->pos.y]);
 2461              		.loc 1 766 22 view .LVU747
 2462 02b6 7046     		mov	r0, lr
 2463 02b8 AFE6     		b	.L113
 2464              	.L129:
 766:C:/Users/leopi/Documents/vs/S-Reo/MazeLibrary\Searching.c **** //							next_node = &(maze->ColumnNode[now_node->pos.x-1][now_node->pos.y]);
 2465              		.loc 1 766 22 view .LVU748
 2466 02ba 7046     		mov	r0, lr
 2467 02bc ADE6     		b	.L113
 2468              	.L134:
 766:C:/Users/leopi/Documents/vs/S-Reo/MazeLibrary\Searching.c **** //							next_node = &(maze->ColumnNode[now_node->pos.x-1][now_node->pos.y]);
 2469              		.loc 1 766 22 view .LVU749
 2470 02be 7046     		mov	r0, lr
ARM GAS  C:\Users\leopi\AppData\Local\Temp\cc19K7kN.s 			page 66


 2471 02c0 ABE6     		b	.L113
 2472              	.L135:
 766:C:/Users/leopi/Documents/vs/S-Reo/MazeLibrary\Searching.c **** //							next_node = &(maze->ColumnNode[now_node->pos.x-1][now_node->pos.y]);
 2473              		.loc 1 766 22 view .LVU750
 2474 02c2 7046     		mov	r0, lr
 2475 02c4 A9E6     		b	.L113
 2476              	.LVL206:
 2477              	.L137:
 699:C:/Users/leopi/Documents/vs/S-Reo/MazeLibrary\Searching.c **** 				}
 2478              		.loc 1 699 13 view .LVU751
 2479 02c6 0020     		movs	r0, #0
 2480 02c8 A7E6     		b	.L113
 2481              	.LVL207:
 2482              	.L140:
 718:C:/Users/leopi/Documents/vs/S-Reo/MazeLibrary\Searching.c **** 				}
 2483              		.loc 1 718 13 view .LVU752
 2484 02ca 0020     		movs	r0, #0
 2485              	.LVL208:
 718:C:/Users/leopi/Documents/vs/S-Reo/MazeLibrary\Searching.c **** 				}
 2486              		.loc 1 718 13 view .LVU753
 2487 02cc A5E6     		b	.L113
 2488              	.LVL209:
 2489              	.L142:
 738:C:/Users/leopi/Documents/vs/S-Reo/MazeLibrary\Searching.c **** 				}
 2490              		.loc 1 738 13 view .LVU754
 2491 02ce 0020     		movs	r0, #0
 2492              	.LVL210:
 738:C:/Users/leopi/Documents/vs/S-Reo/MazeLibrary\Searching.c **** 				}
 2493              		.loc 1 738 13 view .LVU755
 2494 02d0 A3E6     		b	.L113
 2495              	.LVL211:
 2496              	.L145:
 759:C:/Users/leopi/Documents/vs/S-Reo/MazeLibrary\Searching.c **** 				}
 2497              		.loc 1 759 13 view .LVU756
 2498 02d2 0020     		movs	r0, #0
 2499 02d4 A1E6     		b	.L113
 2500              	.LVL212:
 2501              	.L148:
 777:C:/Users/leopi/Documents/vs/S-Reo/MazeLibrary\Searching.c **** 				}
 2502              		.loc 1 777 13 view .LVU757
 2503 02d6 0020     		movs	r0, #0
 2504              	.LVL213:
 777:C:/Users/leopi/Documents/vs/S-Reo/MazeLibrary\Searching.c **** 				}
 2505              		.loc 1 777 13 view .LVU758
 2506 02d8 9FE6     		b	.L113
 2507              	.LVL214:
 2508              	.L150:
 795:C:/Users/leopi/Documents/vs/S-Reo/MazeLibrary\Searching.c **** 				}
 2509              		.loc 1 795 13 view .LVU759
 2510 02da 0020     		movs	r0, #0
 2511              	.LVL215:
 795:C:/Users/leopi/Documents/vs/S-Reo/MazeLibrary\Searching.c **** 				}
 2512              		.loc 1 795 13 view .LVU760
 2513 02dc 9DE6     		b	.L113
 2514              		.cfi_endproc
 2515              	.LFE20:
 2517              		.section	.text.getNextState,"ax",%progbits
ARM GAS  C:\Users\leopi\AppData\Local\Temp\cc19K7kN.s 			page 67


 2518              		.align	1
 2519              		.global	getNextState
 2520              		.syntax unified
 2521              		.thumb
 2522              		.thumb_func
 2524              	getNextState:
 2525              	.LVL216:
 2526              	.LFB21:
 819:C:/Users/leopi/Documents/vs/S-Reo/MazeLibrary\Searching.c **** state *getNextState(state *now_state, state *next_state, node *next_node)
 820:C:/Users/leopi/Documents/vs/S-Reo/MazeLibrary\Searching.c **** {
 2527              		.loc 1 820 1 is_stmt 1 view -0
 2528              		.cfi_startproc
 2529              		@ args = 0, pretend = 0, frame = 0
 2530              		@ frame_needed = 0, uses_anonymous_args = 0
 2531              		.loc 1 820 1 is_stmt 0 view .LVU762
 2532 0000 70B5     		push	{r4, r5, r6, lr}
 2533              	.LCFI22:
 2534              		.cfi_def_cfa_offset 16
 2535              		.cfi_offset 4, -16
 2536              		.cfi_offset 5, -12
 2537              		.cfi_offset 6, -8
 2538              		.cfi_offset 14, -4
 2539 0002 0346     		mov	r3, r0
 2540 0004 0846     		mov	r0, r1
 2541              	.LVL217:
 821:C:/Users/leopi/Documents/vs/S-Reo/MazeLibrary\Searching.c ****     //state *next_state;
 822:C:/Users/leopi/Documents/vs/S-Reo/MazeLibrary\Searching.c ****     //差分を見て、次の状態を定義
 823:C:/Users/leopi/Documents/vs/S-Reo/MazeLibrary\Searching.c ****     //状態の種類に応じて後で追加:探索時と最短時、既知区間走行でうま
 824:C:/Users/leopi/Documents/vs/S-Reo/MazeLibrary\Searching.c ****     //ノードと方角と座標を使って、次の方角と座標を得る
 825:C:/Users/leopi/Documents/vs/S-Reo/MazeLibrary\Searching.c **** 
 826:C:/Users/leopi/Documents/vs/S-Reo/MazeLibrary\Searching.c ****     uint8_t now_x = now_state->node->pos.x;
 2542              		.loc 1 826 5 is_stmt 1 view .LVU763
 2543              		.loc 1 826 30 is_stmt 0 view .LVU764
 2544 0006 9968     		ldr	r1, [r3, #8]
 2545              	.LVL218:
 2546              		.loc 1 826 13 view .LVU765
 2547 0008 91F806E0 		ldrb	lr, [r1, #6]	@ zero_extendqisi2
 2548              	.LVL219:
 827:C:/Users/leopi/Documents/vs/S-Reo/MazeLibrary\Searching.c ****     uint8_t now_y = now_state->node->pos.y;
 2549              		.loc 1 827 5 is_stmt 1 view .LVU766
 2550              		.loc 1 827 13 is_stmt 0 view .LVU767
 2551 000c CC79     		ldrb	r4, [r1, #7]	@ zero_extendqisi2
 2552              	.LVL220:
 828:C:/Users/leopi/Documents/vs/S-Reo/MazeLibrary\Searching.c ****     uint8_t next_x = next_node->pos.x;
 2553              		.loc 1 828 5 is_stmt 1 view .LVU768
 2554              		.loc 1 828 13 is_stmt 0 view .LVU769
 2555 000e 9179     		ldrb	r1, [r2, #6]	@ zero_extendqisi2
 2556              	.LVL221:
 829:C:/Users/leopi/Documents/vs/S-Reo/MazeLibrary\Searching.c ****     uint8_t next_y = next_node->pos.y;
 2557              		.loc 1 829 5 is_stmt 1 view .LVU770
 2558              		.loc 1 829 13 is_stmt 0 view .LVU771
 2559 0010 D579     		ldrb	r5, [r2, #7]	@ zero_extendqisi2
 2560              	.LVL222:
 830:C:/Users/leopi/Documents/vs/S-Reo/MazeLibrary\Searching.c **** 
 831:C:/Users/leopi/Documents/vs/S-Reo/MazeLibrary\Searching.c ****     switch(now_state->car%8)
 2561              		.loc 1 831 5 is_stmt 1 view .LVU772
 2562              		.loc 1 831 21 is_stmt 0 view .LVU773
ARM GAS  C:\Users\leopi\AppData\Local\Temp\cc19K7kN.s 			page 68


 2563 0012 93F802C0 		ldrb	ip, [r3, #2]	@ zero_extendqisi2
 2564              		.loc 1 831 5 view .LVU774
 2565 0016 0CF0070C 		and	ip, ip, #7
 2566 001a BCF1060F 		cmp	ip, #6
 2567 001e 19D8     		bhi	.L154
 2568 0020 DFE81CF0 		tbh	[pc, ip, lsl #1]
 2569              	.L156:
 2570 0024 0700     		.2byte	(.L159-.L156)/2
 2571 0026 1800     		.2byte	(.L154-.L156)/2
 2572 0028 5E00     		.2byte	(.L158-.L156)/2
 2573 002a 1800     		.2byte	(.L154-.L156)/2
 2574 002c B800     		.2byte	(.L157-.L156)/2
 2575 002e 1800     		.2byte	(.L154-.L156)/2
 2576 0030 1601     		.2byte	(.L155-.L156)/2
 2577              		.p2align 1
 2578              	.L159:
 832:C:/Users/leopi/Documents/vs/S-Reo/MazeLibrary\Searching.c ****     {
 833:C:/Users/leopi/Documents/vs/S-Reo/MazeLibrary\Searching.c ****         case north://行から、列に行くのか行に行くのかで、差分の取り方を変
 834:C:/Users/leopi/Documents/vs/S-Reo/MazeLibrary\Searching.c ****             if(next_node->rc == 0)
 2579              		.loc 1 834 13 is_stmt 1 view .LVU775
 2580              		.loc 1 834 25 is_stmt 0 view .LVU776
 2581 0032 5279     		ldrb	r2, [r2, #5]	@ zero_extendqisi2
 2582              	.LVL223:
 2583              		.loc 1 834 15 view .LVU777
 2584 0034 1AB9     		cbnz	r2, .L160
 835:C:/Users/leopi/Documents/vs/S-Reo/MazeLibrary\Searching.c ****             {
 836:C:/Users/leopi/Documents/vs/S-Reo/MazeLibrary\Searching.c ****                 //行から行
 837:C:/Users/leopi/Documents/vs/S-Reo/MazeLibrary\Searching.c ****                 //直進かUターンのどちらか。とりあえず1方向
 838:C:/Users/leopi/Documents/vs/S-Reo/MazeLibrary\Searching.c ****                 //隣接するノードしか見ていない
 839:C:/Users/leopi/Documents/vs/S-Reo/MazeLibrary\Searching.c ****                 //直進
 840:C:/Users/leopi/Documents/vs/S-Reo/MazeLibrary\Searching.c ****                 //北向きから北向き
 841:C:/Users/leopi/Documents/vs/S-Reo/MazeLibrary\Searching.c ****                 if( __RAW_TO_RAW_NORTH__(now_x, now_y, next_x, next_y) )
 2585              		.loc 1 841 17 is_stmt 1 view .LVU778
 2586              		.loc 1 841 19 is_stmt 0 view .LVU779
 2587 0036 8E45     		cmp	lr, r1
 2588 0038 0DD0     		beq	.L181
 2589              	.L161:
 842:C:/Users/leopi/Documents/vs/S-Reo/MazeLibrary\Searching.c ****                 {
 843:C:/Users/leopi/Documents/vs/S-Reo/MazeLibrary\Searching.c ****                     next_state->car = north;
 844:C:/Users/leopi/Documents/vs/S-Reo/MazeLibrary\Searching.c ****                     next_state->pos.y = now_state->pos.y + 1;
 845:C:/Users/leopi/Documents/vs/S-Reo/MazeLibrary\Searching.c ****                     now_state->dir = front;
 846:C:/Users/leopi/Documents/vs/S-Reo/MazeLibrary\Searching.c ****                     return next_state;
 847:C:/Users/leopi/Documents/vs/S-Reo/MazeLibrary\Searching.c ****                 }
 848:C:/Users/leopi/Documents/vs/S-Reo/MazeLibrary\Searching.c ****                 //後ろ
 849:C:/Users/leopi/Documents/vs/S-Reo/MazeLibrary\Searching.c ****                 //北向きから南向き
 850:C:/Users/leopi/Documents/vs/S-Reo/MazeLibrary\Searching.c ****                 if( __RAW_TO_RAW_SOUTH__(now_x, now_y, next_x, next_y) )
 2590              		.loc 1 850 17 is_stmt 1 view .LVU780
 2591              		.loc 1 850 19 is_stmt 0 view .LVU781
 2592 003a 8E45     		cmp	lr, r1
 2593 003c 16D0     		beq	.L182
 2594              	.L160:
 851:C:/Users/leopi/Documents/vs/S-Reo/MazeLibrary\Searching.c ****                 {
 852:C:/Users/leopi/Documents/vs/S-Reo/MazeLibrary\Searching.c ****                     next_state->car = south;
 853:C:/Users/leopi/Documents/vs/S-Reo/MazeLibrary\Searching.c ****                     next_state->pos.y = now_state->pos.y - 2; //次に壁を更新するタイミ
 854:C:/Users/leopi/Documents/vs/S-Reo/MazeLibrary\Searching.c ****                     now_state->dir = back;
 855:C:/Users/leopi/Documents/vs/S-Reo/MazeLibrary\Searching.c ****                     return next_state;
 856:C:/Users/leopi/Documents/vs/S-Reo/MazeLibrary\Searching.c ****                 }
ARM GAS  C:\Users\leopi\AppData\Local\Temp\cc19K7kN.s 			page 69


 857:C:/Users/leopi/Documents/vs/S-Reo/MazeLibrary\Searching.c **** 
 858:C:/Users/leopi/Documents/vs/S-Reo/MazeLibrary\Searching.c ****             }
 859:C:/Users/leopi/Documents/vs/S-Reo/MazeLibrary\Searching.c **** 
 860:C:/Users/leopi/Documents/vs/S-Reo/MazeLibrary\Searching.c **** 
 861:C:/Users/leopi/Documents/vs/S-Reo/MazeLibrary\Searching.c ****             if(next_node->rc == 1)
 2595              		.loc 1 861 13 is_stmt 1 view .LVU782
 2596              		.loc 1 861 15 is_stmt 0 view .LVU783
 2597 003e 4AB1     		cbz	r2, .L154
 862:C:/Users/leopi/Documents/vs/S-Reo/MazeLibrary\Searching.c ****             {
 863:C:/Users/leopi/Documents/vs/S-Reo/MazeLibrary\Searching.c ****                 //行から列.左右のどちらか判断.あとで後ろも候補にあげる
 864:C:/Users/leopi/Documents/vs/S-Reo/MazeLibrary\Searching.c ****                 //右旋回
 865:C:/Users/leopi/Documents/vs/S-Reo/MazeLibrary\Searching.c ****                 //北向きから北東
 866:C:/Users/leopi/Documents/vs/S-Reo/MazeLibrary\Searching.c ****                 if( __RAW_TO_COLUMN_NE__(now_x, now_y, next_x, next_y) )
 2598              		.loc 1 866 17 is_stmt 1 view .LVU784
 2599              		.loc 1 866 21 is_stmt 0 view .LVU785
 2600 0040 0EF10102 		add	r2, lr, #1
 2601              		.loc 1 866 19 view .LVU786
 2602 0044 8A42     		cmp	r2, r1
 2603 0046 1CD0     		beq	.L183
 2604              	.L162:
 867:C:/Users/leopi/Documents/vs/S-Reo/MazeLibrary\Searching.c ****                 {
 868:C:/Users/leopi/Documents/vs/S-Reo/MazeLibrary\Searching.c ****                     next_state->car = east;
 869:C:/Users/leopi/Documents/vs/S-Reo/MazeLibrary\Searching.c ****                     next_state->pos.x = now_state->pos.x + 1;
 870:C:/Users/leopi/Documents/vs/S-Reo/MazeLibrary\Searching.c ****                     now_state->dir = right;
 871:C:/Users/leopi/Documents/vs/S-Reo/MazeLibrary\Searching.c **** //                    ChangeLED(6);
 872:C:/Users/leopi/Documents/vs/S-Reo/MazeLibrary\Searching.c ****                     return next_state;
 873:C:/Users/leopi/Documents/vs/S-Reo/MazeLibrary\Searching.c ****                 }
 874:C:/Users/leopi/Documents/vs/S-Reo/MazeLibrary\Searching.c **** 
 875:C:/Users/leopi/Documents/vs/S-Reo/MazeLibrary\Searching.c ****                 //左旋回
 876:C:/Users/leopi/Documents/vs/S-Reo/MazeLibrary\Searching.c ****                 //北向きから北西
 877:C:/Users/leopi/Documents/vs/S-Reo/MazeLibrary\Searching.c ****                 if( __RAW_TO_COLUMN_NW__(now_x, now_y, next_x, next_y) )
 2605              		.loc 1 877 17 is_stmt 1 view .LVU787
 2606              		.loc 1 877 19 is_stmt 0 view .LVU788
 2607 0048 8E45     		cmp	lr, r1
 2608 004a 23D0     		beq	.L184
 2609              	.L163:
 878:C:/Users/leopi/Documents/vs/S-Reo/MazeLibrary\Searching.c ****                 {
 879:C:/Users/leopi/Documents/vs/S-Reo/MazeLibrary\Searching.c ****                     next_state->car = west;
 880:C:/Users/leopi/Documents/vs/S-Reo/MazeLibrary\Searching.c ****                     next_state->pos.x = now_state->pos.x - 1;
 881:C:/Users/leopi/Documents/vs/S-Reo/MazeLibrary\Searching.c ****                     now_state->dir = left;
 882:C:/Users/leopi/Documents/vs/S-Reo/MazeLibrary\Searching.c ****                     return next_state;
 883:C:/Users/leopi/Documents/vs/S-Reo/MazeLibrary\Searching.c ****                 }
 884:C:/Users/leopi/Documents/vs/S-Reo/MazeLibrary\Searching.c **** 
 885:C:/Users/leopi/Documents/vs/S-Reo/MazeLibrary\Searching.c ****                 //Uターンして右旋回
 886:C:/Users/leopi/Documents/vs/S-Reo/MazeLibrary\Searching.c ****                 //北向きから南西
 887:C:/Users/leopi/Documents/vs/S-Reo/MazeLibrary\Searching.c ****                 if( __RAW_TO_COLUMN_SW__(now_x, now_y, next_x, next_y) )
 2610              		.loc 1 887 17 is_stmt 1 view .LVU789
 2611              		.loc 1 887 19 is_stmt 0 view .LVU790
 2612 004c 8E45     		cmp	lr, r1
 2613 004e 2AD0     		beq	.L185
 2614              	.L164:
 888:C:/Users/leopi/Documents/vs/S-Reo/MazeLibrary\Searching.c ****                 {
 889:C:/Users/leopi/Documents/vs/S-Reo/MazeLibrary\Searching.c ****                     next_state->car = west;
 890:C:/Users/leopi/Documents/vs/S-Reo/MazeLibrary\Searching.c ****                     next_state->pos.x = now_state->pos.x - 1;
 891:C:/Users/leopi/Documents/vs/S-Reo/MazeLibrary\Searching.c ****                     next_state->pos.y = now_state->pos.y - 1;
 892:C:/Users/leopi/Documents/vs/S-Reo/MazeLibrary\Searching.c ****                     now_state->dir = backright;
 893:C:/Users/leopi/Documents/vs/S-Reo/MazeLibrary\Searching.c ****                     return next_state;
ARM GAS  C:\Users\leopi\AppData\Local\Temp\cc19K7kN.s 			page 70


 894:C:/Users/leopi/Documents/vs/S-Reo/MazeLibrary\Searching.c ****                 }
 895:C:/Users/leopi/Documents/vs/S-Reo/MazeLibrary\Searching.c ****                 //Uターンして左旋回
 896:C:/Users/leopi/Documents/vs/S-Reo/MazeLibrary\Searching.c ****                 //北向きから南東
 897:C:/Users/leopi/Documents/vs/S-Reo/MazeLibrary\Searching.c ****                 if( __RAW_TO_COLUMN_SE__(now_x, now_y, next_x, next_y) )
 2615              		.loc 1 897 17 is_stmt 1 view .LVU791
 2616              		.loc 1 897 19 is_stmt 0 view .LVU792
 2617 0050 8A42     		cmp	r2, r1
 2618 0052 37D0     		beq	.L186
 2619              	.LVL224:
 2620              	.L154:
 898:C:/Users/leopi/Documents/vs/S-Reo/MazeLibrary\Searching.c ****                 {
 899:C:/Users/leopi/Documents/vs/S-Reo/MazeLibrary\Searching.c ****                     next_state->car = east;
 900:C:/Users/leopi/Documents/vs/S-Reo/MazeLibrary\Searching.c ****                     next_state->pos.x = now_state->pos.x + 1;
 901:C:/Users/leopi/Documents/vs/S-Reo/MazeLibrary\Searching.c ****                     next_state->pos.y = now_state->pos.y - 1;
 902:C:/Users/leopi/Documents/vs/S-Reo/MazeLibrary\Searching.c ****                     now_state->dir = backleft;
 903:C:/Users/leopi/Documents/vs/S-Reo/MazeLibrary\Searching.c ****                     return next_state;
 904:C:/Users/leopi/Documents/vs/S-Reo/MazeLibrary\Searching.c ****                 }
 905:C:/Users/leopi/Documents/vs/S-Reo/MazeLibrary\Searching.c ****             }
 906:C:/Users/leopi/Documents/vs/S-Reo/MazeLibrary\Searching.c ****             break;
 907:C:/Users/leopi/Documents/vs/S-Reo/MazeLibrary\Searching.c **** 
 908:C:/Users/leopi/Documents/vs/S-Reo/MazeLibrary\Searching.c ****         case east:
 909:C:/Users/leopi/Documents/vs/S-Reo/MazeLibrary\Searching.c ****             if(next_node->rc == 1)
 910:C:/Users/leopi/Documents/vs/S-Reo/MazeLibrary\Searching.c ****             {
 911:C:/Users/leopi/Documents/vs/S-Reo/MazeLibrary\Searching.c ****                 //列から列
 912:C:/Users/leopi/Documents/vs/S-Reo/MazeLibrary\Searching.c ****                 //直進かUターンのどちらか。とりあえず1方向
 913:C:/Users/leopi/Documents/vs/S-Reo/MazeLibrary\Searching.c ****                 //隣接するノードしか見ていない
 914:C:/Users/leopi/Documents/vs/S-Reo/MazeLibrary\Searching.c ****                 //直進
 915:C:/Users/leopi/Documents/vs/S-Reo/MazeLibrary\Searching.c ****                 //東向きから東向き
 916:C:/Users/leopi/Documents/vs/S-Reo/MazeLibrary\Searching.c ****                 if( __COLUMN_TO_COLUMN_EAST__(now_x, now_y, next_x, next_y) )
 917:C:/Users/leopi/Documents/vs/S-Reo/MazeLibrary\Searching.c ****                 {
 918:C:/Users/leopi/Documents/vs/S-Reo/MazeLibrary\Searching.c ****                     next_state->car = east;
 919:C:/Users/leopi/Documents/vs/S-Reo/MazeLibrary\Searching.c ****                     next_state->pos.x = now_state->pos.x + 1;
 920:C:/Users/leopi/Documents/vs/S-Reo/MazeLibrary\Searching.c ****                     now_state->dir = front;
 921:C:/Users/leopi/Documents/vs/S-Reo/MazeLibrary\Searching.c **** //                    ChangeLED(4);
 922:C:/Users/leopi/Documents/vs/S-Reo/MazeLibrary\Searching.c ****                     return next_state;
 923:C:/Users/leopi/Documents/vs/S-Reo/MazeLibrary\Searching.c ****                 }
 924:C:/Users/leopi/Documents/vs/S-Reo/MazeLibrary\Searching.c ****                 //後ろ
 925:C:/Users/leopi/Documents/vs/S-Reo/MazeLibrary\Searching.c ****                 //東向きから西向き
 926:C:/Users/leopi/Documents/vs/S-Reo/MazeLibrary\Searching.c ****                 if( __COLUMN_TO_COLUMN_WEST__(now_x, now_y, next_x, next_y) )
 927:C:/Users/leopi/Documents/vs/S-Reo/MazeLibrary\Searching.c ****                 {
 928:C:/Users/leopi/Documents/vs/S-Reo/MazeLibrary\Searching.c ****                     next_state->car = west;
 929:C:/Users/leopi/Documents/vs/S-Reo/MazeLibrary\Searching.c ****                     next_state->pos.x = now_state->pos.x - 2; //次に壁を更新するタイミ
 930:C:/Users/leopi/Documents/vs/S-Reo/MazeLibrary\Searching.c ****                     now_state->dir = back;
 931:C:/Users/leopi/Documents/vs/S-Reo/MazeLibrary\Searching.c ****                     return next_state;
 932:C:/Users/leopi/Documents/vs/S-Reo/MazeLibrary\Searching.c ****                 }
 933:C:/Users/leopi/Documents/vs/S-Reo/MazeLibrary\Searching.c **** 
 934:C:/Users/leopi/Documents/vs/S-Reo/MazeLibrary\Searching.c ****             }
 935:C:/Users/leopi/Documents/vs/S-Reo/MazeLibrary\Searching.c **** 
 936:C:/Users/leopi/Documents/vs/S-Reo/MazeLibrary\Searching.c **** 
 937:C:/Users/leopi/Documents/vs/S-Reo/MazeLibrary\Searching.c ****             if(next_node->rc == 0)
 938:C:/Users/leopi/Documents/vs/S-Reo/MazeLibrary\Searching.c ****             {
 939:C:/Users/leopi/Documents/vs/S-Reo/MazeLibrary\Searching.c ****                 //列から行.左右のどちらか判断.あとで後ろも候補にあげる
 940:C:/Users/leopi/Documents/vs/S-Reo/MazeLibrary\Searching.c ****                 //右旋回
 941:C:/Users/leopi/Documents/vs/S-Reo/MazeLibrary\Searching.c ****                 //東向きから南東
 942:C:/Users/leopi/Documents/vs/S-Reo/MazeLibrary\Searching.c ****                 if( __COLUMN_TO_RAW_SE__(now_x, now_y, next_x, next_y) )
 943:C:/Users/leopi/Documents/vs/S-Reo/MazeLibrary\Searching.c ****                 {
 944:C:/Users/leopi/Documents/vs/S-Reo/MazeLibrary\Searching.c ****                     next_state->car = south;
ARM GAS  C:\Users\leopi\AppData\Local\Temp\cc19K7kN.s 			page 71


 945:C:/Users/leopi/Documents/vs/S-Reo/MazeLibrary\Searching.c ****                     next_state->pos.y = now_state->pos.y - 1;
 946:C:/Users/leopi/Documents/vs/S-Reo/MazeLibrary\Searching.c ****                     now_state->dir = right;
 947:C:/Users/leopi/Documents/vs/S-Reo/MazeLibrary\Searching.c **** //                    ChangeLED(5);
 948:C:/Users/leopi/Documents/vs/S-Reo/MazeLibrary\Searching.c ****                     return next_state;
 949:C:/Users/leopi/Documents/vs/S-Reo/MazeLibrary\Searching.c ****                 }
 950:C:/Users/leopi/Documents/vs/S-Reo/MazeLibrary\Searching.c **** 
 951:C:/Users/leopi/Documents/vs/S-Reo/MazeLibrary\Searching.c ****                 //左旋回
 952:C:/Users/leopi/Documents/vs/S-Reo/MazeLibrary\Searching.c ****                 //東向きから北東
 953:C:/Users/leopi/Documents/vs/S-Reo/MazeLibrary\Searching.c ****                 if( __COLUMN_TO_RAW_NE__(now_x, now_y, next_x, next_y) )
 954:C:/Users/leopi/Documents/vs/S-Reo/MazeLibrary\Searching.c ****                 {
 955:C:/Users/leopi/Documents/vs/S-Reo/MazeLibrary\Searching.c ****                     next_state->car = north;
 956:C:/Users/leopi/Documents/vs/S-Reo/MazeLibrary\Searching.c ****                     next_state->pos.y = now_state->pos.y + 1;
 957:C:/Users/leopi/Documents/vs/S-Reo/MazeLibrary\Searching.c ****                     now_state->dir = left;
 958:C:/Users/leopi/Documents/vs/S-Reo/MazeLibrary\Searching.c ****                     return next_state;
 959:C:/Users/leopi/Documents/vs/S-Reo/MazeLibrary\Searching.c ****                 }
 960:C:/Users/leopi/Documents/vs/S-Reo/MazeLibrary\Searching.c ****                 //Uターンして右旋回
 961:C:/Users/leopi/Documents/vs/S-Reo/MazeLibrary\Searching.c ****                 //東向きから北西
 962:C:/Users/leopi/Documents/vs/S-Reo/MazeLibrary\Searching.c ****                 if( __COLUMN_TO_RAW_NW__(now_x, now_y, next_x, next_y) )
 963:C:/Users/leopi/Documents/vs/S-Reo/MazeLibrary\Searching.c ****                 {
 964:C:/Users/leopi/Documents/vs/S-Reo/MazeLibrary\Searching.c ****                     next_state->car = north;
 965:C:/Users/leopi/Documents/vs/S-Reo/MazeLibrary\Searching.c ****                     next_state->pos.x = now_state->pos.x - 1;
 966:C:/Users/leopi/Documents/vs/S-Reo/MazeLibrary\Searching.c ****                     next_state->pos.y = now_state->pos.y + 1;
 967:C:/Users/leopi/Documents/vs/S-Reo/MazeLibrary\Searching.c ****                     now_state->dir = backright;
 968:C:/Users/leopi/Documents/vs/S-Reo/MazeLibrary\Searching.c ****                     return next_state;
 969:C:/Users/leopi/Documents/vs/S-Reo/MazeLibrary\Searching.c ****                 }
 970:C:/Users/leopi/Documents/vs/S-Reo/MazeLibrary\Searching.c **** 
 971:C:/Users/leopi/Documents/vs/S-Reo/MazeLibrary\Searching.c ****                 //Uターンして左旋回
 972:C:/Users/leopi/Documents/vs/S-Reo/MazeLibrary\Searching.c ****                 //東向きから南西
 973:C:/Users/leopi/Documents/vs/S-Reo/MazeLibrary\Searching.c ****                 if( __COLUMN_TO_RAW_SW__(now_x, now_y, next_x, next_y) )
 974:C:/Users/leopi/Documents/vs/S-Reo/MazeLibrary\Searching.c ****                 {
 975:C:/Users/leopi/Documents/vs/S-Reo/MazeLibrary\Searching.c ****                     next_state->car = south;
 976:C:/Users/leopi/Documents/vs/S-Reo/MazeLibrary\Searching.c ****                     next_state->pos.x = now_state->pos.x - 1;
 977:C:/Users/leopi/Documents/vs/S-Reo/MazeLibrary\Searching.c ****                     next_state->pos.y = now_state->pos.y - 1;
 978:C:/Users/leopi/Documents/vs/S-Reo/MazeLibrary\Searching.c ****                     now_state->dir = backleft;
 979:C:/Users/leopi/Documents/vs/S-Reo/MazeLibrary\Searching.c ****                     return next_state;
 980:C:/Users/leopi/Documents/vs/S-Reo/MazeLibrary\Searching.c ****                 }
 981:C:/Users/leopi/Documents/vs/S-Reo/MazeLibrary\Searching.c ****             }
 982:C:/Users/leopi/Documents/vs/S-Reo/MazeLibrary\Searching.c ****             break;
 983:C:/Users/leopi/Documents/vs/S-Reo/MazeLibrary\Searching.c ****         case south:
 984:C:/Users/leopi/Documents/vs/S-Reo/MazeLibrary\Searching.c ****             if(next_node->rc == 0)
 985:C:/Users/leopi/Documents/vs/S-Reo/MazeLibrary\Searching.c ****             {
 986:C:/Users/leopi/Documents/vs/S-Reo/MazeLibrary\Searching.c ****                 //行から行
 987:C:/Users/leopi/Documents/vs/S-Reo/MazeLibrary\Searching.c ****                 //直進かUターンのどちらか。とりあえず1方向
 988:C:/Users/leopi/Documents/vs/S-Reo/MazeLibrary\Searching.c ****                 //隣接するノードしか見ていない
 989:C:/Users/leopi/Documents/vs/S-Reo/MazeLibrary\Searching.c ****                 //直進
 990:C:/Users/leopi/Documents/vs/S-Reo/MazeLibrary\Searching.c ****                 //南向きから南
 991:C:/Users/leopi/Documents/vs/S-Reo/MazeLibrary\Searching.c ****                 if( __RAW_TO_RAW_SOUTH__(now_x, now_y, next_x, next_y) )
 992:C:/Users/leopi/Documents/vs/S-Reo/MazeLibrary\Searching.c ****                 {
 993:C:/Users/leopi/Documents/vs/S-Reo/MazeLibrary\Searching.c ****                     next_state->car = south;
 994:C:/Users/leopi/Documents/vs/S-Reo/MazeLibrary\Searching.c ****                     next_state->pos.y = now_state->pos.y - 1; //次に壁を更新するタイミ
 995:C:/Users/leopi/Documents/vs/S-Reo/MazeLibrary\Searching.c ****                     now_state->dir = front;
 996:C:/Users/leopi/Documents/vs/S-Reo/MazeLibrary\Searching.c ****                     return next_state;
 997:C:/Users/leopi/Documents/vs/S-Reo/MazeLibrary\Searching.c ****                 }
 998:C:/Users/leopi/Documents/vs/S-Reo/MazeLibrary\Searching.c ****                 //Uターン
 999:C:/Users/leopi/Documents/vs/S-Reo/MazeLibrary\Searching.c ****                 if( __RAW_TO_RAW_NORTH__(now_x, now_y, next_x, next_y) )
1000:C:/Users/leopi/Documents/vs/S-Reo/MazeLibrary\Searching.c ****                 {
1001:C:/Users/leopi/Documents/vs/S-Reo/MazeLibrary\Searching.c ****                     next_state->car = north;
ARM GAS  C:\Users\leopi\AppData\Local\Temp\cc19K7kN.s 			page 72


1002:C:/Users/leopi/Documents/vs/S-Reo/MazeLibrary\Searching.c ****                     next_state->pos.y = now_state->pos.y + 2;
1003:C:/Users/leopi/Documents/vs/S-Reo/MazeLibrary\Searching.c ****                     now_state->dir = back;
1004:C:/Users/leopi/Documents/vs/S-Reo/MazeLibrary\Searching.c ****                     return next_state;
1005:C:/Users/leopi/Documents/vs/S-Reo/MazeLibrary\Searching.c ****                 }
1006:C:/Users/leopi/Documents/vs/S-Reo/MazeLibrary\Searching.c **** 
1007:C:/Users/leopi/Documents/vs/S-Reo/MazeLibrary\Searching.c ****             }
1008:C:/Users/leopi/Documents/vs/S-Reo/MazeLibrary\Searching.c **** 
1009:C:/Users/leopi/Documents/vs/S-Reo/MazeLibrary\Searching.c ****             if(next_node->rc == 1)
1010:C:/Users/leopi/Documents/vs/S-Reo/MazeLibrary\Searching.c ****             {
1011:C:/Users/leopi/Documents/vs/S-Reo/MazeLibrary\Searching.c ****                 //行から列.左右のどちらか判断.あとで後ろも候補にあげる
1012:C:/Users/leopi/Documents/vs/S-Reo/MazeLibrary\Searching.c ****                 //右旋回
1013:C:/Users/leopi/Documents/vs/S-Reo/MazeLibrary\Searching.c ****                 //南向きから南西
1014:C:/Users/leopi/Documents/vs/S-Reo/MazeLibrary\Searching.c ****                 if( __RAW_TO_COLUMN_SW__(now_x, now_y, next_x, next_y) )
1015:C:/Users/leopi/Documents/vs/S-Reo/MazeLibrary\Searching.c ****                 {
1016:C:/Users/leopi/Documents/vs/S-Reo/MazeLibrary\Searching.c ****                     next_state->car = west;
1017:C:/Users/leopi/Documents/vs/S-Reo/MazeLibrary\Searching.c ****                     next_state->pos.x = now_state->pos.x - 1;
1018:C:/Users/leopi/Documents/vs/S-Reo/MazeLibrary\Searching.c ****                     now_state->dir = right;
1019:C:/Users/leopi/Documents/vs/S-Reo/MazeLibrary\Searching.c **** //                    ChangeLED(4);
1020:C:/Users/leopi/Documents/vs/S-Reo/MazeLibrary\Searching.c ****                     //printf("南向きから南西:%u, %u\r\n",next_state->pos.y, now_state->pos.x
1021:C:/Users/leopi/Documents/vs/S-Reo/MazeLibrary\Searching.c ****                     return next_state;
1022:C:/Users/leopi/Documents/vs/S-Reo/MazeLibrary\Searching.c ****                 }
1023:C:/Users/leopi/Documents/vs/S-Reo/MazeLibrary\Searching.c ****                 //左旋回
1024:C:/Users/leopi/Documents/vs/S-Reo/MazeLibrary\Searching.c ****                 //南向きから南東
1025:C:/Users/leopi/Documents/vs/S-Reo/MazeLibrary\Searching.c ****                 if( __RAW_TO_COLUMN_SE__(now_x, now_y, next_x, next_y) )
1026:C:/Users/leopi/Documents/vs/S-Reo/MazeLibrary\Searching.c ****                 {
1027:C:/Users/leopi/Documents/vs/S-Reo/MazeLibrary\Searching.c ****                     next_state->car = east;
1028:C:/Users/leopi/Documents/vs/S-Reo/MazeLibrary\Searching.c ****                     next_state->pos.x = now_state->pos.x + 1;
1029:C:/Users/leopi/Documents/vs/S-Reo/MazeLibrary\Searching.c ****                     now_state->dir = left;
1030:C:/Users/leopi/Documents/vs/S-Reo/MazeLibrary\Searching.c ****                     return next_state;
1031:C:/Users/leopi/Documents/vs/S-Reo/MazeLibrary\Searching.c ****                 }
1032:C:/Users/leopi/Documents/vs/S-Reo/MazeLibrary\Searching.c **** 
1033:C:/Users/leopi/Documents/vs/S-Reo/MazeLibrary\Searching.c ****                 //Uターンして直進して右旋回
1034:C:/Users/leopi/Documents/vs/S-Reo/MazeLibrary\Searching.c ****                 //南向きから北東
1035:C:/Users/leopi/Documents/vs/S-Reo/MazeLibrary\Searching.c ****                 if( __RAW_TO_COLUMN_NE__(now_x, now_y, next_x, next_y) )
1036:C:/Users/leopi/Documents/vs/S-Reo/MazeLibrary\Searching.c ****                 {
1037:C:/Users/leopi/Documents/vs/S-Reo/MazeLibrary\Searching.c ****                     next_state->car = east;
1038:C:/Users/leopi/Documents/vs/S-Reo/MazeLibrary\Searching.c ****                     next_state->pos.x = now_state->pos.x + 1;
1039:C:/Users/leopi/Documents/vs/S-Reo/MazeLibrary\Searching.c ****                     next_state->pos.y = now_state->pos.y + 1;
1040:C:/Users/leopi/Documents/vs/S-Reo/MazeLibrary\Searching.c ****                     now_state->dir = backright;
1041:C:/Users/leopi/Documents/vs/S-Reo/MazeLibrary\Searching.c ****                     return next_state;
1042:C:/Users/leopi/Documents/vs/S-Reo/MazeLibrary\Searching.c ****                 }
1043:C:/Users/leopi/Documents/vs/S-Reo/MazeLibrary\Searching.c ****                 //Uターンして直進して左旋回
1044:C:/Users/leopi/Documents/vs/S-Reo/MazeLibrary\Searching.c ****                 //南向きから北西
1045:C:/Users/leopi/Documents/vs/S-Reo/MazeLibrary\Searching.c ****                 if( __RAW_TO_COLUMN_NW__(now_x, now_y, next_x, next_y) )
1046:C:/Users/leopi/Documents/vs/S-Reo/MazeLibrary\Searching.c ****                 {
1047:C:/Users/leopi/Documents/vs/S-Reo/MazeLibrary\Searching.c ****                     next_state->car = west;
1048:C:/Users/leopi/Documents/vs/S-Reo/MazeLibrary\Searching.c ****                     next_state->pos.x = now_state->pos.x - 1;
1049:C:/Users/leopi/Documents/vs/S-Reo/MazeLibrary\Searching.c ****                     next_state->pos.y = now_state->pos.y + 1;
1050:C:/Users/leopi/Documents/vs/S-Reo/MazeLibrary\Searching.c ****                     now_state->dir = backleft;
1051:C:/Users/leopi/Documents/vs/S-Reo/MazeLibrary\Searching.c ****                     return next_state;
1052:C:/Users/leopi/Documents/vs/S-Reo/MazeLibrary\Searching.c ****                 }
1053:C:/Users/leopi/Documents/vs/S-Reo/MazeLibrary\Searching.c ****             }
1054:C:/Users/leopi/Documents/vs/S-Reo/MazeLibrary\Searching.c ****             break;
1055:C:/Users/leopi/Documents/vs/S-Reo/MazeLibrary\Searching.c ****         case west:
1056:C:/Users/leopi/Documents/vs/S-Reo/MazeLibrary\Searching.c ****             if(next_node->rc == 1)
1057:C:/Users/leopi/Documents/vs/S-Reo/MazeLibrary\Searching.c ****             {
1058:C:/Users/leopi/Documents/vs/S-Reo/MazeLibrary\Searching.c ****                 //列から列
ARM GAS  C:\Users\leopi\AppData\Local\Temp\cc19K7kN.s 			page 73


1059:C:/Users/leopi/Documents/vs/S-Reo/MazeLibrary\Searching.c ****                 //直進かUターンのどちらか。とりあえず1方向
1060:C:/Users/leopi/Documents/vs/S-Reo/MazeLibrary\Searching.c ****                 //隣接するノードしか見ていない
1061:C:/Users/leopi/Documents/vs/S-Reo/MazeLibrary\Searching.c ****                 //直進
1062:C:/Users/leopi/Documents/vs/S-Reo/MazeLibrary\Searching.c ****                 //西向きから西向き
1063:C:/Users/leopi/Documents/vs/S-Reo/MazeLibrary\Searching.c ****                 if( __COLUMN_TO_COLUMN_WEST__(now_x, now_y, next_x, next_y) )
1064:C:/Users/leopi/Documents/vs/S-Reo/MazeLibrary\Searching.c ****                 {
1065:C:/Users/leopi/Documents/vs/S-Reo/MazeLibrary\Searching.c ****                     next_state->car = west;
1066:C:/Users/leopi/Documents/vs/S-Reo/MazeLibrary\Searching.c ****                     next_state->pos.x = now_state->pos.x - 1; //次に壁を更新するタイミ
1067:C:/Users/leopi/Documents/vs/S-Reo/MazeLibrary\Searching.c ****                     now_state->dir = front;
1068:C:/Users/leopi/Documents/vs/S-Reo/MazeLibrary\Searching.c ****                     return next_state;
1069:C:/Users/leopi/Documents/vs/S-Reo/MazeLibrary\Searching.c ****                 }
1070:C:/Users/leopi/Documents/vs/S-Reo/MazeLibrary\Searching.c ****                 //Uターンして直進
1071:C:/Users/leopi/Documents/vs/S-Reo/MazeLibrary\Searching.c ****                 //西向きから東向き
1072:C:/Users/leopi/Documents/vs/S-Reo/MazeLibrary\Searching.c ****                 if( __COLUMN_TO_COLUMN_EAST__(now_x, now_y, next_x, next_y) )
1073:C:/Users/leopi/Documents/vs/S-Reo/MazeLibrary\Searching.c ****                 {
1074:C:/Users/leopi/Documents/vs/S-Reo/MazeLibrary\Searching.c ****                     next_state->car = east;
1075:C:/Users/leopi/Documents/vs/S-Reo/MazeLibrary\Searching.c ****                     next_state->pos.x = now_state->pos.x + 2;
1076:C:/Users/leopi/Documents/vs/S-Reo/MazeLibrary\Searching.c ****                     now_state->dir = back;
1077:C:/Users/leopi/Documents/vs/S-Reo/MazeLibrary\Searching.c ****                     return next_state;
1078:C:/Users/leopi/Documents/vs/S-Reo/MazeLibrary\Searching.c ****                 }
1079:C:/Users/leopi/Documents/vs/S-Reo/MazeLibrary\Searching.c **** 
1080:C:/Users/leopi/Documents/vs/S-Reo/MazeLibrary\Searching.c ****             }
1081:C:/Users/leopi/Documents/vs/S-Reo/MazeLibrary\Searching.c **** 
1082:C:/Users/leopi/Documents/vs/S-Reo/MazeLibrary\Searching.c **** 
1083:C:/Users/leopi/Documents/vs/S-Reo/MazeLibrary\Searching.c ****             if(next_node->rc == 0)
1084:C:/Users/leopi/Documents/vs/S-Reo/MazeLibrary\Searching.c ****             {
1085:C:/Users/leopi/Documents/vs/S-Reo/MazeLibrary\Searching.c ****                 //列から行.左右のどちらか判断.あとで後ろも候補にあげる
1086:C:/Users/leopi/Documents/vs/S-Reo/MazeLibrary\Searching.c ****                 //右旋回
1087:C:/Users/leopi/Documents/vs/S-Reo/MazeLibrary\Searching.c ****                 //西向きから北西
1088:C:/Users/leopi/Documents/vs/S-Reo/MazeLibrary\Searching.c ****                 if( __COLUMN_TO_RAW_NW__(now_x, now_y, next_x, next_y) )
1089:C:/Users/leopi/Documents/vs/S-Reo/MazeLibrary\Searching.c ****                 {
1090:C:/Users/leopi/Documents/vs/S-Reo/MazeLibrary\Searching.c ****                     next_state->car = north;
1091:C:/Users/leopi/Documents/vs/S-Reo/MazeLibrary\Searching.c ****                     next_state->pos.y = now_state->pos.y + 1;
1092:C:/Users/leopi/Documents/vs/S-Reo/MazeLibrary\Searching.c ****                     now_state->dir = right;
1093:C:/Users/leopi/Documents/vs/S-Reo/MazeLibrary\Searching.c **** //                    ChangeLED(3);
1094:C:/Users/leopi/Documents/vs/S-Reo/MazeLibrary\Searching.c ****                     return next_state;
1095:C:/Users/leopi/Documents/vs/S-Reo/MazeLibrary\Searching.c ****                 }
1096:C:/Users/leopi/Documents/vs/S-Reo/MazeLibrary\Searching.c **** 
1097:C:/Users/leopi/Documents/vs/S-Reo/MazeLibrary\Searching.c ****                 //左旋回
1098:C:/Users/leopi/Documents/vs/S-Reo/MazeLibrary\Searching.c ****                 //西向きから南西
1099:C:/Users/leopi/Documents/vs/S-Reo/MazeLibrary\Searching.c ****                 if( __COLUMN_TO_RAW_SW__(now_x, now_y, next_x, next_y) )
1100:C:/Users/leopi/Documents/vs/S-Reo/MazeLibrary\Searching.c ****                 {
1101:C:/Users/leopi/Documents/vs/S-Reo/MazeLibrary\Searching.c ****                     next_state->car = south;
1102:C:/Users/leopi/Documents/vs/S-Reo/MazeLibrary\Searching.c ****                     next_state->pos.y = now_state->pos.y - 1;
1103:C:/Users/leopi/Documents/vs/S-Reo/MazeLibrary\Searching.c ****                     now_state->dir = left;
1104:C:/Users/leopi/Documents/vs/S-Reo/MazeLibrary\Searching.c ****                     return next_state;
1105:C:/Users/leopi/Documents/vs/S-Reo/MazeLibrary\Searching.c ****                 }
1106:C:/Users/leopi/Documents/vs/S-Reo/MazeLibrary\Searching.c **** 
1107:C:/Users/leopi/Documents/vs/S-Reo/MazeLibrary\Searching.c ****                 //Uターンして右旋回
1108:C:/Users/leopi/Documents/vs/S-Reo/MazeLibrary\Searching.c ****                 //西向きから南東
1109:C:/Users/leopi/Documents/vs/S-Reo/MazeLibrary\Searching.c ****                 if( __COLUMN_TO_RAW_SE__(now_x, now_y, next_x, next_y) )
1110:C:/Users/leopi/Documents/vs/S-Reo/MazeLibrary\Searching.c ****                 {
1111:C:/Users/leopi/Documents/vs/S-Reo/MazeLibrary\Searching.c ****                     next_state->car = south;
1112:C:/Users/leopi/Documents/vs/S-Reo/MazeLibrary\Searching.c ****                     next_state->pos.x = now_state->pos.x + 1;
1113:C:/Users/leopi/Documents/vs/S-Reo/MazeLibrary\Searching.c ****                     next_state->pos.y = now_state->pos.y - 1;
1114:C:/Users/leopi/Documents/vs/S-Reo/MazeLibrary\Searching.c ****                     now_state->dir = backright;
1115:C:/Users/leopi/Documents/vs/S-Reo/MazeLibrary\Searching.c ****                     return next_state;
ARM GAS  C:\Users\leopi\AppData\Local\Temp\cc19K7kN.s 			page 74


1116:C:/Users/leopi/Documents/vs/S-Reo/MazeLibrary\Searching.c ****                 }
1117:C:/Users/leopi/Documents/vs/S-Reo/MazeLibrary\Searching.c ****                 //Uターンして左旋回
1118:C:/Users/leopi/Documents/vs/S-Reo/MazeLibrary\Searching.c ****                 //西向きから北東
1119:C:/Users/leopi/Documents/vs/S-Reo/MazeLibrary\Searching.c ****                 if( __COLUMN_TO_RAW_NE__(now_x, now_y, next_x, next_y) )
1120:C:/Users/leopi/Documents/vs/S-Reo/MazeLibrary\Searching.c ****                 {
1121:C:/Users/leopi/Documents/vs/S-Reo/MazeLibrary\Searching.c ****                     next_state->car = north;
1122:C:/Users/leopi/Documents/vs/S-Reo/MazeLibrary\Searching.c ****                     next_state->pos.x = now_state->pos.x + 1;
1123:C:/Users/leopi/Documents/vs/S-Reo/MazeLibrary\Searching.c ****                     next_state->pos.y = now_state->pos.y + 1;
1124:C:/Users/leopi/Documents/vs/S-Reo/MazeLibrary\Searching.c ****                     now_state->dir = backleft;
1125:C:/Users/leopi/Documents/vs/S-Reo/MazeLibrary\Searching.c ****                     return next_state;
1126:C:/Users/leopi/Documents/vs/S-Reo/MazeLibrary\Searching.c ****                 }
1127:C:/Users/leopi/Documents/vs/S-Reo/MazeLibrary\Searching.c ****             }
1128:C:/Users/leopi/Documents/vs/S-Reo/MazeLibrary\Searching.c ****             break;
1129:C:/Users/leopi/Documents/vs/S-Reo/MazeLibrary\Searching.c ****         default:
1130:C:/Users/leopi/Documents/vs/S-Reo/MazeLibrary\Searching.c ****             break;
1131:C:/Users/leopi/Documents/vs/S-Reo/MazeLibrary\Searching.c ****     }
1132:C:/Users/leopi/Documents/vs/S-Reo/MazeLibrary\Searching.c **** #if DEBUG_ON
1133:C:/Users/leopi/Documents/vs/S-Reo/MazeLibrary\Searching.c ****     printf("エラー in function 'getNextState'.\r\n");
1134:C:/Users/leopi/Documents/vs/S-Reo/MazeLibrary\Searching.c **** #endif
1135:C:/Users/leopi/Documents/vs/S-Reo/MazeLibrary\Searching.c **** 
1136:C:/Users/leopi/Documents/vs/S-Reo/MazeLibrary\Searching.c ****     return next_state; //ここまで来てしまったらエラー
1137:C:/Users/leopi/Documents/vs/S-Reo/MazeLibrary\Searching.c **** }
 2621              		.loc 1 1137 1 view .LVU793
 2622 0054 70BD     		pop	{r4, r5, r6, pc}
 2623              	.LVL225:
 2624              	.L181:
 841:C:/Users/leopi/Documents/vs/S-Reo/MazeLibrary\Searching.c ****                 {
 2625              		.loc 1 841 21 discriminator 1 view .LVU794
 2626 0056 04F1010C 		add	ip, r4, #1
 2627 005a AC45     		cmp	ip, r5
 2628 005c EDD1     		bne	.L161
 843:C:/Users/leopi/Documents/vs/S-Reo/MazeLibrary\Searching.c ****                     next_state->pos.y = now_state->pos.y + 1;
 2629              		.loc 1 843 21 is_stmt 1 view .LVU795
 843:C:/Users/leopi/Documents/vs/S-Reo/MazeLibrary\Searching.c ****                     next_state->pos.y = now_state->pos.y + 1;
 2630              		.loc 1 843 37 is_stmt 0 view .LVU796
 2631 005e 0021     		movs	r1, #0
 2632              	.LVL226:
 843:C:/Users/leopi/Documents/vs/S-Reo/MazeLibrary\Searching.c ****                     next_state->pos.y = now_state->pos.y + 1;
 2633              		.loc 1 843 37 view .LVU797
 2634 0060 8170     		strb	r1, [r0, #2]
 2635              	.LVL227:
 844:C:/Users/leopi/Documents/vs/S-Reo/MazeLibrary\Searching.c ****                     now_state->dir = front;
 2636              		.loc 1 844 21 is_stmt 1 view .LVU798
 844:C:/Users/leopi/Documents/vs/S-Reo/MazeLibrary\Searching.c ****                     now_state->dir = front;
 2637              		.loc 1 844 55 is_stmt 0 view .LVU799
 2638 0062 5A78     		ldrb	r2, [r3, #1]	@ zero_extendqisi2
 844:C:/Users/leopi/Documents/vs/S-Reo/MazeLibrary\Searching.c ****                     now_state->dir = front;
 2639              		.loc 1 844 58 view .LVU800
 2640 0064 0132     		adds	r2, r2, #1
 844:C:/Users/leopi/Documents/vs/S-Reo/MazeLibrary\Searching.c ****                     now_state->dir = front;
 2641              		.loc 1 844 39 view .LVU801
 2642 0066 4270     		strb	r2, [r0, #1]
 845:C:/Users/leopi/Documents/vs/S-Reo/MazeLibrary\Searching.c ****                     return next_state;
 2643              		.loc 1 845 21 is_stmt 1 view .LVU802
 845:C:/Users/leopi/Documents/vs/S-Reo/MazeLibrary\Searching.c ****                     return next_state;
 2644              		.loc 1 845 36 is_stmt 0 view .LVU803
 2645 0068 D970     		strb	r1, [r3, #3]
ARM GAS  C:\Users\leopi\AppData\Local\Temp\cc19K7kN.s 			page 75


 846:C:/Users/leopi/Documents/vs/S-Reo/MazeLibrary\Searching.c ****                 }
 2646              		.loc 1 846 21 is_stmt 1 view .LVU804
 846:C:/Users/leopi/Documents/vs/S-Reo/MazeLibrary\Searching.c ****                 }
 2647              		.loc 1 846 28 is_stmt 0 view .LVU805
 2648 006a F3E7     		b	.L154
 2649              	.LVL228:
 2650              	.L182:
 850:C:/Users/leopi/Documents/vs/S-Reo/MazeLibrary\Searching.c ****                 {
 2651              		.loc 1 850 21 discriminator 1 view .LVU806
 2652 006c 04F1FF3C 		add	ip, r4, #-1
 2653 0070 AC45     		cmp	ip, r5
 2654 0072 E4D1     		bne	.L160
 852:C:/Users/leopi/Documents/vs/S-Reo/MazeLibrary\Searching.c ****                     next_state->pos.y = now_state->pos.y - 2; //次に壁を更新するタイミ
 2655              		.loc 1 852 21 is_stmt 1 view .LVU807
 852:C:/Users/leopi/Documents/vs/S-Reo/MazeLibrary\Searching.c ****                     next_state->pos.y = now_state->pos.y - 2; //次に壁を更新するタイミ
 2656              		.loc 1 852 37 is_stmt 0 view .LVU808
 2657 0074 0421     		movs	r1, #4
 2658              	.LVL229:
 852:C:/Users/leopi/Documents/vs/S-Reo/MazeLibrary\Searching.c ****                     next_state->pos.y = now_state->pos.y - 2; //次に壁を更新するタイミ
 2659              		.loc 1 852 37 view .LVU809
 2660 0076 8170     		strb	r1, [r0, #2]
 2661              	.LVL230:
 853:C:/Users/leopi/Documents/vs/S-Reo/MazeLibrary\Searching.c ****                     now_state->dir = back;
 2662              		.loc 1 853 21 is_stmt 1 view .LVU810
 853:C:/Users/leopi/Documents/vs/S-Reo/MazeLibrary\Searching.c ****                     now_state->dir = back;
 2663              		.loc 1 853 55 is_stmt 0 view .LVU811
 2664 0078 5A78     		ldrb	r2, [r3, #1]	@ zero_extendqisi2
 853:C:/Users/leopi/Documents/vs/S-Reo/MazeLibrary\Searching.c ****                     now_state->dir = back;
 2665              		.loc 1 853 58 view .LVU812
 2666 007a 023A     		subs	r2, r2, #2
 853:C:/Users/leopi/Documents/vs/S-Reo/MazeLibrary\Searching.c ****                     now_state->dir = back;
 2667              		.loc 1 853 39 view .LVU813
 2668 007c 4270     		strb	r2, [r0, #1]
 854:C:/Users/leopi/Documents/vs/S-Reo/MazeLibrary\Searching.c ****                     return next_state;
 2669              		.loc 1 854 21 is_stmt 1 view .LVU814
 854:C:/Users/leopi/Documents/vs/S-Reo/MazeLibrary\Searching.c ****                     return next_state;
 2670              		.loc 1 854 36 is_stmt 0 view .LVU815
 2671 007e D970     		strb	r1, [r3, #3]
 855:C:/Users/leopi/Documents/vs/S-Reo/MazeLibrary\Searching.c ****                 }
 2672              		.loc 1 855 21 is_stmt 1 view .LVU816
 855:C:/Users/leopi/Documents/vs/S-Reo/MazeLibrary\Searching.c ****                 }
 2673              		.loc 1 855 28 is_stmt 0 view .LVU817
 2674 0080 E8E7     		b	.L154
 2675              	.LVL231:
 2676              	.L183:
 866:C:/Users/leopi/Documents/vs/S-Reo/MazeLibrary\Searching.c ****                 {
 2677              		.loc 1 866 21 discriminator 1 view .LVU818
 2678 0082 AC42     		cmp	r4, r5
 2679 0084 E0D1     		bne	.L162
 868:C:/Users/leopi/Documents/vs/S-Reo/MazeLibrary\Searching.c ****                     next_state->pos.x = now_state->pos.x + 1;
 2680              		.loc 1 868 21 is_stmt 1 view .LVU819
 868:C:/Users/leopi/Documents/vs/S-Reo/MazeLibrary\Searching.c ****                     next_state->pos.x = now_state->pos.x + 1;
 2681              		.loc 1 868 37 is_stmt 0 view .LVU820
 2682 0086 0221     		movs	r1, #2
 2683              	.LVL232:
 868:C:/Users/leopi/Documents/vs/S-Reo/MazeLibrary\Searching.c ****                     next_state->pos.x = now_state->pos.x + 1;
 2684              		.loc 1 868 37 view .LVU821
ARM GAS  C:\Users\leopi\AppData\Local\Temp\cc19K7kN.s 			page 76


 2685 0088 8170     		strb	r1, [r0, #2]
 2686              	.LVL233:
 869:C:/Users/leopi/Documents/vs/S-Reo/MazeLibrary\Searching.c ****                     now_state->dir = right;
 2687              		.loc 1 869 21 is_stmt 1 view .LVU822
 869:C:/Users/leopi/Documents/vs/S-Reo/MazeLibrary\Searching.c ****                     now_state->dir = right;
 2688              		.loc 1 869 55 is_stmt 0 view .LVU823
 2689 008a 1A78     		ldrb	r2, [r3]	@ zero_extendqisi2
 869:C:/Users/leopi/Documents/vs/S-Reo/MazeLibrary\Searching.c ****                     now_state->dir = right;
 2690              		.loc 1 869 58 view .LVU824
 2691 008c 0132     		adds	r2, r2, #1
 869:C:/Users/leopi/Documents/vs/S-Reo/MazeLibrary\Searching.c ****                     now_state->dir = right;
 2692              		.loc 1 869 39 view .LVU825
 2693 008e 0270     		strb	r2, [r0]
 870:C:/Users/leopi/Documents/vs/S-Reo/MazeLibrary\Searching.c **** //                    ChangeLED(6);
 2694              		.loc 1 870 21 is_stmt 1 view .LVU826
 870:C:/Users/leopi/Documents/vs/S-Reo/MazeLibrary\Searching.c **** //                    ChangeLED(6);
 2695              		.loc 1 870 36 is_stmt 0 view .LVU827
 2696 0090 D970     		strb	r1, [r3, #3]
 872:C:/Users/leopi/Documents/vs/S-Reo/MazeLibrary\Searching.c ****                 }
 2697              		.loc 1 872 21 is_stmt 1 view .LVU828
 872:C:/Users/leopi/Documents/vs/S-Reo/MazeLibrary\Searching.c ****                 }
 2698              		.loc 1 872 28 is_stmt 0 view .LVU829
 2699 0092 DFE7     		b	.L154
 2700              	.LVL234:
 2701              	.L184:
 877:C:/Users/leopi/Documents/vs/S-Reo/MazeLibrary\Searching.c ****                 {
 2702              		.loc 1 877 21 discriminator 1 view .LVU830
 2703 0094 AC42     		cmp	r4, r5
 2704 0096 D9D1     		bne	.L163
 879:C:/Users/leopi/Documents/vs/S-Reo/MazeLibrary\Searching.c ****                     next_state->pos.x = now_state->pos.x - 1;
 2705              		.loc 1 879 21 is_stmt 1 view .LVU831
 879:C:/Users/leopi/Documents/vs/S-Reo/MazeLibrary\Searching.c ****                     next_state->pos.x = now_state->pos.x - 1;
 2706              		.loc 1 879 37 is_stmt 0 view .LVU832
 2707 0098 0621     		movs	r1, #6
 2708              	.LVL235:
 879:C:/Users/leopi/Documents/vs/S-Reo/MazeLibrary\Searching.c ****                     next_state->pos.x = now_state->pos.x - 1;
 2709              		.loc 1 879 37 view .LVU833
 2710 009a 8170     		strb	r1, [r0, #2]
 2711              	.LVL236:
 880:C:/Users/leopi/Documents/vs/S-Reo/MazeLibrary\Searching.c ****                     now_state->dir = left;
 2712              		.loc 1 880 21 is_stmt 1 view .LVU834
 880:C:/Users/leopi/Documents/vs/S-Reo/MazeLibrary\Searching.c ****                     now_state->dir = left;
 2713              		.loc 1 880 55 is_stmt 0 view .LVU835
 2714 009c 1A78     		ldrb	r2, [r3]	@ zero_extendqisi2
 880:C:/Users/leopi/Documents/vs/S-Reo/MazeLibrary\Searching.c ****                     now_state->dir = left;
 2715              		.loc 1 880 58 view .LVU836
 2716 009e 013A     		subs	r2, r2, #1
 880:C:/Users/leopi/Documents/vs/S-Reo/MazeLibrary\Searching.c ****                     now_state->dir = left;
 2717              		.loc 1 880 39 view .LVU837
 2718 00a0 0270     		strb	r2, [r0]
 881:C:/Users/leopi/Documents/vs/S-Reo/MazeLibrary\Searching.c ****                     return next_state;
 2719              		.loc 1 881 21 is_stmt 1 view .LVU838
 881:C:/Users/leopi/Documents/vs/S-Reo/MazeLibrary\Searching.c ****                     return next_state;
 2720              		.loc 1 881 36 is_stmt 0 view .LVU839
 2721 00a2 D970     		strb	r1, [r3, #3]
 882:C:/Users/leopi/Documents/vs/S-Reo/MazeLibrary\Searching.c ****                 }
 2722              		.loc 1 882 21 is_stmt 1 view .LVU840
ARM GAS  C:\Users\leopi\AppData\Local\Temp\cc19K7kN.s 			page 77


 882:C:/Users/leopi/Documents/vs/S-Reo/MazeLibrary\Searching.c ****                 }
 2723              		.loc 1 882 28 is_stmt 0 view .LVU841
 2724 00a4 D6E7     		b	.L154
 2725              	.LVL237:
 2726              	.L185:
 887:C:/Users/leopi/Documents/vs/S-Reo/MazeLibrary\Searching.c ****                 {
 2727              		.loc 1 887 21 discriminator 1 view .LVU842
 2728 00a6 04F1FF3C 		add	ip, r4, #-1
 2729 00aa AC45     		cmp	ip, r5
 2730 00ac D0D1     		bne	.L164
 889:C:/Users/leopi/Documents/vs/S-Reo/MazeLibrary\Searching.c ****                     next_state->pos.x = now_state->pos.x - 1;
 2731              		.loc 1 889 21 is_stmt 1 view .LVU843
 889:C:/Users/leopi/Documents/vs/S-Reo/MazeLibrary\Searching.c ****                     next_state->pos.x = now_state->pos.x - 1;
 2732              		.loc 1 889 37 is_stmt 0 view .LVU844
 2733 00ae 0622     		movs	r2, #6
 2734 00b0 8270     		strb	r2, [r0, #2]
 890:C:/Users/leopi/Documents/vs/S-Reo/MazeLibrary\Searching.c ****                     next_state->pos.y = now_state->pos.y - 1;
 2735              		.loc 1 890 21 is_stmt 1 view .LVU845
 890:C:/Users/leopi/Documents/vs/S-Reo/MazeLibrary\Searching.c ****                     next_state->pos.y = now_state->pos.y - 1;
 2736              		.loc 1 890 55 is_stmt 0 view .LVU846
 2737 00b2 1A78     		ldrb	r2, [r3]	@ zero_extendqisi2
 890:C:/Users/leopi/Documents/vs/S-Reo/MazeLibrary\Searching.c ****                     next_state->pos.y = now_state->pos.y - 1;
 2738              		.loc 1 890 58 view .LVU847
 2739 00b4 013A     		subs	r2, r2, #1
 890:C:/Users/leopi/Documents/vs/S-Reo/MazeLibrary\Searching.c ****                     next_state->pos.y = now_state->pos.y - 1;
 2740              		.loc 1 890 39 view .LVU848
 2741 00b6 0270     		strb	r2, [r0]
 891:C:/Users/leopi/Documents/vs/S-Reo/MazeLibrary\Searching.c ****                     now_state->dir = backright;
 2742              		.loc 1 891 21 is_stmt 1 view .LVU849
 891:C:/Users/leopi/Documents/vs/S-Reo/MazeLibrary\Searching.c ****                     now_state->dir = backright;
 2743              		.loc 1 891 55 is_stmt 0 view .LVU850
 2744 00b8 5A78     		ldrb	r2, [r3, #1]	@ zero_extendqisi2
 891:C:/Users/leopi/Documents/vs/S-Reo/MazeLibrary\Searching.c ****                     now_state->dir = backright;
 2745              		.loc 1 891 58 view .LVU851
 2746 00ba 013A     		subs	r2, r2, #1
 891:C:/Users/leopi/Documents/vs/S-Reo/MazeLibrary\Searching.c ****                     now_state->dir = backright;
 2747              		.loc 1 891 39 view .LVU852
 2748 00bc 4270     		strb	r2, [r0, #1]
 892:C:/Users/leopi/Documents/vs/S-Reo/MazeLibrary\Searching.c ****                     return next_state;
 2749              		.loc 1 892 21 is_stmt 1 view .LVU853
 892:C:/Users/leopi/Documents/vs/S-Reo/MazeLibrary\Searching.c ****                     return next_state;
 2750              		.loc 1 892 36 is_stmt 0 view .LVU854
 2751 00be 0322     		movs	r2, #3
 2752 00c0 DA70     		strb	r2, [r3, #3]
 893:C:/Users/leopi/Documents/vs/S-Reo/MazeLibrary\Searching.c ****                 }
 2753              		.loc 1 893 21 is_stmt 1 view .LVU855
 893:C:/Users/leopi/Documents/vs/S-Reo/MazeLibrary\Searching.c ****                 }
 2754              		.loc 1 893 28 is_stmt 0 view .LVU856
 2755 00c2 C7E7     		b	.L154
 2756              	.L186:
 897:C:/Users/leopi/Documents/vs/S-Reo/MazeLibrary\Searching.c ****                 {
 2757              		.loc 1 897 21 discriminator 1 view .LVU857
 2758 00c4 013C     		subs	r4, r4, #1
 2759              	.LVL238:
 897:C:/Users/leopi/Documents/vs/S-Reo/MazeLibrary\Searching.c ****                 {
 2760              		.loc 1 897 21 discriminator 1 view .LVU858
 2761 00c6 AC42     		cmp	r4, r5
ARM GAS  C:\Users\leopi\AppData\Local\Temp\cc19K7kN.s 			page 78


 2762 00c8 C4D1     		bne	.L154
 899:C:/Users/leopi/Documents/vs/S-Reo/MazeLibrary\Searching.c ****                     next_state->pos.x = now_state->pos.x + 1;
 2763              		.loc 1 899 21 is_stmt 1 view .LVU859
 899:C:/Users/leopi/Documents/vs/S-Reo/MazeLibrary\Searching.c ****                     next_state->pos.x = now_state->pos.x + 1;
 2764              		.loc 1 899 37 is_stmt 0 view .LVU860
 2765 00ca 0222     		movs	r2, #2
 2766 00cc 8270     		strb	r2, [r0, #2]
 900:C:/Users/leopi/Documents/vs/S-Reo/MazeLibrary\Searching.c ****                     next_state->pos.y = now_state->pos.y - 1;
 2767              		.loc 1 900 21 is_stmt 1 view .LVU861
 900:C:/Users/leopi/Documents/vs/S-Reo/MazeLibrary\Searching.c ****                     next_state->pos.y = now_state->pos.y - 1;
 2768              		.loc 1 900 55 is_stmt 0 view .LVU862
 2769 00ce 1A78     		ldrb	r2, [r3]	@ zero_extendqisi2
 900:C:/Users/leopi/Documents/vs/S-Reo/MazeLibrary\Searching.c ****                     next_state->pos.y = now_state->pos.y - 1;
 2770              		.loc 1 900 58 view .LVU863
 2771 00d0 0132     		adds	r2, r2, #1
 900:C:/Users/leopi/Documents/vs/S-Reo/MazeLibrary\Searching.c ****                     next_state->pos.y = now_state->pos.y - 1;
 2772              		.loc 1 900 39 view .LVU864
 2773 00d2 0270     		strb	r2, [r0]
 901:C:/Users/leopi/Documents/vs/S-Reo/MazeLibrary\Searching.c ****                     now_state->dir = backleft;
 2774              		.loc 1 901 21 is_stmt 1 view .LVU865
 901:C:/Users/leopi/Documents/vs/S-Reo/MazeLibrary\Searching.c ****                     now_state->dir = backleft;
 2775              		.loc 1 901 55 is_stmt 0 view .LVU866
 2776 00d4 5A78     		ldrb	r2, [r3, #1]	@ zero_extendqisi2
 901:C:/Users/leopi/Documents/vs/S-Reo/MazeLibrary\Searching.c ****                     now_state->dir = backleft;
 2777              		.loc 1 901 58 view .LVU867
 2778 00d6 013A     		subs	r2, r2, #1
 901:C:/Users/leopi/Documents/vs/S-Reo/MazeLibrary\Searching.c ****                     now_state->dir = backleft;
 2779              		.loc 1 901 39 view .LVU868
 2780 00d8 4270     		strb	r2, [r0, #1]
 902:C:/Users/leopi/Documents/vs/S-Reo/MazeLibrary\Searching.c ****                     return next_state;
 2781              		.loc 1 902 21 is_stmt 1 view .LVU869
 902:C:/Users/leopi/Documents/vs/S-Reo/MazeLibrary\Searching.c ****                     return next_state;
 2782              		.loc 1 902 36 is_stmt 0 view .LVU870
 2783 00da 0522     		movs	r2, #5
 2784 00dc DA70     		strb	r2, [r3, #3]
 903:C:/Users/leopi/Documents/vs/S-Reo/MazeLibrary\Searching.c ****                 }
 2785              		.loc 1 903 21 is_stmt 1 view .LVU871
 903:C:/Users/leopi/Documents/vs/S-Reo/MazeLibrary\Searching.c ****                 }
 2786              		.loc 1 903 28 is_stmt 0 view .LVU872
 2787 00de B9E7     		b	.L154
 2788              	.LVL239:
 2789              	.L158:
 909:C:/Users/leopi/Documents/vs/S-Reo/MazeLibrary\Searching.c ****             {
 2790              		.loc 1 909 13 is_stmt 1 view .LVU873
 909:C:/Users/leopi/Documents/vs/S-Reo/MazeLibrary\Searching.c ****             {
 2791              		.loc 1 909 25 is_stmt 0 view .LVU874
 2792 00e0 5279     		ldrb	r2, [r2, #5]	@ zero_extendqisi2
 2793              	.LVL240:
 909:C:/Users/leopi/Documents/vs/S-Reo/MazeLibrary\Searching.c ****             {
 2794              		.loc 1 909 15 view .LVU875
 2795 00e2 3AB1     		cbz	r2, .L165
 916:C:/Users/leopi/Documents/vs/S-Reo/MazeLibrary\Searching.c ****                 {
 2796              		.loc 1 916 17 is_stmt 1 view .LVU876
 916:C:/Users/leopi/Documents/vs/S-Reo/MazeLibrary\Searching.c ****                 {
 2797              		.loc 1 916 21 is_stmt 0 view .LVU877
 2798 00e4 0EF1010C 		add	ip, lr, #1
 916:C:/Users/leopi/Documents/vs/S-Reo/MazeLibrary\Searching.c ****                 {
ARM GAS  C:\Users\leopi\AppData\Local\Temp\cc19K7kN.s 			page 79


 2799              		.loc 1 916 19 view .LVU878
 2800 00e8 8C45     		cmp	ip, r1
 2801 00ea 1CD0     		beq	.L187
 2802              	.L166:
 926:C:/Users/leopi/Documents/vs/S-Reo/MazeLibrary\Searching.c ****                 {
 2803              		.loc 1 926 17 is_stmt 1 view .LVU879
 926:C:/Users/leopi/Documents/vs/S-Reo/MazeLibrary\Searching.c ****                 {
 2804              		.loc 1 926 21 is_stmt 0 view .LVU880
 2805 00ec 0EF1FF3C 		add	ip, lr, #-1
 926:C:/Users/leopi/Documents/vs/S-Reo/MazeLibrary\Searching.c ****                 {
 2806              		.loc 1 926 19 view .LVU881
 2807 00f0 6145     		cmp	r1, ip
 2808 00f2 22D0     		beq	.L188
 2809              	.L165:
 937:C:/Users/leopi/Documents/vs/S-Reo/MazeLibrary\Searching.c ****             {
 2810              		.loc 1 937 13 is_stmt 1 view .LVU882
 937:C:/Users/leopi/Documents/vs/S-Reo/MazeLibrary\Searching.c ****             {
 2811              		.loc 1 937 15 is_stmt 0 view .LVU883
 2812 00f4 002A     		cmp	r2, #0
 2813 00f6 ADD1     		bne	.L154
 942:C:/Users/leopi/Documents/vs/S-Reo/MazeLibrary\Searching.c ****                 {
 2814              		.loc 1 942 17 is_stmt 1 view .LVU884
 942:C:/Users/leopi/Documents/vs/S-Reo/MazeLibrary\Searching.c ****                 {
 2815              		.loc 1 942 19 is_stmt 0 view .LVU885
 2816 00f8 8E45     		cmp	lr, r1
 2817 00fa 28D0     		beq	.L189
 2818              	.L167:
 953:C:/Users/leopi/Documents/vs/S-Reo/MazeLibrary\Searching.c ****                 {
 2819              		.loc 1 953 17 is_stmt 1 view .LVU886
 953:C:/Users/leopi/Documents/vs/S-Reo/MazeLibrary\Searching.c ****                 {
 2820              		.loc 1 953 19 is_stmt 0 view .LVU887
 2821 00fc 8E45     		cmp	lr, r1
 2822 00fe 30D0     		beq	.L190
 2823              	.L168:
 962:C:/Users/leopi/Documents/vs/S-Reo/MazeLibrary\Searching.c ****                 {
 2824              		.loc 1 962 17 is_stmt 1 view .LVU888
 962:C:/Users/leopi/Documents/vs/S-Reo/MazeLibrary\Searching.c ****                 {
 2825              		.loc 1 962 21 is_stmt 0 view .LVU889
 2826 0100 0EF1FF3E 		add	lr, lr, #-1
 2827              	.LVL241:
 962:C:/Users/leopi/Documents/vs/S-Reo/MazeLibrary\Searching.c ****                 {
 2828              		.loc 1 962 19 view .LVU890
 2829 0104 8E45     		cmp	lr, r1
 2830 0106 37D0     		beq	.L191
 2831              	.L169:
 973:C:/Users/leopi/Documents/vs/S-Reo/MazeLibrary\Searching.c ****                 {
 2832              		.loc 1 973 17 is_stmt 1 view .LVU891
 973:C:/Users/leopi/Documents/vs/S-Reo/MazeLibrary\Searching.c ****                 {
 2833              		.loc 1 973 19 is_stmt 0 view .LVU892
 2834 0108 8E45     		cmp	lr, r1
 2835 010a A3D1     		bne	.L154
 973:C:/Users/leopi/Documents/vs/S-Reo/MazeLibrary\Searching.c ****                 {
 2836              		.loc 1 973 21 discriminator 1 view .LVU893
 2837 010c AC42     		cmp	r4, r5
 2838 010e A1D1     		bne	.L154
 975:C:/Users/leopi/Documents/vs/S-Reo/MazeLibrary\Searching.c ****                     next_state->pos.x = now_state->pos.x - 1;
 2839              		.loc 1 975 21 is_stmt 1 view .LVU894
ARM GAS  C:\Users\leopi\AppData\Local\Temp\cc19K7kN.s 			page 80


 975:C:/Users/leopi/Documents/vs/S-Reo/MazeLibrary\Searching.c ****                     next_state->pos.x = now_state->pos.x - 1;
 2840              		.loc 1 975 37 is_stmt 0 view .LVU895
 2841 0110 0422     		movs	r2, #4
 2842 0112 8270     		strb	r2, [r0, #2]
 976:C:/Users/leopi/Documents/vs/S-Reo/MazeLibrary\Searching.c ****                     next_state->pos.y = now_state->pos.y - 1;
 2843              		.loc 1 976 21 is_stmt 1 view .LVU896
 976:C:/Users/leopi/Documents/vs/S-Reo/MazeLibrary\Searching.c ****                     next_state->pos.y = now_state->pos.y - 1;
 2844              		.loc 1 976 55 is_stmt 0 view .LVU897
 2845 0114 1A78     		ldrb	r2, [r3]	@ zero_extendqisi2
 976:C:/Users/leopi/Documents/vs/S-Reo/MazeLibrary\Searching.c ****                     next_state->pos.y = now_state->pos.y - 1;
 2846              		.loc 1 976 58 view .LVU898
 2847 0116 013A     		subs	r2, r2, #1
 976:C:/Users/leopi/Documents/vs/S-Reo/MazeLibrary\Searching.c ****                     next_state->pos.y = now_state->pos.y - 1;
 2848              		.loc 1 976 39 view .LVU899
 2849 0118 0270     		strb	r2, [r0]
 977:C:/Users/leopi/Documents/vs/S-Reo/MazeLibrary\Searching.c ****                     now_state->dir = backleft;
 2850              		.loc 1 977 21 is_stmt 1 view .LVU900
 977:C:/Users/leopi/Documents/vs/S-Reo/MazeLibrary\Searching.c ****                     now_state->dir = backleft;
 2851              		.loc 1 977 55 is_stmt 0 view .LVU901
 2852 011a 5A78     		ldrb	r2, [r3, #1]	@ zero_extendqisi2
 977:C:/Users/leopi/Documents/vs/S-Reo/MazeLibrary\Searching.c ****                     now_state->dir = backleft;
 2853              		.loc 1 977 58 view .LVU902
 2854 011c 013A     		subs	r2, r2, #1
 977:C:/Users/leopi/Documents/vs/S-Reo/MazeLibrary\Searching.c ****                     now_state->dir = backleft;
 2855              		.loc 1 977 39 view .LVU903
 2856 011e 4270     		strb	r2, [r0, #1]
 978:C:/Users/leopi/Documents/vs/S-Reo/MazeLibrary\Searching.c ****                     return next_state;
 2857              		.loc 1 978 21 is_stmt 1 view .LVU904
 978:C:/Users/leopi/Documents/vs/S-Reo/MazeLibrary\Searching.c ****                     return next_state;
 2858              		.loc 1 978 36 is_stmt 0 view .LVU905
 2859 0120 0522     		movs	r2, #5
 2860 0122 DA70     		strb	r2, [r3, #3]
 979:C:/Users/leopi/Documents/vs/S-Reo/MazeLibrary\Searching.c ****                 }
 2861              		.loc 1 979 21 is_stmt 1 view .LVU906
 979:C:/Users/leopi/Documents/vs/S-Reo/MazeLibrary\Searching.c ****                 }
 2862              		.loc 1 979 28 is_stmt 0 view .LVU907
 2863 0124 96E7     		b	.L154
 2864              	.LVL242:
 2865              	.L187:
 916:C:/Users/leopi/Documents/vs/S-Reo/MazeLibrary\Searching.c ****                 {
 2866              		.loc 1 916 21 discriminator 1 view .LVU908
 2867 0126 AC42     		cmp	r4, r5
 2868 0128 E0D1     		bne	.L166
 918:C:/Users/leopi/Documents/vs/S-Reo/MazeLibrary\Searching.c ****                     next_state->pos.x = now_state->pos.x + 1;
 2869              		.loc 1 918 21 is_stmt 1 view .LVU909
 918:C:/Users/leopi/Documents/vs/S-Reo/MazeLibrary\Searching.c ****                     next_state->pos.x = now_state->pos.x + 1;
 2870              		.loc 1 918 37 is_stmt 0 view .LVU910
 2871 012a 0222     		movs	r2, #2
 2872 012c 8270     		strb	r2, [r0, #2]
 919:C:/Users/leopi/Documents/vs/S-Reo/MazeLibrary\Searching.c ****                     now_state->dir = front;
 2873              		.loc 1 919 21 is_stmt 1 view .LVU911
 919:C:/Users/leopi/Documents/vs/S-Reo/MazeLibrary\Searching.c ****                     now_state->dir = front;
 2874              		.loc 1 919 55 is_stmt 0 view .LVU912
 2875 012e 1A78     		ldrb	r2, [r3]	@ zero_extendqisi2
 919:C:/Users/leopi/Documents/vs/S-Reo/MazeLibrary\Searching.c ****                     now_state->dir = front;
 2876              		.loc 1 919 58 view .LVU913
 2877 0130 0132     		adds	r2, r2, #1
ARM GAS  C:\Users\leopi\AppData\Local\Temp\cc19K7kN.s 			page 81


 919:C:/Users/leopi/Documents/vs/S-Reo/MazeLibrary\Searching.c ****                     now_state->dir = front;
 2878              		.loc 1 919 39 view .LVU914
 2879 0132 0270     		strb	r2, [r0]
 920:C:/Users/leopi/Documents/vs/S-Reo/MazeLibrary\Searching.c **** //                    ChangeLED(4);
 2880              		.loc 1 920 21 is_stmt 1 view .LVU915
 920:C:/Users/leopi/Documents/vs/S-Reo/MazeLibrary\Searching.c **** //                    ChangeLED(4);
 2881              		.loc 1 920 36 is_stmt 0 view .LVU916
 2882 0134 0022     		movs	r2, #0
 2883 0136 DA70     		strb	r2, [r3, #3]
 922:C:/Users/leopi/Documents/vs/S-Reo/MazeLibrary\Searching.c ****                 }
 2884              		.loc 1 922 21 is_stmt 1 view .LVU917
 922:C:/Users/leopi/Documents/vs/S-Reo/MazeLibrary\Searching.c ****                 }
 2885              		.loc 1 922 28 is_stmt 0 view .LVU918
 2886 0138 8CE7     		b	.L154
 2887              	.L188:
 926:C:/Users/leopi/Documents/vs/S-Reo/MazeLibrary\Searching.c ****                 {
 2888              		.loc 1 926 21 discriminator 1 view .LVU919
 2889 013a AC42     		cmp	r4, r5
 2890 013c DAD1     		bne	.L165
 928:C:/Users/leopi/Documents/vs/S-Reo/MazeLibrary\Searching.c ****                     next_state->pos.x = now_state->pos.x - 2; //次に壁を更新するタイミ
 2891              		.loc 1 928 21 is_stmt 1 view .LVU920
 928:C:/Users/leopi/Documents/vs/S-Reo/MazeLibrary\Searching.c ****                     next_state->pos.x = now_state->pos.x - 2; //次に壁を更新するタイミ
 2892              		.loc 1 928 37 is_stmt 0 view .LVU921
 2893 013e 0622     		movs	r2, #6
 2894 0140 8270     		strb	r2, [r0, #2]
 929:C:/Users/leopi/Documents/vs/S-Reo/MazeLibrary\Searching.c ****                     now_state->dir = back;
 2895              		.loc 1 929 21 is_stmt 1 view .LVU922
 929:C:/Users/leopi/Documents/vs/S-Reo/MazeLibrary\Searching.c ****                     now_state->dir = back;
 2896              		.loc 1 929 55 is_stmt 0 view .LVU923
 2897 0142 1A78     		ldrb	r2, [r3]	@ zero_extendqisi2
 929:C:/Users/leopi/Documents/vs/S-Reo/MazeLibrary\Searching.c ****                     now_state->dir = back;
 2898              		.loc 1 929 58 view .LVU924
 2899 0144 023A     		subs	r2, r2, #2
 929:C:/Users/leopi/Documents/vs/S-Reo/MazeLibrary\Searching.c ****                     now_state->dir = back;
 2900              		.loc 1 929 39 view .LVU925
 2901 0146 0270     		strb	r2, [r0]
 930:C:/Users/leopi/Documents/vs/S-Reo/MazeLibrary\Searching.c ****                     return next_state;
 2902              		.loc 1 930 21 is_stmt 1 view .LVU926
 930:C:/Users/leopi/Documents/vs/S-Reo/MazeLibrary\Searching.c ****                     return next_state;
 2903              		.loc 1 930 36 is_stmt 0 view .LVU927
 2904 0148 0422     		movs	r2, #4
 2905 014a DA70     		strb	r2, [r3, #3]
 931:C:/Users/leopi/Documents/vs/S-Reo/MazeLibrary\Searching.c ****                 }
 2906              		.loc 1 931 21 is_stmt 1 view .LVU928
 931:C:/Users/leopi/Documents/vs/S-Reo/MazeLibrary\Searching.c ****                 }
 2907              		.loc 1 931 28 is_stmt 0 view .LVU929
 2908 014c 82E7     		b	.L154
 2909              	.L189:
 942:C:/Users/leopi/Documents/vs/S-Reo/MazeLibrary\Searching.c ****                 {
 2910              		.loc 1 942 21 discriminator 1 view .LVU930
 2911 014e AC42     		cmp	r4, r5
 2912 0150 D4D1     		bne	.L167
 944:C:/Users/leopi/Documents/vs/S-Reo/MazeLibrary\Searching.c ****                     next_state->pos.y = now_state->pos.y - 1;
 2913              		.loc 1 944 21 is_stmt 1 view .LVU931
 944:C:/Users/leopi/Documents/vs/S-Reo/MazeLibrary\Searching.c ****                     next_state->pos.y = now_state->pos.y - 1;
 2914              		.loc 1 944 37 is_stmt 0 view .LVU932
 2915 0152 0422     		movs	r2, #4
ARM GAS  C:\Users\leopi\AppData\Local\Temp\cc19K7kN.s 			page 82


 2916 0154 8270     		strb	r2, [r0, #2]
 945:C:/Users/leopi/Documents/vs/S-Reo/MazeLibrary\Searching.c ****                     now_state->dir = right;
 2917              		.loc 1 945 21 is_stmt 1 view .LVU933
 945:C:/Users/leopi/Documents/vs/S-Reo/MazeLibrary\Searching.c ****                     now_state->dir = right;
 2918              		.loc 1 945 55 is_stmt 0 view .LVU934
 2919 0156 5A78     		ldrb	r2, [r3, #1]	@ zero_extendqisi2
 945:C:/Users/leopi/Documents/vs/S-Reo/MazeLibrary\Searching.c ****                     now_state->dir = right;
 2920              		.loc 1 945 58 view .LVU935
 2921 0158 013A     		subs	r2, r2, #1
 945:C:/Users/leopi/Documents/vs/S-Reo/MazeLibrary\Searching.c ****                     now_state->dir = right;
 2922              		.loc 1 945 39 view .LVU936
 2923 015a 4270     		strb	r2, [r0, #1]
 946:C:/Users/leopi/Documents/vs/S-Reo/MazeLibrary\Searching.c **** //                    ChangeLED(5);
 2924              		.loc 1 946 21 is_stmt 1 view .LVU937
 946:C:/Users/leopi/Documents/vs/S-Reo/MazeLibrary\Searching.c **** //                    ChangeLED(5);
 2925              		.loc 1 946 36 is_stmt 0 view .LVU938
 2926 015c 0222     		movs	r2, #2
 2927 015e DA70     		strb	r2, [r3, #3]
 948:C:/Users/leopi/Documents/vs/S-Reo/MazeLibrary\Searching.c ****                 }
 2928              		.loc 1 948 21 is_stmt 1 view .LVU939
 948:C:/Users/leopi/Documents/vs/S-Reo/MazeLibrary\Searching.c ****                 }
 2929              		.loc 1 948 28 is_stmt 0 view .LVU940
 2930 0160 78E7     		b	.L154
 2931              	.L190:
 953:C:/Users/leopi/Documents/vs/S-Reo/MazeLibrary\Searching.c ****                 {
 2932              		.loc 1 953 21 discriminator 1 view .LVU941
 2933 0162 621C     		adds	r2, r4, #1
 2934 0164 AA42     		cmp	r2, r5
 2935 0166 CBD1     		bne	.L168
 955:C:/Users/leopi/Documents/vs/S-Reo/MazeLibrary\Searching.c ****                     next_state->pos.y = now_state->pos.y + 1;
 2936              		.loc 1 955 21 is_stmt 1 view .LVU942
 955:C:/Users/leopi/Documents/vs/S-Reo/MazeLibrary\Searching.c ****                     next_state->pos.y = now_state->pos.y + 1;
 2937              		.loc 1 955 37 is_stmt 0 view .LVU943
 2938 0168 0022     		movs	r2, #0
 2939 016a 8270     		strb	r2, [r0, #2]
 956:C:/Users/leopi/Documents/vs/S-Reo/MazeLibrary\Searching.c ****                     now_state->dir = left;
 2940              		.loc 1 956 21 is_stmt 1 view .LVU944
 956:C:/Users/leopi/Documents/vs/S-Reo/MazeLibrary\Searching.c ****                     now_state->dir = left;
 2941              		.loc 1 956 55 is_stmt 0 view .LVU945
 2942 016c 5A78     		ldrb	r2, [r3, #1]	@ zero_extendqisi2
 956:C:/Users/leopi/Documents/vs/S-Reo/MazeLibrary\Searching.c ****                     now_state->dir = left;
 2943              		.loc 1 956 58 view .LVU946
 2944 016e 0132     		adds	r2, r2, #1
 956:C:/Users/leopi/Documents/vs/S-Reo/MazeLibrary\Searching.c ****                     now_state->dir = left;
 2945              		.loc 1 956 39 view .LVU947
 2946 0170 4270     		strb	r2, [r0, #1]
 957:C:/Users/leopi/Documents/vs/S-Reo/MazeLibrary\Searching.c ****                     return next_state;
 2947              		.loc 1 957 21 is_stmt 1 view .LVU948
 957:C:/Users/leopi/Documents/vs/S-Reo/MazeLibrary\Searching.c ****                     return next_state;
 2948              		.loc 1 957 36 is_stmt 0 view .LVU949
 2949 0172 0622     		movs	r2, #6
 2950 0174 DA70     		strb	r2, [r3, #3]
 958:C:/Users/leopi/Documents/vs/S-Reo/MazeLibrary\Searching.c ****                 }
 2951              		.loc 1 958 21 is_stmt 1 view .LVU950
 958:C:/Users/leopi/Documents/vs/S-Reo/MazeLibrary\Searching.c ****                 }
 2952              		.loc 1 958 28 is_stmt 0 view .LVU951
 2953 0176 6DE7     		b	.L154
ARM GAS  C:\Users\leopi\AppData\Local\Temp\cc19K7kN.s 			page 83


 2954              	.LVL243:
 2955              	.L191:
 962:C:/Users/leopi/Documents/vs/S-Reo/MazeLibrary\Searching.c ****                 {
 2956              		.loc 1 962 21 discriminator 1 view .LVU952
 2957 0178 621C     		adds	r2, r4, #1
 2958 017a AA42     		cmp	r2, r5
 2959 017c C4D1     		bne	.L169
 964:C:/Users/leopi/Documents/vs/S-Reo/MazeLibrary\Searching.c ****                     next_state->pos.x = now_state->pos.x - 1;
 2960              		.loc 1 964 21 is_stmt 1 view .LVU953
 964:C:/Users/leopi/Documents/vs/S-Reo/MazeLibrary\Searching.c ****                     next_state->pos.x = now_state->pos.x - 1;
 2961              		.loc 1 964 37 is_stmt 0 view .LVU954
 2962 017e 0022     		movs	r2, #0
 2963 0180 8270     		strb	r2, [r0, #2]
 965:C:/Users/leopi/Documents/vs/S-Reo/MazeLibrary\Searching.c ****                     next_state->pos.y = now_state->pos.y + 1;
 2964              		.loc 1 965 21 is_stmt 1 view .LVU955
 965:C:/Users/leopi/Documents/vs/S-Reo/MazeLibrary\Searching.c ****                     next_state->pos.y = now_state->pos.y + 1;
 2965              		.loc 1 965 55 is_stmt 0 view .LVU956
 2966 0182 1A78     		ldrb	r2, [r3]	@ zero_extendqisi2
 965:C:/Users/leopi/Documents/vs/S-Reo/MazeLibrary\Searching.c ****                     next_state->pos.y = now_state->pos.y + 1;
 2967              		.loc 1 965 58 view .LVU957
 2968 0184 013A     		subs	r2, r2, #1
 965:C:/Users/leopi/Documents/vs/S-Reo/MazeLibrary\Searching.c ****                     next_state->pos.y = now_state->pos.y + 1;
 2969              		.loc 1 965 39 view .LVU958
 2970 0186 0270     		strb	r2, [r0]
 966:C:/Users/leopi/Documents/vs/S-Reo/MazeLibrary\Searching.c ****                     now_state->dir = backright;
 2971              		.loc 1 966 21 is_stmt 1 view .LVU959
 966:C:/Users/leopi/Documents/vs/S-Reo/MazeLibrary\Searching.c ****                     now_state->dir = backright;
 2972              		.loc 1 966 55 is_stmt 0 view .LVU960
 2973 0188 5A78     		ldrb	r2, [r3, #1]	@ zero_extendqisi2
 966:C:/Users/leopi/Documents/vs/S-Reo/MazeLibrary\Searching.c ****                     now_state->dir = backright;
 2974              		.loc 1 966 58 view .LVU961
 2975 018a 0132     		adds	r2, r2, #1
 966:C:/Users/leopi/Documents/vs/S-Reo/MazeLibrary\Searching.c ****                     now_state->dir = backright;
 2976              		.loc 1 966 39 view .LVU962
 2977 018c 4270     		strb	r2, [r0, #1]
 967:C:/Users/leopi/Documents/vs/S-Reo/MazeLibrary\Searching.c ****                     return next_state;
 2978              		.loc 1 967 21 is_stmt 1 view .LVU963
 967:C:/Users/leopi/Documents/vs/S-Reo/MazeLibrary\Searching.c ****                     return next_state;
 2979              		.loc 1 967 36 is_stmt 0 view .LVU964
 2980 018e 0322     		movs	r2, #3
 2981 0190 DA70     		strb	r2, [r3, #3]
 968:C:/Users/leopi/Documents/vs/S-Reo/MazeLibrary\Searching.c ****                 }
 2982              		.loc 1 968 21 is_stmt 1 view .LVU965
 968:C:/Users/leopi/Documents/vs/S-Reo/MazeLibrary\Searching.c ****                 }
 2983              		.loc 1 968 28 is_stmt 0 view .LVU966
 2984 0192 5FE7     		b	.L154
 2985              	.LVL244:
 2986              	.L157:
 984:C:/Users/leopi/Documents/vs/S-Reo/MazeLibrary\Searching.c ****             {
 2987              		.loc 1 984 13 is_stmt 1 view .LVU967
 984:C:/Users/leopi/Documents/vs/S-Reo/MazeLibrary\Searching.c ****             {
 2988              		.loc 1 984 25 is_stmt 0 view .LVU968
 2989 0194 5279     		ldrb	r2, [r2, #5]	@ zero_extendqisi2
 2990              	.LVL245:
 984:C:/Users/leopi/Documents/vs/S-Reo/MazeLibrary\Searching.c ****             {
 2991              		.loc 1 984 15 view .LVU969
 2992 0196 1AB9     		cbnz	r2, .L170
ARM GAS  C:\Users\leopi\AppData\Local\Temp\cc19K7kN.s 			page 84


 991:C:/Users/leopi/Documents/vs/S-Reo/MazeLibrary\Searching.c ****                 {
 2993              		.loc 1 991 17 is_stmt 1 view .LVU970
 991:C:/Users/leopi/Documents/vs/S-Reo/MazeLibrary\Searching.c ****                 {
 2994              		.loc 1 991 19 is_stmt 0 view .LVU971
 2995 0198 8E45     		cmp	lr, r1
 2996 019a 1DD0     		beq	.L192
 2997              	.L171:
 999:C:/Users/leopi/Documents/vs/S-Reo/MazeLibrary\Searching.c ****                 {
 2998              		.loc 1 999 17 is_stmt 1 view .LVU972
 999:C:/Users/leopi/Documents/vs/S-Reo/MazeLibrary\Searching.c ****                 {
 2999              		.loc 1 999 19 is_stmt 0 view .LVU973
 3000 019c 8E45     		cmp	lr, r1
 3001 019e 27D0     		beq	.L193
 3002              	.L170:
1009:C:/Users/leopi/Documents/vs/S-Reo/MazeLibrary\Searching.c ****             {
 3003              		.loc 1 1009 13 is_stmt 1 view .LVU974
1009:C:/Users/leopi/Documents/vs/S-Reo/MazeLibrary\Searching.c ****             {
 3004              		.loc 1 1009 15 is_stmt 0 view .LVU975
 3005 01a0 002A     		cmp	r2, #0
 3006 01a2 3FF457AF 		beq	.L154
1014:C:/Users/leopi/Documents/vs/S-Reo/MazeLibrary\Searching.c ****                 {
 3007              		.loc 1 1014 17 is_stmt 1 view .LVU976
1014:C:/Users/leopi/Documents/vs/S-Reo/MazeLibrary\Searching.c ****                 {
 3008              		.loc 1 1014 19 is_stmt 0 view .LVU977
 3009 01a6 8E45     		cmp	lr, r1
 3010 01a8 2ED0     		beq	.L194
 3011              	.L172:
1025:C:/Users/leopi/Documents/vs/S-Reo/MazeLibrary\Searching.c ****                 {
 3012              		.loc 1 1025 17 is_stmt 1 view .LVU978
1025:C:/Users/leopi/Documents/vs/S-Reo/MazeLibrary\Searching.c ****                 {
 3013              		.loc 1 1025 21 is_stmt 0 view .LVU979
 3014 01aa 0EF10102 		add	r2, lr, #1
1025:C:/Users/leopi/Documents/vs/S-Reo/MazeLibrary\Searching.c ****                 {
 3015              		.loc 1 1025 19 view .LVU980
 3016 01ae 8A42     		cmp	r2, r1
 3017 01b0 35D0     		beq	.L195
 3018              	.L173:
1035:C:/Users/leopi/Documents/vs/S-Reo/MazeLibrary\Searching.c ****                 {
 3019              		.loc 1 1035 17 is_stmt 1 view .LVU981
1035:C:/Users/leopi/Documents/vs/S-Reo/MazeLibrary\Searching.c ****                 {
 3020              		.loc 1 1035 19 is_stmt 0 view .LVU982
 3021 01b2 8A42     		cmp	r2, r1
 3022 01b4 3FD0     		beq	.L196
 3023              	.L174:
1045:C:/Users/leopi/Documents/vs/S-Reo/MazeLibrary\Searching.c ****                 {
 3024              		.loc 1 1045 17 is_stmt 1 view .LVU983
1045:C:/Users/leopi/Documents/vs/S-Reo/MazeLibrary\Searching.c ****                 {
 3025              		.loc 1 1045 19 is_stmt 0 view .LVU984
 3026 01b6 8E45     		cmp	lr, r1
 3027 01b8 7FF44CAF 		bne	.L154
1045:C:/Users/leopi/Documents/vs/S-Reo/MazeLibrary\Searching.c ****                 {
 3028              		.loc 1 1045 21 discriminator 1 view .LVU985
 3029 01bc AC42     		cmp	r4, r5
 3030 01be 7FF449AF 		bne	.L154
1047:C:/Users/leopi/Documents/vs/S-Reo/MazeLibrary\Searching.c ****                     next_state->pos.x = now_state->pos.x - 1;
 3031              		.loc 1 1047 21 is_stmt 1 view .LVU986
1047:C:/Users/leopi/Documents/vs/S-Reo/MazeLibrary\Searching.c ****                     next_state->pos.x = now_state->pos.x - 1;
ARM GAS  C:\Users\leopi\AppData\Local\Temp\cc19K7kN.s 			page 85


 3032              		.loc 1 1047 37 is_stmt 0 view .LVU987
 3033 01c2 0622     		movs	r2, #6
 3034 01c4 8270     		strb	r2, [r0, #2]
1048:C:/Users/leopi/Documents/vs/S-Reo/MazeLibrary\Searching.c ****                     next_state->pos.y = now_state->pos.y + 1;
 3035              		.loc 1 1048 21 is_stmt 1 view .LVU988
1048:C:/Users/leopi/Documents/vs/S-Reo/MazeLibrary\Searching.c ****                     next_state->pos.y = now_state->pos.y + 1;
 3036              		.loc 1 1048 55 is_stmt 0 view .LVU989
 3037 01c6 1A78     		ldrb	r2, [r3]	@ zero_extendqisi2
1048:C:/Users/leopi/Documents/vs/S-Reo/MazeLibrary\Searching.c ****                     next_state->pos.y = now_state->pos.y + 1;
 3038              		.loc 1 1048 58 view .LVU990
 3039 01c8 013A     		subs	r2, r2, #1
1048:C:/Users/leopi/Documents/vs/S-Reo/MazeLibrary\Searching.c ****                     next_state->pos.y = now_state->pos.y + 1;
 3040              		.loc 1 1048 39 view .LVU991
 3041 01ca 0270     		strb	r2, [r0]
1049:C:/Users/leopi/Documents/vs/S-Reo/MazeLibrary\Searching.c ****                     now_state->dir = backleft;
 3042              		.loc 1 1049 21 is_stmt 1 view .LVU992
1049:C:/Users/leopi/Documents/vs/S-Reo/MazeLibrary\Searching.c ****                     now_state->dir = backleft;
 3043              		.loc 1 1049 55 is_stmt 0 view .LVU993
 3044 01cc 5A78     		ldrb	r2, [r3, #1]	@ zero_extendqisi2
1049:C:/Users/leopi/Documents/vs/S-Reo/MazeLibrary\Searching.c ****                     now_state->dir = backleft;
 3045              		.loc 1 1049 58 view .LVU994
 3046 01ce 0132     		adds	r2, r2, #1
1049:C:/Users/leopi/Documents/vs/S-Reo/MazeLibrary\Searching.c ****                     now_state->dir = backleft;
 3047              		.loc 1 1049 39 view .LVU995
 3048 01d0 4270     		strb	r2, [r0, #1]
1050:C:/Users/leopi/Documents/vs/S-Reo/MazeLibrary\Searching.c ****                     return next_state;
 3049              		.loc 1 1050 21 is_stmt 1 view .LVU996
1050:C:/Users/leopi/Documents/vs/S-Reo/MazeLibrary\Searching.c ****                     return next_state;
 3050              		.loc 1 1050 36 is_stmt 0 view .LVU997
 3051 01d2 0522     		movs	r2, #5
 3052 01d4 DA70     		strb	r2, [r3, #3]
1051:C:/Users/leopi/Documents/vs/S-Reo/MazeLibrary\Searching.c ****                 }
 3053              		.loc 1 1051 21 is_stmt 1 view .LVU998
1051:C:/Users/leopi/Documents/vs/S-Reo/MazeLibrary\Searching.c ****                 }
 3054              		.loc 1 1051 28 is_stmt 0 view .LVU999
 3055 01d6 3DE7     		b	.L154
 3056              	.L192:
 991:C:/Users/leopi/Documents/vs/S-Reo/MazeLibrary\Searching.c ****                 {
 3057              		.loc 1 991 21 discriminator 1 view .LVU1000
 3058 01d8 04F1FF3C 		add	ip, r4, #-1
 3059 01dc AC45     		cmp	ip, r5
 3060 01de DDD1     		bne	.L171
 993:C:/Users/leopi/Documents/vs/S-Reo/MazeLibrary\Searching.c ****                     next_state->pos.y = now_state->pos.y - 1; //次に壁を更新するタイミ
 3061              		.loc 1 993 21 is_stmt 1 view .LVU1001
 993:C:/Users/leopi/Documents/vs/S-Reo/MazeLibrary\Searching.c ****                     next_state->pos.y = now_state->pos.y - 1; //次に壁を更新するタイミ
 3062              		.loc 1 993 37 is_stmt 0 view .LVU1002
 3063 01e0 0422     		movs	r2, #4
 3064 01e2 8270     		strb	r2, [r0, #2]
 994:C:/Users/leopi/Documents/vs/S-Reo/MazeLibrary\Searching.c ****                     now_state->dir = front;
 3065              		.loc 1 994 21 is_stmt 1 view .LVU1003
 994:C:/Users/leopi/Documents/vs/S-Reo/MazeLibrary\Searching.c ****                     now_state->dir = front;
 3066              		.loc 1 994 55 is_stmt 0 view .LVU1004
 3067 01e4 5A78     		ldrb	r2, [r3, #1]	@ zero_extendqisi2
 994:C:/Users/leopi/Documents/vs/S-Reo/MazeLibrary\Searching.c ****                     now_state->dir = front;
 3068              		.loc 1 994 58 view .LVU1005
 3069 01e6 013A     		subs	r2, r2, #1
 994:C:/Users/leopi/Documents/vs/S-Reo/MazeLibrary\Searching.c ****                     now_state->dir = front;
ARM GAS  C:\Users\leopi\AppData\Local\Temp\cc19K7kN.s 			page 86


 3070              		.loc 1 994 39 view .LVU1006
 3071 01e8 4270     		strb	r2, [r0, #1]
 995:C:/Users/leopi/Documents/vs/S-Reo/MazeLibrary\Searching.c ****                     return next_state;
 3072              		.loc 1 995 21 is_stmt 1 view .LVU1007
 995:C:/Users/leopi/Documents/vs/S-Reo/MazeLibrary\Searching.c ****                     return next_state;
 3073              		.loc 1 995 36 is_stmt 0 view .LVU1008
 3074 01ea 0022     		movs	r2, #0
 3075 01ec DA70     		strb	r2, [r3, #3]
 996:C:/Users/leopi/Documents/vs/S-Reo/MazeLibrary\Searching.c ****                 }
 3076              		.loc 1 996 21 is_stmt 1 view .LVU1009
 996:C:/Users/leopi/Documents/vs/S-Reo/MazeLibrary\Searching.c ****                 }
 3077              		.loc 1 996 28 is_stmt 0 view .LVU1010
 3078 01ee 31E7     		b	.L154
 3079              	.L193:
 999:C:/Users/leopi/Documents/vs/S-Reo/MazeLibrary\Searching.c ****                 {
 3080              		.loc 1 999 21 discriminator 1 view .LVU1011
 3081 01f0 04F1010C 		add	ip, r4, #1
 3082 01f4 AC45     		cmp	ip, r5
 3083 01f6 D3D1     		bne	.L170
1001:C:/Users/leopi/Documents/vs/S-Reo/MazeLibrary\Searching.c ****                     next_state->pos.y = now_state->pos.y + 2;
 3084              		.loc 1 1001 21 is_stmt 1 view .LVU1012
1001:C:/Users/leopi/Documents/vs/S-Reo/MazeLibrary\Searching.c ****                     next_state->pos.y = now_state->pos.y + 2;
 3085              		.loc 1 1001 37 is_stmt 0 view .LVU1013
 3086 01f8 0022     		movs	r2, #0
 3087 01fa 8270     		strb	r2, [r0, #2]
1002:C:/Users/leopi/Documents/vs/S-Reo/MazeLibrary\Searching.c ****                     now_state->dir = back;
 3088              		.loc 1 1002 21 is_stmt 1 view .LVU1014
1002:C:/Users/leopi/Documents/vs/S-Reo/MazeLibrary\Searching.c ****                     now_state->dir = back;
 3089              		.loc 1 1002 55 is_stmt 0 view .LVU1015
 3090 01fc 5A78     		ldrb	r2, [r3, #1]	@ zero_extendqisi2
1002:C:/Users/leopi/Documents/vs/S-Reo/MazeLibrary\Searching.c ****                     now_state->dir = back;
 3091              		.loc 1 1002 58 view .LVU1016
 3092 01fe 0232     		adds	r2, r2, #2
1002:C:/Users/leopi/Documents/vs/S-Reo/MazeLibrary\Searching.c ****                     now_state->dir = back;
 3093              		.loc 1 1002 39 view .LVU1017
 3094 0200 4270     		strb	r2, [r0, #1]
1003:C:/Users/leopi/Documents/vs/S-Reo/MazeLibrary\Searching.c ****                     return next_state;
 3095              		.loc 1 1003 21 is_stmt 1 view .LVU1018
1003:C:/Users/leopi/Documents/vs/S-Reo/MazeLibrary\Searching.c ****                     return next_state;
 3096              		.loc 1 1003 36 is_stmt 0 view .LVU1019
 3097 0202 0422     		movs	r2, #4
 3098 0204 DA70     		strb	r2, [r3, #3]
1004:C:/Users/leopi/Documents/vs/S-Reo/MazeLibrary\Searching.c ****                 }
 3099              		.loc 1 1004 21 is_stmt 1 view .LVU1020
1004:C:/Users/leopi/Documents/vs/S-Reo/MazeLibrary\Searching.c ****                 }
 3100              		.loc 1 1004 28 is_stmt 0 view .LVU1021
 3101 0206 25E7     		b	.L154
 3102              	.L194:
1014:C:/Users/leopi/Documents/vs/S-Reo/MazeLibrary\Searching.c ****                 {
 3103              		.loc 1 1014 21 discriminator 1 view .LVU1022
 3104 0208 621E     		subs	r2, r4, #1
 3105 020a AA42     		cmp	r2, r5
 3106 020c CDD1     		bne	.L172
1016:C:/Users/leopi/Documents/vs/S-Reo/MazeLibrary\Searching.c ****                     next_state->pos.x = now_state->pos.x - 1;
 3107              		.loc 1 1016 21 is_stmt 1 view .LVU1023
1016:C:/Users/leopi/Documents/vs/S-Reo/MazeLibrary\Searching.c ****                     next_state->pos.x = now_state->pos.x - 1;
 3108              		.loc 1 1016 37 is_stmt 0 view .LVU1024
ARM GAS  C:\Users\leopi\AppData\Local\Temp\cc19K7kN.s 			page 87


 3109 020e 0622     		movs	r2, #6
 3110 0210 8270     		strb	r2, [r0, #2]
1017:C:/Users/leopi/Documents/vs/S-Reo/MazeLibrary\Searching.c ****                     now_state->dir = right;
 3111              		.loc 1 1017 21 is_stmt 1 view .LVU1025
1017:C:/Users/leopi/Documents/vs/S-Reo/MazeLibrary\Searching.c ****                     now_state->dir = right;
 3112              		.loc 1 1017 55 is_stmt 0 view .LVU1026
 3113 0212 1A78     		ldrb	r2, [r3]	@ zero_extendqisi2
1017:C:/Users/leopi/Documents/vs/S-Reo/MazeLibrary\Searching.c ****                     now_state->dir = right;
 3114              		.loc 1 1017 58 view .LVU1027
 3115 0214 013A     		subs	r2, r2, #1
1017:C:/Users/leopi/Documents/vs/S-Reo/MazeLibrary\Searching.c ****                     now_state->dir = right;
 3116              		.loc 1 1017 39 view .LVU1028
 3117 0216 0270     		strb	r2, [r0]
1018:C:/Users/leopi/Documents/vs/S-Reo/MazeLibrary\Searching.c **** //                    ChangeLED(4);
 3118              		.loc 1 1018 21 is_stmt 1 view .LVU1029
1018:C:/Users/leopi/Documents/vs/S-Reo/MazeLibrary\Searching.c **** //                    ChangeLED(4);
 3119              		.loc 1 1018 36 is_stmt 0 view .LVU1030
 3120 0218 0222     		movs	r2, #2
 3121 021a DA70     		strb	r2, [r3, #3]
1021:C:/Users/leopi/Documents/vs/S-Reo/MazeLibrary\Searching.c ****                 }
 3122              		.loc 1 1021 21 is_stmt 1 view .LVU1031
1021:C:/Users/leopi/Documents/vs/S-Reo/MazeLibrary\Searching.c ****                 }
 3123              		.loc 1 1021 28 is_stmt 0 view .LVU1032
 3124 021c 1AE7     		b	.L154
 3125              	.L195:
1025:C:/Users/leopi/Documents/vs/S-Reo/MazeLibrary\Searching.c ****                 {
 3126              		.loc 1 1025 21 discriminator 1 view .LVU1033
 3127 021e 04F1FF3C 		add	ip, r4, #-1
 3128 0222 AC45     		cmp	ip, r5
 3129 0224 C5D1     		bne	.L173
1027:C:/Users/leopi/Documents/vs/S-Reo/MazeLibrary\Searching.c ****                     next_state->pos.x = now_state->pos.x + 1;
 3130              		.loc 1 1027 21 is_stmt 1 view .LVU1034
1027:C:/Users/leopi/Documents/vs/S-Reo/MazeLibrary\Searching.c ****                     next_state->pos.x = now_state->pos.x + 1;
 3131              		.loc 1 1027 37 is_stmt 0 view .LVU1035
 3132 0226 0222     		movs	r2, #2
 3133 0228 8270     		strb	r2, [r0, #2]
1028:C:/Users/leopi/Documents/vs/S-Reo/MazeLibrary\Searching.c ****                     now_state->dir = left;
 3134              		.loc 1 1028 21 is_stmt 1 view .LVU1036
1028:C:/Users/leopi/Documents/vs/S-Reo/MazeLibrary\Searching.c ****                     now_state->dir = left;
 3135              		.loc 1 1028 55 is_stmt 0 view .LVU1037
 3136 022a 1A78     		ldrb	r2, [r3]	@ zero_extendqisi2
1028:C:/Users/leopi/Documents/vs/S-Reo/MazeLibrary\Searching.c ****                     now_state->dir = left;
 3137              		.loc 1 1028 58 view .LVU1038
 3138 022c 0132     		adds	r2, r2, #1
1028:C:/Users/leopi/Documents/vs/S-Reo/MazeLibrary\Searching.c ****                     now_state->dir = left;
 3139              		.loc 1 1028 39 view .LVU1039
 3140 022e 0270     		strb	r2, [r0]
1029:C:/Users/leopi/Documents/vs/S-Reo/MazeLibrary\Searching.c ****                     return next_state;
 3141              		.loc 1 1029 21 is_stmt 1 view .LVU1040
1029:C:/Users/leopi/Documents/vs/S-Reo/MazeLibrary\Searching.c ****                     return next_state;
 3142              		.loc 1 1029 36 is_stmt 0 view .LVU1041
 3143 0230 0622     		movs	r2, #6
 3144 0232 DA70     		strb	r2, [r3, #3]
1030:C:/Users/leopi/Documents/vs/S-Reo/MazeLibrary\Searching.c ****                 }
 3145              		.loc 1 1030 21 is_stmt 1 view .LVU1042
1030:C:/Users/leopi/Documents/vs/S-Reo/MazeLibrary\Searching.c ****                 }
 3146              		.loc 1 1030 28 is_stmt 0 view .LVU1043
ARM GAS  C:\Users\leopi\AppData\Local\Temp\cc19K7kN.s 			page 88


 3147 0234 0EE7     		b	.L154
 3148              	.L196:
1035:C:/Users/leopi/Documents/vs/S-Reo/MazeLibrary\Searching.c ****                 {
 3149              		.loc 1 1035 21 discriminator 1 view .LVU1044
 3150 0236 AC42     		cmp	r4, r5
 3151 0238 BDD1     		bne	.L174
1037:C:/Users/leopi/Documents/vs/S-Reo/MazeLibrary\Searching.c ****                     next_state->pos.x = now_state->pos.x + 1;
 3152              		.loc 1 1037 21 is_stmt 1 view .LVU1045
1037:C:/Users/leopi/Documents/vs/S-Reo/MazeLibrary\Searching.c ****                     next_state->pos.x = now_state->pos.x + 1;
 3153              		.loc 1 1037 37 is_stmt 0 view .LVU1046
 3154 023a 0222     		movs	r2, #2
 3155 023c 8270     		strb	r2, [r0, #2]
1038:C:/Users/leopi/Documents/vs/S-Reo/MazeLibrary\Searching.c ****                     next_state->pos.y = now_state->pos.y + 1;
 3156              		.loc 1 1038 21 is_stmt 1 view .LVU1047
1038:C:/Users/leopi/Documents/vs/S-Reo/MazeLibrary\Searching.c ****                     next_state->pos.y = now_state->pos.y + 1;
 3157              		.loc 1 1038 55 is_stmt 0 view .LVU1048
 3158 023e 1A78     		ldrb	r2, [r3]	@ zero_extendqisi2
1038:C:/Users/leopi/Documents/vs/S-Reo/MazeLibrary\Searching.c ****                     next_state->pos.y = now_state->pos.y + 1;
 3159              		.loc 1 1038 58 view .LVU1049
 3160 0240 0132     		adds	r2, r2, #1
1038:C:/Users/leopi/Documents/vs/S-Reo/MazeLibrary\Searching.c ****                     next_state->pos.y = now_state->pos.y + 1;
 3161              		.loc 1 1038 39 view .LVU1050
 3162 0242 0270     		strb	r2, [r0]
1039:C:/Users/leopi/Documents/vs/S-Reo/MazeLibrary\Searching.c ****                     now_state->dir = backright;
 3163              		.loc 1 1039 21 is_stmt 1 view .LVU1051
1039:C:/Users/leopi/Documents/vs/S-Reo/MazeLibrary\Searching.c ****                     now_state->dir = backright;
 3164              		.loc 1 1039 55 is_stmt 0 view .LVU1052
 3165 0244 5A78     		ldrb	r2, [r3, #1]	@ zero_extendqisi2
1039:C:/Users/leopi/Documents/vs/S-Reo/MazeLibrary\Searching.c ****                     now_state->dir = backright;
 3166              		.loc 1 1039 58 view .LVU1053
 3167 0246 0132     		adds	r2, r2, #1
1039:C:/Users/leopi/Documents/vs/S-Reo/MazeLibrary\Searching.c ****                     now_state->dir = backright;
 3168              		.loc 1 1039 39 view .LVU1054
 3169 0248 4270     		strb	r2, [r0, #1]
1040:C:/Users/leopi/Documents/vs/S-Reo/MazeLibrary\Searching.c ****                     return next_state;
 3170              		.loc 1 1040 21 is_stmt 1 view .LVU1055
1040:C:/Users/leopi/Documents/vs/S-Reo/MazeLibrary\Searching.c ****                     return next_state;
 3171              		.loc 1 1040 36 is_stmt 0 view .LVU1056
 3172 024a 0322     		movs	r2, #3
 3173 024c DA70     		strb	r2, [r3, #3]
1041:C:/Users/leopi/Documents/vs/S-Reo/MazeLibrary\Searching.c ****                 }
 3174              		.loc 1 1041 21 is_stmt 1 view .LVU1057
1041:C:/Users/leopi/Documents/vs/S-Reo/MazeLibrary\Searching.c ****                 }
 3175              		.loc 1 1041 28 is_stmt 0 view .LVU1058
 3176 024e 01E7     		b	.L154
 3177              	.LVL246:
 3178              	.L155:
1056:C:/Users/leopi/Documents/vs/S-Reo/MazeLibrary\Searching.c ****             {
 3179              		.loc 1 1056 13 is_stmt 1 view .LVU1059
1056:C:/Users/leopi/Documents/vs/S-Reo/MazeLibrary\Searching.c ****             {
 3180              		.loc 1 1056 25 is_stmt 0 view .LVU1060
 3181 0250 5279     		ldrb	r2, [r2, #5]	@ zero_extendqisi2
 3182              	.LVL247:
1056:C:/Users/leopi/Documents/vs/S-Reo/MazeLibrary\Searching.c ****             {
 3183              		.loc 1 1056 15 view .LVU1061
 3184 0252 3AB1     		cbz	r2, .L175
1063:C:/Users/leopi/Documents/vs/S-Reo/MazeLibrary\Searching.c ****                 {
ARM GAS  C:\Users\leopi\AppData\Local\Temp\cc19K7kN.s 			page 89


 3185              		.loc 1 1063 17 is_stmt 1 view .LVU1062
1063:C:/Users/leopi/Documents/vs/S-Reo/MazeLibrary\Searching.c ****                 {
 3186              		.loc 1 1063 21 is_stmt 0 view .LVU1063
 3187 0254 0EF1FF3C 		add	ip, lr, #-1
1063:C:/Users/leopi/Documents/vs/S-Reo/MazeLibrary\Searching.c ****                 {
 3188              		.loc 1 1063 19 view .LVU1064
 3189 0258 8C45     		cmp	ip, r1
 3190 025a 20D0     		beq	.L197
 3191              	.L176:
1072:C:/Users/leopi/Documents/vs/S-Reo/MazeLibrary\Searching.c ****                 {
 3192              		.loc 1 1072 17 is_stmt 1 view .LVU1065
1072:C:/Users/leopi/Documents/vs/S-Reo/MazeLibrary\Searching.c ****                 {
 3193              		.loc 1 1072 21 is_stmt 0 view .LVU1066
 3194 025c 0EF1010C 		add	ip, lr, #1
1072:C:/Users/leopi/Documents/vs/S-Reo/MazeLibrary\Searching.c ****                 {
 3195              		.loc 1 1072 19 view .LVU1067
 3196 0260 6145     		cmp	r1, ip
 3197 0262 26D0     		beq	.L198
 3198              	.L175:
1083:C:/Users/leopi/Documents/vs/S-Reo/MazeLibrary\Searching.c ****             {
 3199              		.loc 1 1083 13 is_stmt 1 view .LVU1068
1083:C:/Users/leopi/Documents/vs/S-Reo/MazeLibrary\Searching.c ****             {
 3200              		.loc 1 1083 15 is_stmt 0 view .LVU1069
 3201 0264 002A     		cmp	r2, #0
 3202 0266 7FF4F5AE 		bne	.L154
1088:C:/Users/leopi/Documents/vs/S-Reo/MazeLibrary\Searching.c ****                 {
 3203              		.loc 1 1088 17 is_stmt 1 view .LVU1070
1088:C:/Users/leopi/Documents/vs/S-Reo/MazeLibrary\Searching.c ****                 {
 3204              		.loc 1 1088 21 is_stmt 0 view .LVU1071
 3205 026a 0EF1FF32 		add	r2, lr, #-1
1088:C:/Users/leopi/Documents/vs/S-Reo/MazeLibrary\Searching.c ****                 {
 3206              		.loc 1 1088 19 view .LVU1072
 3207 026e 8A42     		cmp	r2, r1
 3208 0270 29D0     		beq	.L199
 3209              	.L177:
1099:C:/Users/leopi/Documents/vs/S-Reo/MazeLibrary\Searching.c ****                 {
 3210              		.loc 1 1099 17 is_stmt 1 view .LVU1073
1099:C:/Users/leopi/Documents/vs/S-Reo/MazeLibrary\Searching.c ****                 {
 3211              		.loc 1 1099 19 is_stmt 0 view .LVU1074
 3212 0272 8A42     		cmp	r2, r1
 3213 0274 33D0     		beq	.L200
 3214              	.L178:
1109:C:/Users/leopi/Documents/vs/S-Reo/MazeLibrary\Searching.c ****                 {
 3215              		.loc 1 1109 17 is_stmt 1 view .LVU1075
1109:C:/Users/leopi/Documents/vs/S-Reo/MazeLibrary\Searching.c ****                 {
 3216              		.loc 1 1109 19 is_stmt 0 view .LVU1076
 3217 0276 8E45     		cmp	lr, r1
 3218 0278 3BD0     		beq	.L201
 3219              	.L179:
1119:C:/Users/leopi/Documents/vs/S-Reo/MazeLibrary\Searching.c ****                 {
 3220              		.loc 1 1119 17 is_stmt 1 view .LVU1077
1119:C:/Users/leopi/Documents/vs/S-Reo/MazeLibrary\Searching.c ****                 {
 3221              		.loc 1 1119 19 is_stmt 0 view .LVU1078
 3222 027a 8E45     		cmp	lr, r1
 3223 027c 7FF4EAAE 		bne	.L154
1119:C:/Users/leopi/Documents/vs/S-Reo/MazeLibrary\Searching.c ****                 {
 3224              		.loc 1 1119 21 discriminator 1 view .LVU1079
ARM GAS  C:\Users\leopi\AppData\Local\Temp\cc19K7kN.s 			page 90


 3225 0280 0134     		adds	r4, r4, #1
 3226              	.LVL248:
1119:C:/Users/leopi/Documents/vs/S-Reo/MazeLibrary\Searching.c ****                 {
 3227              		.loc 1 1119 21 discriminator 1 view .LVU1080
 3228 0282 AC42     		cmp	r4, r5
 3229 0284 7FF4E6AE 		bne	.L154
1121:C:/Users/leopi/Documents/vs/S-Reo/MazeLibrary\Searching.c ****                     next_state->pos.x = now_state->pos.x + 1;
 3230              		.loc 1 1121 21 is_stmt 1 view .LVU1081
1121:C:/Users/leopi/Documents/vs/S-Reo/MazeLibrary\Searching.c ****                     next_state->pos.x = now_state->pos.x + 1;
 3231              		.loc 1 1121 37 is_stmt 0 view .LVU1082
 3232 0288 0022     		movs	r2, #0
 3233 028a 8270     		strb	r2, [r0, #2]
1122:C:/Users/leopi/Documents/vs/S-Reo/MazeLibrary\Searching.c ****                     next_state->pos.y = now_state->pos.y + 1;
 3234              		.loc 1 1122 21 is_stmt 1 view .LVU1083
1122:C:/Users/leopi/Documents/vs/S-Reo/MazeLibrary\Searching.c ****                     next_state->pos.y = now_state->pos.y + 1;
 3235              		.loc 1 1122 55 is_stmt 0 view .LVU1084
 3236 028c 1A78     		ldrb	r2, [r3]	@ zero_extendqisi2
1122:C:/Users/leopi/Documents/vs/S-Reo/MazeLibrary\Searching.c ****                     next_state->pos.y = now_state->pos.y + 1;
 3237              		.loc 1 1122 58 view .LVU1085
 3238 028e 0132     		adds	r2, r2, #1
1122:C:/Users/leopi/Documents/vs/S-Reo/MazeLibrary\Searching.c ****                     next_state->pos.y = now_state->pos.y + 1;
 3239              		.loc 1 1122 39 view .LVU1086
 3240 0290 0270     		strb	r2, [r0]
1123:C:/Users/leopi/Documents/vs/S-Reo/MazeLibrary\Searching.c ****                     now_state->dir = backleft;
 3241              		.loc 1 1123 21 is_stmt 1 view .LVU1087
1123:C:/Users/leopi/Documents/vs/S-Reo/MazeLibrary\Searching.c ****                     now_state->dir = backleft;
 3242              		.loc 1 1123 55 is_stmt 0 view .LVU1088
 3243 0292 5A78     		ldrb	r2, [r3, #1]	@ zero_extendqisi2
1123:C:/Users/leopi/Documents/vs/S-Reo/MazeLibrary\Searching.c ****                     now_state->dir = backleft;
 3244              		.loc 1 1123 58 view .LVU1089
 3245 0294 0132     		adds	r2, r2, #1
1123:C:/Users/leopi/Documents/vs/S-Reo/MazeLibrary\Searching.c ****                     now_state->dir = backleft;
 3246              		.loc 1 1123 39 view .LVU1090
 3247 0296 4270     		strb	r2, [r0, #1]
1124:C:/Users/leopi/Documents/vs/S-Reo/MazeLibrary\Searching.c ****                     return next_state;
 3248              		.loc 1 1124 21 is_stmt 1 view .LVU1091
1124:C:/Users/leopi/Documents/vs/S-Reo/MazeLibrary\Searching.c ****                     return next_state;
 3249              		.loc 1 1124 36 is_stmt 0 view .LVU1092
 3250 0298 0522     		movs	r2, #5
 3251 029a DA70     		strb	r2, [r3, #3]
1125:C:/Users/leopi/Documents/vs/S-Reo/MazeLibrary\Searching.c ****                 }
 3252              		.loc 1 1125 21 is_stmt 1 view .LVU1093
1125:C:/Users/leopi/Documents/vs/S-Reo/MazeLibrary\Searching.c ****                 }
 3253              		.loc 1 1125 28 is_stmt 0 view .LVU1094
 3254 029c DAE6     		b	.L154
 3255              	.LVL249:
 3256              	.L197:
1063:C:/Users/leopi/Documents/vs/S-Reo/MazeLibrary\Searching.c ****                 {
 3257              		.loc 1 1063 21 discriminator 1 view .LVU1095
 3258 029e AC42     		cmp	r4, r5
 3259 02a0 DCD1     		bne	.L176
1065:C:/Users/leopi/Documents/vs/S-Reo/MazeLibrary\Searching.c ****                     next_state->pos.x = now_state->pos.x - 1; //次に壁を更新するタイミ
 3260              		.loc 1 1065 21 is_stmt 1 view .LVU1096
1065:C:/Users/leopi/Documents/vs/S-Reo/MazeLibrary\Searching.c ****                     next_state->pos.x = now_state->pos.x - 1; //次に壁を更新するタイミ
 3261              		.loc 1 1065 37 is_stmt 0 view .LVU1097
 3262 02a2 0622     		movs	r2, #6
 3263 02a4 8270     		strb	r2, [r0, #2]
ARM GAS  C:\Users\leopi\AppData\Local\Temp\cc19K7kN.s 			page 91


1066:C:/Users/leopi/Documents/vs/S-Reo/MazeLibrary\Searching.c ****                     now_state->dir = front;
 3264              		.loc 1 1066 21 is_stmt 1 view .LVU1098
1066:C:/Users/leopi/Documents/vs/S-Reo/MazeLibrary\Searching.c ****                     now_state->dir = front;
 3265              		.loc 1 1066 55 is_stmt 0 view .LVU1099
 3266 02a6 1A78     		ldrb	r2, [r3]	@ zero_extendqisi2
1066:C:/Users/leopi/Documents/vs/S-Reo/MazeLibrary\Searching.c ****                     now_state->dir = front;
 3267              		.loc 1 1066 58 view .LVU1100
 3268 02a8 013A     		subs	r2, r2, #1
1066:C:/Users/leopi/Documents/vs/S-Reo/MazeLibrary\Searching.c ****                     now_state->dir = front;
 3269              		.loc 1 1066 39 view .LVU1101
 3270 02aa 0270     		strb	r2, [r0]
1067:C:/Users/leopi/Documents/vs/S-Reo/MazeLibrary\Searching.c ****                     return next_state;
 3271              		.loc 1 1067 21 is_stmt 1 view .LVU1102
1067:C:/Users/leopi/Documents/vs/S-Reo/MazeLibrary\Searching.c ****                     return next_state;
 3272              		.loc 1 1067 36 is_stmt 0 view .LVU1103
 3273 02ac 0022     		movs	r2, #0
 3274 02ae DA70     		strb	r2, [r3, #3]
1068:C:/Users/leopi/Documents/vs/S-Reo/MazeLibrary\Searching.c ****                 }
 3275              		.loc 1 1068 21 is_stmt 1 view .LVU1104
1068:C:/Users/leopi/Documents/vs/S-Reo/MazeLibrary\Searching.c ****                 }
 3276              		.loc 1 1068 28 is_stmt 0 view .LVU1105
 3277 02b0 D0E6     		b	.L154
 3278              	.L198:
1072:C:/Users/leopi/Documents/vs/S-Reo/MazeLibrary\Searching.c ****                 {
 3279              		.loc 1 1072 21 discriminator 1 view .LVU1106
 3280 02b2 AC42     		cmp	r4, r5
 3281 02b4 D6D1     		bne	.L175
1074:C:/Users/leopi/Documents/vs/S-Reo/MazeLibrary\Searching.c ****                     next_state->pos.x = now_state->pos.x + 2;
 3282              		.loc 1 1074 21 is_stmt 1 view .LVU1107
1074:C:/Users/leopi/Documents/vs/S-Reo/MazeLibrary\Searching.c ****                     next_state->pos.x = now_state->pos.x + 2;
 3283              		.loc 1 1074 37 is_stmt 0 view .LVU1108
 3284 02b6 0222     		movs	r2, #2
 3285 02b8 8270     		strb	r2, [r0, #2]
1075:C:/Users/leopi/Documents/vs/S-Reo/MazeLibrary\Searching.c ****                     now_state->dir = back;
 3286              		.loc 1 1075 21 is_stmt 1 view .LVU1109
1075:C:/Users/leopi/Documents/vs/S-Reo/MazeLibrary\Searching.c ****                     now_state->dir = back;
 3287              		.loc 1 1075 55 is_stmt 0 view .LVU1110
 3288 02ba 1A78     		ldrb	r2, [r3]	@ zero_extendqisi2
1075:C:/Users/leopi/Documents/vs/S-Reo/MazeLibrary\Searching.c ****                     now_state->dir = back;
 3289              		.loc 1 1075 58 view .LVU1111
 3290 02bc 0232     		adds	r2, r2, #2
1075:C:/Users/leopi/Documents/vs/S-Reo/MazeLibrary\Searching.c ****                     now_state->dir = back;
 3291              		.loc 1 1075 39 view .LVU1112
 3292 02be 0270     		strb	r2, [r0]
1076:C:/Users/leopi/Documents/vs/S-Reo/MazeLibrary\Searching.c ****                     return next_state;
 3293              		.loc 1 1076 21 is_stmt 1 view .LVU1113
1076:C:/Users/leopi/Documents/vs/S-Reo/MazeLibrary\Searching.c ****                     return next_state;
 3294              		.loc 1 1076 36 is_stmt 0 view .LVU1114
 3295 02c0 0422     		movs	r2, #4
 3296 02c2 DA70     		strb	r2, [r3, #3]
1077:C:/Users/leopi/Documents/vs/S-Reo/MazeLibrary\Searching.c ****                 }
 3297              		.loc 1 1077 21 is_stmt 1 view .LVU1115
1077:C:/Users/leopi/Documents/vs/S-Reo/MazeLibrary\Searching.c ****                 }
 3298              		.loc 1 1077 28 is_stmt 0 view .LVU1116
 3299 02c4 C6E6     		b	.L154
 3300              	.L199:
1088:C:/Users/leopi/Documents/vs/S-Reo/MazeLibrary\Searching.c ****                 {
ARM GAS  C:\Users\leopi\AppData\Local\Temp\cc19K7kN.s 			page 92


 3301              		.loc 1 1088 21 discriminator 1 view .LVU1117
 3302 02c6 04F1010C 		add	ip, r4, #1
 3303 02ca AC45     		cmp	ip, r5
 3304 02cc D1D1     		bne	.L177
1090:C:/Users/leopi/Documents/vs/S-Reo/MazeLibrary\Searching.c ****                     next_state->pos.y = now_state->pos.y + 1;
 3305              		.loc 1 1090 21 is_stmt 1 view .LVU1118
1090:C:/Users/leopi/Documents/vs/S-Reo/MazeLibrary\Searching.c ****                     next_state->pos.y = now_state->pos.y + 1;
 3306              		.loc 1 1090 37 is_stmt 0 view .LVU1119
 3307 02ce 0022     		movs	r2, #0
 3308 02d0 8270     		strb	r2, [r0, #2]
1091:C:/Users/leopi/Documents/vs/S-Reo/MazeLibrary\Searching.c ****                     now_state->dir = right;
 3309              		.loc 1 1091 21 is_stmt 1 view .LVU1120
1091:C:/Users/leopi/Documents/vs/S-Reo/MazeLibrary\Searching.c ****                     now_state->dir = right;
 3310              		.loc 1 1091 55 is_stmt 0 view .LVU1121
 3311 02d2 5A78     		ldrb	r2, [r3, #1]	@ zero_extendqisi2
1091:C:/Users/leopi/Documents/vs/S-Reo/MazeLibrary\Searching.c ****                     now_state->dir = right;
 3312              		.loc 1 1091 58 view .LVU1122
 3313 02d4 0132     		adds	r2, r2, #1
1091:C:/Users/leopi/Documents/vs/S-Reo/MazeLibrary\Searching.c ****                     now_state->dir = right;
 3314              		.loc 1 1091 39 view .LVU1123
 3315 02d6 4270     		strb	r2, [r0, #1]
1092:C:/Users/leopi/Documents/vs/S-Reo/MazeLibrary\Searching.c **** //                    ChangeLED(3);
 3316              		.loc 1 1092 21 is_stmt 1 view .LVU1124
1092:C:/Users/leopi/Documents/vs/S-Reo/MazeLibrary\Searching.c **** //                    ChangeLED(3);
 3317              		.loc 1 1092 36 is_stmt 0 view .LVU1125
 3318 02d8 0222     		movs	r2, #2
 3319 02da DA70     		strb	r2, [r3, #3]
1094:C:/Users/leopi/Documents/vs/S-Reo/MazeLibrary\Searching.c ****                 }
 3320              		.loc 1 1094 21 is_stmt 1 view .LVU1126
1094:C:/Users/leopi/Documents/vs/S-Reo/MazeLibrary\Searching.c ****                 }
 3321              		.loc 1 1094 28 is_stmt 0 view .LVU1127
 3322 02dc BAE6     		b	.L154
 3323              	.L200:
1099:C:/Users/leopi/Documents/vs/S-Reo/MazeLibrary\Searching.c ****                 {
 3324              		.loc 1 1099 21 discriminator 1 view .LVU1128
 3325 02de AC42     		cmp	r4, r5
 3326 02e0 C9D1     		bne	.L178
1101:C:/Users/leopi/Documents/vs/S-Reo/MazeLibrary\Searching.c ****                     next_state->pos.y = now_state->pos.y - 1;
 3327              		.loc 1 1101 21 is_stmt 1 view .LVU1129
1101:C:/Users/leopi/Documents/vs/S-Reo/MazeLibrary\Searching.c ****                     next_state->pos.y = now_state->pos.y - 1;
 3328              		.loc 1 1101 37 is_stmt 0 view .LVU1130
 3329 02e2 0422     		movs	r2, #4
 3330 02e4 8270     		strb	r2, [r0, #2]
1102:C:/Users/leopi/Documents/vs/S-Reo/MazeLibrary\Searching.c ****                     now_state->dir = left;
 3331              		.loc 1 1102 21 is_stmt 1 view .LVU1131
1102:C:/Users/leopi/Documents/vs/S-Reo/MazeLibrary\Searching.c ****                     now_state->dir = left;
 3332              		.loc 1 1102 55 is_stmt 0 view .LVU1132
 3333 02e6 5A78     		ldrb	r2, [r3, #1]	@ zero_extendqisi2
1102:C:/Users/leopi/Documents/vs/S-Reo/MazeLibrary\Searching.c ****                     now_state->dir = left;
 3334              		.loc 1 1102 58 view .LVU1133
 3335 02e8 013A     		subs	r2, r2, #1
1102:C:/Users/leopi/Documents/vs/S-Reo/MazeLibrary\Searching.c ****                     now_state->dir = left;
 3336              		.loc 1 1102 39 view .LVU1134
 3337 02ea 4270     		strb	r2, [r0, #1]
1103:C:/Users/leopi/Documents/vs/S-Reo/MazeLibrary\Searching.c ****                     return next_state;
 3338              		.loc 1 1103 21 is_stmt 1 view .LVU1135
1103:C:/Users/leopi/Documents/vs/S-Reo/MazeLibrary\Searching.c ****                     return next_state;
ARM GAS  C:\Users\leopi\AppData\Local\Temp\cc19K7kN.s 			page 93


 3339              		.loc 1 1103 36 is_stmt 0 view .LVU1136
 3340 02ec 0622     		movs	r2, #6
 3341 02ee DA70     		strb	r2, [r3, #3]
1104:C:/Users/leopi/Documents/vs/S-Reo/MazeLibrary\Searching.c ****                 }
 3342              		.loc 1 1104 21 is_stmt 1 view .LVU1137
1104:C:/Users/leopi/Documents/vs/S-Reo/MazeLibrary\Searching.c ****                 }
 3343              		.loc 1 1104 28 is_stmt 0 view .LVU1138
 3344 02f0 B0E6     		b	.L154
 3345              	.L201:
1109:C:/Users/leopi/Documents/vs/S-Reo/MazeLibrary\Searching.c ****                 {
 3346              		.loc 1 1109 21 discriminator 1 view .LVU1139
 3347 02f2 AC42     		cmp	r4, r5
 3348 02f4 C1D1     		bne	.L179
1111:C:/Users/leopi/Documents/vs/S-Reo/MazeLibrary\Searching.c ****                     next_state->pos.x = now_state->pos.x + 1;
 3349              		.loc 1 1111 21 is_stmt 1 view .LVU1140
1111:C:/Users/leopi/Documents/vs/S-Reo/MazeLibrary\Searching.c ****                     next_state->pos.x = now_state->pos.x + 1;
 3350              		.loc 1 1111 37 is_stmt 0 view .LVU1141
 3351 02f6 0422     		movs	r2, #4
 3352 02f8 8270     		strb	r2, [r0, #2]
1112:C:/Users/leopi/Documents/vs/S-Reo/MazeLibrary\Searching.c ****                     next_state->pos.y = now_state->pos.y - 1;
 3353              		.loc 1 1112 21 is_stmt 1 view .LVU1142
1112:C:/Users/leopi/Documents/vs/S-Reo/MazeLibrary\Searching.c ****                     next_state->pos.y = now_state->pos.y - 1;
 3354              		.loc 1 1112 55 is_stmt 0 view .LVU1143
 3355 02fa 1A78     		ldrb	r2, [r3]	@ zero_extendqisi2
1112:C:/Users/leopi/Documents/vs/S-Reo/MazeLibrary\Searching.c ****                     next_state->pos.y = now_state->pos.y - 1;
 3356              		.loc 1 1112 58 view .LVU1144
 3357 02fc 0132     		adds	r2, r2, #1
1112:C:/Users/leopi/Documents/vs/S-Reo/MazeLibrary\Searching.c ****                     next_state->pos.y = now_state->pos.y - 1;
 3358              		.loc 1 1112 39 view .LVU1145
 3359 02fe 0270     		strb	r2, [r0]
1113:C:/Users/leopi/Documents/vs/S-Reo/MazeLibrary\Searching.c ****                     now_state->dir = backright;
 3360              		.loc 1 1113 21 is_stmt 1 view .LVU1146
1113:C:/Users/leopi/Documents/vs/S-Reo/MazeLibrary\Searching.c ****                     now_state->dir = backright;
 3361              		.loc 1 1113 55 is_stmt 0 view .LVU1147
 3362 0300 5A78     		ldrb	r2, [r3, #1]	@ zero_extendqisi2
1113:C:/Users/leopi/Documents/vs/S-Reo/MazeLibrary\Searching.c ****                     now_state->dir = backright;
 3363              		.loc 1 1113 58 view .LVU1148
 3364 0302 013A     		subs	r2, r2, #1
1113:C:/Users/leopi/Documents/vs/S-Reo/MazeLibrary\Searching.c ****                     now_state->dir = backright;
 3365              		.loc 1 1113 39 view .LVU1149
 3366 0304 4270     		strb	r2, [r0, #1]
1114:C:/Users/leopi/Documents/vs/S-Reo/MazeLibrary\Searching.c ****                     return next_state;
 3367              		.loc 1 1114 21 is_stmt 1 view .LVU1150
1114:C:/Users/leopi/Documents/vs/S-Reo/MazeLibrary\Searching.c ****                     return next_state;
 3368              		.loc 1 1114 36 is_stmt 0 view .LVU1151
 3369 0306 0322     		movs	r2, #3
 3370 0308 DA70     		strb	r2, [r3, #3]
1115:C:/Users/leopi/Documents/vs/S-Reo/MazeLibrary\Searching.c ****                 }
 3371              		.loc 1 1115 21 is_stmt 1 view .LVU1152
1115:C:/Users/leopi/Documents/vs/S-Reo/MazeLibrary\Searching.c ****                 }
 3372              		.loc 1 1115 28 is_stmt 0 view .LVU1153
 3373 030a A3E6     		b	.L154
 3374              		.cfi_endproc
 3375              	.LFE21:
 3377              		.section	.text.getNextDirection,"ax",%progbits
 3378              		.align	1
 3379              		.global	getNextDirection
ARM GAS  C:\Users\leopi\AppData\Local\Temp\cc19K7kN.s 			page 94


 3380              		.syntax unified
 3381              		.thumb
 3382              		.thumb_func
 3384              	getNextDirection:
 3385              	.LVL250:
 3386              	.LFB17:
 223:C:/Users/leopi/Documents/vs/S-Reo/MazeLibrary\Searching.c **** 	Mouse->next.node = getNextNode(maze, Mouse->now.car, Mouse->now.node, mask); // 次のノードを
 3387              		.loc 1 223 1 is_stmt 1 view -0
 3388              		.cfi_startproc
 3389              		@ args = 0, pretend = 0, frame = 0
 3390              		@ frame_needed = 0, uses_anonymous_args = 0
 223:C:/Users/leopi/Documents/vs/S-Reo/MazeLibrary\Searching.c **** 	Mouse->next.node = getNextNode(maze, Mouse->now.car, Mouse->now.node, mask); // 次のノードを
 3391              		.loc 1 223 1 is_stmt 0 view .LVU1155
 3392 0000 10B5     		push	{r4, lr}
 3393              	.LCFI23:
 3394              		.cfi_def_cfa_offset 8
 3395              		.cfi_offset 4, -8
 3396              		.cfi_offset 14, -4
 3397 0002 0C46     		mov	r4, r1
 224:C:/Users/leopi/Documents/vs/S-Reo/MazeLibrary\Searching.c **** 	
 3398              		.loc 1 224 2 is_stmt 1 view .LVU1156
 224:C:/Users/leopi/Documents/vs/S-Reo/MazeLibrary\Searching.c **** 	
 3399              		.loc 1 224 21 is_stmt 0 view .LVU1157
 3400 0004 CA68     		ldr	r2, [r1, #12]
 3401              	.LVL251:
 224:C:/Users/leopi/Documents/vs/S-Reo/MazeLibrary\Searching.c **** 	
 3402              		.loc 1 224 21 view .LVU1158
 3403 0006 8979     		ldrb	r1, [r1, #6]	@ zero_extendqisi2
 3404              	.LVL252:
 224:C:/Users/leopi/Documents/vs/S-Reo/MazeLibrary\Searching.c **** 	
 3405              		.loc 1 224 21 view .LVU1159
 3406 0008 FFF7FEFF 		bl	getNextNode
 3407              	.LVL253:
 224:C:/Users/leopi/Documents/vs/S-Reo/MazeLibrary\Searching.c **** 	
 3408              		.loc 1 224 21 view .LVU1160
 3409 000c 0246     		mov	r2, r0
 224:C:/Users/leopi/Documents/vs/S-Reo/MazeLibrary\Searching.c **** 	
 3410              		.loc 1 224 19 view .LVU1161
 3411 000e A061     		str	r0, [r4, #24]
 226:C:/Users/leopi/Documents/vs/S-Reo/MazeLibrary\Searching.c **** }
 3412              		.loc 1 226 2 is_stmt 1 view .LVU1162
 3413 0010 04F11001 		add	r1, r4, #16
 3414 0014 201D     		adds	r0, r4, #4
 3415 0016 FFF7FEFF 		bl	getNextState
 3416              	.LVL254:
 227:C:/Users/leopi/Documents/vs/S-Reo/MazeLibrary\Searching.c **** 
 3417              		.loc 1 227 1 is_stmt 0 view .LVU1163
 3418 001a 10BD     		pop	{r4, pc}
 227:C:/Users/leopi/Documents/vs/S-Reo/MazeLibrary\Searching.c **** 
 3419              		.loc 1 227 1 view .LVU1164
 3420              		.cfi_endproc
 3421              	.LFE17:
 3423              		.section	.text.getWallNow,"ax",%progbits
 3424              		.align	1
 3425              		.global	getWallNow
 3426              		.syntax unified
 3427              		.thumb
ARM GAS  C:\Users\leopi\AppData\Local\Temp\cc19K7kN.s 			page 95


 3428              		.thumb_func
 3430              	getWallNow:
 3431              	.LVL255:
 3432              	.LFB22:
1138:C:/Users/leopi/Documents/vs/S-Reo/MazeLibrary\Searching.c **** 
1139:C:/Users/leopi/Documents/vs/S-Reo/MazeLibrary\Searching.c **** //引数のwall_stが前右左
1140:C:/Users/leopi/Documents/vs/S-Reo/MazeLibrary\Searching.c **** _Bool getWallNow(state *st, wall_state *wall_st)//wall_existence *wall[4])(
1141:C:/Users/leopi/Documents/vs/S-Reo/MazeLibrary\Searching.c **** {
 3433              		.loc 1 1141 1 is_stmt 1 view -0
 3434              		.cfi_startproc
 3435              		@ args = 0, pretend = 0, frame = 0
 3436              		@ frame_needed = 0, uses_anonymous_args = 0
 3437              		@ link register save eliminated.
1142:C:/Users/leopi/Documents/vs/S-Reo/MazeLibrary\Searching.c ****     switch (st->car)
 3438              		.loc 1 1142 5 view .LVU1166
 3439              		.loc 1 1142 15 is_stmt 0 view .LVU1167
 3440 0000 8378     		ldrb	r3, [r0, #2]	@ zero_extendqisi2
 3441              		.loc 1 1142 5 view .LVU1168
 3442 0002 062B     		cmp	r3, #6
 3443 0004 5DD8     		bhi	.L211
 3444 0006 DFE803F0 		tbb	[pc, r3]
 3445              	.L207:
 3446 000a 04       		.byte	(.L210-.L207)/2
 3447 000b 5C       		.byte	(.L211-.L207)/2
 3448 000c 1A       		.byte	(.L209-.L207)/2
 3449 000d 5C       		.byte	(.L211-.L207)/2
 3450 000e 30       		.byte	(.L208-.L207)/2
 3451 000f 5C       		.byte	(.L211-.L207)/2
 3452 0010 46       		.byte	(.L206-.L207)/2
 3453 0011 00       		.p2align 1
 3454              	.L210:
1143:C:/Users/leopi/Documents/vs/S-Reo/MazeLibrary\Searching.c ****     {
1144:C:/Users/leopi/Documents/vs/S-Reo/MazeLibrary\Searching.c ****     case north:
1145:C:/Users/leopi/Documents/vs/S-Reo/MazeLibrary\Searching.c ****         st->wall.north = wall_st[0];    //北
 3455              		.loc 1 1145 9 is_stmt 1 view .LVU1169
 3456              		.loc 1 1145 33 is_stmt 0 view .LVU1170
 3457 0012 0A78     		ldrb	r2, [r1]	@ zero_extendqisi2
 3458              		.loc 1 1145 24 view .LVU1171
 3459 0014 0379     		ldrb	r3, [r0, #4]	@ zero_extendqisi2
 3460 0016 62F30103 		bfi	r3, r2, #0, #2
 3461 001a 0371     		strb	r3, [r0, #4]
1146:C:/Users/leopi/Documents/vs/S-Reo/MazeLibrary\Searching.c ****         st->wall.east = wall_st[1];     //東
 3462              		.loc 1 1146 9 is_stmt 1 view .LVU1172
 3463              		.loc 1 1146 32 is_stmt 0 view .LVU1173
 3464 001c 4A78     		ldrb	r2, [r1, #1]	@ zero_extendqisi2
 3465              		.loc 1 1146 23 view .LVU1174
 3466 001e DBB2     		uxtb	r3, r3
 3467 0020 62F38303 		bfi	r3, r2, #2, #2
 3468 0024 0371     		strb	r3, [r0, #4]
1147:C:/Users/leopi/Documents/vs/S-Reo/MazeLibrary\Searching.c ****         st->wall.south = wall_st[2];    //南
 3469              		.loc 1 1147 9 is_stmt 1 view .LVU1175
 3470              		.loc 1 1147 33 is_stmt 0 view .LVU1176
 3471 0026 8A78     		ldrb	r2, [r1, #2]	@ zero_extendqisi2
 3472              		.loc 1 1147 24 view .LVU1177
 3473 0028 DBB2     		uxtb	r3, r3
 3474 002a 62F30513 		bfi	r3, r2, #4, #2
 3475 002e 0371     		strb	r3, [r0, #4]
ARM GAS  C:\Users\leopi\AppData\Local\Temp\cc19K7kN.s 			page 96


1148:C:/Users/leopi/Documents/vs/S-Reo/MazeLibrary\Searching.c ****         st->wall.west = wall_st[3];     //西
 3476              		.loc 1 1148 9 is_stmt 1 view .LVU1178
 3477              		.loc 1 1148 32 is_stmt 0 view .LVU1179
 3478 0030 CA78     		ldrb	r2, [r1, #3]	@ zero_extendqisi2
 3479              		.loc 1 1148 23 view .LVU1180
 3480 0032 DBB2     		uxtb	r3, r3
 3481 0034 62F38713 		bfi	r3, r2, #6, #2
 3482 0038 0371     		strb	r3, [r0, #4]
1149:C:/Users/leopi/Documents/vs/S-Reo/MazeLibrary\Searching.c ****         break;
 3483              		.loc 1 1149 9 is_stmt 1 view .LVU1181
1150:C:/Users/leopi/Documents/vs/S-Reo/MazeLibrary\Searching.c ****     case east:
1151:C:/Users/leopi/Documents/vs/S-Reo/MazeLibrary\Searching.c ****         st->wall.north = wall_st[3];    //北
1152:C:/Users/leopi/Documents/vs/S-Reo/MazeLibrary\Searching.c ****         st->wall.east = wall_st[0];     //東
1153:C:/Users/leopi/Documents/vs/S-Reo/MazeLibrary\Searching.c ****         st->wall.south = wall_st[1];    //南
1154:C:/Users/leopi/Documents/vs/S-Reo/MazeLibrary\Searching.c ****         st->wall.west = wall_st[2];     //西
1155:C:/Users/leopi/Documents/vs/S-Reo/MazeLibrary\Searching.c ****         break;
1156:C:/Users/leopi/Documents/vs/S-Reo/MazeLibrary\Searching.c ****     case south:
1157:C:/Users/leopi/Documents/vs/S-Reo/MazeLibrary\Searching.c ****         st->wall.north = wall_st[2];    //北
1158:C:/Users/leopi/Documents/vs/S-Reo/MazeLibrary\Searching.c ****         st->wall.east = wall_st[3];     //東
1159:C:/Users/leopi/Documents/vs/S-Reo/MazeLibrary\Searching.c ****         st->wall.south = wall_st[0];    //南
1160:C:/Users/leopi/Documents/vs/S-Reo/MazeLibrary\Searching.c ****         st->wall.west = wall_st[1];     //西
1161:C:/Users/leopi/Documents/vs/S-Reo/MazeLibrary\Searching.c ****         break;
1162:C:/Users/leopi/Documents/vs/S-Reo/MazeLibrary\Searching.c ****     case west:
1163:C:/Users/leopi/Documents/vs/S-Reo/MazeLibrary\Searching.c ****         st->wall.north = wall_st[1];    //北
1164:C:/Users/leopi/Documents/vs/S-Reo/MazeLibrary\Searching.c ****         st->wall.east = wall_st[2];     //東
1165:C:/Users/leopi/Documents/vs/S-Reo/MazeLibrary\Searching.c ****         st->wall.south = wall_st[3];    //南
1166:C:/Users/leopi/Documents/vs/S-Reo/MazeLibrary\Searching.c ****         st->wall.west = wall_st[0];     //西
1167:C:/Users/leopi/Documents/vs/S-Reo/MazeLibrary\Searching.c ****         break;
1168:C:/Users/leopi/Documents/vs/S-Reo/MazeLibrary\Searching.c ****     default:
1169:C:/Users/leopi/Documents/vs/S-Reo/MazeLibrary\Searching.c ****         //万が一斜めの方角を向いているときに呼び出してしまったら、
1170:C:/Users/leopi/Documents/vs/S-Reo/MazeLibrary\Searching.c ****         return false;
1171:C:/Users/leopi/Documents/vs/S-Reo/MazeLibrary\Searching.c ****         break;
1172:C:/Users/leopi/Documents/vs/S-Reo/MazeLibrary\Searching.c ****     }
1173:C:/Users/leopi/Documents/vs/S-Reo/MazeLibrary\Searching.c ****     return true;
 3484              		.loc 1 1173 12 is_stmt 0 view .LVU1182
 3485 003a 0120     		movs	r0, #1
 3486              	.LVL256:
1149:C:/Users/leopi/Documents/vs/S-Reo/MazeLibrary\Searching.c ****         break;
 3487              		.loc 1 1149 9 view .LVU1183
 3488 003c 7047     		bx	lr
 3489              	.LVL257:
 3490              	.L209:
1151:C:/Users/leopi/Documents/vs/S-Reo/MazeLibrary\Searching.c ****         st->wall.east = wall_st[0];     //東
 3491              		.loc 1 1151 9 is_stmt 1 view .LVU1184
1151:C:/Users/leopi/Documents/vs/S-Reo/MazeLibrary\Searching.c ****         st->wall.east = wall_st[0];     //東
 3492              		.loc 1 1151 33 is_stmt 0 view .LVU1185
 3493 003e CA78     		ldrb	r2, [r1, #3]	@ zero_extendqisi2
1151:C:/Users/leopi/Documents/vs/S-Reo/MazeLibrary\Searching.c ****         st->wall.east = wall_st[0];     //東
 3494              		.loc 1 1151 24 view .LVU1186
 3495 0040 0379     		ldrb	r3, [r0, #4]	@ zero_extendqisi2
 3496 0042 62F30103 		bfi	r3, r2, #0, #2
 3497 0046 0371     		strb	r3, [r0, #4]
1152:C:/Users/leopi/Documents/vs/S-Reo/MazeLibrary\Searching.c ****         st->wall.south = wall_st[1];    //南
 3498              		.loc 1 1152 9 is_stmt 1 view .LVU1187
1152:C:/Users/leopi/Documents/vs/S-Reo/MazeLibrary\Searching.c ****         st->wall.south = wall_st[1];    //南
 3499              		.loc 1 1152 32 is_stmt 0 view .LVU1188
 3500 0048 0A78     		ldrb	r2, [r1]	@ zero_extendqisi2
ARM GAS  C:\Users\leopi\AppData\Local\Temp\cc19K7kN.s 			page 97


1152:C:/Users/leopi/Documents/vs/S-Reo/MazeLibrary\Searching.c ****         st->wall.south = wall_st[1];    //南
 3501              		.loc 1 1152 23 view .LVU1189
 3502 004a DBB2     		uxtb	r3, r3
 3503 004c 62F38303 		bfi	r3, r2, #2, #2
 3504 0050 0371     		strb	r3, [r0, #4]
1153:C:/Users/leopi/Documents/vs/S-Reo/MazeLibrary\Searching.c ****         st->wall.west = wall_st[2];     //西
 3505              		.loc 1 1153 9 is_stmt 1 view .LVU1190
1153:C:/Users/leopi/Documents/vs/S-Reo/MazeLibrary\Searching.c ****         st->wall.west = wall_st[2];     //西
 3506              		.loc 1 1153 33 is_stmt 0 view .LVU1191
 3507 0052 4A78     		ldrb	r2, [r1, #1]	@ zero_extendqisi2
1153:C:/Users/leopi/Documents/vs/S-Reo/MazeLibrary\Searching.c ****         st->wall.west = wall_st[2];     //西
 3508              		.loc 1 1153 24 view .LVU1192
 3509 0054 DBB2     		uxtb	r3, r3
 3510 0056 62F30513 		bfi	r3, r2, #4, #2
 3511 005a 0371     		strb	r3, [r0, #4]
1154:C:/Users/leopi/Documents/vs/S-Reo/MazeLibrary\Searching.c ****         break;
 3512              		.loc 1 1154 9 is_stmt 1 view .LVU1193
1154:C:/Users/leopi/Documents/vs/S-Reo/MazeLibrary\Searching.c ****         break;
 3513              		.loc 1 1154 32 is_stmt 0 view .LVU1194
 3514 005c 8A78     		ldrb	r2, [r1, #2]	@ zero_extendqisi2
1154:C:/Users/leopi/Documents/vs/S-Reo/MazeLibrary\Searching.c ****         break;
 3515              		.loc 1 1154 23 view .LVU1195
 3516 005e DBB2     		uxtb	r3, r3
 3517 0060 62F38713 		bfi	r3, r2, #6, #2
 3518 0064 0371     		strb	r3, [r0, #4]
1155:C:/Users/leopi/Documents/vs/S-Reo/MazeLibrary\Searching.c ****     case south:
 3519              		.loc 1 1155 9 is_stmt 1 view .LVU1196
 3520              		.loc 1 1173 12 is_stmt 0 view .LVU1197
 3521 0066 0120     		movs	r0, #1
 3522              	.LVL258:
1155:C:/Users/leopi/Documents/vs/S-Reo/MazeLibrary\Searching.c ****     case south:
 3523              		.loc 1 1155 9 view .LVU1198
 3524 0068 7047     		bx	lr
 3525              	.LVL259:
 3526              	.L208:
1157:C:/Users/leopi/Documents/vs/S-Reo/MazeLibrary\Searching.c ****         st->wall.east = wall_st[3];     //東
 3527              		.loc 1 1157 9 is_stmt 1 view .LVU1199
1157:C:/Users/leopi/Documents/vs/S-Reo/MazeLibrary\Searching.c ****         st->wall.east = wall_st[3];     //東
 3528              		.loc 1 1157 33 is_stmt 0 view .LVU1200
 3529 006a 8A78     		ldrb	r2, [r1, #2]	@ zero_extendqisi2
1157:C:/Users/leopi/Documents/vs/S-Reo/MazeLibrary\Searching.c ****         st->wall.east = wall_st[3];     //東
 3530              		.loc 1 1157 24 view .LVU1201
 3531 006c 0379     		ldrb	r3, [r0, #4]	@ zero_extendqisi2
 3532 006e 62F30103 		bfi	r3, r2, #0, #2
 3533 0072 0371     		strb	r3, [r0, #4]
1158:C:/Users/leopi/Documents/vs/S-Reo/MazeLibrary\Searching.c ****         st->wall.south = wall_st[0];    //南
 3534              		.loc 1 1158 9 is_stmt 1 view .LVU1202
1158:C:/Users/leopi/Documents/vs/S-Reo/MazeLibrary\Searching.c ****         st->wall.south = wall_st[0];    //南
 3535              		.loc 1 1158 32 is_stmt 0 view .LVU1203
 3536 0074 CA78     		ldrb	r2, [r1, #3]	@ zero_extendqisi2
1158:C:/Users/leopi/Documents/vs/S-Reo/MazeLibrary\Searching.c ****         st->wall.south = wall_st[0];    //南
 3537              		.loc 1 1158 23 view .LVU1204
 3538 0076 DBB2     		uxtb	r3, r3
 3539 0078 62F38303 		bfi	r3, r2, #2, #2
 3540 007c 0371     		strb	r3, [r0, #4]
1159:C:/Users/leopi/Documents/vs/S-Reo/MazeLibrary\Searching.c ****         st->wall.west = wall_st[1];     //西
 3541              		.loc 1 1159 9 is_stmt 1 view .LVU1205
ARM GAS  C:\Users\leopi\AppData\Local\Temp\cc19K7kN.s 			page 98


1159:C:/Users/leopi/Documents/vs/S-Reo/MazeLibrary\Searching.c ****         st->wall.west = wall_st[1];     //西
 3542              		.loc 1 1159 33 is_stmt 0 view .LVU1206
 3543 007e 0A78     		ldrb	r2, [r1]	@ zero_extendqisi2
1159:C:/Users/leopi/Documents/vs/S-Reo/MazeLibrary\Searching.c ****         st->wall.west = wall_st[1];     //西
 3544              		.loc 1 1159 24 view .LVU1207
 3545 0080 DBB2     		uxtb	r3, r3
 3546 0082 62F30513 		bfi	r3, r2, #4, #2
 3547 0086 0371     		strb	r3, [r0, #4]
1160:C:/Users/leopi/Documents/vs/S-Reo/MazeLibrary\Searching.c ****         break;
 3548              		.loc 1 1160 9 is_stmt 1 view .LVU1208
1160:C:/Users/leopi/Documents/vs/S-Reo/MazeLibrary\Searching.c ****         break;
 3549              		.loc 1 1160 32 is_stmt 0 view .LVU1209
 3550 0088 4A78     		ldrb	r2, [r1, #1]	@ zero_extendqisi2
1160:C:/Users/leopi/Documents/vs/S-Reo/MazeLibrary\Searching.c ****         break;
 3551              		.loc 1 1160 23 view .LVU1210
 3552 008a DBB2     		uxtb	r3, r3
 3553 008c 62F38713 		bfi	r3, r2, #6, #2
 3554 0090 0371     		strb	r3, [r0, #4]
1161:C:/Users/leopi/Documents/vs/S-Reo/MazeLibrary\Searching.c ****     case west:
 3555              		.loc 1 1161 9 is_stmt 1 view .LVU1211
 3556              		.loc 1 1173 12 is_stmt 0 view .LVU1212
 3557 0092 0120     		movs	r0, #1
 3558              	.LVL260:
1161:C:/Users/leopi/Documents/vs/S-Reo/MazeLibrary\Searching.c ****     case west:
 3559              		.loc 1 1161 9 view .LVU1213
 3560 0094 7047     		bx	lr
 3561              	.LVL261:
 3562              	.L206:
1163:C:/Users/leopi/Documents/vs/S-Reo/MazeLibrary\Searching.c ****         st->wall.east = wall_st[2];     //東
 3563              		.loc 1 1163 9 is_stmt 1 view .LVU1214
1163:C:/Users/leopi/Documents/vs/S-Reo/MazeLibrary\Searching.c ****         st->wall.east = wall_st[2];     //東
 3564              		.loc 1 1163 33 is_stmt 0 view .LVU1215
 3565 0096 4A78     		ldrb	r2, [r1, #1]	@ zero_extendqisi2
1163:C:/Users/leopi/Documents/vs/S-Reo/MazeLibrary\Searching.c ****         st->wall.east = wall_st[2];     //東
 3566              		.loc 1 1163 24 view .LVU1216
 3567 0098 0379     		ldrb	r3, [r0, #4]	@ zero_extendqisi2
 3568 009a 62F30103 		bfi	r3, r2, #0, #2
 3569 009e 0371     		strb	r3, [r0, #4]
1164:C:/Users/leopi/Documents/vs/S-Reo/MazeLibrary\Searching.c ****         st->wall.south = wall_st[3];    //南
 3570              		.loc 1 1164 9 is_stmt 1 view .LVU1217
1164:C:/Users/leopi/Documents/vs/S-Reo/MazeLibrary\Searching.c ****         st->wall.south = wall_st[3];    //南
 3571              		.loc 1 1164 32 is_stmt 0 view .LVU1218
 3572 00a0 8A78     		ldrb	r2, [r1, #2]	@ zero_extendqisi2
1164:C:/Users/leopi/Documents/vs/S-Reo/MazeLibrary\Searching.c ****         st->wall.south = wall_st[3];    //南
 3573              		.loc 1 1164 23 view .LVU1219
 3574 00a2 DBB2     		uxtb	r3, r3
 3575 00a4 62F38303 		bfi	r3, r2, #2, #2
 3576 00a8 0371     		strb	r3, [r0, #4]
1165:C:/Users/leopi/Documents/vs/S-Reo/MazeLibrary\Searching.c ****         st->wall.west = wall_st[0];     //西
 3577              		.loc 1 1165 9 is_stmt 1 view .LVU1220
1165:C:/Users/leopi/Documents/vs/S-Reo/MazeLibrary\Searching.c ****         st->wall.west = wall_st[0];     //西
 3578              		.loc 1 1165 33 is_stmt 0 view .LVU1221
 3579 00aa CA78     		ldrb	r2, [r1, #3]	@ zero_extendqisi2
1165:C:/Users/leopi/Documents/vs/S-Reo/MazeLibrary\Searching.c ****         st->wall.west = wall_st[0];     //西
 3580              		.loc 1 1165 24 view .LVU1222
 3581 00ac DBB2     		uxtb	r3, r3
 3582 00ae 62F30513 		bfi	r3, r2, #4, #2
ARM GAS  C:\Users\leopi\AppData\Local\Temp\cc19K7kN.s 			page 99


 3583 00b2 0371     		strb	r3, [r0, #4]
1166:C:/Users/leopi/Documents/vs/S-Reo/MazeLibrary\Searching.c ****         break;
 3584              		.loc 1 1166 9 is_stmt 1 view .LVU1223
1166:C:/Users/leopi/Documents/vs/S-Reo/MazeLibrary\Searching.c ****         break;
 3585              		.loc 1 1166 32 is_stmt 0 view .LVU1224
 3586 00b4 0A78     		ldrb	r2, [r1]	@ zero_extendqisi2
1166:C:/Users/leopi/Documents/vs/S-Reo/MazeLibrary\Searching.c ****         break;
 3587              		.loc 1 1166 23 view .LVU1225
 3588 00b6 DBB2     		uxtb	r3, r3
 3589 00b8 62F38713 		bfi	r3, r2, #6, #2
 3590 00bc 0371     		strb	r3, [r0, #4]
1167:C:/Users/leopi/Documents/vs/S-Reo/MazeLibrary\Searching.c ****     default:
 3591              		.loc 1 1167 9 is_stmt 1 view .LVU1226
 3592              		.loc 1 1173 12 is_stmt 0 view .LVU1227
 3593 00be 0120     		movs	r0, #1
 3594              	.LVL262:
1167:C:/Users/leopi/Documents/vs/S-Reo/MazeLibrary\Searching.c ****     default:
 3595              		.loc 1 1167 9 view .LVU1228
 3596 00c0 7047     		bx	lr
 3597              	.LVL263:
 3598              	.L211:
1142:C:/Users/leopi/Documents/vs/S-Reo/MazeLibrary\Searching.c ****     {
 3599              		.loc 1 1142 5 view .LVU1229
 3600 00c2 0020     		movs	r0, #0
 3601              	.LVL264:
1174:C:/Users/leopi/Documents/vs/S-Reo/MazeLibrary\Searching.c **** }
 3602              		.loc 1 1174 1 view .LVU1230
 3603 00c4 7047     		bx	lr
 3604              		.cfi_endproc
 3605              	.LFE22:
 3607              		.section	.text.getNowWallVirtual,"ax",%progbits
 3608              		.align	1
 3609              		.global	getNowWallVirtual
 3610              		.syntax unified
 3611              		.thumb
 3612              		.thumb_func
 3614              	getNowWallVirtual:
 3615              	.LVL265:
 3616              	.LFB23:
1175:C:/Users/leopi/Documents/vs/S-Reo/MazeLibrary\Searching.c **** //座標から壁の有無を取得
1176:C:/Users/leopi/Documents/vs/S-Reo/MazeLibrary\Searching.c **** void getNowWallVirtual(maze_node *maze, profile *mouse, uint8_t now_x, uint8_t now_y)
1177:C:/Users/leopi/Documents/vs/S-Reo/MazeLibrary\Searching.c **** {
 3617              		.loc 1 1177 1 is_stmt 1 view -0
 3618              		.cfi_startproc
 3619              		@ args = 0, pretend = 0, frame = 0
 3620              		@ frame_needed = 0, uses_anonymous_args = 0
 3621              		.loc 1 1177 1 is_stmt 0 view .LVU1232
 3622 0000 10B5     		push	{r4, lr}
 3623              	.LCFI24:
 3624              		.cfi_def_cfa_offset 8
 3625              		.cfi_offset 4, -8
 3626              		.cfi_offset 14, -4
1178:C:/Users/leopi/Documents/vs/S-Reo/MazeLibrary\Searching.c **** 	mouse->now.wall.north = maze->RawNode[now_x][now_y+1].existence;//北
 3627              		.loc 1 1178 2 is_stmt 1 view .LVU1233
 3628              		.loc 1 1178 52 is_stmt 0 view .LVU1234
 3629 0002 03F1010C 		add	ip, r3, #1
 3630              		.loc 1 1178 55 view .LVU1235
ARM GAS  C:\Users\leopi\AppData\Local\Temp\cc19K7kN.s 			page 100


 3631 0006 02EB421E 		add	lr, r2, r2, lsl #5
 3632 000a F444     		add	ip, ip, lr
 3633 000c 10F83C40 		ldrb	r4, [r0, ip, lsl #3]	@ zero_extendqisi2
 3634              		.loc 1 1178 24 view .LVU1236
 3635 0010 91F808C0 		ldrb	ip, [r1, #8]	@ zero_extendqisi2
 3636 0014 64F3010C 		bfi	ip, r4, #0, #2
 3637 0018 81F808C0 		strb	ip, [r1, #8]
1179:C:/Users/leopi/Documents/vs/S-Reo/MazeLibrary\Searching.c **** 	mouse->now.wall.east = maze->ColumnNode[now_x+1][now_y].existence;//東
 3638              		.loc 1 1179 2 is_stmt 1 view .LVU1237
 3639              		.loc 1 1179 47 is_stmt 0 view .LVU1238
 3640 001c 02F1010C 		add	ip, r2, #1
 3641              		.loc 1 1179 57 view .LVU1239
 3642 0020 03EB4C1C 		add	ip, r3, ip, lsl #5
 3643 0024 0CF5846C 		add	ip, ip, #1056
 3644 0028 10F83C40 		ldrb	r4, [r0, ip, lsl #3]	@ zero_extendqisi2
 3645              		.loc 1 1179 23 view .LVU1240
 3646 002c 91F808C0 		ldrb	ip, [r1, #8]	@ zero_extendqisi2
 3647 0030 64F3830C 		bfi	ip, r4, #2, #2
 3648 0034 81F808C0 		strb	ip, [r1, #8]
1180:C:/Users/leopi/Documents/vs/S-Reo/MazeLibrary\Searching.c **** 	mouse->now.wall.south = maze->RawNode[now_x][now_y].existence;//南
 3649              		.loc 1 1180 2 is_stmt 1 view .LVU1241
 3650              		.loc 1 1180 53 is_stmt 0 view .LVU1242
 3651 0038 9E44     		add	lr, lr, r3
 3652 003a 10F83EE0 		ldrb	lr, [r0, lr, lsl #3]	@ zero_extendqisi2
 3653              		.loc 1 1180 24 view .LVU1243
 3654 003e 5FFA8CFC 		uxtb	ip, ip
 3655 0042 6EF3051C 		bfi	ip, lr, #4, #2
 3656 0046 81F808C0 		strb	ip, [r1, #8]
1181:C:/Users/leopi/Documents/vs/S-Reo/MazeLibrary\Searching.c **** 	mouse->now.wall.west = maze->ColumnNode[now_x][now_y].existence;//西
 3657              		.loc 1 1181 2 is_stmt 1 view .LVU1244
 3658              		.loc 1 1181 55 is_stmt 0 view .LVU1245
 3659 004a 03EB4213 		add	r3, r3, r2, lsl #5
 3660              	.LVL266:
 3661              		.loc 1 1181 55 view .LVU1246
 3662 004e 03F58463 		add	r3, r3, #1056
 3663 0052 10F83320 		ldrb	r2, [r0, r3, lsl #3]	@ zero_extendqisi2
 3664              	.LVL267:
 3665              		.loc 1 1181 23 view .LVU1247
 3666 0056 5FFA8CF3 		uxtb	r3, ip
 3667 005a 62F38713 		bfi	r3, r2, #6, #2
 3668 005e 0B72     		strb	r3, [r1, #8]
1182:C:/Users/leopi/Documents/vs/S-Reo/MazeLibrary\Searching.c **** }
 3669              		.loc 1 1182 1 view .LVU1248
 3670 0060 10BD     		pop	{r4, pc}
 3671              		.cfi_endproc
 3672              	.LFE23:
 3674              		.section	.text.getNextWallVirtual,"ax",%progbits
 3675              		.align	1
 3676              		.global	getNextWallVirtual
 3677              		.syntax unified
 3678              		.thumb
 3679              		.thumb_func
 3681              	getNextWallVirtual:
 3682              	.LVL268:
 3683              	.LFB24:
1183:C:/Users/leopi/Documents/vs/S-Reo/MazeLibrary\Searching.c **** void getNextWallVirtual(maze_node *maze, profile *mouse, uint8_t next_x, uint8_t next_y)
1184:C:/Users/leopi/Documents/vs/S-Reo/MazeLibrary\Searching.c **** {
ARM GAS  C:\Users\leopi\AppData\Local\Temp\cc19K7kN.s 			page 101


 3684              		.loc 1 1184 1 is_stmt 1 view -0
 3685              		.cfi_startproc
 3686              		@ args = 0, pretend = 0, frame = 0
 3687              		@ frame_needed = 0, uses_anonymous_args = 0
 3688              		.loc 1 1184 1 is_stmt 0 view .LVU1250
 3689 0000 10B5     		push	{r4, lr}
 3690              	.LCFI25:
 3691              		.cfi_def_cfa_offset 8
 3692              		.cfi_offset 4, -8
 3693              		.cfi_offset 14, -4
1185:C:/Users/leopi/Documents/vs/S-Reo/MazeLibrary\Searching.c **** 	mouse->next.wall.north = maze->RawNode[next_x][next_y+1].existence;//北
 3694              		.loc 1 1185 2 is_stmt 1 view .LVU1251
 3695              		.loc 1 1185 55 is_stmt 0 view .LVU1252
 3696 0002 03F1010C 		add	ip, r3, #1
 3697              		.loc 1 1185 58 view .LVU1253
 3698 0006 02EB421E 		add	lr, r2, r2, lsl #5
 3699 000a F444     		add	ip, ip, lr
 3700 000c 10F83C40 		ldrb	r4, [r0, ip, lsl #3]	@ zero_extendqisi2
 3701              		.loc 1 1185 25 view .LVU1254
 3702 0010 91F814C0 		ldrb	ip, [r1, #20]	@ zero_extendqisi2
 3703 0014 64F3010C 		bfi	ip, r4, #0, #2
 3704 0018 81F814C0 		strb	ip, [r1, #20]
1186:C:/Users/leopi/Documents/vs/S-Reo/MazeLibrary\Searching.c **** 	mouse->next.wall.east = maze->ColumnNode[next_x+1][next_y].existence;//東
 3705              		.loc 1 1186 2 is_stmt 1 view .LVU1255
 3706              		.loc 1 1186 49 is_stmt 0 view .LVU1256
 3707 001c 02F1010C 		add	ip, r2, #1
 3708              		.loc 1 1186 60 view .LVU1257
 3709 0020 03EB4C1C 		add	ip, r3, ip, lsl #5
 3710 0024 0CF5846C 		add	ip, ip, #1056
 3711 0028 10F83C40 		ldrb	r4, [r0, ip, lsl #3]	@ zero_extendqisi2
 3712              		.loc 1 1186 24 view .LVU1258
 3713 002c 91F814C0 		ldrb	ip, [r1, #20]	@ zero_extendqisi2
 3714 0030 64F3830C 		bfi	ip, r4, #2, #2
 3715 0034 81F814C0 		strb	ip, [r1, #20]
1187:C:/Users/leopi/Documents/vs/S-Reo/MazeLibrary\Searching.c **** 	mouse->next.wall.south = maze->RawNode[next_x][next_y].existence;//南
 3716              		.loc 1 1187 2 is_stmt 1 view .LVU1259
 3717              		.loc 1 1187 56 is_stmt 0 view .LVU1260
 3718 0038 9E44     		add	lr, lr, r3
 3719 003a 10F83EE0 		ldrb	lr, [r0, lr, lsl #3]	@ zero_extendqisi2
 3720              		.loc 1 1187 25 view .LVU1261
 3721 003e 5FFA8CFC 		uxtb	ip, ip
 3722 0042 6EF3051C 		bfi	ip, lr, #4, #2
 3723 0046 81F814C0 		strb	ip, [r1, #20]
1188:C:/Users/leopi/Documents/vs/S-Reo/MazeLibrary\Searching.c **** 	mouse->next.wall.west = maze->ColumnNode[next_x][next_y].existence;//西
 3724              		.loc 1 1188 2 is_stmt 1 view .LVU1262
 3725              		.loc 1 1188 58 is_stmt 0 view .LVU1263
 3726 004a 03EB4213 		add	r3, r3, r2, lsl #5
 3727              	.LVL269:
 3728              		.loc 1 1188 58 view .LVU1264
 3729 004e 03F58463 		add	r3, r3, #1056
 3730 0052 10F83320 		ldrb	r2, [r0, r3, lsl #3]	@ zero_extendqisi2
 3731              	.LVL270:
 3732              		.loc 1 1188 24 view .LVU1265
 3733 0056 5FFA8CF3 		uxtb	r3, ip
 3734 005a 62F38713 		bfi	r3, r2, #6, #2
 3735 005e 0B75     		strb	r3, [r1, #20]
1189:C:/Users/leopi/Documents/vs/S-Reo/MazeLibrary\Searching.c **** }
ARM GAS  C:\Users\leopi\AppData\Local\Temp\cc19K7kN.s 			page 102


 3736              		.loc 1 1189 1 view .LVU1266
 3737 0060 10BD     		pop	{r4, pc}
 3738              		.cfi_endproc
 3739              	.LFE24:
 3741              		.section	.text.initSearchData,"ax",%progbits
 3742              		.align	1
 3743              		.global	initSearchData
 3744              		.syntax unified
 3745              		.thumb
 3746              		.thumb_func
 3748              	initSearchData:
 3749              	.LVL271:
 3750              	.LFB25:
1190:C:/Users/leopi/Documents/vs/S-Reo/MazeLibrary\Searching.c **** 
1191:C:/Users/leopi/Documents/vs/S-Reo/MazeLibrary\Searching.c **** 
1192:C:/Users/leopi/Documents/vs/S-Reo/MazeLibrary\Searching.c **** 
1193:C:/Users/leopi/Documents/vs/S-Reo/MazeLibrary\Searching.c **** void initSearchData(maze_node *my_maze, profile *Mouse)
1194:C:/Users/leopi/Documents/vs/S-Reo/MazeLibrary\Searching.c **** {
 3751              		.loc 1 1194 1 is_stmt 1 view -0
 3752              		.cfi_startproc
 3753              		@ args = 0, pretend = 0, frame = 8
 3754              		@ frame_needed = 0, uses_anonymous_args = 0
 3755              		.loc 1 1194 1 is_stmt 0 view .LVU1268
 3756 0000 30B5     		push	{r4, r5, lr}
 3757              	.LCFI26:
 3758              		.cfi_def_cfa_offset 12
 3759              		.cfi_offset 4, -12
 3760              		.cfi_offset 5, -8
 3761              		.cfi_offset 14, -4
 3762 0002 83B0     		sub	sp, sp, #12
 3763              	.LCFI27:
 3764              		.cfi_def_cfa_offset 24
 3765 0004 0446     		mov	r4, r0
 3766 0006 0D46     		mov	r5, r1
1195:C:/Users/leopi/Documents/vs/S-Reo/MazeLibrary\Searching.c ****     initMaze(my_maze);
 3767              		.loc 1 1195 5 is_stmt 1 view .LVU1269
 3768 0008 FFF7FEFF 		bl	initMaze
 3769              	.LVL272:
1196:C:/Users/leopi/Documents/vs/S-Reo/MazeLibrary\Searching.c ****     initWeight(my_maze); //3/20ms
 3770              		.loc 1 1196 5 view .LVU1270
 3771 000c 2046     		mov	r0, r4
 3772 000e FFF7FEFF 		bl	initWeight
 3773              	.LVL273:
1197:C:/Users/leopi/Documents/vs/S-Reo/MazeLibrary\Searching.c ****     //状態の初期化
1198:C:/Users/leopi/Documents/vs/S-Reo/MazeLibrary\Searching.c ****     initProfile(Mouse, my_maze);
 3774              		.loc 1 1198 5 view .LVU1271
 3775 0012 2146     		mov	r1, r4
 3776 0014 2846     		mov	r0, r5
 3777 0016 FFF7FEFF 		bl	initProfile
 3778              	.LVL274:
1199:C:/Users/leopi/Documents/vs/S-Reo/MazeLibrary\Searching.c **** 
1200:C:/Users/leopi/Documents/vs/S-Reo/MazeLibrary\Searching.c ****     Mouse->now.node = &(my_maze->RawNode[0][0]);
 3779              		.loc 1 1200 5 view .LVU1272
 3780              		.loc 1 1200 21 is_stmt 0 view .LVU1273
 3781 001a EC60     		str	r4, [r5, #12]
1201:C:/Users/leopi/Documents/vs/S-Reo/MazeLibrary\Searching.c ****     Mouse->next.node = &(my_maze->RawNode[0][1]);
 3782              		.loc 1 1201 5 is_stmt 1 view .LVU1274
ARM GAS  C:\Users\leopi\AppData\Local\Temp\cc19K7kN.s 			page 103


 3783              		.loc 1 1201 24 is_stmt 0 view .LVU1275
 3784 001c 04F10803 		add	r3, r4, #8
 3785              		.loc 1 1201 22 view .LVU1276
 3786 0020 AB61     		str	r3, [r5, #24]
1202:C:/Users/leopi/Documents/vs/S-Reo/MazeLibrary\Searching.c **** 
1203:C:/Users/leopi/Documents/vs/S-Reo/MazeLibrary\Searching.c ****     //スタート座標にいる状態で、現在の重みを更新
1204:C:/Users/leopi/Documents/vs/S-Reo/MazeLibrary\Searching.c ****     
1205:C:/Users/leopi/Documents/vs/S-Reo/MazeLibrary\Searching.c ****     position goal_size = {
 3787              		.loc 1 1205 5 is_stmt 1 view .LVU1277
 3788              		.loc 1 1205 14 is_stmt 0 view .LVU1278
 3789 0022 074B     		ldr	r3, .L218
 3790 0024 1B89     		ldrh	r3, [r3, #8]
 3791 0026 ADF80430 		strh	r3, [sp, #4]	@ movhi
1206:C:/Users/leopi/Documents/vs/S-Reo/MazeLibrary\Searching.c ****         GOAL_SIZE_X,
1207:C:/Users/leopi/Documents/vs/S-Reo/MazeLibrary\Searching.c ****         GOAL_SIZE_Y
1208:C:/Users/leopi/Documents/vs/S-Reo/MazeLibrary\Searching.c ****     };
1209:C:/Users/leopi/Documents/vs/S-Reo/MazeLibrary\Searching.c ****     Mouse->target_size = goal_size;
 3792              		.loc 1 1209 5 is_stmt 1 view .LVU1279
 3793              		.loc 1 1209 24 is_stmt 0 view .LVU1280
 3794 002a 2A46     		mov	r2, r5
 3795 002c 22F8023F 		strh	r3, [r2, #2]!	@ movhi
1210:C:/Users/leopi/Documents/vs/S-Reo/MazeLibrary\Searching.c ****      updateAllNodeWeight(my_maze, &(Mouse->target_pos), &(Mouse->target_size), 0x01);
 3796              		.loc 1 1210 6 is_stmt 1 view .LVU1281
 3797 0030 0123     		movs	r3, #1
 3798 0032 2946     		mov	r1, r5
 3799 0034 2046     		mov	r0, r4
 3800 0036 FFF7FEFF 		bl	updateAllNodeWeight
 3801              	.LVL275:
1211:C:/Users/leopi/Documents/vs/S-Reo/MazeLibrary\Searching.c **** //     updateAllNodeWeight(&my_map, my_mouse.goal_lesser.x, my_mouse.goal_lesser.y, GOAL_SIZE_X, GO
1212:C:/Users/leopi/Documents/vs/S-Reo/MazeLibrary\Searching.c **** }
 3802              		.loc 1 1212 1 is_stmt 0 view .LVU1282
 3803 003a 03B0     		add	sp, sp, #12
 3804              	.LCFI28:
 3805              		.cfi_def_cfa_offset 12
 3806              		@ sp needed
 3807 003c 30BD     		pop	{r4, r5, pc}
 3808              	.LVL276:
 3809              	.L219:
 3810              		.loc 1 1212 1 view .LVU1283
 3811 003e 00BF     		.align	2
 3812              	.L218:
 3813 0040 00000000 		.word	.LANCHOR0
 3814              		.cfi_endproc
 3815              	.LFE25:
 3817              		.section	.rodata
 3818              		.align	2
 3819              		.set	.LANCHOR0,. + 0
 3820              	.LC0:
 3821 0000 00       		.byte	0
 3822 0001 01       		.byte	1
 3823 0002 01       		.byte	1
 3824 0003 01       		.byte	1
 3825              	.LC1:
 3826 0004 02       		.byte	2
 3827 0005 02       		.byte	2
 3828 0006 00       		.byte	0
 3829 0007 01       		.byte	1
ARM GAS  C:\Users\leopi\AppData\Local\Temp\cc19K7kN.s 			page 104


 3830              	.LC2:
 3831 0008 02       		.byte	2
 3832 0009 02       		.byte	2
 3833              		.section	.data.cnt.0,"aw"
 3834              		.align	2
 3835              		.set	.LANCHOR1,. + 0
 3838              	cnt.0:
 3839 0000 01000000 		.word	1
 3840              		.text
 3841              	.Letext0:
 3842              		.file 2 "c:\\tools\\gcc-arm-none-eabi-10_2021.10\\lib\\gcc\\arm-none-eabi\\10.3.1\\include\\stdint
 3843              		.file 3 "C:/Users/leopi/Documents/vs/S-Reo/MazeLibrary/MazeLib.h"
 3844              		.file 4 "C:/Users/leopi/Documents/vs/S-Reo/MazeLibrary/Searching.h"
 3845              		.file 5 "C:/Users/leopi/Documents/vs/S-Reo/MazeLibrary/dfs.h"
 3846              		.file 6 "c:\\tools\\gcc-arm-none-eabi-10_2021.10\\arm-none-eabi\\include\\stdio.h"
 3847              		.file 7 "<built-in>"
ARM GAS  C:\Users\leopi\AppData\Local\Temp\cc19K7kN.s 			page 105


DEFINED SYMBOLS
                            *ABS*:00000000 Searching.c
C:\Users\leopi\AppData\Local\Temp\cc19K7kN.s:20     .text.updateNodeThree:00000000 $t
C:\Users\leopi\AppData\Local\Temp\cc19K7kN.s:26     .text.updateNodeThree:00000000 updateNodeThree
C:\Users\leopi\AppData\Local\Temp\cc19K7kN.s:173    .text.updateNodeDraw:00000000 $t
C:\Users\leopi\AppData\Local\Temp\cc19K7kN.s:179    .text.updateNodeDraw:00000000 updateNodeDraw
C:\Users\leopi\AppData\Local\Temp\cc19K7kN.s:248    .rodata.setNextPosition.str1.4:00000000 $d
C:\Users\leopi\AppData\Local\Temp\cc19K7kN.s:253    .text.setNextPosition:00000000 $t
C:\Users\leopi\AppData\Local\Temp\cc19K7kN.s:259    .text.setNextPosition:00000000 setNextPosition
C:\Users\leopi\AppData\Local\Temp\cc19K7kN.s:280    .text.setNextPosition:0000000c $d
C:\Users\leopi\AppData\Local\Temp\cc19K7kN.s:358    .text.setNextPosition:0000004c $d
C:\Users\leopi\AppData\Local\Temp\cc19K7kN.s:363    .text.setPosition:00000000 $t
C:\Users\leopi\AppData\Local\Temp\cc19K7kN.s:369    .text.setPosition:00000000 setPosition
C:\Users\leopi\AppData\Local\Temp\cc19K7kN.s:389    .text.setGoal:00000000 $t
C:\Users\leopi\AppData\Local\Temp\cc19K7kN.s:395    .text.setGoal:00000000 setGoal
C:\Users\leopi\AppData\Local\Temp\cc19K7kN.s:427    .text.setCardinal:00000000 $t
C:\Users\leopi\AppData\Local\Temp\cc19K7kN.s:433    .text.setCardinal:00000000 setCardinal
C:\Users\leopi\AppData\Local\Temp\cc19K7kN.s:450    .text.setWallExistence:00000000 $t
C:\Users\leopi\AppData\Local\Temp\cc19K7kN.s:456    .text.setWallExistence:00000000 setWallExistence
C:\Users\leopi\AppData\Local\Temp\cc19K7kN.s:498    .rodata.initState.str1.4:00000000 $d
C:\Users\leopi\AppData\Local\Temp\cc19K7kN.s:505    .text.initState:00000000 $t
C:\Users\leopi\AppData\Local\Temp\cc19K7kN.s:511    .text.initState:00000000 initState
C:\Users\leopi\AppData\Local\Temp\cc19K7kN.s:573    .text.initState:0000002c $d
C:\Users\leopi\AppData\Local\Temp\cc19K7kN.s:579    .text.initProfile:00000000 $t
C:\Users\leopi\AppData\Local\Temp\cc19K7kN.s:585    .text.initProfile:00000000 initProfile
C:\Users\leopi\AppData\Local\Temp\cc19K7kN.s:678    .text.initProfile:00000068 $d
C:\Users\leopi\AppData\Local\Temp\cc19K7kN.s:683    .text.shiftState:00000000 $t
C:\Users\leopi\AppData\Local\Temp\cc19K7kN.s:689    .text.shiftState:00000000 shiftState
C:\Users\leopi\AppData\Local\Temp\cc19K7kN.s:726    .rodata.printState.str1.4:00000000 $d
C:\Users\leopi\AppData\Local\Temp\cc19K7kN.s:750    .text.printState:00000000 $t
C:\Users\leopi\AppData\Local\Temp\cc19K7kN.s:756    .text.printState:00000000 printState
C:\Users\leopi\AppData\Local\Temp\cc19K7kN.s:837    .text.printState:00000058 $d
C:\Users\leopi\AppData\Local\Temp\cc19K7kN.s:847    .rodata.printGoal.str1.4:00000000 $d
C:\Users\leopi\AppData\Local\Temp\cc19K7kN.s:852    .text.printGoal:00000000 $t
C:\Users\leopi\AppData\Local\Temp\cc19K7kN.s:858    .text.printGoal:00000000 printGoal
C:\Users\leopi\AppData\Local\Temp\cc19K7kN.s:913    .text.printGoal:00000024 $d
C:\Users\leopi\AppData\Local\Temp\cc19K7kN.s:918    .rodata.printProfile.str1.4:00000000 $d
C:\Users\leopi\AppData\Local\Temp\cc19K7kN.s:925    .text.printProfile:00000000 $t
C:\Users\leopi\AppData\Local\Temp\cc19K7kN.s:931    .text.printProfile:00000000 printProfile
C:\Users\leopi\AppData\Local\Temp\cc19K7kN.s:975    .text.printProfile:0000002c $d
C:\Users\leopi\AppData\Local\Temp\cc19K7kN.s:982    .text.FindUnwantedSquares:00000000 $t
C:\Users\leopi\AppData\Local\Temp\cc19K7kN.s:988    .text.FindUnwantedSquares:00000000 FindUnwantedSquares
C:\Users\leopi\AppData\Local\Temp\cc19K7kN.s:1219   .text.FindUnwantedSquares:000000c0 $d
C:\Users\leopi\AppData\Local\Temp\cc19K7kN.s:1226   .text.getNodeInfo:00000000 $t
C:\Users\leopi\AppData\Local\Temp\cc19K7kN.s:1232   .text.getNodeInfo:00000000 getNodeInfo
C:\Users\leopi\AppData\Local\Temp\cc19K7kN.s:1255   .text.getNodeInfo:0000000e $d
C:\Users\leopi\AppData\Local\Temp\cc19K7kN.s:1349   .text.getNextNode:00000000 $t
C:\Users\leopi\AppData\Local\Temp\cc19K7kN.s:1355   .text.getNextNode:00000000 getNextNode
C:\Users\leopi\AppData\Local\Temp\cc19K7kN.s:1914   .text.getNextNode:000002cc $d
C:\Users\leopi\AppData\Local\Temp\cc19K7kN.s:1919   .text.judgeAccelorNot:00000000 $t
C:\Users\leopi\AppData\Local\Temp\cc19K7kN.s:1925   .text.judgeAccelorNot:00000000 judgeAccelorNot
C:\Users\leopi\AppData\Local\Temp\cc19K7kN.s:2518   .text.getNextState:00000000 $t
C:\Users\leopi\AppData\Local\Temp\cc19K7kN.s:2524   .text.getNextState:00000000 getNextState
C:\Users\leopi\AppData\Local\Temp\cc19K7kN.s:2570   .text.getNextState:00000024 $d
C:\Users\leopi\AppData\Local\Temp\cc19K7kN.s:2577   .text.getNextState:00000032 $t
C:\Users\leopi\AppData\Local\Temp\cc19K7kN.s:3378   .text.getNextDirection:00000000 $t
C:\Users\leopi\AppData\Local\Temp\cc19K7kN.s:3384   .text.getNextDirection:00000000 getNextDirection
ARM GAS  C:\Users\leopi\AppData\Local\Temp\cc19K7kN.s 			page 106


C:\Users\leopi\AppData\Local\Temp\cc19K7kN.s:3424   .text.getWallNow:00000000 $t
C:\Users\leopi\AppData\Local\Temp\cc19K7kN.s:3430   .text.getWallNow:00000000 getWallNow
C:\Users\leopi\AppData\Local\Temp\cc19K7kN.s:3446   .text.getWallNow:0000000a $d
C:\Users\leopi\AppData\Local\Temp\cc19K7kN.s:3608   .text.getNowWallVirtual:00000000 $t
C:\Users\leopi\AppData\Local\Temp\cc19K7kN.s:3614   .text.getNowWallVirtual:00000000 getNowWallVirtual
C:\Users\leopi\AppData\Local\Temp\cc19K7kN.s:3675   .text.getNextWallVirtual:00000000 $t
C:\Users\leopi\AppData\Local\Temp\cc19K7kN.s:3681   .text.getNextWallVirtual:00000000 getNextWallVirtual
C:\Users\leopi\AppData\Local\Temp\cc19K7kN.s:3742   .text.initSearchData:00000000 $t
C:\Users\leopi\AppData\Local\Temp\cc19K7kN.s:3748   .text.initSearchData:00000000 initSearchData
C:\Users\leopi\AppData\Local\Temp\cc19K7kN.s:3813   .text.initSearchData:00000040 $d
C:\Users\leopi\AppData\Local\Temp\cc19K7kN.s:3818   .rodata:00000000 $d
C:\Users\leopi\AppData\Local\Temp\cc19K7kN.s:3834   .data.cnt.0:00000000 $d
C:\Users\leopi\AppData\Local\Temp\cc19K7kN.s:3838   .data.cnt.0:00000000 cnt.0
C:\Users\leopi\AppData\Local\Temp\cc19K7kN.s:287    .text.setNextPosition:00000013 $d
C:\Users\leopi\AppData\Local\Temp\cc19K7kN.s:287    .text.setNextPosition:00000014 $t
C:\Users\leopi\AppData\Local\Temp\cc19K7kN.s:1262   .text.getNodeInfo:00000015 $d
C:\Users\leopi\AppData\Local\Temp\cc19K7kN.s:1262   .text.getNodeInfo:00000016 $t
C:\Users\leopi\AppData\Local\Temp\cc19K7kN.s:3453   .text.getWallNow:00000011 $d
C:\Users\leopi\AppData\Local\Temp\cc19K7kN.s:3453   .text.getWallNow:00000012 $t

UNDEFINED SYMBOLS
puts
printf
InitVisit
Visit
initMaze
initWeight
updateAllNodeWeight
