ARM GAS  C:\Users\leopi\AppData\Local\Temp\ccMuwtHQ.s 			page 1


   1              		.cpu cortex-m4
   2              		.arch armv7e-m
   3              		.fpu fpv4-sp-d16
   4              		.eabi_attribute 27, 1
   5              		.eabi_attribute 28, 1
   6              		.eabi_attribute 20, 1
   7              		.eabi_attribute 21, 1
   8              		.eabi_attribute 23, 3
   9              		.eabi_attribute 24, 1
  10              		.eabi_attribute 25, 1
  11              		.eabi_attribute 26, 1
  12              		.eabi_attribute 30, 1
  13              		.eabi_attribute 34, 1
  14              		.eabi_attribute 18, 4
  15              		.file	"Searching.c"
  16              		.text
  17              	.Ltext0:
  18              		.cfi_sections	.debug_frame
  19              		.section	.text.updateNodeThree,"ax",%progbits
  20              		.align	1
  21              		.global	updateNodeThree
  22              		.syntax unified
  23              		.thumb
  24              		.thumb_func
  26              	updateNodeThree:
  27              	.LVL0:
  28              	.LFB3:
  29              		.file 1 "C:/Users/leopi/Documents/vs/S-Reo/MazeLibrary/Searching.c"
   1:C:/Users/leopi/Documents/vs/S-Reo/MazeLibrary\Searching.c **** /*
   2:C:/Users/leopi/Documents/vs/S-Reo/MazeLibrary\Searching.c ****  * Search.c
   3:C:/Users/leopi/Documents/vs/S-Reo/MazeLibrary\Searching.c ****  *
   4:C:/Users/leopi/Documents/vs/S-Reo/MazeLibrary\Searching.c ****  *  Created on: 2022/10/28
   5:C:/Users/leopi/Documents/vs/S-Reo/MazeLibrary\Searching.c ****  *      Author: leopi
   6:C:/Users/leopi/Documents/vs/S-Reo/MazeLibrary\Searching.c ****  */
   7:C:/Users/leopi/Documents/vs/S-Reo/MazeLibrary\Searching.c **** 
   8:C:/Users/leopi/Documents/vs/S-Reo/MazeLibrary\Searching.c **** // SearchとFastRunで分けて、Runningで統合する
   9:C:/Users/leopi/Documents/vs/S-Reo/MazeLibrary\Searching.c **** #include "Searching.h"
  10:C:/Users/leopi/Documents/vs/S-Reo/MazeLibrary\Searching.c **** #include "dfs.h"
  11:C:/Users/leopi/Documents/vs/S-Reo/MazeLibrary\Searching.c **** 
  12:C:/Users/leopi/Documents/vs/S-Reo/MazeLibrary\Searching.c **** // 探索中: 座標の4方向の壁の有無を更新
  13:C:/Users/leopi/Documents/vs/S-Reo/MazeLibrary\Searching.c **** void updateNodeThree(maze_node *maze, wall_existence *wall, uint8_t x, uint8_t y)
  14:C:/Users/leopi/Documents/vs/S-Reo/MazeLibrary\Searching.c **** {
  30              		.loc 1 14 1 view -0
  31              		.cfi_startproc
  32              		@ args = 0, pretend = 0, frame = 0
  33              		@ frame_needed = 0, uses_anonymous_args = 0
  34              		.loc 1 14 1 is_stmt 0 view .LVU1
  35 0000 70B5     		push	{r4, r5, r6, lr}
  36              	.LCFI0:
  37              		.cfi_def_cfa_offset 16
  38              		.cfi_offset 4, -16
  39              		.cfi_offset 5, -12
  40              		.cfi_offset 6, -8
  41              		.cfi_offset 14, -4
  15:C:/Users/leopi/Documents/vs/S-Reo/MazeLibrary\Searching.c ****     //壁の有無の更新。既知の壁には上書きしない。重みの更新は？既知か
  16:C:/Users/leopi/Documents/vs/S-Reo/MazeLibrary\Searching.c ****         //重みは？壁があればMAX値、なければそのまま
  17:C:/Users/leopi/Documents/vs/S-Reo/MazeLibrary\Searching.c ****     maze->RawNode[x][y+1].existence = (maze->RawNode[x][y+1].existence == UNKNOWN) ? wall->north : 
ARM GAS  C:\Users\leopi\AppData\Local\Temp\ccMuwtHQ.s 			page 2


  42              		.loc 1 17 5 is_stmt 1 view .LVU2
  43              		.loc 1 17 58 is_stmt 0 view .LVU3
  44 0002 03F1010E 		add	lr, r3, #1
  45              		.loc 1 17 61 view .LVU4
  46 0006 02EB0214 		add	r4, r2, r2, lsl #4
  47 000a 7444     		add	r4, r4, lr
  48 000c 10F83440 		ldrb	r4, [r0, r4, lsl #3]	@ zero_extendqisi2
  49              		.loc 1 17 37 view .LVU5
  50 0010 022C     		cmp	r4, #2
  51 0012 5CD0     		beq	.L7
  52              	.L2:
  53              		.loc 1 17 37 discriminator 4 view .LVU6
  54 0014 02EB0215 		add	r5, r2, r2, lsl #4
  55 0018 7544     		add	r5, r5, lr
  56 001a 00F83540 		strb	r4, [r0, r5, lsl #3]
  18:C:/Users/leopi/Documents/vs/S-Reo/MazeLibrary\Searching.c ****     maze->ColumnNode[x+1][y].existence = (maze->ColumnNode[x+1][y].existence == UNKNOWN) ? wall->ea
  57              		.loc 1 18 5 is_stmt 1 discriminator 4 view .LVU7
  58              		.loc 1 18 61 is_stmt 0 discriminator 4 view .LVU8
  59 001e 02F1010C 		add	ip, r2, #1
  60              		.loc 1 18 67 discriminator 4 view .LVU9
  61 0022 03EB0C14 		add	r4, r3, ip, lsl #4
  62 0026 04F58874 		add	r4, r4, #272
  63 002a 10F83440 		ldrb	r4, [r0, r4, lsl #3]	@ zero_extendqisi2
  64              		.loc 1 18 40 discriminator 4 view .LVU10
  65 002e 022C     		cmp	r4, #2
  66 0030 51D0     		beq	.L8
  67              	.L3:
  68 0032 03EB0C15 		add	r5, r3, ip, lsl #4
  69 0036 05F58875 		add	r5, r5, #272
  70 003a 00F83540 		strb	r4, [r0, r5, lsl #3]
  19:C:/Users/leopi/Documents/vs/S-Reo/MazeLibrary\Searching.c ****     maze->RawNode[x][y].existence = (maze->RawNode[x][y].existence == UNKNOWN) ? wall->south : maze
  71              		.loc 1 19 5 is_stmt 1 discriminator 4 view .LVU11
  72              		.loc 1 19 57 is_stmt 0 discriminator 4 view .LVU12
  73 003e 02EB0214 		add	r4, r2, r2, lsl #4
  74 0042 1C44     		add	r4, r4, r3
  75 0044 10F83450 		ldrb	r5, [r0, r4, lsl #3]	@ zero_extendqisi2
  76              		.loc 1 19 35 discriminator 4 view .LVU13
  77 0048 022D     		cmp	r5, #2
  78 004a 48D0     		beq	.L9
  79              	.L4:
  80 004c 02EB0214 		add	r4, r2, r2, lsl #4
  81 0050 1C44     		add	r4, r4, r3
  82 0052 00F83450 		strb	r5, [r0, r4, lsl #3]
  20:C:/Users/leopi/Documents/vs/S-Reo/MazeLibrary\Searching.c ****     maze->ColumnNode[x][y].existence = (maze->ColumnNode[x][y].existence == UNKNOWN) ? wall->west :
  83              		.loc 1 20 5 is_stmt 1 discriminator 4 view .LVU14
  84              		.loc 1 20 63 is_stmt 0 discriminator 4 view .LVU15
  85 0056 03EB0214 		add	r4, r3, r2, lsl #4
  86 005a 04F58874 		add	r4, r4, #272
  87 005e 10F83440 		ldrb	r4, [r0, r4, lsl #3]	@ zero_extendqisi2
  88              		.loc 1 20 38 discriminator 4 view .LVU16
  89 0062 022C     		cmp	r4, #2
  90 0064 3FD0     		beq	.L10
  91              	.L5:
  92 0066 03EB0211 		add	r1, r3, r2, lsl #4
  93              	.LVL1:
  94              		.loc 1 20 38 discriminator 4 view .LVU17
  95 006a 01F58871 		add	r1, r1, #272
ARM GAS  C:\Users\leopi\AppData\Local\Temp\ccMuwtHQ.s 			page 3


  96 006e 00F83140 		strb	r4, [r0, r1, lsl #3]
  21:C:/Users/leopi/Documents/vs/S-Reo/MazeLibrary\Searching.c **** 
  22:C:/Users/leopi/Documents/vs/S-Reo/MazeLibrary\Searching.c ****     // maze->RawNode[x][y+1].flag = true;      //北
  23:C:/Users/leopi/Documents/vs/S-Reo/MazeLibrary\Searching.c ****     // maze->ColumnNode[x+1][y].flag = true;   //東
  24:C:/Users/leopi/Documents/vs/S-Reo/MazeLibrary\Searching.c ****     // maze->RawNode[x][y].flag = true;        //南
  25:C:/Users/leopi/Documents/vs/S-Reo/MazeLibrary\Searching.c ****     // maze->ColumnNode[x][y].flag = true;     //西
  26:C:/Users/leopi/Documents/vs/S-Reo/MazeLibrary\Searching.c **** 
  27:C:/Users/leopi/Documents/vs/S-Reo/MazeLibrary\Searching.c ****     maze->RawNode[x][y+1].draw = (maze->RawNode[x][y+1].existence == WALL) ? true : false;         
  97              		.loc 1 27 5 is_stmt 1 discriminator 4 view .LVU18
  98              		.loc 1 27 56 is_stmt 0 discriminator 4 view .LVU19
  99 0072 02EB0212 		add	r2, r2, r2, lsl #4
 100              	.LVL2:
 101              		.loc 1 27 56 discriminator 4 view .LVU20
 102 0076 9644     		add	lr, lr, r2
 103 0078 10F83E60 		ldrb	r6, [r0, lr, lsl #3]	@ zero_extendqisi2
 104              		.loc 1 27 83 discriminator 4 view .LVU21
 105 007c 012E     		cmp	r6, #1
 106 007e 14BF     		ite	ne
 107 0080 0026     		movne	r6, #0
 108 0082 0126     		moveq	r6, #1
 109              		.loc 1 27 32 discriminator 4 view .LVU22
 110 0084 00EBCE0E 		add	lr, r0, lr, lsl #3
 111 0088 8EF80460 		strb	r6, [lr, #4]
  28:C:/Users/leopi/Documents/vs/S-Reo/MazeLibrary\Searching.c ****     maze->ColumnNode[x+1][y].draw = (maze->ColumnNode[x+1][y].existence == WALL) ? true : false;   
 112              		.loc 1 28 5 is_stmt 1 discriminator 4 view .LVU23
 113              		.loc 1 28 62 is_stmt 0 discriminator 4 view .LVU24
 114 008c 03EB0C1C 		add	ip, r3, ip, lsl #4
 115 0090 0CF5887C 		add	ip, ip, #272
 116 0094 10F83CE0 		ldrb	lr, [r0, ip, lsl #3]	@ zero_extendqisi2
 117              		.loc 1 28 89 discriminator 4 view .LVU25
 118 0098 BEF1010F 		cmp	lr, #1
 119 009c 14BF     		ite	ne
 120 009e 4FF0000E 		movne	lr, #0
 121 00a2 4FF0010E 		moveq	lr, #1
 122              		.loc 1 28 35 discriminator 4 view .LVU26
 123 00a6 00EBCC0C 		add	ip, r0, ip, lsl #3
 124 00aa 8CF804E0 		strb	lr, [ip, #4]
  29:C:/Users/leopi/Documents/vs/S-Reo/MazeLibrary\Searching.c ****     maze->RawNode[x][y].draw = (maze->RawNode[x][y].existence == WALL) ? true : false;             
 125              		.loc 1 29 5 is_stmt 1 discriminator 4 view .LVU27
 126              		.loc 1 29 79 is_stmt 0 discriminator 4 view .LVU28
 127 00ae 012D     		cmp	r5, #1
 128 00b0 14BF     		ite	ne
 129 00b2 0025     		movne	r5, #0
 130 00b4 0125     		moveq	r5, #1
 131              		.loc 1 29 30 discriminator 4 view .LVU29
 132 00b6 1A44     		add	r2, r2, r3
 133 00b8 00EBC202 		add	r2, r0, r2, lsl #3
 134 00bc 1571     		strb	r5, [r2, #4]
  30:C:/Users/leopi/Documents/vs/S-Reo/MazeLibrary\Searching.c ****     maze->ColumnNode[x][y].draw = (maze->ColumnNode[x][y].existence == WALL) ? true : false;       
 135              		.loc 1 30 5 is_stmt 1 discriminator 4 view .LVU30
 136              		.loc 1 30 85 is_stmt 0 discriminator 4 view .LVU31
 137 00be 012C     		cmp	r4, #1
 138 00c0 14BF     		ite	ne
 139 00c2 0024     		movne	r4, #0
 140 00c4 0124     		moveq	r4, #1
 141              		.loc 1 30 33 discriminator 4 view .LVU32
 142 00c6 00EBC100 		add	r0, r0, r1, lsl #3
ARM GAS  C:\Users\leopi\AppData\Local\Temp\ccMuwtHQ.s 			page 4


 143              	.LVL3:
 144              		.loc 1 30 33 discriminator 4 view .LVU33
 145 00ca 0471     		strb	r4, [r0, #4]
  31:C:/Users/leopi/Documents/vs/S-Reo/MazeLibrary\Searching.c **** }
 146              		.loc 1 31 1 discriminator 4 view .LVU34
 147 00cc 70BD     		pop	{r4, r5, r6, pc}
 148              	.LVL4:
 149              	.L7:
  17:C:/Users/leopi/Documents/vs/S-Reo/MazeLibrary\Searching.c ****     maze->ColumnNode[x+1][y].existence = (maze->ColumnNode[x+1][y].existence == UNKNOWN) ? wall->ea
 150              		.loc 1 17 90 discriminator 1 view .LVU35
 151 00ce 0C78     		ldrb	r4, [r1]	@ zero_extendqisi2
 152 00d0 04F00304 		and	r4, r4, #3
 153 00d4 9EE7     		b	.L2
 154              	.L8:
  18:C:/Users/leopi/Documents/vs/S-Reo/MazeLibrary\Searching.c ****     maze->RawNode[x][y].existence = (maze->RawNode[x][y].existence == UNKNOWN) ? wall->south : maze
 155              		.loc 1 18 96 discriminator 1 view .LVU36
 156 00d6 0C78     		ldrb	r4, [r1]	@ zero_extendqisi2
 157 00d8 C4F38104 		ubfx	r4, r4, #2, #2
 158 00dc A9E7     		b	.L3
 159              	.L9:
  19:C:/Users/leopi/Documents/vs/S-Reo/MazeLibrary\Searching.c ****     maze->ColumnNode[x][y].existence = (maze->ColumnNode[x][y].existence == UNKNOWN) ? wall->west :
 160              		.loc 1 19 86 discriminator 1 view .LVU37
 161 00de 0D78     		ldrb	r5, [r1]	@ zero_extendqisi2
 162 00e0 C5F30115 		ubfx	r5, r5, #4, #2
 163 00e4 B2E7     		b	.L4
 164              	.L10:
  20:C:/Users/leopi/Documents/vs/S-Reo/MazeLibrary\Searching.c **** 
 165              		.loc 1 20 92 discriminator 1 view .LVU38
 166 00e6 0C78     		ldrb	r4, [r1]	@ zero_extendqisi2
 167 00e8 A409     		lsrs	r4, r4, #6
 168 00ea BCE7     		b	.L5
 169              		.cfi_endproc
 170              	.LFE3:
 172              		.section	.text.updateNodeDraw,"ax",%progbits
 173              		.align	1
 174              		.global	updateNodeDraw
 175              		.syntax unified
 176              		.thumb
 177              		.thumb_func
 179              	updateNodeDraw:
 180              	.LVL5:
 181              	.LFB4:
  32:C:/Users/leopi/Documents/vs/S-Reo/MazeLibrary\Searching.c **** void updateNodeDraw(maze_node *maze, uint8_t x, uint8_t y)
  33:C:/Users/leopi/Documents/vs/S-Reo/MazeLibrary\Searching.c **** {
 182              		.loc 1 33 1 is_stmt 1 view -0
 183              		.cfi_startproc
 184              		@ args = 0, pretend = 0, frame = 0
 185              		@ frame_needed = 0, uses_anonymous_args = 0
 186              		.loc 1 33 1 is_stmt 0 view .LVU40
 187 0000 00B5     		push	{lr}
 188              	.LCFI1:
 189              		.cfi_def_cfa_offset 4
 190              		.cfi_offset 14, -4
  34:C:/Users/leopi/Documents/vs/S-Reo/MazeLibrary\Searching.c ****     maze->RawNode[x][y+1].draw = maze->RawNode[x][y+1].existence;       //北
 191              		.loc 1 34 5 is_stmt 1 view .LVU41
 192              		.loc 1 34 52 is_stmt 0 view .LVU42
 193 0002 531C     		adds	r3, r2, #1
ARM GAS  C:\Users\leopi\AppData\Local\Temp\ccMuwtHQ.s 			page 5


 194              		.loc 1 34 55 view .LVU43
 195 0004 01EB011C 		add	ip, r1, r1, lsl #4
 196 0008 6344     		add	r3, r3, ip
 197 000a 10F833E0 		ldrb	lr, [r0, r3, lsl #3]	@ zero_extendqisi2
 198 000e BEF1000E 		subs	lr, lr, #0
 199 0012 18BF     		it	ne
 200 0014 4FF0010E 		movne	lr, #1
 201              		.loc 1 34 32 view .LVU44
 202 0018 00EBC303 		add	r3, r0, r3, lsl #3
 203 001c 83F804E0 		strb	lr, [r3, #4]
  35:C:/Users/leopi/Documents/vs/S-Reo/MazeLibrary\Searching.c ****     maze->ColumnNode[x+1][y].draw = maze->ColumnNode[x+1][y].existence; //東
 204              		.loc 1 35 5 is_stmt 1 view .LVU45
 205              		.loc 1 35 55 is_stmt 0 view .LVU46
 206 0020 4B1C     		adds	r3, r1, #1
 207              		.loc 1 35 61 view .LVU47
 208 0022 02EB0313 		add	r3, r2, r3, lsl #4
 209 0026 03F58873 		add	r3, r3, #272
 210 002a 10F833E0 		ldrb	lr, [r0, r3, lsl #3]	@ zero_extendqisi2
 211 002e BEF1000E 		subs	lr, lr, #0
 212 0032 18BF     		it	ne
 213 0034 4FF0010E 		movne	lr, #1
 214              		.loc 1 35 35 view .LVU48
 215 0038 00EBC303 		add	r3, r0, r3, lsl #3
 216 003c 83F804E0 		strb	lr, [r3, #4]
  36:C:/Users/leopi/Documents/vs/S-Reo/MazeLibrary\Searching.c ****     maze->RawNode[x][y].draw = maze->RawNode[x][y].existence;           //南
 217              		.loc 1 36 5 is_stmt 1 view .LVU49
 218              		.loc 1 36 51 is_stmt 0 view .LVU50
 219 0040 0CEB0203 		add	r3, ip, r2
 220 0044 10F833C0 		ldrb	ip, [r0, r3, lsl #3]	@ zero_extendqisi2
 221 0048 BCF1000C 		subs	ip, ip, #0
 222 004c 18BF     		it	ne
 223 004e 4FF0010C 		movne	ip, #1
 224              		.loc 1 36 30 view .LVU51
 225 0052 00EBC303 		add	r3, r0, r3, lsl #3
 226 0056 83F804C0 		strb	ip, [r3, #4]
  37:C:/Users/leopi/Documents/vs/S-Reo/MazeLibrary\Searching.c ****     maze->ColumnNode[x][y].draw = maze->ColumnNode[x][y].existence;     //西
 227              		.loc 1 37 5 is_stmt 1 view .LVU52
 228              		.loc 1 37 57 is_stmt 0 view .LVU53
 229 005a 02EB0112 		add	r2, r2, r1, lsl #4
 230              	.LVL6:
 231              		.loc 1 37 57 view .LVU54
 232 005e 02F58872 		add	r2, r2, #272
 233 0062 10F83230 		ldrb	r3, [r0, r2, lsl #3]	@ zero_extendqisi2
 234 0066 003B     		subs	r3, r3, #0
 235 0068 18BF     		it	ne
 236 006a 0123     		movne	r3, #1
 237              		.loc 1 37 33 view .LVU55
 238 006c 00EBC200 		add	r0, r0, r2, lsl #3
 239              	.LVL7:
 240              		.loc 1 37 33 view .LVU56
 241 0070 0371     		strb	r3, [r0, #4]
  38:C:/Users/leopi/Documents/vs/S-Reo/MazeLibrary\Searching.c **** }
 242              		.loc 1 38 1 view .LVU57
 243 0072 5DF804FB 		ldr	pc, [sp], #4
 244              		.cfi_endproc
 245              	.LFE4:
 247              		.section	.rodata.setNextPosition.str1.4,"aMS",%progbits,1
ARM GAS  C:\Users\leopi\AppData\Local\Temp\ccMuwtHQ.s 			page 6


 248              		.align	2
 249              	.LC3:
 250 0000 E696B9E8 		.ascii	"\346\226\271\350\247\222\343\203\237\343\202\271\015"
 250      A792E383 
 250      9FE382B9 
 250      0D
 251 000d 00       		.ascii	"\000"
 252              		.section	.text.setNextPosition,"ax",%progbits
 253              		.align	1
 254              		.global	setNextPosition
 255              		.syntax unified
 256              		.thumb
 257              		.thumb_func
 259              	setNextPosition:
 260              	.LVL8:
 261              	.LFB5:
  39:C:/Users/leopi/Documents/vs/S-Reo/MazeLibrary\Searching.c **** 
  40:C:/Users/leopi/Documents/vs/S-Reo/MazeLibrary\Searching.c **** 
  41:C:/Users/leopi/Documents/vs/S-Reo/MazeLibrary\Searching.c **** // 探索に必要な迷路データ、プロフィールの処理
  42:C:/Users/leopi/Documents/vs/S-Reo/MazeLibrary\Searching.c **** // 迷路データ、プロフィールの更新用の関数など
  43:C:/Users/leopi/Documents/vs/S-Reo/MazeLibrary\Searching.c **** 
  44:C:/Users/leopi/Documents/vs/S-Reo/MazeLibrary\Searching.c **** /* ----- 探索者データ管理 ここから----- */
  45:C:/Users/leopi/Documents/vs/S-Reo/MazeLibrary\Searching.c **** void setNextPosition(state *st)
  46:C:/Users/leopi/Documents/vs/S-Reo/MazeLibrary\Searching.c **** {
 262              		.loc 1 46 1 is_stmt 1 view -0
 263              		.cfi_startproc
 264              		@ args = 0, pretend = 0, frame = 0
 265              		@ frame_needed = 0, uses_anonymous_args = 0
 266              		.loc 1 46 1 is_stmt 0 view .LVU59
 267 0000 08B5     		push	{r3, lr}
 268              	.LCFI2:
 269              		.cfi_def_cfa_offset 8
 270              		.cfi_offset 3, -8
 271              		.cfi_offset 14, -4
  47:C:/Users/leopi/Documents/vs/S-Reo/MazeLibrary\Searching.c ****     switch (st->car)
 272              		.loc 1 47 5 is_stmt 1 view .LVU60
 273              		.loc 1 47 15 is_stmt 0 view .LVU61
 274 0002 8378     		ldrb	r3, [r0, #2]	@ zero_extendqisi2
 275              		.loc 1 47 5 view .LVU62
 276 0004 062B     		cmp	r3, #6
 277 0006 1CD8     		bhi	.L14
 278 0008 DFE803F0 		tbb	[pc, r3]
 279              	.L16:
 280 000c 04       		.byte	(.L20-.L16)/2
 281 000d 08       		.byte	(.L19-.L16)/2
 282 000e 0F       		.byte	(.L18-.L16)/2
 283 000f 1B       		.byte	(.L14-.L16)/2
 284 0010 13       		.byte	(.L17-.L16)/2
 285 0011 1B       		.byte	(.L14-.L16)/2
 286 0012 17       		.byte	(.L15-.L16)/2
 287 0013 00       		.p2align 1
 288              	.L20:
  48:C:/Users/leopi/Documents/vs/S-Reo/MazeLibrary\Searching.c ****     {
  49:C:/Users/leopi/Documents/vs/S-Reo/MazeLibrary\Searching.c ****     case north:
  50:C:/Users/leopi/Documents/vs/S-Reo/MazeLibrary\Searching.c ****         st->pos.x += 0;
 289              		.loc 1 50 9 is_stmt 1 view .LVU63
  51:C:/Users/leopi/Documents/vs/S-Reo/MazeLibrary\Searching.c ****         st->pos.y += 1;
ARM GAS  C:\Users\leopi\AppData\Local\Temp\ccMuwtHQ.s 			page 7


 290              		.loc 1 51 9 view .LVU64
 291              		.loc 1 51 19 is_stmt 0 view .LVU65
 292 0014 4378     		ldrb	r3, [r0, #1]	@ zero_extendqisi2
 293 0016 0133     		adds	r3, r3, #1
 294 0018 4370     		strb	r3, [r0, #1]
  52:C:/Users/leopi/Documents/vs/S-Reo/MazeLibrary\Searching.c ****         /* code */
  53:C:/Users/leopi/Documents/vs/S-Reo/MazeLibrary\Searching.c ****         break;
 295              		.loc 1 53 9 is_stmt 1 view .LVU66
 296              	.LVL9:
 297              	.L13:
  54:C:/Users/leopi/Documents/vs/S-Reo/MazeLibrary\Searching.c ****     case ne: //斜めのときの座標の変更条件をうまくやる
  55:C:/Users/leopi/Documents/vs/S-Reo/MazeLibrary\Searching.c ****         if(1);
  56:C:/Users/leopi/Documents/vs/S-Reo/MazeLibrary\Searching.c ****         st->pos.x += 1;
  57:C:/Users/leopi/Documents/vs/S-Reo/MazeLibrary\Searching.c ****         st->pos.y += 0;
  58:C:/Users/leopi/Documents/vs/S-Reo/MazeLibrary\Searching.c ****         
  59:C:/Users/leopi/Documents/vs/S-Reo/MazeLibrary\Searching.c ****         st->pos.x += 0;
  60:C:/Users/leopi/Documents/vs/S-Reo/MazeLibrary\Searching.c ****         st->pos.y += 1;
  61:C:/Users/leopi/Documents/vs/S-Reo/MazeLibrary\Searching.c ****         break;
  62:C:/Users/leopi/Documents/vs/S-Reo/MazeLibrary\Searching.c ****     case east:
  63:C:/Users/leopi/Documents/vs/S-Reo/MazeLibrary\Searching.c ****         st->pos.x += 1;
  64:C:/Users/leopi/Documents/vs/S-Reo/MazeLibrary\Searching.c ****         st->pos.y += 0; 
  65:C:/Users/leopi/Documents/vs/S-Reo/MazeLibrary\Searching.c ****         break;
  66:C:/Users/leopi/Documents/vs/S-Reo/MazeLibrary\Searching.c ****     case south:
  67:C:/Users/leopi/Documents/vs/S-Reo/MazeLibrary\Searching.c ****         st->pos.x += 0;
  68:C:/Users/leopi/Documents/vs/S-Reo/MazeLibrary\Searching.c ****         st->pos.y += -1;  
  69:C:/Users/leopi/Documents/vs/S-Reo/MazeLibrary\Searching.c ****         /* code */
  70:C:/Users/leopi/Documents/vs/S-Reo/MazeLibrary\Searching.c ****         break;
  71:C:/Users/leopi/Documents/vs/S-Reo/MazeLibrary\Searching.c ****     case west:
  72:C:/Users/leopi/Documents/vs/S-Reo/MazeLibrary\Searching.c ****         st->pos.x += -1;
  73:C:/Users/leopi/Documents/vs/S-Reo/MazeLibrary\Searching.c ****         st->pos.y += 0; 
  74:C:/Users/leopi/Documents/vs/S-Reo/MazeLibrary\Searching.c ****         break;
  75:C:/Users/leopi/Documents/vs/S-Reo/MazeLibrary\Searching.c ****     
  76:C:/Users/leopi/Documents/vs/S-Reo/MazeLibrary\Searching.c ****     default:
  77:C:/Users/leopi/Documents/vs/S-Reo/MazeLibrary\Searching.c ****         printf("方角ミス\r\n");
  78:C:/Users/leopi/Documents/vs/S-Reo/MazeLibrary\Searching.c ****         break;
  79:C:/Users/leopi/Documents/vs/S-Reo/MazeLibrary\Searching.c ****     }
  80:C:/Users/leopi/Documents/vs/S-Reo/MazeLibrary\Searching.c **** }
 298              		.loc 1 80 1 is_stmt 0 view .LVU67
 299 001a 08BD     		pop	{r3, pc}
 300              	.LVL10:
 301              	.L19:
  55:C:/Users/leopi/Documents/vs/S-Reo/MazeLibrary\Searching.c ****         st->pos.x += 1;
 302              		.loc 1 55 9 is_stmt 1 view .LVU68
  56:C:/Users/leopi/Documents/vs/S-Reo/MazeLibrary\Searching.c ****         st->pos.y += 0;
 303              		.loc 1 56 9 view .LVU69
  56:C:/Users/leopi/Documents/vs/S-Reo/MazeLibrary\Searching.c ****         st->pos.y += 0;
 304              		.loc 1 56 19 is_stmt 0 view .LVU70
 305 001c 0378     		ldrb	r3, [r0]	@ zero_extendqisi2
 306 001e 0133     		adds	r3, r3, #1
 307 0020 0370     		strb	r3, [r0]
  57:C:/Users/leopi/Documents/vs/S-Reo/MazeLibrary\Searching.c ****         
 308              		.loc 1 57 9 is_stmt 1 view .LVU71
  57:C:/Users/leopi/Documents/vs/S-Reo/MazeLibrary\Searching.c ****         
 309              		.loc 1 57 19 is_stmt 0 view .LVU72
 310 0022 4378     		ldrb	r3, [r0, #1]	@ zero_extendqisi2
  59:C:/Users/leopi/Documents/vs/S-Reo/MazeLibrary\Searching.c ****         st->pos.y += 1;
 311              		.loc 1 59 9 is_stmt 1 view .LVU73
ARM GAS  C:\Users\leopi\AppData\Local\Temp\ccMuwtHQ.s 			page 8


  60:C:/Users/leopi/Documents/vs/S-Reo/MazeLibrary\Searching.c ****         break;
 312              		.loc 1 60 9 view .LVU74
  60:C:/Users/leopi/Documents/vs/S-Reo/MazeLibrary\Searching.c ****         break;
 313              		.loc 1 60 19 is_stmt 0 view .LVU75
 314 0024 0133     		adds	r3, r3, #1
 315 0026 4370     		strb	r3, [r0, #1]
  61:C:/Users/leopi/Documents/vs/S-Reo/MazeLibrary\Searching.c ****     case east:
 316              		.loc 1 61 9 is_stmt 1 view .LVU76
 317 0028 F7E7     		b	.L13
 318              	.L18:
  63:C:/Users/leopi/Documents/vs/S-Reo/MazeLibrary\Searching.c ****         st->pos.y += 0; 
 319              		.loc 1 63 9 view .LVU77
  63:C:/Users/leopi/Documents/vs/S-Reo/MazeLibrary\Searching.c ****         st->pos.y += 0; 
 320              		.loc 1 63 19 is_stmt 0 view .LVU78
 321 002a 0378     		ldrb	r3, [r0]	@ zero_extendqisi2
 322 002c 0133     		adds	r3, r3, #1
 323 002e 0370     		strb	r3, [r0]
  64:C:/Users/leopi/Documents/vs/S-Reo/MazeLibrary\Searching.c ****         break;
 324              		.loc 1 64 9 is_stmt 1 view .LVU79
  65:C:/Users/leopi/Documents/vs/S-Reo/MazeLibrary\Searching.c ****     case south:
 325              		.loc 1 65 9 view .LVU80
 326 0030 F3E7     		b	.L13
 327              	.L17:
  67:C:/Users/leopi/Documents/vs/S-Reo/MazeLibrary\Searching.c ****         st->pos.y += -1;  
 328              		.loc 1 67 9 view .LVU81
  68:C:/Users/leopi/Documents/vs/S-Reo/MazeLibrary\Searching.c ****         /* code */
 329              		.loc 1 68 9 view .LVU82
  68:C:/Users/leopi/Documents/vs/S-Reo/MazeLibrary\Searching.c ****         /* code */
 330              		.loc 1 68 19 is_stmt 0 view .LVU83
 331 0032 4378     		ldrb	r3, [r0, #1]	@ zero_extendqisi2
 332 0034 013B     		subs	r3, r3, #1
 333 0036 4370     		strb	r3, [r0, #1]
  70:C:/Users/leopi/Documents/vs/S-Reo/MazeLibrary\Searching.c ****     case west:
 334              		.loc 1 70 9 is_stmt 1 view .LVU84
 335 0038 EFE7     		b	.L13
 336              	.L15:
  72:C:/Users/leopi/Documents/vs/S-Reo/MazeLibrary\Searching.c ****         st->pos.y += 0; 
 337              		.loc 1 72 9 view .LVU85
  72:C:/Users/leopi/Documents/vs/S-Reo/MazeLibrary\Searching.c ****         st->pos.y += 0; 
 338              		.loc 1 72 19 is_stmt 0 view .LVU86
 339 003a 0378     		ldrb	r3, [r0]	@ zero_extendqisi2
 340 003c 013B     		subs	r3, r3, #1
 341 003e 0370     		strb	r3, [r0]
  73:C:/Users/leopi/Documents/vs/S-Reo/MazeLibrary\Searching.c ****         break;
 342              		.loc 1 73 9 is_stmt 1 view .LVU87
  74:C:/Users/leopi/Documents/vs/S-Reo/MazeLibrary\Searching.c ****     
 343              		.loc 1 74 9 view .LVU88
 344 0040 EBE7     		b	.L13
 345              	.L14:
  77:C:/Users/leopi/Documents/vs/S-Reo/MazeLibrary\Searching.c ****         break;
 346              		.loc 1 77 9 view .LVU89
 347 0042 0248     		ldr	r0, .L23
 348              	.LVL11:
  77:C:/Users/leopi/Documents/vs/S-Reo/MazeLibrary\Searching.c ****         break;
 349              		.loc 1 77 9 is_stmt 0 view .LVU90
 350 0044 FFF7FEFF 		bl	puts
 351              	.LVL12:
ARM GAS  C:\Users\leopi\AppData\Local\Temp\ccMuwtHQ.s 			page 9


  78:C:/Users/leopi/Documents/vs/S-Reo/MazeLibrary\Searching.c ****     }
 352              		.loc 1 78 9 is_stmt 1 view .LVU91
 353              		.loc 1 80 1 is_stmt 0 view .LVU92
 354 0048 E7E7     		b	.L13
 355              	.L24:
 356 004a 00BF     		.align	2
 357              	.L23:
 358 004c 00000000 		.word	.LC3
 359              		.cfi_endproc
 360              	.LFE5:
 362              		.section	.text.setPosition,"ax",%progbits
 363              		.align	1
 364              		.global	setPosition
 365              		.syntax unified
 366              		.thumb
 367              		.thumb_func
 369              	setPosition:
 370              	.LVL13:
 371              	.LFB6:
  81:C:/Users/leopi/Documents/vs/S-Reo/MazeLibrary\Searching.c **** void setPosition(position *pos,uint8_t x, uint8_t y)
  82:C:/Users/leopi/Documents/vs/S-Reo/MazeLibrary\Searching.c **** {
 372              		.loc 1 82 1 is_stmt 1 view -0
 373              		.cfi_startproc
 374              		@ args = 0, pretend = 0, frame = 0
 375              		@ frame_needed = 0, uses_anonymous_args = 0
 376              		@ link register save eliminated.
  83:C:/Users/leopi/Documents/vs/S-Reo/MazeLibrary\Searching.c ****     pos->x = x;
 377              		.loc 1 83 5 view .LVU94
 378              		.loc 1 83 12 is_stmt 0 view .LVU95
 379 0000 0170     		strb	r1, [r0]
  84:C:/Users/leopi/Documents/vs/S-Reo/MazeLibrary\Searching.c ****     pos->y = y;
 380              		.loc 1 84 5 is_stmt 1 view .LVU96
 381              		.loc 1 84 12 is_stmt 0 view .LVU97
 382 0002 4270     		strb	r2, [r0, #1]
  85:C:/Users/leopi/Documents/vs/S-Reo/MazeLibrary\Searching.c **** }
 383              		.loc 1 85 1 view .LVU98
 384 0004 7047     		bx	lr
 385              		.cfi_endproc
 386              	.LFE6:
 388              		.section	.text.setGoal,"ax",%progbits
 389              		.align	1
 390              		.global	setGoal
 391              		.syntax unified
 392              		.thumb
 393              		.thumb_func
 395              	setGoal:
 396              	.LVL14:
 397              	.LFB7:
  86:C:/Users/leopi/Documents/vs/S-Reo/MazeLibrary\Searching.c **** void setGoal(profile *prof)
  87:C:/Users/leopi/Documents/vs/S-Reo/MazeLibrary\Searching.c **** {
 398              		.loc 1 87 1 is_stmt 1 view -0
 399              		.cfi_startproc
 400              		@ args = 0, pretend = 0, frame = 0
 401              		@ frame_needed = 0, uses_anonymous_args = 0
 402              		.loc 1 87 1 is_stmt 0 view .LVU100
 403 0000 10B5     		push	{r4, lr}
 404              	.LCFI3:
ARM GAS  C:\Users\leopi\AppData\Local\Temp\ccMuwtHQ.s 			page 10


 405              		.cfi_def_cfa_offset 8
 406              		.cfi_offset 4, -8
 407              		.cfi_offset 14, -4
 408 0002 0446     		mov	r4, r0
  88:C:/Users/leopi/Documents/vs/S-Reo/MazeLibrary\Searching.c ****     setPosition( &(prof->target_pos) , GOAL_X, GOAL_Y );
 409              		.loc 1 88 5 is_stmt 1 view .LVU101
 410 0004 0022     		movs	r2, #0
 411 0006 0121     		movs	r1, #1
 412 0008 FFF7FEFF 		bl	setPosition
 413              	.LVL15:
  89:C:/Users/leopi/Documents/vs/S-Reo/MazeLibrary\Searching.c ****     setPosition( &(prof->target_size), GOAL_SIZE_X, GOAL_SIZE_Y );
 414              		.loc 1 89 5 view .LVU102
 415 000c 0222     		movs	r2, #2
 416 000e 1146     		mov	r1, r2
 417 0010 A018     		adds	r0, r4, r2
 418 0012 FFF7FEFF 		bl	setPosition
 419              	.LVL16:
  90:C:/Users/leopi/Documents/vs/S-Reo/MazeLibrary\Searching.c **** }
 420              		.loc 1 90 1 is_stmt 0 view .LVU103
 421 0016 10BD     		pop	{r4, pc}
 422              		.loc 1 90 1 view .LVU104
 423              		.cfi_endproc
 424              	.LFE7:
 426              		.section	.text.setCardinal,"ax",%progbits
 427              		.align	1
 428              		.global	setCardinal
 429              		.syntax unified
 430              		.thumb
 431              		.thumb_func
 433              	setCardinal:
 434              	.LVL17:
 435              	.LFB8:
  91:C:/Users/leopi/Documents/vs/S-Reo/MazeLibrary\Searching.c **** void setCardinal(state *st, cardinal car)
  92:C:/Users/leopi/Documents/vs/S-Reo/MazeLibrary\Searching.c **** {
 436              		.loc 1 92 1 is_stmt 1 view -0
 437              		.cfi_startproc
 438              		@ args = 0, pretend = 0, frame = 0
 439              		@ frame_needed = 0, uses_anonymous_args = 0
 440              		@ link register save eliminated.
  93:C:/Users/leopi/Documents/vs/S-Reo/MazeLibrary\Searching.c ****     st->car = car;
 441              		.loc 1 93 5 view .LVU106
 442              		.loc 1 93 13 is_stmt 0 view .LVU107
 443 0000 8170     		strb	r1, [r0, #2]
  94:C:/Users/leopi/Documents/vs/S-Reo/MazeLibrary\Searching.c **** }
 444              		.loc 1 94 1 view .LVU108
 445 0002 7047     		bx	lr
 446              		.cfi_endproc
 447              	.LFE8:
 449              		.section	.text.setWallExistence,"ax",%progbits
 450              		.align	1
 451              		.global	setWallExistence
 452              		.syntax unified
 453              		.thumb
 454              		.thumb_func
 456              	setWallExistence:
 457              	.LVL18:
 458              	.LFB9:
ARM GAS  C:\Users\leopi\AppData\Local\Temp\ccMuwtHQ.s 			page 11


  95:C:/Users/leopi/Documents/vs/S-Reo/MazeLibrary\Searching.c **** void setWallExistence(wall_existence *existence, wall_state *state)
  96:C:/Users/leopi/Documents/vs/S-Reo/MazeLibrary\Searching.c **** {
 459              		.loc 1 96 1 is_stmt 1 view -0
 460              		.cfi_startproc
 461              		@ args = 0, pretend = 0, frame = 0
 462              		@ frame_needed = 0, uses_anonymous_args = 0
 463              		@ link register save eliminated.
  97:C:/Users/leopi/Documents/vs/S-Reo/MazeLibrary\Searching.c ****     existence->north = state[0];
 464              		.loc 1 97 5 view .LVU110
 465              		.loc 1 97 29 is_stmt 0 view .LVU111
 466 0000 0A78     		ldrb	r2, [r1]	@ zero_extendqisi2
 467              		.loc 1 97 22 view .LVU112
 468 0002 0378     		ldrb	r3, [r0]	@ zero_extendqisi2
 469 0004 62F30103 		bfi	r3, r2, #0, #2
 470 0008 0370     		strb	r3, [r0]
  98:C:/Users/leopi/Documents/vs/S-Reo/MazeLibrary\Searching.c ****     existence->east = state[1];
 471              		.loc 1 98 5 is_stmt 1 view .LVU113
 472              		.loc 1 98 28 is_stmt 0 view .LVU114
 473 000a 4A78     		ldrb	r2, [r1, #1]	@ zero_extendqisi2
 474              		.loc 1 98 21 view .LVU115
 475 000c DBB2     		uxtb	r3, r3
 476 000e 62F38303 		bfi	r3, r2, #2, #2
 477 0012 0370     		strb	r3, [r0]
  99:C:/Users/leopi/Documents/vs/S-Reo/MazeLibrary\Searching.c ****     existence->south = state[2];
 478              		.loc 1 99 5 is_stmt 1 view .LVU116
 479              		.loc 1 99 29 is_stmt 0 view .LVU117
 480 0014 8A78     		ldrb	r2, [r1, #2]	@ zero_extendqisi2
 481              		.loc 1 99 22 view .LVU118
 482 0016 DBB2     		uxtb	r3, r3
 483 0018 62F30513 		bfi	r3, r2, #4, #2
 484 001c 0370     		strb	r3, [r0]
 100:C:/Users/leopi/Documents/vs/S-Reo/MazeLibrary\Searching.c ****     existence->west = state[3];
 485              		.loc 1 100 5 is_stmt 1 view .LVU119
 486              		.loc 1 100 28 is_stmt 0 view .LVU120
 487 001e CA78     		ldrb	r2, [r1, #3]	@ zero_extendqisi2
 488              		.loc 1 100 21 view .LVU121
 489 0020 DBB2     		uxtb	r3, r3
 490 0022 62F38713 		bfi	r3, r2, #6, #2
 491 0026 0370     		strb	r3, [r0]
 101:C:/Users/leopi/Documents/vs/S-Reo/MazeLibrary\Searching.c **** }
 492              		.loc 1 101 1 view .LVU122
 493 0028 7047     		bx	lr
 494              		.cfi_endproc
 495              	.LFE9:
 497              		.section	.rodata.initState.str1.4,"aMS",%progbits,1
 498              		.align	2
 499              	.LC4:
 500 0000 25702C20 		.ascii	"%p, \000"
 500      00
 501 0005 000000   		.align	2
 502              	.LC5:
 503 0008 E381840D 		.ascii	"\343\201\204\015\000"
 503      00
 504              		.section	.text.initState,"ax",%progbits
 505              		.align	1
 506              		.global	initState
 507              		.syntax unified
ARM GAS  C:\Users\leopi\AppData\Local\Temp\ccMuwtHQ.s 			page 12


 508              		.thumb
 509              		.thumb_func
 511              	initState:
 512              	.LVL19:
 513              	.LFB10:
 102:C:/Users/leopi/Documents/vs/S-Reo/MazeLibrary\Searching.c **** 
 103:C:/Users/leopi/Documents/vs/S-Reo/MazeLibrary\Searching.c **** //斜め方角で壁情報どうするか.壁情報では斜め使わない.向きだけ
 104:C:/Users/leopi/Documents/vs/S-Reo/MazeLibrary\Searching.c **** void initState(state *log_st, int n, node *nd)
 105:C:/Users/leopi/Documents/vs/S-Reo/MazeLibrary\Searching.c **** {
 514              		.loc 1 105 1 is_stmt 1 view -0
 515              		.cfi_startproc
 516              		@ args = 0, pretend = 0, frame = 0
 517              		@ frame_needed = 0, uses_anonymous_args = 0
 518              		.loc 1 105 1 is_stmt 0 view .LVU124
 519 0000 F8B5     		push	{r3, r4, r5, r6, r7, lr}
 520              	.LCFI4:
 521              		.cfi_def_cfa_offset 24
 522              		.cfi_offset 3, -24
 523              		.cfi_offset 4, -20
 524              		.cfi_offset 5, -16
 525              		.cfi_offset 6, -12
 526              		.cfi_offset 7, -8
 527              		.cfi_offset 14, -4
 528 0002 0746     		mov	r7, r0
 529 0004 0C46     		mov	r4, r1
 530 0006 1646     		mov	r6, r2
 106:C:/Users/leopi/Documents/vs/S-Reo/MazeLibrary\Searching.c ****     for(int i=0; i < n; i++)
 531              		.loc 1 106 5 is_stmt 1 view .LVU125
 532              	.LBB2:
 533              		.loc 1 106 9 view .LVU126
 534              	.LVL20:
 535              		.loc 1 106 13 is_stmt 0 view .LVU127
 536 0008 0025     		movs	r5, #0
 537              		.loc 1 106 5 view .LVU128
 538 000a 09E0     		b	.L31
 539              	.LVL21:
 540              	.L32:
 107:C:/Users/leopi/Documents/vs/S-Reo/MazeLibrary\Searching.c ****     {
 108:C:/Users/leopi/Documents/vs/S-Reo/MazeLibrary\Searching.c ****         log_st[n].node = nd;
 541              		.loc 1 108 9 is_stmt 1 discriminator 3 view .LVU129
 542              		.loc 1 108 15 is_stmt 0 discriminator 3 view .LVU130
 543 000c 04EB4403 		add	r3, r4, r4, lsl #1
 544 0010 07EB8303 		add	r3, r7, r3, lsl #2
 545              		.loc 1 108 24 discriminator 3 view .LVU131
 546 0014 9E60     		str	r6, [r3, #8]
 109:C:/Users/leopi/Documents/vs/S-Reo/MazeLibrary\Searching.c ****         printf("%p, ",log_st[n].node);
 547              		.loc 1 109 9 is_stmt 1 discriminator 3 view .LVU132
 548 0016 3146     		mov	r1, r6
 549 0018 0448     		ldr	r0, .L34
 550 001a FFF7FEFF 		bl	printf
 551              	.LVL22:
 106:C:/Users/leopi/Documents/vs/S-Reo/MazeLibrary\Searching.c ****     for(int i=0; i < n; i++)
 552              		.loc 1 106 25 discriminator 3 view .LVU133
 106:C:/Users/leopi/Documents/vs/S-Reo/MazeLibrary\Searching.c ****     for(int i=0; i < n; i++)
 553              		.loc 1 106 26 is_stmt 0 discriminator 3 view .LVU134
 554 001e 0135     		adds	r5, r5, #1
 555              	.LVL23:
ARM GAS  C:\Users\leopi\AppData\Local\Temp\ccMuwtHQ.s 			page 13


 556              	.L31:
 106:C:/Users/leopi/Documents/vs/S-Reo/MazeLibrary\Searching.c ****     for(int i=0; i < n; i++)
 557              		.loc 1 106 18 is_stmt 1 discriminator 1 view .LVU135
 106:C:/Users/leopi/Documents/vs/S-Reo/MazeLibrary\Searching.c ****     for(int i=0; i < n; i++)
 558              		.loc 1 106 5 is_stmt 0 discriminator 1 view .LVU136
 559 0020 A542     		cmp	r5, r4
 560 0022 F3DB     		blt	.L32
 561              	.LBE2:
 110:C:/Users/leopi/Documents/vs/S-Reo/MazeLibrary\Searching.c ****     }
 111:C:/Users/leopi/Documents/vs/S-Reo/MazeLibrary\Searching.c ****     printf("い\r\n");
 562              		.loc 1 111 5 is_stmt 1 view .LVU137
 563 0024 0248     		ldr	r0, .L34+4
 564 0026 FFF7FEFF 		bl	puts
 565              	.LVL24:
 112:C:/Users/leopi/Documents/vs/S-Reo/MazeLibrary\Searching.c **** }
 566              		.loc 1 112 1 is_stmt 0 view .LVU138
 567 002a F8BD     		pop	{r3, r4, r5, r6, r7, pc}
 568              	.LVL25:
 569              	.L35:
 570              		.loc 1 112 1 view .LVU139
 571              		.align	2
 572              	.L34:
 573 002c 00000000 		.word	.LC4
 574 0030 08000000 		.word	.LC5
 575              		.cfi_endproc
 576              	.LFE10:
 578              		.section	.text.initProfile,"ax",%progbits
 579              		.align	1
 580              		.global	initProfile
 581              		.syntax unified
 582              		.thumb
 583              		.thumb_func
 585              	initProfile:
 586              	.LVL26:
 587              	.LFB11:
 113:C:/Users/leopi/Documents/vs/S-Reo/MazeLibrary\Searching.c **** void initProfile(profile *prof, maze_node *maze)
 114:C:/Users/leopi/Documents/vs/S-Reo/MazeLibrary\Searching.c **** {
 588              		.loc 1 114 1 is_stmt 1 view -0
 589              		.cfi_startproc
 590              		@ args = 0, pretend = 0, frame = 8
 591              		@ frame_needed = 0, uses_anonymous_args = 0
 592              		.loc 1 114 1 is_stmt 0 view .LVU141
 593 0000 F0B5     		push	{r4, r5, r6, r7, lr}
 594              	.LCFI5:
 595              		.cfi_def_cfa_offset 20
 596              		.cfi_offset 4, -20
 597              		.cfi_offset 5, -16
 598              		.cfi_offset 6, -12
 599              		.cfi_offset 7, -8
 600              		.cfi_offset 14, -4
 601 0002 83B0     		sub	sp, sp, #12
 602              	.LCFI6:
 603              		.cfi_def_cfa_offset 32
 604 0004 0446     		mov	r4, r0
 605 0006 0D46     		mov	r5, r1
 115:C:/Users/leopi/Documents/vs/S-Reo/MazeLibrary\Searching.c ****     setGoal(prof);
 606              		.loc 1 115 5 is_stmt 1 view .LVU142
ARM GAS  C:\Users\leopi\AppData\Local\Temp\ccMuwtHQ.s 			page 14


 607 0008 FFF7FEFF 		bl	setGoal
 608              	.LVL27:
 116:C:/Users/leopi/Documents/vs/S-Reo/MazeLibrary\Searching.c **** 
 117:C:/Users/leopi/Documents/vs/S-Reo/MazeLibrary\Searching.c ****     setPosition(&(prof->now.pos), 0, 0);
 609              		.loc 1 117 5 view .LVU143
 610 000c 261D     		adds	r6, r4, #4
 611 000e 0022     		movs	r2, #0
 612 0010 1146     		mov	r1, r2
 613 0012 3046     		mov	r0, r6
 614 0014 FFF7FEFF 		bl	setPosition
 615              	.LVL28:
 118:C:/Users/leopi/Documents/vs/S-Reo/MazeLibrary\Searching.c ****     setCardinal(&(prof->now), north);
 616              		.loc 1 118 5 view .LVU144
 617 0018 0021     		movs	r1, #0
 618 001a 3046     		mov	r0, r6
 619 001c FFF7FEFF 		bl	setCardinal
 620              	.LVL29:
 119:C:/Users/leopi/Documents/vs/S-Reo/MazeLibrary\Searching.c ****     prof->now.dir = front;
 621              		.loc 1 119 5 view .LVU145
 622              		.loc 1 119 19 is_stmt 0 view .LVU146
 623 0020 0026     		movs	r6, #0
 624 0022 E671     		strb	r6, [r4, #7]
 120:C:/Users/leopi/Documents/vs/S-Reo/MazeLibrary\Searching.c **** 
 121:C:/Users/leopi/Documents/vs/S-Reo/MazeLibrary\Searching.c ****     setPosition(&(prof->next.pos), 0, 1);
 625              		.loc 1 121 5 is_stmt 1 view .LVU147
 626 0024 04F11007 		add	r7, r4, #16
 627 0028 0122     		movs	r2, #1
 628 002a 3146     		mov	r1, r6
 629 002c 3846     		mov	r0, r7
 630 002e FFF7FEFF 		bl	setPosition
 631              	.LVL30:
 122:C:/Users/leopi/Documents/vs/S-Reo/MazeLibrary\Searching.c ****     setCardinal(&(prof->next), north);
 632              		.loc 1 122 5 view .LVU148
 633 0032 3146     		mov	r1, r6
 634 0034 3846     		mov	r0, r7
 635 0036 FFF7FEFF 		bl	setCardinal
 636              	.LVL31:
 123:C:/Users/leopi/Documents/vs/S-Reo/MazeLibrary\Searching.c ****     // prof->next.dir = 1; //not use while running
 124:C:/Users/leopi/Documents/vs/S-Reo/MazeLibrary\Searching.c ****     //壁のセット
 125:C:/Users/leopi/Documents/vs/S-Reo/MazeLibrary\Searching.c ****     wall_state w_st[4]={
 637              		.loc 1 125 5 view .LVU149
 638              		.loc 1 125 16 is_stmt 0 view .LVU150
 639 003a 0A4B     		ldr	r3, .L38
 640 003c 1A68     		ldr	r2, [r3]
 641 003e 0192     		str	r2, [sp, #4]
 126:C:/Users/leopi/Documents/vs/S-Reo/MazeLibrary\Searching.c ****         NOWALL,
 127:C:/Users/leopi/Documents/vs/S-Reo/MazeLibrary\Searching.c ****         WALL,
 128:C:/Users/leopi/Documents/vs/S-Reo/MazeLibrary\Searching.c ****         WALL,
 129:C:/Users/leopi/Documents/vs/S-Reo/MazeLibrary\Searching.c ****         WALL
 130:C:/Users/leopi/Documents/vs/S-Reo/MazeLibrary\Searching.c ****     },
 131:C:/Users/leopi/Documents/vs/S-Reo/MazeLibrary\Searching.c ****     next[4]={
 642              		.loc 1 131 5 view .LVU151
 643 0040 5B68     		ldr	r3, [r3, #4]
 644 0042 0093     		str	r3, [sp]
 132:C:/Users/leopi/Documents/vs/S-Reo/MazeLibrary\Searching.c ****         UNKNOWN,
 133:C:/Users/leopi/Documents/vs/S-Reo/MazeLibrary\Searching.c ****         UNKNOWN,
 134:C:/Users/leopi/Documents/vs/S-Reo/MazeLibrary\Searching.c ****         NOWALL,
ARM GAS  C:\Users\leopi\AppData\Local\Temp\ccMuwtHQ.s 			page 15


 135:C:/Users/leopi/Documents/vs/S-Reo/MazeLibrary\Searching.c ****         WALL
 136:C:/Users/leopi/Documents/vs/S-Reo/MazeLibrary\Searching.c ****     };
 137:C:/Users/leopi/Documents/vs/S-Reo/MazeLibrary\Searching.c ****     setWallExistence(&(prof->now.wall), &w_st[0]);
 645              		.loc 1 137 5 is_stmt 1 view .LVU152
 646 0044 01A9     		add	r1, sp, #4
 647 0046 04F10800 		add	r0, r4, #8
 648 004a FFF7FEFF 		bl	setWallExistence
 649              	.LVL32:
 138:C:/Users/leopi/Documents/vs/S-Reo/MazeLibrary\Searching.c ****     setWallExistence(&(prof->next.wall), &next[0]);
 650              		.loc 1 138 5 view .LVU153
 651 004e 6946     		mov	r1, sp
 652 0050 04F11400 		add	r0, r4, #20
 653 0054 FFF7FEFF 		bl	setWallExistence
 654              	.LVL33:
 139:C:/Users/leopi/Documents/vs/S-Reo/MazeLibrary\Searching.c **** 
 140:C:/Users/leopi/Documents/vs/S-Reo/MazeLibrary\Searching.c ****     prof->now.node = &(maze->RawNode[0][0]);
 655              		.loc 1 140 5 view .LVU154
 656              		.loc 1 140 20 is_stmt 0 view .LVU155
 657 0058 E560     		str	r5, [r4, #12]
 141:C:/Users/leopi/Documents/vs/S-Reo/MazeLibrary\Searching.c ****     prof->next.node = &(maze->RawNode[0][1]);
 658              		.loc 1 141 5 is_stmt 1 view .LVU156
 659              		.loc 1 141 23 is_stmt 0 view .LVU157
 660 005a 0835     		adds	r5, r5, #8
 661              	.LVL34:
 662              		.loc 1 141 21 view .LVU158
 663 005c A561     		str	r5, [r4, #24]
 142:C:/Users/leopi/Documents/vs/S-Reo/MazeLibrary\Searching.c ****     // prof->now.node->rc = 0;
 143:C:/Users/leopi/Documents/vs/S-Reo/MazeLibrary\Searching.c ****     // prof->now.node->pos.x = 0;
 144:C:/Users/leopi/Documents/vs/S-Reo/MazeLibrary\Searching.c ****     // prof->now.node->pos.y = 0;
 145:C:/Users/leopi/Documents/vs/S-Reo/MazeLibrary\Searching.c **** }
 664              		.loc 1 145 1 view .LVU159
 665 005e 03B0     		add	sp, sp, #12
 666              	.LCFI7:
 667              		.cfi_def_cfa_offset 20
 668              		@ sp needed
 669 0060 F0BD     		pop	{r4, r5, r6, r7, pc}
 670              	.LVL35:
 671              	.L39:
 672              		.loc 1 145 1 view .LVU160
 673 0062 00BF     		.align	2
 674              	.L38:
 675 0064 00000000 		.word	.LANCHOR0
 676              		.cfi_endproc
 677              	.LFE11:
 679              		.section	.text.shiftState,"ax",%progbits
 680              		.align	1
 681              		.global	shiftState
 682              		.syntax unified
 683              		.thumb
 684              		.thumb_func
 686              	shiftState:
 687              	.LVL36:
 688              	.LFB12:
 146:C:/Users/leopi/Documents/vs/S-Reo/MazeLibrary\Searching.c **** void shiftState(profile *prof) //update
 147:C:/Users/leopi/Documents/vs/S-Reo/MazeLibrary\Searching.c **** {
 689              		.loc 1 147 1 is_stmt 1 view -0
 690              		.cfi_startproc
ARM GAS  C:\Users\leopi\AppData\Local\Temp\ccMuwtHQ.s 			page 16


 691              		@ args = 0, pretend = 0, frame = 0
 692              		@ frame_needed = 0, uses_anonymous_args = 0
 693              		@ link register save eliminated.
 148:C:/Users/leopi/Documents/vs/S-Reo/MazeLibrary\Searching.c **** //	prof->now.node->visit = true;
 149:C:/Users/leopi/Documents/vs/S-Reo/MazeLibrary\Searching.c **** 
 150:C:/Users/leopi/Documents/vs/S-Reo/MazeLibrary\Searching.c ****     prof->now.car = prof->next.car;
 694              		.loc 1 150 5 view .LVU162
 695              		.loc 1 150 31 is_stmt 0 view .LVU163
 696 0000 837C     		ldrb	r3, [r0, #18]	@ zero_extendqisi2
 697              		.loc 1 150 19 view .LVU164
 698 0002 8371     		strb	r3, [r0, #6]
 151:C:/Users/leopi/Documents/vs/S-Reo/MazeLibrary\Searching.c ****    prof->now.dir = prof->next.dir;
 699              		.loc 1 151 4 is_stmt 1 view .LVU165
 700              		.loc 1 151 30 is_stmt 0 view .LVU166
 701 0004 C37C     		ldrb	r3, [r0, #19]	@ zero_extendqisi2
 702              		.loc 1 151 18 view .LVU167
 703 0006 C371     		strb	r3, [r0, #7]
 152:C:/Users/leopi/Documents/vs/S-Reo/MazeLibrary\Searching.c ****     prof->now.pos = prof->next.pos;
 704              		.loc 1 152 5 is_stmt 1 view .LVU168
 705              		.loc 1 152 19 is_stmt 0 view .LVU169
 706 0008 038A     		ldrh	r3, [r0, #16]
 707 000a 8380     		strh	r3, [r0, #4]	@ movhi
 153:C:/Users/leopi/Documents/vs/S-Reo/MazeLibrary\Searching.c ****     prof->now.node = prof->next.node;//ポインタ渡し
 708              		.loc 1 153 5 is_stmt 1 view .LVU170
 709              		.loc 1 153 32 is_stmt 0 view .LVU171
 710 000c 8369     		ldr	r3, [r0, #24]
 711              		.loc 1 153 20 view .LVU172
 712 000e C360     		str	r3, [r0, #12]
 154:C:/Users/leopi/Documents/vs/S-Reo/MazeLibrary\Searching.c ****     prof->now.wall = prof->next.wall;
 713              		.loc 1 154 5 is_stmt 1 view .LVU173
 714              		.loc 1 154 20 is_stmt 0 view .LVU174
 715 0010 037D     		ldrb	r3, [r0, #20]	@ zero_extendqisi2
 716 0012 0372     		strb	r3, [r0, #8]
 155:C:/Users/leopi/Documents/vs/S-Reo/MazeLibrary\Searching.c **** }
 717              		.loc 1 155 1 view .LVU175
 718 0014 7047     		bx	lr
 719              		.cfi_endproc
 720              	.LFE12:
 722              		.section	.rodata.printState.str1.4,"aMS",%progbits,1
 723              		.align	2
 724              	.LC6:
 725 0000 20202020 		.ascii	"    \345\272\247\346\250\231    :   %u, %u\015\012\000"
 725      E5BAA7E6 
 725      A8992020 
 725      20203A20 
 725      20202575 
 726 001b 00       		.align	2
 727              	.LC7:
 728 001c 20202020 		.ascii	"    \346\226\271\350\247\222    :   %d\015\012\000"
 728      E696B9E8 
 728      A7922020 
 728      20203A20 
 728      20202564 
 729 0033 00       		.align	2
 730              	.LC8:
 731 0034 20202020 		.ascii	"    \345\220\221\343\201\215    :   %d\015\012\000"
 731      E59091E3 
ARM GAS  C:\Users\leopi\AppData\Local\Temp\ccMuwtHQ.s 			page 17


 731      818D2020 
 731      20203A20 
 731      20202564 
 732 004b 00       		.align	2
 733              	.LC9:
 734 004c 20202020 		.ascii	"    \345\243\201      :   %u, %u, %u, %u\015\012\000"
 734      E5A38120 
 734      20202020 
 734      203A2020 
 734      2025752C 
 735 006e 0000     		.align	2
 736              	.LC10:
 737 0070 20202020 		.ascii	"    \343\203\216\343\203\274\343\203\211 :   \350\241"
 737      E3838EE3 
 737      83BCE383 
 737      89203A20 
 737      2020E8A1 
 738 0084 8C283029 		.ascii	"\214(0) or \345\210\227(1) : %d, \343\203\216\343\203"
 738      206F7220 
 738      E5889728 
 738      3129203A 
 738      2025642C 
 739 009e BCE38389 		.ascii	"\274\343\203\211x : %u, \343\203\216\343\203\274\343"
 739      78203A20 
 739      25752C20 
 739      E3838EE3 
 739      83BCE3
 740 00b1 83897920 		.ascii	"\203\211y : %u, \351\207\215\343\201\277 : %u, \345"
 740      3A202575 
 740      2C20E987 
 740      8DE381BF 
 740      203A2025 
 741 00c9 A381E381 		.ascii	"\243\201\343\201\256\347\212\266\346\205\213 : %u\015"
 741      AEE78AB6 
 741      E6858B20 
 741      3A202575 
 741      0D
 742 00da 0A00     		.ascii	"\012\000"
 743              		.align	2
 744              	.LC11:
 745 00dc 0D00     		.ascii	"\015\000"
 746              		.section	.text.printState,"ax",%progbits
 747              		.align	1
 748              		.global	printState
 749              		.syntax unified
 750              		.thumb
 751              		.thumb_func
 753              	printState:
 754              	.LVL37:
 755              	.LFB13:
 156:C:/Users/leopi/Documents/vs/S-Reo/MazeLibrary\Searching.c **** 
 157:C:/Users/leopi/Documents/vs/S-Reo/MazeLibrary\Searching.c **** void printState(state *st)
 158:C:/Users/leopi/Documents/vs/S-Reo/MazeLibrary\Searching.c **** {
 756              		.loc 1 158 1 is_stmt 1 view -0
 757              		.cfi_startproc
 758              		@ args = 0, pretend = 0, frame = 0
 759              		@ frame_needed = 0, uses_anonymous_args = 0
ARM GAS  C:\Users\leopi\AppData\Local\Temp\ccMuwtHQ.s 			page 18


 760              		.loc 1 158 1 is_stmt 0 view .LVU177
 761 0000 10B5     		push	{r4, lr}
 762              	.LCFI8:
 763              		.cfi_def_cfa_offset 8
 764              		.cfi_offset 4, -8
 765              		.cfi_offset 14, -4
 766 0002 82B0     		sub	sp, sp, #8
 767              	.LCFI9:
 768              		.cfi_def_cfa_offset 16
 769 0004 0446     		mov	r4, r0
 159:C:/Users/leopi/Documents/vs/S-Reo/MazeLibrary\Searching.c ****     printf("    座標    :   %u, %u\r\n", st->pos.x, st->pos.y);
 770              		.loc 1 159 5 is_stmt 1 view .LVU178
 771 0006 4278     		ldrb	r2, [r0, #1]	@ zero_extendqisi2
 772 0008 0178     		ldrb	r1, [r0]	@ zero_extendqisi2
 773 000a 1348     		ldr	r0, .L43
 774              	.LVL38:
 775              		.loc 1 159 5 is_stmt 0 view .LVU179
 776 000c FFF7FEFF 		bl	printf
 777              	.LVL39:
 160:C:/Users/leopi/Documents/vs/S-Reo/MazeLibrary\Searching.c ****     printf("    方角    :   %d\r\n", st->car);
 778              		.loc 1 160 5 is_stmt 1 view .LVU180
 779 0010 A178     		ldrb	r1, [r4, #2]	@ zero_extendqisi2
 780 0012 1248     		ldr	r0, .L43+4
 781 0014 FFF7FEFF 		bl	printf
 782              	.LVL40:
 161:C:/Users/leopi/Documents/vs/S-Reo/MazeLibrary\Searching.c ****     printf("    向き    :   %d\r\n", st->dir);
 783              		.loc 1 161 5 view .LVU181
 784 0018 E178     		ldrb	r1, [r4, #3]	@ zero_extendqisi2
 785 001a 1148     		ldr	r0, .L43+8
 786 001c FFF7FEFF 		bl	printf
 787              	.LVL41:
 162:C:/Users/leopi/Documents/vs/S-Reo/MazeLibrary\Searching.c ****     printf("    壁      :   %u, %u, %u, %u\r\n", st->wall.north, st->wall.east, st->wall.south, st
 788              		.loc 1 162 5 view .LVU182
 789              		.loc 1 162 59 is_stmt 0 view .LVU183
 790 0020 2179     		ldrb	r1, [r4, #4]	@ zero_extendqisi2
 791              		.loc 1 162 106 view .LVU184
 792 0022 8B09     		lsrs	r3, r1, #6
 793              		.loc 1 162 5 view .LVU185
 794 0024 0093     		str	r3, [sp]
 795 0026 C1F30113 		ubfx	r3, r1, #4, #2
 796 002a C1F38102 		ubfx	r2, r1, #2, #2
 797 002e 01F00301 		and	r1, r1, #3
 798 0032 0C48     		ldr	r0, .L43+12
 799 0034 FFF7FEFF 		bl	printf
 800              	.LVL42:
 163:C:/Users/leopi/Documents/vs/S-Reo/MazeLibrary\Searching.c **** 
 164:C:/Users/leopi/Documents/vs/S-Reo/MazeLibrary\Searching.c ****     printf("    ノード :   行(0) or 列(1) : %d, ノードx : %u, ノードy : %u, 重み : %u,
 801              		.loc 1 164 5 is_stmt 1 view .LVU186
 802              		.loc 1 164 127 is_stmt 0 view .LVU187
 803 0038 A068     		ldr	r0, [r4, #8]
 804              		.loc 1 164 133 view .LVU188
 805 003a 4179     		ldrb	r1, [r0, #5]	@ zero_extendqisi2
 806              		.loc 1 164 152 view .LVU189
 807 003c 8279     		ldrb	r2, [r0, #6]	@ zero_extendqisi2
 808              		.loc 1 164 169 view .LVU190
 809 003e C379     		ldrb	r3, [r0, #7]	@ zero_extendqisi2
 810              		.loc 1 164 181 view .LVU191
ARM GAS  C:\Users\leopi\AppData\Local\Temp\ccMuwtHQ.s 			page 19


 811 0040 4488     		ldrh	r4, [r0, #2]
 812              	.LVL43:
 813              		.loc 1 164 199 view .LVU192
 814 0042 0078     		ldrb	r0, [r0]	@ zero_extendqisi2
 815              		.loc 1 164 5 view .LVU193
 816 0044 0190     		str	r0, [sp, #4]
 817 0046 0094     		str	r4, [sp]
 818 0048 0748     		ldr	r0, .L43+16
 819 004a FFF7FEFF 		bl	printf
 820              	.LVL44:
 165:C:/Users/leopi/Documents/vs/S-Reo/MazeLibrary\Searching.c ****     printf("\r\n");
 821              		.loc 1 165 5 is_stmt 1 view .LVU194
 822 004e 0748     		ldr	r0, .L43+20
 823 0050 FFF7FEFF 		bl	puts
 824              	.LVL45:
 166:C:/Users/leopi/Documents/vs/S-Reo/MazeLibrary\Searching.c **** }
 825              		.loc 1 166 1 is_stmt 0 view .LVU195
 826 0054 02B0     		add	sp, sp, #8
 827              	.LCFI10:
 828              		.cfi_def_cfa_offset 8
 829              		@ sp needed
 830 0056 10BD     		pop	{r4, pc}
 831              	.L44:
 832              		.align	2
 833              	.L43:
 834 0058 00000000 		.word	.LC6
 835 005c 1C000000 		.word	.LC7
 836 0060 34000000 		.word	.LC8
 837 0064 4C000000 		.word	.LC9
 838 0068 70000000 		.word	.LC10
 839 006c DC000000 		.word	.LC11
 840              		.cfi_endproc
 841              	.LFE13:
 843              		.section	.rodata.printGoal.str1.4,"aMS",%progbits,1
 844              		.align	2
 845              	.LC12:
 846 0000 E5B7A6E4 		.ascii	"\345\267\246\344\270\213 : (%u,%u), \345\217\263\344"
 846      B88B203A 
 846      20282575 
 846      2C257529 
 846      2C20E58F 
 847 0016 B88A203A 		.ascii	"\270\212 : (%u,%u)\015\012\000"
 847      20282575 
 847      2C257529 
 847      0D0A00
 848              		.section	.text.printGoal,"ax",%progbits
 849              		.align	1
 850              		.global	printGoal
 851              		.syntax unified
 852              		.thumb
 853              		.thumb_func
 855              	printGoal:
 856              	.LVL46:
 857              	.LFB14:
 167:C:/Users/leopi/Documents/vs/S-Reo/MazeLibrary\Searching.c **** void printGoal(profile *prof)
 168:C:/Users/leopi/Documents/vs/S-Reo/MazeLibrary\Searching.c **** {
 858              		.loc 1 168 1 is_stmt 1 view -0
ARM GAS  C:\Users\leopi\AppData\Local\Temp\ccMuwtHQ.s 			page 20


 859              		.cfi_startproc
 860              		@ args = 0, pretend = 0, frame = 0
 861              		@ frame_needed = 0, uses_anonymous_args = 0
 862              		.loc 1 168 1 is_stmt 0 view .LVU197
 863 0000 00B5     		push	{lr}
 864              	.LCFI11:
 865              		.cfi_def_cfa_offset 4
 866              		.cfi_offset 14, -4
 867 0002 83B0     		sub	sp, sp, #12
 868              	.LCFI12:
 869              		.cfi_def_cfa_offset 16
 169:C:/Users/leopi/Documents/vs/S-Reo/MazeLibrary\Searching.c ****     uint8_t x_small = prof->target_pos.x;
 870              		.loc 1 169 5 is_stmt 1 view .LVU198
 871              		.loc 1 169 13 is_stmt 0 view .LVU199
 872 0004 0178     		ldrb	r1, [r0]	@ zero_extendqisi2
 873              	.LVL47:
 170:C:/Users/leopi/Documents/vs/S-Reo/MazeLibrary\Searching.c ****     uint8_t y_small = prof->target_pos.y;
 874              		.loc 1 170 5 is_stmt 1 view .LVU200
 875              		.loc 1 170 13 is_stmt 0 view .LVU201
 876 0006 4278     		ldrb	r2, [r0, #1]	@ zero_extendqisi2
 877              	.LVL48:
 171:C:/Users/leopi/Documents/vs/S-Reo/MazeLibrary\Searching.c ****     uint8_t x_large = x_small + prof->target_size.x;
 878              		.loc 1 171 5 is_stmt 1 view .LVU202
 879              		.loc 1 171 50 is_stmt 0 view .LVU203
 880 0008 8378     		ldrb	r3, [r0, #2]	@ zero_extendqisi2
 881              		.loc 1 171 13 view .LVU204
 882 000a 0B44     		add	r3, r3, r1
 883              	.LVL49:
 172:C:/Users/leopi/Documents/vs/S-Reo/MazeLibrary\Searching.c ****     uint8_t y_large = y_small + prof->target_size.y;
 884              		.loc 1 172 5 is_stmt 1 view .LVU205
 885              		.loc 1 172 50 is_stmt 0 view .LVU206
 886 000c C078     		ldrb	r0, [r0, #3]	@ zero_extendqisi2
 887              	.LVL50:
 888              		.loc 1 172 13 view .LVU207
 889 000e 1044     		add	r0, r0, r2
 890 0010 C0B2     		uxtb	r0, r0
 891              	.LVL51:
 173:C:/Users/leopi/Documents/vs/S-Reo/MazeLibrary\Searching.c ****     printf("左下 : (%u,%u), 右上 : (%u,%u)\r\n",x_small, y_small, x_large, y_large);
 892              		.loc 1 173 5 is_stmt 1 view .LVU208
 893 0012 0090     		str	r0, [sp]
 894 0014 DBB2     		uxtb	r3, r3
 895              		.loc 1 173 5 is_stmt 0 view .LVU209
 896 0016 0348     		ldr	r0, .L47
 897              	.LVL52:
 898              		.loc 1 173 5 view .LVU210
 899 0018 FFF7FEFF 		bl	printf
 900              	.LVL53:
 174:C:/Users/leopi/Documents/vs/S-Reo/MazeLibrary\Searching.c **** }
 901              		.loc 1 174 1 view .LVU211
 902 001c 03B0     		add	sp, sp, #12
 903              	.LCFI13:
 904              		.cfi_def_cfa_offset 4
 905              		@ sp needed
 906 001e 5DF804FB 		ldr	pc, [sp], #4
 907              	.L48:
 908 0022 00BF     		.align	2
 909              	.L47:
ARM GAS  C:\Users\leopi\AppData\Local\Temp\ccMuwtHQ.s 			page 21


 910 0024 00000000 		.word	.LC12
 911              		.cfi_endproc
 912              	.LFE14:
 914              		.section	.rodata.printProfile.str1.4,"aMS",%progbits,1
 915              		.align	2
 916              	.LC13:
 917 0000 E78FBEE5 		.ascii	"\347\217\276\345\234\250\015\000"
 917      9CA80D00 
 918              		.align	2
 919              	.LC14:
 920 0008 E6ACA10D 		.ascii	"\346\254\241\015\000"
 920      00
 921              		.section	.text.printProfile,"ax",%progbits
 922              		.align	1
 923              		.global	printProfile
 924              		.syntax unified
 925              		.thumb
 926              		.thumb_func
 928              	printProfile:
 929              	.LVL54:
 930              	.LFB15:
 175:C:/Users/leopi/Documents/vs/S-Reo/MazeLibrary\Searching.c **** void printProfile(profile *prof)
 176:C:/Users/leopi/Documents/vs/S-Reo/MazeLibrary\Searching.c **** {
 931              		.loc 1 176 1 is_stmt 1 view -0
 932              		.cfi_startproc
 933              		@ args = 0, pretend = 0, frame = 0
 934              		@ frame_needed = 0, uses_anonymous_args = 0
 935              		.loc 1 176 1 is_stmt 0 view .LVU213
 936 0000 10B5     		push	{r4, lr}
 937              	.LCFI14:
 938              		.cfi_def_cfa_offset 8
 939              		.cfi_offset 4, -8
 940              		.cfi_offset 14, -4
 941 0002 0446     		mov	r4, r0
 177:C:/Users/leopi/Documents/vs/S-Reo/MazeLibrary\Searching.c ****     printGoal(prof);
 942              		.loc 1 177 5 is_stmt 1 view .LVU214
 943 0004 FFF7FEFF 		bl	printGoal
 944              	.LVL55:
 178:C:/Users/leopi/Documents/vs/S-Reo/MazeLibrary\Searching.c **** 
 179:C:/Users/leopi/Documents/vs/S-Reo/MazeLibrary\Searching.c ****     printf("現在\r\n");
 945              		.loc 1 179 5 view .LVU215
 946 0008 0848     		ldr	r0, .L51
 947 000a FFF7FEFF 		bl	puts
 948              	.LVL56:
 180:C:/Users/leopi/Documents/vs/S-Reo/MazeLibrary\Searching.c ****     printState( &(prof->now) );
 949              		.loc 1 180 5 view .LVU216
 950 000e 201D     		adds	r0, r4, #4
 951 0010 FFF7FEFF 		bl	printState
 952              	.LVL57:
 181:C:/Users/leopi/Documents/vs/S-Reo/MazeLibrary\Searching.c **** 
 182:C:/Users/leopi/Documents/vs/S-Reo/MazeLibrary\Searching.c ****     printf("次\r\n");
 953              		.loc 1 182 5 view .LVU217
 954 0014 0648     		ldr	r0, .L51+4
 955 0016 FFF7FEFF 		bl	puts
 956              	.LVL58:
 183:C:/Users/leopi/Documents/vs/S-Reo/MazeLibrary\Searching.c ****     printState( &(prof->next) );
 957              		.loc 1 183 5 view .LVU218
ARM GAS  C:\Users\leopi\AppData\Local\Temp\ccMuwtHQ.s 			page 22


 958 001a 04F11000 		add	r0, r4, #16
 959 001e FFF7FEFF 		bl	printState
 960              	.LVL59:
 184:C:/Users/leopi/Documents/vs/S-Reo/MazeLibrary\Searching.c **** 
 185:C:/Users/leopi/Documents/vs/S-Reo/MazeLibrary\Searching.c ****     printf("\r\n");
 961              		.loc 1 185 5 view .LVU219
 962 0022 0448     		ldr	r0, .L51+8
 963 0024 FFF7FEFF 		bl	puts
 964              	.LVL60:
 186:C:/Users/leopi/Documents/vs/S-Reo/MazeLibrary\Searching.c ****     
 187:C:/Users/leopi/Documents/vs/S-Reo/MazeLibrary\Searching.c **** }
 965              		.loc 1 187 1 is_stmt 0 view .LVU220
 966 0028 10BD     		pop	{r4, pc}
 967              	.LVL61:
 968              	.L52:
 969              		.loc 1 187 1 view .LVU221
 970 002a 00BF     		.align	2
 971              	.L51:
 972 002c 00000000 		.word	.LC13
 973 0030 08000000 		.word	.LC14
 974 0034 DC000000 		.word	.LC11
 975              		.cfi_endproc
 976              	.LFE15:
 978              		.section	.text.FindUnwantedSquares,"ax",%progbits
 979              		.align	1
 980              		.global	FindUnwantedSquares
 981              		.syntax unified
 982              		.thumb
 983              		.thumb_func
 985              	FindUnwantedSquares:
 986              	.LVL62:
 987              	.LFB16:
 188:C:/Users/leopi/Documents/vs/S-Reo/MazeLibrary\Searching.c **** 
 189:C:/Users/leopi/Documents/vs/S-Reo/MazeLibrary\Searching.c **** void FindUnwantedSquares(maze_node *maze){
 988              		.loc 1 189 42 is_stmt 1 view -0
 989              		.cfi_startproc
 990              		@ args = 0, pretend = 0, frame = 0
 991              		@ frame_needed = 0, uses_anonymous_args = 0
 190:C:/Users/leopi/Documents/vs/S-Reo/MazeLibrary\Searching.c **** 	//未訪問のマスをピックアップ
 191:C:/Users/leopi/Documents/vs/S-Reo/MazeLibrary\Searching.c **** 	//それぞれの四方のノードを確認
 192:C:/Users/leopi/Documents/vs/S-Reo/MazeLibrary\Searching.c **** 	//未探索がひとつもなければVisitedに
 193:C:/Users/leopi/Documents/vs/S-Reo/MazeLibrary\Searching.c **** 	//未探索が三つなら、全て壁があるのか見て、そうならVisitedに
 194:C:/Users/leopi/Documents/vs/S-Reo/MazeLibrary\Searching.c **** 	for(int i=0; i < NUMBER_OF_SQUARES_X; i++){
 992              		.loc 1 194 2 view .LVU223
 993              	.LBB3:
 994              		.loc 1 194 6 view .LVU224
 995              		.loc 1 194 10 is_stmt 0 view .LVU225
 996 0000 0021     		movs	r1, #0
 997              		.loc 1 194 2 view .LVU226
 998 0002 57E0     		b	.L61
 999              	.LVL63:
 1000              	.L56:
 1001              	.LCFI15:
 1002              		.cfi_def_cfa_offset 8
 1003              		.cfi_offset 4, -8
 1004              		.cfi_offset 14, -4
 1005              	.LBB4:
ARM GAS  C:\Users\leopi\AppData\Local\Temp\ccMuwtHQ.s 			page 23


 1006              	.LBB5:
 195:C:/Users/leopi/Documents/vs/S-Reo/MazeLibrary\Searching.c **** 		for(int j=0; j < NUMBER_OF_SQUARES_Y; j++){
 196:C:/Users/leopi/Documents/vs/S-Reo/MazeLibrary\Searching.c **** 			if(Visit[i][j] == true)
 197:C:/Users/leopi/Documents/vs/S-Reo/MazeLibrary\Searching.c **** 				continue;
 198:C:/Users/leopi/Documents/vs/S-Reo/MazeLibrary\Searching.c **** 			uint8_t n = maze->RawNode[i][j+1].existence;	//北
 199:C:/Users/leopi/Documents/vs/S-Reo/MazeLibrary\Searching.c **** 			uint8_t e = maze->ColumnNode[i+1][j].existence;	//東
 200:C:/Users/leopi/Documents/vs/S-Reo/MazeLibrary\Searching.c **** 			uint8_t w = maze->ColumnNode[i][j].existence;//西
 201:C:/Users/leopi/Documents/vs/S-Reo/MazeLibrary\Searching.c **** 			uint8_t s = maze->RawNode[i][j].existence;	//南
 202:C:/Users/leopi/Documents/vs/S-Reo/MazeLibrary\Searching.c **** 			if(n != UNKNOWN && e != UNKNOWN && w != UNKNOWN && s != UNKNOWN){
 203:C:/Users/leopi/Documents/vs/S-Reo/MazeLibrary\Searching.c **** 				Visit[i][j] = true;
 204:C:/Users/leopi/Documents/vs/S-Reo/MazeLibrary\Searching.c **** 				continue;
 205:C:/Users/leopi/Documents/vs/S-Reo/MazeLibrary\Searching.c **** 			}
 206:C:/Users/leopi/Documents/vs/S-Reo/MazeLibrary\Searching.c **** 			int known_check=0;
 1007              		.loc 1 206 4 is_stmt 1 view .LVU227
 207:C:/Users/leopi/Documents/vs/S-Reo/MazeLibrary\Searching.c **** 			known_check += (n == WALL) ? true : false;
 1008              		.loc 1 207 4 view .LVU228
 208:C:/Users/leopi/Documents/vs/S-Reo/MazeLibrary\Searching.c **** 			known_check += (e == WALL) ? true : false;
 1009              		.loc 1 208 4 view .LVU229
 1010              		.loc 1 208 38 is_stmt 0 view .LVU230
 1011 0004 012A     		cmp	r2, #1
 1012 0006 14BF     		ite	ne
 1013 0008 0022     		movne	r2, #0
 1014              	.LVL64:
 1015              		.loc 1 208 38 view .LVU231
 1016 000a 0122     		moveq	r2, #1
 1017              		.loc 1 208 16 view .LVU232
 1018 000c 012C     		cmp	r4, #1
 1019 000e 08BF     		it	eq
 1020 0010 0132     		addeq	r2, r2, #1
 1021              	.LVL65:
 209:C:/Users/leopi/Documents/vs/S-Reo/MazeLibrary\Searching.c **** 			known_check += (w == WALL) ? true : false;
 1022              		.loc 1 209 4 is_stmt 1 view .LVU233
 1023              		.loc 1 209 16 is_stmt 0 view .LVU234
 1024 0012 BEF1010F 		cmp	lr, #1
 1025 0016 08BF     		it	eq
 1026 0018 0132     		addeq	r2, r2, #1
 1027              	.LVL66:
 210:C:/Users/leopi/Documents/vs/S-Reo/MazeLibrary\Searching.c **** 			known_check += (s == WALL) ? true : false;
 1028              		.loc 1 210 4 is_stmt 1 view .LVU235
 1029              		.loc 1 210 16 is_stmt 0 view .LVU236
 1030 001a BCF1010F 		cmp	ip, #1
 1031 001e 08BF     		it	eq
 1032 0020 0132     		addeq	r2, r2, #1
 1033              	.LVL67:
 211:C:/Users/leopi/Documents/vs/S-Reo/MazeLibrary\Searching.c **** 			if(known_check == 3){
 1034              		.loc 1 211 4 is_stmt 1 view .LVU237
 1035              		.loc 1 211 6 is_stmt 0 view .LVU238
 1036 0022 032A     		cmp	r2, #3
 1037 0024 2ED0     		beq	.L69
 1038              	.LVL68:
 1039              	.L55:
 1040              		.loc 1 211 6 view .LVU239
 1041              	.LBE5:
 195:C:/Users/leopi/Documents/vs/S-Reo/MazeLibrary\Searching.c **** 			if(Visit[i][j] == true)
 1042              		.loc 1 195 41 is_stmt 1 discriminator 2 view .LVU240
 195:C:/Users/leopi/Documents/vs/S-Reo/MazeLibrary\Searching.c **** 			if(Visit[i][j] == true)
 1043              		.loc 1 195 42 is_stmt 0 discriminator 2 view .LVU241
ARM GAS  C:\Users\leopi\AppData\Local\Temp\ccMuwtHQ.s 			page 24


 1044 0026 0133     		adds	r3, r3, #1
 1045              	.LVL69:
 1046              	.L58:
 195:C:/Users/leopi/Documents/vs/S-Reo/MazeLibrary\Searching.c **** 			if(Visit[i][j] == true)
 1047              		.loc 1 195 16 is_stmt 1 discriminator 1 view .LVU242
 195:C:/Users/leopi/Documents/vs/S-Reo/MazeLibrary\Searching.c **** 			if(Visit[i][j] == true)
 1048              		.loc 1 195 3 is_stmt 0 discriminator 1 view .LVU243
 1049 0028 0F2B     		cmp	r3, #15
 1050 002a 31DC     		bgt	.L70
 1051              	.LBB6:
 196:C:/Users/leopi/Documents/vs/S-Reo/MazeLibrary\Searching.c **** 				continue;
 1052              		.loc 1 196 4 is_stmt 1 view .LVU244
 196:C:/Users/leopi/Documents/vs/S-Reo/MazeLibrary\Searching.c **** 				continue;
 1053              		.loc 1 196 15 is_stmt 0 view .LVU245
 1054 002c 244A     		ldr	r2, .L75
 1055 002e 02EB0112 		add	r2, r2, r1, lsl #4
 1056 0032 D25C     		ldrb	r2, [r2, r3]	@ zero_extendqisi2
 196:C:/Users/leopi/Documents/vs/S-Reo/MazeLibrary\Searching.c **** 				continue;
 1057              		.loc 1 196 6 view .LVU246
 1058 0034 002A     		cmp	r2, #0
 1059 0036 F6D1     		bne	.L55
 1060              	.LVL70:
 1061              	.L63:
 198:C:/Users/leopi/Documents/vs/S-Reo/MazeLibrary\Searching.c **** 			uint8_t e = maze->ColumnNode[i+1][j].existence;	//東
 1062              		.loc 1 198 4 is_stmt 1 view .LVU247
 198:C:/Users/leopi/Documents/vs/S-Reo/MazeLibrary\Searching.c **** 			uint8_t e = maze->ColumnNode[i+1][j].existence;	//東
 1063              		.loc 1 198 34 is_stmt 0 view .LVU248
 1064 0038 5A1C     		adds	r2, r3, #1
 198:C:/Users/leopi/Documents/vs/S-Reo/MazeLibrary\Searching.c **** 			uint8_t e = maze->ColumnNode[i+1][j].existence;	//東
 1065              		.loc 1 198 12 view .LVU249
 1066 003a 01EB011C 		add	ip, r1, r1, lsl #4
 1067 003e 6244     		add	r2, r2, ip
 1068 0040 10F83240 		ldrb	r4, [r0, r2, lsl #3]	@ zero_extendqisi2
 1069              	.LVL71:
 199:C:/Users/leopi/Documents/vs/S-Reo/MazeLibrary\Searching.c **** 			uint8_t w = maze->ColumnNode[i][j].existence;//西
 1070              		.loc 1 199 4 is_stmt 1 view .LVU250
 199:C:/Users/leopi/Documents/vs/S-Reo/MazeLibrary\Searching.c **** 			uint8_t w = maze->ColumnNode[i][j].existence;//西
 1071              		.loc 1 199 34 is_stmt 0 view .LVU251
 1072 0044 4A1C     		adds	r2, r1, #1
 199:C:/Users/leopi/Documents/vs/S-Reo/MazeLibrary\Searching.c **** 			uint8_t w = maze->ColumnNode[i][j].existence;//西
 1073              		.loc 1 199 12 view .LVU252
 1074 0046 03EB0212 		add	r2, r3, r2, lsl #4
 1075 004a 02F58872 		add	r2, r2, #272
 1076 004e 10F83220 		ldrb	r2, [r0, r2, lsl #3]	@ zero_extendqisi2
 1077              	.LVL72:
 200:C:/Users/leopi/Documents/vs/S-Reo/MazeLibrary\Searching.c **** 			uint8_t s = maze->RawNode[i][j].existence;	//南
 1078              		.loc 1 200 4 is_stmt 1 view .LVU253
 200:C:/Users/leopi/Documents/vs/S-Reo/MazeLibrary\Searching.c **** 			uint8_t s = maze->RawNode[i][j].existence;	//南
 1079              		.loc 1 200 12 is_stmt 0 view .LVU254
 1080 0052 03EB011E 		add	lr, r3, r1, lsl #4
 1081 0056 0EF5887E 		add	lr, lr, #272
 1082 005a 10F83EE0 		ldrb	lr, [r0, lr, lsl #3]	@ zero_extendqisi2
 1083              	.LVL73:
 201:C:/Users/leopi/Documents/vs/S-Reo/MazeLibrary\Searching.c **** 			if(n != UNKNOWN && e != UNKNOWN && w != UNKNOWN && s != UNKNOWN){
 1084              		.loc 1 201 4 is_stmt 1 view .LVU255
 201:C:/Users/leopi/Documents/vs/S-Reo/MazeLibrary\Searching.c **** 			if(n != UNKNOWN && e != UNKNOWN && w != UNKNOWN && s != UNKNOWN){
 1085              		.loc 1 201 12 is_stmt 0 view .LVU256
ARM GAS  C:\Users\leopi\AppData\Local\Temp\ccMuwtHQ.s 			page 25


 1086 005e 9C44     		add	ip, ip, r3
 1087 0060 10F83CC0 		ldrb	ip, [r0, ip, lsl #3]	@ zero_extendqisi2
 1088              	.LVL74:
 202:C:/Users/leopi/Documents/vs/S-Reo/MazeLibrary\Searching.c **** 				Visit[i][j] = true;
 1089              		.loc 1 202 4 is_stmt 1 view .LVU257
 202:C:/Users/leopi/Documents/vs/S-Reo/MazeLibrary\Searching.c **** 				Visit[i][j] = true;
 1090              		.loc 1 202 6 is_stmt 0 view .LVU258
 1091 0064 022C     		cmp	r4, #2
 1092 0066 CDD0     		beq	.L56
 202:C:/Users/leopi/Documents/vs/S-Reo/MazeLibrary\Searching.c **** 				Visit[i][j] = true;
 1093              		.loc 1 202 20 discriminator 1 view .LVU259
 1094 0068 022A     		cmp	r2, #2
 1095 006a CBD0     		beq	.L56
 202:C:/Users/leopi/Documents/vs/S-Reo/MazeLibrary\Searching.c **** 				Visit[i][j] = true;
 1096              		.loc 1 202 36 discriminator 2 view .LVU260
 1097 006c BEF1020F 		cmp	lr, #2
 1098 0070 C8D0     		beq	.L56
 202:C:/Users/leopi/Documents/vs/S-Reo/MazeLibrary\Searching.c **** 				Visit[i][j] = true;
 1099              		.loc 1 202 52 discriminator 3 view .LVU261
 1100 0072 BCF1020F 		cmp	ip, #2
 1101 0076 C5D0     		beq	.L56
 203:C:/Users/leopi/Documents/vs/S-Reo/MazeLibrary\Searching.c **** 				continue;
 1102              		.loc 1 203 5 is_stmt 1 view .LVU262
 203:C:/Users/leopi/Documents/vs/S-Reo/MazeLibrary\Searching.c **** 				continue;
 1103              		.loc 1 203 17 is_stmt 0 view .LVU263
 1104 0078 114A     		ldr	r2, .L75
 1105              	.LVL75:
 203:C:/Users/leopi/Documents/vs/S-Reo/MazeLibrary\Searching.c **** 				continue;
 1106              		.loc 1 203 17 view .LVU264
 1107 007a 02EB0112 		add	r2, r2, r1, lsl #4
 1108 007e 0124     		movs	r4, #1
 1109              	.LVL76:
 203:C:/Users/leopi/Documents/vs/S-Reo/MazeLibrary\Searching.c **** 				continue;
 1110              		.loc 1 203 17 view .LVU265
 1111 0080 D454     		strb	r4, [r2, r3]
 1112              	.LVL77:
 204:C:/Users/leopi/Documents/vs/S-Reo/MazeLibrary\Searching.c **** 			}
 1113              		.loc 1 204 5 is_stmt 1 view .LVU266
 1114 0082 D0E7     		b	.L55
 1115              	.LVL78:
 1116              	.L69:
 212:C:/Users/leopi/Documents/vs/S-Reo/MazeLibrary\Searching.c **** 				Visit[i][j] = true;
 1117              		.loc 1 212 5 view .LVU267
 1118              		.loc 1 212 17 is_stmt 0 view .LVU268
 1119 0084 0E4A     		ldr	r2, .L75
 1120              	.LVL79:
 1121              		.loc 1 212 17 view .LVU269
 1122 0086 02EB0112 		add	r2, r2, r1, lsl #4
 1123 008a 0124     		movs	r4, #1
 1124              	.LVL80:
 1125              		.loc 1 212 17 view .LVU270
 1126 008c D454     		strb	r4, [r2, r3]
 1127              	.LVL81:
 213:C:/Users/leopi/Documents/vs/S-Reo/MazeLibrary\Searching.c **** 				continue;
 1128              		.loc 1 213 5 is_stmt 1 view .LVU271
 1129 008e CAE7     		b	.L55
 1130              	.L70:
ARM GAS  C:\Users\leopi\AppData\Local\Temp\ccMuwtHQ.s 			page 26


 1131              		.loc 1 213 5 is_stmt 0 view .LVU272
 1132              	.LBE6:
 1133              	.LBE4:
 194:C:/Users/leopi/Documents/vs/S-Reo/MazeLibrary\Searching.c **** 		for(int j=0; j < NUMBER_OF_SQUARES_Y; j++){
 1134              		.loc 1 194 40 is_stmt 1 discriminator 2 view .LVU273
 194:C:/Users/leopi/Documents/vs/S-Reo/MazeLibrary\Searching.c **** 		for(int j=0; j < NUMBER_OF_SQUARES_Y; j++){
 1135              		.loc 1 194 41 is_stmt 0 discriminator 2 view .LVU274
 1136 0090 0131     		adds	r1, r1, #1
 1137              	.LVL82:
 194:C:/Users/leopi/Documents/vs/S-Reo/MazeLibrary\Searching.c **** 		for(int j=0; j < NUMBER_OF_SQUARES_Y; j++){
 1138              		.loc 1 194 15 is_stmt 1 discriminator 2 view .LVU275
 194:C:/Users/leopi/Documents/vs/S-Reo/MazeLibrary\Searching.c **** 		for(int j=0; j < NUMBER_OF_SQUARES_Y; j++){
 1139              		.loc 1 194 2 is_stmt 0 discriminator 2 view .LVU276
 1140 0092 0F29     		cmp	r1, #15
 1141 0094 01DC     		bgt	.L71
 1142              	.LBB8:
 195:C:/Users/leopi/Documents/vs/S-Reo/MazeLibrary\Searching.c **** 			if(Visit[i][j] == true)
 1143              		.loc 1 195 11 view .LVU277
 1144 0096 0023     		movs	r3, #0
 1145              	.LVL83:
 195:C:/Users/leopi/Documents/vs/S-Reo/MazeLibrary\Searching.c **** 			if(Visit[i][j] == true)
 1146              		.loc 1 195 11 view .LVU278
 1147 0098 C6E7     		b	.L58
 1148              	.LVL84:
 1149              	.L71:
 195:C:/Users/leopi/Documents/vs/S-Reo/MazeLibrary\Searching.c **** 			if(Visit[i][j] == true)
 1150              		.loc 1 195 11 view .LVU279
 1151              	.LBE8:
 1152              	.LBE3:
 214:C:/Users/leopi/Documents/vs/S-Reo/MazeLibrary\Searching.c **** 			}
 215:C:/Users/leopi/Documents/vs/S-Reo/MazeLibrary\Searching.c **** 		}
 216:C:/Users/leopi/Documents/vs/S-Reo/MazeLibrary\Searching.c **** 	}
 217:C:/Users/leopi/Documents/vs/S-Reo/MazeLibrary\Searching.c **** }
 1153              		.loc 1 217 1 view .LVU280
 1154 009a 10BD     		pop	{r4, pc}
 1155              	.LVL85:
 1156              	.L73:
 1157              	.LCFI16:
 1158              		.cfi_def_cfa_offset 0
 1159              		.cfi_restore 4
 1160              		.cfi_restore 14
 1161              	.LBB11:
 1162              	.LBB9:
 195:C:/Users/leopi/Documents/vs/S-Reo/MazeLibrary\Searching.c **** 			if(Visit[i][j] == true)
 1163              		.loc 1 195 41 is_stmt 1 view .LVU281
 195:C:/Users/leopi/Documents/vs/S-Reo/MazeLibrary\Searching.c **** 			if(Visit[i][j] == true)
 1164              		.loc 1 195 42 is_stmt 0 view .LVU282
 1165 009c 0133     		adds	r3, r3, #1
 1166              	.LVL86:
 1167              	.L64:
 195:C:/Users/leopi/Documents/vs/S-Reo/MazeLibrary\Searching.c **** 			if(Visit[i][j] == true)
 1168              		.loc 1 195 16 is_stmt 1 view .LVU283
 195:C:/Users/leopi/Documents/vs/S-Reo/MazeLibrary\Searching.c **** 			if(Visit[i][j] == true)
 1169              		.loc 1 195 3 is_stmt 0 view .LVU284
 1170 009e 0F2B     		cmp	r3, #15
 1171 00a0 07DC     		bgt	.L72
 1172              	.LBB7:
ARM GAS  C:\Users\leopi\AppData\Local\Temp\ccMuwtHQ.s 			page 27


 196:C:/Users/leopi/Documents/vs/S-Reo/MazeLibrary\Searching.c **** 				continue;
 1173              		.loc 1 196 4 is_stmt 1 view .LVU285
 196:C:/Users/leopi/Documents/vs/S-Reo/MazeLibrary\Searching.c **** 				continue;
 1174              		.loc 1 196 15 is_stmt 0 view .LVU286
 1175 00a2 074A     		ldr	r2, .L75
 1176 00a4 02EB0112 		add	r2, r2, r1, lsl #4
 1177 00a8 D25C     		ldrb	r2, [r2, r3]	@ zero_extendqisi2
 196:C:/Users/leopi/Documents/vs/S-Reo/MazeLibrary\Searching.c **** 				continue;
 1178              		.loc 1 196 6 view .LVU287
 1179 00aa 002A     		cmp	r2, #0
 1180 00ac F6D1     		bne	.L73
 196:C:/Users/leopi/Documents/vs/S-Reo/MazeLibrary\Searching.c **** 				continue;
 1181              		.loc 1 196 6 view .LVU288
 1182              	.LBE7:
 1183              	.LBE9:
 1184              	.LBE11:
 189:C:/Users/leopi/Documents/vs/S-Reo/MazeLibrary\Searching.c **** 	//未訪問のマスをピックアップ
 1185              		.loc 1 189 42 view .LVU289
 1186 00ae 10B5     		push	{r4, lr}
 1187              	.LCFI17:
 1188              		.cfi_def_cfa_offset 8
 1189              		.cfi_offset 4, -8
 1190              		.cfi_offset 14, -4
 1191 00b0 C2E7     		b	.L63
 1192              	.L72:
 1193              	.LCFI18:
 1194              		.cfi_def_cfa_offset 0
 1195              		.cfi_restore 4
 1196              		.cfi_restore 14
 1197              	.LBB12:
 194:C:/Users/leopi/Documents/vs/S-Reo/MazeLibrary\Searching.c **** 		for(int j=0; j < NUMBER_OF_SQUARES_Y; j++){
 1198              		.loc 1 194 40 is_stmt 1 view .LVU290
 194:C:/Users/leopi/Documents/vs/S-Reo/MazeLibrary\Searching.c **** 		for(int j=0; j < NUMBER_OF_SQUARES_Y; j++){
 1199              		.loc 1 194 41 is_stmt 0 view .LVU291
 1200 00b2 0131     		adds	r1, r1, #1
 1201              	.LVL87:
 1202              	.L61:
 194:C:/Users/leopi/Documents/vs/S-Reo/MazeLibrary\Searching.c **** 		for(int j=0; j < NUMBER_OF_SQUARES_Y; j++){
 1203              		.loc 1 194 15 is_stmt 1 view .LVU292
 194:C:/Users/leopi/Documents/vs/S-Reo/MazeLibrary\Searching.c **** 		for(int j=0; j < NUMBER_OF_SQUARES_Y; j++){
 1204              		.loc 1 194 2 is_stmt 0 view .LVU293
 1205 00b4 0F29     		cmp	r1, #15
 1206 00b6 01DC     		bgt	.L74
 1207              	.LBB10:
 195:C:/Users/leopi/Documents/vs/S-Reo/MazeLibrary\Searching.c **** 			if(Visit[i][j] == true)
 1208              		.loc 1 195 11 view .LVU294
 1209 00b8 0023     		movs	r3, #0
 1210 00ba F0E7     		b	.L64
 1211              	.L74:
 1212 00bc 7047     		bx	lr
 1213              	.L76:
 1214 00be 00BF     		.align	2
 1215              	.L75:
 1216 00c0 00000000 		.word	Visit
 1217              	.LBE10:
 1218              	.LBE12:
 1219              		.cfi_endproc
ARM GAS  C:\Users\leopi\AppData\Local\Temp\ccMuwtHQ.s 			page 28


 1220              	.LFE16:
 1222              		.section	.text.getNodeInfo,"ax",%progbits
 1223              		.align	1
 1224              		.global	getNodeInfo
 1225              		.syntax unified
 1226              		.thumb
 1227              		.thumb_func
 1229              	getNodeInfo:
 1230              	.LVL88:
 1231              	.LFB18:
 218:C:/Users/leopi/Documents/vs/S-Reo/MazeLibrary\Searching.c **** 
 219:C:/Users/leopi/Documents/vs/S-Reo/MazeLibrary\Searching.c **** 
 220:C:/Users/leopi/Documents/vs/S-Reo/MazeLibrary\Searching.c **** void getNextDirection(maze_node *maze, profile *Mouse, char turn_mode, int mask)
 221:C:/Users/leopi/Documents/vs/S-Reo/MazeLibrary\Searching.c **** {
 222:C:/Users/leopi/Documents/vs/S-Reo/MazeLibrary\Searching.c **** 	Mouse->next.node = getNextNode(maze, Mouse->now.car, Mouse->now.node, mask); // 次のノードを
 223:C:/Users/leopi/Documents/vs/S-Reo/MazeLibrary\Searching.c **** 	
 224:C:/Users/leopi/Documents/vs/S-Reo/MazeLibrary\Searching.c **** 	getNextState(&(Mouse->now), &(Mouse->next), Mouse->next.node); // 現ノードと次ノードを
 225:C:/Users/leopi/Documents/vs/S-Reo/MazeLibrary\Searching.c **** }
 226:C:/Users/leopi/Documents/vs/S-Reo/MazeLibrary\Searching.c **** 
 227:C:/Users/leopi/Documents/vs/S-Reo/MazeLibrary\Searching.c **** 
 228:C:/Users/leopi/Documents/vs/S-Reo/MazeLibrary\Searching.c **** 
 229:C:/Users/leopi/Documents/vs/S-Reo/MazeLibrary\Searching.c **** 
 230:C:/Users/leopi/Documents/vs/S-Reo/MazeLibrary\Searching.c **** //今いるノード情報を返す（区画進入時の方角を使用する）
 231:C:/Users/leopi/Documents/vs/S-Reo/MazeLibrary\Searching.c **** node *getNodeInfo(maze_node *maze, uint8_t x, uint8_t y, cardinal car)
 232:C:/Users/leopi/Documents/vs/S-Reo/MazeLibrary\Searching.c **** {
 1232              		.loc 1 232 1 is_stmt 1 view -0
 1233              		.cfi_startproc
 1234              		@ args = 0, pretend = 0, frame = 0
 1235              		@ frame_needed = 0, uses_anonymous_args = 0
 1236              		.loc 1 232 1 is_stmt 0 view .LVU296
 1237 0000 00B5     		push	{lr}
 1238              	.LCFI19:
 1239              		.cfi_def_cfa_offset 4
 1240              		.cfi_offset 14, -4
 1241 0002 8446     		mov	ip, r0
 233:C:/Users/leopi/Documents/vs/S-Reo/MazeLibrary\Searching.c **** 	node *error;
 1242              		.loc 1 233 2 is_stmt 1 view .LVU297
 234:C:/Users/leopi/Documents/vs/S-Reo/MazeLibrary\Searching.c **** 	error = &(maze->RawNode[0][1]);
 1243              		.loc 1 234 2 view .LVU298
 1244              		.loc 1 234 8 is_stmt 0 view .LVU299
 1245 0004 0830     		adds	r0, r0, #8
 1246              	.LVL89:
 235:C:/Users/leopi/Documents/vs/S-Reo/MazeLibrary\Searching.c ****     //breakは要らないけどお決まりとして入れてるだけ
 236:C:/Users/leopi/Documents/vs/S-Reo/MazeLibrary\Searching.c ****     switch (car)//区画侵入時の方角
 1247              		.loc 1 236 5 is_stmt 1 view .LVU300
 1248 0006 062B     		cmp	r3, #6
 1249 0008 0CD8     		bhi	.L77
 1250 000a DFE803F0 		tbb	[pc, r3]
 1251              	.L80:
 1252 000e 04       		.byte	(.L83-.L80)/2
 1253 000f 0B       		.byte	(.L77-.L80)/2
 1254 0010 0D       		.byte	(.L82-.L80)/2
 1255 0011 0B       		.byte	(.L77-.L80)/2
 1256 0012 16       		.byte	(.L81-.L80)/2
 1257 0013 0B       		.byte	(.L77-.L80)/2
 1258 0014 1F       		.byte	(.L79-.L80)/2
 1259 0015 00       		.p2align 1
ARM GAS  C:\Users\leopi\AppData\Local\Temp\ccMuwtHQ.s 			page 29


 1260              	.L83:
 237:C:/Users/leopi/Documents/vs/S-Reo/MazeLibrary\Searching.c ****     {
 238:C:/Users/leopi/Documents/vs/S-Reo/MazeLibrary\Searching.c ****     case north:
 239:C:/Users/leopi/Documents/vs/S-Reo/MazeLibrary\Searching.c ****         //南ノードを返す
 240:C:/Users/leopi/Documents/vs/S-Reo/MazeLibrary\Searching.c ****         maze->RawNode[x][y].pos.x = x;
 1261              		.loc 1 240 9 view .LVU301
 1262              		.loc 1 240 35 is_stmt 0 view .LVU302
 1263 0016 01EB0113 		add	r3, r1, r1, lsl #4
 1264              	.LVL90:
 1265              		.loc 1 240 35 view .LVU303
 1266 001a 1344     		add	r3, r3, r2
 1267 001c 0CEBC300 		add	r0, ip, r3, lsl #3
 1268              	.LVL91:
 1269              		.loc 1 240 35 view .LVU304
 1270 0020 8171     		strb	r1, [r0, #6]
 241:C:/Users/leopi/Documents/vs/S-Reo/MazeLibrary\Searching.c ****         maze->RawNode[x][y].pos.y = y;
 1271              		.loc 1 241 9 is_stmt 1 view .LVU305
 1272              		.loc 1 241 35 is_stmt 0 view .LVU306
 1273 0022 C271     		strb	r2, [r0, #7]
 242:C:/Users/leopi/Documents/vs/S-Reo/MazeLibrary\Searching.c ****         return &(maze->RawNode[x][y]);
 1274              		.loc 1 242 9 is_stmt 1 view .LVU307
 1275              	.LVL92:
 1276              	.L77:
 243:C:/Users/leopi/Documents/vs/S-Reo/MazeLibrary\Searching.c ****         break;
 244:C:/Users/leopi/Documents/vs/S-Reo/MazeLibrary\Searching.c ****     case east:
 245:C:/Users/leopi/Documents/vs/S-Reo/MazeLibrary\Searching.c ****         //西ノードを返す
 246:C:/Users/leopi/Documents/vs/S-Reo/MazeLibrary\Searching.c ****         maze->ColumnNode[x][y].pos.x = x;
 247:C:/Users/leopi/Documents/vs/S-Reo/MazeLibrary\Searching.c ****         maze->ColumnNode[x][y].pos.y = y;
 248:C:/Users/leopi/Documents/vs/S-Reo/MazeLibrary\Searching.c ****         return &(maze->ColumnNode[x][y]);
 249:C:/Users/leopi/Documents/vs/S-Reo/MazeLibrary\Searching.c ****         break;
 250:C:/Users/leopi/Documents/vs/S-Reo/MazeLibrary\Searching.c ****     case south:
 251:C:/Users/leopi/Documents/vs/S-Reo/MazeLibrary\Searching.c ****         //北ノードを返す
 252:C:/Users/leopi/Documents/vs/S-Reo/MazeLibrary\Searching.c ****         maze->RawNode[x][y+1].pos.x = x;
 253:C:/Users/leopi/Documents/vs/S-Reo/MazeLibrary\Searching.c ****         maze->RawNode[x][y+1].pos.y = y+1;
 254:C:/Users/leopi/Documents/vs/S-Reo/MazeLibrary\Searching.c ****         return &(maze->RawNode[x][y+1]);
 255:C:/Users/leopi/Documents/vs/S-Reo/MazeLibrary\Searching.c ****         break;
 256:C:/Users/leopi/Documents/vs/S-Reo/MazeLibrary\Searching.c ****     case west:
 257:C:/Users/leopi/Documents/vs/S-Reo/MazeLibrary\Searching.c ****         //東ノードを返す
 258:C:/Users/leopi/Documents/vs/S-Reo/MazeLibrary\Searching.c ****         maze->ColumnNode[x+1][y].pos.x = x+1;
 259:C:/Users/leopi/Documents/vs/S-Reo/MazeLibrary\Searching.c ****         maze->ColumnNode[x+1][y].pos.y = y;
 260:C:/Users/leopi/Documents/vs/S-Reo/MazeLibrary\Searching.c ****         return &(maze->ColumnNode[x+1][y]);
 261:C:/Users/leopi/Documents/vs/S-Reo/MazeLibrary\Searching.c ****         break;
 262:C:/Users/leopi/Documents/vs/S-Reo/MazeLibrary\Searching.c ****     case ne:    //斜め探索では必要で、かなり面倒（侵入時の方角のあとに2
 263:C:/Users/leopi/Documents/vs/S-Reo/MazeLibrary\Searching.c ****         break;
 264:C:/Users/leopi/Documents/vs/S-Reo/MazeLibrary\Searching.c ****     case se:
 265:C:/Users/leopi/Documents/vs/S-Reo/MazeLibrary\Searching.c ****         break;
 266:C:/Users/leopi/Documents/vs/S-Reo/MazeLibrary\Searching.c ****     case sw:
 267:C:/Users/leopi/Documents/vs/S-Reo/MazeLibrary\Searching.c ****         break;
 268:C:/Users/leopi/Documents/vs/S-Reo/MazeLibrary\Searching.c ****     case nw:
 269:C:/Users/leopi/Documents/vs/S-Reo/MazeLibrary\Searching.c ****         break;
 270:C:/Users/leopi/Documents/vs/S-Reo/MazeLibrary\Searching.c ****     default:
 271:C:/Users/leopi/Documents/vs/S-Reo/MazeLibrary\Searching.c ****     	return error; //
 272:C:/Users/leopi/Documents/vs/S-Reo/MazeLibrary\Searching.c ****         break;
 273:C:/Users/leopi/Documents/vs/S-Reo/MazeLibrary\Searching.c ****     }
 274:C:/Users/leopi/Documents/vs/S-Reo/MazeLibrary\Searching.c ****     return error;
 275:C:/Users/leopi/Documents/vs/S-Reo/MazeLibrary\Searching.c **** }
 1277              		.loc 1 275 1 is_stmt 0 view .LVU308
ARM GAS  C:\Users\leopi\AppData\Local\Temp\ccMuwtHQ.s 			page 30


 1278 0024 5DF804FB 		ldr	pc, [sp], #4
 1279              	.LVL93:
 1280              	.L82:
 243:C:/Users/leopi/Documents/vs/S-Reo/MazeLibrary\Searching.c ****         break;
 1281              		.loc 1 243 9 is_stmt 1 view .LVU309
 246:C:/Users/leopi/Documents/vs/S-Reo/MazeLibrary\Searching.c ****         maze->ColumnNode[x][y].pos.y = y;
 1282              		.loc 1 246 9 view .LVU310
 246:C:/Users/leopi/Documents/vs/S-Reo/MazeLibrary\Searching.c ****         maze->ColumnNode[x][y].pos.y = y;
 1283              		.loc 1 246 38 is_stmt 0 view .LVU311
 1284 0028 02EB0113 		add	r3, r2, r1, lsl #4
 1285              	.LVL94:
 246:C:/Users/leopi/Documents/vs/S-Reo/MazeLibrary\Searching.c ****         maze->ColumnNode[x][y].pos.y = y;
 1286              		.loc 1 246 38 view .LVU312
 1287 002c 03F58873 		add	r3, r3, #272
 1288 0030 0CEBC300 		add	r0, ip, r3, lsl #3
 1289              	.LVL95:
 246:C:/Users/leopi/Documents/vs/S-Reo/MazeLibrary\Searching.c ****         maze->ColumnNode[x][y].pos.y = y;
 1290              		.loc 1 246 38 view .LVU313
 1291 0034 8171     		strb	r1, [r0, #6]
 247:C:/Users/leopi/Documents/vs/S-Reo/MazeLibrary\Searching.c ****         return &(maze->ColumnNode[x][y]);
 1292              		.loc 1 247 9 is_stmt 1 view .LVU314
 247:C:/Users/leopi/Documents/vs/S-Reo/MazeLibrary\Searching.c ****         return &(maze->ColumnNode[x][y]);
 1293              		.loc 1 247 38 is_stmt 0 view .LVU315
 1294 0036 C271     		strb	r2, [r0, #7]
 248:C:/Users/leopi/Documents/vs/S-Reo/MazeLibrary\Searching.c ****         break;
 1295              		.loc 1 248 9 is_stmt 1 view .LVU316
 248:C:/Users/leopi/Documents/vs/S-Reo/MazeLibrary\Searching.c ****         break;
 1296              		.loc 1 248 16 is_stmt 0 view .LVU317
 1297 0038 F4E7     		b	.L77
 1298              	.LVL96:
 1299              	.L81:
 249:C:/Users/leopi/Documents/vs/S-Reo/MazeLibrary\Searching.c ****     case south:
 1300              		.loc 1 249 9 is_stmt 1 view .LVU318
 252:C:/Users/leopi/Documents/vs/S-Reo/MazeLibrary\Searching.c ****         maze->RawNode[x][y+1].pos.y = y+1;
 1301              		.loc 1 252 9 view .LVU319
 252:C:/Users/leopi/Documents/vs/S-Reo/MazeLibrary\Searching.c ****         maze->RawNode[x][y+1].pos.y = y+1;
 1302              		.loc 1 252 27 is_stmt 0 view .LVU320
 1303 003a 0132     		adds	r2, r2, #1
 1304              	.LVL97:
 252:C:/Users/leopi/Documents/vs/S-Reo/MazeLibrary\Searching.c ****         maze->RawNode[x][y+1].pos.y = y+1;
 1305              		.loc 1 252 37 view .LVU321
 1306 003c 01EB0113 		add	r3, r1, r1, lsl #4
 1307              	.LVL98:
 252:C:/Users/leopi/Documents/vs/S-Reo/MazeLibrary\Searching.c ****         maze->RawNode[x][y+1].pos.y = y+1;
 1308              		.loc 1 252 37 view .LVU322
 1309 0040 1344     		add	r3, r3, r2
 1310 0042 0CEBC300 		add	r0, ip, r3, lsl #3
 1311              	.LVL99:
 252:C:/Users/leopi/Documents/vs/S-Reo/MazeLibrary\Searching.c ****         maze->RawNode[x][y+1].pos.y = y+1;
 1312              		.loc 1 252 37 view .LVU323
 1313 0046 8171     		strb	r1, [r0, #6]
 253:C:/Users/leopi/Documents/vs/S-Reo/MazeLibrary\Searching.c ****         return &(maze->RawNode[x][y+1]);
 1314              		.loc 1 253 9 is_stmt 1 view .LVU324
 253:C:/Users/leopi/Documents/vs/S-Reo/MazeLibrary\Searching.c ****         return &(maze->RawNode[x][y+1]);
 1315              		.loc 1 253 37 is_stmt 0 view .LVU325
 1316 0048 C271     		strb	r2, [r0, #7]
 254:C:/Users/leopi/Documents/vs/S-Reo/MazeLibrary\Searching.c ****         break;
ARM GAS  C:\Users\leopi\AppData\Local\Temp\ccMuwtHQ.s 			page 31


 1317              		.loc 1 254 9 is_stmt 1 view .LVU326
 254:C:/Users/leopi/Documents/vs/S-Reo/MazeLibrary\Searching.c ****         break;
 1318              		.loc 1 254 16 is_stmt 0 view .LVU327
 1319 004a EBE7     		b	.L77
 1320              	.LVL100:
 1321              	.L79:
 255:C:/Users/leopi/Documents/vs/S-Reo/MazeLibrary\Searching.c ****     case west:
 1322              		.loc 1 255 9 is_stmt 1 view .LVU328
 258:C:/Users/leopi/Documents/vs/S-Reo/MazeLibrary\Searching.c ****         maze->ColumnNode[x+1][y].pos.y = y;
 1323              		.loc 1 258 9 view .LVU329
 258:C:/Users/leopi/Documents/vs/S-Reo/MazeLibrary\Searching.c ****         maze->ColumnNode[x+1][y].pos.y = y;
 1324              		.loc 1 258 27 is_stmt 0 view .LVU330
 1325 004c 0131     		adds	r1, r1, #1
 1326              	.LVL101:
 258:C:/Users/leopi/Documents/vs/S-Reo/MazeLibrary\Searching.c ****         maze->ColumnNode[x+1][y].pos.y = y;
 1327              		.loc 1 258 40 view .LVU331
 1328 004e 02EB0113 		add	r3, r2, r1, lsl #4
 1329              	.LVL102:
 258:C:/Users/leopi/Documents/vs/S-Reo/MazeLibrary\Searching.c ****         maze->ColumnNode[x+1][y].pos.y = y;
 1330              		.loc 1 258 40 view .LVU332
 1331 0052 03F58873 		add	r3, r3, #272
 1332 0056 0CEBC300 		add	r0, ip, r3, lsl #3
 1333              	.LVL103:
 258:C:/Users/leopi/Documents/vs/S-Reo/MazeLibrary\Searching.c ****         maze->ColumnNode[x+1][y].pos.y = y;
 1334              		.loc 1 258 40 view .LVU333
 1335 005a 8171     		strb	r1, [r0, #6]
 259:C:/Users/leopi/Documents/vs/S-Reo/MazeLibrary\Searching.c ****         return &(maze->ColumnNode[x+1][y]);
 1336              		.loc 1 259 9 is_stmt 1 view .LVU334
 259:C:/Users/leopi/Documents/vs/S-Reo/MazeLibrary\Searching.c ****         return &(maze->ColumnNode[x+1][y]);
 1337              		.loc 1 259 40 is_stmt 0 view .LVU335
 1338 005c C271     		strb	r2, [r0, #7]
 260:C:/Users/leopi/Documents/vs/S-Reo/MazeLibrary\Searching.c ****         break;
 1339              		.loc 1 260 9 is_stmt 1 view .LVU336
 260:C:/Users/leopi/Documents/vs/S-Reo/MazeLibrary\Searching.c ****         break;
 1340              		.loc 1 260 16 is_stmt 0 view .LVU337
 1341 005e E1E7     		b	.L77
 1342              		.cfi_endproc
 1343              	.LFE18:
 1345              		.section	.text.getNextNode,"ax",%progbits
 1346              		.align	1
 1347              		.global	getNextNode
 1348              		.syntax unified
 1349              		.thumb
 1350              		.thumb_func
 1352              	getNextNode:
 1353              	.LVL104:
 1354              	.LFB19:
 276:C:/Users/leopi/Documents/vs/S-Reo/MazeLibrary\Searching.c **** node *getNextNode(maze_node *maze, cardinal car, node *now_node, int mask)
 277:C:/Users/leopi/Documents/vs/S-Reo/MazeLibrary\Searching.c **** {
 1355              		.loc 1 277 1 is_stmt 1 view -0
 1356              		.cfi_startproc
 1357              		@ args = 0, pretend = 0, frame = 0
 1358              		@ frame_needed = 0, uses_anonymous_args = 0
 1359              		.loc 1 277 1 is_stmt 0 view .LVU339
 1360 0000 2DE9F043 		push	{r4, r5, r6, r7, r8, r9, lr}
 1361              	.LCFI20:
 1362              		.cfi_def_cfa_offset 28
ARM GAS  C:\Users\leopi\AppData\Local\Temp\ccMuwtHQ.s 			page 32


 1363              		.cfi_offset 4, -28
 1364              		.cfi_offset 5, -24
 1365              		.cfi_offset 6, -20
 1366              		.cfi_offset 7, -16
 1367              		.cfi_offset 8, -12
 1368              		.cfi_offset 9, -8
 1369              		.cfi_offset 14, -4
 1370 0004 0546     		mov	r5, r0
 1371 0006 1046     		mov	r0, r2
 1372              	.LVL105:
 278:C:/Users/leopi/Documents/vs/S-Reo/MazeLibrary\Searching.c ****     //6ノードの重みを比較して、次のノードへのアドレスを返す
 279:C:/Users/leopi/Documents/vs/S-Reo/MazeLibrary\Searching.c ****     //現ノードの情報から見るべきノードを選び、比較する
 280:C:/Users/leopi/Documents/vs/S-Reo/MazeLibrary\Searching.c ****     //現在ノードの情報を使って周囲ノードを比較し、一番重みが低いノー
 281:C:/Users/leopi/Documents/vs/S-Reo/MazeLibrary\Searching.c ****     node *next_node;
 1373              		.loc 1 281 5 is_stmt 1 view .LVU340
 282:C:/Users/leopi/Documents/vs/S-Reo/MazeLibrary\Searching.c ****     uint16_t compare_weight=0;
 1374              		.loc 1 282 5 view .LVU341
 283:C:/Users/leopi/Documents/vs/S-Reo/MazeLibrary\Searching.c ****     compare_weight = now_node->weight;
 1375              		.loc 1 283 5 view .LVU342
 1376              		.loc 1 283 20 is_stmt 0 view .LVU343
 1377 0008 B2F802C0 		ldrh	ip, [r2, #2]
 1378              	.LVL106:
 284:C:/Users/leopi/Documents/vs/S-Reo/MazeLibrary\Searching.c **** 
 285:C:/Users/leopi/Documents/vs/S-Reo/MazeLibrary\Searching.c ****     _Bool flag=false;
 1379              		.loc 1 285 5 is_stmt 1 view .LVU344
 286:C:/Users/leopi/Documents/vs/S-Reo/MazeLibrary\Searching.c ****     //printf("マイノードが01のどちらか:%d\r\n",now_node->rc);
 287:C:/Users/leopi/Documents/vs/S-Reo/MazeLibrary\Searching.c ****     if(now_node->rc == 0)
 1380              		.loc 1 287 5 view .LVU345
 1381              		.loc 1 287 16 is_stmt 0 view .LVU346
 1382 000c 5179     		ldrb	r1, [r2, #5]	@ zero_extendqisi2
 1383              	.LVL107:
 1384              		.loc 1 287 7 view .LVU347
 1385 000e 0029     		cmp	r1, #0
 1386 0010 40F0AE80 		bne	.L86
 288:C:/Users/leopi/Documents/vs/S-Reo/MazeLibrary\Searching.c ****     {
 289:C:/Users/leopi/Documents/vs/S-Reo/MazeLibrary\Searching.c **** #if DEBUG_ON
 290:C:/Users/leopi/Documents/vs/S-Reo/MazeLibrary\Searching.c ****         printf("行ノードから");
 291:C:/Users/leopi/Documents/vs/S-Reo/MazeLibrary\Searching.c **** #endif
 292:C:/Users/leopi/Documents/vs/S-Reo/MazeLibrary\Searching.c ****         //条件がおかしい？printしている全ノードの重みと、アドレスを入れ
 293:C:/Users/leopi/Documents/vs/S-Reo/MazeLibrary\Searching.c **** 
 294:C:/Users/leopi/Documents/vs/S-Reo/MazeLibrary\Searching.c ****         //行にいるとき
 295:C:/Users/leopi/Documents/vs/S-Reo/MazeLibrary\Searching.c ****         //北側ノード
 296:C:/Users/leopi/Documents/vs/S-Reo/MazeLibrary\Searching.c ****         if(now_node->pos.y < NUMBER_OF_SQUARES_Y-1)					//範囲チェック
 1387              		.loc 1 296 9 is_stmt 1 view .LVU348
 1388              		.loc 1 296 25 is_stmt 0 view .LVU349
 1389 0014 D279     		ldrb	r2, [r2, #7]	@ zero_extendqisi2
 1390              	.LVL108:
 1391              		.loc 1 296 11 view .LVU350
 1392 0016 0E2A     		cmp	r2, #14
 1393 0018 1FD8     		bhi	.L87
 297:C:/Users/leopi/Documents/vs/S-Reo/MazeLibrary\Searching.c ****         {
 298:C:/Users/leopi/Documents/vs/S-Reo/MazeLibrary\Searching.c **** 
 299:C:/Users/leopi/Documents/vs/S-Reo/MazeLibrary\Searching.c ****             //printf("%u\r\n",now_node->pos.y);
 300:C:/Users/leopi/Documents/vs/S-Reo/MazeLibrary\Searching.c ****             if( (maze->RawNode[now_node->pos.x][now_node->pos.y+1].existence & mask) == NOWALL)	//
 1394              		.loc 1 300 13 is_stmt 1 view .LVU351
 1395              		.loc 1 300 45 is_stmt 0 view .LVU352
 1396 001a 8679     		ldrb	r6, [r0, #6]	@ zero_extendqisi2
ARM GAS  C:\Users\leopi\AppData\Local\Temp\ccMuwtHQ.s 			page 33


 1397              		.loc 1 300 64 view .LVU353
 1398 001c 571C     		adds	r7, r2, #1
 1399              		.loc 1 300 67 view .LVU354
 1400 001e 06EB0614 		add	r4, r6, r6, lsl #4
 1401 0022 3C44     		add	r4, r4, r7
 1402 0024 15F83440 		ldrb	r4, [r5, r4, lsl #3]	@ zero_extendqisi2
 1403              		.loc 1 300 15 view .LVU355
 1404 0028 1C42     		tst	r4, r3
 1405 002a 16D1     		bne	.L87
 1406              	.LBB13:
 301:C:/Users/leopi/Documents/vs/S-Reo/MazeLibrary\Searching.c ****             {
 302:C:/Users/leopi/Documents/vs/S-Reo/MazeLibrary\Searching.c ****             	static int cnt = 1;
 1407              		.loc 1 302 14 is_stmt 1 view .LVU356
 303:C:/Users/leopi/Documents/vs/S-Reo/MazeLibrary\Searching.c **** //            				ChangeLED(cnt%7);
 304:C:/Users/leopi/Documents/vs/S-Reo/MazeLibrary\Searching.c ****             				cnt ++;
 1408              		.loc 1 304 17 view .LVU357
 1409              		.loc 1 304 21 is_stmt 0 view .LVU358
 1410 002c DFF89C82 		ldr	r8, .L107
 1411 0030 D8F80040 		ldr	r4, [r8]
 1412 0034 0134     		adds	r4, r4, #1
 1413 0036 C8F80040 		str	r4, [r8]
 305:C:/Users/leopi/Documents/vs/S-Reo/MazeLibrary\Searching.c **** 
 306:C:/Users/leopi/Documents/vs/S-Reo/MazeLibrary\Searching.c **** 
 307:C:/Users/leopi/Documents/vs/S-Reo/MazeLibrary\Searching.c ****                 // printf("%d\r\n", maze->RawNode[now_node->pos.x][now_node->pos.y+1].existence);//
 308:C:/Users/leopi/Documents/vs/S-Reo/MazeLibrary\Searching.c ****                 if(compare_weight > maze->RawNode[now_node->pos.x][now_node->pos.y+1].weight)
 1414              		.loc 1 308 17 is_stmt 1 view .LVU359
 1415              		.loc 1 308 86 is_stmt 0 view .LVU360
 1416 003a 06EB0614 		add	r4, r6, r6, lsl #4
 1417 003e 3C44     		add	r4, r4, r7
 1418 0040 05EBC404 		add	r4, r5, r4, lsl #3
 1419 0044 6488     		ldrh	r4, [r4, #2]
 1420              		.loc 1 308 19 view .LVU361
 1421 0046 6445     		cmp	r4, ip
 1422 0048 07D2     		bcs	.L87
 309:C:/Users/leopi/Documents/vs/S-Reo/MazeLibrary\Searching.c ****                 {
 310:C:/Users/leopi/Documents/vs/S-Reo/MazeLibrary\Searching.c **** 
 311:C:/Users/leopi/Documents/vs/S-Reo/MazeLibrary\Searching.c **** #if DEBUG_ON
 312:C:/Users/leopi/Documents/vs/S-Reo/MazeLibrary\Searching.c ****                     printf("北へ\r\n");
 313:C:/Users/leopi/Documents/vs/S-Reo/MazeLibrary\Searching.c **** #endif
 314:C:/Users/leopi/Documents/vs/S-Reo/MazeLibrary\Searching.c ****                     compare_weight = maze->RawNode[now_node->pos.x][now_node->pos.y+1].weight;
 1423              		.loc 1 314 21 is_stmt 1 view .LVU362
 1424              	.LVL109:
 315:C:/Users/leopi/Documents/vs/S-Reo/MazeLibrary\Searching.c ****                     next_node = &(maze->RawNode[now_node->pos.x][now_node->pos.y+1]);
 1425              		.loc 1 315 21 view .LVU363
 1426              		.loc 1 315 31 is_stmt 0 view .LVU364
 1427 004a 06EB0616 		add	r6, r6, r6, lsl #4
 1428 004e 06EB070E 		add	lr, r6, r7
 1429 0052 05EBCE0E 		add	lr, r5, lr, lsl #3
 1430              	.LVL110:
 316:C:/Users/leopi/Documents/vs/S-Reo/MazeLibrary\Searching.c ****                     flag = true;
 1431              		.loc 1 316 21 is_stmt 1 view .LVU365
 314:C:/Users/leopi/Documents/vs/S-Reo/MazeLibrary\Searching.c ****                     next_node = &(maze->RawNode[now_node->pos.x][now_node->pos.y+1]);
 1432              		.loc 1 314 36 is_stmt 0 view .LVU366
 1433 0056 A446     		mov	ip, r4
 1434              		.loc 1 316 26 view .LVU367
 1435 0058 0121     		movs	r1, #1
 1436              	.LVL111:
ARM GAS  C:\Users\leopi\AppData\Local\Temp\ccMuwtHQ.s 			page 34


 1437              	.L87:
 1438              		.loc 1 316 26 view .LVU368
 1439              	.LBE13:
 317:C:/Users/leopi/Documents/vs/S-Reo/MazeLibrary\Searching.c ****                 }
 318:C:/Users/leopi/Documents/vs/S-Reo/MazeLibrary\Searching.c ****             }
 319:C:/Users/leopi/Documents/vs/S-Reo/MazeLibrary\Searching.c ****         }
 320:C:/Users/leopi/Documents/vs/S-Reo/MazeLibrary\Searching.c ****         //南へ側ノード
 321:C:/Users/leopi/Documents/vs/S-Reo/MazeLibrary\Searching.c ****         if(now_node->pos.y > 1)						//範囲チェック
 1440              		.loc 1 321 9 is_stmt 1 view .LVU369
 1441              		.loc 1 321 11 is_stmt 0 view .LVU370
 1442 005a 012A     		cmp	r2, #1
 1443 005c 18D9     		bls	.L88
 322:C:/Users/leopi/Documents/vs/S-Reo/MazeLibrary\Searching.c ****         {
 323:C:/Users/leopi/Documents/vs/S-Reo/MazeLibrary\Searching.c ****             if( (maze->RawNode[now_node->pos.x][now_node->pos.y-1].existence & mask) == NOWALL)	//
 1444              		.loc 1 323 13 is_stmt 1 view .LVU371
 1445              		.loc 1 323 45 is_stmt 0 view .LVU372
 1446 005e 8479     		ldrb	r4, [r0, #6]	@ zero_extendqisi2
 1447              		.loc 1 323 64 view .LVU373
 1448 0060 571E     		subs	r7, r2, #1
 1449              		.loc 1 323 67 view .LVU374
 1450 0062 04EB0416 		add	r6, r4, r4, lsl #4
 1451 0066 3E44     		add	r6, r6, r7
 1452 0068 15F83660 		ldrb	r6, [r5, r6, lsl #3]	@ zero_extendqisi2
 1453              		.loc 1 323 15 view .LVU375
 1454 006c 1E42     		tst	r6, r3
 1455 006e 0FD1     		bne	.L88
 324:C:/Users/leopi/Documents/vs/S-Reo/MazeLibrary\Searching.c ****             {
 325:C:/Users/leopi/Documents/vs/S-Reo/MazeLibrary\Searching.c ****                 //重みを比較して更新
 326:C:/Users/leopi/Documents/vs/S-Reo/MazeLibrary\Searching.c ****                 if(compare_weight > maze->RawNode[now_node->pos.x][now_node->pos.y-1].weight)
 1456              		.loc 1 326 17 is_stmt 1 view .LVU376
 1457              		.loc 1 326 86 is_stmt 0 view .LVU377
 1458 0070 04EB0416 		add	r6, r4, r4, lsl #4
 1459 0074 3E44     		add	r6, r6, r7
 1460 0076 05EBC606 		add	r6, r5, r6, lsl #3
 1461 007a 7688     		ldrh	r6, [r6, #2]
 1462              		.loc 1 326 19 view .LVU378
 1463 007c 6645     		cmp	r6, ip
 1464 007e 07D2     		bcs	.L88
 327:C:/Users/leopi/Documents/vs/S-Reo/MazeLibrary\Searching.c ****                 {
 328:C:/Users/leopi/Documents/vs/S-Reo/MazeLibrary\Searching.c **** #if DEBUG_ON
 329:C:/Users/leopi/Documents/vs/S-Reo/MazeLibrary\Searching.c ****                     printf("南へ\r\n");
 330:C:/Users/leopi/Documents/vs/S-Reo/MazeLibrary\Searching.c **** #endif
 331:C:/Users/leopi/Documents/vs/S-Reo/MazeLibrary\Searching.c ****                     compare_weight = maze->RawNode[now_node->pos.x][now_node->pos.y-1].weight;
 1465              		.loc 1 331 21 is_stmt 1 view .LVU379
 1466              	.LVL112:
 332:C:/Users/leopi/Documents/vs/S-Reo/MazeLibrary\Searching.c ****                     next_node = &(maze->RawNode[now_node->pos.x][now_node->pos.y-1]);
 1467              		.loc 1 332 21 view .LVU380
 1468              		.loc 1 332 31 is_stmt 0 view .LVU381
 1469 0080 04EB0414 		add	r4, r4, r4, lsl #4
 1470 0084 04EB070E 		add	lr, r4, r7
 1471              	.LVL113:
 1472              		.loc 1 332 31 view .LVU382
 1473 0088 05EBCE0E 		add	lr, r5, lr, lsl #3
 1474              	.LVL114:
 333:C:/Users/leopi/Documents/vs/S-Reo/MazeLibrary\Searching.c ****                     flag = true;
 1475              		.loc 1 333 21 is_stmt 1 view .LVU383
 331:C:/Users/leopi/Documents/vs/S-Reo/MazeLibrary\Searching.c ****                     next_node = &(maze->RawNode[now_node->pos.x][now_node->pos.y-1]);
ARM GAS  C:\Users\leopi\AppData\Local\Temp\ccMuwtHQ.s 			page 35


 1476              		.loc 1 331 36 is_stmt 0 view .LVU384
 1477 008c B446     		mov	ip, r6
 1478              		.loc 1 333 26 view .LVU385
 1479 008e 0121     		movs	r1, #1
 1480              	.LVL115:
 1481              	.L88:
 334:C:/Users/leopi/Documents/vs/S-Reo/MazeLibrary\Searching.c ****                 }
 335:C:/Users/leopi/Documents/vs/S-Reo/MazeLibrary\Searching.c ****             }
 336:C:/Users/leopi/Documents/vs/S-Reo/MazeLibrary\Searching.c ****         }
 337:C:/Users/leopi/Documents/vs/S-Reo/MazeLibrary\Searching.c ****         //東へ側に斜めが2方向
 338:C:/Users/leopi/Documents/vs/S-Reo/MazeLibrary\Searching.c ****         if(now_node->pos.x +1 < NUMBER_OF_SQUARES_X)					//範囲チェック
 1482              		.loc 1 338 9 is_stmt 1 view .LVU386
 1483              		.loc 1 338 25 is_stmt 0 view .LVU387
 1484 0090 8479     		ldrb	r4, [r0, #6]	@ zero_extendqisi2
 1485              		.loc 1 338 11 view .LVU388
 1486 0092 0E2C     		cmp	r4, #14
 1487 0094 34D8     		bhi	.L89
 339:C:/Users/leopi/Documents/vs/S-Reo/MazeLibrary\Searching.c ****         {
 340:C:/Users/leopi/Documents/vs/S-Reo/MazeLibrary\Searching.c ****             //北東へ
 341:C:/Users/leopi/Documents/vs/S-Reo/MazeLibrary\Searching.c ****             if( (maze->ColumnNode[now_node->pos.x+1][now_node->pos.y].existence & mask) == NOWALL)	
 1488              		.loc 1 341 13 is_stmt 1 view .LVU389
 1489              		.loc 1 341 50 is_stmt 0 view .LVU390
 1490 0096 661C     		adds	r6, r4, #1
 1491              		.loc 1 341 70 view .LVU391
 1492 0098 02EB0617 		add	r7, r2, r6, lsl #4
 1493 009c 07F58877 		add	r7, r7, #272
 1494 00a0 15F83770 		ldrb	r7, [r5, r7, lsl #3]	@ zero_extendqisi2
 1495              		.loc 1 341 15 view .LVU392
 1496 00a4 1F42     		tst	r7, r3
 1497 00a6 10D1     		bne	.L90
 342:C:/Users/leopi/Documents/vs/S-Reo/MazeLibrary\Searching.c ****             {
 343:C:/Users/leopi/Documents/vs/S-Reo/MazeLibrary\Searching.c ****                 //重みを比較して更新
 344:C:/Users/leopi/Documents/vs/S-Reo/MazeLibrary\Searching.c ****                 if(compare_weight > maze->ColumnNode[now_node->pos.x+1][now_node->pos.y].weight)
 1498              		.loc 1 344 17 is_stmt 1 view .LVU393
 1499              		.loc 1 344 89 is_stmt 0 view .LVU394
 1500 00a8 02EB0617 		add	r7, r2, r6, lsl #4
 1501 00ac 07F58877 		add	r7, r7, #272
 1502 00b0 05EBC707 		add	r7, r5, r7, lsl #3
 1503 00b4 7F88     		ldrh	r7, [r7, #2]
 1504              		.loc 1 344 19 view .LVU395
 1505 00b6 6745     		cmp	r7, ip
 1506 00b8 07D2     		bcs	.L90
 345:C:/Users/leopi/Documents/vs/S-Reo/MazeLibrary\Searching.c ****                 {
 346:C:/Users/leopi/Documents/vs/S-Reo/MazeLibrary\Searching.c **** #if DEBUG_ON
 347:C:/Users/leopi/Documents/vs/S-Reo/MazeLibrary\Searching.c ****                     printf("北東へ\r\n");
 348:C:/Users/leopi/Documents/vs/S-Reo/MazeLibrary\Searching.c **** #endif
 349:C:/Users/leopi/Documents/vs/S-Reo/MazeLibrary\Searching.c ****                     compare_weight = maze->ColumnNode[now_node->pos.x+1][now_node->pos.y].weight;
 1507              		.loc 1 349 21 is_stmt 1 view .LVU396
 1508              	.LVL116:
 350:C:/Users/leopi/Documents/vs/S-Reo/MazeLibrary\Searching.c ****                     next_node = &(maze->ColumnNode[now_node->pos.x+1][now_node->pos.y]);
 1509              		.loc 1 350 21 view .LVU397
 1510              		.loc 1 350 31 is_stmt 0 view .LVU398
 1511 00ba 02EB061E 		add	lr, r2, r6, lsl #4
 1512              	.LVL117:
 1513              		.loc 1 350 31 view .LVU399
 1514 00be 0EF5887E 		add	lr, lr, #272
 1515 00c2 05EBCE0E 		add	lr, r5, lr, lsl #3
ARM GAS  C:\Users\leopi\AppData\Local\Temp\ccMuwtHQ.s 			page 36


 1516              	.LVL118:
 351:C:/Users/leopi/Documents/vs/S-Reo/MazeLibrary\Searching.c ****                     flag = true;
 1517              		.loc 1 351 21 is_stmt 1 view .LVU400
 349:C:/Users/leopi/Documents/vs/S-Reo/MazeLibrary\Searching.c ****                     next_node = &(maze->ColumnNode[now_node->pos.x+1][now_node->pos.y]);
 1518              		.loc 1 349 36 is_stmt 0 view .LVU401
 1519 00c6 BC46     		mov	ip, r7
 1520              		.loc 1 351 26 view .LVU402
 1521 00c8 0121     		movs	r1, #1
 1522              	.LVL119:
 1523              	.L90:
 352:C:/Users/leopi/Documents/vs/S-Reo/MazeLibrary\Searching.c ****                 }
 353:C:/Users/leopi/Documents/vs/S-Reo/MazeLibrary\Searching.c ****             }
 354:C:/Users/leopi/Documents/vs/S-Reo/MazeLibrary\Searching.c **** 
 355:C:/Users/leopi/Documents/vs/S-Reo/MazeLibrary\Searching.c ****             //南へ東へ
 356:C:/Users/leopi/Documents/vs/S-Reo/MazeLibrary\Searching.c ****             if( (maze->ColumnNode[now_node->pos.x+1][now_node->pos.y-1].existence & mask) == NOWALL
 1524              		.loc 1 356 13 is_stmt 1 view .LVU403
 1525              		.loc 1 356 69 is_stmt 0 view .LVU404
 1526 00ca 02F1FF38 		add	r8, r2, #-1
 1527              		.loc 1 356 72 view .LVU405
 1528 00ce 08EB0617 		add	r7, r8, r6, lsl #4
 1529 00d2 07F58877 		add	r7, r7, #272
 1530 00d6 15F83770 		ldrb	r7, [r5, r7, lsl #3]	@ zero_extendqisi2
 1531              		.loc 1 356 15 view .LVU406
 1532 00da 1F42     		tst	r7, r3
 1533 00dc 10D1     		bne	.L89
 357:C:/Users/leopi/Documents/vs/S-Reo/MazeLibrary\Searching.c ****             {
 358:C:/Users/leopi/Documents/vs/S-Reo/MazeLibrary\Searching.c ****                 //重みを比較して更新
 359:C:/Users/leopi/Documents/vs/S-Reo/MazeLibrary\Searching.c ****                 if(compare_weight > maze->ColumnNode[now_node->pos.x+1][now_node->pos.y-1].weight)
 1534              		.loc 1 359 17 is_stmt 1 view .LVU407
 1535              		.loc 1 359 91 is_stmt 0 view .LVU408
 1536 00de 08EB0617 		add	r7, r8, r6, lsl #4
 1537 00e2 07F58877 		add	r7, r7, #272
 1538 00e6 05EBC707 		add	r7, r5, r7, lsl #3
 1539 00ea 7F88     		ldrh	r7, [r7, #2]
 1540              		.loc 1 359 19 view .LVU409
 1541 00ec 6745     		cmp	r7, ip
 1542 00ee 07D2     		bcs	.L89
 360:C:/Users/leopi/Documents/vs/S-Reo/MazeLibrary\Searching.c ****                 {
 361:C:/Users/leopi/Documents/vs/S-Reo/MazeLibrary\Searching.c **** #if DEBUG_ON
 362:C:/Users/leopi/Documents/vs/S-Reo/MazeLibrary\Searching.c ****                     printf("南東へ\r\n");
 363:C:/Users/leopi/Documents/vs/S-Reo/MazeLibrary\Searching.c **** #endif
 364:C:/Users/leopi/Documents/vs/S-Reo/MazeLibrary\Searching.c ****                     compare_weight = maze->ColumnNode[now_node->pos.x+1][now_node->pos.y-1].weight;
 1543              		.loc 1 364 21 is_stmt 1 view .LVU410
 1544              	.LVL120:
 365:C:/Users/leopi/Documents/vs/S-Reo/MazeLibrary\Searching.c ****                     next_node = &(maze->ColumnNode[now_node->pos.x+1][now_node->pos.y-1]);
 1545              		.loc 1 365 21 view .LVU411
 1546              		.loc 1 365 31 is_stmt 0 view .LVU412
 1547 00f0 08EB061E 		add	lr, r8, r6, lsl #4
 1548              	.LVL121:
 1549              		.loc 1 365 31 view .LVU413
 1550 00f4 0EF5887E 		add	lr, lr, #272
 1551 00f8 05EBCE0E 		add	lr, r5, lr, lsl #3
 1552              	.LVL122:
 366:C:/Users/leopi/Documents/vs/S-Reo/MazeLibrary\Searching.c ****                     flag = true;
 1553              		.loc 1 366 21 is_stmt 1 view .LVU414
 364:C:/Users/leopi/Documents/vs/S-Reo/MazeLibrary\Searching.c ****                     next_node = &(maze->ColumnNode[now_node->pos.x+1][now_node->pos.y-1]);
 1554              		.loc 1 364 36 is_stmt 0 view .LVU415
ARM GAS  C:\Users\leopi\AppData\Local\Temp\ccMuwtHQ.s 			page 37


 1555 00fc BC46     		mov	ip, r7
 1556              		.loc 1 366 26 view .LVU416
 1557 00fe 0121     		movs	r1, #1
 1558              	.LVL123:
 1559              	.L89:
 367:C:/Users/leopi/Documents/vs/S-Reo/MazeLibrary\Searching.c ****                 }
 368:C:/Users/leopi/Documents/vs/S-Reo/MazeLibrary\Searching.c ****             }
 369:C:/Users/leopi/Documents/vs/S-Reo/MazeLibrary\Searching.c ****         }
 370:C:/Users/leopi/Documents/vs/S-Reo/MazeLibrary\Searching.c **** 
 371:C:/Users/leopi/Documents/vs/S-Reo/MazeLibrary\Searching.c ****         //西へ側に斜めが2方向
 372:C:/Users/leopi/Documents/vs/S-Reo/MazeLibrary\Searching.c ****         if(now_node->pos.x > 0)						//範囲チェック
 1560              		.loc 1 372 9 is_stmt 1 view .LVU417
 1561              		.loc 1 372 11 is_stmt 0 view .LVU418
 1562 0100 002C     		cmp	r4, #0
 1563 0102 00F0DD80 		beq	.L91
 373:C:/Users/leopi/Documents/vs/S-Reo/MazeLibrary\Searching.c ****         {
 374:C:/Users/leopi/Documents/vs/S-Reo/MazeLibrary\Searching.c ****             //北西へ
 375:C:/Users/leopi/Documents/vs/S-Reo/MazeLibrary\Searching.c ****             if( (maze->ColumnNode[now_node->pos.x][now_node->pos.y].existence & mask) == NOWALL)		/
 1564              		.loc 1 375 13 is_stmt 1 view .LVU419
 1565              		.loc 1 375 68 is_stmt 0 view .LVU420
 1566 0106 02EB0416 		add	r6, r2, r4, lsl #4
 1567 010a 06F58876 		add	r6, r6, #272
 1568 010e 15F83660 		ldrb	r6, [r5, r6, lsl #3]	@ zero_extendqisi2
 1569              		.loc 1 375 15 view .LVU421
 1570 0112 1E42     		tst	r6, r3
 1571 0114 10D1     		bne	.L92
 376:C:/Users/leopi/Documents/vs/S-Reo/MazeLibrary\Searching.c ****             {
 377:C:/Users/leopi/Documents/vs/S-Reo/MazeLibrary\Searching.c ****                 //重みを比較して更新
 378:C:/Users/leopi/Documents/vs/S-Reo/MazeLibrary\Searching.c **** 
 379:C:/Users/leopi/Documents/vs/S-Reo/MazeLibrary\Searching.c ****                 if(compare_weight > maze->ColumnNode[now_node->pos.x][now_node->pos.y].weight)
 1572              		.loc 1 379 17 is_stmt 1 view .LVU422
 1573              		.loc 1 379 87 is_stmt 0 view .LVU423
 1574 0116 02EB0416 		add	r6, r2, r4, lsl #4
 1575 011a 06F58876 		add	r6, r6, #272
 1576 011e 05EBC606 		add	r6, r5, r6, lsl #3
 1577 0122 7688     		ldrh	r6, [r6, #2]
 1578              		.loc 1 379 19 view .LVU424
 1579 0124 6645     		cmp	r6, ip
 1580 0126 07D2     		bcs	.L92
 380:C:/Users/leopi/Documents/vs/S-Reo/MazeLibrary\Searching.c ****                 {
 381:C:/Users/leopi/Documents/vs/S-Reo/MazeLibrary\Searching.c **** #if DEBUG_ON
 382:C:/Users/leopi/Documents/vs/S-Reo/MazeLibrary\Searching.c ****                     printf("北西へ\r\n");
 383:C:/Users/leopi/Documents/vs/S-Reo/MazeLibrary\Searching.c **** #endif
 384:C:/Users/leopi/Documents/vs/S-Reo/MazeLibrary\Searching.c ****                     compare_weight = maze->ColumnNode[now_node->pos.x][now_node->pos.y].weight;
 1581              		.loc 1 384 21 is_stmt 1 view .LVU425
 1582              	.LVL124:
 385:C:/Users/leopi/Documents/vs/S-Reo/MazeLibrary\Searching.c ****                     next_node = &(maze->ColumnNode[now_node->pos.x][now_node->pos.y]);
 1583              		.loc 1 385 21 view .LVU426
 1584              		.loc 1 385 31 is_stmt 0 view .LVU427
 1585 0128 02EB041E 		add	lr, r2, r4, lsl #4
 1586              	.LVL125:
 1587              		.loc 1 385 31 view .LVU428
 1588 012c 0EF5887E 		add	lr, lr, #272
 1589 0130 05EBCE0E 		add	lr, r5, lr, lsl #3
 1590              	.LVL126:
 386:C:/Users/leopi/Documents/vs/S-Reo/MazeLibrary\Searching.c ****                     flag = true;
 1591              		.loc 1 386 21 is_stmt 1 view .LVU429
ARM GAS  C:\Users\leopi\AppData\Local\Temp\ccMuwtHQ.s 			page 38


 384:C:/Users/leopi/Documents/vs/S-Reo/MazeLibrary\Searching.c ****                     next_node = &(maze->ColumnNode[now_node->pos.x][now_node->pos.y]);
 1592              		.loc 1 384 36 is_stmt 0 view .LVU430
 1593 0134 B446     		mov	ip, r6
 1594              		.loc 1 386 26 view .LVU431
 1595 0136 0121     		movs	r1, #1
 1596              	.LVL127:
 1597              	.L92:
 387:C:/Users/leopi/Documents/vs/S-Reo/MazeLibrary\Searching.c ****                 }
 388:C:/Users/leopi/Documents/vs/S-Reo/MazeLibrary\Searching.c ****             }
 389:C:/Users/leopi/Documents/vs/S-Reo/MazeLibrary\Searching.c ****             //南へ西へ
 390:C:/Users/leopi/Documents/vs/S-Reo/MazeLibrary\Searching.c ****             if( (maze->ColumnNode[now_node->pos.x][now_node->pos.y-1].existence & mask) == NOWALL)	
 1598              		.loc 1 390 13 is_stmt 1 view .LVU432
 1599              		.loc 1 390 67 is_stmt 0 view .LVU433
 1600 0138 013A     		subs	r2, r2, #1
 1601              		.loc 1 390 70 view .LVU434
 1602 013a 02EB0416 		add	r6, r2, r4, lsl #4
 1603 013e 06F58876 		add	r6, r6, #272
 1604 0142 15F83660 		ldrb	r6, [r5, r6, lsl #3]	@ zero_extendqisi2
 1605              		.loc 1 390 15 view .LVU435
 1606 0146 1E42     		tst	r6, r3
 1607 0148 40F0BA80 		bne	.L91
 391:C:/Users/leopi/Documents/vs/S-Reo/MazeLibrary\Searching.c ****             {
 392:C:/Users/leopi/Documents/vs/S-Reo/MazeLibrary\Searching.c ****                 //重みを比較して更新
 393:C:/Users/leopi/Documents/vs/S-Reo/MazeLibrary\Searching.c ****                 if(compare_weight > maze->ColumnNode[now_node->pos.x][now_node->pos.y-1].weight)
 1608              		.loc 1 393 17 is_stmt 1 view .LVU436
 1609              		.loc 1 393 89 is_stmt 0 view .LVU437
 1610 014c 02EB0413 		add	r3, r2, r4, lsl #4
 1611              	.LVL128:
 1612              		.loc 1 393 89 view .LVU438
 1613 0150 03F58873 		add	r3, r3, #272
 1614 0154 05EBC303 		add	r3, r5, r3, lsl #3
 1615 0158 5B88     		ldrh	r3, [r3, #2]
 1616              		.loc 1 393 19 view .LVU439
 1617 015a 6345     		cmp	r3, ip
 1618 015c 80F0B080 		bcs	.L91
 394:C:/Users/leopi/Documents/vs/S-Reo/MazeLibrary\Searching.c ****                 {
 395:C:/Users/leopi/Documents/vs/S-Reo/MazeLibrary\Searching.c **** #if DEBUG_ON
 396:C:/Users/leopi/Documents/vs/S-Reo/MazeLibrary\Searching.c ****                     printf("南西へ\r\n");
 397:C:/Users/leopi/Documents/vs/S-Reo/MazeLibrary\Searching.c **** #endif
 398:C:/Users/leopi/Documents/vs/S-Reo/MazeLibrary\Searching.c ****                     compare_weight = maze->ColumnNode[now_node->pos.x][now_node->pos.y-1].weight;
 1619              		.loc 1 398 21 is_stmt 1 view .LVU440
 1620              	.LVL129:
 399:C:/Users/leopi/Documents/vs/S-Reo/MazeLibrary\Searching.c ****                     next_node = &(maze->ColumnNode[now_node->pos.x][now_node->pos.y-1]);
 1621              		.loc 1 399 21 view .LVU441
 1622              		.loc 1 399 31 is_stmt 0 view .LVU442
 1623 0160 02EB0412 		add	r2, r2, r4, lsl #4
 1624 0164 02F5887E 		add	lr, r2, #272
 1625              	.LVL130:
 1626              		.loc 1 399 31 view .LVU443
 1627 0168 05EBCE0E 		add	lr, r5, lr, lsl #3
 1628              	.LVL131:
 400:C:/Users/leopi/Documents/vs/S-Reo/MazeLibrary\Searching.c ****                     //このノードあやしい
 401:C:/Users/leopi/Documents/vs/S-Reo/MazeLibrary\Searching.c ****                     flag = true;
 1629              		.loc 1 401 21 is_stmt 1 view .LVU444
 402:C:/Users/leopi/Documents/vs/S-Reo/MazeLibrary\Searching.c ****                 }
 403:C:/Users/leopi/Documents/vs/S-Reo/MazeLibrary\Searching.c ****             }
 404:C:/Users/leopi/Documents/vs/S-Reo/MazeLibrary\Searching.c ****         }
ARM GAS  C:\Users\leopi\AppData\Local\Temp\ccMuwtHQ.s 			page 39


 405:C:/Users/leopi/Documents/vs/S-Reo/MazeLibrary\Searching.c ****         //6つのうち最小ノードを選ぶ
 406:C:/Users/leopi/Documents/vs/S-Reo/MazeLibrary\Searching.c ****     }
 407:C:/Users/leopi/Documents/vs/S-Reo/MazeLibrary\Searching.c ****     else if(now_node->rc == 1)
 408:C:/Users/leopi/Documents/vs/S-Reo/MazeLibrary\Searching.c ****     {
 409:C:/Users/leopi/Documents/vs/S-Reo/MazeLibrary\Searching.c ****         //printf("列にいる\r\n");
 410:C:/Users/leopi/Documents/vs/S-Reo/MazeLibrary\Searching.c ****         //列にいるとき
 411:C:/Users/leopi/Documents/vs/S-Reo/MazeLibrary\Searching.c **** #if DEBUG_ON
 412:C:/Users/leopi/Documents/vs/S-Reo/MazeLibrary\Searching.c ****         printf("列ノードから");
 413:C:/Users/leopi/Documents/vs/S-Reo/MazeLibrary\Searching.c **** #endif
 414:C:/Users/leopi/Documents/vs/S-Reo/MazeLibrary\Searching.c ****         //東へ側ノード
 415:C:/Users/leopi/Documents/vs/S-Reo/MazeLibrary\Searching.c ****         if(now_node->pos.x < NUMBER_OF_SQUARES_X-1)					//範囲チェック
 416:C:/Users/leopi/Documents/vs/S-Reo/MazeLibrary\Searching.c ****         {
 417:C:/Users/leopi/Documents/vs/S-Reo/MazeLibrary\Searching.c ****             if( (maze->ColumnNode[now_node->pos.x+1][now_node->pos.y].existence & mask) == NOWALL)	
 418:C:/Users/leopi/Documents/vs/S-Reo/MazeLibrary\Searching.c ****             {
 419:C:/Users/leopi/Documents/vs/S-Reo/MazeLibrary\Searching.c ****                 if(compare_weight > maze->ColumnNode[now_node->pos.x+1][now_node->pos.y].weight)
 420:C:/Users/leopi/Documents/vs/S-Reo/MazeLibrary\Searching.c ****                 {
 421:C:/Users/leopi/Documents/vs/S-Reo/MazeLibrary\Searching.c **** #if DEBUG_ON
 422:C:/Users/leopi/Documents/vs/S-Reo/MazeLibrary\Searching.c ****                     printf("東へ\r\n");
 423:C:/Users/leopi/Documents/vs/S-Reo/MazeLibrary\Searching.c **** #endif
 424:C:/Users/leopi/Documents/vs/S-Reo/MazeLibrary\Searching.c ****                     //
 425:C:/Users/leopi/Documents/vs/S-Reo/MazeLibrary\Searching.c **** //                    ChangeLED(2);
 426:C:/Users/leopi/Documents/vs/S-Reo/MazeLibrary\Searching.c ****                     compare_weight = maze->ColumnNode[now_node->pos.x+1][now_node->pos.y].weight;
 427:C:/Users/leopi/Documents/vs/S-Reo/MazeLibrary\Searching.c ****                     next_node = &(maze->ColumnNode[now_node->pos.x+1][now_node->pos.y]);
 428:C:/Users/leopi/Documents/vs/S-Reo/MazeLibrary\Searching.c ****                     flag = true;
 429:C:/Users/leopi/Documents/vs/S-Reo/MazeLibrary\Searching.c ****                 }
 430:C:/Users/leopi/Documents/vs/S-Reo/MazeLibrary\Searching.c ****             }
 431:C:/Users/leopi/Documents/vs/S-Reo/MazeLibrary\Searching.c ****         }
 432:C:/Users/leopi/Documents/vs/S-Reo/MazeLibrary\Searching.c ****         //西へ側ノード
 433:C:/Users/leopi/Documents/vs/S-Reo/MazeLibrary\Searching.c ****         if(now_node->pos.x > 1)						//範囲チェック
 434:C:/Users/leopi/Documents/vs/S-Reo/MazeLibrary\Searching.c ****         {
 435:C:/Users/leopi/Documents/vs/S-Reo/MazeLibrary\Searching.c ****             if( (maze->ColumnNode[now_node->pos.x-1][now_node->pos.y].existence & mask) == NOWALL)	
 436:C:/Users/leopi/Documents/vs/S-Reo/MazeLibrary\Searching.c ****             {
 437:C:/Users/leopi/Documents/vs/S-Reo/MazeLibrary\Searching.c ****                 //重みを比較して更新
 438:C:/Users/leopi/Documents/vs/S-Reo/MazeLibrary\Searching.c ****                 if(compare_weight > maze->ColumnNode[now_node->pos.x-1][now_node->pos.y].weight)
 439:C:/Users/leopi/Documents/vs/S-Reo/MazeLibrary\Searching.c ****                 {
 440:C:/Users/leopi/Documents/vs/S-Reo/MazeLibrary\Searching.c **** //                	ChangeLED(3);
 441:C:/Users/leopi/Documents/vs/S-Reo/MazeLibrary\Searching.c **** #if DEBUG_ON
 442:C:/Users/leopi/Documents/vs/S-Reo/MazeLibrary\Searching.c ****                     printf("西へ\r\n");
 443:C:/Users/leopi/Documents/vs/S-Reo/MazeLibrary\Searching.c **** #endif
 444:C:/Users/leopi/Documents/vs/S-Reo/MazeLibrary\Searching.c ****                     compare_weight = maze->ColumnNode[now_node->pos.x-1][now_node->pos.y].weight;
 445:C:/Users/leopi/Documents/vs/S-Reo/MazeLibrary\Searching.c ****                     next_node = &(maze->ColumnNode[now_node->pos.x-1][now_node->pos.y]);
 446:C:/Users/leopi/Documents/vs/S-Reo/MazeLibrary\Searching.c ****                     flag = true;
 447:C:/Users/leopi/Documents/vs/S-Reo/MazeLibrary\Searching.c ****                 }
 448:C:/Users/leopi/Documents/vs/S-Reo/MazeLibrary\Searching.c ****             }
 449:C:/Users/leopi/Documents/vs/S-Reo/MazeLibrary\Searching.c ****         }
 450:C:/Users/leopi/Documents/vs/S-Reo/MazeLibrary\Searching.c ****         //北側に斜めが2方向
 451:C:/Users/leopi/Documents/vs/S-Reo/MazeLibrary\Searching.c ****         if(now_node->pos.y < NUMBER_OF_SQUARES_Y-1)					//範囲チェック
 452:C:/Users/leopi/Documents/vs/S-Reo/MazeLibrary\Searching.c ****         {
 453:C:/Users/leopi/Documents/vs/S-Reo/MazeLibrary\Searching.c ****             //北東へ
 454:C:/Users/leopi/Documents/vs/S-Reo/MazeLibrary\Searching.c ****             if( (maze->RawNode[now_node->pos.x][now_node->pos.y+1].existence & mask) == NOWALL)		//
 455:C:/Users/leopi/Documents/vs/S-Reo/MazeLibrary\Searching.c ****             {
 456:C:/Users/leopi/Documents/vs/S-Reo/MazeLibrary\Searching.c ****                 //重みを比較して更新
 457:C:/Users/leopi/Documents/vs/S-Reo/MazeLibrary\Searching.c ****                 if(compare_weight > maze->RawNode[now_node->pos.x][now_node->pos.y+1].weight)
 458:C:/Users/leopi/Documents/vs/S-Reo/MazeLibrary\Searching.c ****                 {
 459:C:/Users/leopi/Documents/vs/S-Reo/MazeLibrary\Searching.c **** //                	ChangeLED(4);
 460:C:/Users/leopi/Documents/vs/S-Reo/MazeLibrary\Searching.c **** #if DEBUG_ON
 461:C:/Users/leopi/Documents/vs/S-Reo/MazeLibrary\Searching.c ****                     printf("北東へ\r\n");
ARM GAS  C:\Users\leopi\AppData\Local\Temp\ccMuwtHQ.s 			page 40


 462:C:/Users/leopi/Documents/vs/S-Reo/MazeLibrary\Searching.c **** #endif
 463:C:/Users/leopi/Documents/vs/S-Reo/MazeLibrary\Searching.c ****                     compare_weight = maze->RawNode[now_node->pos.x][now_node->pos.y+1].weight;
 464:C:/Users/leopi/Documents/vs/S-Reo/MazeLibrary\Searching.c ****                     next_node = &(maze->RawNode[now_node->pos.x][now_node->pos.y+1]);
 465:C:/Users/leopi/Documents/vs/S-Reo/MazeLibrary\Searching.c ****                     flag = true;
 466:C:/Users/leopi/Documents/vs/S-Reo/MazeLibrary\Searching.c ****                 }
 467:C:/Users/leopi/Documents/vs/S-Reo/MazeLibrary\Searching.c ****             }
 468:C:/Users/leopi/Documents/vs/S-Reo/MazeLibrary\Searching.c **** 
 469:C:/Users/leopi/Documents/vs/S-Reo/MazeLibrary\Searching.c ****             //北西へ
 470:C:/Users/leopi/Documents/vs/S-Reo/MazeLibrary\Searching.c ****             if( (maze->RawNode[now_node->pos.x-1][now_node->pos.y+1].existence & mask) == NOWALL)		
 471:C:/Users/leopi/Documents/vs/S-Reo/MazeLibrary\Searching.c ****             {
 472:C:/Users/leopi/Documents/vs/S-Reo/MazeLibrary\Searching.c ****                 //重みを比較して更新
 473:C:/Users/leopi/Documents/vs/S-Reo/MazeLibrary\Searching.c ****                 if(compare_weight > maze->RawNode[now_node->pos.x-1][now_node->pos.y+1].weight)
 474:C:/Users/leopi/Documents/vs/S-Reo/MazeLibrary\Searching.c ****                 {
 475:C:/Users/leopi/Documents/vs/S-Reo/MazeLibrary\Searching.c **** #if DEBUG_ON
 476:C:/Users/leopi/Documents/vs/S-Reo/MazeLibrary\Searching.c ****                     printf("北西へ\r\n");
 477:C:/Users/leopi/Documents/vs/S-Reo/MazeLibrary\Searching.c **** #endif
 478:C:/Users/leopi/Documents/vs/S-Reo/MazeLibrary\Searching.c **** //                    ChangeLED(5);
 479:C:/Users/leopi/Documents/vs/S-Reo/MazeLibrary\Searching.c ****                     compare_weight = maze->RawNode[now_node->pos.x-1][now_node->pos.y+1].weight;
 480:C:/Users/leopi/Documents/vs/S-Reo/MazeLibrary\Searching.c ****                     next_node = &(maze->RawNode[now_node->pos.x-1][now_node->pos.y+1]);
 481:C:/Users/leopi/Documents/vs/S-Reo/MazeLibrary\Searching.c ****                     flag = true;
 482:C:/Users/leopi/Documents/vs/S-Reo/MazeLibrary\Searching.c ****                 }
 483:C:/Users/leopi/Documents/vs/S-Reo/MazeLibrary\Searching.c ****             }
 484:C:/Users/leopi/Documents/vs/S-Reo/MazeLibrary\Searching.c ****         }
 485:C:/Users/leopi/Documents/vs/S-Reo/MazeLibrary\Searching.c **** 
 486:C:/Users/leopi/Documents/vs/S-Reo/MazeLibrary\Searching.c ****         //南へ側に斜めが2方向
 487:C:/Users/leopi/Documents/vs/S-Reo/MazeLibrary\Searching.c ****         if(now_node->pos.y > 0)						//範囲チェック
 488:C:/Users/leopi/Documents/vs/S-Reo/MazeLibrary\Searching.c ****         {
 489:C:/Users/leopi/Documents/vs/S-Reo/MazeLibrary\Searching.c ****             //南へ東へ
 490:C:/Users/leopi/Documents/vs/S-Reo/MazeLibrary\Searching.c ****             if( (maze->RawNode[now_node->pos.x][now_node->pos.y].existence & mask) == NOWALL)		//
 491:C:/Users/leopi/Documents/vs/S-Reo/MazeLibrary\Searching.c ****             {
 492:C:/Users/leopi/Documents/vs/S-Reo/MazeLibrary\Searching.c ****                 //重みを比較して更新
 493:C:/Users/leopi/Documents/vs/S-Reo/MazeLibrary\Searching.c ****                 if(compare_weight > maze->RawNode[now_node->pos.x][now_node->pos.y].weight)
 494:C:/Users/leopi/Documents/vs/S-Reo/MazeLibrary\Searching.c ****                 {
 495:C:/Users/leopi/Documents/vs/S-Reo/MazeLibrary\Searching.c ****                 	//二回目にここが選ばれている
 496:C:/Users/leopi/Documents/vs/S-Reo/MazeLibrary\Searching.c **** //                	ChangeLED(2);
 497:C:/Users/leopi/Documents/vs/S-Reo/MazeLibrary\Searching.c **** #if DEBUG_ON
 498:C:/Users/leopi/Documents/vs/S-Reo/MazeLibrary\Searching.c ****                     printf("南東へ\r\n");
 499:C:/Users/leopi/Documents/vs/S-Reo/MazeLibrary\Searching.c **** #endif
 500:C:/Users/leopi/Documents/vs/S-Reo/MazeLibrary\Searching.c ****                     compare_weight = maze->RawNode[now_node->pos.x][now_node->pos.y].weight;
 501:C:/Users/leopi/Documents/vs/S-Reo/MazeLibrary\Searching.c ****                     next_node = &(maze->RawNode[now_node->pos.x][now_node->pos.y]);
 502:C:/Users/leopi/Documents/vs/S-Reo/MazeLibrary\Searching.c ****                     flag = true;
 503:C:/Users/leopi/Documents/vs/S-Reo/MazeLibrary\Searching.c ****                 }
 504:C:/Users/leopi/Documents/vs/S-Reo/MazeLibrary\Searching.c ****             }
 505:C:/Users/leopi/Documents/vs/S-Reo/MazeLibrary\Searching.c ****             //南へ西へ
 506:C:/Users/leopi/Documents/vs/S-Reo/MazeLibrary\Searching.c ****             if( (maze->RawNode[now_node->pos.x-1][now_node->pos.y].existence & mask) == NOWALL)		//
 507:C:/Users/leopi/Documents/vs/S-Reo/MazeLibrary\Searching.c ****             {
 508:C:/Users/leopi/Documents/vs/S-Reo/MazeLibrary\Searching.c ****                 //重みを比較して更新
 509:C:/Users/leopi/Documents/vs/S-Reo/MazeLibrary\Searching.c ****                 if(compare_weight > maze->RawNode[now_node->pos.x-1][now_node->pos.y].weight)
 510:C:/Users/leopi/Documents/vs/S-Reo/MazeLibrary\Searching.c ****                 {
 511:C:/Users/leopi/Documents/vs/S-Reo/MazeLibrary\Searching.c **** #if DEBUG_ON
 512:C:/Users/leopi/Documents/vs/S-Reo/MazeLibrary\Searching.c ****                     printf("南西へ\r\n");
 513:C:/Users/leopi/Documents/vs/S-Reo/MazeLibrary\Searching.c **** #endif
 514:C:/Users/leopi/Documents/vs/S-Reo/MazeLibrary\Searching.c ****                     compare_weight = maze->RawNode[now_node->pos.x-1][now_node->pos.y].weight;
 515:C:/Users/leopi/Documents/vs/S-Reo/MazeLibrary\Searching.c ****                     next_node = &(maze->RawNode[now_node->pos.x-1][now_node->pos.y]);
 516:C:/Users/leopi/Documents/vs/S-Reo/MazeLibrary\Searching.c ****                     flag = true;
 517:C:/Users/leopi/Documents/vs/S-Reo/MazeLibrary\Searching.c ****                 }
 518:C:/Users/leopi/Documents/vs/S-Reo/MazeLibrary\Searching.c ****             }
ARM GAS  C:\Users\leopi\AppData\Local\Temp\ccMuwtHQ.s 			page 41


 519:C:/Users/leopi/Documents/vs/S-Reo/MazeLibrary\Searching.c ****         }
 520:C:/Users/leopi/Documents/vs/S-Reo/MazeLibrary\Searching.c ****     }
 521:C:/Users/leopi/Documents/vs/S-Reo/MazeLibrary\Searching.c ****     //next_node = now_node;
 522:C:/Users/leopi/Documents/vs/S-Reo/MazeLibrary\Searching.c ****     //printf("ノード更新無し\r\n\r\n");
 523:C:/Users/leopi/Documents/vs/S-Reo/MazeLibrary\Searching.c ****     if(flag == true)
 1630              		.loc 1 523 5 view .LVU445
 1631              	.L93:
 524:C:/Users/leopi/Documents/vs/S-Reo/MazeLibrary\Searching.c ****     {
 525:C:/Users/leopi/Documents/vs/S-Reo/MazeLibrary\Searching.c **** //    	ChangeLED(7);
 526:C:/Users/leopi/Documents/vs/S-Reo/MazeLibrary\Searching.c **** #if DEBUG_ON
 527:C:/Users/leopi/Documents/vs/S-Reo/MazeLibrary\Searching.c ****         printf("ノード更新有り:%p\r\n", next_node);
 528:C:/Users/leopi/Documents/vs/S-Reo/MazeLibrary\Searching.c **** #endif
 529:C:/Users/leopi/Documents/vs/S-Reo/MazeLibrary\Searching.c ****         return next_node;
 1632              		.loc 1 529 9 view .LVU446
 1633              		.loc 1 529 16 is_stmt 0 view .LVU447
 1634 016c 7046     		mov	r0, lr
 1635              	.LVL132:
 1636              		.loc 1 529 16 view .LVU448
 1637 016e AAE0     		b	.L99
 1638              	.LVL133:
 1639              	.L86:
 407:C:/Users/leopi/Documents/vs/S-Reo/MazeLibrary\Searching.c ****     {
 1640              		.loc 1 407 10 is_stmt 1 view .LVU449
 415:C:/Users/leopi/Documents/vs/S-Reo/MazeLibrary\Searching.c ****         {
 1641              		.loc 1 415 9 view .LVU450
 415:C:/Users/leopi/Documents/vs/S-Reo/MazeLibrary\Searching.c ****         {
 1642              		.loc 1 415 25 is_stmt 0 view .LVU451
 1643 0170 9279     		ldrb	r2, [r2, #6]	@ zero_extendqisi2
 415:C:/Users/leopi/Documents/vs/S-Reo/MazeLibrary\Searching.c ****         {
 1644              		.loc 1 415 11 view .LVU452
 1645 0172 0E2A     		cmp	r2, #14
 1646 0174 1BD8     		bhi	.L100
 417:C:/Users/leopi/Documents/vs/S-Reo/MazeLibrary\Searching.c ****             {
 1647              		.loc 1 417 13 is_stmt 1 view .LVU453
 417:C:/Users/leopi/Documents/vs/S-Reo/MazeLibrary\Searching.c ****             {
 1648              		.loc 1 417 50 is_stmt 0 view .LVU454
 1649 0176 571C     		adds	r7, r2, #1
 417:C:/Users/leopi/Documents/vs/S-Reo/MazeLibrary\Searching.c ****             {
 1650              		.loc 1 417 67 view .LVU455
 1651 0178 C679     		ldrb	r6, [r0, #7]	@ zero_extendqisi2
 417:C:/Users/leopi/Documents/vs/S-Reo/MazeLibrary\Searching.c ****             {
 1652              		.loc 1 417 70 view .LVU456
 1653 017a 06EB0714 		add	r4, r6, r7, lsl #4
 1654 017e 04F58874 		add	r4, r4, #272
 1655 0182 15F83440 		ldrb	r4, [r5, r4, lsl #3]	@ zero_extendqisi2
 417:C:/Users/leopi/Documents/vs/S-Reo/MazeLibrary\Searching.c ****             {
 1656              		.loc 1 417 15 view .LVU457
 1657 0186 1C42     		tst	r4, r3
 1658 0188 7CD1     		bne	.L101
 419:C:/Users/leopi/Documents/vs/S-Reo/MazeLibrary\Searching.c ****                 {
 1659              		.loc 1 419 17 is_stmt 1 view .LVU458
 419:C:/Users/leopi/Documents/vs/S-Reo/MazeLibrary\Searching.c ****                 {
 1660              		.loc 1 419 89 is_stmt 0 view .LVU459
 1661 018a 06EB0714 		add	r4, r6, r7, lsl #4
 1662 018e 04F58874 		add	r4, r4, #272
 1663 0192 05EBC404 		add	r4, r5, r4, lsl #3
 1664 0196 6488     		ldrh	r4, [r4, #2]
ARM GAS  C:\Users\leopi\AppData\Local\Temp\ccMuwtHQ.s 			page 42


 419:C:/Users/leopi/Documents/vs/S-Reo/MazeLibrary\Searching.c ****                 {
 1665              		.loc 1 419 19 view .LVU460
 1666 0198 6445     		cmp	r4, ip
 1667 019a 75D2     		bcs	.L102
 426:C:/Users/leopi/Documents/vs/S-Reo/MazeLibrary\Searching.c ****                     next_node = &(maze->ColumnNode[now_node->pos.x+1][now_node->pos.y]);
 1668              		.loc 1 426 21 is_stmt 1 view .LVU461
 1669              	.LVL134:
 427:C:/Users/leopi/Documents/vs/S-Reo/MazeLibrary\Searching.c ****                     flag = true;
 1670              		.loc 1 427 21 view .LVU462
 427:C:/Users/leopi/Documents/vs/S-Reo/MazeLibrary\Searching.c ****                     flag = true;
 1671              		.loc 1 427 31 is_stmt 0 view .LVU463
 1672 019c 06EB071E 		add	lr, r6, r7, lsl #4
 1673 01a0 0EF5887E 		add	lr, lr, #272
 1674 01a4 05EBCE0E 		add	lr, r5, lr, lsl #3
 1675              	.LVL135:
 428:C:/Users/leopi/Documents/vs/S-Reo/MazeLibrary\Searching.c ****                 }
 1676              		.loc 1 428 21 is_stmt 1 view .LVU464
 428:C:/Users/leopi/Documents/vs/S-Reo/MazeLibrary\Searching.c ****                 }
 1677              		.loc 1 428 26 is_stmt 0 view .LVU465
 1678 01a8 0F46     		mov	r7, r1
 426:C:/Users/leopi/Documents/vs/S-Reo/MazeLibrary\Searching.c ****                     next_node = &(maze->ColumnNode[now_node->pos.x+1][now_node->pos.y]);
 1679              		.loc 1 426 36 view .LVU466
 1680 01aa A446     		mov	ip, r4
 1681 01ac 00E0     		b	.L94
 1682              	.LVL136:
 1683              	.L100:
 285:C:/Users/leopi/Documents/vs/S-Reo/MazeLibrary\Searching.c ****     //printf("マイノードが01のどちらか:%d\r\n",now_node->rc);
 1684              		.loc 1 285 11 view .LVU467
 1685 01ae 0027     		movs	r7, #0
 1686              	.LVL137:
 1687              	.L94:
 433:C:/Users/leopi/Documents/vs/S-Reo/MazeLibrary\Searching.c ****         {
 1688              		.loc 1 433 9 is_stmt 1 view .LVU468
 433:C:/Users/leopi/Documents/vs/S-Reo/MazeLibrary\Searching.c ****         {
 1689              		.loc 1 433 11 is_stmt 0 view .LVU469
 1690 01b0 012A     		cmp	r2, #1
 1691 01b2 1BD9     		bls	.L95
 435:C:/Users/leopi/Documents/vs/S-Reo/MazeLibrary\Searching.c ****             {
 1692              		.loc 1 435 13 is_stmt 1 view .LVU470
 435:C:/Users/leopi/Documents/vs/S-Reo/MazeLibrary\Searching.c ****             {
 1693              		.loc 1 435 50 is_stmt 0 view .LVU471
 1694 01b4 02F1FF38 		add	r8, r2, #-1
 435:C:/Users/leopi/Documents/vs/S-Reo/MazeLibrary\Searching.c ****             {
 1695              		.loc 1 435 67 view .LVU472
 1696 01b8 C679     		ldrb	r6, [r0, #7]	@ zero_extendqisi2
 435:C:/Users/leopi/Documents/vs/S-Reo/MazeLibrary\Searching.c ****             {
 1697              		.loc 1 435 70 view .LVU473
 1698 01ba 06EB0814 		add	r4, r6, r8, lsl #4
 1699 01be 04F58874 		add	r4, r4, #272
 1700 01c2 15F83440 		ldrb	r4, [r5, r4, lsl #3]	@ zero_extendqisi2
 435:C:/Users/leopi/Documents/vs/S-Reo/MazeLibrary\Searching.c ****             {
 1701              		.loc 1 435 15 view .LVU474
 1702 01c6 1C42     		tst	r4, r3
 1703 01c8 10D1     		bne	.L95
 438:C:/Users/leopi/Documents/vs/S-Reo/MazeLibrary\Searching.c ****                 {
 1704              		.loc 1 438 17 is_stmt 1 view .LVU475
 438:C:/Users/leopi/Documents/vs/S-Reo/MazeLibrary\Searching.c ****                 {
ARM GAS  C:\Users\leopi\AppData\Local\Temp\ccMuwtHQ.s 			page 43


 1705              		.loc 1 438 89 is_stmt 0 view .LVU476
 1706 01ca 06EB0814 		add	r4, r6, r8, lsl #4
 1707 01ce 04F58874 		add	r4, r4, #272
 1708 01d2 05EBC404 		add	r4, r5, r4, lsl #3
 1709 01d6 6488     		ldrh	r4, [r4, #2]
 438:C:/Users/leopi/Documents/vs/S-Reo/MazeLibrary\Searching.c ****                 {
 1710              		.loc 1 438 19 view .LVU477
 1711 01d8 6445     		cmp	r4, ip
 1712 01da 07D2     		bcs	.L95
 444:C:/Users/leopi/Documents/vs/S-Reo/MazeLibrary\Searching.c ****                     next_node = &(maze->ColumnNode[now_node->pos.x-1][now_node->pos.y]);
 1713              		.loc 1 444 21 is_stmt 1 view .LVU478
 1714              	.LVL138:
 445:C:/Users/leopi/Documents/vs/S-Reo/MazeLibrary\Searching.c ****                     flag = true;
 1715              		.loc 1 445 21 view .LVU479
 445:C:/Users/leopi/Documents/vs/S-Reo/MazeLibrary\Searching.c ****                     flag = true;
 1716              		.loc 1 445 31 is_stmt 0 view .LVU480
 1717 01dc 06EB081E 		add	lr, r6, r8, lsl #4
 1718              	.LVL139:
 445:C:/Users/leopi/Documents/vs/S-Reo/MazeLibrary\Searching.c ****                     flag = true;
 1719              		.loc 1 445 31 view .LVU481
 1720 01e0 0EF5887E 		add	lr, lr, #272
 1721 01e4 05EBCE0E 		add	lr, r5, lr, lsl #3
 1722              	.LVL140:
 446:C:/Users/leopi/Documents/vs/S-Reo/MazeLibrary\Searching.c ****                 }
 1723              		.loc 1 446 21 is_stmt 1 view .LVU482
 446:C:/Users/leopi/Documents/vs/S-Reo/MazeLibrary\Searching.c ****                 }
 1724              		.loc 1 446 26 is_stmt 0 view .LVU483
 1725 01e8 0F46     		mov	r7, r1
 444:C:/Users/leopi/Documents/vs/S-Reo/MazeLibrary\Searching.c ****                     next_node = &(maze->ColumnNode[now_node->pos.x-1][now_node->pos.y]);
 1726              		.loc 1 444 36 view .LVU484
 1727 01ea A446     		mov	ip, r4
 1728              	.LVL141:
 1729              	.L95:
 451:C:/Users/leopi/Documents/vs/S-Reo/MazeLibrary\Searching.c ****         {
 1730              		.loc 1 451 9 is_stmt 1 view .LVU485
 451:C:/Users/leopi/Documents/vs/S-Reo/MazeLibrary\Searching.c ****         {
 1731              		.loc 1 451 25 is_stmt 0 view .LVU486
 1732 01ec C479     		ldrb	r4, [r0, #7]	@ zero_extendqisi2
 451:C:/Users/leopi/Documents/vs/S-Reo/MazeLibrary\Searching.c ****         {
 1733              		.loc 1 451 11 view .LVU487
 1734 01ee 0E2C     		cmp	r4, #14
 1735 01f0 31D8     		bhi	.L96
 454:C:/Users/leopi/Documents/vs/S-Reo/MazeLibrary\Searching.c ****             {
 1736              		.loc 1 454 13 is_stmt 1 view .LVU488
 454:C:/Users/leopi/Documents/vs/S-Reo/MazeLibrary\Searching.c ****             {
 1737              		.loc 1 454 64 is_stmt 0 view .LVU489
 1738 01f2 04F10108 		add	r8, r4, #1
 454:C:/Users/leopi/Documents/vs/S-Reo/MazeLibrary\Searching.c ****             {
 1739              		.loc 1 454 67 view .LVU490
 1740 01f6 02EB0216 		add	r6, r2, r2, lsl #4
 1741 01fa 4644     		add	r6, r6, r8
 1742 01fc 15F83660 		ldrb	r6, [r5, r6, lsl #3]	@ zero_extendqisi2
 454:C:/Users/leopi/Documents/vs/S-Reo/MazeLibrary\Searching.c ****             {
 1743              		.loc 1 454 15 view .LVU491
 1744 0200 1E42     		tst	r6, r3
 1745 0202 0ED1     		bne	.L97
 457:C:/Users/leopi/Documents/vs/S-Reo/MazeLibrary\Searching.c ****                 {
ARM GAS  C:\Users\leopi\AppData\Local\Temp\ccMuwtHQ.s 			page 44


 1746              		.loc 1 457 17 is_stmt 1 view .LVU492
 457:C:/Users/leopi/Documents/vs/S-Reo/MazeLibrary\Searching.c ****                 {
 1747              		.loc 1 457 86 is_stmt 0 view .LVU493
 1748 0204 02EB0216 		add	r6, r2, r2, lsl #4
 1749 0208 4644     		add	r6, r6, r8
 1750 020a 05EBC606 		add	r6, r5, r6, lsl #3
 1751 020e 7688     		ldrh	r6, [r6, #2]
 457:C:/Users/leopi/Documents/vs/S-Reo/MazeLibrary\Searching.c ****                 {
 1752              		.loc 1 457 19 view .LVU494
 1753 0210 6645     		cmp	r6, ip
 1754 0212 06D2     		bcs	.L97
 463:C:/Users/leopi/Documents/vs/S-Reo/MazeLibrary\Searching.c ****                     next_node = &(maze->RawNode[now_node->pos.x][now_node->pos.y+1]);
 1755              		.loc 1 463 21 is_stmt 1 view .LVU495
 1756              	.LVL142:
 464:C:/Users/leopi/Documents/vs/S-Reo/MazeLibrary\Searching.c ****                     flag = true;
 1757              		.loc 1 464 21 view .LVU496
 464:C:/Users/leopi/Documents/vs/S-Reo/MazeLibrary\Searching.c ****                     flag = true;
 1758              		.loc 1 464 31 is_stmt 0 view .LVU497
 1759 0214 02EB021E 		add	lr, r2, r2, lsl #4
 1760              	.LVL143:
 464:C:/Users/leopi/Documents/vs/S-Reo/MazeLibrary\Searching.c ****                     flag = true;
 1761              		.loc 1 464 31 view .LVU498
 1762 0218 C644     		add	lr, lr, r8
 1763 021a 05EBCE0E 		add	lr, r5, lr, lsl #3
 1764              	.LVL144:
 465:C:/Users/leopi/Documents/vs/S-Reo/MazeLibrary\Searching.c ****                 }
 1765              		.loc 1 465 21 is_stmt 1 view .LVU499
 465:C:/Users/leopi/Documents/vs/S-Reo/MazeLibrary\Searching.c ****                 }
 1766              		.loc 1 465 26 is_stmt 0 view .LVU500
 1767 021e 0F46     		mov	r7, r1
 463:C:/Users/leopi/Documents/vs/S-Reo/MazeLibrary\Searching.c ****                     next_node = &(maze->RawNode[now_node->pos.x][now_node->pos.y+1]);
 1768              		.loc 1 463 36 view .LVU501
 1769 0220 B446     		mov	ip, r6
 1770              	.LVL145:
 1771              	.L97:
 470:C:/Users/leopi/Documents/vs/S-Reo/MazeLibrary\Searching.c ****             {
 1772              		.loc 1 470 13 is_stmt 1 view .LVU502
 470:C:/Users/leopi/Documents/vs/S-Reo/MazeLibrary\Searching.c ****             {
 1773              		.loc 1 470 47 is_stmt 0 view .LVU503
 1774 0222 561E     		subs	r6, r2, #1
 470:C:/Users/leopi/Documents/vs/S-Reo/MazeLibrary\Searching.c ****             {
 1775              		.loc 1 470 69 view .LVU504
 1776 0224 06EB0619 		add	r9, r6, r6, lsl #4
 1777 0228 C144     		add	r9, r9, r8
 1778 022a 15F83990 		ldrb	r9, [r5, r9, lsl #3]	@ zero_extendqisi2
 470:C:/Users/leopi/Documents/vs/S-Reo/MazeLibrary\Searching.c ****             {
 1779              		.loc 1 470 15 view .LVU505
 1780 022e 19EA030F 		tst	r9, r3
 1781 0232 10D1     		bne	.L96
 473:C:/Users/leopi/Documents/vs/S-Reo/MazeLibrary\Searching.c ****                 {
 1782              		.loc 1 473 17 is_stmt 1 view .LVU506
 473:C:/Users/leopi/Documents/vs/S-Reo/MazeLibrary\Searching.c ****                 {
 1783              		.loc 1 473 88 is_stmt 0 view .LVU507
 1784 0234 06EB0619 		add	r9, r6, r6, lsl #4
 1785 0238 C144     		add	r9, r9, r8
 1786 023a 05EBC909 		add	r9, r5, r9, lsl #3
 1787 023e B9F80290 		ldrh	r9, [r9, #2]
ARM GAS  C:\Users\leopi\AppData\Local\Temp\ccMuwtHQ.s 			page 45


 473:C:/Users/leopi/Documents/vs/S-Reo/MazeLibrary\Searching.c ****                 {
 1788              		.loc 1 473 19 view .LVU508
 1789 0242 E145     		cmp	r9, ip
 1790 0244 07D2     		bcs	.L96
 479:C:/Users/leopi/Documents/vs/S-Reo/MazeLibrary\Searching.c ****                     next_node = &(maze->RawNode[now_node->pos.x-1][now_node->pos.y+1]);
 1791              		.loc 1 479 21 is_stmt 1 view .LVU509
 1792              	.LVL146:
 480:C:/Users/leopi/Documents/vs/S-Reo/MazeLibrary\Searching.c ****                     flag = true;
 1793              		.loc 1 480 21 view .LVU510
 480:C:/Users/leopi/Documents/vs/S-Reo/MazeLibrary\Searching.c ****                     flag = true;
 1794              		.loc 1 480 31 is_stmt 0 view .LVU511
 1795 0246 06EB0616 		add	r6, r6, r6, lsl #4
 1796 024a 06EB080E 		add	lr, r6, r8
 1797              	.LVL147:
 480:C:/Users/leopi/Documents/vs/S-Reo/MazeLibrary\Searching.c ****                     flag = true;
 1798              		.loc 1 480 31 view .LVU512
 1799 024e 05EBCE0E 		add	lr, r5, lr, lsl #3
 1800              	.LVL148:
 481:C:/Users/leopi/Documents/vs/S-Reo/MazeLibrary\Searching.c ****                 }
 1801              		.loc 1 481 21 is_stmt 1 view .LVU513
 481:C:/Users/leopi/Documents/vs/S-Reo/MazeLibrary\Searching.c ****                 }
 1802              		.loc 1 481 26 is_stmt 0 view .LVU514
 1803 0252 0F46     		mov	r7, r1
 479:C:/Users/leopi/Documents/vs/S-Reo/MazeLibrary\Searching.c ****                     next_node = &(maze->RawNode[now_node->pos.x-1][now_node->pos.y+1]);
 1804              		.loc 1 479 36 view .LVU515
 1805 0254 CC46     		mov	ip, r9
 1806              	.LVL149:
 1807              	.L96:
 487:C:/Users/leopi/Documents/vs/S-Reo/MazeLibrary\Searching.c ****         {
 1808              		.loc 1 487 9 is_stmt 1 view .LVU516
 487:C:/Users/leopi/Documents/vs/S-Reo/MazeLibrary\Searching.c ****         {
 1809              		.loc 1 487 11 is_stmt 0 view .LVU517
 1810 0256 94B3     		cbz	r4, .L103
 490:C:/Users/leopi/Documents/vs/S-Reo/MazeLibrary\Searching.c ****             {
 1811              		.loc 1 490 13 is_stmt 1 view .LVU518
 490:C:/Users/leopi/Documents/vs/S-Reo/MazeLibrary\Searching.c ****             {
 1812              		.loc 1 490 65 is_stmt 0 view .LVU519
 1813 0258 02EB0216 		add	r6, r2, r2, lsl #4
 1814 025c 2644     		add	r6, r6, r4
 1815 025e 15F83660 		ldrb	r6, [r5, r6, lsl #3]	@ zero_extendqisi2
 490:C:/Users/leopi/Documents/vs/S-Reo/MazeLibrary\Searching.c ****             {
 1816              		.loc 1 490 15 view .LVU520
 1817 0262 1E42     		tst	r6, r3
 1818 0264 12D1     		bne	.L104
 493:C:/Users/leopi/Documents/vs/S-Reo/MazeLibrary\Searching.c ****                 {
 1819              		.loc 1 493 17 is_stmt 1 view .LVU521
 493:C:/Users/leopi/Documents/vs/S-Reo/MazeLibrary\Searching.c ****                 {
 1820              		.loc 1 493 84 is_stmt 0 view .LVU522
 1821 0266 02EB0216 		add	r6, r2, r2, lsl #4
 1822 026a 2644     		add	r6, r6, r4
 1823 026c 05EBC606 		add	r6, r5, r6, lsl #3
 1824 0270 7688     		ldrh	r6, [r6, #2]
 493:C:/Users/leopi/Documents/vs/S-Reo/MazeLibrary\Searching.c ****                 {
 1825              		.loc 1 493 19 view .LVU523
 1826 0272 6645     		cmp	r6, ip
 1827 0274 21D2     		bcs	.L105
 500:C:/Users/leopi/Documents/vs/S-Reo/MazeLibrary\Searching.c ****                     next_node = &(maze->RawNode[now_node->pos.x][now_node->pos.y]);
ARM GAS  C:\Users\leopi\AppData\Local\Temp\ccMuwtHQ.s 			page 46


 1828              		.loc 1 500 21 is_stmt 1 view .LVU524
 1829              	.LVL150:
 501:C:/Users/leopi/Documents/vs/S-Reo/MazeLibrary\Searching.c ****                     flag = true;
 1830              		.loc 1 501 21 view .LVU525
 501:C:/Users/leopi/Documents/vs/S-Reo/MazeLibrary\Searching.c ****                     flag = true;
 1831              		.loc 1 501 31 is_stmt 0 view .LVU526
 1832 0276 02EB021E 		add	lr, r2, r2, lsl #4
 1833              	.LVL151:
 501:C:/Users/leopi/Documents/vs/S-Reo/MazeLibrary\Searching.c ****                     flag = true;
 1834              		.loc 1 501 31 view .LVU527
 1835 027a A644     		add	lr, lr, r4
 1836 027c 05EBCE0E 		add	lr, r5, lr, lsl #3
 1837              	.LVL152:
 502:C:/Users/leopi/Documents/vs/S-Reo/MazeLibrary\Searching.c ****                 }
 1838              		.loc 1 502 21 is_stmt 1 view .LVU528
 500:C:/Users/leopi/Documents/vs/S-Reo/MazeLibrary\Searching.c ****                     next_node = &(maze->RawNode[now_node->pos.x][now_node->pos.y]);
 1839              		.loc 1 500 36 is_stmt 0 view .LVU529
 1840 0280 B446     		mov	ip, r6
 1841 0282 04E0     		b	.L98
 1842              	.LVL153:
 1843              	.L101:
 285:C:/Users/leopi/Documents/vs/S-Reo/MazeLibrary\Searching.c ****     //printf("マイノードが01のどちらか:%d\r\n",now_node->rc);
 1844              		.loc 1 285 11 view .LVU530
 1845 0284 0027     		movs	r7, #0
 1846 0286 93E7     		b	.L94
 1847              	.L102:
 1848 0288 0027     		movs	r7, #0
 1849 028a 91E7     		b	.L94
 1850              	.LVL154:
 1851              	.L104:
 285:C:/Users/leopi/Documents/vs/S-Reo/MazeLibrary\Searching.c ****     //printf("マイノードが01のどちらか:%d\r\n",now_node->rc);
 1852              		.loc 1 285 11 view .LVU531
 1853 028c 3946     		mov	r1, r7
 1854              	.LVL155:
 1855              	.L98:
 506:C:/Users/leopi/Documents/vs/S-Reo/MazeLibrary\Searching.c ****             {
 1856              		.loc 1 506 13 is_stmt 1 view .LVU532
 506:C:/Users/leopi/Documents/vs/S-Reo/MazeLibrary\Searching.c ****             {
 1857              		.loc 1 506 47 is_stmt 0 view .LVU533
 1858 028e 013A     		subs	r2, r2, #1
 506:C:/Users/leopi/Documents/vs/S-Reo/MazeLibrary\Searching.c ****             {
 1859              		.loc 1 506 67 view .LVU534
 1860 0290 02EB0216 		add	r6, r2, r2, lsl #4
 1861 0294 2644     		add	r6, r6, r4
 1862 0296 15F83660 		ldrb	r6, [r5, r6, lsl #3]	@ zero_extendqisi2
 506:C:/Users/leopi/Documents/vs/S-Reo/MazeLibrary\Searching.c ****             {
 1863              		.loc 1 506 15 view .LVU535
 1864 029a 1E42     		tst	r6, r3
 1865 029c 10D1     		bne	.L91
 509:C:/Users/leopi/Documents/vs/S-Reo/MazeLibrary\Searching.c ****                 {
 1866              		.loc 1 509 17 is_stmt 1 view .LVU536
 509:C:/Users/leopi/Documents/vs/S-Reo/MazeLibrary\Searching.c ****                 {
 1867              		.loc 1 509 86 is_stmt 0 view .LVU537
 1868 029e 02EB0213 		add	r3, r2, r2, lsl #4
 1869              	.LVL156:
 509:C:/Users/leopi/Documents/vs/S-Reo/MazeLibrary\Searching.c ****                 {
 1870              		.loc 1 509 86 view .LVU538
ARM GAS  C:\Users\leopi\AppData\Local\Temp\ccMuwtHQ.s 			page 47


 1871 02a2 2344     		add	r3, r3, r4
 1872 02a4 05EBC303 		add	r3, r5, r3, lsl #3
 1873 02a8 5B88     		ldrh	r3, [r3, #2]
 509:C:/Users/leopi/Documents/vs/S-Reo/MazeLibrary\Searching.c ****                 {
 1874              		.loc 1 509 19 view .LVU539
 1875 02aa 6345     		cmp	r3, ip
 1876 02ac 08D2     		bcs	.L91
 514:C:/Users/leopi/Documents/vs/S-Reo/MazeLibrary\Searching.c ****                     next_node = &(maze->RawNode[now_node->pos.x-1][now_node->pos.y]);
 1877              		.loc 1 514 21 is_stmt 1 view .LVU540
 1878              	.LVL157:
 515:C:/Users/leopi/Documents/vs/S-Reo/MazeLibrary\Searching.c ****                     flag = true;
 1879              		.loc 1 515 21 view .LVU541
 515:C:/Users/leopi/Documents/vs/S-Reo/MazeLibrary\Searching.c ****                     flag = true;
 1880              		.loc 1 515 31 is_stmt 0 view .LVU542
 1881 02ae 02EB0212 		add	r2, r2, r2, lsl #4
 1882 02b2 1444     		add	r4, r4, r2
 1883 02b4 05EBC40E 		add	lr, r5, r4, lsl #3
 1884              	.LVL158:
 516:C:/Users/leopi/Documents/vs/S-Reo/MazeLibrary\Searching.c ****                 }
 1885              		.loc 1 516 21 is_stmt 1 view .LVU543
 523:C:/Users/leopi/Documents/vs/S-Reo/MazeLibrary\Searching.c ****     {
 1886              		.loc 1 523 5 view .LVU544
 1887 02b8 58E7     		b	.L93
 1888              	.LVL159:
 1889              	.L105:
 523:C:/Users/leopi/Documents/vs/S-Reo/MazeLibrary\Searching.c ****     {
 1890              		.loc 1 523 5 is_stmt 0 view .LVU545
 1891 02ba 3946     		mov	r1, r7
 1892 02bc E7E7     		b	.L98
 1893              	.L103:
 523:C:/Users/leopi/Documents/vs/S-Reo/MazeLibrary\Searching.c ****     {
 1894              		.loc 1 523 5 view .LVU546
 1895 02be 3946     		mov	r1, r7
 1896              	.LVL160:
 1897              	.L91:
 523:C:/Users/leopi/Documents/vs/S-Reo/MazeLibrary\Searching.c ****     {
 1898              		.loc 1 523 5 is_stmt 1 view .LVU547
 523:C:/Users/leopi/Documents/vs/S-Reo/MazeLibrary\Searching.c ****     {
 1899              		.loc 1 523 7 is_stmt 0 view .LVU548
 1900 02c0 0029     		cmp	r1, #0
 1901 02c2 7FF453AF 		bne	.L93
 1902              	.LVL161:
 1903              	.L99:
 530:C:/Users/leopi/Documents/vs/S-Reo/MazeLibrary\Searching.c ****     }
 531:C:/Users/leopi/Documents/vs/S-Reo/MazeLibrary\Searching.c ****     if(flag == false)
 532:C:/Users/leopi/Documents/vs/S-Reo/MazeLibrary\Searching.c ****     {
 533:C:/Users/leopi/Documents/vs/S-Reo/MazeLibrary\Searching.c **** 
 534:C:/Users/leopi/Documents/vs/S-Reo/MazeLibrary\Searching.c **** //    	ChangeLED(1);
 535:C:/Users/leopi/Documents/vs/S-Reo/MazeLibrary\Searching.c **** #if DEBUG_ON
 536:C:/Users/leopi/Documents/vs/S-Reo/MazeLibrary\Searching.c ****     	printf("ノード更新無し\r\n\r\n");
 537:C:/Users/leopi/Documents/vs/S-Reo/MazeLibrary\Searching.c **** #endif
 538:C:/Users/leopi/Documents/vs/S-Reo/MazeLibrary\Searching.c **** 
 539:C:/Users/leopi/Documents/vs/S-Reo/MazeLibrary\Searching.c ****         return now_node;//万が一更新されなかったら、今いるノードが目標ノー
 540:C:/Users/leopi/Documents/vs/S-Reo/MazeLibrary\Searching.c ****         //停止しなかった。前回の情報がそのまま反映されるだけ
 541:C:/Users/leopi/Documents/vs/S-Reo/MazeLibrary\Searching.c ****     }
 542:C:/Users/leopi/Documents/vs/S-Reo/MazeLibrary\Searching.c ****     return now_node; //
 543:C:/Users/leopi/Documents/vs/S-Reo/MazeLibrary\Searching.c **** 
ARM GAS  C:\Users\leopi\AppData\Local\Temp\ccMuwtHQ.s 			page 48


 544:C:/Users/leopi/Documents/vs/S-Reo/MazeLibrary\Searching.c **** }
 1904              		.loc 1 544 1 view .LVU549
 1905 02c6 BDE8F083 		pop	{r4, r5, r6, r7, r8, r9, pc}
 1906              	.LVL162:
 1907              	.L108:
 1908              		.loc 1 544 1 view .LVU550
 1909 02ca 00BF     		.align	2
 1910              	.L107:
 1911 02cc 00000000 		.word	.LANCHOR1
 1912              		.cfi_endproc
 1913              	.LFE19:
 1915              		.section	.text.judgeAccelorNot,"ax",%progbits
 1916              		.align	1
 1917              		.global	judgeAccelorNot
 1918              		.syntax unified
 1919              		.thumb
 1920              		.thumb_func
 1922              	judgeAccelorNot:
 1923              	.LVL163:
 1924              	.LFB20:
 545:C:/Users/leopi/Documents/vs/S-Reo/MazeLibrary\Searching.c **** _Bool judgeAccelorNot(maze_node *maze, cardinal car, node *now_node)
 546:C:/Users/leopi/Documents/vs/S-Reo/MazeLibrary\Searching.c **** {
 1925              		.loc 1 546 1 is_stmt 1 view -0
 1926              		.cfi_startproc
 1927              		@ args = 0, pretend = 0, frame = 0
 1928              		@ frame_needed = 0, uses_anonymous_args = 0
 1929              		.loc 1 546 1 is_stmt 0 view .LVU552
 1930 0000 70B5     		push	{r4, r5, r6, lr}
 1931              	.LCFI21:
 1932              		.cfi_def_cfa_offset 16
 1933              		.cfi_offset 4, -16
 1934              		.cfi_offset 5, -12
 1935              		.cfi_offset 6, -8
 1936              		.cfi_offset 14, -4
 1937 0002 0346     		mov	r3, r0
 547:C:/Users/leopi/Documents/vs/S-Reo/MazeLibrary\Searching.c **** 	uint16_t compare_weight=0;
 1938              		.loc 1 547 2 is_stmt 1 view .LVU553
 1939              	.LVL164:
 548:C:/Users/leopi/Documents/vs/S-Reo/MazeLibrary\Searching.c **** 
 549:C:/Users/leopi/Documents/vs/S-Reo/MazeLibrary\Searching.c **** 	compare_weight = now_node->weight;
 1940              		.loc 1 549 2 view .LVU554
 1941              		.loc 1 549 17 is_stmt 0 view .LVU555
 1942 0004 B2F802C0 		ldrh	ip, [r2, #2]
 1943              	.LVL165:
 550:C:/Users/leopi/Documents/vs/S-Reo/MazeLibrary\Searching.c **** 
 551:C:/Users/leopi/Documents/vs/S-Reo/MazeLibrary\Searching.c **** 	_Bool flag=false;
 1944              		.loc 1 551 2 is_stmt 1 view .LVU556
 552:C:/Users/leopi/Documents/vs/S-Reo/MazeLibrary\Searching.c **** 	//現ノードから3方向ノードを見て、未知なら即return
 553:C:/Users/leopi/Documents/vs/S-Reo/MazeLibrary\Searching.c **** 	if(now_node->rc == 0)
 1945              		.loc 1 553 2 view .LVU557
 1946              		.loc 1 553 13 is_stmt 0 view .LVU558
 1947 0008 5079     		ldrb	r0, [r2, #5]	@ zero_extendqisi2
 1948              	.LVL166:
 1949              		.loc 1 553 4 view .LVU559
 1950 000a 0028     		cmp	r0, #0
 1951 000c 40F0AE80 		bne	.L110
 554:C:/Users/leopi/Documents/vs/S-Reo/MazeLibrary\Searching.c **** 	{
ARM GAS  C:\Users\leopi\AppData\Local\Temp\ccMuwtHQ.s 			page 49


 555:C:/Users/leopi/Documents/vs/S-Reo/MazeLibrary\Searching.c **** 		switch(car%8)
 1952              		.loc 1 555 3 is_stmt 1 view .LVU560
 1953 0010 11F00701 		ands	r1, r1, #7
 1954              	.LVL167:
 1955              		.loc 1 555 3 is_stmt 0 view .LVU561
 1956 0014 02D0     		beq	.L111
 1957 0016 0429     		cmp	r1, #4
 1958 0018 52D0     		beq	.L112
 1959              	.LVL168:
 1960              	.L113:
 556:C:/Users/leopi/Documents/vs/S-Reo/MazeLibrary\Searching.c **** 		{
 557:C:/Users/leopi/Documents/vs/S-Reo/MazeLibrary\Searching.c **** 		case north:
 558:C:/Users/leopi/Documents/vs/S-Reo/MazeLibrary\Searching.c **** 		//行にいるとき
 559:C:/Users/leopi/Documents/vs/S-Reo/MazeLibrary\Searching.c **** 	        //北側ノード
 560:C:/Users/leopi/Documents/vs/S-Reo/MazeLibrary\Searching.c **** 	        if(now_node->pos.y < NUMBER_OF_SQUARES_Y-1)					//範囲チェック
 561:C:/Users/leopi/Documents/vs/S-Reo/MazeLibrary\Searching.c **** 	        {
 562:C:/Users/leopi/Documents/vs/S-Reo/MazeLibrary\Searching.c **** 	            //printf("%u\r\n",now_node->pos.y);
 563:C:/Users/leopi/Documents/vs/S-Reo/MazeLibrary\Searching.c **** 	            if( (maze->RawNode[now_node->pos.x][now_node->pos.y+1].existence ) == UNKNOWN)	//壁
 564:C:/Users/leopi/Documents/vs/S-Reo/MazeLibrary\Searching.c **** 	            {
 565:C:/Users/leopi/Documents/vs/S-Reo/MazeLibrary\Searching.c **** 	            	//UNKNOWNなら即return.
 566:C:/Users/leopi/Documents/vs/S-Reo/MazeLibrary\Searching.c **** 	            	return false;
 567:C:/Users/leopi/Documents/vs/S-Reo/MazeLibrary\Searching.c **** 	            }
 568:C:/Users/leopi/Documents/vs/S-Reo/MazeLibrary\Searching.c **** 	            else if((maze->RawNode[now_node->pos.x][now_node->pos.y+1].existence ) == NOWALL)
 569:C:/Users/leopi/Documents/vs/S-Reo/MazeLibrary\Searching.c **** 	            {
 570:C:/Users/leopi/Documents/vs/S-Reo/MazeLibrary\Searching.c **** 	            	// 壁が既知なら、あるかないかなので、無いときは、候補にな
 571:C:/Users/leopi/Documents/vs/S-Reo/MazeLibrary\Searching.c **** 	            	// UNKNOWNでなければ、重みを比較しておく. 一個もアンノウンで
 572:C:/Users/leopi/Documents/vs/S-Reo/MazeLibrary\Searching.c **** 	                // printf("%d\r\n", maze->RawNode[now_node->pos.x][now_node->pos.y+1].existence);/
 573:C:/Users/leopi/Documents/vs/S-Reo/MazeLibrary\Searching.c **** 	                if(compare_weight > maze->RawNode[now_node->pos.x][now_node->pos.y+1].weight)
 574:C:/Users/leopi/Documents/vs/S-Reo/MazeLibrary\Searching.c **** 	                {
 575:C:/Users/leopi/Documents/vs/S-Reo/MazeLibrary\Searching.c **** 	                    compare_weight = maze->RawNode[now_node->pos.x][now_node->pos.y+1].weight;
 576:C:/Users/leopi/Documents/vs/S-Reo/MazeLibrary\Searching.c **** //	                    next_node = &(maze->RawNode[now_node->pos.x][now_node->pos.y+1]);
 577:C:/Users/leopi/Documents/vs/S-Reo/MazeLibrary\Searching.c **** 	                    flag = true;
 578:C:/Users/leopi/Documents/vs/S-Reo/MazeLibrary\Searching.c **** 	                }
 579:C:/Users/leopi/Documents/vs/S-Reo/MazeLibrary\Searching.c **** 	            }
 580:C:/Users/leopi/Documents/vs/S-Reo/MazeLibrary\Searching.c **** 	        }
 581:C:/Users/leopi/Documents/vs/S-Reo/MazeLibrary\Searching.c **** 
 582:C:/Users/leopi/Documents/vs/S-Reo/MazeLibrary\Searching.c **** 	        //北東
 583:C:/Users/leopi/Documents/vs/S-Reo/MazeLibrary\Searching.c **** 	        if(now_node->pos.x < NUMBER_OF_SQUARES_X-1)					//範囲チェック
 584:C:/Users/leopi/Documents/vs/S-Reo/MazeLibrary\Searching.c **** 	        {
 585:C:/Users/leopi/Documents/vs/S-Reo/MazeLibrary\Searching.c **** 	            //北東へ
 586:C:/Users/leopi/Documents/vs/S-Reo/MazeLibrary\Searching.c **** 	            if( (maze->ColumnNode[now_node->pos.x+1][now_node->pos.y].existence ) == UNKNOWN)
 587:C:/Users/leopi/Documents/vs/S-Reo/MazeLibrary\Searching.c **** 	            {
 588:C:/Users/leopi/Documents/vs/S-Reo/MazeLibrary\Searching.c **** 	            	return false;
 589:C:/Users/leopi/Documents/vs/S-Reo/MazeLibrary\Searching.c **** 	            }
 590:C:/Users/leopi/Documents/vs/S-Reo/MazeLibrary\Searching.c **** 	            else if( (maze->ColumnNode[now_node->pos.x+1][now_node->pos.y].existence ) == NOWALL)
 591:C:/Users/leopi/Documents/vs/S-Reo/MazeLibrary\Searching.c **** 	            {//重みを比較して更新
 592:C:/Users/leopi/Documents/vs/S-Reo/MazeLibrary\Searching.c **** 	                if(compare_weight > maze->ColumnNode[now_node->pos.x+1][now_node->pos.y].weight)
 593:C:/Users/leopi/Documents/vs/S-Reo/MazeLibrary\Searching.c **** 	                {
 594:C:/Users/leopi/Documents/vs/S-Reo/MazeLibrary\Searching.c **** 	                    compare_weight = maze->ColumnNode[now_node->pos.x+1][now_node->pos.y].weight;
 595:C:/Users/leopi/Documents/vs/S-Reo/MazeLibrary\Searching.c **** //	                    next_node = &(maze->ColumnNode[now_node->pos.x+1][now_node->pos.y]);
 596:C:/Users/leopi/Documents/vs/S-Reo/MazeLibrary\Searching.c **** 	                    flag = false;
 597:C:/Users/leopi/Documents/vs/S-Reo/MazeLibrary\Searching.c **** 	                }
 598:C:/Users/leopi/Documents/vs/S-Reo/MazeLibrary\Searching.c **** 	            }
 599:C:/Users/leopi/Documents/vs/S-Reo/MazeLibrary\Searching.c **** 	        }
 600:C:/Users/leopi/Documents/vs/S-Reo/MazeLibrary\Searching.c **** 
 601:C:/Users/leopi/Documents/vs/S-Reo/MazeLibrary\Searching.c **** 	        //北西
 602:C:/Users/leopi/Documents/vs/S-Reo/MazeLibrary\Searching.c **** 	        if(now_node->pos.x > 0)						//範囲チェック
ARM GAS  C:\Users\leopi\AppData\Local\Temp\ccMuwtHQ.s 			page 50


 603:C:/Users/leopi/Documents/vs/S-Reo/MazeLibrary\Searching.c **** 	        {
 604:C:/Users/leopi/Documents/vs/S-Reo/MazeLibrary\Searching.c **** 	            //北西へ
 605:C:/Users/leopi/Documents/vs/S-Reo/MazeLibrary\Searching.c **** 	            if( (maze->ColumnNode[now_node->pos.x][now_node->pos.y].existence ) == UNKNOWN)		//壁
 606:C:/Users/leopi/Documents/vs/S-Reo/MazeLibrary\Searching.c **** 	            {
 607:C:/Users/leopi/Documents/vs/S-Reo/MazeLibrary\Searching.c **** 	            	return false;
 608:C:/Users/leopi/Documents/vs/S-Reo/MazeLibrary\Searching.c **** 	            }
 609:C:/Users/leopi/Documents/vs/S-Reo/MazeLibrary\Searching.c **** 	                //重みを比較して更新
 610:C:/Users/leopi/Documents/vs/S-Reo/MazeLibrary\Searching.c **** 	            else if( (maze->ColumnNode[now_node->pos.x][now_node->pos.y].existence) == NOWALL)		//
 611:C:/Users/leopi/Documents/vs/S-Reo/MazeLibrary\Searching.c **** 	            {
 612:C:/Users/leopi/Documents/vs/S-Reo/MazeLibrary\Searching.c **** 	                if(compare_weight > maze->ColumnNode[now_node->pos.x][now_node->pos.y].weight)
 613:C:/Users/leopi/Documents/vs/S-Reo/MazeLibrary\Searching.c **** 	                {
 614:C:/Users/leopi/Documents/vs/S-Reo/MazeLibrary\Searching.c **** 	                    compare_weight = maze->ColumnNode[now_node->pos.x][now_node->pos.y].weight;
 615:C:/Users/leopi/Documents/vs/S-Reo/MazeLibrary\Searching.c **** //	                    next_node = &(maze->ColumnNode[now_node->pos.x][now_node->pos.y]);
 616:C:/Users/leopi/Documents/vs/S-Reo/MazeLibrary\Searching.c **** 	                    flag = false;
 617:C:/Users/leopi/Documents/vs/S-Reo/MazeLibrary\Searching.c **** 	                }
 618:C:/Users/leopi/Documents/vs/S-Reo/MazeLibrary\Searching.c **** 	            }
 619:C:/Users/leopi/Documents/vs/S-Reo/MazeLibrary\Searching.c **** 	        }
 620:C:/Users/leopi/Documents/vs/S-Reo/MazeLibrary\Searching.c **** 	        break;
 621:C:/Users/leopi/Documents/vs/S-Reo/MazeLibrary\Searching.c **** 		case south:
 622:C:/Users/leopi/Documents/vs/S-Reo/MazeLibrary\Searching.c **** 			//南へ
 623:C:/Users/leopi/Documents/vs/S-Reo/MazeLibrary\Searching.c **** 			if(now_node->pos.y > 1)						//範囲チェック
 624:C:/Users/leopi/Documents/vs/S-Reo/MazeLibrary\Searching.c **** 			{
 625:C:/Users/leopi/Documents/vs/S-Reo/MazeLibrary\Searching.c **** 				if( (maze->RawNode[now_node->pos.x][now_node->pos.y-1].existence ) == UNKNOWN)	//壁がなけ
 626:C:/Users/leopi/Documents/vs/S-Reo/MazeLibrary\Searching.c **** 				{
 627:C:/Users/leopi/Documents/vs/S-Reo/MazeLibrary\Searching.c **** 					return false;
 628:C:/Users/leopi/Documents/vs/S-Reo/MazeLibrary\Searching.c **** 				}
 629:C:/Users/leopi/Documents/vs/S-Reo/MazeLibrary\Searching.c **** 					//重みを比較して更新
 630:C:/Users/leopi/Documents/vs/S-Reo/MazeLibrary\Searching.c **** 				else if( (maze->RawNode[now_node->pos.x][now_node->pos.y-1].existence ) == NOWALL)
 631:C:/Users/leopi/Documents/vs/S-Reo/MazeLibrary\Searching.c **** 				{
 632:C:/Users/leopi/Documents/vs/S-Reo/MazeLibrary\Searching.c **** 					if(compare_weight > maze->RawNode[now_node->pos.x][now_node->pos.y-1].weight)
 633:C:/Users/leopi/Documents/vs/S-Reo/MazeLibrary\Searching.c **** 					{
 634:C:/Users/leopi/Documents/vs/S-Reo/MazeLibrary\Searching.c **** 						compare_weight = maze->RawNode[now_node->pos.x][now_node->pos.y-1].weight;
 635:C:/Users/leopi/Documents/vs/S-Reo/MazeLibrary\Searching.c **** //						next_node = &(maze->RawNode[now_node->pos.x][now_node->pos.y-1]);
 636:C:/Users/leopi/Documents/vs/S-Reo/MazeLibrary\Searching.c **** 						flag = true;
 637:C:/Users/leopi/Documents/vs/S-Reo/MazeLibrary\Searching.c **** 					}
 638:C:/Users/leopi/Documents/vs/S-Reo/MazeLibrary\Searching.c **** 				}
 639:C:/Users/leopi/Documents/vs/S-Reo/MazeLibrary\Searching.c **** 			}
 640:C:/Users/leopi/Documents/vs/S-Reo/MazeLibrary\Searching.c **** 			if(now_node->pos.x < NUMBER_OF_SQUARES_X-1)					//範囲チェック
 641:C:/Users/leopi/Documents/vs/S-Reo/MazeLibrary\Searching.c **** 			{
 642:C:/Users/leopi/Documents/vs/S-Reo/MazeLibrary\Searching.c **** 				//南へ東へ
 643:C:/Users/leopi/Documents/vs/S-Reo/MazeLibrary\Searching.c **** 				if( (maze->ColumnNode[now_node->pos.x+1][now_node->pos.y-1].existence ) == UNKNOWN)		//壁が
 644:C:/Users/leopi/Documents/vs/S-Reo/MazeLibrary\Searching.c **** 				{
 645:C:/Users/leopi/Documents/vs/S-Reo/MazeLibrary\Searching.c **** 					return false;
 646:C:/Users/leopi/Documents/vs/S-Reo/MazeLibrary\Searching.c **** 				}
 647:C:/Users/leopi/Documents/vs/S-Reo/MazeLibrary\Searching.c **** 				else if( (maze->ColumnNode[now_node->pos.x+1][now_node->pos.y-1].existence ) == NOWALL)		//壁
 648:C:/Users/leopi/Documents/vs/S-Reo/MazeLibrary\Searching.c **** 				{
 649:C:/Users/leopi/Documents/vs/S-Reo/MazeLibrary\Searching.c **** 					//重みを比較して更新
 650:C:/Users/leopi/Documents/vs/S-Reo/MazeLibrary\Searching.c **** 					if(compare_weight > maze->ColumnNode[now_node->pos.x+1][now_node->pos.y-1].weight)
 651:C:/Users/leopi/Documents/vs/S-Reo/MazeLibrary\Searching.c **** 					{
 652:C:/Users/leopi/Documents/vs/S-Reo/MazeLibrary\Searching.c **** 						compare_weight = maze->ColumnNode[now_node->pos.x+1][now_node->pos.y-1].weight;
 653:C:/Users/leopi/Documents/vs/S-Reo/MazeLibrary\Searching.c **** //						next_node = &(maze->ColumnNode[now_node->pos.x+1][now_node->pos.y-1]);
 654:C:/Users/leopi/Documents/vs/S-Reo/MazeLibrary\Searching.c **** 						flag = false;
 655:C:/Users/leopi/Documents/vs/S-Reo/MazeLibrary\Searching.c **** 					}
 656:C:/Users/leopi/Documents/vs/S-Reo/MazeLibrary\Searching.c **** 				}
 657:C:/Users/leopi/Documents/vs/S-Reo/MazeLibrary\Searching.c **** 			}
 658:C:/Users/leopi/Documents/vs/S-Reo/MazeLibrary\Searching.c **** 			if(now_node->pos.x > 0)						//範囲チェック
 659:C:/Users/leopi/Documents/vs/S-Reo/MazeLibrary\Searching.c **** 			{
ARM GAS  C:\Users\leopi\AppData\Local\Temp\ccMuwtHQ.s 			page 51


 660:C:/Users/leopi/Documents/vs/S-Reo/MazeLibrary\Searching.c **** 				//南へ西へ
 661:C:/Users/leopi/Documents/vs/S-Reo/MazeLibrary\Searching.c **** 				if( (maze->ColumnNode[now_node->pos.x][now_node->pos.y-1].existence ) == UNKNOWN)		//壁がな
 662:C:/Users/leopi/Documents/vs/S-Reo/MazeLibrary\Searching.c **** 				{
 663:C:/Users/leopi/Documents/vs/S-Reo/MazeLibrary\Searching.c **** 					return false;
 664:C:/Users/leopi/Documents/vs/S-Reo/MazeLibrary\Searching.c **** 				}
 665:C:/Users/leopi/Documents/vs/S-Reo/MazeLibrary\Searching.c **** 				else if( (maze->ColumnNode[now_node->pos.x][now_node->pos.y-1].existence ) == NOWALL)		//壁が
 666:C:/Users/leopi/Documents/vs/S-Reo/MazeLibrary\Searching.c **** 				{
 667:C:/Users/leopi/Documents/vs/S-Reo/MazeLibrary\Searching.c **** 					//重みを比較して更新
 668:C:/Users/leopi/Documents/vs/S-Reo/MazeLibrary\Searching.c **** 					if(compare_weight > maze->ColumnNode[now_node->pos.x][now_node->pos.y-1].weight)
 669:C:/Users/leopi/Documents/vs/S-Reo/MazeLibrary\Searching.c **** 					{
 670:C:/Users/leopi/Documents/vs/S-Reo/MazeLibrary\Searching.c **** 						compare_weight = maze->ColumnNode[now_node->pos.x][now_node->pos.y-1].weight;
 671:C:/Users/leopi/Documents/vs/S-Reo/MazeLibrary\Searching.c **** //						next_node = &(maze->ColumnNode[now_node->pos.x][now_node->pos.y-1]);
 672:C:/Users/leopi/Documents/vs/S-Reo/MazeLibrary\Searching.c **** 						//このノードあやしい
 673:C:/Users/leopi/Documents/vs/S-Reo/MazeLibrary\Searching.c **** 						flag = false;
 674:C:/Users/leopi/Documents/vs/S-Reo/MazeLibrary\Searching.c **** 					}
 675:C:/Users/leopi/Documents/vs/S-Reo/MazeLibrary\Searching.c **** 				}
 676:C:/Users/leopi/Documents/vs/S-Reo/MazeLibrary\Searching.c **** 			}
 677:C:/Users/leopi/Documents/vs/S-Reo/MazeLibrary\Searching.c **** 			break;
 678:C:/Users/leopi/Documents/vs/S-Reo/MazeLibrary\Searching.c **** 		default :
 679:C:/Users/leopi/Documents/vs/S-Reo/MazeLibrary\Searching.c **** 			//斜め向きは未定義
 680:C:/Users/leopi/Documents/vs/S-Reo/MazeLibrary\Searching.c **** 			break;
 681:C:/Users/leopi/Documents/vs/S-Reo/MazeLibrary\Searching.c **** 		}
 682:C:/Users/leopi/Documents/vs/S-Reo/MazeLibrary\Searching.c **** 	        //6つのうち最小ノードを選ぶ
 683:C:/Users/leopi/Documents/vs/S-Reo/MazeLibrary\Searching.c **** 	}
 684:C:/Users/leopi/Documents/vs/S-Reo/MazeLibrary\Searching.c **** 	else if(now_node->rc == 1)
 685:C:/Users/leopi/Documents/vs/S-Reo/MazeLibrary\Searching.c **** 	{
 686:C:/Users/leopi/Documents/vs/S-Reo/MazeLibrary\Searching.c **** 		//列にいるとき
 687:C:/Users/leopi/Documents/vs/S-Reo/MazeLibrary\Searching.c **** 		//東を向いているか、西を向いているか
 688:C:/Users/leopi/Documents/vs/S-Reo/MazeLibrary\Searching.c **** 		switch(car%8)
 689:C:/Users/leopi/Documents/vs/S-Reo/MazeLibrary\Searching.c **** 		{
 690:C:/Users/leopi/Documents/vs/S-Reo/MazeLibrary\Searching.c **** 		case east:
 691:C:/Users/leopi/Documents/vs/S-Reo/MazeLibrary\Searching.c **** 
 692:C:/Users/leopi/Documents/vs/S-Reo/MazeLibrary\Searching.c **** 			//東側ノード
 693:C:/Users/leopi/Documents/vs/S-Reo/MazeLibrary\Searching.c **** 			if(now_node->pos.x < NUMBER_OF_SQUARES_X-1)					//範囲チェック
 694:C:/Users/leopi/Documents/vs/S-Reo/MazeLibrary\Searching.c **** 			{
 695:C:/Users/leopi/Documents/vs/S-Reo/MazeLibrary\Searching.c **** 				if( (maze->ColumnNode[now_node->pos.x+1][now_node->pos.y].existence ) == UNKNOWN)	//壁がな
 696:C:/Users/leopi/Documents/vs/S-Reo/MazeLibrary\Searching.c **** 				{
 697:C:/Users/leopi/Documents/vs/S-Reo/MazeLibrary\Searching.c **** 					return false;
 698:C:/Users/leopi/Documents/vs/S-Reo/MazeLibrary\Searching.c **** 				}
 699:C:/Users/leopi/Documents/vs/S-Reo/MazeLibrary\Searching.c **** 				else if( (maze->ColumnNode[now_node->pos.x+1][now_node->pos.y].existence ) == NOWALL)	//壁が
 700:C:/Users/leopi/Documents/vs/S-Reo/MazeLibrary\Searching.c **** 				{
 701:C:/Users/leopi/Documents/vs/S-Reo/MazeLibrary\Searching.c **** 					if(compare_weight > maze->ColumnNode[now_node->pos.x+1][now_node->pos.y].weight)
 702:C:/Users/leopi/Documents/vs/S-Reo/MazeLibrary\Searching.c **** 					{
 703:C:/Users/leopi/Documents/vs/S-Reo/MazeLibrary\Searching.c **** 						compare_weight = maze->ColumnNode[now_node->pos.x+1][now_node->pos.y].weight;
 704:C:/Users/leopi/Documents/vs/S-Reo/MazeLibrary\Searching.c **** //							next_node = &(maze->ColumnNode[now_node->pos.x+1][now_node->pos.y]);
 705:C:/Users/leopi/Documents/vs/S-Reo/MazeLibrary\Searching.c **** 						flag = true;
 706:C:/Users/leopi/Documents/vs/S-Reo/MazeLibrary\Searching.c **** 					}
 707:C:/Users/leopi/Documents/vs/S-Reo/MazeLibrary\Searching.c **** 				}
 708:C:/Users/leopi/Documents/vs/S-Reo/MazeLibrary\Searching.c **** 			}
 709:C:/Users/leopi/Documents/vs/S-Reo/MazeLibrary\Searching.c **** 
 710:C:/Users/leopi/Documents/vs/S-Reo/MazeLibrary\Searching.c **** 			//北東
 711:C:/Users/leopi/Documents/vs/S-Reo/MazeLibrary\Searching.c **** 			if(now_node->pos.y < NUMBER_OF_SQUARES_Y-1)					//範囲チェック
 712:C:/Users/leopi/Documents/vs/S-Reo/MazeLibrary\Searching.c **** 			{
 713:C:/Users/leopi/Documents/vs/S-Reo/MazeLibrary\Searching.c **** 				//北東へ
 714:C:/Users/leopi/Documents/vs/S-Reo/MazeLibrary\Searching.c **** 				if( (maze->RawNode[now_node->pos.x][now_node->pos.y+1].existence ) == UNKNOWN)		//壁がなけ
 715:C:/Users/leopi/Documents/vs/S-Reo/MazeLibrary\Searching.c **** 				{
 716:C:/Users/leopi/Documents/vs/S-Reo/MazeLibrary\Searching.c **** 					return false;
ARM GAS  C:\Users\leopi\AppData\Local\Temp\ccMuwtHQ.s 			page 52


 717:C:/Users/leopi/Documents/vs/S-Reo/MazeLibrary\Searching.c **** 				}
 718:C:/Users/leopi/Documents/vs/S-Reo/MazeLibrary\Searching.c **** 				else if( (maze->RawNode[now_node->pos.x][now_node->pos.y+1].existence ) == NOWALL)		//壁がな
 719:C:/Users/leopi/Documents/vs/S-Reo/MazeLibrary\Searching.c **** 				{
 720:C:/Users/leopi/Documents/vs/S-Reo/MazeLibrary\Searching.c **** 					//重みを比較して更新
 721:C:/Users/leopi/Documents/vs/S-Reo/MazeLibrary\Searching.c **** 					if(compare_weight > maze->RawNode[now_node->pos.x][now_node->pos.y+1].weight)
 722:C:/Users/leopi/Documents/vs/S-Reo/MazeLibrary\Searching.c **** 					{
 723:C:/Users/leopi/Documents/vs/S-Reo/MazeLibrary\Searching.c **** 						compare_weight = maze->RawNode[now_node->pos.x][now_node->pos.y+1].weight;
 724:C:/Users/leopi/Documents/vs/S-Reo/MazeLibrary\Searching.c **** //							next_node = &(maze->RawNode[now_node->pos.x][now_node->pos.y+1]);
 725:C:/Users/leopi/Documents/vs/S-Reo/MazeLibrary\Searching.c **** 						flag = false;
 726:C:/Users/leopi/Documents/vs/S-Reo/MazeLibrary\Searching.c **** 					}
 727:C:/Users/leopi/Documents/vs/S-Reo/MazeLibrary\Searching.c **** 				}
 728:C:/Users/leopi/Documents/vs/S-Reo/MazeLibrary\Searching.c **** 			}
 729:C:/Users/leopi/Documents/vs/S-Reo/MazeLibrary\Searching.c **** 
 730:C:/Users/leopi/Documents/vs/S-Reo/MazeLibrary\Searching.c **** 			//南東
 731:C:/Users/leopi/Documents/vs/S-Reo/MazeLibrary\Searching.c **** 			if(now_node->pos.y > 0)						//範囲チェック
 732:C:/Users/leopi/Documents/vs/S-Reo/MazeLibrary\Searching.c **** 			{
 733:C:/Users/leopi/Documents/vs/S-Reo/MazeLibrary\Searching.c **** 				//南東へ
 734:C:/Users/leopi/Documents/vs/S-Reo/MazeLibrary\Searching.c **** 				if( (maze->RawNode[now_node->pos.x][now_node->pos.y].existence ) == UNKNOWN)		//壁がなけれ
 735:C:/Users/leopi/Documents/vs/S-Reo/MazeLibrary\Searching.c **** 				{
 736:C:/Users/leopi/Documents/vs/S-Reo/MazeLibrary\Searching.c **** 					return false;
 737:C:/Users/leopi/Documents/vs/S-Reo/MazeLibrary\Searching.c **** 				}
 738:C:/Users/leopi/Documents/vs/S-Reo/MazeLibrary\Searching.c **** 				else if( (maze->RawNode[now_node->pos.x][now_node->pos.y].existence ) == NOWALL)		//壁がな
 739:C:/Users/leopi/Documents/vs/S-Reo/MazeLibrary\Searching.c **** 				{
 740:C:/Users/leopi/Documents/vs/S-Reo/MazeLibrary\Searching.c **** 					//重みを比較して更新
 741:C:/Users/leopi/Documents/vs/S-Reo/MazeLibrary\Searching.c **** 					if(compare_weight > maze->RawNode[now_node->pos.x][now_node->pos.y].weight)
 742:C:/Users/leopi/Documents/vs/S-Reo/MazeLibrary\Searching.c **** 					{
 743:C:/Users/leopi/Documents/vs/S-Reo/MazeLibrary\Searching.c **** 						compare_weight = maze->RawNode[now_node->pos.x][now_node->pos.y].weight;
 744:C:/Users/leopi/Documents/vs/S-Reo/MazeLibrary\Searching.c **** //							next_node = &(maze->RawNode[now_node->pos.x][now_node->pos.y]);
 745:C:/Users/leopi/Documents/vs/S-Reo/MazeLibrary\Searching.c **** 						flag = false;
 746:C:/Users/leopi/Documents/vs/S-Reo/MazeLibrary\Searching.c **** 					}
 747:C:/Users/leopi/Documents/vs/S-Reo/MazeLibrary\Searching.c **** 				}
 748:C:/Users/leopi/Documents/vs/S-Reo/MazeLibrary\Searching.c **** 			}
 749:C:/Users/leopi/Documents/vs/S-Reo/MazeLibrary\Searching.c **** 			break;
 750:C:/Users/leopi/Documents/vs/S-Reo/MazeLibrary\Searching.c **** 
 751:C:/Users/leopi/Documents/vs/S-Reo/MazeLibrary\Searching.c **** 		case west:
 752:C:/Users/leopi/Documents/vs/S-Reo/MazeLibrary\Searching.c **** 			//西側ノード
 753:C:/Users/leopi/Documents/vs/S-Reo/MazeLibrary\Searching.c **** 			if(now_node->pos.x > 1)						//範囲チェック
 754:C:/Users/leopi/Documents/vs/S-Reo/MazeLibrary\Searching.c **** 			{
 755:C:/Users/leopi/Documents/vs/S-Reo/MazeLibrary\Searching.c **** 				if( (maze->ColumnNode[now_node->pos.x-1][now_node->pos.y].existence ) ==UNKNOWN)	//壁がなけ
 756:C:/Users/leopi/Documents/vs/S-Reo/MazeLibrary\Searching.c **** 				{
 757:C:/Users/leopi/Documents/vs/S-Reo/MazeLibrary\Searching.c **** 					return false;
 758:C:/Users/leopi/Documents/vs/S-Reo/MazeLibrary\Searching.c **** 				}
 759:C:/Users/leopi/Documents/vs/S-Reo/MazeLibrary\Searching.c **** 				else if( (maze->ColumnNode[now_node->pos.x-1][now_node->pos.y].existence ) == NOWALL)	//壁が
 760:C:/Users/leopi/Documents/vs/S-Reo/MazeLibrary\Searching.c **** 				{
 761:C:/Users/leopi/Documents/vs/S-Reo/MazeLibrary\Searching.c **** 					//重みを比較して更新
 762:C:/Users/leopi/Documents/vs/S-Reo/MazeLibrary\Searching.c **** 					if(compare_weight > maze->ColumnNode[now_node->pos.x-1][now_node->pos.y].weight)
 763:C:/Users/leopi/Documents/vs/S-Reo/MazeLibrary\Searching.c **** 					{
 764:C:/Users/leopi/Documents/vs/S-Reo/MazeLibrary\Searching.c **** 						compare_weight = maze->ColumnNode[now_node->pos.x-1][now_node->pos.y].weight;
 765:C:/Users/leopi/Documents/vs/S-Reo/MazeLibrary\Searching.c **** //							next_node = &(maze->ColumnNode[now_node->pos.x-1][now_node->pos.y]);
 766:C:/Users/leopi/Documents/vs/S-Reo/MazeLibrary\Searching.c **** 						flag = true;
 767:C:/Users/leopi/Documents/vs/S-Reo/MazeLibrary\Searching.c **** 					}
 768:C:/Users/leopi/Documents/vs/S-Reo/MazeLibrary\Searching.c **** 				}
 769:C:/Users/leopi/Documents/vs/S-Reo/MazeLibrary\Searching.c **** 			}
 770:C:/Users/leopi/Documents/vs/S-Reo/MazeLibrary\Searching.c **** 			if(now_node->pos.y < NUMBER_OF_SQUARES_Y-1)					//範囲チェック
 771:C:/Users/leopi/Documents/vs/S-Reo/MazeLibrary\Searching.c **** 			{
 772:C:/Users/leopi/Documents/vs/S-Reo/MazeLibrary\Searching.c **** 				//北西へ
 773:C:/Users/leopi/Documents/vs/S-Reo/MazeLibrary\Searching.c **** 				if( (maze->RawNode[now_node->pos.x-1][now_node->pos.y+1].existence ) == UNKNOWN)		//壁がな
ARM GAS  C:\Users\leopi\AppData\Local\Temp\ccMuwtHQ.s 			page 53


 774:C:/Users/leopi/Documents/vs/S-Reo/MazeLibrary\Searching.c **** 				{
 775:C:/Users/leopi/Documents/vs/S-Reo/MazeLibrary\Searching.c **** 					return false;
 776:C:/Users/leopi/Documents/vs/S-Reo/MazeLibrary\Searching.c **** 				}
 777:C:/Users/leopi/Documents/vs/S-Reo/MazeLibrary\Searching.c **** 				else if( (maze->RawNode[now_node->pos.x-1][now_node->pos.y+1].existence ) == NOWALL)		//壁が
 778:C:/Users/leopi/Documents/vs/S-Reo/MazeLibrary\Searching.c **** 				{
 779:C:/Users/leopi/Documents/vs/S-Reo/MazeLibrary\Searching.c **** 					//重みを比較して更新
 780:C:/Users/leopi/Documents/vs/S-Reo/MazeLibrary\Searching.c **** 					if(compare_weight > maze->RawNode[now_node->pos.x-1][now_node->pos.y+1].weight)
 781:C:/Users/leopi/Documents/vs/S-Reo/MazeLibrary\Searching.c **** 					{
 782:C:/Users/leopi/Documents/vs/S-Reo/MazeLibrary\Searching.c **** 						compare_weight = maze->RawNode[now_node->pos.x-1][now_node->pos.y+1].weight;
 783:C:/Users/leopi/Documents/vs/S-Reo/MazeLibrary\Searching.c **** //							next_node = &(maze->RawNode[now_node->pos.x-1][now_node->pos.y+1]);
 784:C:/Users/leopi/Documents/vs/S-Reo/MazeLibrary\Searching.c **** 						flag = false;
 785:C:/Users/leopi/Documents/vs/S-Reo/MazeLibrary\Searching.c **** 					}
 786:C:/Users/leopi/Documents/vs/S-Reo/MazeLibrary\Searching.c **** 				}
 787:C:/Users/leopi/Documents/vs/S-Reo/MazeLibrary\Searching.c **** 			}
 788:C:/Users/leopi/Documents/vs/S-Reo/MazeLibrary\Searching.c **** 			if(now_node->pos.y > 0)						//範囲チェック
 789:C:/Users/leopi/Documents/vs/S-Reo/MazeLibrary\Searching.c **** 			{
 790:C:/Users/leopi/Documents/vs/S-Reo/MazeLibrary\Searching.c **** 				//南へ西へ
 791:C:/Users/leopi/Documents/vs/S-Reo/MazeLibrary\Searching.c **** 				if( (maze->RawNode[now_node->pos.x-1][now_node->pos.y].existence ) == UNKNOWN)		//壁がなけ
 792:C:/Users/leopi/Documents/vs/S-Reo/MazeLibrary\Searching.c **** 				{
 793:C:/Users/leopi/Documents/vs/S-Reo/MazeLibrary\Searching.c **** 					return false;
 794:C:/Users/leopi/Documents/vs/S-Reo/MazeLibrary\Searching.c **** 				}
 795:C:/Users/leopi/Documents/vs/S-Reo/MazeLibrary\Searching.c **** 				else if( (maze->RawNode[now_node->pos.x-1][now_node->pos.y].existence ) == NOWALL)		//壁がな
 796:C:/Users/leopi/Documents/vs/S-Reo/MazeLibrary\Searching.c **** 				{
 797:C:/Users/leopi/Documents/vs/S-Reo/MazeLibrary\Searching.c **** 					//重みを比較して更新
 798:C:/Users/leopi/Documents/vs/S-Reo/MazeLibrary\Searching.c **** 					if(compare_weight > maze->RawNode[now_node->pos.x-1][now_node->pos.y].weight)
 799:C:/Users/leopi/Documents/vs/S-Reo/MazeLibrary\Searching.c **** 					{
 800:C:/Users/leopi/Documents/vs/S-Reo/MazeLibrary\Searching.c **** 						compare_weight = maze->RawNode[now_node->pos.x-1][now_node->pos.y].weight;
 801:C:/Users/leopi/Documents/vs/S-Reo/MazeLibrary\Searching.c **** //							next_node = &(maze->RawNode[now_node->pos.x-1][now_node->pos.y]);
 802:C:/Users/leopi/Documents/vs/S-Reo/MazeLibrary\Searching.c **** 						flag = false;
 803:C:/Users/leopi/Documents/vs/S-Reo/MazeLibrary\Searching.c **** 					}
 804:C:/Users/leopi/Documents/vs/S-Reo/MazeLibrary\Searching.c **** 				}
 805:C:/Users/leopi/Documents/vs/S-Reo/MazeLibrary\Searching.c **** 
 806:C:/Users/leopi/Documents/vs/S-Reo/MazeLibrary\Searching.c **** 			}
 807:C:/Users/leopi/Documents/vs/S-Reo/MazeLibrary\Searching.c **** 			break;
 808:C:/Users/leopi/Documents/vs/S-Reo/MazeLibrary\Searching.c **** 		default :
 809:C:/Users/leopi/Documents/vs/S-Reo/MazeLibrary\Searching.c **** 			break;
 810:C:/Users/leopi/Documents/vs/S-Reo/MazeLibrary\Searching.c **** 		}
 811:C:/Users/leopi/Documents/vs/S-Reo/MazeLibrary\Searching.c **** 	}
 812:C:/Users/leopi/Documents/vs/S-Reo/MazeLibrary\Searching.c **** 	return flag; //壁が全部あるときもfalseになっている
 813:C:/Users/leopi/Documents/vs/S-Reo/MazeLibrary\Searching.c **** 	//未知があった時点でreturn false
 814:C:/Users/leopi/Documents/vs/S-Reo/MazeLibrary\Searching.c **** 	//直進かどうかまで見て、直進でなければfalse
 815:C:/Users/leopi/Documents/vs/S-Reo/MazeLibrary\Searching.c **** 	//既知でかつ直進ならtrue
 816:C:/Users/leopi/Documents/vs/S-Reo/MazeLibrary\Searching.c **** }
 1961              		.loc 1 816 1 view .LVU562
 1962 001a 70BD     		pop	{r4, r5, r6, pc}
 1963              	.LVL169:
 1964              	.L111:
 560:C:/Users/leopi/Documents/vs/S-Reo/MazeLibrary\Searching.c **** 	        {
 1965              		.loc 1 560 10 is_stmt 1 view .LVU563
 560:C:/Users/leopi/Documents/vs/S-Reo/MazeLibrary\Searching.c **** 	        {
 1966              		.loc 1 560 26 is_stmt 0 view .LVU564
 1967 001c D179     		ldrb	r1, [r2, #7]	@ zero_extendqisi2
 560:C:/Users/leopi/Documents/vs/S-Reo/MazeLibrary\Searching.c **** 	        {
 1968              		.loc 1 560 12 view .LVU565
 1969 001e 0E29     		cmp	r1, #14
 1970 0020 16D8     		bhi	.L124
 563:C:/Users/leopi/Documents/vs/S-Reo/MazeLibrary\Searching.c **** 	            {
ARM GAS  C:\Users\leopi\AppData\Local\Temp\ccMuwtHQ.s 			page 54


 1971              		.loc 1 563 14 is_stmt 1 view .LVU566
 563:C:/Users/leopi/Documents/vs/S-Reo/MazeLibrary\Searching.c **** 	            {
 1972              		.loc 1 563 46 is_stmt 0 view .LVU567
 1973 0022 92F806E0 		ldrb	lr, [r2, #6]	@ zero_extendqisi2
 563:C:/Users/leopi/Documents/vs/S-Reo/MazeLibrary\Searching.c **** 	            {
 1974              		.loc 1 563 65 view .LVU568
 1975 0026 4D1C     		adds	r5, r1, #1
 563:C:/Users/leopi/Documents/vs/S-Reo/MazeLibrary\Searching.c **** 	            {
 1976              		.loc 1 563 68 view .LVU569
 1977 0028 0EEB0E14 		add	r4, lr, lr, lsl #4
 1978 002c 2C44     		add	r4, r4, r5
 1979 002e 13F83440 		ldrb	r4, [r3, r4, lsl #3]	@ zero_extendqisi2
 563:C:/Users/leopi/Documents/vs/S-Reo/MazeLibrary\Searching.c **** 	            {
 1980              		.loc 1 563 16 view .LVU570
 1981 0032 022C     		cmp	r4, #2
 1982 0034 F1D0     		beq	.L113
 568:C:/Users/leopi/Documents/vs/S-Reo/MazeLibrary\Searching.c **** 	            {
 1983              		.loc 1 568 19 is_stmt 1 view .LVU571
 568:C:/Users/leopi/Documents/vs/S-Reo/MazeLibrary\Searching.c **** 	            {
 1984              		.loc 1 568 21 is_stmt 0 view .LVU572
 1985 0036 002C     		cmp	r4, #0
 1986 0038 3CD1     		bne	.L125
 573:C:/Users/leopi/Documents/vs/S-Reo/MazeLibrary\Searching.c **** 	                {
 1987              		.loc 1 573 18 is_stmt 1 view .LVU573
 573:C:/Users/leopi/Documents/vs/S-Reo/MazeLibrary\Searching.c **** 	                {
 1988              		.loc 1 573 87 is_stmt 0 view .LVU574
 1989 003a 0EEB0E1E 		add	lr, lr, lr, lsl #4
 1990 003e AE44     		add	lr, lr, r5
 1991 0040 03EBCE0E 		add	lr, r3, lr, lsl #3
 1992 0044 BEF80240 		ldrh	r4, [lr, #2]
 573:C:/Users/leopi/Documents/vs/S-Reo/MazeLibrary\Searching.c **** 	                {
 1993              		.loc 1 573 20 view .LVU575
 1994 0048 6445     		cmp	r4, ip
 1995 004a 35D3     		bcc	.L126
 551:C:/Users/leopi/Documents/vs/S-Reo/MazeLibrary\Searching.c **** 	//現ノードから3方向ノードを見て、未知なら即return
 1996              		.loc 1 551 8 view .LVU576
 1997 004c 8646     		mov	lr, r0
 1998 004e 00E0     		b	.L114
 1999              	.L124:
 551:C:/Users/leopi/Documents/vs/S-Reo/MazeLibrary\Searching.c **** 	//現ノードから3方向ノードを見て、未知なら即return
 2000              		.loc 1 551 8 view .LVU577
 2001 0050 8646     		mov	lr, r0
 2002              	.LVL170:
 2003              	.L114:
 583:C:/Users/leopi/Documents/vs/S-Reo/MazeLibrary\Searching.c **** 	        {
 2004              		.loc 1 583 10 is_stmt 1 view .LVU578
 583:C:/Users/leopi/Documents/vs/S-Reo/MazeLibrary\Searching.c **** 	        {
 2005              		.loc 1 583 26 is_stmt 0 view .LVU579
 2006 0052 9279     		ldrb	r2, [r2, #6]	@ zero_extendqisi2
 2007              	.LVL171:
 583:C:/Users/leopi/Documents/vs/S-Reo/MazeLibrary\Searching.c **** 	        {
 2008              		.loc 1 583 12 view .LVU580
 2009 0054 0E2A     		cmp	r2, #14
 2010 0056 14D8     		bhi	.L115
 586:C:/Users/leopi/Documents/vs/S-Reo/MazeLibrary\Searching.c **** 	            {
 2011              		.loc 1 586 14 is_stmt 1 view .LVU581
 586:C:/Users/leopi/Documents/vs/S-Reo/MazeLibrary\Searching.c **** 	            {
ARM GAS  C:\Users\leopi\AppData\Local\Temp\ccMuwtHQ.s 			page 55


 2012              		.loc 1 586 51 is_stmt 0 view .LVU582
 2013 0058 541C     		adds	r4, r2, #1
 586:C:/Users/leopi/Documents/vs/S-Reo/MazeLibrary\Searching.c **** 	            {
 2014              		.loc 1 586 71 view .LVU583
 2015 005a 01EB0415 		add	r5, r1, r4, lsl #4
 2016 005e 05F58875 		add	r5, r5, #272
 2017 0062 13F83550 		ldrb	r5, [r3, r5, lsl #3]	@ zero_extendqisi2
 586:C:/Users/leopi/Documents/vs/S-Reo/MazeLibrary\Searching.c **** 	            {
 2018              		.loc 1 586 16 view .LVU584
 2019 0066 022D     		cmp	r5, #2
 2020 0068 D7D0     		beq	.L113
 590:C:/Users/leopi/Documents/vs/S-Reo/MazeLibrary\Searching.c **** 	            {//重みを比較して更新
 2021              		.loc 1 590 19 is_stmt 1 view .LVU585
 590:C:/Users/leopi/Documents/vs/S-Reo/MazeLibrary\Searching.c **** 	            {//重みを比較して更新
 2022              		.loc 1 590 21 is_stmt 0 view .LVU586
 2023 006a 55B9     		cbnz	r5, .L115
 592:C:/Users/leopi/Documents/vs/S-Reo/MazeLibrary\Searching.c **** 	                {
 2024              		.loc 1 592 18 is_stmt 1 view .LVU587
 592:C:/Users/leopi/Documents/vs/S-Reo/MazeLibrary\Searching.c **** 	                {
 2025              		.loc 1 592 90 is_stmt 0 view .LVU588
 2026 006c 01EB0414 		add	r4, r1, r4, lsl #4
 2027 0070 04F58874 		add	r4, r4, #272
 2028 0074 03EBC404 		add	r4, r3, r4, lsl #3
 2029 0078 6488     		ldrh	r4, [r4, #2]
 592:C:/Users/leopi/Documents/vs/S-Reo/MazeLibrary\Searching.c **** 	                {
 2030              		.loc 1 592 20 view .LVU589
 2031 007a 6445     		cmp	r4, ip
 2032 007c 01D2     		bcs	.L115
 596:C:/Users/leopi/Documents/vs/S-Reo/MazeLibrary\Searching.c **** 	                }
 2033              		.loc 1 596 27 view .LVU590
 2034 007e 8646     		mov	lr, r0
 2035              	.LVL172:
 594:C:/Users/leopi/Documents/vs/S-Reo/MazeLibrary\Searching.c **** //	                    next_node = &(maze->ColumnNode[now_node->pos.x+1][now_node->pos.y]);
 2036              		.loc 1 594 37 view .LVU591
 2037 0080 A446     		mov	ip, r4
 2038              	.LVL173:
 2039              	.L115:
 602:C:/Users/leopi/Documents/vs/S-Reo/MazeLibrary\Searching.c **** 	        {
 2040              		.loc 1 602 10 is_stmt 1 view .LVU592
 602:C:/Users/leopi/Documents/vs/S-Reo/MazeLibrary\Searching.c **** 	        {
 2041              		.loc 1 602 12 is_stmt 0 view .LVU593
 2042 0082 002A     		cmp	r2, #0
 2043 0084 00F01781 		beq	.L128
 605:C:/Users/leopi/Documents/vs/S-Reo/MazeLibrary\Searching.c **** 	            {
 2044              		.loc 1 605 14 is_stmt 1 view .LVU594
 605:C:/Users/leopi/Documents/vs/S-Reo/MazeLibrary\Searching.c **** 	            {
 2045              		.loc 1 605 69 is_stmt 0 view .LVU595
 2046 0088 01EB0214 		add	r4, r1, r2, lsl #4
 2047 008c 04F58874 		add	r4, r4, #272
 2048 0090 13F83440 		ldrb	r4, [r3, r4, lsl #3]	@ zero_extendqisi2
 605:C:/Users/leopi/Documents/vs/S-Reo/MazeLibrary\Searching.c **** 	            {
 2049              		.loc 1 605 16 view .LVU596
 2050 0094 022C     		cmp	r4, #2
 2051 0096 C0D0     		beq	.L113
 610:C:/Users/leopi/Documents/vs/S-Reo/MazeLibrary\Searching.c **** 	            {
 2052              		.loc 1 610 19 is_stmt 1 view .LVU597
 610:C:/Users/leopi/Documents/vs/S-Reo/MazeLibrary\Searching.c **** 	            {
ARM GAS  C:\Users\leopi\AppData\Local\Temp\ccMuwtHQ.s 			page 56


 2053              		.loc 1 610 21 is_stmt 0 view .LVU598
 2054 0098 002C     		cmp	r4, #0
 2055 009a 40F00E81 		bne	.L129
 612:C:/Users/leopi/Documents/vs/S-Reo/MazeLibrary\Searching.c **** 	                {
 2056              		.loc 1 612 18 is_stmt 1 view .LVU599
 612:C:/Users/leopi/Documents/vs/S-Reo/MazeLibrary\Searching.c **** 	                {
 2057              		.loc 1 612 88 is_stmt 0 view .LVU600
 2058 009e 01EB0211 		add	r1, r1, r2, lsl #4
 2059 00a2 01F58871 		add	r1, r1, #272
 2060 00a6 03EBC103 		add	r3, r3, r1, lsl #3
 2061              	.LVL174:
 612:C:/Users/leopi/Documents/vs/S-Reo/MazeLibrary\Searching.c **** 	                {
 2062              		.loc 1 612 88 view .LVU601
 2063 00aa 5B88     		ldrh	r3, [r3, #2]
 612:C:/Users/leopi/Documents/vs/S-Reo/MazeLibrary\Searching.c **** 	                {
 2064              		.loc 1 612 20 view .LVU602
 2065 00ac 6345     		cmp	r3, ip
 2066 00ae B4D3     		bcc	.L113
 2067 00b0 7046     		mov	r0, lr
 2068 00b2 B2E7     		b	.L113
 2069              	.LVL175:
 2070              	.L125:
 551:C:/Users/leopi/Documents/vs/S-Reo/MazeLibrary\Searching.c **** 	//現ノードから3方向ノードを見て、未知なら即return
 2071              		.loc 1 551 8 view .LVU603
 2072 00b4 8646     		mov	lr, r0
 2073 00b6 CCE7     		b	.L114
 2074              	.L126:
 575:C:/Users/leopi/Documents/vs/S-Reo/MazeLibrary\Searching.c **** //	                    next_node = &(maze->RawNode[now_node->pos.x][now_node->pos.y+1]);
 2075              		.loc 1 575 37 view .LVU604
 2076 00b8 A446     		mov	ip, r4
 2077              	.LVL176:
 577:C:/Users/leopi/Documents/vs/S-Reo/MazeLibrary\Searching.c **** 	                }
 2078              		.loc 1 577 27 view .LVU605
 2079 00ba 4FF0010E 		mov	lr, #1
 2080 00be C8E7     		b	.L114
 2081              	.LVL177:
 2082              	.L112:
 623:C:/Users/leopi/Documents/vs/S-Reo/MazeLibrary\Searching.c **** 			{
 2083              		.loc 1 623 4 is_stmt 1 view .LVU606
 623:C:/Users/leopi/Documents/vs/S-Reo/MazeLibrary\Searching.c **** 			{
 2084              		.loc 1 623 20 is_stmt 0 view .LVU607
 2085 00c0 D179     		ldrb	r1, [r2, #7]	@ zero_extendqisi2
 623:C:/Users/leopi/Documents/vs/S-Reo/MazeLibrary\Searching.c **** 			{
 2086              		.loc 1 623 6 view .LVU608
 2087 00c2 0129     		cmp	r1, #1
 2088 00c4 16D9     		bls	.L130
 625:C:/Users/leopi/Documents/vs/S-Reo/MazeLibrary\Searching.c **** 				{
 2089              		.loc 1 625 5 is_stmt 1 view .LVU609
 625:C:/Users/leopi/Documents/vs/S-Reo/MazeLibrary\Searching.c **** 				{
 2090              		.loc 1 625 37 is_stmt 0 view .LVU610
 2091 00c6 92F806E0 		ldrb	lr, [r2, #6]	@ zero_extendqisi2
 625:C:/Users/leopi/Documents/vs/S-Reo/MazeLibrary\Searching.c **** 				{
 2092              		.loc 1 625 56 view .LVU611
 2093 00ca 4D1E     		subs	r5, r1, #1
 625:C:/Users/leopi/Documents/vs/S-Reo/MazeLibrary\Searching.c **** 				{
 2094              		.loc 1 625 59 view .LVU612
 2095 00cc 0EEB0E14 		add	r4, lr, lr, lsl #4
ARM GAS  C:\Users\leopi\AppData\Local\Temp\ccMuwtHQ.s 			page 57


 2096 00d0 2C44     		add	r4, r4, r5
 2097 00d2 13F83440 		ldrb	r4, [r3, r4, lsl #3]	@ zero_extendqisi2
 625:C:/Users/leopi/Documents/vs/S-Reo/MazeLibrary\Searching.c **** 				{
 2098              		.loc 1 625 7 view .LVU613
 2099 00d6 022C     		cmp	r4, #2
 2100 00d8 9FD0     		beq	.L113
 630:C:/Users/leopi/Documents/vs/S-Reo/MazeLibrary\Searching.c **** 				{
 2101              		.loc 1 630 10 is_stmt 1 view .LVU614
 630:C:/Users/leopi/Documents/vs/S-Reo/MazeLibrary\Searching.c **** 				{
 2102              		.loc 1 630 12 is_stmt 0 view .LVU615
 2103 00da 002C     		cmp	r4, #0
 2104 00dc 40D1     		bne	.L131
 632:C:/Users/leopi/Documents/vs/S-Reo/MazeLibrary\Searching.c **** 					{
 2105              		.loc 1 632 6 is_stmt 1 view .LVU616
 632:C:/Users/leopi/Documents/vs/S-Reo/MazeLibrary\Searching.c **** 					{
 2106              		.loc 1 632 75 is_stmt 0 view .LVU617
 2107 00de 0EEB0E1E 		add	lr, lr, lr, lsl #4
 2108 00e2 AE44     		add	lr, lr, r5
 2109 00e4 03EBCE0E 		add	lr, r3, lr, lsl #3
 2110 00e8 BEF80240 		ldrh	r4, [lr, #2]
 632:C:/Users/leopi/Documents/vs/S-Reo/MazeLibrary\Searching.c **** 					{
 2111              		.loc 1 632 8 view .LVU618
 2112 00ec 6445     		cmp	r4, ip
 2113 00ee 39D3     		bcc	.L132
 551:C:/Users/leopi/Documents/vs/S-Reo/MazeLibrary\Searching.c **** 	//現ノードから3方向ノードを見て、未知なら即return
 2114              		.loc 1 551 8 view .LVU619
 2115 00f0 8646     		mov	lr, r0
 2116 00f2 00E0     		b	.L116
 2117              	.L130:
 551:C:/Users/leopi/Documents/vs/S-Reo/MazeLibrary\Searching.c **** 	//現ノードから3方向ノードを見て、未知なら即return
 2118              		.loc 1 551 8 view .LVU620
 2119 00f4 8646     		mov	lr, r0
 2120              	.LVL178:
 2121              	.L116:
 640:C:/Users/leopi/Documents/vs/S-Reo/MazeLibrary\Searching.c **** 			{
 2122              		.loc 1 640 4 is_stmt 1 view .LVU621
 640:C:/Users/leopi/Documents/vs/S-Reo/MazeLibrary\Searching.c **** 			{
 2123              		.loc 1 640 20 is_stmt 0 view .LVU622
 2124 00f6 9279     		ldrb	r2, [r2, #6]	@ zero_extendqisi2
 2125              	.LVL179:
 640:C:/Users/leopi/Documents/vs/S-Reo/MazeLibrary\Searching.c **** 			{
 2126              		.loc 1 640 6 view .LVU623
 2127 00f8 0E2A     		cmp	r2, #14
 2128 00fa 15D8     		bhi	.L117
 643:C:/Users/leopi/Documents/vs/S-Reo/MazeLibrary\Searching.c **** 				{
 2129              		.loc 1 643 5 is_stmt 1 view .LVU624
 643:C:/Users/leopi/Documents/vs/S-Reo/MazeLibrary\Searching.c **** 				{
 2130              		.loc 1 643 42 is_stmt 0 view .LVU625
 2131 00fc 561C     		adds	r6, r2, #1
 643:C:/Users/leopi/Documents/vs/S-Reo/MazeLibrary\Searching.c **** 				{
 2132              		.loc 1 643 61 view .LVU626
 2133 00fe 4C1E     		subs	r4, r1, #1
 643:C:/Users/leopi/Documents/vs/S-Reo/MazeLibrary\Searching.c **** 				{
 2134              		.loc 1 643 64 view .LVU627
 2135 0100 04EB0615 		add	r5, r4, r6, lsl #4
 2136 0104 05F58875 		add	r5, r5, #272
 2137 0108 13F83550 		ldrb	r5, [r3, r5, lsl #3]	@ zero_extendqisi2
ARM GAS  C:\Users\leopi\AppData\Local\Temp\ccMuwtHQ.s 			page 58


 643:C:/Users/leopi/Documents/vs/S-Reo/MazeLibrary\Searching.c **** 				{
 2138              		.loc 1 643 7 view .LVU628
 2139 010c 022D     		cmp	r5, #2
 2140 010e 84D0     		beq	.L113
 647:C:/Users/leopi/Documents/vs/S-Reo/MazeLibrary\Searching.c **** 				{
 2141              		.loc 1 647 10 is_stmt 1 view .LVU629
 647:C:/Users/leopi/Documents/vs/S-Reo/MazeLibrary\Searching.c **** 				{
 2142              		.loc 1 647 12 is_stmt 0 view .LVU630
 2143 0110 55B9     		cbnz	r5, .L117
 650:C:/Users/leopi/Documents/vs/S-Reo/MazeLibrary\Searching.c **** 					{
 2144              		.loc 1 650 6 is_stmt 1 view .LVU631
 650:C:/Users/leopi/Documents/vs/S-Reo/MazeLibrary\Searching.c **** 					{
 2145              		.loc 1 650 80 is_stmt 0 view .LVU632
 2146 0112 04EB0614 		add	r4, r4, r6, lsl #4
 2147 0116 04F58874 		add	r4, r4, #272
 2148 011a 03EBC404 		add	r4, r3, r4, lsl #3
 2149 011e 6488     		ldrh	r4, [r4, #2]
 650:C:/Users/leopi/Documents/vs/S-Reo/MazeLibrary\Searching.c **** 					{
 2150              		.loc 1 650 8 view .LVU633
 2151 0120 6445     		cmp	r4, ip
 2152 0122 01D2     		bcs	.L117
 654:C:/Users/leopi/Documents/vs/S-Reo/MazeLibrary\Searching.c **** 					}
 2153              		.loc 1 654 12 view .LVU634
 2154 0124 8646     		mov	lr, r0
 2155              	.LVL180:
 652:C:/Users/leopi/Documents/vs/S-Reo/MazeLibrary\Searching.c **** //						next_node = &(maze->ColumnNode[now_node->pos.x+1][now_node->pos.y-1]);
 2156              		.loc 1 652 22 view .LVU635
 2157 0126 A446     		mov	ip, r4
 2158              	.LVL181:
 2159              	.L117:
 658:C:/Users/leopi/Documents/vs/S-Reo/MazeLibrary\Searching.c **** 			{
 2160              		.loc 1 658 4 is_stmt 1 view .LVU636
 658:C:/Users/leopi/Documents/vs/S-Reo/MazeLibrary\Searching.c **** 			{
 2161              		.loc 1 658 6 is_stmt 0 view .LVU637
 2162 0128 002A     		cmp	r2, #0
 2163 012a 00F0C880 		beq	.L134
 661:C:/Users/leopi/Documents/vs/S-Reo/MazeLibrary\Searching.c **** 				{
 2164              		.loc 1 661 5 is_stmt 1 view .LVU638
 661:C:/Users/leopi/Documents/vs/S-Reo/MazeLibrary\Searching.c **** 				{
 2165              		.loc 1 661 59 is_stmt 0 view .LVU639
 2166 012e 0139     		subs	r1, r1, #1
 661:C:/Users/leopi/Documents/vs/S-Reo/MazeLibrary\Searching.c **** 				{
 2167              		.loc 1 661 62 view .LVU640
 2168 0130 01EB0214 		add	r4, r1, r2, lsl #4
 2169 0134 04F58874 		add	r4, r4, #272
 2170 0138 13F83440 		ldrb	r4, [r3, r4, lsl #3]	@ zero_extendqisi2
 661:C:/Users/leopi/Documents/vs/S-Reo/MazeLibrary\Searching.c **** 				{
 2171              		.loc 1 661 7 view .LVU641
 2172 013c 022C     		cmp	r4, #2
 2173 013e 3FF46CAF 		beq	.L113
 665:C:/Users/leopi/Documents/vs/S-Reo/MazeLibrary\Searching.c **** 				{
 2174              		.loc 1 665 10 is_stmt 1 view .LVU642
 665:C:/Users/leopi/Documents/vs/S-Reo/MazeLibrary\Searching.c **** 				{
 2175              		.loc 1 665 12 is_stmt 0 view .LVU643
 2176 0142 002C     		cmp	r4, #0
 2177 0144 40F0BD80 		bne	.L135
 668:C:/Users/leopi/Documents/vs/S-Reo/MazeLibrary\Searching.c **** 					{
ARM GAS  C:\Users\leopi\AppData\Local\Temp\ccMuwtHQ.s 			page 59


 2178              		.loc 1 668 6 is_stmt 1 view .LVU644
 668:C:/Users/leopi/Documents/vs/S-Reo/MazeLibrary\Searching.c **** 					{
 2179              		.loc 1 668 78 is_stmt 0 view .LVU645
 2180 0148 01EB0211 		add	r1, r1, r2, lsl #4
 2181 014c 01F58871 		add	r1, r1, #272
 2182 0150 03EBC103 		add	r3, r3, r1, lsl #3
 2183              	.LVL182:
 668:C:/Users/leopi/Documents/vs/S-Reo/MazeLibrary\Searching.c **** 					{
 2184              		.loc 1 668 78 view .LVU646
 2185 0154 5B88     		ldrh	r3, [r3, #2]
 668:C:/Users/leopi/Documents/vs/S-Reo/MazeLibrary\Searching.c **** 					{
 2186              		.loc 1 668 8 view .LVU647
 2187 0156 6345     		cmp	r3, ip
 2188 0158 FFF45FAF 		bcc	.L113
 2189 015c 7046     		mov	r0, lr
 2190 015e 5CE7     		b	.L113
 2191              	.LVL183:
 2192              	.L131:
 551:C:/Users/leopi/Documents/vs/S-Reo/MazeLibrary\Searching.c **** 	//現ノードから3方向ノードを見て、未知なら即return
 2193              		.loc 1 551 8 view .LVU648
 2194 0160 8646     		mov	lr, r0
 2195 0162 C8E7     		b	.L116
 2196              	.L132:
 634:C:/Users/leopi/Documents/vs/S-Reo/MazeLibrary\Searching.c **** //						next_node = &(maze->RawNode[now_node->pos.x][now_node->pos.y-1]);
 2197              		.loc 1 634 22 view .LVU649
 2198 0164 A446     		mov	ip, r4
 2199              	.LVL184:
 636:C:/Users/leopi/Documents/vs/S-Reo/MazeLibrary\Searching.c **** 					}
 2200              		.loc 1 636 12 view .LVU650
 2201 0166 4FF0010E 		mov	lr, #1
 2202 016a C4E7     		b	.L116
 2203              	.LVL185:
 2204              	.L110:
 684:C:/Users/leopi/Documents/vs/S-Reo/MazeLibrary\Searching.c **** 	{
 2205              		.loc 1 684 7 is_stmt 1 view .LVU651
 688:C:/Users/leopi/Documents/vs/S-Reo/MazeLibrary\Searching.c **** 		{
 2206              		.loc 1 688 3 view .LVU652
 2207 016c 01F00701 		and	r1, r1, #7
 2208              	.LVL186:
 688:C:/Users/leopi/Documents/vs/S-Reo/MazeLibrary\Searching.c **** 		{
 2209              		.loc 1 688 3 is_stmt 0 view .LVU653
 2210 0170 0229     		cmp	r1, #2
 2211 0172 03D0     		beq	.L118
 2212 0174 0629     		cmp	r1, #6
 2213 0176 4BD0     		beq	.L119
 2214 0178 0020     		movs	r0, #0
 2215 017a 4EE7     		b	.L113
 2216              	.L118:
 693:C:/Users/leopi/Documents/vs/S-Reo/MazeLibrary\Searching.c **** 			{
 2217              		.loc 1 693 4 is_stmt 1 view .LVU654
 693:C:/Users/leopi/Documents/vs/S-Reo/MazeLibrary\Searching.c **** 			{
 2218              		.loc 1 693 20 is_stmt 0 view .LVU655
 2219 017c 9179     		ldrb	r1, [r2, #6]	@ zero_extendqisi2
 693:C:/Users/leopi/Documents/vs/S-Reo/MazeLibrary\Searching.c **** 			{
 2220              		.loc 1 693 6 view .LVU656
 2221 017e 0E29     		cmp	r1, #14
 2222 0180 12D8     		bhi	.L136
ARM GAS  C:\Users\leopi\AppData\Local\Temp\ccMuwtHQ.s 			page 60


 695:C:/Users/leopi/Documents/vs/S-Reo/MazeLibrary\Searching.c **** 				{
 2223              		.loc 1 695 5 is_stmt 1 view .LVU657
 695:C:/Users/leopi/Documents/vs/S-Reo/MazeLibrary\Searching.c **** 				{
 2224              		.loc 1 695 42 is_stmt 0 view .LVU658
 2225 0182 4E1C     		adds	r6, r1, #1
 695:C:/Users/leopi/Documents/vs/S-Reo/MazeLibrary\Searching.c **** 				{
 2226              		.loc 1 695 59 view .LVU659
 2227 0184 D479     		ldrb	r4, [r2, #7]	@ zero_extendqisi2
 695:C:/Users/leopi/Documents/vs/S-Reo/MazeLibrary\Searching.c **** 				{
 2228              		.loc 1 695 62 view .LVU660
 2229 0186 04EB061E 		add	lr, r4, r6, lsl #4
 2230 018a 0EF5887E 		add	lr, lr, #272
 2231 018e 13F83E50 		ldrb	r5, [r3, lr, lsl #3]	@ zero_extendqisi2
 695:C:/Users/leopi/Documents/vs/S-Reo/MazeLibrary\Searching.c **** 				{
 2232              		.loc 1 695 7 view .LVU661
 2233 0192 022D     		cmp	r5, #2
 2234 0194 00F09780 		beq	.L137
 699:C:/Users/leopi/Documents/vs/S-Reo/MazeLibrary\Searching.c **** 				{
 2235              		.loc 1 699 10 is_stmt 1 view .LVU662
 699:C:/Users/leopi/Documents/vs/S-Reo/MazeLibrary\Searching.c **** 				{
 2236              		.loc 1 699 12 is_stmt 0 view .LVU663
 2237 0198 B5BB     		cbnz	r5, .L138
 701:C:/Users/leopi/Documents/vs/S-Reo/MazeLibrary\Searching.c **** 					{
 2238              		.loc 1 701 6 is_stmt 1 view .LVU664
 701:C:/Users/leopi/Documents/vs/S-Reo/MazeLibrary\Searching.c **** 					{
 2239              		.loc 1 701 78 is_stmt 0 view .LVU665
 2240 019a 03EBCE04 		add	r4, r3, lr, lsl #3
 2241 019e 6488     		ldrh	r4, [r4, #2]
 701:C:/Users/leopi/Documents/vs/S-Reo/MazeLibrary\Searching.c **** 					{
 2242              		.loc 1 701 8 view .LVU666
 2243 01a0 6445     		cmp	r4, ip
 2244 01a2 33D3     		bcc	.L139
 551:C:/Users/leopi/Documents/vs/S-Reo/MazeLibrary\Searching.c **** 	//現ノードから3方向ノードを見て、未知なら即return
 2245              		.loc 1 551 8 view .LVU667
 2246 01a4 0020     		movs	r0, #0
 2247 01a6 00E0     		b	.L120
 2248              	.L136:
 551:C:/Users/leopi/Documents/vs/S-Reo/MazeLibrary\Searching.c **** 	//現ノードから3方向ノードを見て、未知なら即return
 2249              		.loc 1 551 8 view .LVU668
 2250 01a8 0020     		movs	r0, #0
 2251              	.LVL187:
 2252              	.L120:
 711:C:/Users/leopi/Documents/vs/S-Reo/MazeLibrary\Searching.c **** 			{
 2253              		.loc 1 711 4 is_stmt 1 view .LVU669
 711:C:/Users/leopi/Documents/vs/S-Reo/MazeLibrary\Searching.c **** 			{
 2254              		.loc 1 711 20 is_stmt 0 view .LVU670
 2255 01aa D279     		ldrb	r2, [r2, #7]	@ zero_extendqisi2
 2256              	.LVL188:
 711:C:/Users/leopi/Documents/vs/S-Reo/MazeLibrary\Searching.c **** 			{
 2257              		.loc 1 711 6 view .LVU671
 2258 01ac 0E2A     		cmp	r2, #14
 2259 01ae 13D8     		bhi	.L121
 714:C:/Users/leopi/Documents/vs/S-Reo/MazeLibrary\Searching.c **** 				{
 2260              		.loc 1 714 5 is_stmt 1 view .LVU672
 714:C:/Users/leopi/Documents/vs/S-Reo/MazeLibrary\Searching.c **** 				{
 2261              		.loc 1 714 56 is_stmt 0 view .LVU673
 2262 01b0 551C     		adds	r5, r2, #1
ARM GAS  C:\Users\leopi\AppData\Local\Temp\ccMuwtHQ.s 			page 61


 714:C:/Users/leopi/Documents/vs/S-Reo/MazeLibrary\Searching.c **** 				{
 2263              		.loc 1 714 59 view .LVU674
 2264 01b2 01EB0114 		add	r4, r1, r1, lsl #4
 2265 01b6 2C44     		add	r4, r4, r5
 2266 01b8 13F83440 		ldrb	r4, [r3, r4, lsl #3]	@ zero_extendqisi2
 714:C:/Users/leopi/Documents/vs/S-Reo/MazeLibrary\Searching.c **** 				{
 2267              		.loc 1 714 7 view .LVU675
 2268 01bc 022C     		cmp	r4, #2
 2269 01be 00F08480 		beq	.L140
 718:C:/Users/leopi/Documents/vs/S-Reo/MazeLibrary\Searching.c **** 				{
 2270              		.loc 1 718 10 is_stmt 1 view .LVU676
 718:C:/Users/leopi/Documents/vs/S-Reo/MazeLibrary\Searching.c **** 				{
 2271              		.loc 1 718 12 is_stmt 0 view .LVU677
 2272 01c2 4CB9     		cbnz	r4, .L121
 721:C:/Users/leopi/Documents/vs/S-Reo/MazeLibrary\Searching.c **** 					{
 2273              		.loc 1 721 6 is_stmt 1 view .LVU678
 721:C:/Users/leopi/Documents/vs/S-Reo/MazeLibrary\Searching.c **** 					{
 2274              		.loc 1 721 75 is_stmt 0 view .LVU679
 2275 01c4 01EB0114 		add	r4, r1, r1, lsl #4
 2276 01c8 2544     		add	r5, r5, r4
 2277 01ca 03EBC505 		add	r5, r3, r5, lsl #3
 2278 01ce 6C88     		ldrh	r4, [r5, #2]
 721:C:/Users/leopi/Documents/vs/S-Reo/MazeLibrary\Searching.c **** 					{
 2279              		.loc 1 721 8 view .LVU680
 2280 01d0 6445     		cmp	r4, ip
 2281 01d2 01D2     		bcs	.L121
 723:C:/Users/leopi/Documents/vs/S-Reo/MazeLibrary\Searching.c **** //							next_node = &(maze->RawNode[now_node->pos.x][now_node->pos.y+1]);
 2282              		.loc 1 723 22 view .LVU681
 2283 01d4 A446     		mov	ip, r4
 2284              	.LVL189:
 725:C:/Users/leopi/Documents/vs/S-Reo/MazeLibrary\Searching.c **** 					}
 2285              		.loc 1 725 12 view .LVU682
 2286 01d6 0020     		movs	r0, #0
 2287              	.LVL190:
 2288              	.L121:
 731:C:/Users/leopi/Documents/vs/S-Reo/MazeLibrary\Searching.c **** 			{
 2289              		.loc 1 731 4 is_stmt 1 view .LVU683
 731:C:/Users/leopi/Documents/vs/S-Reo/MazeLibrary\Searching.c **** 			{
 2290              		.loc 1 731 6 is_stmt 0 view .LVU684
 2291 01d8 002A     		cmp	r2, #0
 2292 01da 3FF41EAF 		beq	.L113
 734:C:/Users/leopi/Documents/vs/S-Reo/MazeLibrary\Searching.c **** 				{
 2293              		.loc 1 734 5 is_stmt 1 view .LVU685
 734:C:/Users/leopi/Documents/vs/S-Reo/MazeLibrary\Searching.c **** 				{
 2294              		.loc 1 734 57 is_stmt 0 view .LVU686
 2295 01de 01EB0114 		add	r4, r1, r1, lsl #4
 2296 01e2 1444     		add	r4, r4, r2
 2297 01e4 13F83440 		ldrb	r4, [r3, r4, lsl #3]	@ zero_extendqisi2
 734:C:/Users/leopi/Documents/vs/S-Reo/MazeLibrary\Searching.c **** 				{
 2298              		.loc 1 734 7 view .LVU687
 2299 01e8 022C     		cmp	r4, #2
 2300 01ea 70D0     		beq	.L142
 738:C:/Users/leopi/Documents/vs/S-Reo/MazeLibrary\Searching.c **** 				{
 2301              		.loc 1 738 10 is_stmt 1 view .LVU688
 738:C:/Users/leopi/Documents/vs/S-Reo/MazeLibrary\Searching.c **** 				{
 2302              		.loc 1 738 12 is_stmt 0 view .LVU689
 2303 01ec 002C     		cmp	r4, #0
ARM GAS  C:\Users\leopi\AppData\Local\Temp\ccMuwtHQ.s 			page 62


 2304 01ee 7FF414AF 		bne	.L113
 741:C:/Users/leopi/Documents/vs/S-Reo/MazeLibrary\Searching.c **** 					{
 2305              		.loc 1 741 6 is_stmt 1 view .LVU690
 741:C:/Users/leopi/Documents/vs/S-Reo/MazeLibrary\Searching.c **** 					{
 2306              		.loc 1 741 73 is_stmt 0 view .LVU691
 2307 01f2 01EB0111 		add	r1, r1, r1, lsl #4
 2308 01f6 1144     		add	r1, r1, r2
 2309 01f8 03EBC103 		add	r3, r3, r1, lsl #3
 2310              	.LVL191:
 741:C:/Users/leopi/Documents/vs/S-Reo/MazeLibrary\Searching.c **** 					{
 2311              		.loc 1 741 73 view .LVU692
 2312 01fc 5B88     		ldrh	r3, [r3, #2]
 741:C:/Users/leopi/Documents/vs/S-Reo/MazeLibrary\Searching.c **** 					{
 2313              		.loc 1 741 8 view .LVU693
 2314 01fe 6345     		cmp	r3, ip
 2315 0200 BFF40BAF 		bcs	.L113
 745:C:/Users/leopi/Documents/vs/S-Reo/MazeLibrary\Searching.c **** 					}
 2316              		.loc 1 745 12 view .LVU694
 2317 0204 0020     		movs	r0, #0
 2318              	.LVL192:
 745:C:/Users/leopi/Documents/vs/S-Reo/MazeLibrary\Searching.c **** 					}
 2319              		.loc 1 745 12 view .LVU695
 2320 0206 08E7     		b	.L113
 2321              	.LVL193:
 2322              	.L138:
 551:C:/Users/leopi/Documents/vs/S-Reo/MazeLibrary\Searching.c **** 	//現ノードから3方向ノードを見て、未知なら即return
 2323              		.loc 1 551 8 view .LVU696
 2324 0208 0020     		movs	r0, #0
 2325 020a CEE7     		b	.L120
 2326              	.L139:
 703:C:/Users/leopi/Documents/vs/S-Reo/MazeLibrary\Searching.c **** //							next_node = &(maze->ColumnNode[now_node->pos.x+1][now_node->pos.y]);
 2327              		.loc 1 703 22 view .LVU697
 2328 020c A446     		mov	ip, r4
 2329              	.LVL194:
 703:C:/Users/leopi/Documents/vs/S-Reo/MazeLibrary\Searching.c **** //							next_node = &(maze->ColumnNode[now_node->pos.x+1][now_node->pos.y]);
 2330              		.loc 1 703 22 view .LVU698
 2331 020e CCE7     		b	.L120
 2332              	.LVL195:
 2333              	.L119:
 753:C:/Users/leopi/Documents/vs/S-Reo/MazeLibrary\Searching.c **** 			{
 2334              		.loc 1 753 4 is_stmt 1 view .LVU699
 753:C:/Users/leopi/Documents/vs/S-Reo/MazeLibrary\Searching.c **** 			{
 2335              		.loc 1 753 20 is_stmt 0 view .LVU700
 2336 0210 9179     		ldrb	r1, [r2, #6]	@ zero_extendqisi2
 753:C:/Users/leopi/Documents/vs/S-Reo/MazeLibrary\Searching.c **** 			{
 2337              		.loc 1 753 6 view .LVU701
 2338 0212 0129     		cmp	r1, #1
 2339 0214 18D9     		bls	.L144
 755:C:/Users/leopi/Documents/vs/S-Reo/MazeLibrary\Searching.c **** 				{
 2340              		.loc 1 755 5 is_stmt 1 view .LVU702
 755:C:/Users/leopi/Documents/vs/S-Reo/MazeLibrary\Searching.c **** 				{
 2341              		.loc 1 755 42 is_stmt 0 view .LVU703
 2342 0216 4D1E     		subs	r5, r1, #1
 755:C:/Users/leopi/Documents/vs/S-Reo/MazeLibrary\Searching.c **** 				{
 2343              		.loc 1 755 59 view .LVU704
 2344 0218 92F807E0 		ldrb	lr, [r2, #7]	@ zero_extendqisi2
 755:C:/Users/leopi/Documents/vs/S-Reo/MazeLibrary\Searching.c **** 				{
ARM GAS  C:\Users\leopi\AppData\Local\Temp\ccMuwtHQ.s 			page 63


 2345              		.loc 1 755 62 view .LVU705
 2346 021c 0EEB0514 		add	r4, lr, r5, lsl #4
 2347 0220 04F58874 		add	r4, r4, #272
 2348 0224 13F83440 		ldrb	r4, [r3, r4, lsl #3]	@ zero_extendqisi2
 755:C:/Users/leopi/Documents/vs/S-Reo/MazeLibrary\Searching.c **** 				{
 2349              		.loc 1 755 7 view .LVU706
 2350 0228 022C     		cmp	r4, #2
 2351 022a 52D0     		beq	.L145
 759:C:/Users/leopi/Documents/vs/S-Reo/MazeLibrary\Searching.c **** 				{
 2352              		.loc 1 759 10 is_stmt 1 view .LVU707
 759:C:/Users/leopi/Documents/vs/S-Reo/MazeLibrary\Searching.c **** 				{
 2353              		.loc 1 759 12 is_stmt 0 view .LVU708
 2354 022c 002C     		cmp	r4, #0
 2355 022e 3ED1     		bne	.L146
 762:C:/Users/leopi/Documents/vs/S-Reo/MazeLibrary\Searching.c **** 					{
 2356              		.loc 1 762 6 is_stmt 1 view .LVU709
 762:C:/Users/leopi/Documents/vs/S-Reo/MazeLibrary\Searching.c **** 					{
 2357              		.loc 1 762 78 is_stmt 0 view .LVU710
 2358 0230 0EEB051E 		add	lr, lr, r5, lsl #4
 2359 0234 0EF5887E 		add	lr, lr, #272
 2360 0238 03EBCE0E 		add	lr, r3, lr, lsl #3
 2361 023c BEF80240 		ldrh	r4, [lr, #2]
 762:C:/Users/leopi/Documents/vs/S-Reo/MazeLibrary\Searching.c **** 					{
 2362              		.loc 1 762 8 view .LVU711
 2363 0240 6445     		cmp	r4, ip
 2364 0242 36D3     		bcc	.L147
 551:C:/Users/leopi/Documents/vs/S-Reo/MazeLibrary\Searching.c **** 	//現ノードから3方向ノードを見て、未知なら即return
 2365              		.loc 1 551 8 view .LVU712
 2366 0244 0020     		movs	r0, #0
 2367 0246 00E0     		b	.L122
 2368              	.L144:
 551:C:/Users/leopi/Documents/vs/S-Reo/MazeLibrary\Searching.c **** 	//現ノードから3方向ノードを見て、未知なら即return
 2369              		.loc 1 551 8 view .LVU713
 2370 0248 0020     		movs	r0, #0
 2371              	.LVL196:
 2372              	.L122:
 770:C:/Users/leopi/Documents/vs/S-Reo/MazeLibrary\Searching.c **** 			{
 2373              		.loc 1 770 4 is_stmt 1 view .LVU714
 770:C:/Users/leopi/Documents/vs/S-Reo/MazeLibrary\Searching.c **** 			{
 2374              		.loc 1 770 20 is_stmt 0 view .LVU715
 2375 024a D279     		ldrb	r2, [r2, #7]	@ zero_extendqisi2
 2376              	.LVL197:
 770:C:/Users/leopi/Documents/vs/S-Reo/MazeLibrary\Searching.c **** 			{
 2377              		.loc 1 770 6 view .LVU716
 2378 024c 0E2A     		cmp	r2, #14
 2379 024e 15D8     		bhi	.L123
 773:C:/Users/leopi/Documents/vs/S-Reo/MazeLibrary\Searching.c **** 				{
 2380              		.loc 1 773 5 is_stmt 1 view .LVU717
 773:C:/Users/leopi/Documents/vs/S-Reo/MazeLibrary\Searching.c **** 				{
 2381              		.loc 1 773 39 is_stmt 0 view .LVU718
 2382 0250 01F1FF3E 		add	lr, r1, #-1
 773:C:/Users/leopi/Documents/vs/S-Reo/MazeLibrary\Searching.c **** 				{
 2383              		.loc 1 773 58 view .LVU719
 2384 0254 551C     		adds	r5, r2, #1
 773:C:/Users/leopi/Documents/vs/S-Reo/MazeLibrary\Searching.c **** 				{
 2385              		.loc 1 773 61 view .LVU720
 2386 0256 0EEB0E14 		add	r4, lr, lr, lsl #4
ARM GAS  C:\Users\leopi\AppData\Local\Temp\ccMuwtHQ.s 			page 64


 2387 025a 2C44     		add	r4, r4, r5
 2388 025c 13F83440 		ldrb	r4, [r3, r4, lsl #3]	@ zero_extendqisi2
 773:C:/Users/leopi/Documents/vs/S-Reo/MazeLibrary\Searching.c **** 				{
 2389              		.loc 1 773 7 view .LVU721
 2390 0260 022C     		cmp	r4, #2
 2391 0262 38D0     		beq	.L148
 777:C:/Users/leopi/Documents/vs/S-Reo/MazeLibrary\Searching.c **** 				{
 2392              		.loc 1 777 10 is_stmt 1 view .LVU722
 777:C:/Users/leopi/Documents/vs/S-Reo/MazeLibrary\Searching.c **** 				{
 2393              		.loc 1 777 12 is_stmt 0 view .LVU723
 2394 0264 54B9     		cbnz	r4, .L123
 780:C:/Users/leopi/Documents/vs/S-Reo/MazeLibrary\Searching.c **** 					{
 2395              		.loc 1 780 6 is_stmt 1 view .LVU724
 780:C:/Users/leopi/Documents/vs/S-Reo/MazeLibrary\Searching.c **** 					{
 2396              		.loc 1 780 77 is_stmt 0 view .LVU725
 2397 0266 0EEB0E1E 		add	lr, lr, lr, lsl #4
 2398 026a AE44     		add	lr, lr, r5
 2399 026c 03EBCE0E 		add	lr, r3, lr, lsl #3
 2400 0270 BEF80240 		ldrh	r4, [lr, #2]
 780:C:/Users/leopi/Documents/vs/S-Reo/MazeLibrary\Searching.c **** 					{
 2401              		.loc 1 780 8 view .LVU726
 2402 0274 6445     		cmp	r4, ip
 2403 0276 01D2     		bcs	.L123
 782:C:/Users/leopi/Documents/vs/S-Reo/MazeLibrary\Searching.c **** //							next_node = &(maze->RawNode[now_node->pos.x-1][now_node->pos.y+1]);
 2404              		.loc 1 782 22 view .LVU727
 2405 0278 A446     		mov	ip, r4
 2406              	.LVL198:
 784:C:/Users/leopi/Documents/vs/S-Reo/MazeLibrary\Searching.c **** 					}
 2407              		.loc 1 784 12 view .LVU728
 2408 027a 0020     		movs	r0, #0
 2409              	.LVL199:
 2410              	.L123:
 788:C:/Users/leopi/Documents/vs/S-Reo/MazeLibrary\Searching.c **** 			{
 2411              		.loc 1 788 4 is_stmt 1 view .LVU729
 788:C:/Users/leopi/Documents/vs/S-Reo/MazeLibrary\Searching.c **** 			{
 2412              		.loc 1 788 6 is_stmt 0 view .LVU730
 2413 027c 002A     		cmp	r2, #0
 2414 027e 3FF4CCAE 		beq	.L113
 791:C:/Users/leopi/Documents/vs/S-Reo/MazeLibrary\Searching.c **** 				{
 2415              		.loc 1 791 5 is_stmt 1 view .LVU731
 791:C:/Users/leopi/Documents/vs/S-Reo/MazeLibrary\Searching.c **** 				{
 2416              		.loc 1 791 39 is_stmt 0 view .LVU732
 2417 0282 0139     		subs	r1, r1, #1
 791:C:/Users/leopi/Documents/vs/S-Reo/MazeLibrary\Searching.c **** 				{
 2418              		.loc 1 791 59 view .LVU733
 2419 0284 01EB0114 		add	r4, r1, r1, lsl #4
 2420 0288 1444     		add	r4, r4, r2
 2421 028a 13F83440 		ldrb	r4, [r3, r4, lsl #3]	@ zero_extendqisi2
 791:C:/Users/leopi/Documents/vs/S-Reo/MazeLibrary\Searching.c **** 				{
 2422              		.loc 1 791 7 view .LVU734
 2423 028e 022C     		cmp	r4, #2
 2424 0290 23D0     		beq	.L150
 795:C:/Users/leopi/Documents/vs/S-Reo/MazeLibrary\Searching.c **** 				{
 2425              		.loc 1 795 10 is_stmt 1 view .LVU735
 795:C:/Users/leopi/Documents/vs/S-Reo/MazeLibrary\Searching.c **** 				{
 2426              		.loc 1 795 12 is_stmt 0 view .LVU736
 2427 0292 002C     		cmp	r4, #0
ARM GAS  C:\Users\leopi\AppData\Local\Temp\ccMuwtHQ.s 			page 65


 2428 0294 7FF4C1AE 		bne	.L113
 798:C:/Users/leopi/Documents/vs/S-Reo/MazeLibrary\Searching.c **** 					{
 2429              		.loc 1 798 6 is_stmt 1 view .LVU737
 798:C:/Users/leopi/Documents/vs/S-Reo/MazeLibrary\Searching.c **** 					{
 2430              		.loc 1 798 75 is_stmt 0 view .LVU738
 2431 0298 01EB0111 		add	r1, r1, r1, lsl #4
 2432 029c 1144     		add	r1, r1, r2
 2433 029e 03EBC103 		add	r3, r3, r1, lsl #3
 2434              	.LVL200:
 798:C:/Users/leopi/Documents/vs/S-Reo/MazeLibrary\Searching.c **** 					{
 2435              		.loc 1 798 75 view .LVU739
 2436 02a2 5B88     		ldrh	r3, [r3, #2]
 798:C:/Users/leopi/Documents/vs/S-Reo/MazeLibrary\Searching.c **** 					{
 2437              		.loc 1 798 8 view .LVU740
 2438 02a4 6345     		cmp	r3, ip
 2439 02a6 BFF4B8AE 		bcs	.L113
 802:C:/Users/leopi/Documents/vs/S-Reo/MazeLibrary\Searching.c **** 					}
 2440              		.loc 1 802 12 view .LVU741
 2441 02aa 0020     		movs	r0, #0
 2442              	.LVL201:
 802:C:/Users/leopi/Documents/vs/S-Reo/MazeLibrary\Searching.c **** 					}
 2443              		.loc 1 802 12 view .LVU742
 2444 02ac B5E6     		b	.L113
 2445              	.LVL202:
 2446              	.L146:
 551:C:/Users/leopi/Documents/vs/S-Reo/MazeLibrary\Searching.c **** 	//現ノードから3方向ノードを見て、未知なら即return
 2447              		.loc 1 551 8 view .LVU743
 2448 02ae 0020     		movs	r0, #0
 2449 02b0 CBE7     		b	.L122
 2450              	.L147:
 764:C:/Users/leopi/Documents/vs/S-Reo/MazeLibrary\Searching.c **** //							next_node = &(maze->ColumnNode[now_node->pos.x-1][now_node->pos.y]);
 2451              		.loc 1 764 22 view .LVU744
 2452 02b2 A446     		mov	ip, r4
 2453              	.LVL203:
 764:C:/Users/leopi/Documents/vs/S-Reo/MazeLibrary\Searching.c **** //							next_node = &(maze->ColumnNode[now_node->pos.x-1][now_node->pos.y]);
 2454              		.loc 1 764 22 view .LVU745
 2455 02b4 C9E7     		b	.L122
 2456              	.LVL204:
 2457              	.L128:
 764:C:/Users/leopi/Documents/vs/S-Reo/MazeLibrary\Searching.c **** //							next_node = &(maze->ColumnNode[now_node->pos.x-1][now_node->pos.y]);
 2458              		.loc 1 764 22 view .LVU746
 2459 02b6 7046     		mov	r0, lr
 2460 02b8 AFE6     		b	.L113
 2461              	.L129:
 764:C:/Users/leopi/Documents/vs/S-Reo/MazeLibrary\Searching.c **** //							next_node = &(maze->ColumnNode[now_node->pos.x-1][now_node->pos.y]);
 2462              		.loc 1 764 22 view .LVU747
 2463 02ba 7046     		mov	r0, lr
 2464 02bc ADE6     		b	.L113
 2465              	.L134:
 764:C:/Users/leopi/Documents/vs/S-Reo/MazeLibrary\Searching.c **** //							next_node = &(maze->ColumnNode[now_node->pos.x-1][now_node->pos.y]);
 2466              		.loc 1 764 22 view .LVU748
 2467 02be 7046     		mov	r0, lr
 2468 02c0 ABE6     		b	.L113
 2469              	.L135:
 764:C:/Users/leopi/Documents/vs/S-Reo/MazeLibrary\Searching.c **** //							next_node = &(maze->ColumnNode[now_node->pos.x-1][now_node->pos.y]);
 2470              		.loc 1 764 22 view .LVU749
 2471 02c2 7046     		mov	r0, lr
ARM GAS  C:\Users\leopi\AppData\Local\Temp\ccMuwtHQ.s 			page 66


 2472 02c4 A9E6     		b	.L113
 2473              	.LVL205:
 2474              	.L137:
 697:C:/Users/leopi/Documents/vs/S-Reo/MazeLibrary\Searching.c **** 				}
 2475              		.loc 1 697 13 view .LVU750
 2476 02c6 0020     		movs	r0, #0
 2477 02c8 A7E6     		b	.L113
 2478              	.LVL206:
 2479              	.L140:
 716:C:/Users/leopi/Documents/vs/S-Reo/MazeLibrary\Searching.c **** 				}
 2480              		.loc 1 716 13 view .LVU751
 2481 02ca 0020     		movs	r0, #0
 2482              	.LVL207:
 716:C:/Users/leopi/Documents/vs/S-Reo/MazeLibrary\Searching.c **** 				}
 2483              		.loc 1 716 13 view .LVU752
 2484 02cc A5E6     		b	.L113
 2485              	.LVL208:
 2486              	.L142:
 736:C:/Users/leopi/Documents/vs/S-Reo/MazeLibrary\Searching.c **** 				}
 2487              		.loc 1 736 13 view .LVU753
 2488 02ce 0020     		movs	r0, #0
 2489              	.LVL209:
 736:C:/Users/leopi/Documents/vs/S-Reo/MazeLibrary\Searching.c **** 				}
 2490              		.loc 1 736 13 view .LVU754
 2491 02d0 A3E6     		b	.L113
 2492              	.LVL210:
 2493              	.L145:
 757:C:/Users/leopi/Documents/vs/S-Reo/MazeLibrary\Searching.c **** 				}
 2494              		.loc 1 757 13 view .LVU755
 2495 02d2 0020     		movs	r0, #0
 2496 02d4 A1E6     		b	.L113
 2497              	.LVL211:
 2498              	.L148:
 775:C:/Users/leopi/Documents/vs/S-Reo/MazeLibrary\Searching.c **** 				}
 2499              		.loc 1 775 13 view .LVU756
 2500 02d6 0020     		movs	r0, #0
 2501              	.LVL212:
 775:C:/Users/leopi/Documents/vs/S-Reo/MazeLibrary\Searching.c **** 				}
 2502              		.loc 1 775 13 view .LVU757
 2503 02d8 9FE6     		b	.L113
 2504              	.LVL213:
 2505              	.L150:
 793:C:/Users/leopi/Documents/vs/S-Reo/MazeLibrary\Searching.c **** 				}
 2506              		.loc 1 793 13 view .LVU758
 2507 02da 0020     		movs	r0, #0
 2508              	.LVL214:
 793:C:/Users/leopi/Documents/vs/S-Reo/MazeLibrary\Searching.c **** 				}
 2509              		.loc 1 793 13 view .LVU759
 2510 02dc 9DE6     		b	.L113
 2511              		.cfi_endproc
 2512              	.LFE20:
 2514              		.section	.text.getNextState,"ax",%progbits
 2515              		.align	1
 2516              		.global	getNextState
 2517              		.syntax unified
 2518              		.thumb
 2519              		.thumb_func
ARM GAS  C:\Users\leopi\AppData\Local\Temp\ccMuwtHQ.s 			page 67


 2521              	getNextState:
 2522              	.LVL215:
 2523              	.LFB21:
 817:C:/Users/leopi/Documents/vs/S-Reo/MazeLibrary\Searching.c **** state *getNextState(state *now_state, state *next_state, node *next_node)
 818:C:/Users/leopi/Documents/vs/S-Reo/MazeLibrary\Searching.c **** {
 2524              		.loc 1 818 1 is_stmt 1 view -0
 2525              		.cfi_startproc
 2526              		@ args = 0, pretend = 0, frame = 0
 2527              		@ frame_needed = 0, uses_anonymous_args = 0
 2528              		.loc 1 818 1 is_stmt 0 view .LVU761
 2529 0000 70B5     		push	{r4, r5, r6, lr}
 2530              	.LCFI22:
 2531              		.cfi_def_cfa_offset 16
 2532              		.cfi_offset 4, -16
 2533              		.cfi_offset 5, -12
 2534              		.cfi_offset 6, -8
 2535              		.cfi_offset 14, -4
 2536 0002 0346     		mov	r3, r0
 2537 0004 0846     		mov	r0, r1
 2538              	.LVL216:
 819:C:/Users/leopi/Documents/vs/S-Reo/MazeLibrary\Searching.c ****     //state *next_state;
 820:C:/Users/leopi/Documents/vs/S-Reo/MazeLibrary\Searching.c ****     //差分を見て、次の状態を定義
 821:C:/Users/leopi/Documents/vs/S-Reo/MazeLibrary\Searching.c ****     //状態の種類に応じて後で追加:探索時と最短時、既知区間走行でうま
 822:C:/Users/leopi/Documents/vs/S-Reo/MazeLibrary\Searching.c ****     //ノードと方角と座標を使って、次の方角と座標を得る
 823:C:/Users/leopi/Documents/vs/S-Reo/MazeLibrary\Searching.c **** 
 824:C:/Users/leopi/Documents/vs/S-Reo/MazeLibrary\Searching.c ****     uint8_t now_x = now_state->node->pos.x;
 2539              		.loc 1 824 5 is_stmt 1 view .LVU762
 2540              		.loc 1 824 30 is_stmt 0 view .LVU763
 2541 0006 9968     		ldr	r1, [r3, #8]
 2542              	.LVL217:
 2543              		.loc 1 824 13 view .LVU764
 2544 0008 91F806E0 		ldrb	lr, [r1, #6]	@ zero_extendqisi2
 2545              	.LVL218:
 825:C:/Users/leopi/Documents/vs/S-Reo/MazeLibrary\Searching.c ****     uint8_t now_y = now_state->node->pos.y;
 2546              		.loc 1 825 5 is_stmt 1 view .LVU765
 2547              		.loc 1 825 13 is_stmt 0 view .LVU766
 2548 000c CC79     		ldrb	r4, [r1, #7]	@ zero_extendqisi2
 2549              	.LVL219:
 826:C:/Users/leopi/Documents/vs/S-Reo/MazeLibrary\Searching.c ****     uint8_t next_x = next_node->pos.x;
 2550              		.loc 1 826 5 is_stmt 1 view .LVU767
 2551              		.loc 1 826 13 is_stmt 0 view .LVU768
 2552 000e 9179     		ldrb	r1, [r2, #6]	@ zero_extendqisi2
 2553              	.LVL220:
 827:C:/Users/leopi/Documents/vs/S-Reo/MazeLibrary\Searching.c ****     uint8_t next_y = next_node->pos.y;
 2554              		.loc 1 827 5 is_stmt 1 view .LVU769
 2555              		.loc 1 827 13 is_stmt 0 view .LVU770
 2556 0010 D579     		ldrb	r5, [r2, #7]	@ zero_extendqisi2
 2557              	.LVL221:
 828:C:/Users/leopi/Documents/vs/S-Reo/MazeLibrary\Searching.c **** 
 829:C:/Users/leopi/Documents/vs/S-Reo/MazeLibrary\Searching.c ****     switch(now_state->car%8)
 2558              		.loc 1 829 5 is_stmt 1 view .LVU771
 2559              		.loc 1 829 21 is_stmt 0 view .LVU772
 2560 0012 93F802C0 		ldrb	ip, [r3, #2]	@ zero_extendqisi2
 2561              		.loc 1 829 5 view .LVU773
 2562 0016 0CF0070C 		and	ip, ip, #7
 2563 001a BCF1060F 		cmp	ip, #6
 2564 001e 19D8     		bhi	.L154
ARM GAS  C:\Users\leopi\AppData\Local\Temp\ccMuwtHQ.s 			page 68


 2565 0020 DFE81CF0 		tbh	[pc, ip, lsl #1]
 2566              	.L156:
 2567 0024 0700     		.2byte	(.L159-.L156)/2
 2568 0026 1800     		.2byte	(.L154-.L156)/2
 2569 0028 5E00     		.2byte	(.L158-.L156)/2
 2570 002a 1800     		.2byte	(.L154-.L156)/2
 2571 002c B800     		.2byte	(.L157-.L156)/2
 2572 002e 1800     		.2byte	(.L154-.L156)/2
 2573 0030 1601     		.2byte	(.L155-.L156)/2
 2574              		.p2align 1
 2575              	.L159:
 830:C:/Users/leopi/Documents/vs/S-Reo/MazeLibrary\Searching.c ****     {
 831:C:/Users/leopi/Documents/vs/S-Reo/MazeLibrary\Searching.c ****         case north://行から、列に行くのか行に行くのかで、差分の取り方を変
 832:C:/Users/leopi/Documents/vs/S-Reo/MazeLibrary\Searching.c ****             if(next_node->rc == 0)
 2576              		.loc 1 832 13 is_stmt 1 view .LVU774
 2577              		.loc 1 832 25 is_stmt 0 view .LVU775
 2578 0032 5279     		ldrb	r2, [r2, #5]	@ zero_extendqisi2
 2579              	.LVL222:
 2580              		.loc 1 832 15 view .LVU776
 2581 0034 1AB9     		cbnz	r2, .L160
 833:C:/Users/leopi/Documents/vs/S-Reo/MazeLibrary\Searching.c ****             {
 834:C:/Users/leopi/Documents/vs/S-Reo/MazeLibrary\Searching.c ****                 //行から行
 835:C:/Users/leopi/Documents/vs/S-Reo/MazeLibrary\Searching.c ****                 //直進かUターンのどちらか。とりあえず1方向
 836:C:/Users/leopi/Documents/vs/S-Reo/MazeLibrary\Searching.c ****                 //隣接するノードしか見ていない
 837:C:/Users/leopi/Documents/vs/S-Reo/MazeLibrary\Searching.c ****                 //直進
 838:C:/Users/leopi/Documents/vs/S-Reo/MazeLibrary\Searching.c ****                 //北向きから北向き
 839:C:/Users/leopi/Documents/vs/S-Reo/MazeLibrary\Searching.c ****                 if( __RAW_TO_RAW_NORTH__(now_x, now_y, next_x, next_y) )
 2582              		.loc 1 839 17 is_stmt 1 view .LVU777
 2583              		.loc 1 839 19 is_stmt 0 view .LVU778
 2584 0036 8E45     		cmp	lr, r1
 2585 0038 0DD0     		beq	.L181
 2586              	.L161:
 840:C:/Users/leopi/Documents/vs/S-Reo/MazeLibrary\Searching.c ****                 {
 841:C:/Users/leopi/Documents/vs/S-Reo/MazeLibrary\Searching.c ****                     next_state->car = north;
 842:C:/Users/leopi/Documents/vs/S-Reo/MazeLibrary\Searching.c ****                     next_state->pos.y = now_state->pos.y + 1;
 843:C:/Users/leopi/Documents/vs/S-Reo/MazeLibrary\Searching.c ****                     now_state->dir = front;
 844:C:/Users/leopi/Documents/vs/S-Reo/MazeLibrary\Searching.c ****                     return next_state;
 845:C:/Users/leopi/Documents/vs/S-Reo/MazeLibrary\Searching.c ****                 }
 846:C:/Users/leopi/Documents/vs/S-Reo/MazeLibrary\Searching.c ****                 //後ろ
 847:C:/Users/leopi/Documents/vs/S-Reo/MazeLibrary\Searching.c ****                 //北向きから南向き
 848:C:/Users/leopi/Documents/vs/S-Reo/MazeLibrary\Searching.c ****                 if( __RAW_TO_RAW_SOUTH__(now_x, now_y, next_x, next_y) )
 2587              		.loc 1 848 17 is_stmt 1 view .LVU779
 2588              		.loc 1 848 19 is_stmt 0 view .LVU780
 2589 003a 8E45     		cmp	lr, r1
 2590 003c 16D0     		beq	.L182
 2591              	.L160:
 849:C:/Users/leopi/Documents/vs/S-Reo/MazeLibrary\Searching.c ****                 {
 850:C:/Users/leopi/Documents/vs/S-Reo/MazeLibrary\Searching.c ****                     next_state->car = south;
 851:C:/Users/leopi/Documents/vs/S-Reo/MazeLibrary\Searching.c ****                     next_state->pos.y = now_state->pos.y - 2; //次に壁を更新するタイミ
 852:C:/Users/leopi/Documents/vs/S-Reo/MazeLibrary\Searching.c ****                     now_state->dir = back;
 853:C:/Users/leopi/Documents/vs/S-Reo/MazeLibrary\Searching.c ****                     return next_state;
 854:C:/Users/leopi/Documents/vs/S-Reo/MazeLibrary\Searching.c ****                 }
 855:C:/Users/leopi/Documents/vs/S-Reo/MazeLibrary\Searching.c **** 
 856:C:/Users/leopi/Documents/vs/S-Reo/MazeLibrary\Searching.c ****             }
 857:C:/Users/leopi/Documents/vs/S-Reo/MazeLibrary\Searching.c **** 
 858:C:/Users/leopi/Documents/vs/S-Reo/MazeLibrary\Searching.c **** 
 859:C:/Users/leopi/Documents/vs/S-Reo/MazeLibrary\Searching.c ****             if(next_node->rc == 1)
ARM GAS  C:\Users\leopi\AppData\Local\Temp\ccMuwtHQ.s 			page 69


 2592              		.loc 1 859 13 is_stmt 1 view .LVU781
 2593              		.loc 1 859 15 is_stmt 0 view .LVU782
 2594 003e 4AB1     		cbz	r2, .L154
 860:C:/Users/leopi/Documents/vs/S-Reo/MazeLibrary\Searching.c ****             {
 861:C:/Users/leopi/Documents/vs/S-Reo/MazeLibrary\Searching.c ****                 //行から列.左右のどちらか判断.あとで後ろも候補にあげる
 862:C:/Users/leopi/Documents/vs/S-Reo/MazeLibrary\Searching.c ****                 //右旋回
 863:C:/Users/leopi/Documents/vs/S-Reo/MazeLibrary\Searching.c ****                 //北向きから北東
 864:C:/Users/leopi/Documents/vs/S-Reo/MazeLibrary\Searching.c ****                 if( __RAW_TO_COLUMN_NE__(now_x, now_y, next_x, next_y) )
 2595              		.loc 1 864 17 is_stmt 1 view .LVU783
 2596              		.loc 1 864 21 is_stmt 0 view .LVU784
 2597 0040 0EF10102 		add	r2, lr, #1
 2598              		.loc 1 864 19 view .LVU785
 2599 0044 8A42     		cmp	r2, r1
 2600 0046 1CD0     		beq	.L183
 2601              	.L162:
 865:C:/Users/leopi/Documents/vs/S-Reo/MazeLibrary\Searching.c ****                 {
 866:C:/Users/leopi/Documents/vs/S-Reo/MazeLibrary\Searching.c ****                     next_state->car = east;
 867:C:/Users/leopi/Documents/vs/S-Reo/MazeLibrary\Searching.c ****                     next_state->pos.x = now_state->pos.x + 1;
 868:C:/Users/leopi/Documents/vs/S-Reo/MazeLibrary\Searching.c ****                     now_state->dir = right;
 869:C:/Users/leopi/Documents/vs/S-Reo/MazeLibrary\Searching.c **** //                    ChangeLED(6);
 870:C:/Users/leopi/Documents/vs/S-Reo/MazeLibrary\Searching.c ****                     return next_state;
 871:C:/Users/leopi/Documents/vs/S-Reo/MazeLibrary\Searching.c ****                 }
 872:C:/Users/leopi/Documents/vs/S-Reo/MazeLibrary\Searching.c **** 
 873:C:/Users/leopi/Documents/vs/S-Reo/MazeLibrary\Searching.c ****                 //左旋回
 874:C:/Users/leopi/Documents/vs/S-Reo/MazeLibrary\Searching.c ****                 //北向きから北西
 875:C:/Users/leopi/Documents/vs/S-Reo/MazeLibrary\Searching.c ****                 if( __RAW_TO_COLUMN_NW__(now_x, now_y, next_x, next_y) )
 2602              		.loc 1 875 17 is_stmt 1 view .LVU786
 2603              		.loc 1 875 19 is_stmt 0 view .LVU787
 2604 0048 8E45     		cmp	lr, r1
 2605 004a 23D0     		beq	.L184
 2606              	.L163:
 876:C:/Users/leopi/Documents/vs/S-Reo/MazeLibrary\Searching.c ****                 {
 877:C:/Users/leopi/Documents/vs/S-Reo/MazeLibrary\Searching.c ****                     next_state->car = west;
 878:C:/Users/leopi/Documents/vs/S-Reo/MazeLibrary\Searching.c ****                     next_state->pos.x = now_state->pos.x - 1;
 879:C:/Users/leopi/Documents/vs/S-Reo/MazeLibrary\Searching.c ****                     now_state->dir = left;
 880:C:/Users/leopi/Documents/vs/S-Reo/MazeLibrary\Searching.c ****                     return next_state;
 881:C:/Users/leopi/Documents/vs/S-Reo/MazeLibrary\Searching.c ****                 }
 882:C:/Users/leopi/Documents/vs/S-Reo/MazeLibrary\Searching.c **** 
 883:C:/Users/leopi/Documents/vs/S-Reo/MazeLibrary\Searching.c ****                 //Uターンして右旋回
 884:C:/Users/leopi/Documents/vs/S-Reo/MazeLibrary\Searching.c ****                 //北向きから南西
 885:C:/Users/leopi/Documents/vs/S-Reo/MazeLibrary\Searching.c ****                 if( __RAW_TO_COLUMN_SW__(now_x, now_y, next_x, next_y) )
 2607              		.loc 1 885 17 is_stmt 1 view .LVU788
 2608              		.loc 1 885 19 is_stmt 0 view .LVU789
 2609 004c 8E45     		cmp	lr, r1
 2610 004e 2AD0     		beq	.L185
 2611              	.L164:
 886:C:/Users/leopi/Documents/vs/S-Reo/MazeLibrary\Searching.c ****                 {
 887:C:/Users/leopi/Documents/vs/S-Reo/MazeLibrary\Searching.c ****                     next_state->car = west;
 888:C:/Users/leopi/Documents/vs/S-Reo/MazeLibrary\Searching.c ****                     next_state->pos.x = now_state->pos.x - 1;
 889:C:/Users/leopi/Documents/vs/S-Reo/MazeLibrary\Searching.c ****                     next_state->pos.y = now_state->pos.y - 1;
 890:C:/Users/leopi/Documents/vs/S-Reo/MazeLibrary\Searching.c ****                     now_state->dir = backright;
 891:C:/Users/leopi/Documents/vs/S-Reo/MazeLibrary\Searching.c ****                     return next_state;
 892:C:/Users/leopi/Documents/vs/S-Reo/MazeLibrary\Searching.c ****                 }
 893:C:/Users/leopi/Documents/vs/S-Reo/MazeLibrary\Searching.c ****                 //Uターンして左旋回
 894:C:/Users/leopi/Documents/vs/S-Reo/MazeLibrary\Searching.c ****                 //北向きから南東
 895:C:/Users/leopi/Documents/vs/S-Reo/MazeLibrary\Searching.c ****                 if( __RAW_TO_COLUMN_SE__(now_x, now_y, next_x, next_y) )
 2612              		.loc 1 895 17 is_stmt 1 view .LVU790
ARM GAS  C:\Users\leopi\AppData\Local\Temp\ccMuwtHQ.s 			page 70


 2613              		.loc 1 895 19 is_stmt 0 view .LVU791
 2614 0050 8A42     		cmp	r2, r1
 2615 0052 37D0     		beq	.L186
 2616              	.LVL223:
 2617              	.L154:
 896:C:/Users/leopi/Documents/vs/S-Reo/MazeLibrary\Searching.c ****                 {
 897:C:/Users/leopi/Documents/vs/S-Reo/MazeLibrary\Searching.c ****                     next_state->car = east;
 898:C:/Users/leopi/Documents/vs/S-Reo/MazeLibrary\Searching.c ****                     next_state->pos.x = now_state->pos.x + 1;
 899:C:/Users/leopi/Documents/vs/S-Reo/MazeLibrary\Searching.c ****                     next_state->pos.y = now_state->pos.y - 1;
 900:C:/Users/leopi/Documents/vs/S-Reo/MazeLibrary\Searching.c ****                     now_state->dir = backleft;
 901:C:/Users/leopi/Documents/vs/S-Reo/MazeLibrary\Searching.c ****                     return next_state;
 902:C:/Users/leopi/Documents/vs/S-Reo/MazeLibrary\Searching.c ****                 }
 903:C:/Users/leopi/Documents/vs/S-Reo/MazeLibrary\Searching.c ****             }
 904:C:/Users/leopi/Documents/vs/S-Reo/MazeLibrary\Searching.c ****             break;
 905:C:/Users/leopi/Documents/vs/S-Reo/MazeLibrary\Searching.c **** 
 906:C:/Users/leopi/Documents/vs/S-Reo/MazeLibrary\Searching.c ****         case east:
 907:C:/Users/leopi/Documents/vs/S-Reo/MazeLibrary\Searching.c ****             if(next_node->rc == 1)
 908:C:/Users/leopi/Documents/vs/S-Reo/MazeLibrary\Searching.c ****             {
 909:C:/Users/leopi/Documents/vs/S-Reo/MazeLibrary\Searching.c ****                 //列から列
 910:C:/Users/leopi/Documents/vs/S-Reo/MazeLibrary\Searching.c ****                 //直進かUターンのどちらか。とりあえず1方向
 911:C:/Users/leopi/Documents/vs/S-Reo/MazeLibrary\Searching.c ****                 //隣接するノードしか見ていない
 912:C:/Users/leopi/Documents/vs/S-Reo/MazeLibrary\Searching.c ****                 //直進
 913:C:/Users/leopi/Documents/vs/S-Reo/MazeLibrary\Searching.c ****                 //東向きから東向き
 914:C:/Users/leopi/Documents/vs/S-Reo/MazeLibrary\Searching.c ****                 if( __COLUMN_TO_COLUMN_EAST__(now_x, now_y, next_x, next_y) )
 915:C:/Users/leopi/Documents/vs/S-Reo/MazeLibrary\Searching.c ****                 {
 916:C:/Users/leopi/Documents/vs/S-Reo/MazeLibrary\Searching.c ****                     next_state->car = east;
 917:C:/Users/leopi/Documents/vs/S-Reo/MazeLibrary\Searching.c ****                     next_state->pos.x = now_state->pos.x + 1;
 918:C:/Users/leopi/Documents/vs/S-Reo/MazeLibrary\Searching.c ****                     now_state->dir = front;
 919:C:/Users/leopi/Documents/vs/S-Reo/MazeLibrary\Searching.c **** //                    ChangeLED(4);
 920:C:/Users/leopi/Documents/vs/S-Reo/MazeLibrary\Searching.c ****                     return next_state;
 921:C:/Users/leopi/Documents/vs/S-Reo/MazeLibrary\Searching.c ****                 }
 922:C:/Users/leopi/Documents/vs/S-Reo/MazeLibrary\Searching.c ****                 //後ろ
 923:C:/Users/leopi/Documents/vs/S-Reo/MazeLibrary\Searching.c ****                 //東向きから西向き
 924:C:/Users/leopi/Documents/vs/S-Reo/MazeLibrary\Searching.c ****                 if( __COLUMN_TO_COLUMN_WEST__(now_x, now_y, next_x, next_y) )
 925:C:/Users/leopi/Documents/vs/S-Reo/MazeLibrary\Searching.c ****                 {
 926:C:/Users/leopi/Documents/vs/S-Reo/MazeLibrary\Searching.c ****                     next_state->car = west;
 927:C:/Users/leopi/Documents/vs/S-Reo/MazeLibrary\Searching.c ****                     next_state->pos.x = now_state->pos.x - 2; //次に壁を更新するタイミ
 928:C:/Users/leopi/Documents/vs/S-Reo/MazeLibrary\Searching.c ****                     now_state->dir = back;
 929:C:/Users/leopi/Documents/vs/S-Reo/MazeLibrary\Searching.c ****                     return next_state;
 930:C:/Users/leopi/Documents/vs/S-Reo/MazeLibrary\Searching.c ****                 }
 931:C:/Users/leopi/Documents/vs/S-Reo/MazeLibrary\Searching.c **** 
 932:C:/Users/leopi/Documents/vs/S-Reo/MazeLibrary\Searching.c ****             }
 933:C:/Users/leopi/Documents/vs/S-Reo/MazeLibrary\Searching.c **** 
 934:C:/Users/leopi/Documents/vs/S-Reo/MazeLibrary\Searching.c **** 
 935:C:/Users/leopi/Documents/vs/S-Reo/MazeLibrary\Searching.c ****             if(next_node->rc == 0)
 936:C:/Users/leopi/Documents/vs/S-Reo/MazeLibrary\Searching.c ****             {
 937:C:/Users/leopi/Documents/vs/S-Reo/MazeLibrary\Searching.c ****                 //列から行.左右のどちらか判断.あとで後ろも候補にあげる
 938:C:/Users/leopi/Documents/vs/S-Reo/MazeLibrary\Searching.c ****                 //右旋回
 939:C:/Users/leopi/Documents/vs/S-Reo/MazeLibrary\Searching.c ****                 //東向きから南東
 940:C:/Users/leopi/Documents/vs/S-Reo/MazeLibrary\Searching.c ****                 if( __COLUMN_TO_RAW_SE__(now_x, now_y, next_x, next_y) )
 941:C:/Users/leopi/Documents/vs/S-Reo/MazeLibrary\Searching.c ****                 {
 942:C:/Users/leopi/Documents/vs/S-Reo/MazeLibrary\Searching.c ****                     next_state->car = south;
 943:C:/Users/leopi/Documents/vs/S-Reo/MazeLibrary\Searching.c ****                     next_state->pos.y = now_state->pos.y - 1;
 944:C:/Users/leopi/Documents/vs/S-Reo/MazeLibrary\Searching.c ****                     now_state->dir = right;
 945:C:/Users/leopi/Documents/vs/S-Reo/MazeLibrary\Searching.c **** //                    ChangeLED(5);
 946:C:/Users/leopi/Documents/vs/S-Reo/MazeLibrary\Searching.c ****                     return next_state;
 947:C:/Users/leopi/Documents/vs/S-Reo/MazeLibrary\Searching.c ****                 }
ARM GAS  C:\Users\leopi\AppData\Local\Temp\ccMuwtHQ.s 			page 71


 948:C:/Users/leopi/Documents/vs/S-Reo/MazeLibrary\Searching.c **** 
 949:C:/Users/leopi/Documents/vs/S-Reo/MazeLibrary\Searching.c ****                 //左旋回
 950:C:/Users/leopi/Documents/vs/S-Reo/MazeLibrary\Searching.c ****                 //東向きから北東
 951:C:/Users/leopi/Documents/vs/S-Reo/MazeLibrary\Searching.c ****                 if( __COLUMN_TO_RAW_NE__(now_x, now_y, next_x, next_y) )
 952:C:/Users/leopi/Documents/vs/S-Reo/MazeLibrary\Searching.c ****                 {
 953:C:/Users/leopi/Documents/vs/S-Reo/MazeLibrary\Searching.c ****                     next_state->car = north;
 954:C:/Users/leopi/Documents/vs/S-Reo/MazeLibrary\Searching.c ****                     next_state->pos.y = now_state->pos.y + 1;
 955:C:/Users/leopi/Documents/vs/S-Reo/MazeLibrary\Searching.c ****                     now_state->dir = left;
 956:C:/Users/leopi/Documents/vs/S-Reo/MazeLibrary\Searching.c ****                     return next_state;
 957:C:/Users/leopi/Documents/vs/S-Reo/MazeLibrary\Searching.c ****                 }
 958:C:/Users/leopi/Documents/vs/S-Reo/MazeLibrary\Searching.c ****                 //Uターンして右旋回
 959:C:/Users/leopi/Documents/vs/S-Reo/MazeLibrary\Searching.c ****                 //東向きから北西
 960:C:/Users/leopi/Documents/vs/S-Reo/MazeLibrary\Searching.c ****                 if( __COLUMN_TO_RAW_NW__(now_x, now_y, next_x, next_y) )
 961:C:/Users/leopi/Documents/vs/S-Reo/MazeLibrary\Searching.c ****                 {
 962:C:/Users/leopi/Documents/vs/S-Reo/MazeLibrary\Searching.c ****                     next_state->car = north;
 963:C:/Users/leopi/Documents/vs/S-Reo/MazeLibrary\Searching.c ****                     next_state->pos.x = now_state->pos.x - 1;
 964:C:/Users/leopi/Documents/vs/S-Reo/MazeLibrary\Searching.c ****                     next_state->pos.y = now_state->pos.y + 1;
 965:C:/Users/leopi/Documents/vs/S-Reo/MazeLibrary\Searching.c ****                     now_state->dir = backright;
 966:C:/Users/leopi/Documents/vs/S-Reo/MazeLibrary\Searching.c ****                     return next_state;
 967:C:/Users/leopi/Documents/vs/S-Reo/MazeLibrary\Searching.c ****                 }
 968:C:/Users/leopi/Documents/vs/S-Reo/MazeLibrary\Searching.c **** 
 969:C:/Users/leopi/Documents/vs/S-Reo/MazeLibrary\Searching.c ****                 //Uターンして左旋回
 970:C:/Users/leopi/Documents/vs/S-Reo/MazeLibrary\Searching.c ****                 //東向きから南西
 971:C:/Users/leopi/Documents/vs/S-Reo/MazeLibrary\Searching.c ****                 if( __COLUMN_TO_RAW_SW__(now_x, now_y, next_x, next_y) )
 972:C:/Users/leopi/Documents/vs/S-Reo/MazeLibrary\Searching.c ****                 {
 973:C:/Users/leopi/Documents/vs/S-Reo/MazeLibrary\Searching.c ****                     next_state->car = south;
 974:C:/Users/leopi/Documents/vs/S-Reo/MazeLibrary\Searching.c ****                     next_state->pos.x = now_state->pos.x - 1;
 975:C:/Users/leopi/Documents/vs/S-Reo/MazeLibrary\Searching.c ****                     next_state->pos.y = now_state->pos.y - 1;
 976:C:/Users/leopi/Documents/vs/S-Reo/MazeLibrary\Searching.c ****                     now_state->dir = backleft;
 977:C:/Users/leopi/Documents/vs/S-Reo/MazeLibrary\Searching.c ****                     return next_state;
 978:C:/Users/leopi/Documents/vs/S-Reo/MazeLibrary\Searching.c ****                 }
 979:C:/Users/leopi/Documents/vs/S-Reo/MazeLibrary\Searching.c ****             }
 980:C:/Users/leopi/Documents/vs/S-Reo/MazeLibrary\Searching.c ****             break;
 981:C:/Users/leopi/Documents/vs/S-Reo/MazeLibrary\Searching.c ****         case south:
 982:C:/Users/leopi/Documents/vs/S-Reo/MazeLibrary\Searching.c ****             if(next_node->rc == 0)
 983:C:/Users/leopi/Documents/vs/S-Reo/MazeLibrary\Searching.c ****             {
 984:C:/Users/leopi/Documents/vs/S-Reo/MazeLibrary\Searching.c ****                 //行から行
 985:C:/Users/leopi/Documents/vs/S-Reo/MazeLibrary\Searching.c ****                 //直進かUターンのどちらか。とりあえず1方向
 986:C:/Users/leopi/Documents/vs/S-Reo/MazeLibrary\Searching.c ****                 //隣接するノードしか見ていない
 987:C:/Users/leopi/Documents/vs/S-Reo/MazeLibrary\Searching.c ****                 //直進
 988:C:/Users/leopi/Documents/vs/S-Reo/MazeLibrary\Searching.c ****                 //南向きから南
 989:C:/Users/leopi/Documents/vs/S-Reo/MazeLibrary\Searching.c ****                 if( __RAW_TO_RAW_SOUTH__(now_x, now_y, next_x, next_y) )
 990:C:/Users/leopi/Documents/vs/S-Reo/MazeLibrary\Searching.c ****                 {
 991:C:/Users/leopi/Documents/vs/S-Reo/MazeLibrary\Searching.c ****                     next_state->car = south;
 992:C:/Users/leopi/Documents/vs/S-Reo/MazeLibrary\Searching.c ****                     next_state->pos.y = now_state->pos.y - 1; //次に壁を更新するタイミ
 993:C:/Users/leopi/Documents/vs/S-Reo/MazeLibrary\Searching.c ****                     now_state->dir = front;
 994:C:/Users/leopi/Documents/vs/S-Reo/MazeLibrary\Searching.c ****                     return next_state;
 995:C:/Users/leopi/Documents/vs/S-Reo/MazeLibrary\Searching.c ****                 }
 996:C:/Users/leopi/Documents/vs/S-Reo/MazeLibrary\Searching.c ****                 //Uターン
 997:C:/Users/leopi/Documents/vs/S-Reo/MazeLibrary\Searching.c ****                 if( __RAW_TO_RAW_NORTH__(now_x, now_y, next_x, next_y) )
 998:C:/Users/leopi/Documents/vs/S-Reo/MazeLibrary\Searching.c ****                 {
 999:C:/Users/leopi/Documents/vs/S-Reo/MazeLibrary\Searching.c ****                     next_state->car = north;
1000:C:/Users/leopi/Documents/vs/S-Reo/MazeLibrary\Searching.c ****                     next_state->pos.y = now_state->pos.y + 2;
1001:C:/Users/leopi/Documents/vs/S-Reo/MazeLibrary\Searching.c ****                     now_state->dir = back;
1002:C:/Users/leopi/Documents/vs/S-Reo/MazeLibrary\Searching.c ****                     return next_state;
1003:C:/Users/leopi/Documents/vs/S-Reo/MazeLibrary\Searching.c ****                 }
1004:C:/Users/leopi/Documents/vs/S-Reo/MazeLibrary\Searching.c **** 
ARM GAS  C:\Users\leopi\AppData\Local\Temp\ccMuwtHQ.s 			page 72


1005:C:/Users/leopi/Documents/vs/S-Reo/MazeLibrary\Searching.c ****             }
1006:C:/Users/leopi/Documents/vs/S-Reo/MazeLibrary\Searching.c **** 
1007:C:/Users/leopi/Documents/vs/S-Reo/MazeLibrary\Searching.c ****             if(next_node->rc == 1)
1008:C:/Users/leopi/Documents/vs/S-Reo/MazeLibrary\Searching.c ****             {
1009:C:/Users/leopi/Documents/vs/S-Reo/MazeLibrary\Searching.c ****                 //行から列.左右のどちらか判断.あとで後ろも候補にあげる
1010:C:/Users/leopi/Documents/vs/S-Reo/MazeLibrary\Searching.c ****                 //右旋回
1011:C:/Users/leopi/Documents/vs/S-Reo/MazeLibrary\Searching.c ****                 //南向きから南西
1012:C:/Users/leopi/Documents/vs/S-Reo/MazeLibrary\Searching.c ****                 if( __RAW_TO_COLUMN_SW__(now_x, now_y, next_x, next_y) )
1013:C:/Users/leopi/Documents/vs/S-Reo/MazeLibrary\Searching.c ****                 {
1014:C:/Users/leopi/Documents/vs/S-Reo/MazeLibrary\Searching.c ****                     next_state->car = west;
1015:C:/Users/leopi/Documents/vs/S-Reo/MazeLibrary\Searching.c ****                     next_state->pos.x = now_state->pos.x - 1;
1016:C:/Users/leopi/Documents/vs/S-Reo/MazeLibrary\Searching.c ****                     now_state->dir = right;
1017:C:/Users/leopi/Documents/vs/S-Reo/MazeLibrary\Searching.c **** //                    ChangeLED(4);
1018:C:/Users/leopi/Documents/vs/S-Reo/MazeLibrary\Searching.c ****                     //printf("南向きから南西:%u, %u\r\n",next_state->pos.y, now_state->pos.x
1019:C:/Users/leopi/Documents/vs/S-Reo/MazeLibrary\Searching.c ****                     return next_state;
1020:C:/Users/leopi/Documents/vs/S-Reo/MazeLibrary\Searching.c ****                 }
1021:C:/Users/leopi/Documents/vs/S-Reo/MazeLibrary\Searching.c ****                 //左旋回
1022:C:/Users/leopi/Documents/vs/S-Reo/MazeLibrary\Searching.c ****                 //南向きから南東
1023:C:/Users/leopi/Documents/vs/S-Reo/MazeLibrary\Searching.c ****                 if( __RAW_TO_COLUMN_SE__(now_x, now_y, next_x, next_y) )
1024:C:/Users/leopi/Documents/vs/S-Reo/MazeLibrary\Searching.c ****                 {
1025:C:/Users/leopi/Documents/vs/S-Reo/MazeLibrary\Searching.c ****                     next_state->car = east;
1026:C:/Users/leopi/Documents/vs/S-Reo/MazeLibrary\Searching.c ****                     next_state->pos.x = now_state->pos.x + 1;
1027:C:/Users/leopi/Documents/vs/S-Reo/MazeLibrary\Searching.c ****                     now_state->dir = left;
1028:C:/Users/leopi/Documents/vs/S-Reo/MazeLibrary\Searching.c ****                     return next_state;
1029:C:/Users/leopi/Documents/vs/S-Reo/MazeLibrary\Searching.c ****                 }
1030:C:/Users/leopi/Documents/vs/S-Reo/MazeLibrary\Searching.c **** 
1031:C:/Users/leopi/Documents/vs/S-Reo/MazeLibrary\Searching.c ****                 //Uターンして直進して右旋回
1032:C:/Users/leopi/Documents/vs/S-Reo/MazeLibrary\Searching.c ****                 //南向きから北東
1033:C:/Users/leopi/Documents/vs/S-Reo/MazeLibrary\Searching.c ****                 if( __RAW_TO_COLUMN_NE__(now_x, now_y, next_x, next_y) )
1034:C:/Users/leopi/Documents/vs/S-Reo/MazeLibrary\Searching.c ****                 {
1035:C:/Users/leopi/Documents/vs/S-Reo/MazeLibrary\Searching.c ****                     next_state->car = east;
1036:C:/Users/leopi/Documents/vs/S-Reo/MazeLibrary\Searching.c ****                     next_state->pos.x = now_state->pos.x + 1;
1037:C:/Users/leopi/Documents/vs/S-Reo/MazeLibrary\Searching.c ****                     next_state->pos.y = now_state->pos.y + 1;
1038:C:/Users/leopi/Documents/vs/S-Reo/MazeLibrary\Searching.c ****                     now_state->dir = backright;
1039:C:/Users/leopi/Documents/vs/S-Reo/MazeLibrary\Searching.c ****                     return next_state;
1040:C:/Users/leopi/Documents/vs/S-Reo/MazeLibrary\Searching.c ****                 }
1041:C:/Users/leopi/Documents/vs/S-Reo/MazeLibrary\Searching.c ****                 //Uターンして直進して左旋回
1042:C:/Users/leopi/Documents/vs/S-Reo/MazeLibrary\Searching.c ****                 //南向きから北西
1043:C:/Users/leopi/Documents/vs/S-Reo/MazeLibrary\Searching.c ****                 if( __RAW_TO_COLUMN_NW__(now_x, now_y, next_x, next_y) )
1044:C:/Users/leopi/Documents/vs/S-Reo/MazeLibrary\Searching.c ****                 {
1045:C:/Users/leopi/Documents/vs/S-Reo/MazeLibrary\Searching.c ****                     next_state->car = west;
1046:C:/Users/leopi/Documents/vs/S-Reo/MazeLibrary\Searching.c ****                     next_state->pos.x = now_state->pos.x - 1;
1047:C:/Users/leopi/Documents/vs/S-Reo/MazeLibrary\Searching.c ****                     next_state->pos.y = now_state->pos.y + 1;
1048:C:/Users/leopi/Documents/vs/S-Reo/MazeLibrary\Searching.c ****                     now_state->dir = backleft;
1049:C:/Users/leopi/Documents/vs/S-Reo/MazeLibrary\Searching.c ****                     return next_state;
1050:C:/Users/leopi/Documents/vs/S-Reo/MazeLibrary\Searching.c ****                 }
1051:C:/Users/leopi/Documents/vs/S-Reo/MazeLibrary\Searching.c ****             }
1052:C:/Users/leopi/Documents/vs/S-Reo/MazeLibrary\Searching.c ****             break;
1053:C:/Users/leopi/Documents/vs/S-Reo/MazeLibrary\Searching.c ****         case west:
1054:C:/Users/leopi/Documents/vs/S-Reo/MazeLibrary\Searching.c ****             if(next_node->rc == 1)
1055:C:/Users/leopi/Documents/vs/S-Reo/MazeLibrary\Searching.c ****             {
1056:C:/Users/leopi/Documents/vs/S-Reo/MazeLibrary\Searching.c ****                 //列から列
1057:C:/Users/leopi/Documents/vs/S-Reo/MazeLibrary\Searching.c ****                 //直進かUターンのどちらか。とりあえず1方向
1058:C:/Users/leopi/Documents/vs/S-Reo/MazeLibrary\Searching.c ****                 //隣接するノードしか見ていない
1059:C:/Users/leopi/Documents/vs/S-Reo/MazeLibrary\Searching.c ****                 //直進
1060:C:/Users/leopi/Documents/vs/S-Reo/MazeLibrary\Searching.c ****                 //西向きから西向き
1061:C:/Users/leopi/Documents/vs/S-Reo/MazeLibrary\Searching.c ****                 if( __COLUMN_TO_COLUMN_WEST__(now_x, now_y, next_x, next_y) )
ARM GAS  C:\Users\leopi\AppData\Local\Temp\ccMuwtHQ.s 			page 73


1062:C:/Users/leopi/Documents/vs/S-Reo/MazeLibrary\Searching.c ****                 {
1063:C:/Users/leopi/Documents/vs/S-Reo/MazeLibrary\Searching.c ****                     next_state->car = west;
1064:C:/Users/leopi/Documents/vs/S-Reo/MazeLibrary\Searching.c ****                     next_state->pos.x = now_state->pos.x - 1; //次に壁を更新するタイミ
1065:C:/Users/leopi/Documents/vs/S-Reo/MazeLibrary\Searching.c ****                     now_state->dir = front;
1066:C:/Users/leopi/Documents/vs/S-Reo/MazeLibrary\Searching.c ****                     return next_state;
1067:C:/Users/leopi/Documents/vs/S-Reo/MazeLibrary\Searching.c ****                 }
1068:C:/Users/leopi/Documents/vs/S-Reo/MazeLibrary\Searching.c ****                 //Uターンして直進
1069:C:/Users/leopi/Documents/vs/S-Reo/MazeLibrary\Searching.c ****                 //西向きから東向き
1070:C:/Users/leopi/Documents/vs/S-Reo/MazeLibrary\Searching.c ****                 if( __COLUMN_TO_COLUMN_EAST__(now_x, now_y, next_x, next_y) )
1071:C:/Users/leopi/Documents/vs/S-Reo/MazeLibrary\Searching.c ****                 {
1072:C:/Users/leopi/Documents/vs/S-Reo/MazeLibrary\Searching.c ****                     next_state->car = east;
1073:C:/Users/leopi/Documents/vs/S-Reo/MazeLibrary\Searching.c ****                     next_state->pos.x = now_state->pos.x + 2;
1074:C:/Users/leopi/Documents/vs/S-Reo/MazeLibrary\Searching.c ****                     now_state->dir = back;
1075:C:/Users/leopi/Documents/vs/S-Reo/MazeLibrary\Searching.c ****                     return next_state;
1076:C:/Users/leopi/Documents/vs/S-Reo/MazeLibrary\Searching.c ****                 }
1077:C:/Users/leopi/Documents/vs/S-Reo/MazeLibrary\Searching.c **** 
1078:C:/Users/leopi/Documents/vs/S-Reo/MazeLibrary\Searching.c ****             }
1079:C:/Users/leopi/Documents/vs/S-Reo/MazeLibrary\Searching.c **** 
1080:C:/Users/leopi/Documents/vs/S-Reo/MazeLibrary\Searching.c **** 
1081:C:/Users/leopi/Documents/vs/S-Reo/MazeLibrary\Searching.c ****             if(next_node->rc == 0)
1082:C:/Users/leopi/Documents/vs/S-Reo/MazeLibrary\Searching.c ****             {
1083:C:/Users/leopi/Documents/vs/S-Reo/MazeLibrary\Searching.c ****                 //列から行.左右のどちらか判断.あとで後ろも候補にあげる
1084:C:/Users/leopi/Documents/vs/S-Reo/MazeLibrary\Searching.c ****                 //右旋回
1085:C:/Users/leopi/Documents/vs/S-Reo/MazeLibrary\Searching.c ****                 //西向きから北西
1086:C:/Users/leopi/Documents/vs/S-Reo/MazeLibrary\Searching.c ****                 if( __COLUMN_TO_RAW_NW__(now_x, now_y, next_x, next_y) )
1087:C:/Users/leopi/Documents/vs/S-Reo/MazeLibrary\Searching.c ****                 {
1088:C:/Users/leopi/Documents/vs/S-Reo/MazeLibrary\Searching.c ****                     next_state->car = north;
1089:C:/Users/leopi/Documents/vs/S-Reo/MazeLibrary\Searching.c ****                     next_state->pos.y = now_state->pos.y + 1;
1090:C:/Users/leopi/Documents/vs/S-Reo/MazeLibrary\Searching.c ****                     now_state->dir = right;
1091:C:/Users/leopi/Documents/vs/S-Reo/MazeLibrary\Searching.c **** //                    ChangeLED(3);
1092:C:/Users/leopi/Documents/vs/S-Reo/MazeLibrary\Searching.c ****                     return next_state;
1093:C:/Users/leopi/Documents/vs/S-Reo/MazeLibrary\Searching.c ****                 }
1094:C:/Users/leopi/Documents/vs/S-Reo/MazeLibrary\Searching.c **** 
1095:C:/Users/leopi/Documents/vs/S-Reo/MazeLibrary\Searching.c ****                 //左旋回
1096:C:/Users/leopi/Documents/vs/S-Reo/MazeLibrary\Searching.c ****                 //西向きから南西
1097:C:/Users/leopi/Documents/vs/S-Reo/MazeLibrary\Searching.c ****                 if( __COLUMN_TO_RAW_SW__(now_x, now_y, next_x, next_y) )
1098:C:/Users/leopi/Documents/vs/S-Reo/MazeLibrary\Searching.c ****                 {
1099:C:/Users/leopi/Documents/vs/S-Reo/MazeLibrary\Searching.c ****                     next_state->car = south;
1100:C:/Users/leopi/Documents/vs/S-Reo/MazeLibrary\Searching.c ****                     next_state->pos.y = now_state->pos.y - 1;
1101:C:/Users/leopi/Documents/vs/S-Reo/MazeLibrary\Searching.c ****                     now_state->dir = left;
1102:C:/Users/leopi/Documents/vs/S-Reo/MazeLibrary\Searching.c ****                     return next_state;
1103:C:/Users/leopi/Documents/vs/S-Reo/MazeLibrary\Searching.c ****                 }
1104:C:/Users/leopi/Documents/vs/S-Reo/MazeLibrary\Searching.c **** 
1105:C:/Users/leopi/Documents/vs/S-Reo/MazeLibrary\Searching.c ****                 //Uターンして右旋回
1106:C:/Users/leopi/Documents/vs/S-Reo/MazeLibrary\Searching.c ****                 //西向きから南東
1107:C:/Users/leopi/Documents/vs/S-Reo/MazeLibrary\Searching.c ****                 if( __COLUMN_TO_RAW_SE__(now_x, now_y, next_x, next_y) )
1108:C:/Users/leopi/Documents/vs/S-Reo/MazeLibrary\Searching.c ****                 {
1109:C:/Users/leopi/Documents/vs/S-Reo/MazeLibrary\Searching.c ****                     next_state->car = south;
1110:C:/Users/leopi/Documents/vs/S-Reo/MazeLibrary\Searching.c ****                     next_state->pos.x = now_state->pos.x + 1;
1111:C:/Users/leopi/Documents/vs/S-Reo/MazeLibrary\Searching.c ****                     next_state->pos.y = now_state->pos.y - 1;
1112:C:/Users/leopi/Documents/vs/S-Reo/MazeLibrary\Searching.c ****                     now_state->dir = backright;
1113:C:/Users/leopi/Documents/vs/S-Reo/MazeLibrary\Searching.c ****                     return next_state;
1114:C:/Users/leopi/Documents/vs/S-Reo/MazeLibrary\Searching.c ****                 }
1115:C:/Users/leopi/Documents/vs/S-Reo/MazeLibrary\Searching.c ****                 //Uターンして左旋回
1116:C:/Users/leopi/Documents/vs/S-Reo/MazeLibrary\Searching.c ****                 //西向きから北東
1117:C:/Users/leopi/Documents/vs/S-Reo/MazeLibrary\Searching.c ****                 if( __COLUMN_TO_RAW_NE__(now_x, now_y, next_x, next_y) )
1118:C:/Users/leopi/Documents/vs/S-Reo/MazeLibrary\Searching.c ****                 {
ARM GAS  C:\Users\leopi\AppData\Local\Temp\ccMuwtHQ.s 			page 74


1119:C:/Users/leopi/Documents/vs/S-Reo/MazeLibrary\Searching.c ****                     next_state->car = north;
1120:C:/Users/leopi/Documents/vs/S-Reo/MazeLibrary\Searching.c ****                     next_state->pos.x = now_state->pos.x + 1;
1121:C:/Users/leopi/Documents/vs/S-Reo/MazeLibrary\Searching.c ****                     next_state->pos.y = now_state->pos.y + 1;
1122:C:/Users/leopi/Documents/vs/S-Reo/MazeLibrary\Searching.c ****                     now_state->dir = backleft;
1123:C:/Users/leopi/Documents/vs/S-Reo/MazeLibrary\Searching.c ****                     return next_state;
1124:C:/Users/leopi/Documents/vs/S-Reo/MazeLibrary\Searching.c ****                 }
1125:C:/Users/leopi/Documents/vs/S-Reo/MazeLibrary\Searching.c ****             }
1126:C:/Users/leopi/Documents/vs/S-Reo/MazeLibrary\Searching.c ****             break;
1127:C:/Users/leopi/Documents/vs/S-Reo/MazeLibrary\Searching.c ****         default:
1128:C:/Users/leopi/Documents/vs/S-Reo/MazeLibrary\Searching.c ****             break;
1129:C:/Users/leopi/Documents/vs/S-Reo/MazeLibrary\Searching.c ****     }
1130:C:/Users/leopi/Documents/vs/S-Reo/MazeLibrary\Searching.c **** #if DEBUG_ON
1131:C:/Users/leopi/Documents/vs/S-Reo/MazeLibrary\Searching.c ****     printf("エラー in function 'getNextState'.\r\n");
1132:C:/Users/leopi/Documents/vs/S-Reo/MazeLibrary\Searching.c **** #endif
1133:C:/Users/leopi/Documents/vs/S-Reo/MazeLibrary\Searching.c **** 
1134:C:/Users/leopi/Documents/vs/S-Reo/MazeLibrary\Searching.c ****     return next_state; //ここまで来てしまったらエラー
1135:C:/Users/leopi/Documents/vs/S-Reo/MazeLibrary\Searching.c **** }
 2618              		.loc 1 1135 1 view .LVU792
 2619 0054 70BD     		pop	{r4, r5, r6, pc}
 2620              	.LVL224:
 2621              	.L181:
 839:C:/Users/leopi/Documents/vs/S-Reo/MazeLibrary\Searching.c ****                 {
 2622              		.loc 1 839 21 discriminator 1 view .LVU793
 2623 0056 04F1010C 		add	ip, r4, #1
 2624 005a AC45     		cmp	ip, r5
 2625 005c EDD1     		bne	.L161
 841:C:/Users/leopi/Documents/vs/S-Reo/MazeLibrary\Searching.c ****                     next_state->pos.y = now_state->pos.y + 1;
 2626              		.loc 1 841 21 is_stmt 1 view .LVU794
 841:C:/Users/leopi/Documents/vs/S-Reo/MazeLibrary\Searching.c ****                     next_state->pos.y = now_state->pos.y + 1;
 2627              		.loc 1 841 37 is_stmt 0 view .LVU795
 2628 005e 0021     		movs	r1, #0
 2629              	.LVL225:
 841:C:/Users/leopi/Documents/vs/S-Reo/MazeLibrary\Searching.c ****                     next_state->pos.y = now_state->pos.y + 1;
 2630              		.loc 1 841 37 view .LVU796
 2631 0060 8170     		strb	r1, [r0, #2]
 2632              	.LVL226:
 842:C:/Users/leopi/Documents/vs/S-Reo/MazeLibrary\Searching.c ****                     now_state->dir = front;
 2633              		.loc 1 842 21 is_stmt 1 view .LVU797
 842:C:/Users/leopi/Documents/vs/S-Reo/MazeLibrary\Searching.c ****                     now_state->dir = front;
 2634              		.loc 1 842 55 is_stmt 0 view .LVU798
 2635 0062 5A78     		ldrb	r2, [r3, #1]	@ zero_extendqisi2
 842:C:/Users/leopi/Documents/vs/S-Reo/MazeLibrary\Searching.c ****                     now_state->dir = front;
 2636              		.loc 1 842 58 view .LVU799
 2637 0064 0132     		adds	r2, r2, #1
 842:C:/Users/leopi/Documents/vs/S-Reo/MazeLibrary\Searching.c ****                     now_state->dir = front;
 2638              		.loc 1 842 39 view .LVU800
 2639 0066 4270     		strb	r2, [r0, #1]
 843:C:/Users/leopi/Documents/vs/S-Reo/MazeLibrary\Searching.c ****                     return next_state;
 2640              		.loc 1 843 21 is_stmt 1 view .LVU801
 843:C:/Users/leopi/Documents/vs/S-Reo/MazeLibrary\Searching.c ****                     return next_state;
 2641              		.loc 1 843 36 is_stmt 0 view .LVU802
 2642 0068 D970     		strb	r1, [r3, #3]
 844:C:/Users/leopi/Documents/vs/S-Reo/MazeLibrary\Searching.c ****                 }
 2643              		.loc 1 844 21 is_stmt 1 view .LVU803
 844:C:/Users/leopi/Documents/vs/S-Reo/MazeLibrary\Searching.c ****                 }
 2644              		.loc 1 844 28 is_stmt 0 view .LVU804
 2645 006a F3E7     		b	.L154
ARM GAS  C:\Users\leopi\AppData\Local\Temp\ccMuwtHQ.s 			page 75


 2646              	.LVL227:
 2647              	.L182:
 848:C:/Users/leopi/Documents/vs/S-Reo/MazeLibrary\Searching.c ****                 {
 2648              		.loc 1 848 21 discriminator 1 view .LVU805
 2649 006c 04F1FF3C 		add	ip, r4, #-1
 2650 0070 AC45     		cmp	ip, r5
 2651 0072 E4D1     		bne	.L160
 850:C:/Users/leopi/Documents/vs/S-Reo/MazeLibrary\Searching.c ****                     next_state->pos.y = now_state->pos.y - 2; //次に壁を更新するタイミ
 2652              		.loc 1 850 21 is_stmt 1 view .LVU806
 850:C:/Users/leopi/Documents/vs/S-Reo/MazeLibrary\Searching.c ****                     next_state->pos.y = now_state->pos.y - 2; //次に壁を更新するタイミ
 2653              		.loc 1 850 37 is_stmt 0 view .LVU807
 2654 0074 0421     		movs	r1, #4
 2655              	.LVL228:
 850:C:/Users/leopi/Documents/vs/S-Reo/MazeLibrary\Searching.c ****                     next_state->pos.y = now_state->pos.y - 2; //次に壁を更新するタイミ
 2656              		.loc 1 850 37 view .LVU808
 2657 0076 8170     		strb	r1, [r0, #2]
 2658              	.LVL229:
 851:C:/Users/leopi/Documents/vs/S-Reo/MazeLibrary\Searching.c ****                     now_state->dir = back;
 2659              		.loc 1 851 21 is_stmt 1 view .LVU809
 851:C:/Users/leopi/Documents/vs/S-Reo/MazeLibrary\Searching.c ****                     now_state->dir = back;
 2660              		.loc 1 851 55 is_stmt 0 view .LVU810
 2661 0078 5A78     		ldrb	r2, [r3, #1]	@ zero_extendqisi2
 851:C:/Users/leopi/Documents/vs/S-Reo/MazeLibrary\Searching.c ****                     now_state->dir = back;
 2662              		.loc 1 851 58 view .LVU811
 2663 007a 023A     		subs	r2, r2, #2
 851:C:/Users/leopi/Documents/vs/S-Reo/MazeLibrary\Searching.c ****                     now_state->dir = back;
 2664              		.loc 1 851 39 view .LVU812
 2665 007c 4270     		strb	r2, [r0, #1]
 852:C:/Users/leopi/Documents/vs/S-Reo/MazeLibrary\Searching.c ****                     return next_state;
 2666              		.loc 1 852 21 is_stmt 1 view .LVU813
 852:C:/Users/leopi/Documents/vs/S-Reo/MazeLibrary\Searching.c ****                     return next_state;
 2667              		.loc 1 852 36 is_stmt 0 view .LVU814
 2668 007e D970     		strb	r1, [r3, #3]
 853:C:/Users/leopi/Documents/vs/S-Reo/MazeLibrary\Searching.c ****                 }
 2669              		.loc 1 853 21 is_stmt 1 view .LVU815
 853:C:/Users/leopi/Documents/vs/S-Reo/MazeLibrary\Searching.c ****                 }
 2670              		.loc 1 853 28 is_stmt 0 view .LVU816
 2671 0080 E8E7     		b	.L154
 2672              	.LVL230:
 2673              	.L183:
 864:C:/Users/leopi/Documents/vs/S-Reo/MazeLibrary\Searching.c ****                 {
 2674              		.loc 1 864 21 discriminator 1 view .LVU817
 2675 0082 AC42     		cmp	r4, r5
 2676 0084 E0D1     		bne	.L162
 866:C:/Users/leopi/Documents/vs/S-Reo/MazeLibrary\Searching.c ****                     next_state->pos.x = now_state->pos.x + 1;
 2677              		.loc 1 866 21 is_stmt 1 view .LVU818
 866:C:/Users/leopi/Documents/vs/S-Reo/MazeLibrary\Searching.c ****                     next_state->pos.x = now_state->pos.x + 1;
 2678              		.loc 1 866 37 is_stmt 0 view .LVU819
 2679 0086 0221     		movs	r1, #2
 2680              	.LVL231:
 866:C:/Users/leopi/Documents/vs/S-Reo/MazeLibrary\Searching.c ****                     next_state->pos.x = now_state->pos.x + 1;
 2681              		.loc 1 866 37 view .LVU820
 2682 0088 8170     		strb	r1, [r0, #2]
 2683              	.LVL232:
 867:C:/Users/leopi/Documents/vs/S-Reo/MazeLibrary\Searching.c ****                     now_state->dir = right;
 2684              		.loc 1 867 21 is_stmt 1 view .LVU821
 867:C:/Users/leopi/Documents/vs/S-Reo/MazeLibrary\Searching.c ****                     now_state->dir = right;
ARM GAS  C:\Users\leopi\AppData\Local\Temp\ccMuwtHQ.s 			page 76


 2685              		.loc 1 867 55 is_stmt 0 view .LVU822
 2686 008a 1A78     		ldrb	r2, [r3]	@ zero_extendqisi2
 867:C:/Users/leopi/Documents/vs/S-Reo/MazeLibrary\Searching.c ****                     now_state->dir = right;
 2687              		.loc 1 867 58 view .LVU823
 2688 008c 0132     		adds	r2, r2, #1
 867:C:/Users/leopi/Documents/vs/S-Reo/MazeLibrary\Searching.c ****                     now_state->dir = right;
 2689              		.loc 1 867 39 view .LVU824
 2690 008e 0270     		strb	r2, [r0]
 868:C:/Users/leopi/Documents/vs/S-Reo/MazeLibrary\Searching.c **** //                    ChangeLED(6);
 2691              		.loc 1 868 21 is_stmt 1 view .LVU825
 868:C:/Users/leopi/Documents/vs/S-Reo/MazeLibrary\Searching.c **** //                    ChangeLED(6);
 2692              		.loc 1 868 36 is_stmt 0 view .LVU826
 2693 0090 D970     		strb	r1, [r3, #3]
 870:C:/Users/leopi/Documents/vs/S-Reo/MazeLibrary\Searching.c ****                 }
 2694              		.loc 1 870 21 is_stmt 1 view .LVU827
 870:C:/Users/leopi/Documents/vs/S-Reo/MazeLibrary\Searching.c ****                 }
 2695              		.loc 1 870 28 is_stmt 0 view .LVU828
 2696 0092 DFE7     		b	.L154
 2697              	.LVL233:
 2698              	.L184:
 875:C:/Users/leopi/Documents/vs/S-Reo/MazeLibrary\Searching.c ****                 {
 2699              		.loc 1 875 21 discriminator 1 view .LVU829
 2700 0094 AC42     		cmp	r4, r5
 2701 0096 D9D1     		bne	.L163
 877:C:/Users/leopi/Documents/vs/S-Reo/MazeLibrary\Searching.c ****                     next_state->pos.x = now_state->pos.x - 1;
 2702              		.loc 1 877 21 is_stmt 1 view .LVU830
 877:C:/Users/leopi/Documents/vs/S-Reo/MazeLibrary\Searching.c ****                     next_state->pos.x = now_state->pos.x - 1;
 2703              		.loc 1 877 37 is_stmt 0 view .LVU831
 2704 0098 0621     		movs	r1, #6
 2705              	.LVL234:
 877:C:/Users/leopi/Documents/vs/S-Reo/MazeLibrary\Searching.c ****                     next_state->pos.x = now_state->pos.x - 1;
 2706              		.loc 1 877 37 view .LVU832
 2707 009a 8170     		strb	r1, [r0, #2]
 2708              	.LVL235:
 878:C:/Users/leopi/Documents/vs/S-Reo/MazeLibrary\Searching.c ****                     now_state->dir = left;
 2709              		.loc 1 878 21 is_stmt 1 view .LVU833
 878:C:/Users/leopi/Documents/vs/S-Reo/MazeLibrary\Searching.c ****                     now_state->dir = left;
 2710              		.loc 1 878 55 is_stmt 0 view .LVU834
 2711 009c 1A78     		ldrb	r2, [r3]	@ zero_extendqisi2
 878:C:/Users/leopi/Documents/vs/S-Reo/MazeLibrary\Searching.c ****                     now_state->dir = left;
 2712              		.loc 1 878 58 view .LVU835
 2713 009e 013A     		subs	r2, r2, #1
 878:C:/Users/leopi/Documents/vs/S-Reo/MazeLibrary\Searching.c ****                     now_state->dir = left;
 2714              		.loc 1 878 39 view .LVU836
 2715 00a0 0270     		strb	r2, [r0]
 879:C:/Users/leopi/Documents/vs/S-Reo/MazeLibrary\Searching.c ****                     return next_state;
 2716              		.loc 1 879 21 is_stmt 1 view .LVU837
 879:C:/Users/leopi/Documents/vs/S-Reo/MazeLibrary\Searching.c ****                     return next_state;
 2717              		.loc 1 879 36 is_stmt 0 view .LVU838
 2718 00a2 D970     		strb	r1, [r3, #3]
 880:C:/Users/leopi/Documents/vs/S-Reo/MazeLibrary\Searching.c ****                 }
 2719              		.loc 1 880 21 is_stmt 1 view .LVU839
 880:C:/Users/leopi/Documents/vs/S-Reo/MazeLibrary\Searching.c ****                 }
 2720              		.loc 1 880 28 is_stmt 0 view .LVU840
 2721 00a4 D6E7     		b	.L154
 2722              	.LVL236:
 2723              	.L185:
ARM GAS  C:\Users\leopi\AppData\Local\Temp\ccMuwtHQ.s 			page 77


 885:C:/Users/leopi/Documents/vs/S-Reo/MazeLibrary\Searching.c ****                 {
 2724              		.loc 1 885 21 discriminator 1 view .LVU841
 2725 00a6 04F1FF3C 		add	ip, r4, #-1
 2726 00aa AC45     		cmp	ip, r5
 2727 00ac D0D1     		bne	.L164
 887:C:/Users/leopi/Documents/vs/S-Reo/MazeLibrary\Searching.c ****                     next_state->pos.x = now_state->pos.x - 1;
 2728              		.loc 1 887 21 is_stmt 1 view .LVU842
 887:C:/Users/leopi/Documents/vs/S-Reo/MazeLibrary\Searching.c ****                     next_state->pos.x = now_state->pos.x - 1;
 2729              		.loc 1 887 37 is_stmt 0 view .LVU843
 2730 00ae 0622     		movs	r2, #6
 2731 00b0 8270     		strb	r2, [r0, #2]
 888:C:/Users/leopi/Documents/vs/S-Reo/MazeLibrary\Searching.c ****                     next_state->pos.y = now_state->pos.y - 1;
 2732              		.loc 1 888 21 is_stmt 1 view .LVU844
 888:C:/Users/leopi/Documents/vs/S-Reo/MazeLibrary\Searching.c ****                     next_state->pos.y = now_state->pos.y - 1;
 2733              		.loc 1 888 55 is_stmt 0 view .LVU845
 2734 00b2 1A78     		ldrb	r2, [r3]	@ zero_extendqisi2
 888:C:/Users/leopi/Documents/vs/S-Reo/MazeLibrary\Searching.c ****                     next_state->pos.y = now_state->pos.y - 1;
 2735              		.loc 1 888 58 view .LVU846
 2736 00b4 013A     		subs	r2, r2, #1
 888:C:/Users/leopi/Documents/vs/S-Reo/MazeLibrary\Searching.c ****                     next_state->pos.y = now_state->pos.y - 1;
 2737              		.loc 1 888 39 view .LVU847
 2738 00b6 0270     		strb	r2, [r0]
 889:C:/Users/leopi/Documents/vs/S-Reo/MazeLibrary\Searching.c ****                     now_state->dir = backright;
 2739              		.loc 1 889 21 is_stmt 1 view .LVU848
 889:C:/Users/leopi/Documents/vs/S-Reo/MazeLibrary\Searching.c ****                     now_state->dir = backright;
 2740              		.loc 1 889 55 is_stmt 0 view .LVU849
 2741 00b8 5A78     		ldrb	r2, [r3, #1]	@ zero_extendqisi2
 889:C:/Users/leopi/Documents/vs/S-Reo/MazeLibrary\Searching.c ****                     now_state->dir = backright;
 2742              		.loc 1 889 58 view .LVU850
 2743 00ba 013A     		subs	r2, r2, #1
 889:C:/Users/leopi/Documents/vs/S-Reo/MazeLibrary\Searching.c ****                     now_state->dir = backright;
 2744              		.loc 1 889 39 view .LVU851
 2745 00bc 4270     		strb	r2, [r0, #1]
 890:C:/Users/leopi/Documents/vs/S-Reo/MazeLibrary\Searching.c ****                     return next_state;
 2746              		.loc 1 890 21 is_stmt 1 view .LVU852
 890:C:/Users/leopi/Documents/vs/S-Reo/MazeLibrary\Searching.c ****                     return next_state;
 2747              		.loc 1 890 36 is_stmt 0 view .LVU853
 2748 00be 0322     		movs	r2, #3
 2749 00c0 DA70     		strb	r2, [r3, #3]
 891:C:/Users/leopi/Documents/vs/S-Reo/MazeLibrary\Searching.c ****                 }
 2750              		.loc 1 891 21 is_stmt 1 view .LVU854
 891:C:/Users/leopi/Documents/vs/S-Reo/MazeLibrary\Searching.c ****                 }
 2751              		.loc 1 891 28 is_stmt 0 view .LVU855
 2752 00c2 C7E7     		b	.L154
 2753              	.L186:
 895:C:/Users/leopi/Documents/vs/S-Reo/MazeLibrary\Searching.c ****                 {
 2754              		.loc 1 895 21 discriminator 1 view .LVU856
 2755 00c4 013C     		subs	r4, r4, #1
 2756              	.LVL237:
 895:C:/Users/leopi/Documents/vs/S-Reo/MazeLibrary\Searching.c ****                 {
 2757              		.loc 1 895 21 discriminator 1 view .LVU857
 2758 00c6 AC42     		cmp	r4, r5
 2759 00c8 C4D1     		bne	.L154
 897:C:/Users/leopi/Documents/vs/S-Reo/MazeLibrary\Searching.c ****                     next_state->pos.x = now_state->pos.x + 1;
 2760              		.loc 1 897 21 is_stmt 1 view .LVU858
 897:C:/Users/leopi/Documents/vs/S-Reo/MazeLibrary\Searching.c ****                     next_state->pos.x = now_state->pos.x + 1;
 2761              		.loc 1 897 37 is_stmt 0 view .LVU859
ARM GAS  C:\Users\leopi\AppData\Local\Temp\ccMuwtHQ.s 			page 78


 2762 00ca 0222     		movs	r2, #2
 2763 00cc 8270     		strb	r2, [r0, #2]
 898:C:/Users/leopi/Documents/vs/S-Reo/MazeLibrary\Searching.c ****                     next_state->pos.y = now_state->pos.y - 1;
 2764              		.loc 1 898 21 is_stmt 1 view .LVU860
 898:C:/Users/leopi/Documents/vs/S-Reo/MazeLibrary\Searching.c ****                     next_state->pos.y = now_state->pos.y - 1;
 2765              		.loc 1 898 55 is_stmt 0 view .LVU861
 2766 00ce 1A78     		ldrb	r2, [r3]	@ zero_extendqisi2
 898:C:/Users/leopi/Documents/vs/S-Reo/MazeLibrary\Searching.c ****                     next_state->pos.y = now_state->pos.y - 1;
 2767              		.loc 1 898 58 view .LVU862
 2768 00d0 0132     		adds	r2, r2, #1
 898:C:/Users/leopi/Documents/vs/S-Reo/MazeLibrary\Searching.c ****                     next_state->pos.y = now_state->pos.y - 1;
 2769              		.loc 1 898 39 view .LVU863
 2770 00d2 0270     		strb	r2, [r0]
 899:C:/Users/leopi/Documents/vs/S-Reo/MazeLibrary\Searching.c ****                     now_state->dir = backleft;
 2771              		.loc 1 899 21 is_stmt 1 view .LVU864
 899:C:/Users/leopi/Documents/vs/S-Reo/MazeLibrary\Searching.c ****                     now_state->dir = backleft;
 2772              		.loc 1 899 55 is_stmt 0 view .LVU865
 2773 00d4 5A78     		ldrb	r2, [r3, #1]	@ zero_extendqisi2
 899:C:/Users/leopi/Documents/vs/S-Reo/MazeLibrary\Searching.c ****                     now_state->dir = backleft;
 2774              		.loc 1 899 58 view .LVU866
 2775 00d6 013A     		subs	r2, r2, #1
 899:C:/Users/leopi/Documents/vs/S-Reo/MazeLibrary\Searching.c ****                     now_state->dir = backleft;
 2776              		.loc 1 899 39 view .LVU867
 2777 00d8 4270     		strb	r2, [r0, #1]
 900:C:/Users/leopi/Documents/vs/S-Reo/MazeLibrary\Searching.c ****                     return next_state;
 2778              		.loc 1 900 21 is_stmt 1 view .LVU868
 900:C:/Users/leopi/Documents/vs/S-Reo/MazeLibrary\Searching.c ****                     return next_state;
 2779              		.loc 1 900 36 is_stmt 0 view .LVU869
 2780 00da 0522     		movs	r2, #5
 2781 00dc DA70     		strb	r2, [r3, #3]
 901:C:/Users/leopi/Documents/vs/S-Reo/MazeLibrary\Searching.c ****                 }
 2782              		.loc 1 901 21 is_stmt 1 view .LVU870
 901:C:/Users/leopi/Documents/vs/S-Reo/MazeLibrary\Searching.c ****                 }
 2783              		.loc 1 901 28 is_stmt 0 view .LVU871
 2784 00de B9E7     		b	.L154
 2785              	.LVL238:
 2786              	.L158:
 907:C:/Users/leopi/Documents/vs/S-Reo/MazeLibrary\Searching.c ****             {
 2787              		.loc 1 907 13 is_stmt 1 view .LVU872
 907:C:/Users/leopi/Documents/vs/S-Reo/MazeLibrary\Searching.c ****             {
 2788              		.loc 1 907 25 is_stmt 0 view .LVU873
 2789 00e0 5279     		ldrb	r2, [r2, #5]	@ zero_extendqisi2
 2790              	.LVL239:
 907:C:/Users/leopi/Documents/vs/S-Reo/MazeLibrary\Searching.c ****             {
 2791              		.loc 1 907 15 view .LVU874
 2792 00e2 3AB1     		cbz	r2, .L165
 914:C:/Users/leopi/Documents/vs/S-Reo/MazeLibrary\Searching.c ****                 {
 2793              		.loc 1 914 17 is_stmt 1 view .LVU875
 914:C:/Users/leopi/Documents/vs/S-Reo/MazeLibrary\Searching.c ****                 {
 2794              		.loc 1 914 21 is_stmt 0 view .LVU876
 2795 00e4 0EF1010C 		add	ip, lr, #1
 914:C:/Users/leopi/Documents/vs/S-Reo/MazeLibrary\Searching.c ****                 {
 2796              		.loc 1 914 19 view .LVU877
 2797 00e8 8C45     		cmp	ip, r1
 2798 00ea 1CD0     		beq	.L187
 2799              	.L166:
 924:C:/Users/leopi/Documents/vs/S-Reo/MazeLibrary\Searching.c ****                 {
ARM GAS  C:\Users\leopi\AppData\Local\Temp\ccMuwtHQ.s 			page 79


 2800              		.loc 1 924 17 is_stmt 1 view .LVU878
 924:C:/Users/leopi/Documents/vs/S-Reo/MazeLibrary\Searching.c ****                 {
 2801              		.loc 1 924 21 is_stmt 0 view .LVU879
 2802 00ec 0EF1FF3C 		add	ip, lr, #-1
 924:C:/Users/leopi/Documents/vs/S-Reo/MazeLibrary\Searching.c ****                 {
 2803              		.loc 1 924 19 view .LVU880
 2804 00f0 6145     		cmp	r1, ip
 2805 00f2 22D0     		beq	.L188
 2806              	.L165:
 935:C:/Users/leopi/Documents/vs/S-Reo/MazeLibrary\Searching.c ****             {
 2807              		.loc 1 935 13 is_stmt 1 view .LVU881
 935:C:/Users/leopi/Documents/vs/S-Reo/MazeLibrary\Searching.c ****             {
 2808              		.loc 1 935 15 is_stmt 0 view .LVU882
 2809 00f4 002A     		cmp	r2, #0
 2810 00f6 ADD1     		bne	.L154
 940:C:/Users/leopi/Documents/vs/S-Reo/MazeLibrary\Searching.c ****                 {
 2811              		.loc 1 940 17 is_stmt 1 view .LVU883
 940:C:/Users/leopi/Documents/vs/S-Reo/MazeLibrary\Searching.c ****                 {
 2812              		.loc 1 940 19 is_stmt 0 view .LVU884
 2813 00f8 8E45     		cmp	lr, r1
 2814 00fa 28D0     		beq	.L189
 2815              	.L167:
 951:C:/Users/leopi/Documents/vs/S-Reo/MazeLibrary\Searching.c ****                 {
 2816              		.loc 1 951 17 is_stmt 1 view .LVU885
 951:C:/Users/leopi/Documents/vs/S-Reo/MazeLibrary\Searching.c ****                 {
 2817              		.loc 1 951 19 is_stmt 0 view .LVU886
 2818 00fc 8E45     		cmp	lr, r1
 2819 00fe 30D0     		beq	.L190
 2820              	.L168:
 960:C:/Users/leopi/Documents/vs/S-Reo/MazeLibrary\Searching.c ****                 {
 2821              		.loc 1 960 17 is_stmt 1 view .LVU887
 960:C:/Users/leopi/Documents/vs/S-Reo/MazeLibrary\Searching.c ****                 {
 2822              		.loc 1 960 21 is_stmt 0 view .LVU888
 2823 0100 0EF1FF3E 		add	lr, lr, #-1
 2824              	.LVL240:
 960:C:/Users/leopi/Documents/vs/S-Reo/MazeLibrary\Searching.c ****                 {
 2825              		.loc 1 960 19 view .LVU889
 2826 0104 8E45     		cmp	lr, r1
 2827 0106 37D0     		beq	.L191
 2828              	.L169:
 971:C:/Users/leopi/Documents/vs/S-Reo/MazeLibrary\Searching.c ****                 {
 2829              		.loc 1 971 17 is_stmt 1 view .LVU890
 971:C:/Users/leopi/Documents/vs/S-Reo/MazeLibrary\Searching.c ****                 {
 2830              		.loc 1 971 19 is_stmt 0 view .LVU891
 2831 0108 8E45     		cmp	lr, r1
 2832 010a A3D1     		bne	.L154
 971:C:/Users/leopi/Documents/vs/S-Reo/MazeLibrary\Searching.c ****                 {
 2833              		.loc 1 971 21 discriminator 1 view .LVU892
 2834 010c AC42     		cmp	r4, r5
 2835 010e A1D1     		bne	.L154
 973:C:/Users/leopi/Documents/vs/S-Reo/MazeLibrary\Searching.c ****                     next_state->pos.x = now_state->pos.x - 1;
 2836              		.loc 1 973 21 is_stmt 1 view .LVU893
 973:C:/Users/leopi/Documents/vs/S-Reo/MazeLibrary\Searching.c ****                     next_state->pos.x = now_state->pos.x - 1;
 2837              		.loc 1 973 37 is_stmt 0 view .LVU894
 2838 0110 0422     		movs	r2, #4
 2839 0112 8270     		strb	r2, [r0, #2]
 974:C:/Users/leopi/Documents/vs/S-Reo/MazeLibrary\Searching.c ****                     next_state->pos.y = now_state->pos.y - 1;
ARM GAS  C:\Users\leopi\AppData\Local\Temp\ccMuwtHQ.s 			page 80


 2840              		.loc 1 974 21 is_stmt 1 view .LVU895
 974:C:/Users/leopi/Documents/vs/S-Reo/MazeLibrary\Searching.c ****                     next_state->pos.y = now_state->pos.y - 1;
 2841              		.loc 1 974 55 is_stmt 0 view .LVU896
 2842 0114 1A78     		ldrb	r2, [r3]	@ zero_extendqisi2
 974:C:/Users/leopi/Documents/vs/S-Reo/MazeLibrary\Searching.c ****                     next_state->pos.y = now_state->pos.y - 1;
 2843              		.loc 1 974 58 view .LVU897
 2844 0116 013A     		subs	r2, r2, #1
 974:C:/Users/leopi/Documents/vs/S-Reo/MazeLibrary\Searching.c ****                     next_state->pos.y = now_state->pos.y - 1;
 2845              		.loc 1 974 39 view .LVU898
 2846 0118 0270     		strb	r2, [r0]
 975:C:/Users/leopi/Documents/vs/S-Reo/MazeLibrary\Searching.c ****                     now_state->dir = backleft;
 2847              		.loc 1 975 21 is_stmt 1 view .LVU899
 975:C:/Users/leopi/Documents/vs/S-Reo/MazeLibrary\Searching.c ****                     now_state->dir = backleft;
 2848              		.loc 1 975 55 is_stmt 0 view .LVU900
 2849 011a 5A78     		ldrb	r2, [r3, #1]	@ zero_extendqisi2
 975:C:/Users/leopi/Documents/vs/S-Reo/MazeLibrary\Searching.c ****                     now_state->dir = backleft;
 2850              		.loc 1 975 58 view .LVU901
 2851 011c 013A     		subs	r2, r2, #1
 975:C:/Users/leopi/Documents/vs/S-Reo/MazeLibrary\Searching.c ****                     now_state->dir = backleft;
 2852              		.loc 1 975 39 view .LVU902
 2853 011e 4270     		strb	r2, [r0, #1]
 976:C:/Users/leopi/Documents/vs/S-Reo/MazeLibrary\Searching.c ****                     return next_state;
 2854              		.loc 1 976 21 is_stmt 1 view .LVU903
 976:C:/Users/leopi/Documents/vs/S-Reo/MazeLibrary\Searching.c ****                     return next_state;
 2855              		.loc 1 976 36 is_stmt 0 view .LVU904
 2856 0120 0522     		movs	r2, #5
 2857 0122 DA70     		strb	r2, [r3, #3]
 977:C:/Users/leopi/Documents/vs/S-Reo/MazeLibrary\Searching.c ****                 }
 2858              		.loc 1 977 21 is_stmt 1 view .LVU905
 977:C:/Users/leopi/Documents/vs/S-Reo/MazeLibrary\Searching.c ****                 }
 2859              		.loc 1 977 28 is_stmt 0 view .LVU906
 2860 0124 96E7     		b	.L154
 2861              	.LVL241:
 2862              	.L187:
 914:C:/Users/leopi/Documents/vs/S-Reo/MazeLibrary\Searching.c ****                 {
 2863              		.loc 1 914 21 discriminator 1 view .LVU907
 2864 0126 AC42     		cmp	r4, r5
 2865 0128 E0D1     		bne	.L166
 916:C:/Users/leopi/Documents/vs/S-Reo/MazeLibrary\Searching.c ****                     next_state->pos.x = now_state->pos.x + 1;
 2866              		.loc 1 916 21 is_stmt 1 view .LVU908
 916:C:/Users/leopi/Documents/vs/S-Reo/MazeLibrary\Searching.c ****                     next_state->pos.x = now_state->pos.x + 1;
 2867              		.loc 1 916 37 is_stmt 0 view .LVU909
 2868 012a 0222     		movs	r2, #2
 2869 012c 8270     		strb	r2, [r0, #2]
 917:C:/Users/leopi/Documents/vs/S-Reo/MazeLibrary\Searching.c ****                     now_state->dir = front;
 2870              		.loc 1 917 21 is_stmt 1 view .LVU910
 917:C:/Users/leopi/Documents/vs/S-Reo/MazeLibrary\Searching.c ****                     now_state->dir = front;
 2871              		.loc 1 917 55 is_stmt 0 view .LVU911
 2872 012e 1A78     		ldrb	r2, [r3]	@ zero_extendqisi2
 917:C:/Users/leopi/Documents/vs/S-Reo/MazeLibrary\Searching.c ****                     now_state->dir = front;
 2873              		.loc 1 917 58 view .LVU912
 2874 0130 0132     		adds	r2, r2, #1
 917:C:/Users/leopi/Documents/vs/S-Reo/MazeLibrary\Searching.c ****                     now_state->dir = front;
 2875              		.loc 1 917 39 view .LVU913
 2876 0132 0270     		strb	r2, [r0]
 918:C:/Users/leopi/Documents/vs/S-Reo/MazeLibrary\Searching.c **** //                    ChangeLED(4);
 2877              		.loc 1 918 21 is_stmt 1 view .LVU914
ARM GAS  C:\Users\leopi\AppData\Local\Temp\ccMuwtHQ.s 			page 81


 918:C:/Users/leopi/Documents/vs/S-Reo/MazeLibrary\Searching.c **** //                    ChangeLED(4);
 2878              		.loc 1 918 36 is_stmt 0 view .LVU915
 2879 0134 0022     		movs	r2, #0
 2880 0136 DA70     		strb	r2, [r3, #3]
 920:C:/Users/leopi/Documents/vs/S-Reo/MazeLibrary\Searching.c ****                 }
 2881              		.loc 1 920 21 is_stmt 1 view .LVU916
 920:C:/Users/leopi/Documents/vs/S-Reo/MazeLibrary\Searching.c ****                 }
 2882              		.loc 1 920 28 is_stmt 0 view .LVU917
 2883 0138 8CE7     		b	.L154
 2884              	.L188:
 924:C:/Users/leopi/Documents/vs/S-Reo/MazeLibrary\Searching.c ****                 {
 2885              		.loc 1 924 21 discriminator 1 view .LVU918
 2886 013a AC42     		cmp	r4, r5
 2887 013c DAD1     		bne	.L165
 926:C:/Users/leopi/Documents/vs/S-Reo/MazeLibrary\Searching.c ****                     next_state->pos.x = now_state->pos.x - 2; //次に壁を更新するタイミ
 2888              		.loc 1 926 21 is_stmt 1 view .LVU919
 926:C:/Users/leopi/Documents/vs/S-Reo/MazeLibrary\Searching.c ****                     next_state->pos.x = now_state->pos.x - 2; //次に壁を更新するタイミ
 2889              		.loc 1 926 37 is_stmt 0 view .LVU920
 2890 013e 0622     		movs	r2, #6
 2891 0140 8270     		strb	r2, [r0, #2]
 927:C:/Users/leopi/Documents/vs/S-Reo/MazeLibrary\Searching.c ****                     now_state->dir = back;
 2892              		.loc 1 927 21 is_stmt 1 view .LVU921
 927:C:/Users/leopi/Documents/vs/S-Reo/MazeLibrary\Searching.c ****                     now_state->dir = back;
 2893              		.loc 1 927 55 is_stmt 0 view .LVU922
 2894 0142 1A78     		ldrb	r2, [r3]	@ zero_extendqisi2
 927:C:/Users/leopi/Documents/vs/S-Reo/MazeLibrary\Searching.c ****                     now_state->dir = back;
 2895              		.loc 1 927 58 view .LVU923
 2896 0144 023A     		subs	r2, r2, #2
 927:C:/Users/leopi/Documents/vs/S-Reo/MazeLibrary\Searching.c ****                     now_state->dir = back;
 2897              		.loc 1 927 39 view .LVU924
 2898 0146 0270     		strb	r2, [r0]
 928:C:/Users/leopi/Documents/vs/S-Reo/MazeLibrary\Searching.c ****                     return next_state;
 2899              		.loc 1 928 21 is_stmt 1 view .LVU925
 928:C:/Users/leopi/Documents/vs/S-Reo/MazeLibrary\Searching.c ****                     return next_state;
 2900              		.loc 1 928 36 is_stmt 0 view .LVU926
 2901 0148 0422     		movs	r2, #4
 2902 014a DA70     		strb	r2, [r3, #3]
 929:C:/Users/leopi/Documents/vs/S-Reo/MazeLibrary\Searching.c ****                 }
 2903              		.loc 1 929 21 is_stmt 1 view .LVU927
 929:C:/Users/leopi/Documents/vs/S-Reo/MazeLibrary\Searching.c ****                 }
 2904              		.loc 1 929 28 is_stmt 0 view .LVU928
 2905 014c 82E7     		b	.L154
 2906              	.L189:
 940:C:/Users/leopi/Documents/vs/S-Reo/MazeLibrary\Searching.c ****                 {
 2907              		.loc 1 940 21 discriminator 1 view .LVU929
 2908 014e AC42     		cmp	r4, r5
 2909 0150 D4D1     		bne	.L167
 942:C:/Users/leopi/Documents/vs/S-Reo/MazeLibrary\Searching.c ****                     next_state->pos.y = now_state->pos.y - 1;
 2910              		.loc 1 942 21 is_stmt 1 view .LVU930
 942:C:/Users/leopi/Documents/vs/S-Reo/MazeLibrary\Searching.c ****                     next_state->pos.y = now_state->pos.y - 1;
 2911              		.loc 1 942 37 is_stmt 0 view .LVU931
 2912 0152 0422     		movs	r2, #4
 2913 0154 8270     		strb	r2, [r0, #2]
 943:C:/Users/leopi/Documents/vs/S-Reo/MazeLibrary\Searching.c ****                     now_state->dir = right;
 2914              		.loc 1 943 21 is_stmt 1 view .LVU932
 943:C:/Users/leopi/Documents/vs/S-Reo/MazeLibrary\Searching.c ****                     now_state->dir = right;
 2915              		.loc 1 943 55 is_stmt 0 view .LVU933
ARM GAS  C:\Users\leopi\AppData\Local\Temp\ccMuwtHQ.s 			page 82


 2916 0156 5A78     		ldrb	r2, [r3, #1]	@ zero_extendqisi2
 943:C:/Users/leopi/Documents/vs/S-Reo/MazeLibrary\Searching.c ****                     now_state->dir = right;
 2917              		.loc 1 943 58 view .LVU934
 2918 0158 013A     		subs	r2, r2, #1
 943:C:/Users/leopi/Documents/vs/S-Reo/MazeLibrary\Searching.c ****                     now_state->dir = right;
 2919              		.loc 1 943 39 view .LVU935
 2920 015a 4270     		strb	r2, [r0, #1]
 944:C:/Users/leopi/Documents/vs/S-Reo/MazeLibrary\Searching.c **** //                    ChangeLED(5);
 2921              		.loc 1 944 21 is_stmt 1 view .LVU936
 944:C:/Users/leopi/Documents/vs/S-Reo/MazeLibrary\Searching.c **** //                    ChangeLED(5);
 2922              		.loc 1 944 36 is_stmt 0 view .LVU937
 2923 015c 0222     		movs	r2, #2
 2924 015e DA70     		strb	r2, [r3, #3]
 946:C:/Users/leopi/Documents/vs/S-Reo/MazeLibrary\Searching.c ****                 }
 2925              		.loc 1 946 21 is_stmt 1 view .LVU938
 946:C:/Users/leopi/Documents/vs/S-Reo/MazeLibrary\Searching.c ****                 }
 2926              		.loc 1 946 28 is_stmt 0 view .LVU939
 2927 0160 78E7     		b	.L154
 2928              	.L190:
 951:C:/Users/leopi/Documents/vs/S-Reo/MazeLibrary\Searching.c ****                 {
 2929              		.loc 1 951 21 discriminator 1 view .LVU940
 2930 0162 621C     		adds	r2, r4, #1
 2931 0164 AA42     		cmp	r2, r5
 2932 0166 CBD1     		bne	.L168
 953:C:/Users/leopi/Documents/vs/S-Reo/MazeLibrary\Searching.c ****                     next_state->pos.y = now_state->pos.y + 1;
 2933              		.loc 1 953 21 is_stmt 1 view .LVU941
 953:C:/Users/leopi/Documents/vs/S-Reo/MazeLibrary\Searching.c ****                     next_state->pos.y = now_state->pos.y + 1;
 2934              		.loc 1 953 37 is_stmt 0 view .LVU942
 2935 0168 0022     		movs	r2, #0
 2936 016a 8270     		strb	r2, [r0, #2]
 954:C:/Users/leopi/Documents/vs/S-Reo/MazeLibrary\Searching.c ****                     now_state->dir = left;
 2937              		.loc 1 954 21 is_stmt 1 view .LVU943
 954:C:/Users/leopi/Documents/vs/S-Reo/MazeLibrary\Searching.c ****                     now_state->dir = left;
 2938              		.loc 1 954 55 is_stmt 0 view .LVU944
 2939 016c 5A78     		ldrb	r2, [r3, #1]	@ zero_extendqisi2
 954:C:/Users/leopi/Documents/vs/S-Reo/MazeLibrary\Searching.c ****                     now_state->dir = left;
 2940              		.loc 1 954 58 view .LVU945
 2941 016e 0132     		adds	r2, r2, #1
 954:C:/Users/leopi/Documents/vs/S-Reo/MazeLibrary\Searching.c ****                     now_state->dir = left;
 2942              		.loc 1 954 39 view .LVU946
 2943 0170 4270     		strb	r2, [r0, #1]
 955:C:/Users/leopi/Documents/vs/S-Reo/MazeLibrary\Searching.c ****                     return next_state;
 2944              		.loc 1 955 21 is_stmt 1 view .LVU947
 955:C:/Users/leopi/Documents/vs/S-Reo/MazeLibrary\Searching.c ****                     return next_state;
 2945              		.loc 1 955 36 is_stmt 0 view .LVU948
 2946 0172 0622     		movs	r2, #6
 2947 0174 DA70     		strb	r2, [r3, #3]
 956:C:/Users/leopi/Documents/vs/S-Reo/MazeLibrary\Searching.c ****                 }
 2948              		.loc 1 956 21 is_stmt 1 view .LVU949
 956:C:/Users/leopi/Documents/vs/S-Reo/MazeLibrary\Searching.c ****                 }
 2949              		.loc 1 956 28 is_stmt 0 view .LVU950
 2950 0176 6DE7     		b	.L154
 2951              	.LVL242:
 2952              	.L191:
 960:C:/Users/leopi/Documents/vs/S-Reo/MazeLibrary\Searching.c ****                 {
 2953              		.loc 1 960 21 discriminator 1 view .LVU951
 2954 0178 621C     		adds	r2, r4, #1
ARM GAS  C:\Users\leopi\AppData\Local\Temp\ccMuwtHQ.s 			page 83


 2955 017a AA42     		cmp	r2, r5
 2956 017c C4D1     		bne	.L169
 962:C:/Users/leopi/Documents/vs/S-Reo/MazeLibrary\Searching.c ****                     next_state->pos.x = now_state->pos.x - 1;
 2957              		.loc 1 962 21 is_stmt 1 view .LVU952
 962:C:/Users/leopi/Documents/vs/S-Reo/MazeLibrary\Searching.c ****                     next_state->pos.x = now_state->pos.x - 1;
 2958              		.loc 1 962 37 is_stmt 0 view .LVU953
 2959 017e 0022     		movs	r2, #0
 2960 0180 8270     		strb	r2, [r0, #2]
 963:C:/Users/leopi/Documents/vs/S-Reo/MazeLibrary\Searching.c ****                     next_state->pos.y = now_state->pos.y + 1;
 2961              		.loc 1 963 21 is_stmt 1 view .LVU954
 963:C:/Users/leopi/Documents/vs/S-Reo/MazeLibrary\Searching.c ****                     next_state->pos.y = now_state->pos.y + 1;
 2962              		.loc 1 963 55 is_stmt 0 view .LVU955
 2963 0182 1A78     		ldrb	r2, [r3]	@ zero_extendqisi2
 963:C:/Users/leopi/Documents/vs/S-Reo/MazeLibrary\Searching.c ****                     next_state->pos.y = now_state->pos.y + 1;
 2964              		.loc 1 963 58 view .LVU956
 2965 0184 013A     		subs	r2, r2, #1
 963:C:/Users/leopi/Documents/vs/S-Reo/MazeLibrary\Searching.c ****                     next_state->pos.y = now_state->pos.y + 1;
 2966              		.loc 1 963 39 view .LVU957
 2967 0186 0270     		strb	r2, [r0]
 964:C:/Users/leopi/Documents/vs/S-Reo/MazeLibrary\Searching.c ****                     now_state->dir = backright;
 2968              		.loc 1 964 21 is_stmt 1 view .LVU958
 964:C:/Users/leopi/Documents/vs/S-Reo/MazeLibrary\Searching.c ****                     now_state->dir = backright;
 2969              		.loc 1 964 55 is_stmt 0 view .LVU959
 2970 0188 5A78     		ldrb	r2, [r3, #1]	@ zero_extendqisi2
 964:C:/Users/leopi/Documents/vs/S-Reo/MazeLibrary\Searching.c ****                     now_state->dir = backright;
 2971              		.loc 1 964 58 view .LVU960
 2972 018a 0132     		adds	r2, r2, #1
 964:C:/Users/leopi/Documents/vs/S-Reo/MazeLibrary\Searching.c ****                     now_state->dir = backright;
 2973              		.loc 1 964 39 view .LVU961
 2974 018c 4270     		strb	r2, [r0, #1]
 965:C:/Users/leopi/Documents/vs/S-Reo/MazeLibrary\Searching.c ****                     return next_state;
 2975              		.loc 1 965 21 is_stmt 1 view .LVU962
 965:C:/Users/leopi/Documents/vs/S-Reo/MazeLibrary\Searching.c ****                     return next_state;
 2976              		.loc 1 965 36 is_stmt 0 view .LVU963
 2977 018e 0322     		movs	r2, #3
 2978 0190 DA70     		strb	r2, [r3, #3]
 966:C:/Users/leopi/Documents/vs/S-Reo/MazeLibrary\Searching.c ****                 }
 2979              		.loc 1 966 21 is_stmt 1 view .LVU964
 966:C:/Users/leopi/Documents/vs/S-Reo/MazeLibrary\Searching.c ****                 }
 2980              		.loc 1 966 28 is_stmt 0 view .LVU965
 2981 0192 5FE7     		b	.L154
 2982              	.LVL243:
 2983              	.L157:
 982:C:/Users/leopi/Documents/vs/S-Reo/MazeLibrary\Searching.c ****             {
 2984              		.loc 1 982 13 is_stmt 1 view .LVU966
 982:C:/Users/leopi/Documents/vs/S-Reo/MazeLibrary\Searching.c ****             {
 2985              		.loc 1 982 25 is_stmt 0 view .LVU967
 2986 0194 5279     		ldrb	r2, [r2, #5]	@ zero_extendqisi2
 2987              	.LVL244:
 982:C:/Users/leopi/Documents/vs/S-Reo/MazeLibrary\Searching.c ****             {
 2988              		.loc 1 982 15 view .LVU968
 2989 0196 1AB9     		cbnz	r2, .L170
 989:C:/Users/leopi/Documents/vs/S-Reo/MazeLibrary\Searching.c ****                 {
 2990              		.loc 1 989 17 is_stmt 1 view .LVU969
 989:C:/Users/leopi/Documents/vs/S-Reo/MazeLibrary\Searching.c ****                 {
 2991              		.loc 1 989 19 is_stmt 0 view .LVU970
 2992 0198 8E45     		cmp	lr, r1
ARM GAS  C:\Users\leopi\AppData\Local\Temp\ccMuwtHQ.s 			page 84


 2993 019a 1DD0     		beq	.L192
 2994              	.L171:
 997:C:/Users/leopi/Documents/vs/S-Reo/MazeLibrary\Searching.c ****                 {
 2995              		.loc 1 997 17 is_stmt 1 view .LVU971
 997:C:/Users/leopi/Documents/vs/S-Reo/MazeLibrary\Searching.c ****                 {
 2996              		.loc 1 997 19 is_stmt 0 view .LVU972
 2997 019c 8E45     		cmp	lr, r1
 2998 019e 27D0     		beq	.L193
 2999              	.L170:
1007:C:/Users/leopi/Documents/vs/S-Reo/MazeLibrary\Searching.c ****             {
 3000              		.loc 1 1007 13 is_stmt 1 view .LVU973
1007:C:/Users/leopi/Documents/vs/S-Reo/MazeLibrary\Searching.c ****             {
 3001              		.loc 1 1007 15 is_stmt 0 view .LVU974
 3002 01a0 002A     		cmp	r2, #0
 3003 01a2 3FF457AF 		beq	.L154
1012:C:/Users/leopi/Documents/vs/S-Reo/MazeLibrary\Searching.c ****                 {
 3004              		.loc 1 1012 17 is_stmt 1 view .LVU975
1012:C:/Users/leopi/Documents/vs/S-Reo/MazeLibrary\Searching.c ****                 {
 3005              		.loc 1 1012 19 is_stmt 0 view .LVU976
 3006 01a6 8E45     		cmp	lr, r1
 3007 01a8 2ED0     		beq	.L194
 3008              	.L172:
1023:C:/Users/leopi/Documents/vs/S-Reo/MazeLibrary\Searching.c ****                 {
 3009              		.loc 1 1023 17 is_stmt 1 view .LVU977
1023:C:/Users/leopi/Documents/vs/S-Reo/MazeLibrary\Searching.c ****                 {
 3010              		.loc 1 1023 21 is_stmt 0 view .LVU978
 3011 01aa 0EF10102 		add	r2, lr, #1
1023:C:/Users/leopi/Documents/vs/S-Reo/MazeLibrary\Searching.c ****                 {
 3012              		.loc 1 1023 19 view .LVU979
 3013 01ae 8A42     		cmp	r2, r1
 3014 01b0 35D0     		beq	.L195
 3015              	.L173:
1033:C:/Users/leopi/Documents/vs/S-Reo/MazeLibrary\Searching.c ****                 {
 3016              		.loc 1 1033 17 is_stmt 1 view .LVU980
1033:C:/Users/leopi/Documents/vs/S-Reo/MazeLibrary\Searching.c ****                 {
 3017              		.loc 1 1033 19 is_stmt 0 view .LVU981
 3018 01b2 8A42     		cmp	r2, r1
 3019 01b4 3FD0     		beq	.L196
 3020              	.L174:
1043:C:/Users/leopi/Documents/vs/S-Reo/MazeLibrary\Searching.c ****                 {
 3021              		.loc 1 1043 17 is_stmt 1 view .LVU982
1043:C:/Users/leopi/Documents/vs/S-Reo/MazeLibrary\Searching.c ****                 {
 3022              		.loc 1 1043 19 is_stmt 0 view .LVU983
 3023 01b6 8E45     		cmp	lr, r1
 3024 01b8 7FF44CAF 		bne	.L154
1043:C:/Users/leopi/Documents/vs/S-Reo/MazeLibrary\Searching.c ****                 {
 3025              		.loc 1 1043 21 discriminator 1 view .LVU984
 3026 01bc AC42     		cmp	r4, r5
 3027 01be 7FF449AF 		bne	.L154
1045:C:/Users/leopi/Documents/vs/S-Reo/MazeLibrary\Searching.c ****                     next_state->pos.x = now_state->pos.x - 1;
 3028              		.loc 1 1045 21 is_stmt 1 view .LVU985
1045:C:/Users/leopi/Documents/vs/S-Reo/MazeLibrary\Searching.c ****                     next_state->pos.x = now_state->pos.x - 1;
 3029              		.loc 1 1045 37 is_stmt 0 view .LVU986
 3030 01c2 0622     		movs	r2, #6
 3031 01c4 8270     		strb	r2, [r0, #2]
1046:C:/Users/leopi/Documents/vs/S-Reo/MazeLibrary\Searching.c ****                     next_state->pos.y = now_state->pos.y + 1;
 3032              		.loc 1 1046 21 is_stmt 1 view .LVU987
ARM GAS  C:\Users\leopi\AppData\Local\Temp\ccMuwtHQ.s 			page 85


1046:C:/Users/leopi/Documents/vs/S-Reo/MazeLibrary\Searching.c ****                     next_state->pos.y = now_state->pos.y + 1;
 3033              		.loc 1 1046 55 is_stmt 0 view .LVU988
 3034 01c6 1A78     		ldrb	r2, [r3]	@ zero_extendqisi2
1046:C:/Users/leopi/Documents/vs/S-Reo/MazeLibrary\Searching.c ****                     next_state->pos.y = now_state->pos.y + 1;
 3035              		.loc 1 1046 58 view .LVU989
 3036 01c8 013A     		subs	r2, r2, #1
1046:C:/Users/leopi/Documents/vs/S-Reo/MazeLibrary\Searching.c ****                     next_state->pos.y = now_state->pos.y + 1;
 3037              		.loc 1 1046 39 view .LVU990
 3038 01ca 0270     		strb	r2, [r0]
1047:C:/Users/leopi/Documents/vs/S-Reo/MazeLibrary\Searching.c ****                     now_state->dir = backleft;
 3039              		.loc 1 1047 21 is_stmt 1 view .LVU991
1047:C:/Users/leopi/Documents/vs/S-Reo/MazeLibrary\Searching.c ****                     now_state->dir = backleft;
 3040              		.loc 1 1047 55 is_stmt 0 view .LVU992
 3041 01cc 5A78     		ldrb	r2, [r3, #1]	@ zero_extendqisi2
1047:C:/Users/leopi/Documents/vs/S-Reo/MazeLibrary\Searching.c ****                     now_state->dir = backleft;
 3042              		.loc 1 1047 58 view .LVU993
 3043 01ce 0132     		adds	r2, r2, #1
1047:C:/Users/leopi/Documents/vs/S-Reo/MazeLibrary\Searching.c ****                     now_state->dir = backleft;
 3044              		.loc 1 1047 39 view .LVU994
 3045 01d0 4270     		strb	r2, [r0, #1]
1048:C:/Users/leopi/Documents/vs/S-Reo/MazeLibrary\Searching.c ****                     return next_state;
 3046              		.loc 1 1048 21 is_stmt 1 view .LVU995
1048:C:/Users/leopi/Documents/vs/S-Reo/MazeLibrary\Searching.c ****                     return next_state;
 3047              		.loc 1 1048 36 is_stmt 0 view .LVU996
 3048 01d2 0522     		movs	r2, #5
 3049 01d4 DA70     		strb	r2, [r3, #3]
1049:C:/Users/leopi/Documents/vs/S-Reo/MazeLibrary\Searching.c ****                 }
 3050              		.loc 1 1049 21 is_stmt 1 view .LVU997
1049:C:/Users/leopi/Documents/vs/S-Reo/MazeLibrary\Searching.c ****                 }
 3051              		.loc 1 1049 28 is_stmt 0 view .LVU998
 3052 01d6 3DE7     		b	.L154
 3053              	.L192:
 989:C:/Users/leopi/Documents/vs/S-Reo/MazeLibrary\Searching.c ****                 {
 3054              		.loc 1 989 21 discriminator 1 view .LVU999
 3055 01d8 04F1FF3C 		add	ip, r4, #-1
 3056 01dc AC45     		cmp	ip, r5
 3057 01de DDD1     		bne	.L171
 991:C:/Users/leopi/Documents/vs/S-Reo/MazeLibrary\Searching.c ****                     next_state->pos.y = now_state->pos.y - 1; //次に壁を更新するタイミ
 3058              		.loc 1 991 21 is_stmt 1 view .LVU1000
 991:C:/Users/leopi/Documents/vs/S-Reo/MazeLibrary\Searching.c ****                     next_state->pos.y = now_state->pos.y - 1; //次に壁を更新するタイミ
 3059              		.loc 1 991 37 is_stmt 0 view .LVU1001
 3060 01e0 0422     		movs	r2, #4
 3061 01e2 8270     		strb	r2, [r0, #2]
 992:C:/Users/leopi/Documents/vs/S-Reo/MazeLibrary\Searching.c ****                     now_state->dir = front;
 3062              		.loc 1 992 21 is_stmt 1 view .LVU1002
 992:C:/Users/leopi/Documents/vs/S-Reo/MazeLibrary\Searching.c ****                     now_state->dir = front;
 3063              		.loc 1 992 55 is_stmt 0 view .LVU1003
 3064 01e4 5A78     		ldrb	r2, [r3, #1]	@ zero_extendqisi2
 992:C:/Users/leopi/Documents/vs/S-Reo/MazeLibrary\Searching.c ****                     now_state->dir = front;
 3065              		.loc 1 992 58 view .LVU1004
 3066 01e6 013A     		subs	r2, r2, #1
 992:C:/Users/leopi/Documents/vs/S-Reo/MazeLibrary\Searching.c ****                     now_state->dir = front;
 3067              		.loc 1 992 39 view .LVU1005
 3068 01e8 4270     		strb	r2, [r0, #1]
 993:C:/Users/leopi/Documents/vs/S-Reo/MazeLibrary\Searching.c ****                     return next_state;
 3069              		.loc 1 993 21 is_stmt 1 view .LVU1006
 993:C:/Users/leopi/Documents/vs/S-Reo/MazeLibrary\Searching.c ****                     return next_state;
ARM GAS  C:\Users\leopi\AppData\Local\Temp\ccMuwtHQ.s 			page 86


 3070              		.loc 1 993 36 is_stmt 0 view .LVU1007
 3071 01ea 0022     		movs	r2, #0
 3072 01ec DA70     		strb	r2, [r3, #3]
 994:C:/Users/leopi/Documents/vs/S-Reo/MazeLibrary\Searching.c ****                 }
 3073              		.loc 1 994 21 is_stmt 1 view .LVU1008
 994:C:/Users/leopi/Documents/vs/S-Reo/MazeLibrary\Searching.c ****                 }
 3074              		.loc 1 994 28 is_stmt 0 view .LVU1009
 3075 01ee 31E7     		b	.L154
 3076              	.L193:
 997:C:/Users/leopi/Documents/vs/S-Reo/MazeLibrary\Searching.c ****                 {
 3077              		.loc 1 997 21 discriminator 1 view .LVU1010
 3078 01f0 04F1010C 		add	ip, r4, #1
 3079 01f4 AC45     		cmp	ip, r5
 3080 01f6 D3D1     		bne	.L170
 999:C:/Users/leopi/Documents/vs/S-Reo/MazeLibrary\Searching.c ****                     next_state->pos.y = now_state->pos.y + 2;
 3081              		.loc 1 999 21 is_stmt 1 view .LVU1011
 999:C:/Users/leopi/Documents/vs/S-Reo/MazeLibrary\Searching.c ****                     next_state->pos.y = now_state->pos.y + 2;
 3082              		.loc 1 999 37 is_stmt 0 view .LVU1012
 3083 01f8 0022     		movs	r2, #0
 3084 01fa 8270     		strb	r2, [r0, #2]
1000:C:/Users/leopi/Documents/vs/S-Reo/MazeLibrary\Searching.c ****                     now_state->dir = back;
 3085              		.loc 1 1000 21 is_stmt 1 view .LVU1013
1000:C:/Users/leopi/Documents/vs/S-Reo/MazeLibrary\Searching.c ****                     now_state->dir = back;
 3086              		.loc 1 1000 55 is_stmt 0 view .LVU1014
 3087 01fc 5A78     		ldrb	r2, [r3, #1]	@ zero_extendqisi2
1000:C:/Users/leopi/Documents/vs/S-Reo/MazeLibrary\Searching.c ****                     now_state->dir = back;
 3088              		.loc 1 1000 58 view .LVU1015
 3089 01fe 0232     		adds	r2, r2, #2
1000:C:/Users/leopi/Documents/vs/S-Reo/MazeLibrary\Searching.c ****                     now_state->dir = back;
 3090              		.loc 1 1000 39 view .LVU1016
 3091 0200 4270     		strb	r2, [r0, #1]
1001:C:/Users/leopi/Documents/vs/S-Reo/MazeLibrary\Searching.c ****                     return next_state;
 3092              		.loc 1 1001 21 is_stmt 1 view .LVU1017
1001:C:/Users/leopi/Documents/vs/S-Reo/MazeLibrary\Searching.c ****                     return next_state;
 3093              		.loc 1 1001 36 is_stmt 0 view .LVU1018
 3094 0202 0422     		movs	r2, #4
 3095 0204 DA70     		strb	r2, [r3, #3]
1002:C:/Users/leopi/Documents/vs/S-Reo/MazeLibrary\Searching.c ****                 }
 3096              		.loc 1 1002 21 is_stmt 1 view .LVU1019
1002:C:/Users/leopi/Documents/vs/S-Reo/MazeLibrary\Searching.c ****                 }
 3097              		.loc 1 1002 28 is_stmt 0 view .LVU1020
 3098 0206 25E7     		b	.L154
 3099              	.L194:
1012:C:/Users/leopi/Documents/vs/S-Reo/MazeLibrary\Searching.c ****                 {
 3100              		.loc 1 1012 21 discriminator 1 view .LVU1021
 3101 0208 621E     		subs	r2, r4, #1
 3102 020a AA42     		cmp	r2, r5
 3103 020c CDD1     		bne	.L172
1014:C:/Users/leopi/Documents/vs/S-Reo/MazeLibrary\Searching.c ****                     next_state->pos.x = now_state->pos.x - 1;
 3104              		.loc 1 1014 21 is_stmt 1 view .LVU1022
1014:C:/Users/leopi/Documents/vs/S-Reo/MazeLibrary\Searching.c ****                     next_state->pos.x = now_state->pos.x - 1;
 3105              		.loc 1 1014 37 is_stmt 0 view .LVU1023
 3106 020e 0622     		movs	r2, #6
 3107 0210 8270     		strb	r2, [r0, #2]
1015:C:/Users/leopi/Documents/vs/S-Reo/MazeLibrary\Searching.c ****                     now_state->dir = right;
 3108              		.loc 1 1015 21 is_stmt 1 view .LVU1024
1015:C:/Users/leopi/Documents/vs/S-Reo/MazeLibrary\Searching.c ****                     now_state->dir = right;
ARM GAS  C:\Users\leopi\AppData\Local\Temp\ccMuwtHQ.s 			page 87


 3109              		.loc 1 1015 55 is_stmt 0 view .LVU1025
 3110 0212 1A78     		ldrb	r2, [r3]	@ zero_extendqisi2
1015:C:/Users/leopi/Documents/vs/S-Reo/MazeLibrary\Searching.c ****                     now_state->dir = right;
 3111              		.loc 1 1015 58 view .LVU1026
 3112 0214 013A     		subs	r2, r2, #1
1015:C:/Users/leopi/Documents/vs/S-Reo/MazeLibrary\Searching.c ****                     now_state->dir = right;
 3113              		.loc 1 1015 39 view .LVU1027
 3114 0216 0270     		strb	r2, [r0]
1016:C:/Users/leopi/Documents/vs/S-Reo/MazeLibrary\Searching.c **** //                    ChangeLED(4);
 3115              		.loc 1 1016 21 is_stmt 1 view .LVU1028
1016:C:/Users/leopi/Documents/vs/S-Reo/MazeLibrary\Searching.c **** //                    ChangeLED(4);
 3116              		.loc 1 1016 36 is_stmt 0 view .LVU1029
 3117 0218 0222     		movs	r2, #2
 3118 021a DA70     		strb	r2, [r3, #3]
1019:C:/Users/leopi/Documents/vs/S-Reo/MazeLibrary\Searching.c ****                 }
 3119              		.loc 1 1019 21 is_stmt 1 view .LVU1030
1019:C:/Users/leopi/Documents/vs/S-Reo/MazeLibrary\Searching.c ****                 }
 3120              		.loc 1 1019 28 is_stmt 0 view .LVU1031
 3121 021c 1AE7     		b	.L154
 3122              	.L195:
1023:C:/Users/leopi/Documents/vs/S-Reo/MazeLibrary\Searching.c ****                 {
 3123              		.loc 1 1023 21 discriminator 1 view .LVU1032
 3124 021e 04F1FF3C 		add	ip, r4, #-1
 3125 0222 AC45     		cmp	ip, r5
 3126 0224 C5D1     		bne	.L173
1025:C:/Users/leopi/Documents/vs/S-Reo/MazeLibrary\Searching.c ****                     next_state->pos.x = now_state->pos.x + 1;
 3127              		.loc 1 1025 21 is_stmt 1 view .LVU1033
1025:C:/Users/leopi/Documents/vs/S-Reo/MazeLibrary\Searching.c ****                     next_state->pos.x = now_state->pos.x + 1;
 3128              		.loc 1 1025 37 is_stmt 0 view .LVU1034
 3129 0226 0222     		movs	r2, #2
 3130 0228 8270     		strb	r2, [r0, #2]
1026:C:/Users/leopi/Documents/vs/S-Reo/MazeLibrary\Searching.c ****                     now_state->dir = left;
 3131              		.loc 1 1026 21 is_stmt 1 view .LVU1035
1026:C:/Users/leopi/Documents/vs/S-Reo/MazeLibrary\Searching.c ****                     now_state->dir = left;
 3132              		.loc 1 1026 55 is_stmt 0 view .LVU1036
 3133 022a 1A78     		ldrb	r2, [r3]	@ zero_extendqisi2
1026:C:/Users/leopi/Documents/vs/S-Reo/MazeLibrary\Searching.c ****                     now_state->dir = left;
 3134              		.loc 1 1026 58 view .LVU1037
 3135 022c 0132     		adds	r2, r2, #1
1026:C:/Users/leopi/Documents/vs/S-Reo/MazeLibrary\Searching.c ****                     now_state->dir = left;
 3136              		.loc 1 1026 39 view .LVU1038
 3137 022e 0270     		strb	r2, [r0]
1027:C:/Users/leopi/Documents/vs/S-Reo/MazeLibrary\Searching.c ****                     return next_state;
 3138              		.loc 1 1027 21 is_stmt 1 view .LVU1039
1027:C:/Users/leopi/Documents/vs/S-Reo/MazeLibrary\Searching.c ****                     return next_state;
 3139              		.loc 1 1027 36 is_stmt 0 view .LVU1040
 3140 0230 0622     		movs	r2, #6
 3141 0232 DA70     		strb	r2, [r3, #3]
1028:C:/Users/leopi/Documents/vs/S-Reo/MazeLibrary\Searching.c ****                 }
 3142              		.loc 1 1028 21 is_stmt 1 view .LVU1041
1028:C:/Users/leopi/Documents/vs/S-Reo/MazeLibrary\Searching.c ****                 }
 3143              		.loc 1 1028 28 is_stmt 0 view .LVU1042
 3144 0234 0EE7     		b	.L154
 3145              	.L196:
1033:C:/Users/leopi/Documents/vs/S-Reo/MazeLibrary\Searching.c ****                 {
 3146              		.loc 1 1033 21 discriminator 1 view .LVU1043
 3147 0236 AC42     		cmp	r4, r5
ARM GAS  C:\Users\leopi\AppData\Local\Temp\ccMuwtHQ.s 			page 88


 3148 0238 BDD1     		bne	.L174
1035:C:/Users/leopi/Documents/vs/S-Reo/MazeLibrary\Searching.c ****                     next_state->pos.x = now_state->pos.x + 1;
 3149              		.loc 1 1035 21 is_stmt 1 view .LVU1044
1035:C:/Users/leopi/Documents/vs/S-Reo/MazeLibrary\Searching.c ****                     next_state->pos.x = now_state->pos.x + 1;
 3150              		.loc 1 1035 37 is_stmt 0 view .LVU1045
 3151 023a 0222     		movs	r2, #2
 3152 023c 8270     		strb	r2, [r0, #2]
1036:C:/Users/leopi/Documents/vs/S-Reo/MazeLibrary\Searching.c ****                     next_state->pos.y = now_state->pos.y + 1;
 3153              		.loc 1 1036 21 is_stmt 1 view .LVU1046
1036:C:/Users/leopi/Documents/vs/S-Reo/MazeLibrary\Searching.c ****                     next_state->pos.y = now_state->pos.y + 1;
 3154              		.loc 1 1036 55 is_stmt 0 view .LVU1047
 3155 023e 1A78     		ldrb	r2, [r3]	@ zero_extendqisi2
1036:C:/Users/leopi/Documents/vs/S-Reo/MazeLibrary\Searching.c ****                     next_state->pos.y = now_state->pos.y + 1;
 3156              		.loc 1 1036 58 view .LVU1048
 3157 0240 0132     		adds	r2, r2, #1
1036:C:/Users/leopi/Documents/vs/S-Reo/MazeLibrary\Searching.c ****                     next_state->pos.y = now_state->pos.y + 1;
 3158              		.loc 1 1036 39 view .LVU1049
 3159 0242 0270     		strb	r2, [r0]
1037:C:/Users/leopi/Documents/vs/S-Reo/MazeLibrary\Searching.c ****                     now_state->dir = backright;
 3160              		.loc 1 1037 21 is_stmt 1 view .LVU1050
1037:C:/Users/leopi/Documents/vs/S-Reo/MazeLibrary\Searching.c ****                     now_state->dir = backright;
 3161              		.loc 1 1037 55 is_stmt 0 view .LVU1051
 3162 0244 5A78     		ldrb	r2, [r3, #1]	@ zero_extendqisi2
1037:C:/Users/leopi/Documents/vs/S-Reo/MazeLibrary\Searching.c ****                     now_state->dir = backright;
 3163              		.loc 1 1037 58 view .LVU1052
 3164 0246 0132     		adds	r2, r2, #1
1037:C:/Users/leopi/Documents/vs/S-Reo/MazeLibrary\Searching.c ****                     now_state->dir = backright;
 3165              		.loc 1 1037 39 view .LVU1053
 3166 0248 4270     		strb	r2, [r0, #1]
1038:C:/Users/leopi/Documents/vs/S-Reo/MazeLibrary\Searching.c ****                     return next_state;
 3167              		.loc 1 1038 21 is_stmt 1 view .LVU1054
1038:C:/Users/leopi/Documents/vs/S-Reo/MazeLibrary\Searching.c ****                     return next_state;
 3168              		.loc 1 1038 36 is_stmt 0 view .LVU1055
 3169 024a 0322     		movs	r2, #3
 3170 024c DA70     		strb	r2, [r3, #3]
1039:C:/Users/leopi/Documents/vs/S-Reo/MazeLibrary\Searching.c ****                 }
 3171              		.loc 1 1039 21 is_stmt 1 view .LVU1056
1039:C:/Users/leopi/Documents/vs/S-Reo/MazeLibrary\Searching.c ****                 }
 3172              		.loc 1 1039 28 is_stmt 0 view .LVU1057
 3173 024e 01E7     		b	.L154
 3174              	.LVL245:
 3175              	.L155:
1054:C:/Users/leopi/Documents/vs/S-Reo/MazeLibrary\Searching.c ****             {
 3176              		.loc 1 1054 13 is_stmt 1 view .LVU1058
1054:C:/Users/leopi/Documents/vs/S-Reo/MazeLibrary\Searching.c ****             {
 3177              		.loc 1 1054 25 is_stmt 0 view .LVU1059
 3178 0250 5279     		ldrb	r2, [r2, #5]	@ zero_extendqisi2
 3179              	.LVL246:
1054:C:/Users/leopi/Documents/vs/S-Reo/MazeLibrary\Searching.c ****             {
 3180              		.loc 1 1054 15 view .LVU1060
 3181 0252 3AB1     		cbz	r2, .L175
1061:C:/Users/leopi/Documents/vs/S-Reo/MazeLibrary\Searching.c ****                 {
 3182              		.loc 1 1061 17 is_stmt 1 view .LVU1061
1061:C:/Users/leopi/Documents/vs/S-Reo/MazeLibrary\Searching.c ****                 {
 3183              		.loc 1 1061 21 is_stmt 0 view .LVU1062
 3184 0254 0EF1FF3C 		add	ip, lr, #-1
1061:C:/Users/leopi/Documents/vs/S-Reo/MazeLibrary\Searching.c ****                 {
ARM GAS  C:\Users\leopi\AppData\Local\Temp\ccMuwtHQ.s 			page 89


 3185              		.loc 1 1061 19 view .LVU1063
 3186 0258 8C45     		cmp	ip, r1
 3187 025a 20D0     		beq	.L197
 3188              	.L176:
1070:C:/Users/leopi/Documents/vs/S-Reo/MazeLibrary\Searching.c ****                 {
 3189              		.loc 1 1070 17 is_stmt 1 view .LVU1064
1070:C:/Users/leopi/Documents/vs/S-Reo/MazeLibrary\Searching.c ****                 {
 3190              		.loc 1 1070 21 is_stmt 0 view .LVU1065
 3191 025c 0EF1010C 		add	ip, lr, #1
1070:C:/Users/leopi/Documents/vs/S-Reo/MazeLibrary\Searching.c ****                 {
 3192              		.loc 1 1070 19 view .LVU1066
 3193 0260 6145     		cmp	r1, ip
 3194 0262 26D0     		beq	.L198
 3195              	.L175:
1081:C:/Users/leopi/Documents/vs/S-Reo/MazeLibrary\Searching.c ****             {
 3196              		.loc 1 1081 13 is_stmt 1 view .LVU1067
1081:C:/Users/leopi/Documents/vs/S-Reo/MazeLibrary\Searching.c ****             {
 3197              		.loc 1 1081 15 is_stmt 0 view .LVU1068
 3198 0264 002A     		cmp	r2, #0
 3199 0266 7FF4F5AE 		bne	.L154
1086:C:/Users/leopi/Documents/vs/S-Reo/MazeLibrary\Searching.c ****                 {
 3200              		.loc 1 1086 17 is_stmt 1 view .LVU1069
1086:C:/Users/leopi/Documents/vs/S-Reo/MazeLibrary\Searching.c ****                 {
 3201              		.loc 1 1086 21 is_stmt 0 view .LVU1070
 3202 026a 0EF1FF32 		add	r2, lr, #-1
1086:C:/Users/leopi/Documents/vs/S-Reo/MazeLibrary\Searching.c ****                 {
 3203              		.loc 1 1086 19 view .LVU1071
 3204 026e 8A42     		cmp	r2, r1
 3205 0270 29D0     		beq	.L199
 3206              	.L177:
1097:C:/Users/leopi/Documents/vs/S-Reo/MazeLibrary\Searching.c ****                 {
 3207              		.loc 1 1097 17 is_stmt 1 view .LVU1072
1097:C:/Users/leopi/Documents/vs/S-Reo/MazeLibrary\Searching.c ****                 {
 3208              		.loc 1 1097 19 is_stmt 0 view .LVU1073
 3209 0272 8A42     		cmp	r2, r1
 3210 0274 33D0     		beq	.L200
 3211              	.L178:
1107:C:/Users/leopi/Documents/vs/S-Reo/MazeLibrary\Searching.c ****                 {
 3212              		.loc 1 1107 17 is_stmt 1 view .LVU1074
1107:C:/Users/leopi/Documents/vs/S-Reo/MazeLibrary\Searching.c ****                 {
 3213              		.loc 1 1107 19 is_stmt 0 view .LVU1075
 3214 0276 8E45     		cmp	lr, r1
 3215 0278 3BD0     		beq	.L201
 3216              	.L179:
1117:C:/Users/leopi/Documents/vs/S-Reo/MazeLibrary\Searching.c ****                 {
 3217              		.loc 1 1117 17 is_stmt 1 view .LVU1076
1117:C:/Users/leopi/Documents/vs/S-Reo/MazeLibrary\Searching.c ****                 {
 3218              		.loc 1 1117 19 is_stmt 0 view .LVU1077
 3219 027a 8E45     		cmp	lr, r1
 3220 027c 7FF4EAAE 		bne	.L154
1117:C:/Users/leopi/Documents/vs/S-Reo/MazeLibrary\Searching.c ****                 {
 3221              		.loc 1 1117 21 discriminator 1 view .LVU1078
 3222 0280 0134     		adds	r4, r4, #1
 3223              	.LVL247:
1117:C:/Users/leopi/Documents/vs/S-Reo/MazeLibrary\Searching.c ****                 {
 3224              		.loc 1 1117 21 discriminator 1 view .LVU1079
 3225 0282 AC42     		cmp	r4, r5
ARM GAS  C:\Users\leopi\AppData\Local\Temp\ccMuwtHQ.s 			page 90


 3226 0284 7FF4E6AE 		bne	.L154
1119:C:/Users/leopi/Documents/vs/S-Reo/MazeLibrary\Searching.c ****                     next_state->pos.x = now_state->pos.x + 1;
 3227              		.loc 1 1119 21 is_stmt 1 view .LVU1080
1119:C:/Users/leopi/Documents/vs/S-Reo/MazeLibrary\Searching.c ****                     next_state->pos.x = now_state->pos.x + 1;
 3228              		.loc 1 1119 37 is_stmt 0 view .LVU1081
 3229 0288 0022     		movs	r2, #0
 3230 028a 8270     		strb	r2, [r0, #2]
1120:C:/Users/leopi/Documents/vs/S-Reo/MazeLibrary\Searching.c ****                     next_state->pos.y = now_state->pos.y + 1;
 3231              		.loc 1 1120 21 is_stmt 1 view .LVU1082
1120:C:/Users/leopi/Documents/vs/S-Reo/MazeLibrary\Searching.c ****                     next_state->pos.y = now_state->pos.y + 1;
 3232              		.loc 1 1120 55 is_stmt 0 view .LVU1083
 3233 028c 1A78     		ldrb	r2, [r3]	@ zero_extendqisi2
1120:C:/Users/leopi/Documents/vs/S-Reo/MazeLibrary\Searching.c ****                     next_state->pos.y = now_state->pos.y + 1;
 3234              		.loc 1 1120 58 view .LVU1084
 3235 028e 0132     		adds	r2, r2, #1
1120:C:/Users/leopi/Documents/vs/S-Reo/MazeLibrary\Searching.c ****                     next_state->pos.y = now_state->pos.y + 1;
 3236              		.loc 1 1120 39 view .LVU1085
 3237 0290 0270     		strb	r2, [r0]
1121:C:/Users/leopi/Documents/vs/S-Reo/MazeLibrary\Searching.c ****                     now_state->dir = backleft;
 3238              		.loc 1 1121 21 is_stmt 1 view .LVU1086
1121:C:/Users/leopi/Documents/vs/S-Reo/MazeLibrary\Searching.c ****                     now_state->dir = backleft;
 3239              		.loc 1 1121 55 is_stmt 0 view .LVU1087
 3240 0292 5A78     		ldrb	r2, [r3, #1]	@ zero_extendqisi2
1121:C:/Users/leopi/Documents/vs/S-Reo/MazeLibrary\Searching.c ****                     now_state->dir = backleft;
 3241              		.loc 1 1121 58 view .LVU1088
 3242 0294 0132     		adds	r2, r2, #1
1121:C:/Users/leopi/Documents/vs/S-Reo/MazeLibrary\Searching.c ****                     now_state->dir = backleft;
 3243              		.loc 1 1121 39 view .LVU1089
 3244 0296 4270     		strb	r2, [r0, #1]
1122:C:/Users/leopi/Documents/vs/S-Reo/MazeLibrary\Searching.c ****                     return next_state;
 3245              		.loc 1 1122 21 is_stmt 1 view .LVU1090
1122:C:/Users/leopi/Documents/vs/S-Reo/MazeLibrary\Searching.c ****                     return next_state;
 3246              		.loc 1 1122 36 is_stmt 0 view .LVU1091
 3247 0298 0522     		movs	r2, #5
 3248 029a DA70     		strb	r2, [r3, #3]
1123:C:/Users/leopi/Documents/vs/S-Reo/MazeLibrary\Searching.c ****                 }
 3249              		.loc 1 1123 21 is_stmt 1 view .LVU1092
1123:C:/Users/leopi/Documents/vs/S-Reo/MazeLibrary\Searching.c ****                 }
 3250              		.loc 1 1123 28 is_stmt 0 view .LVU1093
 3251 029c DAE6     		b	.L154
 3252              	.LVL248:
 3253              	.L197:
1061:C:/Users/leopi/Documents/vs/S-Reo/MazeLibrary\Searching.c ****                 {
 3254              		.loc 1 1061 21 discriminator 1 view .LVU1094
 3255 029e AC42     		cmp	r4, r5
 3256 02a0 DCD1     		bne	.L176
1063:C:/Users/leopi/Documents/vs/S-Reo/MazeLibrary\Searching.c ****                     next_state->pos.x = now_state->pos.x - 1; //次に壁を更新するタイミ
 3257              		.loc 1 1063 21 is_stmt 1 view .LVU1095
1063:C:/Users/leopi/Documents/vs/S-Reo/MazeLibrary\Searching.c ****                     next_state->pos.x = now_state->pos.x - 1; //次に壁を更新するタイミ
 3258              		.loc 1 1063 37 is_stmt 0 view .LVU1096
 3259 02a2 0622     		movs	r2, #6
 3260 02a4 8270     		strb	r2, [r0, #2]
1064:C:/Users/leopi/Documents/vs/S-Reo/MazeLibrary\Searching.c ****                     now_state->dir = front;
 3261              		.loc 1 1064 21 is_stmt 1 view .LVU1097
1064:C:/Users/leopi/Documents/vs/S-Reo/MazeLibrary\Searching.c ****                     now_state->dir = front;
 3262              		.loc 1 1064 55 is_stmt 0 view .LVU1098
 3263 02a6 1A78     		ldrb	r2, [r3]	@ zero_extendqisi2
ARM GAS  C:\Users\leopi\AppData\Local\Temp\ccMuwtHQ.s 			page 91


1064:C:/Users/leopi/Documents/vs/S-Reo/MazeLibrary\Searching.c ****                     now_state->dir = front;
 3264              		.loc 1 1064 58 view .LVU1099
 3265 02a8 013A     		subs	r2, r2, #1
1064:C:/Users/leopi/Documents/vs/S-Reo/MazeLibrary\Searching.c ****                     now_state->dir = front;
 3266              		.loc 1 1064 39 view .LVU1100
 3267 02aa 0270     		strb	r2, [r0]
1065:C:/Users/leopi/Documents/vs/S-Reo/MazeLibrary\Searching.c ****                     return next_state;
 3268              		.loc 1 1065 21 is_stmt 1 view .LVU1101
1065:C:/Users/leopi/Documents/vs/S-Reo/MazeLibrary\Searching.c ****                     return next_state;
 3269              		.loc 1 1065 36 is_stmt 0 view .LVU1102
 3270 02ac 0022     		movs	r2, #0
 3271 02ae DA70     		strb	r2, [r3, #3]
1066:C:/Users/leopi/Documents/vs/S-Reo/MazeLibrary\Searching.c ****                 }
 3272              		.loc 1 1066 21 is_stmt 1 view .LVU1103
1066:C:/Users/leopi/Documents/vs/S-Reo/MazeLibrary\Searching.c ****                 }
 3273              		.loc 1 1066 28 is_stmt 0 view .LVU1104
 3274 02b0 D0E6     		b	.L154
 3275              	.L198:
1070:C:/Users/leopi/Documents/vs/S-Reo/MazeLibrary\Searching.c ****                 {
 3276              		.loc 1 1070 21 discriminator 1 view .LVU1105
 3277 02b2 AC42     		cmp	r4, r5
 3278 02b4 D6D1     		bne	.L175
1072:C:/Users/leopi/Documents/vs/S-Reo/MazeLibrary\Searching.c ****                     next_state->pos.x = now_state->pos.x + 2;
 3279              		.loc 1 1072 21 is_stmt 1 view .LVU1106
1072:C:/Users/leopi/Documents/vs/S-Reo/MazeLibrary\Searching.c ****                     next_state->pos.x = now_state->pos.x + 2;
 3280              		.loc 1 1072 37 is_stmt 0 view .LVU1107
 3281 02b6 0222     		movs	r2, #2
 3282 02b8 8270     		strb	r2, [r0, #2]
1073:C:/Users/leopi/Documents/vs/S-Reo/MazeLibrary\Searching.c ****                     now_state->dir = back;
 3283              		.loc 1 1073 21 is_stmt 1 view .LVU1108
1073:C:/Users/leopi/Documents/vs/S-Reo/MazeLibrary\Searching.c ****                     now_state->dir = back;
 3284              		.loc 1 1073 55 is_stmt 0 view .LVU1109
 3285 02ba 1A78     		ldrb	r2, [r3]	@ zero_extendqisi2
1073:C:/Users/leopi/Documents/vs/S-Reo/MazeLibrary\Searching.c ****                     now_state->dir = back;
 3286              		.loc 1 1073 58 view .LVU1110
 3287 02bc 0232     		adds	r2, r2, #2
1073:C:/Users/leopi/Documents/vs/S-Reo/MazeLibrary\Searching.c ****                     now_state->dir = back;
 3288              		.loc 1 1073 39 view .LVU1111
 3289 02be 0270     		strb	r2, [r0]
1074:C:/Users/leopi/Documents/vs/S-Reo/MazeLibrary\Searching.c ****                     return next_state;
 3290              		.loc 1 1074 21 is_stmt 1 view .LVU1112
1074:C:/Users/leopi/Documents/vs/S-Reo/MazeLibrary\Searching.c ****                     return next_state;
 3291              		.loc 1 1074 36 is_stmt 0 view .LVU1113
 3292 02c0 0422     		movs	r2, #4
 3293 02c2 DA70     		strb	r2, [r3, #3]
1075:C:/Users/leopi/Documents/vs/S-Reo/MazeLibrary\Searching.c ****                 }
 3294              		.loc 1 1075 21 is_stmt 1 view .LVU1114
1075:C:/Users/leopi/Documents/vs/S-Reo/MazeLibrary\Searching.c ****                 }
 3295              		.loc 1 1075 28 is_stmt 0 view .LVU1115
 3296 02c4 C6E6     		b	.L154
 3297              	.L199:
1086:C:/Users/leopi/Documents/vs/S-Reo/MazeLibrary\Searching.c ****                 {
 3298              		.loc 1 1086 21 discriminator 1 view .LVU1116
 3299 02c6 04F1010C 		add	ip, r4, #1
 3300 02ca AC45     		cmp	ip, r5
 3301 02cc D1D1     		bne	.L177
1088:C:/Users/leopi/Documents/vs/S-Reo/MazeLibrary\Searching.c ****                     next_state->pos.y = now_state->pos.y + 1;
ARM GAS  C:\Users\leopi\AppData\Local\Temp\ccMuwtHQ.s 			page 92


 3302              		.loc 1 1088 21 is_stmt 1 view .LVU1117
1088:C:/Users/leopi/Documents/vs/S-Reo/MazeLibrary\Searching.c ****                     next_state->pos.y = now_state->pos.y + 1;
 3303              		.loc 1 1088 37 is_stmt 0 view .LVU1118
 3304 02ce 0022     		movs	r2, #0
 3305 02d0 8270     		strb	r2, [r0, #2]
1089:C:/Users/leopi/Documents/vs/S-Reo/MazeLibrary\Searching.c ****                     now_state->dir = right;
 3306              		.loc 1 1089 21 is_stmt 1 view .LVU1119
1089:C:/Users/leopi/Documents/vs/S-Reo/MazeLibrary\Searching.c ****                     now_state->dir = right;
 3307              		.loc 1 1089 55 is_stmt 0 view .LVU1120
 3308 02d2 5A78     		ldrb	r2, [r3, #1]	@ zero_extendqisi2
1089:C:/Users/leopi/Documents/vs/S-Reo/MazeLibrary\Searching.c ****                     now_state->dir = right;
 3309              		.loc 1 1089 58 view .LVU1121
 3310 02d4 0132     		adds	r2, r2, #1
1089:C:/Users/leopi/Documents/vs/S-Reo/MazeLibrary\Searching.c ****                     now_state->dir = right;
 3311              		.loc 1 1089 39 view .LVU1122
 3312 02d6 4270     		strb	r2, [r0, #1]
1090:C:/Users/leopi/Documents/vs/S-Reo/MazeLibrary\Searching.c **** //                    ChangeLED(3);
 3313              		.loc 1 1090 21 is_stmt 1 view .LVU1123
1090:C:/Users/leopi/Documents/vs/S-Reo/MazeLibrary\Searching.c **** //                    ChangeLED(3);
 3314              		.loc 1 1090 36 is_stmt 0 view .LVU1124
 3315 02d8 0222     		movs	r2, #2
 3316 02da DA70     		strb	r2, [r3, #3]
1092:C:/Users/leopi/Documents/vs/S-Reo/MazeLibrary\Searching.c ****                 }
 3317              		.loc 1 1092 21 is_stmt 1 view .LVU1125
1092:C:/Users/leopi/Documents/vs/S-Reo/MazeLibrary\Searching.c ****                 }
 3318              		.loc 1 1092 28 is_stmt 0 view .LVU1126
 3319 02dc BAE6     		b	.L154
 3320              	.L200:
1097:C:/Users/leopi/Documents/vs/S-Reo/MazeLibrary\Searching.c ****                 {
 3321              		.loc 1 1097 21 discriminator 1 view .LVU1127
 3322 02de AC42     		cmp	r4, r5
 3323 02e0 C9D1     		bne	.L178
1099:C:/Users/leopi/Documents/vs/S-Reo/MazeLibrary\Searching.c ****                     next_state->pos.y = now_state->pos.y - 1;
 3324              		.loc 1 1099 21 is_stmt 1 view .LVU1128
1099:C:/Users/leopi/Documents/vs/S-Reo/MazeLibrary\Searching.c ****                     next_state->pos.y = now_state->pos.y - 1;
 3325              		.loc 1 1099 37 is_stmt 0 view .LVU1129
 3326 02e2 0422     		movs	r2, #4
 3327 02e4 8270     		strb	r2, [r0, #2]
1100:C:/Users/leopi/Documents/vs/S-Reo/MazeLibrary\Searching.c ****                     now_state->dir = left;
 3328              		.loc 1 1100 21 is_stmt 1 view .LVU1130
1100:C:/Users/leopi/Documents/vs/S-Reo/MazeLibrary\Searching.c ****                     now_state->dir = left;
 3329              		.loc 1 1100 55 is_stmt 0 view .LVU1131
 3330 02e6 5A78     		ldrb	r2, [r3, #1]	@ zero_extendqisi2
1100:C:/Users/leopi/Documents/vs/S-Reo/MazeLibrary\Searching.c ****                     now_state->dir = left;
 3331              		.loc 1 1100 58 view .LVU1132
 3332 02e8 013A     		subs	r2, r2, #1
1100:C:/Users/leopi/Documents/vs/S-Reo/MazeLibrary\Searching.c ****                     now_state->dir = left;
 3333              		.loc 1 1100 39 view .LVU1133
 3334 02ea 4270     		strb	r2, [r0, #1]
1101:C:/Users/leopi/Documents/vs/S-Reo/MazeLibrary\Searching.c ****                     return next_state;
 3335              		.loc 1 1101 21 is_stmt 1 view .LVU1134
1101:C:/Users/leopi/Documents/vs/S-Reo/MazeLibrary\Searching.c ****                     return next_state;
 3336              		.loc 1 1101 36 is_stmt 0 view .LVU1135
 3337 02ec 0622     		movs	r2, #6
 3338 02ee DA70     		strb	r2, [r3, #3]
1102:C:/Users/leopi/Documents/vs/S-Reo/MazeLibrary\Searching.c ****                 }
 3339              		.loc 1 1102 21 is_stmt 1 view .LVU1136
ARM GAS  C:\Users\leopi\AppData\Local\Temp\ccMuwtHQ.s 			page 93


1102:C:/Users/leopi/Documents/vs/S-Reo/MazeLibrary\Searching.c ****                 }
 3340              		.loc 1 1102 28 is_stmt 0 view .LVU1137
 3341 02f0 B0E6     		b	.L154
 3342              	.L201:
1107:C:/Users/leopi/Documents/vs/S-Reo/MazeLibrary\Searching.c ****                 {
 3343              		.loc 1 1107 21 discriminator 1 view .LVU1138
 3344 02f2 AC42     		cmp	r4, r5
 3345 02f4 C1D1     		bne	.L179
1109:C:/Users/leopi/Documents/vs/S-Reo/MazeLibrary\Searching.c ****                     next_state->pos.x = now_state->pos.x + 1;
 3346              		.loc 1 1109 21 is_stmt 1 view .LVU1139
1109:C:/Users/leopi/Documents/vs/S-Reo/MazeLibrary\Searching.c ****                     next_state->pos.x = now_state->pos.x + 1;
 3347              		.loc 1 1109 37 is_stmt 0 view .LVU1140
 3348 02f6 0422     		movs	r2, #4
 3349 02f8 8270     		strb	r2, [r0, #2]
1110:C:/Users/leopi/Documents/vs/S-Reo/MazeLibrary\Searching.c ****                     next_state->pos.y = now_state->pos.y - 1;
 3350              		.loc 1 1110 21 is_stmt 1 view .LVU1141
1110:C:/Users/leopi/Documents/vs/S-Reo/MazeLibrary\Searching.c ****                     next_state->pos.y = now_state->pos.y - 1;
 3351              		.loc 1 1110 55 is_stmt 0 view .LVU1142
 3352 02fa 1A78     		ldrb	r2, [r3]	@ zero_extendqisi2
1110:C:/Users/leopi/Documents/vs/S-Reo/MazeLibrary\Searching.c ****                     next_state->pos.y = now_state->pos.y - 1;
 3353              		.loc 1 1110 58 view .LVU1143
 3354 02fc 0132     		adds	r2, r2, #1
1110:C:/Users/leopi/Documents/vs/S-Reo/MazeLibrary\Searching.c ****                     next_state->pos.y = now_state->pos.y - 1;
 3355              		.loc 1 1110 39 view .LVU1144
 3356 02fe 0270     		strb	r2, [r0]
1111:C:/Users/leopi/Documents/vs/S-Reo/MazeLibrary\Searching.c ****                     now_state->dir = backright;
 3357              		.loc 1 1111 21 is_stmt 1 view .LVU1145
1111:C:/Users/leopi/Documents/vs/S-Reo/MazeLibrary\Searching.c ****                     now_state->dir = backright;
 3358              		.loc 1 1111 55 is_stmt 0 view .LVU1146
 3359 0300 5A78     		ldrb	r2, [r3, #1]	@ zero_extendqisi2
1111:C:/Users/leopi/Documents/vs/S-Reo/MazeLibrary\Searching.c ****                     now_state->dir = backright;
 3360              		.loc 1 1111 58 view .LVU1147
 3361 0302 013A     		subs	r2, r2, #1
1111:C:/Users/leopi/Documents/vs/S-Reo/MazeLibrary\Searching.c ****                     now_state->dir = backright;
 3362              		.loc 1 1111 39 view .LVU1148
 3363 0304 4270     		strb	r2, [r0, #1]
1112:C:/Users/leopi/Documents/vs/S-Reo/MazeLibrary\Searching.c ****                     return next_state;
 3364              		.loc 1 1112 21 is_stmt 1 view .LVU1149
1112:C:/Users/leopi/Documents/vs/S-Reo/MazeLibrary\Searching.c ****                     return next_state;
 3365              		.loc 1 1112 36 is_stmt 0 view .LVU1150
 3366 0306 0322     		movs	r2, #3
 3367 0308 DA70     		strb	r2, [r3, #3]
1113:C:/Users/leopi/Documents/vs/S-Reo/MazeLibrary\Searching.c ****                 }
 3368              		.loc 1 1113 21 is_stmt 1 view .LVU1151
1113:C:/Users/leopi/Documents/vs/S-Reo/MazeLibrary\Searching.c ****                 }
 3369              		.loc 1 1113 28 is_stmt 0 view .LVU1152
 3370 030a A3E6     		b	.L154
 3371              		.cfi_endproc
 3372              	.LFE21:
 3374              		.section	.text.getNextDirection,"ax",%progbits
 3375              		.align	1
 3376              		.global	getNextDirection
 3377              		.syntax unified
 3378              		.thumb
 3379              		.thumb_func
 3381              	getNextDirection:
 3382              	.LVL249:
ARM GAS  C:\Users\leopi\AppData\Local\Temp\ccMuwtHQ.s 			page 94


 3383              	.LFB17:
 221:C:/Users/leopi/Documents/vs/S-Reo/MazeLibrary\Searching.c **** 	Mouse->next.node = getNextNode(maze, Mouse->now.car, Mouse->now.node, mask); // 次のノードを
 3384              		.loc 1 221 1 is_stmt 1 view -0
 3385              		.cfi_startproc
 3386              		@ args = 0, pretend = 0, frame = 0
 3387              		@ frame_needed = 0, uses_anonymous_args = 0
 221:C:/Users/leopi/Documents/vs/S-Reo/MazeLibrary\Searching.c **** 	Mouse->next.node = getNextNode(maze, Mouse->now.car, Mouse->now.node, mask); // 次のノードを
 3388              		.loc 1 221 1 is_stmt 0 view .LVU1154
 3389 0000 10B5     		push	{r4, lr}
 3390              	.LCFI23:
 3391              		.cfi_def_cfa_offset 8
 3392              		.cfi_offset 4, -8
 3393              		.cfi_offset 14, -4
 3394 0002 0C46     		mov	r4, r1
 222:C:/Users/leopi/Documents/vs/S-Reo/MazeLibrary\Searching.c **** 	
 3395              		.loc 1 222 2 is_stmt 1 view .LVU1155
 222:C:/Users/leopi/Documents/vs/S-Reo/MazeLibrary\Searching.c **** 	
 3396              		.loc 1 222 21 is_stmt 0 view .LVU1156
 3397 0004 CA68     		ldr	r2, [r1, #12]
 3398              	.LVL250:
 222:C:/Users/leopi/Documents/vs/S-Reo/MazeLibrary\Searching.c **** 	
 3399              		.loc 1 222 21 view .LVU1157
 3400 0006 8979     		ldrb	r1, [r1, #6]	@ zero_extendqisi2
 3401              	.LVL251:
 222:C:/Users/leopi/Documents/vs/S-Reo/MazeLibrary\Searching.c **** 	
 3402              		.loc 1 222 21 view .LVU1158
 3403 0008 FFF7FEFF 		bl	getNextNode
 3404              	.LVL252:
 222:C:/Users/leopi/Documents/vs/S-Reo/MazeLibrary\Searching.c **** 	
 3405              		.loc 1 222 21 view .LVU1159
 3406 000c 0246     		mov	r2, r0
 222:C:/Users/leopi/Documents/vs/S-Reo/MazeLibrary\Searching.c **** 	
 3407              		.loc 1 222 19 view .LVU1160
 3408 000e A061     		str	r0, [r4, #24]
 224:C:/Users/leopi/Documents/vs/S-Reo/MazeLibrary\Searching.c **** }
 3409              		.loc 1 224 2 is_stmt 1 view .LVU1161
 3410 0010 04F11001 		add	r1, r4, #16
 3411 0014 201D     		adds	r0, r4, #4
 3412 0016 FFF7FEFF 		bl	getNextState
 3413              	.LVL253:
 225:C:/Users/leopi/Documents/vs/S-Reo/MazeLibrary\Searching.c **** 
 3414              		.loc 1 225 1 is_stmt 0 view .LVU1162
 3415 001a 10BD     		pop	{r4, pc}
 225:C:/Users/leopi/Documents/vs/S-Reo/MazeLibrary\Searching.c **** 
 3416              		.loc 1 225 1 view .LVU1163
 3417              		.cfi_endproc
 3418              	.LFE17:
 3420              		.section	.text.getWallNow,"ax",%progbits
 3421              		.align	1
 3422              		.global	getWallNow
 3423              		.syntax unified
 3424              		.thumb
 3425              		.thumb_func
 3427              	getWallNow:
 3428              	.LVL254:
 3429              	.LFB22:
1136:C:/Users/leopi/Documents/vs/S-Reo/MazeLibrary\Searching.c **** 
ARM GAS  C:\Users\leopi\AppData\Local\Temp\ccMuwtHQ.s 			page 95


1137:C:/Users/leopi/Documents/vs/S-Reo/MazeLibrary\Searching.c **** //引数のwall_stが前右左
1138:C:/Users/leopi/Documents/vs/S-Reo/MazeLibrary\Searching.c **** _Bool getWallNow(state *st, wall_state *wall_st)//wall_existence *wall[4])(
1139:C:/Users/leopi/Documents/vs/S-Reo/MazeLibrary\Searching.c **** {
 3430              		.loc 1 1139 1 is_stmt 1 view -0
 3431              		.cfi_startproc
 3432              		@ args = 0, pretend = 0, frame = 0
 3433              		@ frame_needed = 0, uses_anonymous_args = 0
 3434              		@ link register save eliminated.
1140:C:/Users/leopi/Documents/vs/S-Reo/MazeLibrary\Searching.c ****     switch (st->car)
 3435              		.loc 1 1140 5 view .LVU1165
 3436              		.loc 1 1140 15 is_stmt 0 view .LVU1166
 3437 0000 8378     		ldrb	r3, [r0, #2]	@ zero_extendqisi2
 3438              		.loc 1 1140 5 view .LVU1167
 3439 0002 062B     		cmp	r3, #6
 3440 0004 5DD8     		bhi	.L211
 3441 0006 DFE803F0 		tbb	[pc, r3]
 3442              	.L207:
 3443 000a 04       		.byte	(.L210-.L207)/2
 3444 000b 5C       		.byte	(.L211-.L207)/2
 3445 000c 1A       		.byte	(.L209-.L207)/2
 3446 000d 5C       		.byte	(.L211-.L207)/2
 3447 000e 30       		.byte	(.L208-.L207)/2
 3448 000f 5C       		.byte	(.L211-.L207)/2
 3449 0010 46       		.byte	(.L206-.L207)/2
 3450 0011 00       		.p2align 1
 3451              	.L210:
1141:C:/Users/leopi/Documents/vs/S-Reo/MazeLibrary\Searching.c ****     {
1142:C:/Users/leopi/Documents/vs/S-Reo/MazeLibrary\Searching.c ****     case north:
1143:C:/Users/leopi/Documents/vs/S-Reo/MazeLibrary\Searching.c ****         st->wall.north = wall_st[0];    //北
 3452              		.loc 1 1143 9 is_stmt 1 view .LVU1168
 3453              		.loc 1 1143 33 is_stmt 0 view .LVU1169
 3454 0012 0A78     		ldrb	r2, [r1]	@ zero_extendqisi2
 3455              		.loc 1 1143 24 view .LVU1170
 3456 0014 0379     		ldrb	r3, [r0, #4]	@ zero_extendqisi2
 3457 0016 62F30103 		bfi	r3, r2, #0, #2
 3458 001a 0371     		strb	r3, [r0, #4]
1144:C:/Users/leopi/Documents/vs/S-Reo/MazeLibrary\Searching.c ****         st->wall.east = wall_st[1];     //東
 3459              		.loc 1 1144 9 is_stmt 1 view .LVU1171
 3460              		.loc 1 1144 32 is_stmt 0 view .LVU1172
 3461 001c 4A78     		ldrb	r2, [r1, #1]	@ zero_extendqisi2
 3462              		.loc 1 1144 23 view .LVU1173
 3463 001e DBB2     		uxtb	r3, r3
 3464 0020 62F38303 		bfi	r3, r2, #2, #2
 3465 0024 0371     		strb	r3, [r0, #4]
1145:C:/Users/leopi/Documents/vs/S-Reo/MazeLibrary\Searching.c ****         st->wall.south = wall_st[2];    //南
 3466              		.loc 1 1145 9 is_stmt 1 view .LVU1174
 3467              		.loc 1 1145 33 is_stmt 0 view .LVU1175
 3468 0026 8A78     		ldrb	r2, [r1, #2]	@ zero_extendqisi2
 3469              		.loc 1 1145 24 view .LVU1176
 3470 0028 DBB2     		uxtb	r3, r3
 3471 002a 62F30513 		bfi	r3, r2, #4, #2
 3472 002e 0371     		strb	r3, [r0, #4]
1146:C:/Users/leopi/Documents/vs/S-Reo/MazeLibrary\Searching.c ****         st->wall.west = wall_st[3];     //西
 3473              		.loc 1 1146 9 is_stmt 1 view .LVU1177
 3474              		.loc 1 1146 32 is_stmt 0 view .LVU1178
 3475 0030 CA78     		ldrb	r2, [r1, #3]	@ zero_extendqisi2
 3476              		.loc 1 1146 23 view .LVU1179
ARM GAS  C:\Users\leopi\AppData\Local\Temp\ccMuwtHQ.s 			page 96


 3477 0032 DBB2     		uxtb	r3, r3
 3478 0034 62F38713 		bfi	r3, r2, #6, #2
 3479 0038 0371     		strb	r3, [r0, #4]
1147:C:/Users/leopi/Documents/vs/S-Reo/MazeLibrary\Searching.c ****         break;
 3480              		.loc 1 1147 9 is_stmt 1 view .LVU1180
1148:C:/Users/leopi/Documents/vs/S-Reo/MazeLibrary\Searching.c ****     case east:
1149:C:/Users/leopi/Documents/vs/S-Reo/MazeLibrary\Searching.c ****         st->wall.north = wall_st[3];    //北
1150:C:/Users/leopi/Documents/vs/S-Reo/MazeLibrary\Searching.c ****         st->wall.east = wall_st[0];     //東
1151:C:/Users/leopi/Documents/vs/S-Reo/MazeLibrary\Searching.c ****         st->wall.south = wall_st[1];    //南
1152:C:/Users/leopi/Documents/vs/S-Reo/MazeLibrary\Searching.c ****         st->wall.west = wall_st[2];     //西
1153:C:/Users/leopi/Documents/vs/S-Reo/MazeLibrary\Searching.c ****         break;
1154:C:/Users/leopi/Documents/vs/S-Reo/MazeLibrary\Searching.c ****     case south:
1155:C:/Users/leopi/Documents/vs/S-Reo/MazeLibrary\Searching.c ****         st->wall.north = wall_st[2];    //北
1156:C:/Users/leopi/Documents/vs/S-Reo/MazeLibrary\Searching.c ****         st->wall.east = wall_st[3];     //東
1157:C:/Users/leopi/Documents/vs/S-Reo/MazeLibrary\Searching.c ****         st->wall.south = wall_st[0];    //南
1158:C:/Users/leopi/Documents/vs/S-Reo/MazeLibrary\Searching.c ****         st->wall.west = wall_st[1];     //西
1159:C:/Users/leopi/Documents/vs/S-Reo/MazeLibrary\Searching.c ****         break;
1160:C:/Users/leopi/Documents/vs/S-Reo/MazeLibrary\Searching.c ****     case west:
1161:C:/Users/leopi/Documents/vs/S-Reo/MazeLibrary\Searching.c ****         st->wall.north = wall_st[1];    //北
1162:C:/Users/leopi/Documents/vs/S-Reo/MazeLibrary\Searching.c ****         st->wall.east = wall_st[2];     //東
1163:C:/Users/leopi/Documents/vs/S-Reo/MazeLibrary\Searching.c ****         st->wall.south = wall_st[3];    //南
1164:C:/Users/leopi/Documents/vs/S-Reo/MazeLibrary\Searching.c ****         st->wall.west = wall_st[0];     //西
1165:C:/Users/leopi/Documents/vs/S-Reo/MazeLibrary\Searching.c ****         break;
1166:C:/Users/leopi/Documents/vs/S-Reo/MazeLibrary\Searching.c ****     default:
1167:C:/Users/leopi/Documents/vs/S-Reo/MazeLibrary\Searching.c ****         //万が一斜めの方角を向いているときに呼び出してしまったら、
1168:C:/Users/leopi/Documents/vs/S-Reo/MazeLibrary\Searching.c ****         return false;
1169:C:/Users/leopi/Documents/vs/S-Reo/MazeLibrary\Searching.c ****         break;
1170:C:/Users/leopi/Documents/vs/S-Reo/MazeLibrary\Searching.c ****     }
1171:C:/Users/leopi/Documents/vs/S-Reo/MazeLibrary\Searching.c ****     return true;
 3481              		.loc 1 1171 12 is_stmt 0 view .LVU1181
 3482 003a 0120     		movs	r0, #1
 3483              	.LVL255:
1147:C:/Users/leopi/Documents/vs/S-Reo/MazeLibrary\Searching.c ****         break;
 3484              		.loc 1 1147 9 view .LVU1182
 3485 003c 7047     		bx	lr
 3486              	.LVL256:
 3487              	.L209:
1149:C:/Users/leopi/Documents/vs/S-Reo/MazeLibrary\Searching.c ****         st->wall.east = wall_st[0];     //東
 3488              		.loc 1 1149 9 is_stmt 1 view .LVU1183
1149:C:/Users/leopi/Documents/vs/S-Reo/MazeLibrary\Searching.c ****         st->wall.east = wall_st[0];     //東
 3489              		.loc 1 1149 33 is_stmt 0 view .LVU1184
 3490 003e CA78     		ldrb	r2, [r1, #3]	@ zero_extendqisi2
1149:C:/Users/leopi/Documents/vs/S-Reo/MazeLibrary\Searching.c ****         st->wall.east = wall_st[0];     //東
 3491              		.loc 1 1149 24 view .LVU1185
 3492 0040 0379     		ldrb	r3, [r0, #4]	@ zero_extendqisi2
 3493 0042 62F30103 		bfi	r3, r2, #0, #2
 3494 0046 0371     		strb	r3, [r0, #4]
1150:C:/Users/leopi/Documents/vs/S-Reo/MazeLibrary\Searching.c ****         st->wall.south = wall_st[1];    //南
 3495              		.loc 1 1150 9 is_stmt 1 view .LVU1186
1150:C:/Users/leopi/Documents/vs/S-Reo/MazeLibrary\Searching.c ****         st->wall.south = wall_st[1];    //南
 3496              		.loc 1 1150 32 is_stmt 0 view .LVU1187
 3497 0048 0A78     		ldrb	r2, [r1]	@ zero_extendqisi2
1150:C:/Users/leopi/Documents/vs/S-Reo/MazeLibrary\Searching.c ****         st->wall.south = wall_st[1];    //南
 3498              		.loc 1 1150 23 view .LVU1188
 3499 004a DBB2     		uxtb	r3, r3
 3500 004c 62F38303 		bfi	r3, r2, #2, #2
 3501 0050 0371     		strb	r3, [r0, #4]
ARM GAS  C:\Users\leopi\AppData\Local\Temp\ccMuwtHQ.s 			page 97


1151:C:/Users/leopi/Documents/vs/S-Reo/MazeLibrary\Searching.c ****         st->wall.west = wall_st[2];     //西
 3502              		.loc 1 1151 9 is_stmt 1 view .LVU1189
1151:C:/Users/leopi/Documents/vs/S-Reo/MazeLibrary\Searching.c ****         st->wall.west = wall_st[2];     //西
 3503              		.loc 1 1151 33 is_stmt 0 view .LVU1190
 3504 0052 4A78     		ldrb	r2, [r1, #1]	@ zero_extendqisi2
1151:C:/Users/leopi/Documents/vs/S-Reo/MazeLibrary\Searching.c ****         st->wall.west = wall_st[2];     //西
 3505              		.loc 1 1151 24 view .LVU1191
 3506 0054 DBB2     		uxtb	r3, r3
 3507 0056 62F30513 		bfi	r3, r2, #4, #2
 3508 005a 0371     		strb	r3, [r0, #4]
1152:C:/Users/leopi/Documents/vs/S-Reo/MazeLibrary\Searching.c ****         break;
 3509              		.loc 1 1152 9 is_stmt 1 view .LVU1192
1152:C:/Users/leopi/Documents/vs/S-Reo/MazeLibrary\Searching.c ****         break;
 3510              		.loc 1 1152 32 is_stmt 0 view .LVU1193
 3511 005c 8A78     		ldrb	r2, [r1, #2]	@ zero_extendqisi2
1152:C:/Users/leopi/Documents/vs/S-Reo/MazeLibrary\Searching.c ****         break;
 3512              		.loc 1 1152 23 view .LVU1194
 3513 005e DBB2     		uxtb	r3, r3
 3514 0060 62F38713 		bfi	r3, r2, #6, #2
 3515 0064 0371     		strb	r3, [r0, #4]
1153:C:/Users/leopi/Documents/vs/S-Reo/MazeLibrary\Searching.c ****     case south:
 3516              		.loc 1 1153 9 is_stmt 1 view .LVU1195
 3517              		.loc 1 1171 12 is_stmt 0 view .LVU1196
 3518 0066 0120     		movs	r0, #1
 3519              	.LVL257:
1153:C:/Users/leopi/Documents/vs/S-Reo/MazeLibrary\Searching.c ****     case south:
 3520              		.loc 1 1153 9 view .LVU1197
 3521 0068 7047     		bx	lr
 3522              	.LVL258:
 3523              	.L208:
1155:C:/Users/leopi/Documents/vs/S-Reo/MazeLibrary\Searching.c ****         st->wall.east = wall_st[3];     //東
 3524              		.loc 1 1155 9 is_stmt 1 view .LVU1198
1155:C:/Users/leopi/Documents/vs/S-Reo/MazeLibrary\Searching.c ****         st->wall.east = wall_st[3];     //東
 3525              		.loc 1 1155 33 is_stmt 0 view .LVU1199
 3526 006a 8A78     		ldrb	r2, [r1, #2]	@ zero_extendqisi2
1155:C:/Users/leopi/Documents/vs/S-Reo/MazeLibrary\Searching.c ****         st->wall.east = wall_st[3];     //東
 3527              		.loc 1 1155 24 view .LVU1200
 3528 006c 0379     		ldrb	r3, [r0, #4]	@ zero_extendqisi2
 3529 006e 62F30103 		bfi	r3, r2, #0, #2
 3530 0072 0371     		strb	r3, [r0, #4]
1156:C:/Users/leopi/Documents/vs/S-Reo/MazeLibrary\Searching.c ****         st->wall.south = wall_st[0];    //南
 3531              		.loc 1 1156 9 is_stmt 1 view .LVU1201
1156:C:/Users/leopi/Documents/vs/S-Reo/MazeLibrary\Searching.c ****         st->wall.south = wall_st[0];    //南
 3532              		.loc 1 1156 32 is_stmt 0 view .LVU1202
 3533 0074 CA78     		ldrb	r2, [r1, #3]	@ zero_extendqisi2
1156:C:/Users/leopi/Documents/vs/S-Reo/MazeLibrary\Searching.c ****         st->wall.south = wall_st[0];    //南
 3534              		.loc 1 1156 23 view .LVU1203
 3535 0076 DBB2     		uxtb	r3, r3
 3536 0078 62F38303 		bfi	r3, r2, #2, #2
 3537 007c 0371     		strb	r3, [r0, #4]
1157:C:/Users/leopi/Documents/vs/S-Reo/MazeLibrary\Searching.c ****         st->wall.west = wall_st[1];     //西
 3538              		.loc 1 1157 9 is_stmt 1 view .LVU1204
1157:C:/Users/leopi/Documents/vs/S-Reo/MazeLibrary\Searching.c ****         st->wall.west = wall_st[1];     //西
 3539              		.loc 1 1157 33 is_stmt 0 view .LVU1205
 3540 007e 0A78     		ldrb	r2, [r1]	@ zero_extendqisi2
1157:C:/Users/leopi/Documents/vs/S-Reo/MazeLibrary\Searching.c ****         st->wall.west = wall_st[1];     //西
 3541              		.loc 1 1157 24 view .LVU1206
ARM GAS  C:\Users\leopi\AppData\Local\Temp\ccMuwtHQ.s 			page 98


 3542 0080 DBB2     		uxtb	r3, r3
 3543 0082 62F30513 		bfi	r3, r2, #4, #2
 3544 0086 0371     		strb	r3, [r0, #4]
1158:C:/Users/leopi/Documents/vs/S-Reo/MazeLibrary\Searching.c ****         break;
 3545              		.loc 1 1158 9 is_stmt 1 view .LVU1207
1158:C:/Users/leopi/Documents/vs/S-Reo/MazeLibrary\Searching.c ****         break;
 3546              		.loc 1 1158 32 is_stmt 0 view .LVU1208
 3547 0088 4A78     		ldrb	r2, [r1, #1]	@ zero_extendqisi2
1158:C:/Users/leopi/Documents/vs/S-Reo/MazeLibrary\Searching.c ****         break;
 3548              		.loc 1 1158 23 view .LVU1209
 3549 008a DBB2     		uxtb	r3, r3
 3550 008c 62F38713 		bfi	r3, r2, #6, #2
 3551 0090 0371     		strb	r3, [r0, #4]
1159:C:/Users/leopi/Documents/vs/S-Reo/MazeLibrary\Searching.c ****     case west:
 3552              		.loc 1 1159 9 is_stmt 1 view .LVU1210
 3553              		.loc 1 1171 12 is_stmt 0 view .LVU1211
 3554 0092 0120     		movs	r0, #1
 3555              	.LVL259:
1159:C:/Users/leopi/Documents/vs/S-Reo/MazeLibrary\Searching.c ****     case west:
 3556              		.loc 1 1159 9 view .LVU1212
 3557 0094 7047     		bx	lr
 3558              	.LVL260:
 3559              	.L206:
1161:C:/Users/leopi/Documents/vs/S-Reo/MazeLibrary\Searching.c ****         st->wall.east = wall_st[2];     //東
 3560              		.loc 1 1161 9 is_stmt 1 view .LVU1213
1161:C:/Users/leopi/Documents/vs/S-Reo/MazeLibrary\Searching.c ****         st->wall.east = wall_st[2];     //東
 3561              		.loc 1 1161 33 is_stmt 0 view .LVU1214
 3562 0096 4A78     		ldrb	r2, [r1, #1]	@ zero_extendqisi2
1161:C:/Users/leopi/Documents/vs/S-Reo/MazeLibrary\Searching.c ****         st->wall.east = wall_st[2];     //東
 3563              		.loc 1 1161 24 view .LVU1215
 3564 0098 0379     		ldrb	r3, [r0, #4]	@ zero_extendqisi2
 3565 009a 62F30103 		bfi	r3, r2, #0, #2
 3566 009e 0371     		strb	r3, [r0, #4]
1162:C:/Users/leopi/Documents/vs/S-Reo/MazeLibrary\Searching.c ****         st->wall.south = wall_st[3];    //南
 3567              		.loc 1 1162 9 is_stmt 1 view .LVU1216
1162:C:/Users/leopi/Documents/vs/S-Reo/MazeLibrary\Searching.c ****         st->wall.south = wall_st[3];    //南
 3568              		.loc 1 1162 32 is_stmt 0 view .LVU1217
 3569 00a0 8A78     		ldrb	r2, [r1, #2]	@ zero_extendqisi2
1162:C:/Users/leopi/Documents/vs/S-Reo/MazeLibrary\Searching.c ****         st->wall.south = wall_st[3];    //南
 3570              		.loc 1 1162 23 view .LVU1218
 3571 00a2 DBB2     		uxtb	r3, r3
 3572 00a4 62F38303 		bfi	r3, r2, #2, #2
 3573 00a8 0371     		strb	r3, [r0, #4]
1163:C:/Users/leopi/Documents/vs/S-Reo/MazeLibrary\Searching.c ****         st->wall.west = wall_st[0];     //西
 3574              		.loc 1 1163 9 is_stmt 1 view .LVU1219
1163:C:/Users/leopi/Documents/vs/S-Reo/MazeLibrary\Searching.c ****         st->wall.west = wall_st[0];     //西
 3575              		.loc 1 1163 33 is_stmt 0 view .LVU1220
 3576 00aa CA78     		ldrb	r2, [r1, #3]	@ zero_extendqisi2
1163:C:/Users/leopi/Documents/vs/S-Reo/MazeLibrary\Searching.c ****         st->wall.west = wall_st[0];     //西
 3577              		.loc 1 1163 24 view .LVU1221
 3578 00ac DBB2     		uxtb	r3, r3
 3579 00ae 62F30513 		bfi	r3, r2, #4, #2
 3580 00b2 0371     		strb	r3, [r0, #4]
1164:C:/Users/leopi/Documents/vs/S-Reo/MazeLibrary\Searching.c ****         break;
 3581              		.loc 1 1164 9 is_stmt 1 view .LVU1222
1164:C:/Users/leopi/Documents/vs/S-Reo/MazeLibrary\Searching.c ****         break;
 3582              		.loc 1 1164 32 is_stmt 0 view .LVU1223
ARM GAS  C:\Users\leopi\AppData\Local\Temp\ccMuwtHQ.s 			page 99


 3583 00b4 0A78     		ldrb	r2, [r1]	@ zero_extendqisi2
1164:C:/Users/leopi/Documents/vs/S-Reo/MazeLibrary\Searching.c ****         break;
 3584              		.loc 1 1164 23 view .LVU1224
 3585 00b6 DBB2     		uxtb	r3, r3
 3586 00b8 62F38713 		bfi	r3, r2, #6, #2
 3587 00bc 0371     		strb	r3, [r0, #4]
1165:C:/Users/leopi/Documents/vs/S-Reo/MazeLibrary\Searching.c ****     default:
 3588              		.loc 1 1165 9 is_stmt 1 view .LVU1225
 3589              		.loc 1 1171 12 is_stmt 0 view .LVU1226
 3590 00be 0120     		movs	r0, #1
 3591              	.LVL261:
1165:C:/Users/leopi/Documents/vs/S-Reo/MazeLibrary\Searching.c ****     default:
 3592              		.loc 1 1165 9 view .LVU1227
 3593 00c0 7047     		bx	lr
 3594              	.LVL262:
 3595              	.L211:
1140:C:/Users/leopi/Documents/vs/S-Reo/MazeLibrary\Searching.c ****     {
 3596              		.loc 1 1140 5 view .LVU1228
 3597 00c2 0020     		movs	r0, #0
 3598              	.LVL263:
1172:C:/Users/leopi/Documents/vs/S-Reo/MazeLibrary\Searching.c **** }
 3599              		.loc 1 1172 1 view .LVU1229
 3600 00c4 7047     		bx	lr
 3601              		.cfi_endproc
 3602              	.LFE22:
 3604              		.section	.text.getNowWallVirtual,"ax",%progbits
 3605              		.align	1
 3606              		.global	getNowWallVirtual
 3607              		.syntax unified
 3608              		.thumb
 3609              		.thumb_func
 3611              	getNowWallVirtual:
 3612              	.LVL264:
 3613              	.LFB23:
1173:C:/Users/leopi/Documents/vs/S-Reo/MazeLibrary\Searching.c **** //座標から壁の有無を取得
1174:C:/Users/leopi/Documents/vs/S-Reo/MazeLibrary\Searching.c **** void getNowWallVirtual(maze_node *maze, profile *mouse, uint8_t now_x, uint8_t now_y)
1175:C:/Users/leopi/Documents/vs/S-Reo/MazeLibrary\Searching.c **** {
 3614              		.loc 1 1175 1 is_stmt 1 view -0
 3615              		.cfi_startproc
 3616              		@ args = 0, pretend = 0, frame = 0
 3617              		@ frame_needed = 0, uses_anonymous_args = 0
 3618              		.loc 1 1175 1 is_stmt 0 view .LVU1231
 3619 0000 10B5     		push	{r4, lr}
 3620              	.LCFI24:
 3621              		.cfi_def_cfa_offset 8
 3622              		.cfi_offset 4, -8
 3623              		.cfi_offset 14, -4
1176:C:/Users/leopi/Documents/vs/S-Reo/MazeLibrary\Searching.c **** 	mouse->now.wall.north = maze->RawNode[now_x][now_y+1].existence;//北
 3624              		.loc 1 1176 2 is_stmt 1 view .LVU1232
 3625              		.loc 1 1176 52 is_stmt 0 view .LVU1233
 3626 0002 03F1010C 		add	ip, r3, #1
 3627              		.loc 1 1176 55 view .LVU1234
 3628 0006 02EB021E 		add	lr, r2, r2, lsl #4
 3629 000a F444     		add	ip, ip, lr
 3630 000c 10F83C40 		ldrb	r4, [r0, ip, lsl #3]	@ zero_extendqisi2
 3631              		.loc 1 1176 24 view .LVU1235
 3632 0010 91F808C0 		ldrb	ip, [r1, #8]	@ zero_extendqisi2
ARM GAS  C:\Users\leopi\AppData\Local\Temp\ccMuwtHQ.s 			page 100


 3633 0014 64F3010C 		bfi	ip, r4, #0, #2
 3634 0018 81F808C0 		strb	ip, [r1, #8]
1177:C:/Users/leopi/Documents/vs/S-Reo/MazeLibrary\Searching.c **** 	mouse->now.wall.east = maze->ColumnNode[now_x+1][now_y].existence;//東
 3635              		.loc 1 1177 2 is_stmt 1 view .LVU1236
 3636              		.loc 1 1177 47 is_stmt 0 view .LVU1237
 3637 001c 02F1010C 		add	ip, r2, #1
 3638              		.loc 1 1177 57 view .LVU1238
 3639 0020 03EB0C1C 		add	ip, r3, ip, lsl #4
 3640 0024 0CF5887C 		add	ip, ip, #272
 3641 0028 10F83C40 		ldrb	r4, [r0, ip, lsl #3]	@ zero_extendqisi2
 3642              		.loc 1 1177 23 view .LVU1239
 3643 002c 91F808C0 		ldrb	ip, [r1, #8]	@ zero_extendqisi2
 3644 0030 64F3830C 		bfi	ip, r4, #2, #2
 3645 0034 81F808C0 		strb	ip, [r1, #8]
1178:C:/Users/leopi/Documents/vs/S-Reo/MazeLibrary\Searching.c **** 	mouse->now.wall.south = maze->RawNode[now_x][now_y].existence;//南
 3646              		.loc 1 1178 2 is_stmt 1 view .LVU1240
 3647              		.loc 1 1178 53 is_stmt 0 view .LVU1241
 3648 0038 9E44     		add	lr, lr, r3
 3649 003a 10F83EE0 		ldrb	lr, [r0, lr, lsl #3]	@ zero_extendqisi2
 3650              		.loc 1 1178 24 view .LVU1242
 3651 003e 5FFA8CFC 		uxtb	ip, ip
 3652 0042 6EF3051C 		bfi	ip, lr, #4, #2
 3653 0046 81F808C0 		strb	ip, [r1, #8]
1179:C:/Users/leopi/Documents/vs/S-Reo/MazeLibrary\Searching.c **** 	mouse->now.wall.west = maze->ColumnNode[now_x][now_y].existence;//西
 3654              		.loc 1 1179 2 is_stmt 1 view .LVU1243
 3655              		.loc 1 1179 55 is_stmt 0 view .LVU1244
 3656 004a 03EB0213 		add	r3, r3, r2, lsl #4
 3657              	.LVL265:
 3658              		.loc 1 1179 55 view .LVU1245
 3659 004e 03F58873 		add	r3, r3, #272
 3660 0052 10F83320 		ldrb	r2, [r0, r3, lsl #3]	@ zero_extendqisi2
 3661              	.LVL266:
 3662              		.loc 1 1179 23 view .LVU1246
 3663 0056 5FFA8CF3 		uxtb	r3, ip
 3664 005a 62F38713 		bfi	r3, r2, #6, #2
 3665 005e 0B72     		strb	r3, [r1, #8]
1180:C:/Users/leopi/Documents/vs/S-Reo/MazeLibrary\Searching.c **** }
 3666              		.loc 1 1180 1 view .LVU1247
 3667 0060 10BD     		pop	{r4, pc}
 3668              		.cfi_endproc
 3669              	.LFE23:
 3671              		.section	.text.getNextWallVirtual,"ax",%progbits
 3672              		.align	1
 3673              		.global	getNextWallVirtual
 3674              		.syntax unified
 3675              		.thumb
 3676              		.thumb_func
 3678              	getNextWallVirtual:
 3679              	.LVL267:
 3680              	.LFB24:
1181:C:/Users/leopi/Documents/vs/S-Reo/MazeLibrary\Searching.c **** void getNextWallVirtual(maze_node *maze, profile *mouse, uint8_t next_x, uint8_t next_y)
1182:C:/Users/leopi/Documents/vs/S-Reo/MazeLibrary\Searching.c **** {
 3681              		.loc 1 1182 1 is_stmt 1 view -0
 3682              		.cfi_startproc
 3683              		@ args = 0, pretend = 0, frame = 0
 3684              		@ frame_needed = 0, uses_anonymous_args = 0
 3685              		.loc 1 1182 1 is_stmt 0 view .LVU1249
ARM GAS  C:\Users\leopi\AppData\Local\Temp\ccMuwtHQ.s 			page 101


 3686 0000 10B5     		push	{r4, lr}
 3687              	.LCFI25:
 3688              		.cfi_def_cfa_offset 8
 3689              		.cfi_offset 4, -8
 3690              		.cfi_offset 14, -4
1183:C:/Users/leopi/Documents/vs/S-Reo/MazeLibrary\Searching.c **** 	mouse->next.wall.north = maze->RawNode[next_x][next_y+1].existence;//北
 3691              		.loc 1 1183 2 is_stmt 1 view .LVU1250
 3692              		.loc 1 1183 55 is_stmt 0 view .LVU1251
 3693 0002 03F1010C 		add	ip, r3, #1
 3694              		.loc 1 1183 58 view .LVU1252
 3695 0006 02EB021E 		add	lr, r2, r2, lsl #4
 3696 000a F444     		add	ip, ip, lr
 3697 000c 10F83C40 		ldrb	r4, [r0, ip, lsl #3]	@ zero_extendqisi2
 3698              		.loc 1 1183 25 view .LVU1253
 3699 0010 91F814C0 		ldrb	ip, [r1, #20]	@ zero_extendqisi2
 3700 0014 64F3010C 		bfi	ip, r4, #0, #2
 3701 0018 81F814C0 		strb	ip, [r1, #20]
1184:C:/Users/leopi/Documents/vs/S-Reo/MazeLibrary\Searching.c **** 	mouse->next.wall.east = maze->ColumnNode[next_x+1][next_y].existence;//東
 3702              		.loc 1 1184 2 is_stmt 1 view .LVU1254
 3703              		.loc 1 1184 49 is_stmt 0 view .LVU1255
 3704 001c 02F1010C 		add	ip, r2, #1
 3705              		.loc 1 1184 60 view .LVU1256
 3706 0020 03EB0C1C 		add	ip, r3, ip, lsl #4
 3707 0024 0CF5887C 		add	ip, ip, #272
 3708 0028 10F83C40 		ldrb	r4, [r0, ip, lsl #3]	@ zero_extendqisi2
 3709              		.loc 1 1184 24 view .LVU1257
 3710 002c 91F814C0 		ldrb	ip, [r1, #20]	@ zero_extendqisi2
 3711 0030 64F3830C 		bfi	ip, r4, #2, #2
 3712 0034 81F814C0 		strb	ip, [r1, #20]
1185:C:/Users/leopi/Documents/vs/S-Reo/MazeLibrary\Searching.c **** 	mouse->next.wall.south = maze->RawNode[next_x][next_y].existence;//南
 3713              		.loc 1 1185 2 is_stmt 1 view .LVU1258
 3714              		.loc 1 1185 56 is_stmt 0 view .LVU1259
 3715 0038 9E44     		add	lr, lr, r3
 3716 003a 10F83EE0 		ldrb	lr, [r0, lr, lsl #3]	@ zero_extendqisi2
 3717              		.loc 1 1185 25 view .LVU1260
 3718 003e 5FFA8CFC 		uxtb	ip, ip
 3719 0042 6EF3051C 		bfi	ip, lr, #4, #2
 3720 0046 81F814C0 		strb	ip, [r1, #20]
1186:C:/Users/leopi/Documents/vs/S-Reo/MazeLibrary\Searching.c **** 	mouse->next.wall.west = maze->ColumnNode[next_x][next_y].existence;//西
 3721              		.loc 1 1186 2 is_stmt 1 view .LVU1261
 3722              		.loc 1 1186 58 is_stmt 0 view .LVU1262
 3723 004a 03EB0213 		add	r3, r3, r2, lsl #4
 3724              	.LVL268:
 3725              		.loc 1 1186 58 view .LVU1263
 3726 004e 03F58873 		add	r3, r3, #272
 3727 0052 10F83320 		ldrb	r2, [r0, r3, lsl #3]	@ zero_extendqisi2
 3728              	.LVL269:
 3729              		.loc 1 1186 24 view .LVU1264
 3730 0056 5FFA8CF3 		uxtb	r3, ip
 3731 005a 62F38713 		bfi	r3, r2, #6, #2
 3732 005e 0B75     		strb	r3, [r1, #20]
1187:C:/Users/leopi/Documents/vs/S-Reo/MazeLibrary\Searching.c **** }
 3733              		.loc 1 1187 1 view .LVU1265
 3734 0060 10BD     		pop	{r4, pc}
 3735              		.cfi_endproc
 3736              	.LFE24:
 3738              		.section	.text.initSearchData,"ax",%progbits
ARM GAS  C:\Users\leopi\AppData\Local\Temp\ccMuwtHQ.s 			page 102


 3739              		.align	1
 3740              		.global	initSearchData
 3741              		.syntax unified
 3742              		.thumb
 3743              		.thumb_func
 3745              	initSearchData:
 3746              	.LVL270:
 3747              	.LFB25:
1188:C:/Users/leopi/Documents/vs/S-Reo/MazeLibrary\Searching.c **** 
1189:C:/Users/leopi/Documents/vs/S-Reo/MazeLibrary\Searching.c **** 
1190:C:/Users/leopi/Documents/vs/S-Reo/MazeLibrary\Searching.c **** 
1191:C:/Users/leopi/Documents/vs/S-Reo/MazeLibrary\Searching.c **** void initSearchData(maze_node *my_maze, profile *Mouse)
1192:C:/Users/leopi/Documents/vs/S-Reo/MazeLibrary\Searching.c **** {
 3748              		.loc 1 1192 1 is_stmt 1 view -0
 3749              		.cfi_startproc
 3750              		@ args = 0, pretend = 0, frame = 8
 3751              		@ frame_needed = 0, uses_anonymous_args = 0
 3752              		.loc 1 1192 1 is_stmt 0 view .LVU1267
 3753 0000 30B5     		push	{r4, r5, lr}
 3754              	.LCFI26:
 3755              		.cfi_def_cfa_offset 12
 3756              		.cfi_offset 4, -12
 3757              		.cfi_offset 5, -8
 3758              		.cfi_offset 14, -4
 3759 0002 83B0     		sub	sp, sp, #12
 3760              	.LCFI27:
 3761              		.cfi_def_cfa_offset 24
 3762 0004 0446     		mov	r4, r0
 3763 0006 0D46     		mov	r5, r1
1193:C:/Users/leopi/Documents/vs/S-Reo/MazeLibrary\Searching.c ****     initMaze(my_maze);
 3764              		.loc 1 1193 5 is_stmt 1 view .LVU1268
 3765 0008 FFF7FEFF 		bl	initMaze
 3766              	.LVL271:
1194:C:/Users/leopi/Documents/vs/S-Reo/MazeLibrary\Searching.c ****     initWeight(my_maze); //3/20ms
 3767              		.loc 1 1194 5 view .LVU1269
 3768 000c 2046     		mov	r0, r4
 3769 000e FFF7FEFF 		bl	initWeight
 3770              	.LVL272:
1195:C:/Users/leopi/Documents/vs/S-Reo/MazeLibrary\Searching.c ****     //状態の初期化
1196:C:/Users/leopi/Documents/vs/S-Reo/MazeLibrary\Searching.c ****     initProfile(Mouse, my_maze);
 3771              		.loc 1 1196 5 view .LVU1270
 3772 0012 2146     		mov	r1, r4
 3773 0014 2846     		mov	r0, r5
 3774 0016 FFF7FEFF 		bl	initProfile
 3775              	.LVL273:
1197:C:/Users/leopi/Documents/vs/S-Reo/MazeLibrary\Searching.c **** 
1198:C:/Users/leopi/Documents/vs/S-Reo/MazeLibrary\Searching.c ****     Mouse->now.node = &(my_maze->RawNode[0][0]);
 3776              		.loc 1 1198 5 view .LVU1271
 3777              		.loc 1 1198 21 is_stmt 0 view .LVU1272
 3778 001a EC60     		str	r4, [r5, #12]
1199:C:/Users/leopi/Documents/vs/S-Reo/MazeLibrary\Searching.c ****     Mouse->next.node = &(my_maze->RawNode[0][1]);
 3779              		.loc 1 1199 5 is_stmt 1 view .LVU1273
 3780              		.loc 1 1199 24 is_stmt 0 view .LVU1274
 3781 001c 04F10803 		add	r3, r4, #8
 3782              		.loc 1 1199 22 view .LVU1275
 3783 0020 AB61     		str	r3, [r5, #24]
1200:C:/Users/leopi/Documents/vs/S-Reo/MazeLibrary\Searching.c **** 
ARM GAS  C:\Users\leopi\AppData\Local\Temp\ccMuwtHQ.s 			page 103


1201:C:/Users/leopi/Documents/vs/S-Reo/MazeLibrary\Searching.c ****     //スタート座標にいる状態で、現在の重みを更新
1202:C:/Users/leopi/Documents/vs/S-Reo/MazeLibrary\Searching.c ****     
1203:C:/Users/leopi/Documents/vs/S-Reo/MazeLibrary\Searching.c ****     position goal_size = {
 3784              		.loc 1 1203 5 is_stmt 1 view .LVU1276
 3785              		.loc 1 1203 14 is_stmt 0 view .LVU1277
 3786 0022 074B     		ldr	r3, .L218
 3787 0024 1B89     		ldrh	r3, [r3, #8]
 3788 0026 ADF80430 		strh	r3, [sp, #4]	@ movhi
1204:C:/Users/leopi/Documents/vs/S-Reo/MazeLibrary\Searching.c ****         GOAL_SIZE_X,
1205:C:/Users/leopi/Documents/vs/S-Reo/MazeLibrary\Searching.c ****         GOAL_SIZE_Y
1206:C:/Users/leopi/Documents/vs/S-Reo/MazeLibrary\Searching.c ****     };
1207:C:/Users/leopi/Documents/vs/S-Reo/MazeLibrary\Searching.c ****     Mouse->target_size = goal_size;
 3789              		.loc 1 1207 5 is_stmt 1 view .LVU1278
 3790              		.loc 1 1207 24 is_stmt 0 view .LVU1279
 3791 002a 2A46     		mov	r2, r5
 3792 002c 22F8023F 		strh	r3, [r2, #2]!	@ movhi
1208:C:/Users/leopi/Documents/vs/S-Reo/MazeLibrary\Searching.c ****      updateAllNodeWeight(my_maze, &(Mouse->target_pos), &(Mouse->target_size), 0x01);
 3793              		.loc 1 1208 6 is_stmt 1 view .LVU1280
 3794 0030 0123     		movs	r3, #1
 3795 0032 2946     		mov	r1, r5
 3796 0034 2046     		mov	r0, r4
 3797 0036 FFF7FEFF 		bl	updateAllNodeWeight
 3798              	.LVL274:
1209:C:/Users/leopi/Documents/vs/S-Reo/MazeLibrary\Searching.c **** //     updateAllNodeWeight(&my_map, my_mouse.goal_lesser.x, my_mouse.goal_lesser.y, GOAL_SIZE_X, GO
1210:C:/Users/leopi/Documents/vs/S-Reo/MazeLibrary\Searching.c **** }
 3799              		.loc 1 1210 1 is_stmt 0 view .LVU1281
 3800 003a 03B0     		add	sp, sp, #12
 3801              	.LCFI28:
 3802              		.cfi_def_cfa_offset 12
 3803              		@ sp needed
 3804 003c 30BD     		pop	{r4, r5, pc}
 3805              	.LVL275:
 3806              	.L219:
 3807              		.loc 1 1210 1 view .LVU1282
 3808 003e 00BF     		.align	2
 3809              	.L218:
 3810 0040 00000000 		.word	.LANCHOR0
 3811              		.cfi_endproc
 3812              	.LFE25:
 3814              		.section	.rodata
 3815              		.align	2
 3816              		.set	.LANCHOR0,. + 0
 3817              	.LC0:
 3818 0000 00       		.byte	0
 3819 0001 01       		.byte	1
 3820 0002 01       		.byte	1
 3821 0003 01       		.byte	1
 3822              	.LC1:
 3823 0004 02       		.byte	2
 3824 0005 02       		.byte	2
 3825 0006 00       		.byte	0
 3826 0007 01       		.byte	1
 3827              	.LC2:
 3828 0008 02       		.byte	2
 3829 0009 02       		.byte	2
 3830              		.section	.data.cnt.0,"aw"
 3831              		.align	2
ARM GAS  C:\Users\leopi\AppData\Local\Temp\ccMuwtHQ.s 			page 104


 3832              		.set	.LANCHOR1,. + 0
 3835              	cnt.0:
 3836 0000 01000000 		.word	1
 3837              		.text
 3838              	.Letext0:
 3839              		.file 2 "c:\\tools\\gcc-arm-none-eabi-10_2021.10\\lib\\gcc\\arm-none-eabi\\10.3.1\\include\\stdint
 3840              		.file 3 "C:/Users/leopi/Documents/vs/S-Reo/MazeLibrary/MazeLib.h"
 3841              		.file 4 "C:/Users/leopi/Documents/vs/S-Reo/MazeLibrary/Searching.h"
 3842              		.file 5 "C:/Users/leopi/Documents/vs/S-Reo/MazeLibrary/dfs.h"
 3843              		.file 6 "c:\\tools\\gcc-arm-none-eabi-10_2021.10\\arm-none-eabi\\include\\stdio.h"
 3844              		.file 7 "<built-in>"
ARM GAS  C:\Users\leopi\AppData\Local\Temp\ccMuwtHQ.s 			page 105


DEFINED SYMBOLS
                            *ABS*:00000000 Searching.c
C:\Users\leopi\AppData\Local\Temp\ccMuwtHQ.s:20     .text.updateNodeThree:00000000 $t
C:\Users\leopi\AppData\Local\Temp\ccMuwtHQ.s:26     .text.updateNodeThree:00000000 updateNodeThree
C:\Users\leopi\AppData\Local\Temp\ccMuwtHQ.s:173    .text.updateNodeDraw:00000000 $t
C:\Users\leopi\AppData\Local\Temp\ccMuwtHQ.s:179    .text.updateNodeDraw:00000000 updateNodeDraw
C:\Users\leopi\AppData\Local\Temp\ccMuwtHQ.s:248    .rodata.setNextPosition.str1.4:00000000 $d
C:\Users\leopi\AppData\Local\Temp\ccMuwtHQ.s:253    .text.setNextPosition:00000000 $t
C:\Users\leopi\AppData\Local\Temp\ccMuwtHQ.s:259    .text.setNextPosition:00000000 setNextPosition
C:\Users\leopi\AppData\Local\Temp\ccMuwtHQ.s:280    .text.setNextPosition:0000000c $d
C:\Users\leopi\AppData\Local\Temp\ccMuwtHQ.s:358    .text.setNextPosition:0000004c $d
C:\Users\leopi\AppData\Local\Temp\ccMuwtHQ.s:363    .text.setPosition:00000000 $t
C:\Users\leopi\AppData\Local\Temp\ccMuwtHQ.s:369    .text.setPosition:00000000 setPosition
C:\Users\leopi\AppData\Local\Temp\ccMuwtHQ.s:389    .text.setGoal:00000000 $t
C:\Users\leopi\AppData\Local\Temp\ccMuwtHQ.s:395    .text.setGoal:00000000 setGoal
C:\Users\leopi\AppData\Local\Temp\ccMuwtHQ.s:427    .text.setCardinal:00000000 $t
C:\Users\leopi\AppData\Local\Temp\ccMuwtHQ.s:433    .text.setCardinal:00000000 setCardinal
C:\Users\leopi\AppData\Local\Temp\ccMuwtHQ.s:450    .text.setWallExistence:00000000 $t
C:\Users\leopi\AppData\Local\Temp\ccMuwtHQ.s:456    .text.setWallExistence:00000000 setWallExistence
C:\Users\leopi\AppData\Local\Temp\ccMuwtHQ.s:498    .rodata.initState.str1.4:00000000 $d
C:\Users\leopi\AppData\Local\Temp\ccMuwtHQ.s:505    .text.initState:00000000 $t
C:\Users\leopi\AppData\Local\Temp\ccMuwtHQ.s:511    .text.initState:00000000 initState
C:\Users\leopi\AppData\Local\Temp\ccMuwtHQ.s:573    .text.initState:0000002c $d
C:\Users\leopi\AppData\Local\Temp\ccMuwtHQ.s:579    .text.initProfile:00000000 $t
C:\Users\leopi\AppData\Local\Temp\ccMuwtHQ.s:585    .text.initProfile:00000000 initProfile
C:\Users\leopi\AppData\Local\Temp\ccMuwtHQ.s:675    .text.initProfile:00000064 $d
C:\Users\leopi\AppData\Local\Temp\ccMuwtHQ.s:680    .text.shiftState:00000000 $t
C:\Users\leopi\AppData\Local\Temp\ccMuwtHQ.s:686    .text.shiftState:00000000 shiftState
C:\Users\leopi\AppData\Local\Temp\ccMuwtHQ.s:723    .rodata.printState.str1.4:00000000 $d
C:\Users\leopi\AppData\Local\Temp\ccMuwtHQ.s:747    .text.printState:00000000 $t
C:\Users\leopi\AppData\Local\Temp\ccMuwtHQ.s:753    .text.printState:00000000 printState
C:\Users\leopi\AppData\Local\Temp\ccMuwtHQ.s:834    .text.printState:00000058 $d
C:\Users\leopi\AppData\Local\Temp\ccMuwtHQ.s:844    .rodata.printGoal.str1.4:00000000 $d
C:\Users\leopi\AppData\Local\Temp\ccMuwtHQ.s:849    .text.printGoal:00000000 $t
C:\Users\leopi\AppData\Local\Temp\ccMuwtHQ.s:855    .text.printGoal:00000000 printGoal
C:\Users\leopi\AppData\Local\Temp\ccMuwtHQ.s:910    .text.printGoal:00000024 $d
C:\Users\leopi\AppData\Local\Temp\ccMuwtHQ.s:915    .rodata.printProfile.str1.4:00000000 $d
C:\Users\leopi\AppData\Local\Temp\ccMuwtHQ.s:922    .text.printProfile:00000000 $t
C:\Users\leopi\AppData\Local\Temp\ccMuwtHQ.s:928    .text.printProfile:00000000 printProfile
C:\Users\leopi\AppData\Local\Temp\ccMuwtHQ.s:972    .text.printProfile:0000002c $d
C:\Users\leopi\AppData\Local\Temp\ccMuwtHQ.s:979    .text.FindUnwantedSquares:00000000 $t
C:\Users\leopi\AppData\Local\Temp\ccMuwtHQ.s:985    .text.FindUnwantedSquares:00000000 FindUnwantedSquares
C:\Users\leopi\AppData\Local\Temp\ccMuwtHQ.s:1216   .text.FindUnwantedSquares:000000c0 $d
C:\Users\leopi\AppData\Local\Temp\ccMuwtHQ.s:1223   .text.getNodeInfo:00000000 $t
C:\Users\leopi\AppData\Local\Temp\ccMuwtHQ.s:1229   .text.getNodeInfo:00000000 getNodeInfo
C:\Users\leopi\AppData\Local\Temp\ccMuwtHQ.s:1252   .text.getNodeInfo:0000000e $d
C:\Users\leopi\AppData\Local\Temp\ccMuwtHQ.s:1346   .text.getNextNode:00000000 $t
C:\Users\leopi\AppData\Local\Temp\ccMuwtHQ.s:1352   .text.getNextNode:00000000 getNextNode
C:\Users\leopi\AppData\Local\Temp\ccMuwtHQ.s:1911   .text.getNextNode:000002cc $d
C:\Users\leopi\AppData\Local\Temp\ccMuwtHQ.s:1916   .text.judgeAccelorNot:00000000 $t
C:\Users\leopi\AppData\Local\Temp\ccMuwtHQ.s:1922   .text.judgeAccelorNot:00000000 judgeAccelorNot
C:\Users\leopi\AppData\Local\Temp\ccMuwtHQ.s:2515   .text.getNextState:00000000 $t
C:\Users\leopi\AppData\Local\Temp\ccMuwtHQ.s:2521   .text.getNextState:00000000 getNextState
C:\Users\leopi\AppData\Local\Temp\ccMuwtHQ.s:2567   .text.getNextState:00000024 $d
C:\Users\leopi\AppData\Local\Temp\ccMuwtHQ.s:2574   .text.getNextState:00000032 $t
C:\Users\leopi\AppData\Local\Temp\ccMuwtHQ.s:3375   .text.getNextDirection:00000000 $t
C:\Users\leopi\AppData\Local\Temp\ccMuwtHQ.s:3381   .text.getNextDirection:00000000 getNextDirection
ARM GAS  C:\Users\leopi\AppData\Local\Temp\ccMuwtHQ.s 			page 106


C:\Users\leopi\AppData\Local\Temp\ccMuwtHQ.s:3421   .text.getWallNow:00000000 $t
C:\Users\leopi\AppData\Local\Temp\ccMuwtHQ.s:3427   .text.getWallNow:00000000 getWallNow
C:\Users\leopi\AppData\Local\Temp\ccMuwtHQ.s:3443   .text.getWallNow:0000000a $d
C:\Users\leopi\AppData\Local\Temp\ccMuwtHQ.s:3605   .text.getNowWallVirtual:00000000 $t
C:\Users\leopi\AppData\Local\Temp\ccMuwtHQ.s:3611   .text.getNowWallVirtual:00000000 getNowWallVirtual
C:\Users\leopi\AppData\Local\Temp\ccMuwtHQ.s:3672   .text.getNextWallVirtual:00000000 $t
C:\Users\leopi\AppData\Local\Temp\ccMuwtHQ.s:3678   .text.getNextWallVirtual:00000000 getNextWallVirtual
C:\Users\leopi\AppData\Local\Temp\ccMuwtHQ.s:3739   .text.initSearchData:00000000 $t
C:\Users\leopi\AppData\Local\Temp\ccMuwtHQ.s:3745   .text.initSearchData:00000000 initSearchData
C:\Users\leopi\AppData\Local\Temp\ccMuwtHQ.s:3810   .text.initSearchData:00000040 $d
C:\Users\leopi\AppData\Local\Temp\ccMuwtHQ.s:3815   .rodata:00000000 $d
C:\Users\leopi\AppData\Local\Temp\ccMuwtHQ.s:3831   .data.cnt.0:00000000 $d
C:\Users\leopi\AppData\Local\Temp\ccMuwtHQ.s:3835   .data.cnt.0:00000000 cnt.0
C:\Users\leopi\AppData\Local\Temp\ccMuwtHQ.s:287    .text.setNextPosition:00000013 $d
C:\Users\leopi\AppData\Local\Temp\ccMuwtHQ.s:287    .text.setNextPosition:00000014 $t
C:\Users\leopi\AppData\Local\Temp\ccMuwtHQ.s:1259   .text.getNodeInfo:00000015 $d
C:\Users\leopi\AppData\Local\Temp\ccMuwtHQ.s:1259   .text.getNodeInfo:00000016 $t
C:\Users\leopi\AppData\Local\Temp\ccMuwtHQ.s:3450   .text.getWallNow:00000011 $d
C:\Users\leopi\AppData\Local\Temp\ccMuwtHQ.s:3450   .text.getWallNow:00000012 $t

UNDEFINED SYMBOLS
puts
printf
Visit
initMaze
initWeight
updateAllNodeWeight
