ARM GAS  C:\Users\leopi\AppData\Local\Temp\ccMCNSog.s 			page 1


   1              		.cpu cortex-m4
   2              		.arch armv7e-m
   3              		.fpu fpv4-sp-d16
   4              		.eabi_attribute 27, 1
   5              		.eabi_attribute 28, 1
   6              		.eabi_attribute 20, 1
   7              		.eabi_attribute 21, 1
   8              		.eabi_attribute 23, 3
   9              		.eabi_attribute 24, 1
  10              		.eabi_attribute 25, 1
  11              		.eabi_attribute 26, 1
  12              		.eabi_attribute 30, 1
  13              		.eabi_attribute 34, 1
  14              		.eabi_attribute 18, 4
  15              		.file	"Searching.c"
  16              		.text
  17              	.Ltext0:
  18              		.cfi_sections	.debug_frame
  19              		.section	.text.getTimFlag,"ax",%progbits
  20              		.align	1
  21              		.global	getTimFlag
  22              		.syntax unified
  23              		.thumb
  24              		.thumb_func
  26              	getTimFlag:
  27              	.LVL0:
  28              	.LFB3:
  29              		.file 1 "C:/Users/leopi/Documents/vs/S-Reo/MazeLibrary/Searching.c"
   1:C:/Users/leopi/Documents/vs/S-Reo/MazeLibrary\Searching.c **** /*
   2:C:/Users/leopi/Documents/vs/S-Reo/MazeLibrary\Searching.c ****  * Search.c
   3:C:/Users/leopi/Documents/vs/S-Reo/MazeLibrary\Searching.c ****  *
   4:C:/Users/leopi/Documents/vs/S-Reo/MazeLibrary\Searching.c ****  *  Created on: 2022/10/28
   5:C:/Users/leopi/Documents/vs/S-Reo/MazeLibrary\Searching.c ****  *      Author: leopi
   6:C:/Users/leopi/Documents/vs/S-Reo/MazeLibrary\Searching.c ****  */
   7:C:/Users/leopi/Documents/vs/S-Reo/MazeLibrary\Searching.c **** 
   8:C:/Users/leopi/Documents/vs/S-Reo/MazeLibrary\Searching.c **** // SearchとFastRunで分けて、Runningで統合する
   9:C:/Users/leopi/Documents/vs/S-Reo/MazeLibrary\Searching.c **** #include "Searching.h"
  10:C:/Users/leopi/Documents/vs/S-Reo/MazeLibrary\Searching.c **** #include "dfs.h"
  11:C:/Users/leopi/Documents/vs/S-Reo/MazeLibrary\Searching.c **** 
  12:C:/Users/leopi/Documents/vs/S-Reo/MazeLibrary\Searching.c **** inline _Bool getTimFlag(timer_mouse *tm){
  30              		.loc 1 12 41 view -0
  31              		.cfi_startproc
  32              		@ args = 0, pretend = 0, frame = 0
  33              		@ frame_needed = 0, uses_anonymous_args = 0
  34              		@ link register save eliminated.
  13:C:/Users/leopi/Documents/vs/S-Reo/MazeLibrary\Searching.c **** 	return tm->flag;
  35              		.loc 1 13 2 view .LVU1
  14:C:/Users/leopi/Documents/vs/S-Reo/MazeLibrary\Searching.c **** }
  36              		.loc 1 14 1 is_stmt 0 view .LVU2
  37 0000 007A     		ldrb	r0, [r0, #8]	@ zero_extendqisi2
  38              	.LVL1:
  39              		.loc 1 14 1 view .LVU3
  40 0002 7047     		bx	lr
  41              		.cfi_endproc
  42              	.LFE3:
  44              		.section	.text.setTimFlag,"ax",%progbits
  45              		.align	1
ARM GAS  C:\Users\leopi\AppData\Local\Temp\ccMCNSog.s 			page 2


  46              		.global	setTimFlag
  47              		.syntax unified
  48              		.thumb
  49              		.thumb_func
  51              	setTimFlag:
  52              	.LVL2:
  53              	.LFB4:
  15:C:/Users/leopi/Documents/vs/S-Reo/MazeLibrary\Searching.c **** inline void setTimFlag(timer_mouse *tm, _Bool flag){
  54              		.loc 1 15 52 is_stmt 1 view -0
  55              		.cfi_startproc
  56              		@ args = 0, pretend = 0, frame = 0
  57              		@ frame_needed = 0, uses_anonymous_args = 0
  58              		@ link register save eliminated.
  16:C:/Users/leopi/Documents/vs/S-Reo/MazeLibrary\Searching.c **** 	tm->flag = flag;
  59              		.loc 1 16 2 view .LVU5
  60              		.loc 1 16 11 is_stmt 0 view .LVU6
  61 0000 0172     		strb	r1, [r0, #8]
  17:C:/Users/leopi/Documents/vs/S-Reo/MazeLibrary\Searching.c **** }
  62              		.loc 1 17 1 view .LVU7
  63 0002 7047     		bx	lr
  64              		.cfi_endproc
  65              	.LFE4:
  67              		.section	.text.getTimElapsed,"ax",%progbits
  68              		.align	1
  69              		.global	getTimElapsed
  70              		.syntax unified
  71              		.thumb
  72              		.thumb_func
  74              	getTimElapsed:
  75              	.LVL3:
  76              	.LFB5:
  18:C:/Users/leopi/Documents/vs/S-Reo/MazeLibrary\Searching.c **** inline int getTimElapsed(timer_mouse *tm){
  77              		.loc 1 18 42 is_stmt 1 view -0
  78              		.cfi_startproc
  79              		@ args = 0, pretend = 0, frame = 0
  80              		@ frame_needed = 0, uses_anonymous_args = 0
  81              		@ link register save eliminated.
  19:C:/Users/leopi/Documents/vs/S-Reo/MazeLibrary\Searching.c **** 	return tm->Elaplsed;
  82              		.loc 1 19 2 view .LVU9
  20:C:/Users/leopi/Documents/vs/S-Reo/MazeLibrary\Searching.c **** }
  83              		.loc 1 20 1 is_stmt 0 view .LVU10
  84 0000 4068     		ldr	r0, [r0, #4]
  85              	.LVL4:
  86              		.loc 1 20 1 view .LVU11
  87 0002 7047     		bx	lr
  88              		.cfi_endproc
  89              	.LFE5:
  91              		.section	.text.countTimElapsed,"ax",%progbits
  92              		.align	1
  93              		.global	countTimElapsed
  94              		.syntax unified
  95              		.thumb
  96              		.thumb_func
  98              	countTimElapsed:
  99              	.LVL5:
 100              	.LFB6:
  21:C:/Users/leopi/Documents/vs/S-Reo/MazeLibrary\Searching.c **** inline void countTimElapsed(timer_mouse *tm){
ARM GAS  C:\Users\leopi\AppData\Local\Temp\ccMCNSog.s 			page 3


 101              		.loc 1 21 45 is_stmt 1 view -0
 102              		.cfi_startproc
 103              		@ args = 0, pretend = 0, frame = 0
 104              		@ frame_needed = 0, uses_anonymous_args = 0
 105              		@ link register save eliminated.
  22:C:/Users/leopi/Documents/vs/S-Reo/MazeLibrary\Searching.c **** 	if(tm->flag == true){
 106              		.loc 1 22 2 view .LVU13
 107              		.loc 1 22 7 is_stmt 0 view .LVU14
 108 0000 037A     		ldrb	r3, [r0, #8]	@ zero_extendqisi2
 109              		.loc 1 22 4 view .LVU15
 110 0002 2BB1     		cbz	r3, .L4
  23:C:/Users/leopi/Documents/vs/S-Reo/MazeLibrary\Searching.c **** 		tm->Elaplsed += 1;
 111              		.loc 1 23 3 is_stmt 1 view .LVU16
 112              		.loc 1 23 16 is_stmt 0 view .LVU17
 113 0004 4368     		ldr	r3, [r0, #4]
 114 0006 0133     		adds	r3, r3, #1
 115 0008 4360     		str	r3, [r0, #4]
  24:C:/Users/leopi/Documents/vs/S-Reo/MazeLibrary\Searching.c **** 		tm->count += 1;
 116              		.loc 1 24 3 is_stmt 1 view .LVU18
 117              		.loc 1 24 13 is_stmt 0 view .LVU19
 118 000a 0368     		ldr	r3, [r0]
 119 000c 0133     		adds	r3, r3, #1
 120 000e 0360     		str	r3, [r0]
 121              	.L4:
  25:C:/Users/leopi/Documents/vs/S-Reo/MazeLibrary\Searching.c **** 	}
  26:C:/Users/leopi/Documents/vs/S-Reo/MazeLibrary\Searching.c **** 	else{
  27:C:/Users/leopi/Documents/vs/S-Reo/MazeLibrary\Searching.c **** 		tm->Elaplsed = tm->Elaplsed;
  28:C:/Users/leopi/Documents/vs/S-Reo/MazeLibrary\Searching.c **** 		tm->count = tm->count;
  29:C:/Users/leopi/Documents/vs/S-Reo/MazeLibrary\Searching.c **** 	}
  30:C:/Users/leopi/Documents/vs/S-Reo/MazeLibrary\Searching.c **** }
 122              		.loc 1 30 1 view .LVU20
 123 0010 7047     		bx	lr
 124              		.cfi_endproc
 125              	.LFE6:
 127              		.section	.text.resetTimMember,"ax",%progbits
 128              		.align	1
 129              		.global	resetTimMember
 130              		.syntax unified
 131              		.thumb
 132              		.thumb_func
 134              	resetTimMember:
 135              	.LVL6:
 136              	.LFB7:
  31:C:/Users/leopi/Documents/vs/S-Reo/MazeLibrary\Searching.c **** void resetTimMember(timer_mouse *tm){
 137              		.loc 1 31 37 is_stmt 1 view -0
 138              		.cfi_startproc
 139              		@ args = 0, pretend = 0, frame = 0
 140              		@ frame_needed = 0, uses_anonymous_args = 0
 141              		@ link register save eliminated.
  32:C:/Users/leopi/Documents/vs/S-Reo/MazeLibrary\Searching.c **** 	tm->count = 0;
 142              		.loc 1 32 2 view .LVU22
 143              		.loc 1 32 12 is_stmt 0 view .LVU23
 144 0000 0023     		movs	r3, #0
 145 0002 0360     		str	r3, [r0]
  33:C:/Users/leopi/Documents/vs/S-Reo/MazeLibrary\Searching.c **** 	tm->Elaplsed = 0;
 146              		.loc 1 33 2 is_stmt 1 view .LVU24
 147              		.loc 1 33 15 is_stmt 0 view .LVU25
ARM GAS  C:\Users\leopi\AppData\Local\Temp\ccMCNSog.s 			page 4


 148 0004 4360     		str	r3, [r0, #4]
  34:C:/Users/leopi/Documents/vs/S-Reo/MazeLibrary\Searching.c **** 	tm->flag = false;
 149              		.loc 1 34 2 is_stmt 1 view .LVU26
 150              		.loc 1 34 11 is_stmt 0 view .LVU27
 151 0006 0372     		strb	r3, [r0, #8]
  35:C:/Users/leopi/Documents/vs/S-Reo/MazeLibrary\Searching.c **** }
 152              		.loc 1 35 1 view .LVU28
 153 0008 7047     		bx	lr
 154              		.cfi_endproc
 155              	.LFE7:
 157              		.section	.text.updateNodeThree,"ax",%progbits
 158              		.align	1
 159              		.global	updateNodeThree
 160              		.syntax unified
 161              		.thumb
 162              		.thumb_func
 164              	updateNodeThree:
 165              	.LVL7:
 166              	.LFB8:
  36:C:/Users/leopi/Documents/vs/S-Reo/MazeLibrary\Searching.c **** 
  37:C:/Users/leopi/Documents/vs/S-Reo/MazeLibrary\Searching.c **** // 探索中: 座標の4方向の壁の有無を更新
  38:C:/Users/leopi/Documents/vs/S-Reo/MazeLibrary\Searching.c **** void updateNodeThree(maze_node *maze, wall_existence *wall, uint8_t x, uint8_t y)
  39:C:/Users/leopi/Documents/vs/S-Reo/MazeLibrary\Searching.c **** {
 167              		.loc 1 39 1 is_stmt 1 view -0
 168              		.cfi_startproc
 169              		@ args = 0, pretend = 0, frame = 0
 170              		@ frame_needed = 0, uses_anonymous_args = 0
 171              		.loc 1 39 1 is_stmt 0 view .LVU30
 172 0000 70B5     		push	{r4, r5, r6, lr}
 173              	.LCFI0:
 174              		.cfi_def_cfa_offset 16
 175              		.cfi_offset 4, -16
 176              		.cfi_offset 5, -12
 177              		.cfi_offset 6, -8
 178              		.cfi_offset 14, -4
  40:C:/Users/leopi/Documents/vs/S-Reo/MazeLibrary\Searching.c ****     //壁の有無の更新。既知の壁には上書きしない。重みの更新は？既知か
  41:C:/Users/leopi/Documents/vs/S-Reo/MazeLibrary\Searching.c ****         //重みは？壁があればMAX値、なければそのまま
  42:C:/Users/leopi/Documents/vs/S-Reo/MazeLibrary\Searching.c ****     maze->RawNode[x][y+1].existence = (maze->RawNode[x][y+1].existence == UNKNOWN) ? wall->north : 
 179              		.loc 1 42 5 is_stmt 1 view .LVU31
 180              		.loc 1 42 58 is_stmt 0 view .LVU32
 181 0002 03F1010E 		add	lr, r3, #1
 182              		.loc 1 42 61 view .LVU33
 183 0006 02EB4214 		add	r4, r2, r2, lsl #5
 184 000a 7444     		add	r4, r4, lr
 185 000c 10F83440 		ldrb	r4, [r0, r4, lsl #3]	@ zero_extendqisi2
 186              		.loc 1 42 37 view .LVU34
 187 0010 022C     		cmp	r4, #2
 188 0012 5CD0     		beq	.L13
 189              	.L8:
 190              		.loc 1 42 37 discriminator 4 view .LVU35
 191 0014 02EB4215 		add	r5, r2, r2, lsl #5
 192 0018 7544     		add	r5, r5, lr
 193 001a 00F83540 		strb	r4, [r0, r5, lsl #3]
  43:C:/Users/leopi/Documents/vs/S-Reo/MazeLibrary\Searching.c ****     maze->ColumnNode[x+1][y].existence = (maze->ColumnNode[x+1][y].existence == UNKNOWN) ? wall->ea
 194              		.loc 1 43 5 is_stmt 1 discriminator 4 view .LVU36
 195              		.loc 1 43 61 is_stmt 0 discriminator 4 view .LVU37
 196 001e 02F1010C 		add	ip, r2, #1
ARM GAS  C:\Users\leopi\AppData\Local\Temp\ccMCNSog.s 			page 5


 197              		.loc 1 43 67 discriminator 4 view .LVU38
 198 0022 03EB4C14 		add	r4, r3, ip, lsl #5
 199 0026 04F58464 		add	r4, r4, #1056
 200 002a 10F83440 		ldrb	r4, [r0, r4, lsl #3]	@ zero_extendqisi2
 201              		.loc 1 43 40 discriminator 4 view .LVU39
 202 002e 022C     		cmp	r4, #2
 203 0030 51D0     		beq	.L14
 204              	.L9:
 205 0032 03EB4C15 		add	r5, r3, ip, lsl #5
 206 0036 05F58465 		add	r5, r5, #1056
 207 003a 00F83540 		strb	r4, [r0, r5, lsl #3]
  44:C:/Users/leopi/Documents/vs/S-Reo/MazeLibrary\Searching.c ****     maze->RawNode[x][y].existence = (maze->RawNode[x][y].existence == UNKNOWN) ? wall->south : maze
 208              		.loc 1 44 5 is_stmt 1 discriminator 4 view .LVU40
 209              		.loc 1 44 57 is_stmt 0 discriminator 4 view .LVU41
 210 003e 02EB4214 		add	r4, r2, r2, lsl #5
 211 0042 1C44     		add	r4, r4, r3
 212 0044 10F83450 		ldrb	r5, [r0, r4, lsl #3]	@ zero_extendqisi2
 213              		.loc 1 44 35 discriminator 4 view .LVU42
 214 0048 022D     		cmp	r5, #2
 215 004a 48D0     		beq	.L15
 216              	.L10:
 217 004c 02EB4214 		add	r4, r2, r2, lsl #5
 218 0050 1C44     		add	r4, r4, r3
 219 0052 00F83450 		strb	r5, [r0, r4, lsl #3]
  45:C:/Users/leopi/Documents/vs/S-Reo/MazeLibrary\Searching.c ****     maze->ColumnNode[x][y].existence = (maze->ColumnNode[x][y].existence == UNKNOWN) ? wall->west :
 220              		.loc 1 45 5 is_stmt 1 discriminator 4 view .LVU43
 221              		.loc 1 45 63 is_stmt 0 discriminator 4 view .LVU44
 222 0056 03EB4214 		add	r4, r3, r2, lsl #5
 223 005a 04F58464 		add	r4, r4, #1056
 224 005e 10F83440 		ldrb	r4, [r0, r4, lsl #3]	@ zero_extendqisi2
 225              		.loc 1 45 38 discriminator 4 view .LVU45
 226 0062 022C     		cmp	r4, #2
 227 0064 3FD0     		beq	.L16
 228              	.L11:
 229 0066 03EB4211 		add	r1, r3, r2, lsl #5
 230              	.LVL8:
 231              		.loc 1 45 38 discriminator 4 view .LVU46
 232 006a 01F58461 		add	r1, r1, #1056
 233 006e 00F83140 		strb	r4, [r0, r1, lsl #3]
  46:C:/Users/leopi/Documents/vs/S-Reo/MazeLibrary\Searching.c **** 
  47:C:/Users/leopi/Documents/vs/S-Reo/MazeLibrary\Searching.c ****     // maze->RawNode[x][y+1].flag = true;      //北
  48:C:/Users/leopi/Documents/vs/S-Reo/MazeLibrary\Searching.c ****     // maze->ColumnNode[x+1][y].flag = true;   //東
  49:C:/Users/leopi/Documents/vs/S-Reo/MazeLibrary\Searching.c ****     // maze->RawNode[x][y].flag = true;        //南
  50:C:/Users/leopi/Documents/vs/S-Reo/MazeLibrary\Searching.c ****     // maze->ColumnNode[x][y].flag = true;     //西
  51:C:/Users/leopi/Documents/vs/S-Reo/MazeLibrary\Searching.c **** 
  52:C:/Users/leopi/Documents/vs/S-Reo/MazeLibrary\Searching.c ****     maze->RawNode[x][y+1].draw = (maze->RawNode[x][y+1].existence == WALL) ? true : false;         
 234              		.loc 1 52 5 is_stmt 1 discriminator 4 view .LVU47
 235              		.loc 1 52 56 is_stmt 0 discriminator 4 view .LVU48
 236 0072 02EB4212 		add	r2, r2, r2, lsl #5
 237              	.LVL9:
 238              		.loc 1 52 56 discriminator 4 view .LVU49
 239 0076 9644     		add	lr, lr, r2
 240 0078 10F83E60 		ldrb	r6, [r0, lr, lsl #3]	@ zero_extendqisi2
 241              		.loc 1 52 83 discriminator 4 view .LVU50
 242 007c 012E     		cmp	r6, #1
 243 007e 14BF     		ite	ne
 244 0080 0026     		movne	r6, #0
ARM GAS  C:\Users\leopi\AppData\Local\Temp\ccMCNSog.s 			page 6


 245 0082 0126     		moveq	r6, #1
 246              		.loc 1 52 32 discriminator 4 view .LVU51
 247 0084 00EBCE0E 		add	lr, r0, lr, lsl #3
 248 0088 8EF80460 		strb	r6, [lr, #4]
  53:C:/Users/leopi/Documents/vs/S-Reo/MazeLibrary\Searching.c ****     maze->ColumnNode[x+1][y].draw = (maze->ColumnNode[x+1][y].existence == WALL) ? true : false;   
 249              		.loc 1 53 5 is_stmt 1 discriminator 4 view .LVU52
 250              		.loc 1 53 62 is_stmt 0 discriminator 4 view .LVU53
 251 008c 03EB4C1C 		add	ip, r3, ip, lsl #5
 252 0090 0CF5846C 		add	ip, ip, #1056
 253 0094 10F83CE0 		ldrb	lr, [r0, ip, lsl #3]	@ zero_extendqisi2
 254              		.loc 1 53 89 discriminator 4 view .LVU54
 255 0098 BEF1010F 		cmp	lr, #1
 256 009c 14BF     		ite	ne
 257 009e 4FF0000E 		movne	lr, #0
 258 00a2 4FF0010E 		moveq	lr, #1
 259              		.loc 1 53 35 discriminator 4 view .LVU55
 260 00a6 00EBCC0C 		add	ip, r0, ip, lsl #3
 261 00aa 8CF804E0 		strb	lr, [ip, #4]
  54:C:/Users/leopi/Documents/vs/S-Reo/MazeLibrary\Searching.c ****     maze->RawNode[x][y].draw = (maze->RawNode[x][y].existence == WALL) ? true : false;             
 262              		.loc 1 54 5 is_stmt 1 discriminator 4 view .LVU56
 263              		.loc 1 54 79 is_stmt 0 discriminator 4 view .LVU57
 264 00ae 012D     		cmp	r5, #1
 265 00b0 14BF     		ite	ne
 266 00b2 0025     		movne	r5, #0
 267 00b4 0125     		moveq	r5, #1
 268              		.loc 1 54 30 discriminator 4 view .LVU58
 269 00b6 1A44     		add	r2, r2, r3
 270 00b8 00EBC202 		add	r2, r0, r2, lsl #3
 271 00bc 1571     		strb	r5, [r2, #4]
  55:C:/Users/leopi/Documents/vs/S-Reo/MazeLibrary\Searching.c ****     maze->ColumnNode[x][y].draw = (maze->ColumnNode[x][y].existence == WALL) ? true : false;       
 272              		.loc 1 55 5 is_stmt 1 discriminator 4 view .LVU59
 273              		.loc 1 55 85 is_stmt 0 discriminator 4 view .LVU60
 274 00be 012C     		cmp	r4, #1
 275 00c0 14BF     		ite	ne
 276 00c2 0024     		movne	r4, #0
 277 00c4 0124     		moveq	r4, #1
 278              		.loc 1 55 33 discriminator 4 view .LVU61
 279 00c6 00EBC100 		add	r0, r0, r1, lsl #3
 280              	.LVL10:
 281              		.loc 1 55 33 discriminator 4 view .LVU62
 282 00ca 0471     		strb	r4, [r0, #4]
  56:C:/Users/leopi/Documents/vs/S-Reo/MazeLibrary\Searching.c **** }
 283              		.loc 1 56 1 discriminator 4 view .LVU63
 284 00cc 70BD     		pop	{r4, r5, r6, pc}
 285              	.LVL11:
 286              	.L13:
  42:C:/Users/leopi/Documents/vs/S-Reo/MazeLibrary\Searching.c ****     maze->ColumnNode[x+1][y].existence = (maze->ColumnNode[x+1][y].existence == UNKNOWN) ? wall->ea
 287              		.loc 1 42 90 discriminator 1 view .LVU64
 288 00ce 0C78     		ldrb	r4, [r1]	@ zero_extendqisi2
 289 00d0 04F00304 		and	r4, r4, #3
 290 00d4 9EE7     		b	.L8
 291              	.L14:
  43:C:/Users/leopi/Documents/vs/S-Reo/MazeLibrary\Searching.c ****     maze->RawNode[x][y].existence = (maze->RawNode[x][y].existence == UNKNOWN) ? wall->south : maze
 292              		.loc 1 43 96 discriminator 1 view .LVU65
 293 00d6 0C78     		ldrb	r4, [r1]	@ zero_extendqisi2
 294 00d8 C4F38104 		ubfx	r4, r4, #2, #2
 295 00dc A9E7     		b	.L9
ARM GAS  C:\Users\leopi\AppData\Local\Temp\ccMCNSog.s 			page 7


 296              	.L15:
  44:C:/Users/leopi/Documents/vs/S-Reo/MazeLibrary\Searching.c ****     maze->ColumnNode[x][y].existence = (maze->ColumnNode[x][y].existence == UNKNOWN) ? wall->west :
 297              		.loc 1 44 86 discriminator 1 view .LVU66
 298 00de 0D78     		ldrb	r5, [r1]	@ zero_extendqisi2
 299 00e0 C5F30115 		ubfx	r5, r5, #4, #2
 300 00e4 B2E7     		b	.L10
 301              	.L16:
  45:C:/Users/leopi/Documents/vs/S-Reo/MazeLibrary\Searching.c **** 
 302              		.loc 1 45 92 discriminator 1 view .LVU67
 303 00e6 0C78     		ldrb	r4, [r1]	@ zero_extendqisi2
 304 00e8 A409     		lsrs	r4, r4, #6
 305 00ea BCE7     		b	.L11
 306              		.cfi_endproc
 307              	.LFE8:
 309              		.section	.text.updateNodeDraw,"ax",%progbits
 310              		.align	1
 311              		.global	updateNodeDraw
 312              		.syntax unified
 313              		.thumb
 314              		.thumb_func
 316              	updateNodeDraw:
 317              	.LVL12:
 318              	.LFB9:
  57:C:/Users/leopi/Documents/vs/S-Reo/MazeLibrary\Searching.c **** void updateNodeDraw(maze_node *maze, uint8_t x, uint8_t y)
  58:C:/Users/leopi/Documents/vs/S-Reo/MazeLibrary\Searching.c **** {
 319              		.loc 1 58 1 is_stmt 1 view -0
 320              		.cfi_startproc
 321              		@ args = 0, pretend = 0, frame = 0
 322              		@ frame_needed = 0, uses_anonymous_args = 0
 323              		.loc 1 58 1 is_stmt 0 view .LVU69
 324 0000 00B5     		push	{lr}
 325              	.LCFI1:
 326              		.cfi_def_cfa_offset 4
 327              		.cfi_offset 14, -4
  59:C:/Users/leopi/Documents/vs/S-Reo/MazeLibrary\Searching.c ****     maze->RawNode[x][y+1].draw = maze->RawNode[x][y+1].existence;       //北
 328              		.loc 1 59 5 is_stmt 1 view .LVU70
 329              		.loc 1 59 52 is_stmt 0 view .LVU71
 330 0002 531C     		adds	r3, r2, #1
 331              		.loc 1 59 55 view .LVU72
 332 0004 01EB411C 		add	ip, r1, r1, lsl #5
 333 0008 6344     		add	r3, r3, ip
 334 000a 10F833E0 		ldrb	lr, [r0, r3, lsl #3]	@ zero_extendqisi2
 335 000e BEF1000E 		subs	lr, lr, #0
 336 0012 18BF     		it	ne
 337 0014 4FF0010E 		movne	lr, #1
 338              		.loc 1 59 32 view .LVU73
 339 0018 00EBC303 		add	r3, r0, r3, lsl #3
 340 001c 83F804E0 		strb	lr, [r3, #4]
  60:C:/Users/leopi/Documents/vs/S-Reo/MazeLibrary\Searching.c ****     maze->ColumnNode[x+1][y].draw = maze->ColumnNode[x+1][y].existence; //東
 341              		.loc 1 60 5 is_stmt 1 view .LVU74
 342              		.loc 1 60 55 is_stmt 0 view .LVU75
 343 0020 4B1C     		adds	r3, r1, #1
 344              		.loc 1 60 61 view .LVU76
 345 0022 02EB4313 		add	r3, r2, r3, lsl #5
 346 0026 03F58463 		add	r3, r3, #1056
 347 002a 10F833E0 		ldrb	lr, [r0, r3, lsl #3]	@ zero_extendqisi2
 348 002e BEF1000E 		subs	lr, lr, #0
ARM GAS  C:\Users\leopi\AppData\Local\Temp\ccMCNSog.s 			page 8


 349 0032 18BF     		it	ne
 350 0034 4FF0010E 		movne	lr, #1
 351              		.loc 1 60 35 view .LVU77
 352 0038 00EBC303 		add	r3, r0, r3, lsl #3
 353 003c 83F804E0 		strb	lr, [r3, #4]
  61:C:/Users/leopi/Documents/vs/S-Reo/MazeLibrary\Searching.c ****     maze->RawNode[x][y].draw = maze->RawNode[x][y].existence;           //南
 354              		.loc 1 61 5 is_stmt 1 view .LVU78
 355              		.loc 1 61 51 is_stmt 0 view .LVU79
 356 0040 0CEB0203 		add	r3, ip, r2
 357 0044 10F833C0 		ldrb	ip, [r0, r3, lsl #3]	@ zero_extendqisi2
 358 0048 BCF1000C 		subs	ip, ip, #0
 359 004c 18BF     		it	ne
 360 004e 4FF0010C 		movne	ip, #1
 361              		.loc 1 61 30 view .LVU80
 362 0052 00EBC303 		add	r3, r0, r3, lsl #3
 363 0056 83F804C0 		strb	ip, [r3, #4]
  62:C:/Users/leopi/Documents/vs/S-Reo/MazeLibrary\Searching.c ****     maze->ColumnNode[x][y].draw = maze->ColumnNode[x][y].existence;     //西
 364              		.loc 1 62 5 is_stmt 1 view .LVU81
 365              		.loc 1 62 57 is_stmt 0 view .LVU82
 366 005a 02EB4112 		add	r2, r2, r1, lsl #5
 367              	.LVL13:
 368              		.loc 1 62 57 view .LVU83
 369 005e 02F58462 		add	r2, r2, #1056
 370 0062 10F83230 		ldrb	r3, [r0, r2, lsl #3]	@ zero_extendqisi2
 371 0066 003B     		subs	r3, r3, #0
 372 0068 18BF     		it	ne
 373 006a 0123     		movne	r3, #1
 374              		.loc 1 62 33 view .LVU84
 375 006c 00EBC200 		add	r0, r0, r2, lsl #3
 376              	.LVL14:
 377              		.loc 1 62 33 view .LVU85
 378 0070 0371     		strb	r3, [r0, #4]
  63:C:/Users/leopi/Documents/vs/S-Reo/MazeLibrary\Searching.c **** }
 379              		.loc 1 63 1 view .LVU86
 380 0072 5DF804FB 		ldr	pc, [sp], #4
 381              		.cfi_endproc
 382              	.LFE9:
 384              		.section	.rodata.setNextPosition.str1.4,"aMS",%progbits,1
 385              		.align	2
 386              	.LC3:
 387 0000 E696B9E8 		.ascii	"\346\226\271\350\247\222\343\203\237\343\202\271\015"
 387      A792E383 
 387      9FE382B9 
 387      0D
 388 000d 00       		.ascii	"\000"
 389              		.section	.text.setNextPosition,"ax",%progbits
 390              		.align	1
 391              		.global	setNextPosition
 392              		.syntax unified
 393              		.thumb
 394              		.thumb_func
 396              	setNextPosition:
 397              	.LVL15:
 398              	.LFB10:
  64:C:/Users/leopi/Documents/vs/S-Reo/MazeLibrary\Searching.c **** 
  65:C:/Users/leopi/Documents/vs/S-Reo/MazeLibrary\Searching.c **** 
  66:C:/Users/leopi/Documents/vs/S-Reo/MazeLibrary\Searching.c **** // 探索に必要な迷路データ、プロフィールの処理
ARM GAS  C:\Users\leopi\AppData\Local\Temp\ccMCNSog.s 			page 9


  67:C:/Users/leopi/Documents/vs/S-Reo/MazeLibrary\Searching.c **** // 迷路データ、プロフィールの更新用の関数など
  68:C:/Users/leopi/Documents/vs/S-Reo/MazeLibrary\Searching.c **** 
  69:C:/Users/leopi/Documents/vs/S-Reo/MazeLibrary\Searching.c **** /* ----- 探索者データ管理 ここから----- */
  70:C:/Users/leopi/Documents/vs/S-Reo/MazeLibrary\Searching.c **** void setNextPosition(state *st)
  71:C:/Users/leopi/Documents/vs/S-Reo/MazeLibrary\Searching.c **** {
 399              		.loc 1 71 1 is_stmt 1 view -0
 400              		.cfi_startproc
 401              		@ args = 0, pretend = 0, frame = 0
 402              		@ frame_needed = 0, uses_anonymous_args = 0
 403              		.loc 1 71 1 is_stmt 0 view .LVU88
 404 0000 08B5     		push	{r3, lr}
 405              	.LCFI2:
 406              		.cfi_def_cfa_offset 8
 407              		.cfi_offset 3, -8
 408              		.cfi_offset 14, -4
  72:C:/Users/leopi/Documents/vs/S-Reo/MazeLibrary\Searching.c ****     switch (st->car)
 409              		.loc 1 72 5 is_stmt 1 view .LVU89
 410              		.loc 1 72 15 is_stmt 0 view .LVU90
 411 0002 8378     		ldrb	r3, [r0, #2]	@ zero_extendqisi2
 412              		.loc 1 72 5 view .LVU91
 413 0004 062B     		cmp	r3, #6
 414 0006 1CD8     		bhi	.L20
 415 0008 DFE803F0 		tbb	[pc, r3]
 416              	.L22:
 417 000c 04       		.byte	(.L26-.L22)/2
 418 000d 08       		.byte	(.L25-.L22)/2
 419 000e 0F       		.byte	(.L24-.L22)/2
 420 000f 1B       		.byte	(.L20-.L22)/2
 421 0010 13       		.byte	(.L23-.L22)/2
 422 0011 1B       		.byte	(.L20-.L22)/2
 423 0012 17       		.byte	(.L21-.L22)/2
 424 0013 00       		.p2align 1
 425              	.L26:
  73:C:/Users/leopi/Documents/vs/S-Reo/MazeLibrary\Searching.c ****     {
  74:C:/Users/leopi/Documents/vs/S-Reo/MazeLibrary\Searching.c ****     case north:
  75:C:/Users/leopi/Documents/vs/S-Reo/MazeLibrary\Searching.c ****         st->pos.x += 0;
 426              		.loc 1 75 9 is_stmt 1 view .LVU92
  76:C:/Users/leopi/Documents/vs/S-Reo/MazeLibrary\Searching.c ****         st->pos.y += 1;
 427              		.loc 1 76 9 view .LVU93
 428              		.loc 1 76 19 is_stmt 0 view .LVU94
 429 0014 4378     		ldrb	r3, [r0, #1]	@ zero_extendqisi2
 430 0016 0133     		adds	r3, r3, #1
 431 0018 4370     		strb	r3, [r0, #1]
  77:C:/Users/leopi/Documents/vs/S-Reo/MazeLibrary\Searching.c ****         /* code */
  78:C:/Users/leopi/Documents/vs/S-Reo/MazeLibrary\Searching.c ****         break;
 432              		.loc 1 78 9 is_stmt 1 view .LVU95
 433              	.LVL16:
 434              	.L19:
  79:C:/Users/leopi/Documents/vs/S-Reo/MazeLibrary\Searching.c ****     case ne: //斜めのときの座標の変更条件をうまくやる
  80:C:/Users/leopi/Documents/vs/S-Reo/MazeLibrary\Searching.c ****         if(1);
  81:C:/Users/leopi/Documents/vs/S-Reo/MazeLibrary\Searching.c ****         st->pos.x += 1;
  82:C:/Users/leopi/Documents/vs/S-Reo/MazeLibrary\Searching.c ****         st->pos.y += 0;
  83:C:/Users/leopi/Documents/vs/S-Reo/MazeLibrary\Searching.c ****         
  84:C:/Users/leopi/Documents/vs/S-Reo/MazeLibrary\Searching.c ****         st->pos.x += 0;
  85:C:/Users/leopi/Documents/vs/S-Reo/MazeLibrary\Searching.c ****         st->pos.y += 1;
  86:C:/Users/leopi/Documents/vs/S-Reo/MazeLibrary\Searching.c ****         break;
  87:C:/Users/leopi/Documents/vs/S-Reo/MazeLibrary\Searching.c ****     case east:
ARM GAS  C:\Users\leopi\AppData\Local\Temp\ccMCNSog.s 			page 10


  88:C:/Users/leopi/Documents/vs/S-Reo/MazeLibrary\Searching.c ****         st->pos.x += 1;
  89:C:/Users/leopi/Documents/vs/S-Reo/MazeLibrary\Searching.c ****         st->pos.y += 0; 
  90:C:/Users/leopi/Documents/vs/S-Reo/MazeLibrary\Searching.c ****         break;
  91:C:/Users/leopi/Documents/vs/S-Reo/MazeLibrary\Searching.c ****     case south:
  92:C:/Users/leopi/Documents/vs/S-Reo/MazeLibrary\Searching.c ****         st->pos.x += 0;
  93:C:/Users/leopi/Documents/vs/S-Reo/MazeLibrary\Searching.c ****         st->pos.y += -1;  
  94:C:/Users/leopi/Documents/vs/S-Reo/MazeLibrary\Searching.c ****         /* code */
  95:C:/Users/leopi/Documents/vs/S-Reo/MazeLibrary\Searching.c ****         break;
  96:C:/Users/leopi/Documents/vs/S-Reo/MazeLibrary\Searching.c ****     case west:
  97:C:/Users/leopi/Documents/vs/S-Reo/MazeLibrary\Searching.c ****         st->pos.x += -1;
  98:C:/Users/leopi/Documents/vs/S-Reo/MazeLibrary\Searching.c ****         st->pos.y += 0; 
  99:C:/Users/leopi/Documents/vs/S-Reo/MazeLibrary\Searching.c ****         break;
 100:C:/Users/leopi/Documents/vs/S-Reo/MazeLibrary\Searching.c ****     
 101:C:/Users/leopi/Documents/vs/S-Reo/MazeLibrary\Searching.c ****     default:
 102:C:/Users/leopi/Documents/vs/S-Reo/MazeLibrary\Searching.c ****         printf("方角ミス\r\n");
 103:C:/Users/leopi/Documents/vs/S-Reo/MazeLibrary\Searching.c ****         break;
 104:C:/Users/leopi/Documents/vs/S-Reo/MazeLibrary\Searching.c ****     }
 105:C:/Users/leopi/Documents/vs/S-Reo/MazeLibrary\Searching.c **** }
 435              		.loc 1 105 1 is_stmt 0 view .LVU96
 436 001a 08BD     		pop	{r3, pc}
 437              	.LVL17:
 438              	.L25:
  80:C:/Users/leopi/Documents/vs/S-Reo/MazeLibrary\Searching.c ****         st->pos.x += 1;
 439              		.loc 1 80 9 is_stmt 1 view .LVU97
  81:C:/Users/leopi/Documents/vs/S-Reo/MazeLibrary\Searching.c ****         st->pos.y += 0;
 440              		.loc 1 81 9 view .LVU98
  81:C:/Users/leopi/Documents/vs/S-Reo/MazeLibrary\Searching.c ****         st->pos.y += 0;
 441              		.loc 1 81 19 is_stmt 0 view .LVU99
 442 001c 0378     		ldrb	r3, [r0]	@ zero_extendqisi2
 443 001e 0133     		adds	r3, r3, #1
 444 0020 0370     		strb	r3, [r0]
  82:C:/Users/leopi/Documents/vs/S-Reo/MazeLibrary\Searching.c ****         
 445              		.loc 1 82 9 is_stmt 1 view .LVU100
  82:C:/Users/leopi/Documents/vs/S-Reo/MazeLibrary\Searching.c ****         
 446              		.loc 1 82 19 is_stmt 0 view .LVU101
 447 0022 4378     		ldrb	r3, [r0, #1]	@ zero_extendqisi2
  84:C:/Users/leopi/Documents/vs/S-Reo/MazeLibrary\Searching.c ****         st->pos.y += 1;
 448              		.loc 1 84 9 is_stmt 1 view .LVU102
  85:C:/Users/leopi/Documents/vs/S-Reo/MazeLibrary\Searching.c ****         break;
 449              		.loc 1 85 9 view .LVU103
  85:C:/Users/leopi/Documents/vs/S-Reo/MazeLibrary\Searching.c ****         break;
 450              		.loc 1 85 19 is_stmt 0 view .LVU104
 451 0024 0133     		adds	r3, r3, #1
 452 0026 4370     		strb	r3, [r0, #1]
  86:C:/Users/leopi/Documents/vs/S-Reo/MazeLibrary\Searching.c ****     case east:
 453              		.loc 1 86 9 is_stmt 1 view .LVU105
 454 0028 F7E7     		b	.L19
 455              	.L24:
  88:C:/Users/leopi/Documents/vs/S-Reo/MazeLibrary\Searching.c ****         st->pos.y += 0; 
 456              		.loc 1 88 9 view .LVU106
  88:C:/Users/leopi/Documents/vs/S-Reo/MazeLibrary\Searching.c ****         st->pos.y += 0; 
 457              		.loc 1 88 19 is_stmt 0 view .LVU107
 458 002a 0378     		ldrb	r3, [r0]	@ zero_extendqisi2
 459 002c 0133     		adds	r3, r3, #1
 460 002e 0370     		strb	r3, [r0]
  89:C:/Users/leopi/Documents/vs/S-Reo/MazeLibrary\Searching.c ****         break;
 461              		.loc 1 89 9 is_stmt 1 view .LVU108
ARM GAS  C:\Users\leopi\AppData\Local\Temp\ccMCNSog.s 			page 11


  90:C:/Users/leopi/Documents/vs/S-Reo/MazeLibrary\Searching.c ****     case south:
 462              		.loc 1 90 9 view .LVU109
 463 0030 F3E7     		b	.L19
 464              	.L23:
  92:C:/Users/leopi/Documents/vs/S-Reo/MazeLibrary\Searching.c ****         st->pos.y += -1;  
 465              		.loc 1 92 9 view .LVU110
  93:C:/Users/leopi/Documents/vs/S-Reo/MazeLibrary\Searching.c ****         /* code */
 466              		.loc 1 93 9 view .LVU111
  93:C:/Users/leopi/Documents/vs/S-Reo/MazeLibrary\Searching.c ****         /* code */
 467              		.loc 1 93 19 is_stmt 0 view .LVU112
 468 0032 4378     		ldrb	r3, [r0, #1]	@ zero_extendqisi2
 469 0034 013B     		subs	r3, r3, #1
 470 0036 4370     		strb	r3, [r0, #1]
  95:C:/Users/leopi/Documents/vs/S-Reo/MazeLibrary\Searching.c ****     case west:
 471              		.loc 1 95 9 is_stmt 1 view .LVU113
 472 0038 EFE7     		b	.L19
 473              	.L21:
  97:C:/Users/leopi/Documents/vs/S-Reo/MazeLibrary\Searching.c ****         st->pos.y += 0; 
 474              		.loc 1 97 9 view .LVU114
  97:C:/Users/leopi/Documents/vs/S-Reo/MazeLibrary\Searching.c ****         st->pos.y += 0; 
 475              		.loc 1 97 19 is_stmt 0 view .LVU115
 476 003a 0378     		ldrb	r3, [r0]	@ zero_extendqisi2
 477 003c 013B     		subs	r3, r3, #1
 478 003e 0370     		strb	r3, [r0]
  98:C:/Users/leopi/Documents/vs/S-Reo/MazeLibrary\Searching.c ****         break;
 479              		.loc 1 98 9 is_stmt 1 view .LVU116
  99:C:/Users/leopi/Documents/vs/S-Reo/MazeLibrary\Searching.c ****     
 480              		.loc 1 99 9 view .LVU117
 481 0040 EBE7     		b	.L19
 482              	.L20:
 102:C:/Users/leopi/Documents/vs/S-Reo/MazeLibrary\Searching.c ****         break;
 483              		.loc 1 102 9 view .LVU118
 484 0042 0248     		ldr	r0, .L29
 485              	.LVL18:
 102:C:/Users/leopi/Documents/vs/S-Reo/MazeLibrary\Searching.c ****         break;
 486              		.loc 1 102 9 is_stmt 0 view .LVU119
 487 0044 FFF7FEFF 		bl	puts
 488              	.LVL19:
 103:C:/Users/leopi/Documents/vs/S-Reo/MazeLibrary\Searching.c ****     }
 489              		.loc 1 103 9 is_stmt 1 view .LVU120
 490              		.loc 1 105 1 is_stmt 0 view .LVU121
 491 0048 E7E7     		b	.L19
 492              	.L30:
 493 004a 00BF     		.align	2
 494              	.L29:
 495 004c 00000000 		.word	.LC3
 496              		.cfi_endproc
 497              	.LFE10:
 499              		.section	.text.setPosition,"ax",%progbits
 500              		.align	1
 501              		.global	setPosition
 502              		.syntax unified
 503              		.thumb
 504              		.thumb_func
 506              	setPosition:
 507              	.LVL20:
 508              	.LFB11:
ARM GAS  C:\Users\leopi\AppData\Local\Temp\ccMCNSog.s 			page 12


 106:C:/Users/leopi/Documents/vs/S-Reo/MazeLibrary\Searching.c **** void setPosition(position *pos,uint8_t x, uint8_t y)
 107:C:/Users/leopi/Documents/vs/S-Reo/MazeLibrary\Searching.c **** {
 509              		.loc 1 107 1 is_stmt 1 view -0
 510              		.cfi_startproc
 511              		@ args = 0, pretend = 0, frame = 0
 512              		@ frame_needed = 0, uses_anonymous_args = 0
 513              		@ link register save eliminated.
 108:C:/Users/leopi/Documents/vs/S-Reo/MazeLibrary\Searching.c ****     pos->x = x;
 514              		.loc 1 108 5 view .LVU123
 515              		.loc 1 108 12 is_stmt 0 view .LVU124
 516 0000 0170     		strb	r1, [r0]
 109:C:/Users/leopi/Documents/vs/S-Reo/MazeLibrary\Searching.c ****     pos->y = y;
 517              		.loc 1 109 5 is_stmt 1 view .LVU125
 518              		.loc 1 109 12 is_stmt 0 view .LVU126
 519 0002 4270     		strb	r2, [r0, #1]
 110:C:/Users/leopi/Documents/vs/S-Reo/MazeLibrary\Searching.c **** }
 520              		.loc 1 110 1 view .LVU127
 521 0004 7047     		bx	lr
 522              		.cfi_endproc
 523              	.LFE11:
 525              		.section	.text.setGoal,"ax",%progbits
 526              		.align	1
 527              		.global	setGoal
 528              		.syntax unified
 529              		.thumb
 530              		.thumb_func
 532              	setGoal:
 533              	.LVL21:
 534              	.LFB12:
 111:C:/Users/leopi/Documents/vs/S-Reo/MazeLibrary\Searching.c **** void setGoal(profile *prof)
 112:C:/Users/leopi/Documents/vs/S-Reo/MazeLibrary\Searching.c **** {
 535              		.loc 1 112 1 is_stmt 1 view -0
 536              		.cfi_startproc
 537              		@ args = 0, pretend = 0, frame = 0
 538              		@ frame_needed = 0, uses_anonymous_args = 0
 539              		.loc 1 112 1 is_stmt 0 view .LVU129
 540 0000 10B5     		push	{r4, lr}
 541              	.LCFI3:
 542              		.cfi_def_cfa_offset 8
 543              		.cfi_offset 4, -8
 544              		.cfi_offset 14, -4
 545 0002 0446     		mov	r4, r0
 113:C:/Users/leopi/Documents/vs/S-Reo/MazeLibrary\Searching.c ****     setPosition( &(prof->target_pos) , GOAL_X, GOAL_Y );
 546              		.loc 1 113 5 is_stmt 1 view .LVU130
 547 0004 0222     		movs	r2, #2
 548 0006 1146     		mov	r1, r2
 549 0008 FFF7FEFF 		bl	setPosition
 550              	.LVL22:
 114:C:/Users/leopi/Documents/vs/S-Reo/MazeLibrary\Searching.c ****     setPosition( &(prof->target_size), GOAL_SIZE_X, GOAL_SIZE_Y );
 551              		.loc 1 114 5 view .LVU131
 552 000c 0222     		movs	r2, #2
 553 000e 1146     		mov	r1, r2
 554 0010 A018     		adds	r0, r4, r2
 555 0012 FFF7FEFF 		bl	setPosition
 556              	.LVL23:
 115:C:/Users/leopi/Documents/vs/S-Reo/MazeLibrary\Searching.c **** }
 557              		.loc 1 115 1 is_stmt 0 view .LVU132
ARM GAS  C:\Users\leopi\AppData\Local\Temp\ccMCNSog.s 			page 13


 558 0016 10BD     		pop	{r4, pc}
 559              		.loc 1 115 1 view .LVU133
 560              		.cfi_endproc
 561              	.LFE12:
 563              		.section	.text.setCardinal,"ax",%progbits
 564              		.align	1
 565              		.global	setCardinal
 566              		.syntax unified
 567              		.thumb
 568              		.thumb_func
 570              	setCardinal:
 571              	.LVL24:
 572              	.LFB13:
 116:C:/Users/leopi/Documents/vs/S-Reo/MazeLibrary\Searching.c **** void setCardinal(state *st, cardinal car)
 117:C:/Users/leopi/Documents/vs/S-Reo/MazeLibrary\Searching.c **** {
 573              		.loc 1 117 1 is_stmt 1 view -0
 574              		.cfi_startproc
 575              		@ args = 0, pretend = 0, frame = 0
 576              		@ frame_needed = 0, uses_anonymous_args = 0
 577              		@ link register save eliminated.
 118:C:/Users/leopi/Documents/vs/S-Reo/MazeLibrary\Searching.c ****     st->car = car;
 578              		.loc 1 118 5 view .LVU135
 579              		.loc 1 118 13 is_stmt 0 view .LVU136
 580 0000 8170     		strb	r1, [r0, #2]
 119:C:/Users/leopi/Documents/vs/S-Reo/MazeLibrary\Searching.c **** }
 581              		.loc 1 119 1 view .LVU137
 582 0002 7047     		bx	lr
 583              		.cfi_endproc
 584              	.LFE13:
 586              		.section	.text.setWallExistence,"ax",%progbits
 587              		.align	1
 588              		.global	setWallExistence
 589              		.syntax unified
 590              		.thumb
 591              		.thumb_func
 593              	setWallExistence:
 594              	.LVL25:
 595              	.LFB14:
 120:C:/Users/leopi/Documents/vs/S-Reo/MazeLibrary\Searching.c **** void setWallExistence(wall_existence *existence, wall_state *state)
 121:C:/Users/leopi/Documents/vs/S-Reo/MazeLibrary\Searching.c **** {
 596              		.loc 1 121 1 is_stmt 1 view -0
 597              		.cfi_startproc
 598              		@ args = 0, pretend = 0, frame = 0
 599              		@ frame_needed = 0, uses_anonymous_args = 0
 600              		@ link register save eliminated.
 122:C:/Users/leopi/Documents/vs/S-Reo/MazeLibrary\Searching.c ****     existence->north = state[0];
 601              		.loc 1 122 5 view .LVU139
 602              		.loc 1 122 29 is_stmt 0 view .LVU140
 603 0000 0A78     		ldrb	r2, [r1]	@ zero_extendqisi2
 604              		.loc 1 122 22 view .LVU141
 605 0002 0378     		ldrb	r3, [r0]	@ zero_extendqisi2
 606 0004 62F30103 		bfi	r3, r2, #0, #2
 607 0008 0370     		strb	r3, [r0]
 123:C:/Users/leopi/Documents/vs/S-Reo/MazeLibrary\Searching.c ****     existence->east = state[1];
 608              		.loc 1 123 5 is_stmt 1 view .LVU142
 609              		.loc 1 123 28 is_stmt 0 view .LVU143
 610 000a 4A78     		ldrb	r2, [r1, #1]	@ zero_extendqisi2
ARM GAS  C:\Users\leopi\AppData\Local\Temp\ccMCNSog.s 			page 14


 611              		.loc 1 123 21 view .LVU144
 612 000c DBB2     		uxtb	r3, r3
 613 000e 62F38303 		bfi	r3, r2, #2, #2
 614 0012 0370     		strb	r3, [r0]
 124:C:/Users/leopi/Documents/vs/S-Reo/MazeLibrary\Searching.c ****     existence->south = state[2];
 615              		.loc 1 124 5 is_stmt 1 view .LVU145
 616              		.loc 1 124 29 is_stmt 0 view .LVU146
 617 0014 8A78     		ldrb	r2, [r1, #2]	@ zero_extendqisi2
 618              		.loc 1 124 22 view .LVU147
 619 0016 DBB2     		uxtb	r3, r3
 620 0018 62F30513 		bfi	r3, r2, #4, #2
 621 001c 0370     		strb	r3, [r0]
 125:C:/Users/leopi/Documents/vs/S-Reo/MazeLibrary\Searching.c ****     existence->west = state[3];
 622              		.loc 1 125 5 is_stmt 1 view .LVU148
 623              		.loc 1 125 28 is_stmt 0 view .LVU149
 624 001e CA78     		ldrb	r2, [r1, #3]	@ zero_extendqisi2
 625              		.loc 1 125 21 view .LVU150
 626 0020 DBB2     		uxtb	r3, r3
 627 0022 62F38713 		bfi	r3, r2, #6, #2
 628 0026 0370     		strb	r3, [r0]
 126:C:/Users/leopi/Documents/vs/S-Reo/MazeLibrary\Searching.c **** }
 629              		.loc 1 126 1 view .LVU151
 630 0028 7047     		bx	lr
 631              		.cfi_endproc
 632              	.LFE14:
 634              		.section	.rodata.initState.str1.4,"aMS",%progbits,1
 635              		.align	2
 636              	.LC4:
 637 0000 25702C20 		.ascii	"%p, \000"
 637      00
 638 0005 000000   		.align	2
 639              	.LC5:
 640 0008 E381840D 		.ascii	"\343\201\204\015\000"
 640      00
 641              		.section	.text.initState,"ax",%progbits
 642              		.align	1
 643              		.global	initState
 644              		.syntax unified
 645              		.thumb
 646              		.thumb_func
 648              	initState:
 649              	.LVL26:
 650              	.LFB15:
 127:C:/Users/leopi/Documents/vs/S-Reo/MazeLibrary\Searching.c **** 
 128:C:/Users/leopi/Documents/vs/S-Reo/MazeLibrary\Searching.c **** //斜め方角で壁情報どうするか.壁情報では斜め使わない.向きだけ
 129:C:/Users/leopi/Documents/vs/S-Reo/MazeLibrary\Searching.c **** void initState(state *log_st, int n, node *nd)
 130:C:/Users/leopi/Documents/vs/S-Reo/MazeLibrary\Searching.c **** {
 651              		.loc 1 130 1 is_stmt 1 view -0
 652              		.cfi_startproc
 653              		@ args = 0, pretend = 0, frame = 0
 654              		@ frame_needed = 0, uses_anonymous_args = 0
 655              		.loc 1 130 1 is_stmt 0 view .LVU153
 656 0000 F8B5     		push	{r3, r4, r5, r6, r7, lr}
 657              	.LCFI4:
 658              		.cfi_def_cfa_offset 24
 659              		.cfi_offset 3, -24
 660              		.cfi_offset 4, -20
ARM GAS  C:\Users\leopi\AppData\Local\Temp\ccMCNSog.s 			page 15


 661              		.cfi_offset 5, -16
 662              		.cfi_offset 6, -12
 663              		.cfi_offset 7, -8
 664              		.cfi_offset 14, -4
 665 0002 0746     		mov	r7, r0
 666 0004 0C46     		mov	r4, r1
 667 0006 1646     		mov	r6, r2
 131:C:/Users/leopi/Documents/vs/S-Reo/MazeLibrary\Searching.c ****     for(int i=0; i < n; i++)
 668              		.loc 1 131 5 is_stmt 1 view .LVU154
 669              	.LBB2:
 670              		.loc 1 131 9 view .LVU155
 671              	.LVL27:
 672              		.loc 1 131 13 is_stmt 0 view .LVU156
 673 0008 0025     		movs	r5, #0
 674              		.loc 1 131 5 view .LVU157
 675 000a 09E0     		b	.L37
 676              	.LVL28:
 677              	.L38:
 132:C:/Users/leopi/Documents/vs/S-Reo/MazeLibrary\Searching.c ****     {
 133:C:/Users/leopi/Documents/vs/S-Reo/MazeLibrary\Searching.c ****         log_st[n].node = nd;
 678              		.loc 1 133 9 is_stmt 1 discriminator 3 view .LVU158
 679              		.loc 1 133 15 is_stmt 0 discriminator 3 view .LVU159
 680 000c 04EB4403 		add	r3, r4, r4, lsl #1
 681 0010 07EB8303 		add	r3, r7, r3, lsl #2
 682              		.loc 1 133 24 discriminator 3 view .LVU160
 683 0014 9E60     		str	r6, [r3, #8]
 134:C:/Users/leopi/Documents/vs/S-Reo/MazeLibrary\Searching.c ****         printf("%p, ",log_st[n].node);
 684              		.loc 1 134 9 is_stmt 1 discriminator 3 view .LVU161
 685 0016 3146     		mov	r1, r6
 686 0018 0448     		ldr	r0, .L40
 687 001a FFF7FEFF 		bl	printf
 688              	.LVL29:
 131:C:/Users/leopi/Documents/vs/S-Reo/MazeLibrary\Searching.c ****     for(int i=0; i < n; i++)
 689              		.loc 1 131 25 discriminator 3 view .LVU162
 131:C:/Users/leopi/Documents/vs/S-Reo/MazeLibrary\Searching.c ****     for(int i=0; i < n; i++)
 690              		.loc 1 131 26 is_stmt 0 discriminator 3 view .LVU163
 691 001e 0135     		adds	r5, r5, #1
 692              	.LVL30:
 693              	.L37:
 131:C:/Users/leopi/Documents/vs/S-Reo/MazeLibrary\Searching.c ****     for(int i=0; i < n; i++)
 694              		.loc 1 131 18 is_stmt 1 discriminator 1 view .LVU164
 131:C:/Users/leopi/Documents/vs/S-Reo/MazeLibrary\Searching.c ****     for(int i=0; i < n; i++)
 695              		.loc 1 131 5 is_stmt 0 discriminator 1 view .LVU165
 696 0020 A542     		cmp	r5, r4
 697 0022 F3DB     		blt	.L38
 698              	.LBE2:
 135:C:/Users/leopi/Documents/vs/S-Reo/MazeLibrary\Searching.c ****     }
 136:C:/Users/leopi/Documents/vs/S-Reo/MazeLibrary\Searching.c ****     printf("い\r\n");
 699              		.loc 1 136 5 is_stmt 1 view .LVU166
 700 0024 0248     		ldr	r0, .L40+4
 701 0026 FFF7FEFF 		bl	puts
 702              	.LVL31:
 137:C:/Users/leopi/Documents/vs/S-Reo/MazeLibrary\Searching.c **** }
 703              		.loc 1 137 1 is_stmt 0 view .LVU167
 704 002a F8BD     		pop	{r3, r4, r5, r6, r7, pc}
 705              	.LVL32:
 706              	.L41:
ARM GAS  C:\Users\leopi\AppData\Local\Temp\ccMCNSog.s 			page 16


 707              		.loc 1 137 1 view .LVU168
 708              		.align	2
 709              	.L40:
 710 002c 00000000 		.word	.LC4
 711 0030 08000000 		.word	.LC5
 712              		.cfi_endproc
 713              	.LFE15:
 715              		.section	.text.initProfile,"ax",%progbits
 716              		.align	1
 717              		.global	initProfile
 718              		.syntax unified
 719              		.thumb
 720              		.thumb_func
 722              	initProfile:
 723              	.LVL33:
 724              	.LFB16:
 138:C:/Users/leopi/Documents/vs/S-Reo/MazeLibrary\Searching.c **** void initProfile(profile *prof, maze_node *maze)
 139:C:/Users/leopi/Documents/vs/S-Reo/MazeLibrary\Searching.c **** {
 725              		.loc 1 139 1 is_stmt 1 view -0
 726              		.cfi_startproc
 727              		@ args = 0, pretend = 0, frame = 8
 728              		@ frame_needed = 0, uses_anonymous_args = 0
 729              		.loc 1 139 1 is_stmt 0 view .LVU170
 730 0000 F0B5     		push	{r4, r5, r6, r7, lr}
 731              	.LCFI5:
 732              		.cfi_def_cfa_offset 20
 733              		.cfi_offset 4, -20
 734              		.cfi_offset 5, -16
 735              		.cfi_offset 6, -12
 736              		.cfi_offset 7, -8
 737              		.cfi_offset 14, -4
 738 0002 83B0     		sub	sp, sp, #12
 739              	.LCFI6:
 740              		.cfi_def_cfa_offset 32
 741 0004 0446     		mov	r4, r0
 742 0006 0D46     		mov	r5, r1
 140:C:/Users/leopi/Documents/vs/S-Reo/MazeLibrary\Searching.c ****     setGoal(prof);
 743              		.loc 1 140 5 is_stmt 1 view .LVU171
 744 0008 FFF7FEFF 		bl	setGoal
 745              	.LVL34:
 141:C:/Users/leopi/Documents/vs/S-Reo/MazeLibrary\Searching.c **** 
 142:C:/Users/leopi/Documents/vs/S-Reo/MazeLibrary\Searching.c ****     setPosition(&(prof->now.pos), 0, 0);
 746              		.loc 1 142 5 view .LVU172
 747 000c 261D     		adds	r6, r4, #4
 748 000e 0022     		movs	r2, #0
 749 0010 1146     		mov	r1, r2
 750 0012 3046     		mov	r0, r6
 751 0014 FFF7FEFF 		bl	setPosition
 752              	.LVL35:
 143:C:/Users/leopi/Documents/vs/S-Reo/MazeLibrary\Searching.c ****     setCardinal(&(prof->now), north);
 753              		.loc 1 143 5 view .LVU173
 754 0018 0021     		movs	r1, #0
 755 001a 3046     		mov	r0, r6
 756 001c FFF7FEFF 		bl	setCardinal
 757              	.LVL36:
 144:C:/Users/leopi/Documents/vs/S-Reo/MazeLibrary\Searching.c ****     prof->now.dir = front;
 758              		.loc 1 144 5 view .LVU174
ARM GAS  C:\Users\leopi\AppData\Local\Temp\ccMCNSog.s 			page 17


 759              		.loc 1 144 19 is_stmt 0 view .LVU175
 760 0020 0026     		movs	r6, #0
 761 0022 E671     		strb	r6, [r4, #7]
 145:C:/Users/leopi/Documents/vs/S-Reo/MazeLibrary\Searching.c **** 
 146:C:/Users/leopi/Documents/vs/S-Reo/MazeLibrary\Searching.c ****     setPosition(&(prof->next.pos), 0, 1);
 762              		.loc 1 146 5 is_stmt 1 view .LVU176
 763 0024 04F11007 		add	r7, r4, #16
 764 0028 0122     		movs	r2, #1
 765 002a 3146     		mov	r1, r6
 766 002c 3846     		mov	r0, r7
 767 002e FFF7FEFF 		bl	setPosition
 768              	.LVL37:
 147:C:/Users/leopi/Documents/vs/S-Reo/MazeLibrary\Searching.c ****     setCardinal(&(prof->next), north);
 769              		.loc 1 147 5 view .LVU177
 770 0032 3146     		mov	r1, r6
 771 0034 3846     		mov	r0, r7
 772 0036 FFF7FEFF 		bl	setCardinal
 773              	.LVL38:
 148:C:/Users/leopi/Documents/vs/S-Reo/MazeLibrary\Searching.c **** 
 149:C:/Users/leopi/Documents/vs/S-Reo/MazeLibrary\Searching.c ****     InitVisit();
 774              		.loc 1 149 5 view .LVU178
 775 003a FFF7FEFF 		bl	InitVisit
 776              	.LVL39:
 150:C:/Users/leopi/Documents/vs/S-Reo/MazeLibrary\Searching.c ****     // prof->next.dir = 1; //not use while running
 151:C:/Users/leopi/Documents/vs/S-Reo/MazeLibrary\Searching.c ****     //壁のセット
 152:C:/Users/leopi/Documents/vs/S-Reo/MazeLibrary\Searching.c ****     wall_state w_st[4]={
 777              		.loc 1 152 5 view .LVU179
 778              		.loc 1 152 16 is_stmt 0 view .LVU180
 779 003e 0A4B     		ldr	r3, .L44
 780 0040 1A68     		ldr	r2, [r3]
 781 0042 0192     		str	r2, [sp, #4]
 153:C:/Users/leopi/Documents/vs/S-Reo/MazeLibrary\Searching.c ****         NOWALL,
 154:C:/Users/leopi/Documents/vs/S-Reo/MazeLibrary\Searching.c ****         WALL,
 155:C:/Users/leopi/Documents/vs/S-Reo/MazeLibrary\Searching.c ****         WALL,
 156:C:/Users/leopi/Documents/vs/S-Reo/MazeLibrary\Searching.c ****         WALL
 157:C:/Users/leopi/Documents/vs/S-Reo/MazeLibrary\Searching.c ****     },
 158:C:/Users/leopi/Documents/vs/S-Reo/MazeLibrary\Searching.c ****     next[4]={
 782              		.loc 1 158 5 view .LVU181
 783 0044 5B68     		ldr	r3, [r3, #4]
 784 0046 0093     		str	r3, [sp]
 159:C:/Users/leopi/Documents/vs/S-Reo/MazeLibrary\Searching.c ****         UNKNOWN,
 160:C:/Users/leopi/Documents/vs/S-Reo/MazeLibrary\Searching.c ****         UNKNOWN,
 161:C:/Users/leopi/Documents/vs/S-Reo/MazeLibrary\Searching.c ****         NOWALL,
 162:C:/Users/leopi/Documents/vs/S-Reo/MazeLibrary\Searching.c ****         WALL
 163:C:/Users/leopi/Documents/vs/S-Reo/MazeLibrary\Searching.c ****     };
 164:C:/Users/leopi/Documents/vs/S-Reo/MazeLibrary\Searching.c ****     setWallExistence(&(prof->now.wall), &w_st[0]);
 785              		.loc 1 164 5 is_stmt 1 view .LVU182
 786 0048 01A9     		add	r1, sp, #4
 787 004a 04F10800 		add	r0, r4, #8
 788 004e FFF7FEFF 		bl	setWallExistence
 789              	.LVL40:
 165:C:/Users/leopi/Documents/vs/S-Reo/MazeLibrary\Searching.c ****     setWallExistence(&(prof->next.wall), &next[0]);
 790              		.loc 1 165 5 view .LVU183
 791 0052 6946     		mov	r1, sp
 792 0054 04F11400 		add	r0, r4, #20
 793 0058 FFF7FEFF 		bl	setWallExistence
 794              	.LVL41:
ARM GAS  C:\Users\leopi\AppData\Local\Temp\ccMCNSog.s 			page 18


 166:C:/Users/leopi/Documents/vs/S-Reo/MazeLibrary\Searching.c **** 
 167:C:/Users/leopi/Documents/vs/S-Reo/MazeLibrary\Searching.c ****     prof->now.node = &(maze->RawNode[0][0]);
 795              		.loc 1 167 5 view .LVU184
 796              		.loc 1 167 20 is_stmt 0 view .LVU185
 797 005c E560     		str	r5, [r4, #12]
 168:C:/Users/leopi/Documents/vs/S-Reo/MazeLibrary\Searching.c ****     prof->next.node = &(maze->RawNode[0][1]);
 798              		.loc 1 168 5 is_stmt 1 view .LVU186
 799              		.loc 1 168 23 is_stmt 0 view .LVU187
 800 005e 0835     		adds	r5, r5, #8
 801              	.LVL42:
 802              		.loc 1 168 21 view .LVU188
 803 0060 A561     		str	r5, [r4, #24]
 169:C:/Users/leopi/Documents/vs/S-Reo/MazeLibrary\Searching.c ****     // prof->now.node->rc = 0;
 170:C:/Users/leopi/Documents/vs/S-Reo/MazeLibrary\Searching.c ****     // prof->now.node->pos.x = 0;
 171:C:/Users/leopi/Documents/vs/S-Reo/MazeLibrary\Searching.c ****     // prof->now.node->pos.y = 0;
 172:C:/Users/leopi/Documents/vs/S-Reo/MazeLibrary\Searching.c **** }
 804              		.loc 1 172 1 view .LVU189
 805 0062 03B0     		add	sp, sp, #12
 806              	.LCFI7:
 807              		.cfi_def_cfa_offset 20
 808              		@ sp needed
 809 0064 F0BD     		pop	{r4, r5, r6, r7, pc}
 810              	.LVL43:
 811              	.L45:
 812              		.loc 1 172 1 view .LVU190
 813 0066 00BF     		.align	2
 814              	.L44:
 815 0068 00000000 		.word	.LANCHOR0
 816              		.cfi_endproc
 817              	.LFE16:
 819              		.section	.text.shiftState,"ax",%progbits
 820              		.align	1
 821              		.global	shiftState
 822              		.syntax unified
 823              		.thumb
 824              		.thumb_func
 826              	shiftState:
 827              	.LVL44:
 828              	.LFB17:
 173:C:/Users/leopi/Documents/vs/S-Reo/MazeLibrary\Searching.c **** void shiftState(profile *prof) //update
 174:C:/Users/leopi/Documents/vs/S-Reo/MazeLibrary\Searching.c **** {
 829              		.loc 1 174 1 is_stmt 1 view -0
 830              		.cfi_startproc
 831              		@ args = 0, pretend = 0, frame = 0
 832              		@ frame_needed = 0, uses_anonymous_args = 0
 833              		@ link register save eliminated.
 175:C:/Users/leopi/Documents/vs/S-Reo/MazeLibrary\Searching.c **** //	prof->now.node->visit = true;
 176:C:/Users/leopi/Documents/vs/S-Reo/MazeLibrary\Searching.c **** 
 177:C:/Users/leopi/Documents/vs/S-Reo/MazeLibrary\Searching.c ****     prof->now.car = prof->next.car;
 834              		.loc 1 177 5 view .LVU192
 835              		.loc 1 177 31 is_stmt 0 view .LVU193
 836 0000 837C     		ldrb	r3, [r0, #18]	@ zero_extendqisi2
 837              		.loc 1 177 19 view .LVU194
 838 0002 8371     		strb	r3, [r0, #6]
 178:C:/Users/leopi/Documents/vs/S-Reo/MazeLibrary\Searching.c ****    prof->now.dir = prof->next.dir;
 839              		.loc 1 178 4 is_stmt 1 view .LVU195
 840              		.loc 1 178 30 is_stmt 0 view .LVU196
ARM GAS  C:\Users\leopi\AppData\Local\Temp\ccMCNSog.s 			page 19


 841 0004 C37C     		ldrb	r3, [r0, #19]	@ zero_extendqisi2
 842              		.loc 1 178 18 view .LVU197
 843 0006 C371     		strb	r3, [r0, #7]
 179:C:/Users/leopi/Documents/vs/S-Reo/MazeLibrary\Searching.c ****     prof->now.pos = prof->next.pos;
 844              		.loc 1 179 5 is_stmt 1 view .LVU198
 845              		.loc 1 179 19 is_stmt 0 view .LVU199
 846 0008 038A     		ldrh	r3, [r0, #16]
 847 000a 8380     		strh	r3, [r0, #4]	@ movhi
 180:C:/Users/leopi/Documents/vs/S-Reo/MazeLibrary\Searching.c ****     prof->now.node = prof->next.node;//ポインタ渡し
 848              		.loc 1 180 5 is_stmt 1 view .LVU200
 849              		.loc 1 180 32 is_stmt 0 view .LVU201
 850 000c 8369     		ldr	r3, [r0, #24]
 851              		.loc 1 180 20 view .LVU202
 852 000e C360     		str	r3, [r0, #12]
 181:C:/Users/leopi/Documents/vs/S-Reo/MazeLibrary\Searching.c ****     prof->now.wall = prof->next.wall;
 853              		.loc 1 181 5 is_stmt 1 view .LVU203
 854              		.loc 1 181 20 is_stmt 0 view .LVU204
 855 0010 037D     		ldrb	r3, [r0, #20]	@ zero_extendqisi2
 856 0012 0372     		strb	r3, [r0, #8]
 182:C:/Users/leopi/Documents/vs/S-Reo/MazeLibrary\Searching.c **** }
 857              		.loc 1 182 1 view .LVU205
 858 0014 7047     		bx	lr
 859              		.cfi_endproc
 860              	.LFE17:
 862              		.section	.rodata.printState.str1.4,"aMS",%progbits,1
 863              		.align	2
 864              	.LC6:
 865 0000 20202020 		.ascii	"    \345\272\247\346\250\231    :   %u, %u\015\012\000"
 865      E5BAA7E6 
 865      A8992020 
 865      20203A20 
 865      20202575 
 866 001b 00       		.align	2
 867              	.LC7:
 868 001c 20202020 		.ascii	"    \346\226\271\350\247\222    :   %d\015\012\000"
 868      E696B9E8 
 868      A7922020 
 868      20203A20 
 868      20202564 
 869 0033 00       		.align	2
 870              	.LC8:
 871 0034 20202020 		.ascii	"    \345\220\221\343\201\215    :   %d\015\012\000"
 871      E59091E3 
 871      818D2020 
 871      20203A20 
 871      20202564 
 872 004b 00       		.align	2
 873              	.LC9:
 874 004c 20202020 		.ascii	"    \345\243\201      :   %u, %u, %u, %u\015\012\000"
 874      E5A38120 
 874      20202020 
 874      203A2020 
 874      2025752C 
 875 006e 0000     		.align	2
 876              	.LC10:
 877 0070 20202020 		.ascii	"    \343\203\216\343\203\274\343\203\211 :   \350\241"
 877      E3838EE3 
ARM GAS  C:\Users\leopi\AppData\Local\Temp\ccMCNSog.s 			page 20


 877      83BCE383 
 877      89203A20 
 877      2020E8A1 
 878 0084 8C283029 		.ascii	"\214(0) or \345\210\227(1) : %d, \343\203\216\343\203"
 878      206F7220 
 878      E5889728 
 878      3129203A 
 878      2025642C 
 879 009e BCE38389 		.ascii	"\274\343\203\211x : %u, \343\203\216\343\203\274\343"
 879      78203A20 
 879      25752C20 
 879      E3838EE3 
 879      83BCE3
 880 00b1 83897920 		.ascii	"\203\211y : %u, \351\207\215\343\201\277 : %u, \345"
 880      3A202575 
 880      2C20E987 
 880      8DE381BF 
 880      203A2025 
 881 00c9 A381E381 		.ascii	"\243\201\343\201\256\347\212\266\346\205\213 : %u\015"
 881      AEE78AB6 
 881      E6858B20 
 881      3A202575 
 881      0D
 882 00da 0A00     		.ascii	"\012\000"
 883              		.align	2
 884              	.LC11:
 885 00dc 0D00     		.ascii	"\015\000"
 886              		.section	.text.printState,"ax",%progbits
 887              		.align	1
 888              		.global	printState
 889              		.syntax unified
 890              		.thumb
 891              		.thumb_func
 893              	printState:
 894              	.LVL45:
 895              	.LFB18:
 183:C:/Users/leopi/Documents/vs/S-Reo/MazeLibrary\Searching.c **** 
 184:C:/Users/leopi/Documents/vs/S-Reo/MazeLibrary\Searching.c **** void printState(state *st)
 185:C:/Users/leopi/Documents/vs/S-Reo/MazeLibrary\Searching.c **** {
 896              		.loc 1 185 1 is_stmt 1 view -0
 897              		.cfi_startproc
 898              		@ args = 0, pretend = 0, frame = 0
 899              		@ frame_needed = 0, uses_anonymous_args = 0
 900              		.loc 1 185 1 is_stmt 0 view .LVU207
 901 0000 10B5     		push	{r4, lr}
 902              	.LCFI8:
 903              		.cfi_def_cfa_offset 8
 904              		.cfi_offset 4, -8
 905              		.cfi_offset 14, -4
 906 0002 82B0     		sub	sp, sp, #8
 907              	.LCFI9:
 908              		.cfi_def_cfa_offset 16
 909 0004 0446     		mov	r4, r0
 186:C:/Users/leopi/Documents/vs/S-Reo/MazeLibrary\Searching.c ****     printf("    座標    :   %u, %u\r\n", st->pos.x, st->pos.y);
 910              		.loc 1 186 5 is_stmt 1 view .LVU208
 911 0006 4278     		ldrb	r2, [r0, #1]	@ zero_extendqisi2
 912 0008 0178     		ldrb	r1, [r0]	@ zero_extendqisi2
ARM GAS  C:\Users\leopi\AppData\Local\Temp\ccMCNSog.s 			page 21


 913 000a 1348     		ldr	r0, .L49
 914              	.LVL46:
 915              		.loc 1 186 5 is_stmt 0 view .LVU209
 916 000c FFF7FEFF 		bl	printf
 917              	.LVL47:
 187:C:/Users/leopi/Documents/vs/S-Reo/MazeLibrary\Searching.c ****     printf("    方角    :   %d\r\n", st->car);
 918              		.loc 1 187 5 is_stmt 1 view .LVU210
 919 0010 A178     		ldrb	r1, [r4, #2]	@ zero_extendqisi2
 920 0012 1248     		ldr	r0, .L49+4
 921 0014 FFF7FEFF 		bl	printf
 922              	.LVL48:
 188:C:/Users/leopi/Documents/vs/S-Reo/MazeLibrary\Searching.c ****     printf("    向き    :   %d\r\n", st->dir);
 923              		.loc 1 188 5 view .LVU211
 924 0018 E178     		ldrb	r1, [r4, #3]	@ zero_extendqisi2
 925 001a 1148     		ldr	r0, .L49+8
 926 001c FFF7FEFF 		bl	printf
 927              	.LVL49:
 189:C:/Users/leopi/Documents/vs/S-Reo/MazeLibrary\Searching.c ****     printf("    壁      :   %u, %u, %u, %u\r\n", st->wall.north, st->wall.east, st->wall.south, st
 928              		.loc 1 189 5 view .LVU212
 929              		.loc 1 189 59 is_stmt 0 view .LVU213
 930 0020 2179     		ldrb	r1, [r4, #4]	@ zero_extendqisi2
 931              		.loc 1 189 106 view .LVU214
 932 0022 8B09     		lsrs	r3, r1, #6
 933              		.loc 1 189 5 view .LVU215
 934 0024 0093     		str	r3, [sp]
 935 0026 C1F30113 		ubfx	r3, r1, #4, #2
 936 002a C1F38102 		ubfx	r2, r1, #2, #2
 937 002e 01F00301 		and	r1, r1, #3
 938 0032 0C48     		ldr	r0, .L49+12
 939 0034 FFF7FEFF 		bl	printf
 940              	.LVL50:
 190:C:/Users/leopi/Documents/vs/S-Reo/MazeLibrary\Searching.c **** 
 191:C:/Users/leopi/Documents/vs/S-Reo/MazeLibrary\Searching.c ****     printf("    ノード :   行(0) or 列(1) : %d, ノードx : %u, ノードy : %u, 重み : %u,
 941              		.loc 1 191 5 is_stmt 1 view .LVU216
 942              		.loc 1 191 127 is_stmt 0 view .LVU217
 943 0038 A068     		ldr	r0, [r4, #8]
 944              		.loc 1 191 133 view .LVU218
 945 003a 4179     		ldrb	r1, [r0, #5]	@ zero_extendqisi2
 946              		.loc 1 191 152 view .LVU219
 947 003c 8279     		ldrb	r2, [r0, #6]	@ zero_extendqisi2
 948              		.loc 1 191 169 view .LVU220
 949 003e C379     		ldrb	r3, [r0, #7]	@ zero_extendqisi2
 950              		.loc 1 191 181 view .LVU221
 951 0040 4488     		ldrh	r4, [r0, #2]
 952              	.LVL51:
 953              		.loc 1 191 199 view .LVU222
 954 0042 0078     		ldrb	r0, [r0]	@ zero_extendqisi2
 955              		.loc 1 191 5 view .LVU223
 956 0044 0190     		str	r0, [sp, #4]
 957 0046 0094     		str	r4, [sp]
 958 0048 0748     		ldr	r0, .L49+16
 959 004a FFF7FEFF 		bl	printf
 960              	.LVL52:
 192:C:/Users/leopi/Documents/vs/S-Reo/MazeLibrary\Searching.c ****     printf("\r\n");
 961              		.loc 1 192 5 is_stmt 1 view .LVU224
 962 004e 0748     		ldr	r0, .L49+20
 963 0050 FFF7FEFF 		bl	puts
ARM GAS  C:\Users\leopi\AppData\Local\Temp\ccMCNSog.s 			page 22


 964              	.LVL53:
 193:C:/Users/leopi/Documents/vs/S-Reo/MazeLibrary\Searching.c **** }
 965              		.loc 1 193 1 is_stmt 0 view .LVU225
 966 0054 02B0     		add	sp, sp, #8
 967              	.LCFI10:
 968              		.cfi_def_cfa_offset 8
 969              		@ sp needed
 970 0056 10BD     		pop	{r4, pc}
 971              	.L50:
 972              		.align	2
 973              	.L49:
 974 0058 00000000 		.word	.LC6
 975 005c 1C000000 		.word	.LC7
 976 0060 34000000 		.word	.LC8
 977 0064 4C000000 		.word	.LC9
 978 0068 70000000 		.word	.LC10
 979 006c DC000000 		.word	.LC11
 980              		.cfi_endproc
 981              	.LFE18:
 983              		.section	.rodata.printGoal.str1.4,"aMS",%progbits,1
 984              		.align	2
 985              	.LC12:
 986 0000 E5B7A6E4 		.ascii	"\345\267\246\344\270\213 : (%u,%u), \345\217\263\344"
 986      B88B203A 
 986      20282575 
 986      2C257529 
 986      2C20E58F 
 987 0016 B88A203A 		.ascii	"\270\212 : (%u,%u)\015\012\000"
 987      20282575 
 987      2C257529 
 987      0D0A00
 988              		.section	.text.printGoal,"ax",%progbits
 989              		.align	1
 990              		.global	printGoal
 991              		.syntax unified
 992              		.thumb
 993              		.thumb_func
 995              	printGoal:
 996              	.LVL54:
 997              	.LFB19:
 194:C:/Users/leopi/Documents/vs/S-Reo/MazeLibrary\Searching.c **** void printGoal(profile *prof)
 195:C:/Users/leopi/Documents/vs/S-Reo/MazeLibrary\Searching.c **** {
 998              		.loc 1 195 1 is_stmt 1 view -0
 999              		.cfi_startproc
 1000              		@ args = 0, pretend = 0, frame = 0
 1001              		@ frame_needed = 0, uses_anonymous_args = 0
 1002              		.loc 1 195 1 is_stmt 0 view .LVU227
 1003 0000 00B5     		push	{lr}
 1004              	.LCFI11:
 1005              		.cfi_def_cfa_offset 4
 1006              		.cfi_offset 14, -4
 1007 0002 83B0     		sub	sp, sp, #12
 1008              	.LCFI12:
 1009              		.cfi_def_cfa_offset 16
 196:C:/Users/leopi/Documents/vs/S-Reo/MazeLibrary\Searching.c ****     uint8_t x_small = prof->target_pos.x;
 1010              		.loc 1 196 5 is_stmt 1 view .LVU228
 1011              		.loc 1 196 13 is_stmt 0 view .LVU229
ARM GAS  C:\Users\leopi\AppData\Local\Temp\ccMCNSog.s 			page 23


 1012 0004 0178     		ldrb	r1, [r0]	@ zero_extendqisi2
 1013              	.LVL55:
 197:C:/Users/leopi/Documents/vs/S-Reo/MazeLibrary\Searching.c ****     uint8_t y_small = prof->target_pos.y;
 1014              		.loc 1 197 5 is_stmt 1 view .LVU230
 1015              		.loc 1 197 13 is_stmt 0 view .LVU231
 1016 0006 4278     		ldrb	r2, [r0, #1]	@ zero_extendqisi2
 1017              	.LVL56:
 198:C:/Users/leopi/Documents/vs/S-Reo/MazeLibrary\Searching.c ****     uint8_t x_large = x_small + prof->target_size.x;
 1018              		.loc 1 198 5 is_stmt 1 view .LVU232
 1019              		.loc 1 198 50 is_stmt 0 view .LVU233
 1020 0008 8378     		ldrb	r3, [r0, #2]	@ zero_extendqisi2
 1021              		.loc 1 198 13 view .LVU234
 1022 000a 0B44     		add	r3, r3, r1
 1023              	.LVL57:
 199:C:/Users/leopi/Documents/vs/S-Reo/MazeLibrary\Searching.c ****     uint8_t y_large = y_small + prof->target_size.y;
 1024              		.loc 1 199 5 is_stmt 1 view .LVU235
 1025              		.loc 1 199 50 is_stmt 0 view .LVU236
 1026 000c C078     		ldrb	r0, [r0, #3]	@ zero_extendqisi2
 1027              	.LVL58:
 1028              		.loc 1 199 13 view .LVU237
 1029 000e 1044     		add	r0, r0, r2
 1030 0010 C0B2     		uxtb	r0, r0
 1031              	.LVL59:
 200:C:/Users/leopi/Documents/vs/S-Reo/MazeLibrary\Searching.c ****     printf("左下 : (%u,%u), 右上 : (%u,%u)\r\n",x_small, y_small, x_large, y_large);
 1032              		.loc 1 200 5 is_stmt 1 view .LVU238
 1033 0012 0090     		str	r0, [sp]
 1034 0014 DBB2     		uxtb	r3, r3
 1035              		.loc 1 200 5 is_stmt 0 view .LVU239
 1036 0016 0348     		ldr	r0, .L53
 1037              	.LVL60:
 1038              		.loc 1 200 5 view .LVU240
 1039 0018 FFF7FEFF 		bl	printf
 1040              	.LVL61:
 201:C:/Users/leopi/Documents/vs/S-Reo/MazeLibrary\Searching.c **** }
 1041              		.loc 1 201 1 view .LVU241
 1042 001c 03B0     		add	sp, sp, #12
 1043              	.LCFI13:
 1044              		.cfi_def_cfa_offset 4
 1045              		@ sp needed
 1046 001e 5DF804FB 		ldr	pc, [sp], #4
 1047              	.L54:
 1048 0022 00BF     		.align	2
 1049              	.L53:
 1050 0024 00000000 		.word	.LC12
 1051              		.cfi_endproc
 1052              	.LFE19:
 1054              		.section	.rodata.printProfile.str1.4,"aMS",%progbits,1
 1055              		.align	2
 1056              	.LC13:
 1057 0000 E78FBEE5 		.ascii	"\347\217\276\345\234\250\015\000"
 1057      9CA80D00 
 1058              		.align	2
 1059              	.LC14:
 1060 0008 E6ACA10D 		.ascii	"\346\254\241\015\000"
 1060      00
 1061              		.section	.text.printProfile,"ax",%progbits
 1062              		.align	1
ARM GAS  C:\Users\leopi\AppData\Local\Temp\ccMCNSog.s 			page 24


 1063              		.global	printProfile
 1064              		.syntax unified
 1065              		.thumb
 1066              		.thumb_func
 1068              	printProfile:
 1069              	.LVL62:
 1070              	.LFB20:
 202:C:/Users/leopi/Documents/vs/S-Reo/MazeLibrary\Searching.c **** void printProfile(profile *prof)
 203:C:/Users/leopi/Documents/vs/S-Reo/MazeLibrary\Searching.c **** {
 1071              		.loc 1 203 1 is_stmt 1 view -0
 1072              		.cfi_startproc
 1073              		@ args = 0, pretend = 0, frame = 0
 1074              		@ frame_needed = 0, uses_anonymous_args = 0
 1075              		.loc 1 203 1 is_stmt 0 view .LVU243
 1076 0000 10B5     		push	{r4, lr}
 1077              	.LCFI14:
 1078              		.cfi_def_cfa_offset 8
 1079              		.cfi_offset 4, -8
 1080              		.cfi_offset 14, -4
 1081 0002 0446     		mov	r4, r0
 204:C:/Users/leopi/Documents/vs/S-Reo/MazeLibrary\Searching.c ****     printGoal(prof);
 1082              		.loc 1 204 5 is_stmt 1 view .LVU244
 1083 0004 FFF7FEFF 		bl	printGoal
 1084              	.LVL63:
 205:C:/Users/leopi/Documents/vs/S-Reo/MazeLibrary\Searching.c **** 
 206:C:/Users/leopi/Documents/vs/S-Reo/MazeLibrary\Searching.c ****     printf("現在\r\n");
 1085              		.loc 1 206 5 view .LVU245
 1086 0008 0848     		ldr	r0, .L57
 1087 000a FFF7FEFF 		bl	puts
 1088              	.LVL64:
 207:C:/Users/leopi/Documents/vs/S-Reo/MazeLibrary\Searching.c ****     printState( &(prof->now) );
 1089              		.loc 1 207 5 view .LVU246
 1090 000e 201D     		adds	r0, r4, #4
 1091 0010 FFF7FEFF 		bl	printState
 1092              	.LVL65:
 208:C:/Users/leopi/Documents/vs/S-Reo/MazeLibrary\Searching.c **** 
 209:C:/Users/leopi/Documents/vs/S-Reo/MazeLibrary\Searching.c ****     printf("次\r\n");
 1093              		.loc 1 209 5 view .LVU247
 1094 0014 0648     		ldr	r0, .L57+4
 1095 0016 FFF7FEFF 		bl	puts
 1096              	.LVL66:
 210:C:/Users/leopi/Documents/vs/S-Reo/MazeLibrary\Searching.c ****     printState( &(prof->next) );
 1097              		.loc 1 210 5 view .LVU248
 1098 001a 04F11000 		add	r0, r4, #16
 1099 001e FFF7FEFF 		bl	printState
 1100              	.LVL67:
 211:C:/Users/leopi/Documents/vs/S-Reo/MazeLibrary\Searching.c **** 
 212:C:/Users/leopi/Documents/vs/S-Reo/MazeLibrary\Searching.c ****     printf("\r\n");
 1101              		.loc 1 212 5 view .LVU249
 1102 0022 0448     		ldr	r0, .L57+8
 1103 0024 FFF7FEFF 		bl	puts
 1104              	.LVL68:
 213:C:/Users/leopi/Documents/vs/S-Reo/MazeLibrary\Searching.c ****     
 214:C:/Users/leopi/Documents/vs/S-Reo/MazeLibrary\Searching.c **** }
 1105              		.loc 1 214 1 is_stmt 0 view .LVU250
 1106 0028 10BD     		pop	{r4, pc}
 1107              	.LVL69:
ARM GAS  C:\Users\leopi\AppData\Local\Temp\ccMCNSog.s 			page 25


 1108              	.L58:
 1109              		.loc 1 214 1 view .LVU251
 1110 002a 00BF     		.align	2
 1111              	.L57:
 1112 002c 00000000 		.word	.LC13
 1113 0030 08000000 		.word	.LC14
 1114 0034 DC000000 		.word	.LC11
 1115              		.cfi_endproc
 1116              	.LFE20:
 1118              		.section	.text.FindUnwantedSquares,"ax",%progbits
 1119              		.align	1
 1120              		.global	FindUnwantedSquares
 1121              		.syntax unified
 1122              		.thumb
 1123              		.thumb_func
 1125              	FindUnwantedSquares:
 1126              	.LVL70:
 1127              	.LFB21:
 215:C:/Users/leopi/Documents/vs/S-Reo/MazeLibrary\Searching.c **** 
 216:C:/Users/leopi/Documents/vs/S-Reo/MazeLibrary\Searching.c **** void FindUnwantedSquares(maze_node *maze){
 1128              		.loc 1 216 42 is_stmt 1 view -0
 1129              		.cfi_startproc
 1130              		@ args = 0, pretend = 0, frame = 0
 1131              		@ frame_needed = 0, uses_anonymous_args = 0
 217:C:/Users/leopi/Documents/vs/S-Reo/MazeLibrary\Searching.c **** 	//未訪問のマスをピックアップ
 218:C:/Users/leopi/Documents/vs/S-Reo/MazeLibrary\Searching.c **** 	//それぞれの四方のノードを確認
 219:C:/Users/leopi/Documents/vs/S-Reo/MazeLibrary\Searching.c **** 	//未探索がひとつもなければVisitedに
 220:C:/Users/leopi/Documents/vs/S-Reo/MazeLibrary\Searching.c **** 	//未探索が三つなら、全て壁があるのか見て、そうならVisitedに
 221:C:/Users/leopi/Documents/vs/S-Reo/MazeLibrary\Searching.c **** 	for(int i=0; i < NUMBER_OF_SQUARES_X; i++){
 1132              		.loc 1 221 2 view .LVU253
 1133              	.LBB3:
 1134              		.loc 1 221 6 view .LVU254
 1135              		.loc 1 221 10 is_stmt 0 view .LVU255
 1136 0000 0021     		movs	r1, #0
 1137              		.loc 1 221 2 view .LVU256
 1138 0002 57E0     		b	.L67
 1139              	.LVL71:
 1140              	.L62:
 1141              	.LCFI15:
 1142              		.cfi_def_cfa_offset 8
 1143              		.cfi_offset 4, -8
 1144              		.cfi_offset 14, -4
 1145              	.LBB4:
 1146              	.LBB5:
 222:C:/Users/leopi/Documents/vs/S-Reo/MazeLibrary\Searching.c **** 		for(int j=0; j < NUMBER_OF_SQUARES_Y; j++){
 223:C:/Users/leopi/Documents/vs/S-Reo/MazeLibrary\Searching.c **** 			if(Visit[i][j] == true)
 224:C:/Users/leopi/Documents/vs/S-Reo/MazeLibrary\Searching.c **** 				continue;
 225:C:/Users/leopi/Documents/vs/S-Reo/MazeLibrary\Searching.c **** 			uint8_t n = maze->RawNode[i][j+1].existence;	//北
 226:C:/Users/leopi/Documents/vs/S-Reo/MazeLibrary\Searching.c **** 			uint8_t e = maze->ColumnNode[i+1][j].existence;	//東
 227:C:/Users/leopi/Documents/vs/S-Reo/MazeLibrary\Searching.c **** 			uint8_t w = maze->ColumnNode[i][j].existence;//西
 228:C:/Users/leopi/Documents/vs/S-Reo/MazeLibrary\Searching.c **** 			uint8_t s = maze->RawNode[i][j].existence;	//南
 229:C:/Users/leopi/Documents/vs/S-Reo/MazeLibrary\Searching.c **** 			if(n != UNKNOWN && e != UNKNOWN && w != UNKNOWN && s != UNKNOWN){
 230:C:/Users/leopi/Documents/vs/S-Reo/MazeLibrary\Searching.c **** 				Visit[i][j] = true;
 231:C:/Users/leopi/Documents/vs/S-Reo/MazeLibrary\Searching.c **** 				continue;
 232:C:/Users/leopi/Documents/vs/S-Reo/MazeLibrary\Searching.c **** 			}
 233:C:/Users/leopi/Documents/vs/S-Reo/MazeLibrary\Searching.c **** 			int known_check=0;
 1147              		.loc 1 233 4 is_stmt 1 view .LVU257
ARM GAS  C:\Users\leopi\AppData\Local\Temp\ccMCNSog.s 			page 26


 234:C:/Users/leopi/Documents/vs/S-Reo/MazeLibrary\Searching.c **** 			known_check += (n == WALL) ? true : false;
 1148              		.loc 1 234 4 view .LVU258
 235:C:/Users/leopi/Documents/vs/S-Reo/MazeLibrary\Searching.c **** 			known_check += (e == WALL) ? true : false;
 1149              		.loc 1 235 4 view .LVU259
 1150              		.loc 1 235 38 is_stmt 0 view .LVU260
 1151 0004 012A     		cmp	r2, #1
 1152 0006 14BF     		ite	ne
 1153 0008 0022     		movne	r2, #0
 1154              	.LVL72:
 1155              		.loc 1 235 38 view .LVU261
 1156 000a 0122     		moveq	r2, #1
 1157              		.loc 1 235 16 view .LVU262
 1158 000c 012C     		cmp	r4, #1
 1159 000e 08BF     		it	eq
 1160 0010 0132     		addeq	r2, r2, #1
 1161              	.LVL73:
 236:C:/Users/leopi/Documents/vs/S-Reo/MazeLibrary\Searching.c **** 			known_check += (w == WALL) ? true : false;
 1162              		.loc 1 236 4 is_stmt 1 view .LVU263
 1163              		.loc 1 236 16 is_stmt 0 view .LVU264
 1164 0012 BEF1010F 		cmp	lr, #1
 1165 0016 08BF     		it	eq
 1166 0018 0132     		addeq	r2, r2, #1
 1167              	.LVL74:
 237:C:/Users/leopi/Documents/vs/S-Reo/MazeLibrary\Searching.c **** 			known_check += (s == WALL) ? true : false;
 1168              		.loc 1 237 4 is_stmt 1 view .LVU265
 1169              		.loc 1 237 16 is_stmt 0 view .LVU266
 1170 001a BCF1010F 		cmp	ip, #1
 1171 001e 08BF     		it	eq
 1172 0020 0132     		addeq	r2, r2, #1
 1173              	.LVL75:
 238:C:/Users/leopi/Documents/vs/S-Reo/MazeLibrary\Searching.c **** 			if(known_check == 3){
 1174              		.loc 1 238 4 is_stmt 1 view .LVU267
 1175              		.loc 1 238 6 is_stmt 0 view .LVU268
 1176 0022 032A     		cmp	r2, #3
 1177 0024 2ED0     		beq	.L75
 1178              	.LVL76:
 1179              	.L61:
 1180              		.loc 1 238 6 view .LVU269
 1181              	.LBE5:
 222:C:/Users/leopi/Documents/vs/S-Reo/MazeLibrary\Searching.c **** 			if(Visit[i][j] == true)
 1182              		.loc 1 222 41 is_stmt 1 discriminator 2 view .LVU270
 222:C:/Users/leopi/Documents/vs/S-Reo/MazeLibrary\Searching.c **** 			if(Visit[i][j] == true)
 1183              		.loc 1 222 42 is_stmt 0 discriminator 2 view .LVU271
 1184 0026 0133     		adds	r3, r3, #1
 1185              	.LVL77:
 1186              	.L64:
 222:C:/Users/leopi/Documents/vs/S-Reo/MazeLibrary\Searching.c **** 			if(Visit[i][j] == true)
 1187              		.loc 1 222 16 is_stmt 1 discriminator 1 view .LVU272
 222:C:/Users/leopi/Documents/vs/S-Reo/MazeLibrary\Searching.c **** 			if(Visit[i][j] == true)
 1188              		.loc 1 222 3 is_stmt 0 discriminator 1 view .LVU273
 1189 0028 1F2B     		cmp	r3, #31
 1190 002a 31DC     		bgt	.L76
 1191              	.LBB6:
 223:C:/Users/leopi/Documents/vs/S-Reo/MazeLibrary\Searching.c **** 				continue;
 1192              		.loc 1 223 4 is_stmt 1 view .LVU274
 223:C:/Users/leopi/Documents/vs/S-Reo/MazeLibrary\Searching.c **** 				continue;
 1193              		.loc 1 223 15 is_stmt 0 view .LVU275
ARM GAS  C:\Users\leopi\AppData\Local\Temp\ccMCNSog.s 			page 27


 1194 002c 244A     		ldr	r2, .L81
 1195 002e 02EB4112 		add	r2, r2, r1, lsl #5
 1196 0032 D25C     		ldrb	r2, [r2, r3]	@ zero_extendqisi2
 223:C:/Users/leopi/Documents/vs/S-Reo/MazeLibrary\Searching.c **** 				continue;
 1197              		.loc 1 223 6 view .LVU276
 1198 0034 002A     		cmp	r2, #0
 1199 0036 F6D1     		bne	.L61
 1200              	.LVL78:
 1201              	.L69:
 225:C:/Users/leopi/Documents/vs/S-Reo/MazeLibrary\Searching.c **** 			uint8_t e = maze->ColumnNode[i+1][j].existence;	//東
 1202              		.loc 1 225 4 is_stmt 1 view .LVU277
 225:C:/Users/leopi/Documents/vs/S-Reo/MazeLibrary\Searching.c **** 			uint8_t e = maze->ColumnNode[i+1][j].existence;	//東
 1203              		.loc 1 225 34 is_stmt 0 view .LVU278
 1204 0038 5A1C     		adds	r2, r3, #1
 225:C:/Users/leopi/Documents/vs/S-Reo/MazeLibrary\Searching.c **** 			uint8_t e = maze->ColumnNode[i+1][j].existence;	//東
 1205              		.loc 1 225 12 view .LVU279
 1206 003a 01EB411C 		add	ip, r1, r1, lsl #5
 1207 003e 6244     		add	r2, r2, ip
 1208 0040 10F83240 		ldrb	r4, [r0, r2, lsl #3]	@ zero_extendqisi2
 1209              	.LVL79:
 226:C:/Users/leopi/Documents/vs/S-Reo/MazeLibrary\Searching.c **** 			uint8_t w = maze->ColumnNode[i][j].existence;//西
 1210              		.loc 1 226 4 is_stmt 1 view .LVU280
 226:C:/Users/leopi/Documents/vs/S-Reo/MazeLibrary\Searching.c **** 			uint8_t w = maze->ColumnNode[i][j].existence;//西
 1211              		.loc 1 226 34 is_stmt 0 view .LVU281
 1212 0044 4A1C     		adds	r2, r1, #1
 226:C:/Users/leopi/Documents/vs/S-Reo/MazeLibrary\Searching.c **** 			uint8_t w = maze->ColumnNode[i][j].existence;//西
 1213              		.loc 1 226 12 view .LVU282
 1214 0046 03EB4212 		add	r2, r3, r2, lsl #5
 1215 004a 02F58462 		add	r2, r2, #1056
 1216 004e 10F83220 		ldrb	r2, [r0, r2, lsl #3]	@ zero_extendqisi2
 1217              	.LVL80:
 227:C:/Users/leopi/Documents/vs/S-Reo/MazeLibrary\Searching.c **** 			uint8_t s = maze->RawNode[i][j].existence;	//南
 1218              		.loc 1 227 4 is_stmt 1 view .LVU283
 227:C:/Users/leopi/Documents/vs/S-Reo/MazeLibrary\Searching.c **** 			uint8_t s = maze->RawNode[i][j].existence;	//南
 1219              		.loc 1 227 12 is_stmt 0 view .LVU284
 1220 0052 03EB411E 		add	lr, r3, r1, lsl #5
 1221 0056 0EF5846E 		add	lr, lr, #1056
 1222 005a 10F83EE0 		ldrb	lr, [r0, lr, lsl #3]	@ zero_extendqisi2
 1223              	.LVL81:
 228:C:/Users/leopi/Documents/vs/S-Reo/MazeLibrary\Searching.c **** 			if(n != UNKNOWN && e != UNKNOWN && w != UNKNOWN && s != UNKNOWN){
 1224              		.loc 1 228 4 is_stmt 1 view .LVU285
 228:C:/Users/leopi/Documents/vs/S-Reo/MazeLibrary\Searching.c **** 			if(n != UNKNOWN && e != UNKNOWN && w != UNKNOWN && s != UNKNOWN){
 1225              		.loc 1 228 12 is_stmt 0 view .LVU286
 1226 005e 9C44     		add	ip, ip, r3
 1227 0060 10F83CC0 		ldrb	ip, [r0, ip, lsl #3]	@ zero_extendqisi2
 1228              	.LVL82:
 229:C:/Users/leopi/Documents/vs/S-Reo/MazeLibrary\Searching.c **** 				Visit[i][j] = true;
 1229              		.loc 1 229 4 is_stmt 1 view .LVU287
 229:C:/Users/leopi/Documents/vs/S-Reo/MazeLibrary\Searching.c **** 				Visit[i][j] = true;
 1230              		.loc 1 229 6 is_stmt 0 view .LVU288
 1231 0064 022C     		cmp	r4, #2
 1232 0066 CDD0     		beq	.L62
 229:C:/Users/leopi/Documents/vs/S-Reo/MazeLibrary\Searching.c **** 				Visit[i][j] = true;
 1233              		.loc 1 229 20 discriminator 1 view .LVU289
 1234 0068 022A     		cmp	r2, #2
 1235 006a CBD0     		beq	.L62
 229:C:/Users/leopi/Documents/vs/S-Reo/MazeLibrary\Searching.c **** 				Visit[i][j] = true;
ARM GAS  C:\Users\leopi\AppData\Local\Temp\ccMCNSog.s 			page 28


 1236              		.loc 1 229 36 discriminator 2 view .LVU290
 1237 006c BEF1020F 		cmp	lr, #2
 1238 0070 C8D0     		beq	.L62
 229:C:/Users/leopi/Documents/vs/S-Reo/MazeLibrary\Searching.c **** 				Visit[i][j] = true;
 1239              		.loc 1 229 52 discriminator 3 view .LVU291
 1240 0072 BCF1020F 		cmp	ip, #2
 1241 0076 C5D0     		beq	.L62
 230:C:/Users/leopi/Documents/vs/S-Reo/MazeLibrary\Searching.c **** 				continue;
 1242              		.loc 1 230 5 is_stmt 1 view .LVU292
 230:C:/Users/leopi/Documents/vs/S-Reo/MazeLibrary\Searching.c **** 				continue;
 1243              		.loc 1 230 17 is_stmt 0 view .LVU293
 1244 0078 114A     		ldr	r2, .L81
 1245              	.LVL83:
 230:C:/Users/leopi/Documents/vs/S-Reo/MazeLibrary\Searching.c **** 				continue;
 1246              		.loc 1 230 17 view .LVU294
 1247 007a 02EB4112 		add	r2, r2, r1, lsl #5
 1248 007e 0124     		movs	r4, #1
 1249              	.LVL84:
 230:C:/Users/leopi/Documents/vs/S-Reo/MazeLibrary\Searching.c **** 				continue;
 1250              		.loc 1 230 17 view .LVU295
 1251 0080 D454     		strb	r4, [r2, r3]
 1252              	.LVL85:
 231:C:/Users/leopi/Documents/vs/S-Reo/MazeLibrary\Searching.c **** 			}
 1253              		.loc 1 231 5 is_stmt 1 view .LVU296
 1254 0082 D0E7     		b	.L61
 1255              	.LVL86:
 1256              	.L75:
 239:C:/Users/leopi/Documents/vs/S-Reo/MazeLibrary\Searching.c **** 				Visit[i][j] = true;
 1257              		.loc 1 239 5 view .LVU297
 1258              		.loc 1 239 17 is_stmt 0 view .LVU298
 1259 0084 0E4A     		ldr	r2, .L81
 1260              	.LVL87:
 1261              		.loc 1 239 17 view .LVU299
 1262 0086 02EB4112 		add	r2, r2, r1, lsl #5
 1263 008a 0124     		movs	r4, #1
 1264              	.LVL88:
 1265              		.loc 1 239 17 view .LVU300
 1266 008c D454     		strb	r4, [r2, r3]
 1267              	.LVL89:
 240:C:/Users/leopi/Documents/vs/S-Reo/MazeLibrary\Searching.c **** 				continue;
 1268              		.loc 1 240 5 is_stmt 1 view .LVU301
 1269 008e CAE7     		b	.L61
 1270              	.L76:
 1271              		.loc 1 240 5 is_stmt 0 view .LVU302
 1272              	.LBE6:
 1273              	.LBE4:
 221:C:/Users/leopi/Documents/vs/S-Reo/MazeLibrary\Searching.c **** 		for(int j=0; j < NUMBER_OF_SQUARES_Y; j++){
 1274              		.loc 1 221 40 is_stmt 1 discriminator 2 view .LVU303
 221:C:/Users/leopi/Documents/vs/S-Reo/MazeLibrary\Searching.c **** 		for(int j=0; j < NUMBER_OF_SQUARES_Y; j++){
 1275              		.loc 1 221 41 is_stmt 0 discriminator 2 view .LVU304
 1276 0090 0131     		adds	r1, r1, #1
 1277              	.LVL90:
 221:C:/Users/leopi/Documents/vs/S-Reo/MazeLibrary\Searching.c **** 		for(int j=0; j < NUMBER_OF_SQUARES_Y; j++){
 1278              		.loc 1 221 15 is_stmt 1 discriminator 2 view .LVU305
 221:C:/Users/leopi/Documents/vs/S-Reo/MazeLibrary\Searching.c **** 		for(int j=0; j < NUMBER_OF_SQUARES_Y; j++){
 1279              		.loc 1 221 2 is_stmt 0 discriminator 2 view .LVU306
 1280 0092 1F29     		cmp	r1, #31
ARM GAS  C:\Users\leopi\AppData\Local\Temp\ccMCNSog.s 			page 29


 1281 0094 01DC     		bgt	.L77
 1282              	.LBB8:
 222:C:/Users/leopi/Documents/vs/S-Reo/MazeLibrary\Searching.c **** 			if(Visit[i][j] == true)
 1283              		.loc 1 222 11 view .LVU307
 1284 0096 0023     		movs	r3, #0
 1285              	.LVL91:
 222:C:/Users/leopi/Documents/vs/S-Reo/MazeLibrary\Searching.c **** 			if(Visit[i][j] == true)
 1286              		.loc 1 222 11 view .LVU308
 1287 0098 C6E7     		b	.L64
 1288              	.LVL92:
 1289              	.L77:
 222:C:/Users/leopi/Documents/vs/S-Reo/MazeLibrary\Searching.c **** 			if(Visit[i][j] == true)
 1290              		.loc 1 222 11 view .LVU309
 1291              	.LBE8:
 1292              	.LBE3:
 241:C:/Users/leopi/Documents/vs/S-Reo/MazeLibrary\Searching.c **** 			}
 242:C:/Users/leopi/Documents/vs/S-Reo/MazeLibrary\Searching.c **** 		}
 243:C:/Users/leopi/Documents/vs/S-Reo/MazeLibrary\Searching.c **** 	}
 244:C:/Users/leopi/Documents/vs/S-Reo/MazeLibrary\Searching.c **** }
 1293              		.loc 1 244 1 view .LVU310
 1294 009a 10BD     		pop	{r4, pc}
 1295              	.LVL93:
 1296              	.L79:
 1297              	.LCFI16:
 1298              		.cfi_def_cfa_offset 0
 1299              		.cfi_restore 4
 1300              		.cfi_restore 14
 1301              	.LBB11:
 1302              	.LBB9:
 222:C:/Users/leopi/Documents/vs/S-Reo/MazeLibrary\Searching.c **** 			if(Visit[i][j] == true)
 1303              		.loc 1 222 41 is_stmt 1 view .LVU311
 222:C:/Users/leopi/Documents/vs/S-Reo/MazeLibrary\Searching.c **** 			if(Visit[i][j] == true)
 1304              		.loc 1 222 42 is_stmt 0 view .LVU312
 1305 009c 0133     		adds	r3, r3, #1
 1306              	.LVL94:
 1307              	.L70:
 222:C:/Users/leopi/Documents/vs/S-Reo/MazeLibrary\Searching.c **** 			if(Visit[i][j] == true)
 1308              		.loc 1 222 16 is_stmt 1 view .LVU313
 222:C:/Users/leopi/Documents/vs/S-Reo/MazeLibrary\Searching.c **** 			if(Visit[i][j] == true)
 1309              		.loc 1 222 3 is_stmt 0 view .LVU314
 1310 009e 1F2B     		cmp	r3, #31
 1311 00a0 07DC     		bgt	.L78
 1312              	.LBB7:
 223:C:/Users/leopi/Documents/vs/S-Reo/MazeLibrary\Searching.c **** 				continue;
 1313              		.loc 1 223 4 is_stmt 1 view .LVU315
 223:C:/Users/leopi/Documents/vs/S-Reo/MazeLibrary\Searching.c **** 				continue;
 1314              		.loc 1 223 15 is_stmt 0 view .LVU316
 1315 00a2 074A     		ldr	r2, .L81
 1316 00a4 02EB4112 		add	r2, r2, r1, lsl #5
 1317 00a8 D25C     		ldrb	r2, [r2, r3]	@ zero_extendqisi2
 223:C:/Users/leopi/Documents/vs/S-Reo/MazeLibrary\Searching.c **** 				continue;
 1318              		.loc 1 223 6 view .LVU317
 1319 00aa 002A     		cmp	r2, #0
 1320 00ac F6D1     		bne	.L79
 223:C:/Users/leopi/Documents/vs/S-Reo/MazeLibrary\Searching.c **** 				continue;
 1321              		.loc 1 223 6 view .LVU318
 1322              	.LBE7:
ARM GAS  C:\Users\leopi\AppData\Local\Temp\ccMCNSog.s 			page 30


 1323              	.LBE9:
 1324              	.LBE11:
 216:C:/Users/leopi/Documents/vs/S-Reo/MazeLibrary\Searching.c **** 	//未訪問のマスをピックアップ
 1325              		.loc 1 216 42 view .LVU319
 1326 00ae 10B5     		push	{r4, lr}
 1327              	.LCFI17:
 1328              		.cfi_def_cfa_offset 8
 1329              		.cfi_offset 4, -8
 1330              		.cfi_offset 14, -4
 1331 00b0 C2E7     		b	.L69
 1332              	.L78:
 1333              	.LCFI18:
 1334              		.cfi_def_cfa_offset 0
 1335              		.cfi_restore 4
 1336              		.cfi_restore 14
 1337              	.LBB12:
 221:C:/Users/leopi/Documents/vs/S-Reo/MazeLibrary\Searching.c **** 		for(int j=0; j < NUMBER_OF_SQUARES_Y; j++){
 1338              		.loc 1 221 40 is_stmt 1 view .LVU320
 221:C:/Users/leopi/Documents/vs/S-Reo/MazeLibrary\Searching.c **** 		for(int j=0; j < NUMBER_OF_SQUARES_Y; j++){
 1339              		.loc 1 221 41 is_stmt 0 view .LVU321
 1340 00b2 0131     		adds	r1, r1, #1
 1341              	.LVL95:
 1342              	.L67:
 221:C:/Users/leopi/Documents/vs/S-Reo/MazeLibrary\Searching.c **** 		for(int j=0; j < NUMBER_OF_SQUARES_Y; j++){
 1343              		.loc 1 221 15 is_stmt 1 view .LVU322
 221:C:/Users/leopi/Documents/vs/S-Reo/MazeLibrary\Searching.c **** 		for(int j=0; j < NUMBER_OF_SQUARES_Y; j++){
 1344              		.loc 1 221 2 is_stmt 0 view .LVU323
 1345 00b4 1F29     		cmp	r1, #31
 1346 00b6 01DC     		bgt	.L80
 1347              	.LBB10:
 222:C:/Users/leopi/Documents/vs/S-Reo/MazeLibrary\Searching.c **** 			if(Visit[i][j] == true)
 1348              		.loc 1 222 11 view .LVU324
 1349 00b8 0023     		movs	r3, #0
 1350 00ba F0E7     		b	.L70
 1351              	.L80:
 1352 00bc 7047     		bx	lr
 1353              	.L82:
 1354 00be 00BF     		.align	2
 1355              	.L81:
 1356 00c0 00000000 		.word	Visit
 1357              	.LBE10:
 1358              	.LBE12:
 1359              		.cfi_endproc
 1360              	.LFE21:
 1362              		.section	.text.getNodeInfo,"ax",%progbits
 1363              		.align	1
 1364              		.global	getNodeInfo
 1365              		.syntax unified
 1366              		.thumb
 1367              		.thumb_func
 1369              	getNodeInfo:
 1370              	.LVL96:
 1371              	.LFB23:
 245:C:/Users/leopi/Documents/vs/S-Reo/MazeLibrary\Searching.c **** 
 246:C:/Users/leopi/Documents/vs/S-Reo/MazeLibrary\Searching.c **** 
 247:C:/Users/leopi/Documents/vs/S-Reo/MazeLibrary\Searching.c **** void getNextDirection(maze_node *maze, profile *Mouse, char turn_mode, int mask)
 248:C:/Users/leopi/Documents/vs/S-Reo/MazeLibrary\Searching.c **** {
ARM GAS  C:\Users\leopi\AppData\Local\Temp\ccMCNSog.s 			page 31


 249:C:/Users/leopi/Documents/vs/S-Reo/MazeLibrary\Searching.c **** 	Mouse->next.node = getNextNode(maze, Mouse->now.car, Mouse->now.node, mask); // 次のノードを
 250:C:/Users/leopi/Documents/vs/S-Reo/MazeLibrary\Searching.c **** 	
 251:C:/Users/leopi/Documents/vs/S-Reo/MazeLibrary\Searching.c **** 	getNextState(&(Mouse->now), &(Mouse->next), Mouse->next.node); // 現ノードと次ノードを
 252:C:/Users/leopi/Documents/vs/S-Reo/MazeLibrary\Searching.c **** }
 253:C:/Users/leopi/Documents/vs/S-Reo/MazeLibrary\Searching.c **** 
 254:C:/Users/leopi/Documents/vs/S-Reo/MazeLibrary\Searching.c **** 
 255:C:/Users/leopi/Documents/vs/S-Reo/MazeLibrary\Searching.c **** 
 256:C:/Users/leopi/Documents/vs/S-Reo/MazeLibrary\Searching.c **** 
 257:C:/Users/leopi/Documents/vs/S-Reo/MazeLibrary\Searching.c **** //今いるノード情報を返す（区画進入時の方角を使用する）
 258:C:/Users/leopi/Documents/vs/S-Reo/MazeLibrary\Searching.c **** node *getNodeInfo(maze_node *maze, uint8_t x, uint8_t y, cardinal car)
 259:C:/Users/leopi/Documents/vs/S-Reo/MazeLibrary\Searching.c **** {
 1372              		.loc 1 259 1 is_stmt 1 view -0
 1373              		.cfi_startproc
 1374              		@ args = 0, pretend = 0, frame = 0
 1375              		@ frame_needed = 0, uses_anonymous_args = 0
 1376              		.loc 1 259 1 is_stmt 0 view .LVU326
 1377 0000 00B5     		push	{lr}
 1378              	.LCFI19:
 1379              		.cfi_def_cfa_offset 4
 1380              		.cfi_offset 14, -4
 1381 0002 8446     		mov	ip, r0
 260:C:/Users/leopi/Documents/vs/S-Reo/MazeLibrary\Searching.c **** 	node *error;
 1382              		.loc 1 260 2 is_stmt 1 view .LVU327
 261:C:/Users/leopi/Documents/vs/S-Reo/MazeLibrary\Searching.c **** 	error = &(maze->RawNode[0][1]);
 1383              		.loc 1 261 2 view .LVU328
 1384              		.loc 1 261 8 is_stmt 0 view .LVU329
 1385 0004 0830     		adds	r0, r0, #8
 1386              	.LVL97:
 262:C:/Users/leopi/Documents/vs/S-Reo/MazeLibrary\Searching.c ****     //breakは要らないけどお決まりとして入れてるだけ
 263:C:/Users/leopi/Documents/vs/S-Reo/MazeLibrary\Searching.c ****     switch (car)//区画侵入時の方角
 1387              		.loc 1 263 5 is_stmt 1 view .LVU330
 1388 0006 062B     		cmp	r3, #6
 1389 0008 0CD8     		bhi	.L83
 1390 000a DFE803F0 		tbb	[pc, r3]
 1391              	.L86:
 1392 000e 04       		.byte	(.L89-.L86)/2
 1393 000f 0B       		.byte	(.L83-.L86)/2
 1394 0010 0D       		.byte	(.L88-.L86)/2
 1395 0011 0B       		.byte	(.L83-.L86)/2
 1396 0012 16       		.byte	(.L87-.L86)/2
 1397 0013 0B       		.byte	(.L83-.L86)/2
 1398 0014 1F       		.byte	(.L85-.L86)/2
 1399 0015 00       		.p2align 1
 1400              	.L89:
 264:C:/Users/leopi/Documents/vs/S-Reo/MazeLibrary\Searching.c ****     {
 265:C:/Users/leopi/Documents/vs/S-Reo/MazeLibrary\Searching.c ****     case north:
 266:C:/Users/leopi/Documents/vs/S-Reo/MazeLibrary\Searching.c ****         //南ノードを返す
 267:C:/Users/leopi/Documents/vs/S-Reo/MazeLibrary\Searching.c ****         maze->RawNode[x][y].pos.x = x;
 1401              		.loc 1 267 9 view .LVU331
 1402              		.loc 1 267 35 is_stmt 0 view .LVU332
 1403 0016 01EB4113 		add	r3, r1, r1, lsl #5
 1404              	.LVL98:
 1405              		.loc 1 267 35 view .LVU333
 1406 001a 1344     		add	r3, r3, r2
 1407 001c 0CEBC300 		add	r0, ip, r3, lsl #3
 1408              	.LVL99:
 1409              		.loc 1 267 35 view .LVU334
ARM GAS  C:\Users\leopi\AppData\Local\Temp\ccMCNSog.s 			page 32


 1410 0020 8171     		strb	r1, [r0, #6]
 268:C:/Users/leopi/Documents/vs/S-Reo/MazeLibrary\Searching.c ****         maze->RawNode[x][y].pos.y = y;
 1411              		.loc 1 268 9 is_stmt 1 view .LVU335
 1412              		.loc 1 268 35 is_stmt 0 view .LVU336
 1413 0022 C271     		strb	r2, [r0, #7]
 269:C:/Users/leopi/Documents/vs/S-Reo/MazeLibrary\Searching.c ****         return &(maze->RawNode[x][y]);
 1414              		.loc 1 269 9 is_stmt 1 view .LVU337
 1415              	.LVL100:
 1416              	.L83:
 270:C:/Users/leopi/Documents/vs/S-Reo/MazeLibrary\Searching.c ****         break;
 271:C:/Users/leopi/Documents/vs/S-Reo/MazeLibrary\Searching.c ****     case east:
 272:C:/Users/leopi/Documents/vs/S-Reo/MazeLibrary\Searching.c ****         //西ノードを返す
 273:C:/Users/leopi/Documents/vs/S-Reo/MazeLibrary\Searching.c ****         maze->ColumnNode[x][y].pos.x = x;
 274:C:/Users/leopi/Documents/vs/S-Reo/MazeLibrary\Searching.c ****         maze->ColumnNode[x][y].pos.y = y;
 275:C:/Users/leopi/Documents/vs/S-Reo/MazeLibrary\Searching.c ****         return &(maze->ColumnNode[x][y]);
 276:C:/Users/leopi/Documents/vs/S-Reo/MazeLibrary\Searching.c ****         break;
 277:C:/Users/leopi/Documents/vs/S-Reo/MazeLibrary\Searching.c ****     case south:
 278:C:/Users/leopi/Documents/vs/S-Reo/MazeLibrary\Searching.c ****         //北ノードを返す
 279:C:/Users/leopi/Documents/vs/S-Reo/MazeLibrary\Searching.c ****         maze->RawNode[x][y+1].pos.x = x;
 280:C:/Users/leopi/Documents/vs/S-Reo/MazeLibrary\Searching.c ****         maze->RawNode[x][y+1].pos.y = y+1;
 281:C:/Users/leopi/Documents/vs/S-Reo/MazeLibrary\Searching.c ****         return &(maze->RawNode[x][y+1]);
 282:C:/Users/leopi/Documents/vs/S-Reo/MazeLibrary\Searching.c ****         break;
 283:C:/Users/leopi/Documents/vs/S-Reo/MazeLibrary\Searching.c ****     case west:
 284:C:/Users/leopi/Documents/vs/S-Reo/MazeLibrary\Searching.c ****         //東ノードを返す
 285:C:/Users/leopi/Documents/vs/S-Reo/MazeLibrary\Searching.c ****         maze->ColumnNode[x+1][y].pos.x = x+1;
 286:C:/Users/leopi/Documents/vs/S-Reo/MazeLibrary\Searching.c ****         maze->ColumnNode[x+1][y].pos.y = y;
 287:C:/Users/leopi/Documents/vs/S-Reo/MazeLibrary\Searching.c ****         return &(maze->ColumnNode[x+1][y]);
 288:C:/Users/leopi/Documents/vs/S-Reo/MazeLibrary\Searching.c ****         break;
 289:C:/Users/leopi/Documents/vs/S-Reo/MazeLibrary\Searching.c ****     case ne:    //斜め探索では必要で、かなり面倒（侵入時の方角のあとに2
 290:C:/Users/leopi/Documents/vs/S-Reo/MazeLibrary\Searching.c ****         break;
 291:C:/Users/leopi/Documents/vs/S-Reo/MazeLibrary\Searching.c ****     case se:
 292:C:/Users/leopi/Documents/vs/S-Reo/MazeLibrary\Searching.c ****         break;
 293:C:/Users/leopi/Documents/vs/S-Reo/MazeLibrary\Searching.c ****     case sw:
 294:C:/Users/leopi/Documents/vs/S-Reo/MazeLibrary\Searching.c ****         break;
 295:C:/Users/leopi/Documents/vs/S-Reo/MazeLibrary\Searching.c ****     case nw:
 296:C:/Users/leopi/Documents/vs/S-Reo/MazeLibrary\Searching.c ****         break;
 297:C:/Users/leopi/Documents/vs/S-Reo/MazeLibrary\Searching.c ****     default:
 298:C:/Users/leopi/Documents/vs/S-Reo/MazeLibrary\Searching.c ****     	return error; //
 299:C:/Users/leopi/Documents/vs/S-Reo/MazeLibrary\Searching.c ****         break;
 300:C:/Users/leopi/Documents/vs/S-Reo/MazeLibrary\Searching.c ****     }
 301:C:/Users/leopi/Documents/vs/S-Reo/MazeLibrary\Searching.c ****     return error;
 302:C:/Users/leopi/Documents/vs/S-Reo/MazeLibrary\Searching.c **** }
 1417              		.loc 1 302 1 is_stmt 0 view .LVU338
 1418 0024 5DF804FB 		ldr	pc, [sp], #4
 1419              	.LVL101:
 1420              	.L88:
 270:C:/Users/leopi/Documents/vs/S-Reo/MazeLibrary\Searching.c ****         break;
 1421              		.loc 1 270 9 is_stmt 1 view .LVU339
 273:C:/Users/leopi/Documents/vs/S-Reo/MazeLibrary\Searching.c ****         maze->ColumnNode[x][y].pos.y = y;
 1422              		.loc 1 273 9 view .LVU340
 273:C:/Users/leopi/Documents/vs/S-Reo/MazeLibrary\Searching.c ****         maze->ColumnNode[x][y].pos.y = y;
 1423              		.loc 1 273 38 is_stmt 0 view .LVU341
 1424 0028 02EB4113 		add	r3, r2, r1, lsl #5
 1425              	.LVL102:
 273:C:/Users/leopi/Documents/vs/S-Reo/MazeLibrary\Searching.c ****         maze->ColumnNode[x][y].pos.y = y;
 1426              		.loc 1 273 38 view .LVU342
 1427 002c 03F58463 		add	r3, r3, #1056
ARM GAS  C:\Users\leopi\AppData\Local\Temp\ccMCNSog.s 			page 33


 1428 0030 0CEBC300 		add	r0, ip, r3, lsl #3
 1429              	.LVL103:
 273:C:/Users/leopi/Documents/vs/S-Reo/MazeLibrary\Searching.c ****         maze->ColumnNode[x][y].pos.y = y;
 1430              		.loc 1 273 38 view .LVU343
 1431 0034 8171     		strb	r1, [r0, #6]
 274:C:/Users/leopi/Documents/vs/S-Reo/MazeLibrary\Searching.c ****         return &(maze->ColumnNode[x][y]);
 1432              		.loc 1 274 9 is_stmt 1 view .LVU344
 274:C:/Users/leopi/Documents/vs/S-Reo/MazeLibrary\Searching.c ****         return &(maze->ColumnNode[x][y]);
 1433              		.loc 1 274 38 is_stmt 0 view .LVU345
 1434 0036 C271     		strb	r2, [r0, #7]
 275:C:/Users/leopi/Documents/vs/S-Reo/MazeLibrary\Searching.c ****         break;
 1435              		.loc 1 275 9 is_stmt 1 view .LVU346
 275:C:/Users/leopi/Documents/vs/S-Reo/MazeLibrary\Searching.c ****         break;
 1436              		.loc 1 275 16 is_stmt 0 view .LVU347
 1437 0038 F4E7     		b	.L83
 1438              	.LVL104:
 1439              	.L87:
 276:C:/Users/leopi/Documents/vs/S-Reo/MazeLibrary\Searching.c ****     case south:
 1440              		.loc 1 276 9 is_stmt 1 view .LVU348
 279:C:/Users/leopi/Documents/vs/S-Reo/MazeLibrary\Searching.c ****         maze->RawNode[x][y+1].pos.y = y+1;
 1441              		.loc 1 279 9 view .LVU349
 279:C:/Users/leopi/Documents/vs/S-Reo/MazeLibrary\Searching.c ****         maze->RawNode[x][y+1].pos.y = y+1;
 1442              		.loc 1 279 27 is_stmt 0 view .LVU350
 1443 003a 0132     		adds	r2, r2, #1
 1444              	.LVL105:
 279:C:/Users/leopi/Documents/vs/S-Reo/MazeLibrary\Searching.c ****         maze->RawNode[x][y+1].pos.y = y+1;
 1445              		.loc 1 279 37 view .LVU351
 1446 003c 01EB4113 		add	r3, r1, r1, lsl #5
 1447              	.LVL106:
 279:C:/Users/leopi/Documents/vs/S-Reo/MazeLibrary\Searching.c ****         maze->RawNode[x][y+1].pos.y = y+1;
 1448              		.loc 1 279 37 view .LVU352
 1449 0040 1344     		add	r3, r3, r2
 1450 0042 0CEBC300 		add	r0, ip, r3, lsl #3
 1451              	.LVL107:
 279:C:/Users/leopi/Documents/vs/S-Reo/MazeLibrary\Searching.c ****         maze->RawNode[x][y+1].pos.y = y+1;
 1452              		.loc 1 279 37 view .LVU353
 1453 0046 8171     		strb	r1, [r0, #6]
 280:C:/Users/leopi/Documents/vs/S-Reo/MazeLibrary\Searching.c ****         return &(maze->RawNode[x][y+1]);
 1454              		.loc 1 280 9 is_stmt 1 view .LVU354
 280:C:/Users/leopi/Documents/vs/S-Reo/MazeLibrary\Searching.c ****         return &(maze->RawNode[x][y+1]);
 1455              		.loc 1 280 37 is_stmt 0 view .LVU355
 1456 0048 C271     		strb	r2, [r0, #7]
 281:C:/Users/leopi/Documents/vs/S-Reo/MazeLibrary\Searching.c ****         break;
 1457              		.loc 1 281 9 is_stmt 1 view .LVU356
 281:C:/Users/leopi/Documents/vs/S-Reo/MazeLibrary\Searching.c ****         break;
 1458              		.loc 1 281 16 is_stmt 0 view .LVU357
 1459 004a EBE7     		b	.L83
 1460              	.LVL108:
 1461              	.L85:
 282:C:/Users/leopi/Documents/vs/S-Reo/MazeLibrary\Searching.c ****     case west:
 1462              		.loc 1 282 9 is_stmt 1 view .LVU358
 285:C:/Users/leopi/Documents/vs/S-Reo/MazeLibrary\Searching.c ****         maze->ColumnNode[x+1][y].pos.y = y;
 1463              		.loc 1 285 9 view .LVU359
 285:C:/Users/leopi/Documents/vs/S-Reo/MazeLibrary\Searching.c ****         maze->ColumnNode[x+1][y].pos.y = y;
 1464              		.loc 1 285 27 is_stmt 0 view .LVU360
 1465 004c 0131     		adds	r1, r1, #1
 1466              	.LVL109:
ARM GAS  C:\Users\leopi\AppData\Local\Temp\ccMCNSog.s 			page 34


 285:C:/Users/leopi/Documents/vs/S-Reo/MazeLibrary\Searching.c ****         maze->ColumnNode[x+1][y].pos.y = y;
 1467              		.loc 1 285 40 view .LVU361
 1468 004e 02EB4113 		add	r3, r2, r1, lsl #5
 1469              	.LVL110:
 285:C:/Users/leopi/Documents/vs/S-Reo/MazeLibrary\Searching.c ****         maze->ColumnNode[x+1][y].pos.y = y;
 1470              		.loc 1 285 40 view .LVU362
 1471 0052 03F58463 		add	r3, r3, #1056
 1472 0056 0CEBC300 		add	r0, ip, r3, lsl #3
 1473              	.LVL111:
 285:C:/Users/leopi/Documents/vs/S-Reo/MazeLibrary\Searching.c ****         maze->ColumnNode[x+1][y].pos.y = y;
 1474              		.loc 1 285 40 view .LVU363
 1475 005a 8171     		strb	r1, [r0, #6]
 286:C:/Users/leopi/Documents/vs/S-Reo/MazeLibrary\Searching.c ****         return &(maze->ColumnNode[x+1][y]);
 1476              		.loc 1 286 9 is_stmt 1 view .LVU364
 286:C:/Users/leopi/Documents/vs/S-Reo/MazeLibrary\Searching.c ****         return &(maze->ColumnNode[x+1][y]);
 1477              		.loc 1 286 40 is_stmt 0 view .LVU365
 1478 005c C271     		strb	r2, [r0, #7]
 287:C:/Users/leopi/Documents/vs/S-Reo/MazeLibrary\Searching.c ****         break;
 1479              		.loc 1 287 9 is_stmt 1 view .LVU366
 287:C:/Users/leopi/Documents/vs/S-Reo/MazeLibrary\Searching.c ****         break;
 1480              		.loc 1 287 16 is_stmt 0 view .LVU367
 1481 005e E1E7     		b	.L83
 1482              		.cfi_endproc
 1483              	.LFE23:
 1485              		.section	.text.getNextNode,"ax",%progbits
 1486              		.align	1
 1487              		.global	getNextNode
 1488              		.syntax unified
 1489              		.thumb
 1490              		.thumb_func
 1492              	getNextNode:
 1493              	.LVL112:
 1494              	.LFB24:
 303:C:/Users/leopi/Documents/vs/S-Reo/MazeLibrary\Searching.c **** inline node *getNextNode(maze_node *maze, cardinal car, node *now_node, int mask)
 304:C:/Users/leopi/Documents/vs/S-Reo/MazeLibrary\Searching.c **** {
 1495              		.loc 1 304 1 is_stmt 1 view -0
 1496              		.cfi_startproc
 1497              		@ args = 0, pretend = 0, frame = 0
 1498              		@ frame_needed = 0, uses_anonymous_args = 0
 1499              		.loc 1 304 1 is_stmt 0 view .LVU369
 1500 0000 2DE9F043 		push	{r4, r5, r6, r7, r8, r9, lr}
 1501              	.LCFI20:
 1502              		.cfi_def_cfa_offset 28
 1503              		.cfi_offset 4, -28
 1504              		.cfi_offset 5, -24
 1505              		.cfi_offset 6, -20
 1506              		.cfi_offset 7, -16
 1507              		.cfi_offset 8, -12
 1508              		.cfi_offset 9, -8
 1509              		.cfi_offset 14, -4
 1510 0004 0546     		mov	r5, r0
 1511 0006 1046     		mov	r0, r2
 1512              	.LVL113:
 305:C:/Users/leopi/Documents/vs/S-Reo/MazeLibrary\Searching.c ****     //6ノードの重みを比較して、次のノードへのアドレスを返す
 306:C:/Users/leopi/Documents/vs/S-Reo/MazeLibrary\Searching.c ****     //現ノードの情報から見るべきノードを選び、比較する
 307:C:/Users/leopi/Documents/vs/S-Reo/MazeLibrary\Searching.c ****     //現在ノードの情報を使って周囲ノードを比較し、一番重みが低いノー
 308:C:/Users/leopi/Documents/vs/S-Reo/MazeLibrary\Searching.c ****     node *next_node;
ARM GAS  C:\Users\leopi\AppData\Local\Temp\ccMCNSog.s 			page 35


 1513              		.loc 1 308 5 is_stmt 1 view .LVU370
 309:C:/Users/leopi/Documents/vs/S-Reo/MazeLibrary\Searching.c ****     uint16_t compare_weight=0;
 1514              		.loc 1 309 5 view .LVU371
 310:C:/Users/leopi/Documents/vs/S-Reo/MazeLibrary\Searching.c ****     compare_weight = now_node->weight;
 1515              		.loc 1 310 5 view .LVU372
 1516              		.loc 1 310 20 is_stmt 0 view .LVU373
 1517 0008 B2F802C0 		ldrh	ip, [r2, #2]
 1518              	.LVL114:
 311:C:/Users/leopi/Documents/vs/S-Reo/MazeLibrary\Searching.c **** 
 312:C:/Users/leopi/Documents/vs/S-Reo/MazeLibrary\Searching.c ****     _Bool flag=false;
 1519              		.loc 1 312 5 is_stmt 1 view .LVU374
 313:C:/Users/leopi/Documents/vs/S-Reo/MazeLibrary\Searching.c ****     //printf("マイノードが01のどちらか:%d\r\n",now_node->rc);
 314:C:/Users/leopi/Documents/vs/S-Reo/MazeLibrary\Searching.c ****     if(now_node->rc == 0)
 1520              		.loc 1 314 5 view .LVU375
 1521              		.loc 1 314 16 is_stmt 0 view .LVU376
 1522 000c 5179     		ldrb	r1, [r2, #5]	@ zero_extendqisi2
 1523              	.LVL115:
 1524              		.loc 1 314 7 view .LVU377
 1525 000e 0029     		cmp	r1, #0
 1526 0010 40F0AE80 		bne	.L92
 315:C:/Users/leopi/Documents/vs/S-Reo/MazeLibrary\Searching.c ****     {
 316:C:/Users/leopi/Documents/vs/S-Reo/MazeLibrary\Searching.c **** #if DEBUG_ON
 317:C:/Users/leopi/Documents/vs/S-Reo/MazeLibrary\Searching.c ****         printf("行ノードから");
 318:C:/Users/leopi/Documents/vs/S-Reo/MazeLibrary\Searching.c **** #endif
 319:C:/Users/leopi/Documents/vs/S-Reo/MazeLibrary\Searching.c ****         //条件がおかしい？printしている全ノードの重みと、アドレスを入れ
 320:C:/Users/leopi/Documents/vs/S-Reo/MazeLibrary\Searching.c **** 
 321:C:/Users/leopi/Documents/vs/S-Reo/MazeLibrary\Searching.c ****         //行にいるとき
 322:C:/Users/leopi/Documents/vs/S-Reo/MazeLibrary\Searching.c ****         //北側ノード
 323:C:/Users/leopi/Documents/vs/S-Reo/MazeLibrary\Searching.c ****         if(now_node->pos.y < NUMBER_OF_SQUARES_Y-1)					//範囲チェック
 1527              		.loc 1 323 9 is_stmt 1 view .LVU378
 1528              		.loc 1 323 25 is_stmt 0 view .LVU379
 1529 0014 D279     		ldrb	r2, [r2, #7]	@ zero_extendqisi2
 1530              	.LVL116:
 1531              		.loc 1 323 11 view .LVU380
 1532 0016 1E2A     		cmp	r2, #30
 1533 0018 1FD8     		bhi	.L93
 324:C:/Users/leopi/Documents/vs/S-Reo/MazeLibrary\Searching.c ****         {
 325:C:/Users/leopi/Documents/vs/S-Reo/MazeLibrary\Searching.c **** 
 326:C:/Users/leopi/Documents/vs/S-Reo/MazeLibrary\Searching.c ****             //printf("%u\r\n",now_node->pos.y);
 327:C:/Users/leopi/Documents/vs/S-Reo/MazeLibrary\Searching.c ****             if( (maze->RawNode[now_node->pos.x][now_node->pos.y+1].existence & mask) == NOWALL)	//
 1534              		.loc 1 327 13 is_stmt 1 view .LVU381
 1535              		.loc 1 327 45 is_stmt 0 view .LVU382
 1536 001a 8679     		ldrb	r6, [r0, #6]	@ zero_extendqisi2
 1537              		.loc 1 327 64 view .LVU383
 1538 001c 571C     		adds	r7, r2, #1
 1539              		.loc 1 327 67 view .LVU384
 1540 001e 06EB4614 		add	r4, r6, r6, lsl #5
 1541 0022 3C44     		add	r4, r4, r7
 1542 0024 15F83440 		ldrb	r4, [r5, r4, lsl #3]	@ zero_extendqisi2
 1543              		.loc 1 327 15 view .LVU385
 1544 0028 1C42     		tst	r4, r3
 1545 002a 16D1     		bne	.L93
 1546              	.LBB13:
 328:C:/Users/leopi/Documents/vs/S-Reo/MazeLibrary\Searching.c ****             {
 329:C:/Users/leopi/Documents/vs/S-Reo/MazeLibrary\Searching.c ****             	static int cnt = 1;
 1547              		.loc 1 329 14 is_stmt 1 view .LVU386
 330:C:/Users/leopi/Documents/vs/S-Reo/MazeLibrary\Searching.c **** //            				ChangeLED(cnt%7);
ARM GAS  C:\Users\leopi\AppData\Local\Temp\ccMCNSog.s 			page 36


 331:C:/Users/leopi/Documents/vs/S-Reo/MazeLibrary\Searching.c ****             				cnt ++;
 1548              		.loc 1 331 17 view .LVU387
 1549              		.loc 1 331 21 is_stmt 0 view .LVU388
 1550 002c DFF89C82 		ldr	r8, .L113
 1551 0030 D8F80040 		ldr	r4, [r8]
 1552 0034 0134     		adds	r4, r4, #1
 1553 0036 C8F80040 		str	r4, [r8]
 332:C:/Users/leopi/Documents/vs/S-Reo/MazeLibrary\Searching.c **** 
 333:C:/Users/leopi/Documents/vs/S-Reo/MazeLibrary\Searching.c **** 
 334:C:/Users/leopi/Documents/vs/S-Reo/MazeLibrary\Searching.c ****                 // printf("%d\r\n", maze->RawNode[now_node->pos.x][now_node->pos.y+1].existence);//
 335:C:/Users/leopi/Documents/vs/S-Reo/MazeLibrary\Searching.c ****                 if(compare_weight > maze->RawNode[now_node->pos.x][now_node->pos.y+1].weight)
 1554              		.loc 1 335 17 is_stmt 1 view .LVU389
 1555              		.loc 1 335 86 is_stmt 0 view .LVU390
 1556 003a 06EB4614 		add	r4, r6, r6, lsl #5
 1557 003e 3C44     		add	r4, r4, r7
 1558 0040 05EBC404 		add	r4, r5, r4, lsl #3
 1559 0044 6488     		ldrh	r4, [r4, #2]
 1560              		.loc 1 335 19 view .LVU391
 1561 0046 6445     		cmp	r4, ip
 1562 0048 07D2     		bcs	.L93
 336:C:/Users/leopi/Documents/vs/S-Reo/MazeLibrary\Searching.c ****                 {
 337:C:/Users/leopi/Documents/vs/S-Reo/MazeLibrary\Searching.c **** 
 338:C:/Users/leopi/Documents/vs/S-Reo/MazeLibrary\Searching.c **** #if DEBUG_ON
 339:C:/Users/leopi/Documents/vs/S-Reo/MazeLibrary\Searching.c ****                     printf("北へ\r\n");
 340:C:/Users/leopi/Documents/vs/S-Reo/MazeLibrary\Searching.c **** #endif
 341:C:/Users/leopi/Documents/vs/S-Reo/MazeLibrary\Searching.c ****                     compare_weight = maze->RawNode[now_node->pos.x][now_node->pos.y+1].weight;
 1563              		.loc 1 341 21 is_stmt 1 view .LVU392
 1564              	.LVL117:
 342:C:/Users/leopi/Documents/vs/S-Reo/MazeLibrary\Searching.c ****                     next_node = &(maze->RawNode[now_node->pos.x][now_node->pos.y+1]);
 1565              		.loc 1 342 21 view .LVU393
 1566              		.loc 1 342 31 is_stmt 0 view .LVU394
 1567 004a 06EB4616 		add	r6, r6, r6, lsl #5
 1568 004e 06EB070E 		add	lr, r6, r7
 1569 0052 05EBCE0E 		add	lr, r5, lr, lsl #3
 1570              	.LVL118:
 343:C:/Users/leopi/Documents/vs/S-Reo/MazeLibrary\Searching.c ****                     flag = true;
 1571              		.loc 1 343 21 is_stmt 1 view .LVU395
 341:C:/Users/leopi/Documents/vs/S-Reo/MazeLibrary\Searching.c ****                     next_node = &(maze->RawNode[now_node->pos.x][now_node->pos.y+1]);
 1572              		.loc 1 341 36 is_stmt 0 view .LVU396
 1573 0056 A446     		mov	ip, r4
 1574              		.loc 1 343 26 view .LVU397
 1575 0058 0121     		movs	r1, #1
 1576              	.LVL119:
 1577              	.L93:
 1578              		.loc 1 343 26 view .LVU398
 1579              	.LBE13:
 344:C:/Users/leopi/Documents/vs/S-Reo/MazeLibrary\Searching.c ****                 }
 345:C:/Users/leopi/Documents/vs/S-Reo/MazeLibrary\Searching.c ****             }
 346:C:/Users/leopi/Documents/vs/S-Reo/MazeLibrary\Searching.c ****         }
 347:C:/Users/leopi/Documents/vs/S-Reo/MazeLibrary\Searching.c ****         //南へ側ノード
 348:C:/Users/leopi/Documents/vs/S-Reo/MazeLibrary\Searching.c ****         if(now_node->pos.y > 1)						//範囲チェック
 1580              		.loc 1 348 9 is_stmt 1 view .LVU399
 1581              		.loc 1 348 11 is_stmt 0 view .LVU400
 1582 005a 012A     		cmp	r2, #1
 1583 005c 18D9     		bls	.L94
 349:C:/Users/leopi/Documents/vs/S-Reo/MazeLibrary\Searching.c ****         {
 350:C:/Users/leopi/Documents/vs/S-Reo/MazeLibrary\Searching.c ****             if( (maze->RawNode[now_node->pos.x][now_node->pos.y-1].existence & mask) == NOWALL)	//
ARM GAS  C:\Users\leopi\AppData\Local\Temp\ccMCNSog.s 			page 37


 1584              		.loc 1 350 13 is_stmt 1 view .LVU401
 1585              		.loc 1 350 45 is_stmt 0 view .LVU402
 1586 005e 8479     		ldrb	r4, [r0, #6]	@ zero_extendqisi2
 1587              		.loc 1 350 64 view .LVU403
 1588 0060 571E     		subs	r7, r2, #1
 1589              		.loc 1 350 67 view .LVU404
 1590 0062 04EB4416 		add	r6, r4, r4, lsl #5
 1591 0066 3E44     		add	r6, r6, r7
 1592 0068 15F83660 		ldrb	r6, [r5, r6, lsl #3]	@ zero_extendqisi2
 1593              		.loc 1 350 15 view .LVU405
 1594 006c 1E42     		tst	r6, r3
 1595 006e 0FD1     		bne	.L94
 351:C:/Users/leopi/Documents/vs/S-Reo/MazeLibrary\Searching.c ****             {
 352:C:/Users/leopi/Documents/vs/S-Reo/MazeLibrary\Searching.c ****                 //重みを比較して更新
 353:C:/Users/leopi/Documents/vs/S-Reo/MazeLibrary\Searching.c ****                 if(compare_weight > maze->RawNode[now_node->pos.x][now_node->pos.y-1].weight)
 1596              		.loc 1 353 17 is_stmt 1 view .LVU406
 1597              		.loc 1 353 86 is_stmt 0 view .LVU407
 1598 0070 04EB4416 		add	r6, r4, r4, lsl #5
 1599 0074 3E44     		add	r6, r6, r7
 1600 0076 05EBC606 		add	r6, r5, r6, lsl #3
 1601 007a 7688     		ldrh	r6, [r6, #2]
 1602              		.loc 1 353 19 view .LVU408
 1603 007c 6645     		cmp	r6, ip
 1604 007e 07D2     		bcs	.L94
 354:C:/Users/leopi/Documents/vs/S-Reo/MazeLibrary\Searching.c ****                 {
 355:C:/Users/leopi/Documents/vs/S-Reo/MazeLibrary\Searching.c **** #if DEBUG_ON
 356:C:/Users/leopi/Documents/vs/S-Reo/MazeLibrary\Searching.c ****                     printf("南へ\r\n");
 357:C:/Users/leopi/Documents/vs/S-Reo/MazeLibrary\Searching.c **** #endif
 358:C:/Users/leopi/Documents/vs/S-Reo/MazeLibrary\Searching.c ****                     compare_weight = maze->RawNode[now_node->pos.x][now_node->pos.y-1].weight;
 1605              		.loc 1 358 21 is_stmt 1 view .LVU409
 1606              	.LVL120:
 359:C:/Users/leopi/Documents/vs/S-Reo/MazeLibrary\Searching.c ****                     next_node = &(maze->RawNode[now_node->pos.x][now_node->pos.y-1]);
 1607              		.loc 1 359 21 view .LVU410
 1608              		.loc 1 359 31 is_stmt 0 view .LVU411
 1609 0080 04EB4414 		add	r4, r4, r4, lsl #5
 1610 0084 04EB070E 		add	lr, r4, r7
 1611              	.LVL121:
 1612              		.loc 1 359 31 view .LVU412
 1613 0088 05EBCE0E 		add	lr, r5, lr, lsl #3
 1614              	.LVL122:
 360:C:/Users/leopi/Documents/vs/S-Reo/MazeLibrary\Searching.c ****                     flag = true;
 1615              		.loc 1 360 21 is_stmt 1 view .LVU413
 358:C:/Users/leopi/Documents/vs/S-Reo/MazeLibrary\Searching.c ****                     next_node = &(maze->RawNode[now_node->pos.x][now_node->pos.y-1]);
 1616              		.loc 1 358 36 is_stmt 0 view .LVU414
 1617 008c B446     		mov	ip, r6
 1618              		.loc 1 360 26 view .LVU415
 1619 008e 0121     		movs	r1, #1
 1620              	.LVL123:
 1621              	.L94:
 361:C:/Users/leopi/Documents/vs/S-Reo/MazeLibrary\Searching.c ****                 }
 362:C:/Users/leopi/Documents/vs/S-Reo/MazeLibrary\Searching.c ****             }
 363:C:/Users/leopi/Documents/vs/S-Reo/MazeLibrary\Searching.c ****         }
 364:C:/Users/leopi/Documents/vs/S-Reo/MazeLibrary\Searching.c ****         //東へ側に斜めが2方向
 365:C:/Users/leopi/Documents/vs/S-Reo/MazeLibrary\Searching.c ****         if(now_node->pos.x +1 < NUMBER_OF_SQUARES_X)					//範囲チェック
 1622              		.loc 1 365 9 is_stmt 1 view .LVU416
 1623              		.loc 1 365 25 is_stmt 0 view .LVU417
 1624 0090 8479     		ldrb	r4, [r0, #6]	@ zero_extendqisi2
ARM GAS  C:\Users\leopi\AppData\Local\Temp\ccMCNSog.s 			page 38


 1625              		.loc 1 365 11 view .LVU418
 1626 0092 1E2C     		cmp	r4, #30
 1627 0094 34D8     		bhi	.L95
 366:C:/Users/leopi/Documents/vs/S-Reo/MazeLibrary\Searching.c ****         {
 367:C:/Users/leopi/Documents/vs/S-Reo/MazeLibrary\Searching.c ****             //北東へ
 368:C:/Users/leopi/Documents/vs/S-Reo/MazeLibrary\Searching.c ****             if( (maze->ColumnNode[now_node->pos.x+1][now_node->pos.y].existence & mask) == NOWALL)	
 1628              		.loc 1 368 13 is_stmt 1 view .LVU419
 1629              		.loc 1 368 50 is_stmt 0 view .LVU420
 1630 0096 661C     		adds	r6, r4, #1
 1631              		.loc 1 368 70 view .LVU421
 1632 0098 02EB4617 		add	r7, r2, r6, lsl #5
 1633 009c 07F58467 		add	r7, r7, #1056
 1634 00a0 15F83770 		ldrb	r7, [r5, r7, lsl #3]	@ zero_extendqisi2
 1635              		.loc 1 368 15 view .LVU422
 1636 00a4 1F42     		tst	r7, r3
 1637 00a6 10D1     		bne	.L96
 369:C:/Users/leopi/Documents/vs/S-Reo/MazeLibrary\Searching.c ****             {
 370:C:/Users/leopi/Documents/vs/S-Reo/MazeLibrary\Searching.c ****                 //重みを比較して更新
 371:C:/Users/leopi/Documents/vs/S-Reo/MazeLibrary\Searching.c ****                 if(compare_weight > maze->ColumnNode[now_node->pos.x+1][now_node->pos.y].weight)
 1638              		.loc 1 371 17 is_stmt 1 view .LVU423
 1639              		.loc 1 371 89 is_stmt 0 view .LVU424
 1640 00a8 02EB4617 		add	r7, r2, r6, lsl #5
 1641 00ac 07F58467 		add	r7, r7, #1056
 1642 00b0 05EBC707 		add	r7, r5, r7, lsl #3
 1643 00b4 7F88     		ldrh	r7, [r7, #2]
 1644              		.loc 1 371 19 view .LVU425
 1645 00b6 6745     		cmp	r7, ip
 1646 00b8 07D2     		bcs	.L96
 372:C:/Users/leopi/Documents/vs/S-Reo/MazeLibrary\Searching.c ****                 {
 373:C:/Users/leopi/Documents/vs/S-Reo/MazeLibrary\Searching.c **** #if DEBUG_ON
 374:C:/Users/leopi/Documents/vs/S-Reo/MazeLibrary\Searching.c ****                     printf("北東へ\r\n");
 375:C:/Users/leopi/Documents/vs/S-Reo/MazeLibrary\Searching.c **** #endif
 376:C:/Users/leopi/Documents/vs/S-Reo/MazeLibrary\Searching.c ****                     compare_weight = maze->ColumnNode[now_node->pos.x+1][now_node->pos.y].weight;
 1647              		.loc 1 376 21 is_stmt 1 view .LVU426
 1648              	.LVL124:
 377:C:/Users/leopi/Documents/vs/S-Reo/MazeLibrary\Searching.c ****                     next_node = &(maze->ColumnNode[now_node->pos.x+1][now_node->pos.y]);
 1649              		.loc 1 377 21 view .LVU427
 1650              		.loc 1 377 31 is_stmt 0 view .LVU428
 1651 00ba 02EB461E 		add	lr, r2, r6, lsl #5
 1652              	.LVL125:
 1653              		.loc 1 377 31 view .LVU429
 1654 00be 0EF5846E 		add	lr, lr, #1056
 1655 00c2 05EBCE0E 		add	lr, r5, lr, lsl #3
 1656              	.LVL126:
 378:C:/Users/leopi/Documents/vs/S-Reo/MazeLibrary\Searching.c ****                     flag = true;
 1657              		.loc 1 378 21 is_stmt 1 view .LVU430
 376:C:/Users/leopi/Documents/vs/S-Reo/MazeLibrary\Searching.c ****                     next_node = &(maze->ColumnNode[now_node->pos.x+1][now_node->pos.y]);
 1658              		.loc 1 376 36 is_stmt 0 view .LVU431
 1659 00c6 BC46     		mov	ip, r7
 1660              		.loc 1 378 26 view .LVU432
 1661 00c8 0121     		movs	r1, #1
 1662              	.LVL127:
 1663              	.L96:
 379:C:/Users/leopi/Documents/vs/S-Reo/MazeLibrary\Searching.c ****                 }
 380:C:/Users/leopi/Documents/vs/S-Reo/MazeLibrary\Searching.c ****             }
 381:C:/Users/leopi/Documents/vs/S-Reo/MazeLibrary\Searching.c **** 
 382:C:/Users/leopi/Documents/vs/S-Reo/MazeLibrary\Searching.c ****             //南へ東へ
ARM GAS  C:\Users\leopi\AppData\Local\Temp\ccMCNSog.s 			page 39


 383:C:/Users/leopi/Documents/vs/S-Reo/MazeLibrary\Searching.c ****             if( (maze->ColumnNode[now_node->pos.x+1][now_node->pos.y-1].existence & mask) == NOWALL
 1664              		.loc 1 383 13 is_stmt 1 view .LVU433
 1665              		.loc 1 383 69 is_stmt 0 view .LVU434
 1666 00ca 02F1FF38 		add	r8, r2, #-1
 1667              		.loc 1 383 72 view .LVU435
 1668 00ce 08EB4617 		add	r7, r8, r6, lsl #5
 1669 00d2 07F58467 		add	r7, r7, #1056
 1670 00d6 15F83770 		ldrb	r7, [r5, r7, lsl #3]	@ zero_extendqisi2
 1671              		.loc 1 383 15 view .LVU436
 1672 00da 1F42     		tst	r7, r3
 1673 00dc 10D1     		bne	.L95
 384:C:/Users/leopi/Documents/vs/S-Reo/MazeLibrary\Searching.c ****             {
 385:C:/Users/leopi/Documents/vs/S-Reo/MazeLibrary\Searching.c ****                 //重みを比較して更新
 386:C:/Users/leopi/Documents/vs/S-Reo/MazeLibrary\Searching.c ****                 if(compare_weight > maze->ColumnNode[now_node->pos.x+1][now_node->pos.y-1].weight)
 1674              		.loc 1 386 17 is_stmt 1 view .LVU437
 1675              		.loc 1 386 91 is_stmt 0 view .LVU438
 1676 00de 08EB4617 		add	r7, r8, r6, lsl #5
 1677 00e2 07F58467 		add	r7, r7, #1056
 1678 00e6 05EBC707 		add	r7, r5, r7, lsl #3
 1679 00ea 7F88     		ldrh	r7, [r7, #2]
 1680              		.loc 1 386 19 view .LVU439
 1681 00ec 6745     		cmp	r7, ip
 1682 00ee 07D2     		bcs	.L95
 387:C:/Users/leopi/Documents/vs/S-Reo/MazeLibrary\Searching.c ****                 {
 388:C:/Users/leopi/Documents/vs/S-Reo/MazeLibrary\Searching.c **** #if DEBUG_ON
 389:C:/Users/leopi/Documents/vs/S-Reo/MazeLibrary\Searching.c ****                     printf("南東へ\r\n");
 390:C:/Users/leopi/Documents/vs/S-Reo/MazeLibrary\Searching.c **** #endif
 391:C:/Users/leopi/Documents/vs/S-Reo/MazeLibrary\Searching.c ****                     compare_weight = maze->ColumnNode[now_node->pos.x+1][now_node->pos.y-1].weight;
 1683              		.loc 1 391 21 is_stmt 1 view .LVU440
 1684              	.LVL128:
 392:C:/Users/leopi/Documents/vs/S-Reo/MazeLibrary\Searching.c ****                     next_node = &(maze->ColumnNode[now_node->pos.x+1][now_node->pos.y-1]);
 1685              		.loc 1 392 21 view .LVU441
 1686              		.loc 1 392 31 is_stmt 0 view .LVU442
 1687 00f0 08EB461E 		add	lr, r8, r6, lsl #5
 1688              	.LVL129:
 1689              		.loc 1 392 31 view .LVU443
 1690 00f4 0EF5846E 		add	lr, lr, #1056
 1691 00f8 05EBCE0E 		add	lr, r5, lr, lsl #3
 1692              	.LVL130:
 393:C:/Users/leopi/Documents/vs/S-Reo/MazeLibrary\Searching.c ****                     flag = true;
 1693              		.loc 1 393 21 is_stmt 1 view .LVU444
 391:C:/Users/leopi/Documents/vs/S-Reo/MazeLibrary\Searching.c ****                     next_node = &(maze->ColumnNode[now_node->pos.x+1][now_node->pos.y-1]);
 1694              		.loc 1 391 36 is_stmt 0 view .LVU445
 1695 00fc BC46     		mov	ip, r7
 1696              		.loc 1 393 26 view .LVU446
 1697 00fe 0121     		movs	r1, #1
 1698              	.LVL131:
 1699              	.L95:
 394:C:/Users/leopi/Documents/vs/S-Reo/MazeLibrary\Searching.c ****                 }
 395:C:/Users/leopi/Documents/vs/S-Reo/MazeLibrary\Searching.c ****             }
 396:C:/Users/leopi/Documents/vs/S-Reo/MazeLibrary\Searching.c ****         }
 397:C:/Users/leopi/Documents/vs/S-Reo/MazeLibrary\Searching.c **** 
 398:C:/Users/leopi/Documents/vs/S-Reo/MazeLibrary\Searching.c ****         //西へ側に斜めが2方向
 399:C:/Users/leopi/Documents/vs/S-Reo/MazeLibrary\Searching.c ****         if(now_node->pos.x > 0)						//範囲チェック
 1700              		.loc 1 399 9 is_stmt 1 view .LVU447
 1701              		.loc 1 399 11 is_stmt 0 view .LVU448
 1702 0100 002C     		cmp	r4, #0
ARM GAS  C:\Users\leopi\AppData\Local\Temp\ccMCNSog.s 			page 40


 1703 0102 00F0DD80 		beq	.L97
 400:C:/Users/leopi/Documents/vs/S-Reo/MazeLibrary\Searching.c ****         {
 401:C:/Users/leopi/Documents/vs/S-Reo/MazeLibrary\Searching.c ****             //北西へ
 402:C:/Users/leopi/Documents/vs/S-Reo/MazeLibrary\Searching.c ****             if( (maze->ColumnNode[now_node->pos.x][now_node->pos.y].existence & mask) == NOWALL)		/
 1704              		.loc 1 402 13 is_stmt 1 view .LVU449
 1705              		.loc 1 402 68 is_stmt 0 view .LVU450
 1706 0106 02EB4416 		add	r6, r2, r4, lsl #5
 1707 010a 06F58466 		add	r6, r6, #1056
 1708 010e 15F83660 		ldrb	r6, [r5, r6, lsl #3]	@ zero_extendqisi2
 1709              		.loc 1 402 15 view .LVU451
 1710 0112 1E42     		tst	r6, r3
 1711 0114 10D1     		bne	.L98
 403:C:/Users/leopi/Documents/vs/S-Reo/MazeLibrary\Searching.c ****             {
 404:C:/Users/leopi/Documents/vs/S-Reo/MazeLibrary\Searching.c ****                 //重みを比較して更新
 405:C:/Users/leopi/Documents/vs/S-Reo/MazeLibrary\Searching.c **** 
 406:C:/Users/leopi/Documents/vs/S-Reo/MazeLibrary\Searching.c ****                 if(compare_weight > maze->ColumnNode[now_node->pos.x][now_node->pos.y].weight)
 1712              		.loc 1 406 17 is_stmt 1 view .LVU452
 1713              		.loc 1 406 87 is_stmt 0 view .LVU453
 1714 0116 02EB4416 		add	r6, r2, r4, lsl #5
 1715 011a 06F58466 		add	r6, r6, #1056
 1716 011e 05EBC606 		add	r6, r5, r6, lsl #3
 1717 0122 7688     		ldrh	r6, [r6, #2]
 1718              		.loc 1 406 19 view .LVU454
 1719 0124 6645     		cmp	r6, ip
 1720 0126 07D2     		bcs	.L98
 407:C:/Users/leopi/Documents/vs/S-Reo/MazeLibrary\Searching.c ****                 {
 408:C:/Users/leopi/Documents/vs/S-Reo/MazeLibrary\Searching.c **** #if DEBUG_ON
 409:C:/Users/leopi/Documents/vs/S-Reo/MazeLibrary\Searching.c ****                     printf("北西へ\r\n");
 410:C:/Users/leopi/Documents/vs/S-Reo/MazeLibrary\Searching.c **** #endif
 411:C:/Users/leopi/Documents/vs/S-Reo/MazeLibrary\Searching.c ****                     compare_weight = maze->ColumnNode[now_node->pos.x][now_node->pos.y].weight;
 1721              		.loc 1 411 21 is_stmt 1 view .LVU455
 1722              	.LVL132:
 412:C:/Users/leopi/Documents/vs/S-Reo/MazeLibrary\Searching.c ****                     next_node = &(maze->ColumnNode[now_node->pos.x][now_node->pos.y]);
 1723              		.loc 1 412 21 view .LVU456
 1724              		.loc 1 412 31 is_stmt 0 view .LVU457
 1725 0128 02EB441E 		add	lr, r2, r4, lsl #5
 1726              	.LVL133:
 1727              		.loc 1 412 31 view .LVU458
 1728 012c 0EF5846E 		add	lr, lr, #1056
 1729 0130 05EBCE0E 		add	lr, r5, lr, lsl #3
 1730              	.LVL134:
 413:C:/Users/leopi/Documents/vs/S-Reo/MazeLibrary\Searching.c ****                     flag = true;
 1731              		.loc 1 413 21 is_stmt 1 view .LVU459
 411:C:/Users/leopi/Documents/vs/S-Reo/MazeLibrary\Searching.c ****                     next_node = &(maze->ColumnNode[now_node->pos.x][now_node->pos.y]);
 1732              		.loc 1 411 36 is_stmt 0 view .LVU460
 1733 0134 B446     		mov	ip, r6
 1734              		.loc 1 413 26 view .LVU461
 1735 0136 0121     		movs	r1, #1
 1736              	.LVL135:
 1737              	.L98:
 414:C:/Users/leopi/Documents/vs/S-Reo/MazeLibrary\Searching.c ****                 }
 415:C:/Users/leopi/Documents/vs/S-Reo/MazeLibrary\Searching.c ****             }
 416:C:/Users/leopi/Documents/vs/S-Reo/MazeLibrary\Searching.c ****             //南へ西へ
 417:C:/Users/leopi/Documents/vs/S-Reo/MazeLibrary\Searching.c ****             if( (maze->ColumnNode[now_node->pos.x][now_node->pos.y-1].existence & mask) == NOWALL)	
 1738              		.loc 1 417 13 is_stmt 1 view .LVU462
 1739              		.loc 1 417 67 is_stmt 0 view .LVU463
 1740 0138 013A     		subs	r2, r2, #1
ARM GAS  C:\Users\leopi\AppData\Local\Temp\ccMCNSog.s 			page 41


 1741              		.loc 1 417 70 view .LVU464
 1742 013a 02EB4416 		add	r6, r2, r4, lsl #5
 1743 013e 06F58466 		add	r6, r6, #1056
 1744 0142 15F83660 		ldrb	r6, [r5, r6, lsl #3]	@ zero_extendqisi2
 1745              		.loc 1 417 15 view .LVU465
 1746 0146 1E42     		tst	r6, r3
 1747 0148 40F0BA80 		bne	.L97
 418:C:/Users/leopi/Documents/vs/S-Reo/MazeLibrary\Searching.c ****             {
 419:C:/Users/leopi/Documents/vs/S-Reo/MazeLibrary\Searching.c ****                 //重みを比較して更新
 420:C:/Users/leopi/Documents/vs/S-Reo/MazeLibrary\Searching.c ****                 if(compare_weight > maze->ColumnNode[now_node->pos.x][now_node->pos.y-1].weight)
 1748              		.loc 1 420 17 is_stmt 1 view .LVU466
 1749              		.loc 1 420 89 is_stmt 0 view .LVU467
 1750 014c 02EB4413 		add	r3, r2, r4, lsl #5
 1751              	.LVL136:
 1752              		.loc 1 420 89 view .LVU468
 1753 0150 03F58463 		add	r3, r3, #1056
 1754 0154 05EBC303 		add	r3, r5, r3, lsl #3
 1755 0158 5B88     		ldrh	r3, [r3, #2]
 1756              		.loc 1 420 19 view .LVU469
 1757 015a 6345     		cmp	r3, ip
 1758 015c 80F0B080 		bcs	.L97
 421:C:/Users/leopi/Documents/vs/S-Reo/MazeLibrary\Searching.c ****                 {
 422:C:/Users/leopi/Documents/vs/S-Reo/MazeLibrary\Searching.c **** #if DEBUG_ON
 423:C:/Users/leopi/Documents/vs/S-Reo/MazeLibrary\Searching.c ****                     printf("南西へ\r\n");
 424:C:/Users/leopi/Documents/vs/S-Reo/MazeLibrary\Searching.c **** #endif
 425:C:/Users/leopi/Documents/vs/S-Reo/MazeLibrary\Searching.c ****                     compare_weight = maze->ColumnNode[now_node->pos.x][now_node->pos.y-1].weight;
 1759              		.loc 1 425 21 is_stmt 1 view .LVU470
 1760              	.LVL137:
 426:C:/Users/leopi/Documents/vs/S-Reo/MazeLibrary\Searching.c ****                     next_node = &(maze->ColumnNode[now_node->pos.x][now_node->pos.y-1]);
 1761              		.loc 1 426 21 view .LVU471
 1762              		.loc 1 426 31 is_stmt 0 view .LVU472
 1763 0160 02EB4412 		add	r2, r2, r4, lsl #5
 1764 0164 02F5846E 		add	lr, r2, #1056
 1765              	.LVL138:
 1766              		.loc 1 426 31 view .LVU473
 1767 0168 05EBCE0E 		add	lr, r5, lr, lsl #3
 1768              	.LVL139:
 427:C:/Users/leopi/Documents/vs/S-Reo/MazeLibrary\Searching.c ****                     //このノードあやしい
 428:C:/Users/leopi/Documents/vs/S-Reo/MazeLibrary\Searching.c ****                     flag = true;
 1769              		.loc 1 428 21 is_stmt 1 view .LVU474
 429:C:/Users/leopi/Documents/vs/S-Reo/MazeLibrary\Searching.c ****                 }
 430:C:/Users/leopi/Documents/vs/S-Reo/MazeLibrary\Searching.c ****             }
 431:C:/Users/leopi/Documents/vs/S-Reo/MazeLibrary\Searching.c ****         }
 432:C:/Users/leopi/Documents/vs/S-Reo/MazeLibrary\Searching.c ****         //6つのうち最小ノードを選ぶ
 433:C:/Users/leopi/Documents/vs/S-Reo/MazeLibrary\Searching.c ****     }
 434:C:/Users/leopi/Documents/vs/S-Reo/MazeLibrary\Searching.c ****     else if(now_node->rc == 1)
 435:C:/Users/leopi/Documents/vs/S-Reo/MazeLibrary\Searching.c ****     {
 436:C:/Users/leopi/Documents/vs/S-Reo/MazeLibrary\Searching.c ****         //printf("列にいる\r\n");
 437:C:/Users/leopi/Documents/vs/S-Reo/MazeLibrary\Searching.c ****         //列にいるとき
 438:C:/Users/leopi/Documents/vs/S-Reo/MazeLibrary\Searching.c **** #if DEBUG_ON
 439:C:/Users/leopi/Documents/vs/S-Reo/MazeLibrary\Searching.c ****         printf("列ノードから");
 440:C:/Users/leopi/Documents/vs/S-Reo/MazeLibrary\Searching.c **** #endif
 441:C:/Users/leopi/Documents/vs/S-Reo/MazeLibrary\Searching.c ****         //東へ側ノード
 442:C:/Users/leopi/Documents/vs/S-Reo/MazeLibrary\Searching.c ****         if(now_node->pos.x < NUMBER_OF_SQUARES_X-1)					//範囲チェック
 443:C:/Users/leopi/Documents/vs/S-Reo/MazeLibrary\Searching.c ****         {
 444:C:/Users/leopi/Documents/vs/S-Reo/MazeLibrary\Searching.c ****             if( (maze->ColumnNode[now_node->pos.x+1][now_node->pos.y].existence & mask) == NOWALL)	
 445:C:/Users/leopi/Documents/vs/S-Reo/MazeLibrary\Searching.c ****             {
ARM GAS  C:\Users\leopi\AppData\Local\Temp\ccMCNSog.s 			page 42


 446:C:/Users/leopi/Documents/vs/S-Reo/MazeLibrary\Searching.c ****                 if(compare_weight > maze->ColumnNode[now_node->pos.x+1][now_node->pos.y].weight)
 447:C:/Users/leopi/Documents/vs/S-Reo/MazeLibrary\Searching.c ****                 {
 448:C:/Users/leopi/Documents/vs/S-Reo/MazeLibrary\Searching.c **** #if DEBUG_ON
 449:C:/Users/leopi/Documents/vs/S-Reo/MazeLibrary\Searching.c ****                     printf("東へ\r\n");
 450:C:/Users/leopi/Documents/vs/S-Reo/MazeLibrary\Searching.c **** #endif
 451:C:/Users/leopi/Documents/vs/S-Reo/MazeLibrary\Searching.c ****                     //
 452:C:/Users/leopi/Documents/vs/S-Reo/MazeLibrary\Searching.c **** //                    ChangeLED(2);
 453:C:/Users/leopi/Documents/vs/S-Reo/MazeLibrary\Searching.c ****                     compare_weight = maze->ColumnNode[now_node->pos.x+1][now_node->pos.y].weight;
 454:C:/Users/leopi/Documents/vs/S-Reo/MazeLibrary\Searching.c ****                     next_node = &(maze->ColumnNode[now_node->pos.x+1][now_node->pos.y]);
 455:C:/Users/leopi/Documents/vs/S-Reo/MazeLibrary\Searching.c ****                     flag = true;
 456:C:/Users/leopi/Documents/vs/S-Reo/MazeLibrary\Searching.c ****                 }
 457:C:/Users/leopi/Documents/vs/S-Reo/MazeLibrary\Searching.c ****             }
 458:C:/Users/leopi/Documents/vs/S-Reo/MazeLibrary\Searching.c ****         }
 459:C:/Users/leopi/Documents/vs/S-Reo/MazeLibrary\Searching.c ****         //西へ側ノード
 460:C:/Users/leopi/Documents/vs/S-Reo/MazeLibrary\Searching.c ****         if(now_node->pos.x > 1)						//範囲チェック
 461:C:/Users/leopi/Documents/vs/S-Reo/MazeLibrary\Searching.c ****         {
 462:C:/Users/leopi/Documents/vs/S-Reo/MazeLibrary\Searching.c ****             if( (maze->ColumnNode[now_node->pos.x-1][now_node->pos.y].existence & mask) == NOWALL)	
 463:C:/Users/leopi/Documents/vs/S-Reo/MazeLibrary\Searching.c ****             {
 464:C:/Users/leopi/Documents/vs/S-Reo/MazeLibrary\Searching.c ****                 //重みを比較して更新
 465:C:/Users/leopi/Documents/vs/S-Reo/MazeLibrary\Searching.c ****                 if(compare_weight > maze->ColumnNode[now_node->pos.x-1][now_node->pos.y].weight)
 466:C:/Users/leopi/Documents/vs/S-Reo/MazeLibrary\Searching.c ****                 {
 467:C:/Users/leopi/Documents/vs/S-Reo/MazeLibrary\Searching.c **** //                	ChangeLED(3);
 468:C:/Users/leopi/Documents/vs/S-Reo/MazeLibrary\Searching.c **** #if DEBUG_ON
 469:C:/Users/leopi/Documents/vs/S-Reo/MazeLibrary\Searching.c ****                     printf("西へ\r\n");
 470:C:/Users/leopi/Documents/vs/S-Reo/MazeLibrary\Searching.c **** #endif
 471:C:/Users/leopi/Documents/vs/S-Reo/MazeLibrary\Searching.c ****                     compare_weight = maze->ColumnNode[now_node->pos.x-1][now_node->pos.y].weight;
 472:C:/Users/leopi/Documents/vs/S-Reo/MazeLibrary\Searching.c ****                     next_node = &(maze->ColumnNode[now_node->pos.x-1][now_node->pos.y]);
 473:C:/Users/leopi/Documents/vs/S-Reo/MazeLibrary\Searching.c ****                     flag = true;
 474:C:/Users/leopi/Documents/vs/S-Reo/MazeLibrary\Searching.c ****                 }
 475:C:/Users/leopi/Documents/vs/S-Reo/MazeLibrary\Searching.c ****             }
 476:C:/Users/leopi/Documents/vs/S-Reo/MazeLibrary\Searching.c ****         }
 477:C:/Users/leopi/Documents/vs/S-Reo/MazeLibrary\Searching.c ****         //北側に斜めが2方向
 478:C:/Users/leopi/Documents/vs/S-Reo/MazeLibrary\Searching.c ****         if(now_node->pos.y < NUMBER_OF_SQUARES_Y-1)					//範囲チェック
 479:C:/Users/leopi/Documents/vs/S-Reo/MazeLibrary\Searching.c ****         {
 480:C:/Users/leopi/Documents/vs/S-Reo/MazeLibrary\Searching.c ****             //北東へ
 481:C:/Users/leopi/Documents/vs/S-Reo/MazeLibrary\Searching.c ****             if( (maze->RawNode[now_node->pos.x][now_node->pos.y+1].existence & mask) == NOWALL)		//
 482:C:/Users/leopi/Documents/vs/S-Reo/MazeLibrary\Searching.c ****             {
 483:C:/Users/leopi/Documents/vs/S-Reo/MazeLibrary\Searching.c ****                 //重みを比較して更新
 484:C:/Users/leopi/Documents/vs/S-Reo/MazeLibrary\Searching.c ****                 if(compare_weight > maze->RawNode[now_node->pos.x][now_node->pos.y+1].weight)
 485:C:/Users/leopi/Documents/vs/S-Reo/MazeLibrary\Searching.c ****                 {
 486:C:/Users/leopi/Documents/vs/S-Reo/MazeLibrary\Searching.c **** //                	ChangeLED(4);
 487:C:/Users/leopi/Documents/vs/S-Reo/MazeLibrary\Searching.c **** #if DEBUG_ON
 488:C:/Users/leopi/Documents/vs/S-Reo/MazeLibrary\Searching.c ****                     printf("北東へ\r\n");
 489:C:/Users/leopi/Documents/vs/S-Reo/MazeLibrary\Searching.c **** #endif
 490:C:/Users/leopi/Documents/vs/S-Reo/MazeLibrary\Searching.c ****                     compare_weight = maze->RawNode[now_node->pos.x][now_node->pos.y+1].weight;
 491:C:/Users/leopi/Documents/vs/S-Reo/MazeLibrary\Searching.c ****                     next_node = &(maze->RawNode[now_node->pos.x][now_node->pos.y+1]);
 492:C:/Users/leopi/Documents/vs/S-Reo/MazeLibrary\Searching.c ****                     flag = true;
 493:C:/Users/leopi/Documents/vs/S-Reo/MazeLibrary\Searching.c ****                 }
 494:C:/Users/leopi/Documents/vs/S-Reo/MazeLibrary\Searching.c ****             }
 495:C:/Users/leopi/Documents/vs/S-Reo/MazeLibrary\Searching.c **** 
 496:C:/Users/leopi/Documents/vs/S-Reo/MazeLibrary\Searching.c ****             //北西へ
 497:C:/Users/leopi/Documents/vs/S-Reo/MazeLibrary\Searching.c ****             if( (maze->RawNode[now_node->pos.x-1][now_node->pos.y+1].existence & mask) == NOWALL)		
 498:C:/Users/leopi/Documents/vs/S-Reo/MazeLibrary\Searching.c ****             {
 499:C:/Users/leopi/Documents/vs/S-Reo/MazeLibrary\Searching.c ****                 //重みを比較して更新
 500:C:/Users/leopi/Documents/vs/S-Reo/MazeLibrary\Searching.c ****                 if(compare_weight > maze->RawNode[now_node->pos.x-1][now_node->pos.y+1].weight)
 501:C:/Users/leopi/Documents/vs/S-Reo/MazeLibrary\Searching.c ****                 {
 502:C:/Users/leopi/Documents/vs/S-Reo/MazeLibrary\Searching.c **** #if DEBUG_ON
ARM GAS  C:\Users\leopi\AppData\Local\Temp\ccMCNSog.s 			page 43


 503:C:/Users/leopi/Documents/vs/S-Reo/MazeLibrary\Searching.c ****                     printf("北西へ\r\n");
 504:C:/Users/leopi/Documents/vs/S-Reo/MazeLibrary\Searching.c **** #endif
 505:C:/Users/leopi/Documents/vs/S-Reo/MazeLibrary\Searching.c **** //                    ChangeLED(5);
 506:C:/Users/leopi/Documents/vs/S-Reo/MazeLibrary\Searching.c ****                     compare_weight = maze->RawNode[now_node->pos.x-1][now_node->pos.y+1].weight;
 507:C:/Users/leopi/Documents/vs/S-Reo/MazeLibrary\Searching.c ****                     next_node = &(maze->RawNode[now_node->pos.x-1][now_node->pos.y+1]);
 508:C:/Users/leopi/Documents/vs/S-Reo/MazeLibrary\Searching.c ****                     flag = true;
 509:C:/Users/leopi/Documents/vs/S-Reo/MazeLibrary\Searching.c ****                 }
 510:C:/Users/leopi/Documents/vs/S-Reo/MazeLibrary\Searching.c ****             }
 511:C:/Users/leopi/Documents/vs/S-Reo/MazeLibrary\Searching.c ****         }
 512:C:/Users/leopi/Documents/vs/S-Reo/MazeLibrary\Searching.c **** 
 513:C:/Users/leopi/Documents/vs/S-Reo/MazeLibrary\Searching.c ****         //南へ側に斜めが2方向
 514:C:/Users/leopi/Documents/vs/S-Reo/MazeLibrary\Searching.c ****         if(now_node->pos.y > 0)						//範囲チェック
 515:C:/Users/leopi/Documents/vs/S-Reo/MazeLibrary\Searching.c ****         {
 516:C:/Users/leopi/Documents/vs/S-Reo/MazeLibrary\Searching.c ****             //南へ東へ
 517:C:/Users/leopi/Documents/vs/S-Reo/MazeLibrary\Searching.c ****             if( (maze->RawNode[now_node->pos.x][now_node->pos.y].existence & mask) == NOWALL)		//
 518:C:/Users/leopi/Documents/vs/S-Reo/MazeLibrary\Searching.c ****             {
 519:C:/Users/leopi/Documents/vs/S-Reo/MazeLibrary\Searching.c ****                 //重みを比較して更新
 520:C:/Users/leopi/Documents/vs/S-Reo/MazeLibrary\Searching.c ****                 if(compare_weight > maze->RawNode[now_node->pos.x][now_node->pos.y].weight)
 521:C:/Users/leopi/Documents/vs/S-Reo/MazeLibrary\Searching.c ****                 {
 522:C:/Users/leopi/Documents/vs/S-Reo/MazeLibrary\Searching.c ****                 	//二回目にここが選ばれている
 523:C:/Users/leopi/Documents/vs/S-Reo/MazeLibrary\Searching.c **** //                	ChangeLED(2);
 524:C:/Users/leopi/Documents/vs/S-Reo/MazeLibrary\Searching.c **** #if DEBUG_ON
 525:C:/Users/leopi/Documents/vs/S-Reo/MazeLibrary\Searching.c ****                     printf("南東へ\r\n");
 526:C:/Users/leopi/Documents/vs/S-Reo/MazeLibrary\Searching.c **** #endif
 527:C:/Users/leopi/Documents/vs/S-Reo/MazeLibrary\Searching.c ****                     compare_weight = maze->RawNode[now_node->pos.x][now_node->pos.y].weight;
 528:C:/Users/leopi/Documents/vs/S-Reo/MazeLibrary\Searching.c ****                     next_node = &(maze->RawNode[now_node->pos.x][now_node->pos.y]);
 529:C:/Users/leopi/Documents/vs/S-Reo/MazeLibrary\Searching.c ****                     flag = true;
 530:C:/Users/leopi/Documents/vs/S-Reo/MazeLibrary\Searching.c ****                 }
 531:C:/Users/leopi/Documents/vs/S-Reo/MazeLibrary\Searching.c ****             }
 532:C:/Users/leopi/Documents/vs/S-Reo/MazeLibrary\Searching.c ****             //南へ西へ
 533:C:/Users/leopi/Documents/vs/S-Reo/MazeLibrary\Searching.c ****             if( (maze->RawNode[now_node->pos.x-1][now_node->pos.y].existence & mask) == NOWALL)		//
 534:C:/Users/leopi/Documents/vs/S-Reo/MazeLibrary\Searching.c ****             {
 535:C:/Users/leopi/Documents/vs/S-Reo/MazeLibrary\Searching.c ****                 //重みを比較して更新
 536:C:/Users/leopi/Documents/vs/S-Reo/MazeLibrary\Searching.c ****                 if(compare_weight > maze->RawNode[now_node->pos.x-1][now_node->pos.y].weight)
 537:C:/Users/leopi/Documents/vs/S-Reo/MazeLibrary\Searching.c ****                 {
 538:C:/Users/leopi/Documents/vs/S-Reo/MazeLibrary\Searching.c **** #if DEBUG_ON
 539:C:/Users/leopi/Documents/vs/S-Reo/MazeLibrary\Searching.c ****                     printf("南西へ\r\n");
 540:C:/Users/leopi/Documents/vs/S-Reo/MazeLibrary\Searching.c **** #endif
 541:C:/Users/leopi/Documents/vs/S-Reo/MazeLibrary\Searching.c ****                     compare_weight = maze->RawNode[now_node->pos.x-1][now_node->pos.y].weight;
 542:C:/Users/leopi/Documents/vs/S-Reo/MazeLibrary\Searching.c ****                     next_node = &(maze->RawNode[now_node->pos.x-1][now_node->pos.y]);
 543:C:/Users/leopi/Documents/vs/S-Reo/MazeLibrary\Searching.c ****                     flag = true;
 544:C:/Users/leopi/Documents/vs/S-Reo/MazeLibrary\Searching.c ****                 }
 545:C:/Users/leopi/Documents/vs/S-Reo/MazeLibrary\Searching.c ****             }
 546:C:/Users/leopi/Documents/vs/S-Reo/MazeLibrary\Searching.c ****         }
 547:C:/Users/leopi/Documents/vs/S-Reo/MazeLibrary\Searching.c ****     }
 548:C:/Users/leopi/Documents/vs/S-Reo/MazeLibrary\Searching.c ****     //next_node = now_node;
 549:C:/Users/leopi/Documents/vs/S-Reo/MazeLibrary\Searching.c ****     //printf("ノード更新無し\r\n\r\n");
 550:C:/Users/leopi/Documents/vs/S-Reo/MazeLibrary\Searching.c ****     if(flag == true)
 1770              		.loc 1 550 5 view .LVU475
 1771              	.L99:
 551:C:/Users/leopi/Documents/vs/S-Reo/MazeLibrary\Searching.c ****     {
 552:C:/Users/leopi/Documents/vs/S-Reo/MazeLibrary\Searching.c **** //    	ChangeLED(7);
 553:C:/Users/leopi/Documents/vs/S-Reo/MazeLibrary\Searching.c **** #if DEBUG_ON
 554:C:/Users/leopi/Documents/vs/S-Reo/MazeLibrary\Searching.c ****         printf("ノード更新有り:%p\r\n", next_node);
 555:C:/Users/leopi/Documents/vs/S-Reo/MazeLibrary\Searching.c **** #endif
 556:C:/Users/leopi/Documents/vs/S-Reo/MazeLibrary\Searching.c ****         return next_node;
 1772              		.loc 1 556 9 view .LVU476
ARM GAS  C:\Users\leopi\AppData\Local\Temp\ccMCNSog.s 			page 44


 1773              		.loc 1 556 16 is_stmt 0 view .LVU477
 1774 016c 7046     		mov	r0, lr
 1775              	.LVL140:
 1776              		.loc 1 556 16 view .LVU478
 1777 016e AAE0     		b	.L105
 1778              	.LVL141:
 1779              	.L92:
 434:C:/Users/leopi/Documents/vs/S-Reo/MazeLibrary\Searching.c ****     {
 1780              		.loc 1 434 10 is_stmt 1 view .LVU479
 442:C:/Users/leopi/Documents/vs/S-Reo/MazeLibrary\Searching.c ****         {
 1781              		.loc 1 442 9 view .LVU480
 442:C:/Users/leopi/Documents/vs/S-Reo/MazeLibrary\Searching.c ****         {
 1782              		.loc 1 442 25 is_stmt 0 view .LVU481
 1783 0170 9279     		ldrb	r2, [r2, #6]	@ zero_extendqisi2
 442:C:/Users/leopi/Documents/vs/S-Reo/MazeLibrary\Searching.c ****         {
 1784              		.loc 1 442 11 view .LVU482
 1785 0172 1E2A     		cmp	r2, #30
 1786 0174 1BD8     		bhi	.L106
 444:C:/Users/leopi/Documents/vs/S-Reo/MazeLibrary\Searching.c ****             {
 1787              		.loc 1 444 13 is_stmt 1 view .LVU483
 444:C:/Users/leopi/Documents/vs/S-Reo/MazeLibrary\Searching.c ****             {
 1788              		.loc 1 444 50 is_stmt 0 view .LVU484
 1789 0176 571C     		adds	r7, r2, #1
 444:C:/Users/leopi/Documents/vs/S-Reo/MazeLibrary\Searching.c ****             {
 1790              		.loc 1 444 67 view .LVU485
 1791 0178 C679     		ldrb	r6, [r0, #7]	@ zero_extendqisi2
 444:C:/Users/leopi/Documents/vs/S-Reo/MazeLibrary\Searching.c ****             {
 1792              		.loc 1 444 70 view .LVU486
 1793 017a 06EB4714 		add	r4, r6, r7, lsl #5
 1794 017e 04F58464 		add	r4, r4, #1056
 1795 0182 15F83440 		ldrb	r4, [r5, r4, lsl #3]	@ zero_extendqisi2
 444:C:/Users/leopi/Documents/vs/S-Reo/MazeLibrary\Searching.c ****             {
 1796              		.loc 1 444 15 view .LVU487
 1797 0186 1C42     		tst	r4, r3
 1798 0188 7CD1     		bne	.L107
 446:C:/Users/leopi/Documents/vs/S-Reo/MazeLibrary\Searching.c ****                 {
 1799              		.loc 1 446 17 is_stmt 1 view .LVU488
 446:C:/Users/leopi/Documents/vs/S-Reo/MazeLibrary\Searching.c ****                 {
 1800              		.loc 1 446 89 is_stmt 0 view .LVU489
 1801 018a 06EB4714 		add	r4, r6, r7, lsl #5
 1802 018e 04F58464 		add	r4, r4, #1056
 1803 0192 05EBC404 		add	r4, r5, r4, lsl #3
 1804 0196 6488     		ldrh	r4, [r4, #2]
 446:C:/Users/leopi/Documents/vs/S-Reo/MazeLibrary\Searching.c ****                 {
 1805              		.loc 1 446 19 view .LVU490
 1806 0198 6445     		cmp	r4, ip
 1807 019a 75D2     		bcs	.L108
 453:C:/Users/leopi/Documents/vs/S-Reo/MazeLibrary\Searching.c ****                     next_node = &(maze->ColumnNode[now_node->pos.x+1][now_node->pos.y]);
 1808              		.loc 1 453 21 is_stmt 1 view .LVU491
 1809              	.LVL142:
 454:C:/Users/leopi/Documents/vs/S-Reo/MazeLibrary\Searching.c ****                     flag = true;
 1810              		.loc 1 454 21 view .LVU492
 454:C:/Users/leopi/Documents/vs/S-Reo/MazeLibrary\Searching.c ****                     flag = true;
 1811              		.loc 1 454 31 is_stmt 0 view .LVU493
 1812 019c 06EB471E 		add	lr, r6, r7, lsl #5
 1813 01a0 0EF5846E 		add	lr, lr, #1056
 1814 01a4 05EBCE0E 		add	lr, r5, lr, lsl #3
ARM GAS  C:\Users\leopi\AppData\Local\Temp\ccMCNSog.s 			page 45


 1815              	.LVL143:
 455:C:/Users/leopi/Documents/vs/S-Reo/MazeLibrary\Searching.c ****                 }
 1816              		.loc 1 455 21 is_stmt 1 view .LVU494
 455:C:/Users/leopi/Documents/vs/S-Reo/MazeLibrary\Searching.c ****                 }
 1817              		.loc 1 455 26 is_stmt 0 view .LVU495
 1818 01a8 0F46     		mov	r7, r1
 453:C:/Users/leopi/Documents/vs/S-Reo/MazeLibrary\Searching.c ****                     next_node = &(maze->ColumnNode[now_node->pos.x+1][now_node->pos.y]);
 1819              		.loc 1 453 36 view .LVU496
 1820 01aa A446     		mov	ip, r4
 1821 01ac 00E0     		b	.L100
 1822              	.LVL144:
 1823              	.L106:
 312:C:/Users/leopi/Documents/vs/S-Reo/MazeLibrary\Searching.c ****     //printf("マイノードが01のどちらか:%d\r\n",now_node->rc);
 1824              		.loc 1 312 11 view .LVU497
 1825 01ae 0027     		movs	r7, #0
 1826              	.LVL145:
 1827              	.L100:
 460:C:/Users/leopi/Documents/vs/S-Reo/MazeLibrary\Searching.c ****         {
 1828              		.loc 1 460 9 is_stmt 1 view .LVU498
 460:C:/Users/leopi/Documents/vs/S-Reo/MazeLibrary\Searching.c ****         {
 1829              		.loc 1 460 11 is_stmt 0 view .LVU499
 1830 01b0 012A     		cmp	r2, #1
 1831 01b2 1BD9     		bls	.L101
 462:C:/Users/leopi/Documents/vs/S-Reo/MazeLibrary\Searching.c ****             {
 1832              		.loc 1 462 13 is_stmt 1 view .LVU500
 462:C:/Users/leopi/Documents/vs/S-Reo/MazeLibrary\Searching.c ****             {
 1833              		.loc 1 462 50 is_stmt 0 view .LVU501
 1834 01b4 02F1FF38 		add	r8, r2, #-1
 462:C:/Users/leopi/Documents/vs/S-Reo/MazeLibrary\Searching.c ****             {
 1835              		.loc 1 462 67 view .LVU502
 1836 01b8 C679     		ldrb	r6, [r0, #7]	@ zero_extendqisi2
 462:C:/Users/leopi/Documents/vs/S-Reo/MazeLibrary\Searching.c ****             {
 1837              		.loc 1 462 70 view .LVU503
 1838 01ba 06EB4814 		add	r4, r6, r8, lsl #5
 1839 01be 04F58464 		add	r4, r4, #1056
 1840 01c2 15F83440 		ldrb	r4, [r5, r4, lsl #3]	@ zero_extendqisi2
 462:C:/Users/leopi/Documents/vs/S-Reo/MazeLibrary\Searching.c ****             {
 1841              		.loc 1 462 15 view .LVU504
 1842 01c6 1C42     		tst	r4, r3
 1843 01c8 10D1     		bne	.L101
 465:C:/Users/leopi/Documents/vs/S-Reo/MazeLibrary\Searching.c ****                 {
 1844              		.loc 1 465 17 is_stmt 1 view .LVU505
 465:C:/Users/leopi/Documents/vs/S-Reo/MazeLibrary\Searching.c ****                 {
 1845              		.loc 1 465 89 is_stmt 0 view .LVU506
 1846 01ca 06EB4814 		add	r4, r6, r8, lsl #5
 1847 01ce 04F58464 		add	r4, r4, #1056
 1848 01d2 05EBC404 		add	r4, r5, r4, lsl #3
 1849 01d6 6488     		ldrh	r4, [r4, #2]
 465:C:/Users/leopi/Documents/vs/S-Reo/MazeLibrary\Searching.c ****                 {
 1850              		.loc 1 465 19 view .LVU507
 1851 01d8 6445     		cmp	r4, ip
 1852 01da 07D2     		bcs	.L101
 471:C:/Users/leopi/Documents/vs/S-Reo/MazeLibrary\Searching.c ****                     next_node = &(maze->ColumnNode[now_node->pos.x-1][now_node->pos.y]);
 1853              		.loc 1 471 21 is_stmt 1 view .LVU508
 1854              	.LVL146:
 472:C:/Users/leopi/Documents/vs/S-Reo/MazeLibrary\Searching.c ****                     flag = true;
 1855              		.loc 1 472 21 view .LVU509
ARM GAS  C:\Users\leopi\AppData\Local\Temp\ccMCNSog.s 			page 46


 472:C:/Users/leopi/Documents/vs/S-Reo/MazeLibrary\Searching.c ****                     flag = true;
 1856              		.loc 1 472 31 is_stmt 0 view .LVU510
 1857 01dc 06EB481E 		add	lr, r6, r8, lsl #5
 1858              	.LVL147:
 472:C:/Users/leopi/Documents/vs/S-Reo/MazeLibrary\Searching.c ****                     flag = true;
 1859              		.loc 1 472 31 view .LVU511
 1860 01e0 0EF5846E 		add	lr, lr, #1056
 1861 01e4 05EBCE0E 		add	lr, r5, lr, lsl #3
 1862              	.LVL148:
 473:C:/Users/leopi/Documents/vs/S-Reo/MazeLibrary\Searching.c ****                 }
 1863              		.loc 1 473 21 is_stmt 1 view .LVU512
 473:C:/Users/leopi/Documents/vs/S-Reo/MazeLibrary\Searching.c ****                 }
 1864              		.loc 1 473 26 is_stmt 0 view .LVU513
 1865 01e8 0F46     		mov	r7, r1
 471:C:/Users/leopi/Documents/vs/S-Reo/MazeLibrary\Searching.c ****                     next_node = &(maze->ColumnNode[now_node->pos.x-1][now_node->pos.y]);
 1866              		.loc 1 471 36 view .LVU514
 1867 01ea A446     		mov	ip, r4
 1868              	.LVL149:
 1869              	.L101:
 478:C:/Users/leopi/Documents/vs/S-Reo/MazeLibrary\Searching.c ****         {
 1870              		.loc 1 478 9 is_stmt 1 view .LVU515
 478:C:/Users/leopi/Documents/vs/S-Reo/MazeLibrary\Searching.c ****         {
 1871              		.loc 1 478 25 is_stmt 0 view .LVU516
 1872 01ec C479     		ldrb	r4, [r0, #7]	@ zero_extendqisi2
 478:C:/Users/leopi/Documents/vs/S-Reo/MazeLibrary\Searching.c ****         {
 1873              		.loc 1 478 11 view .LVU517
 1874 01ee 1E2C     		cmp	r4, #30
 1875 01f0 31D8     		bhi	.L102
 481:C:/Users/leopi/Documents/vs/S-Reo/MazeLibrary\Searching.c ****             {
 1876              		.loc 1 481 13 is_stmt 1 view .LVU518
 481:C:/Users/leopi/Documents/vs/S-Reo/MazeLibrary\Searching.c ****             {
 1877              		.loc 1 481 64 is_stmt 0 view .LVU519
 1878 01f2 04F10108 		add	r8, r4, #1
 481:C:/Users/leopi/Documents/vs/S-Reo/MazeLibrary\Searching.c ****             {
 1879              		.loc 1 481 67 view .LVU520
 1880 01f6 02EB4216 		add	r6, r2, r2, lsl #5
 1881 01fa 4644     		add	r6, r6, r8
 1882 01fc 15F83660 		ldrb	r6, [r5, r6, lsl #3]	@ zero_extendqisi2
 481:C:/Users/leopi/Documents/vs/S-Reo/MazeLibrary\Searching.c ****             {
 1883              		.loc 1 481 15 view .LVU521
 1884 0200 1E42     		tst	r6, r3
 1885 0202 0ED1     		bne	.L103
 484:C:/Users/leopi/Documents/vs/S-Reo/MazeLibrary\Searching.c ****                 {
 1886              		.loc 1 484 17 is_stmt 1 view .LVU522
 484:C:/Users/leopi/Documents/vs/S-Reo/MazeLibrary\Searching.c ****                 {
 1887              		.loc 1 484 86 is_stmt 0 view .LVU523
 1888 0204 02EB4216 		add	r6, r2, r2, lsl #5
 1889 0208 4644     		add	r6, r6, r8
 1890 020a 05EBC606 		add	r6, r5, r6, lsl #3
 1891 020e 7688     		ldrh	r6, [r6, #2]
 484:C:/Users/leopi/Documents/vs/S-Reo/MazeLibrary\Searching.c ****                 {
 1892              		.loc 1 484 19 view .LVU524
 1893 0210 6645     		cmp	r6, ip
 1894 0212 06D2     		bcs	.L103
 490:C:/Users/leopi/Documents/vs/S-Reo/MazeLibrary\Searching.c ****                     next_node = &(maze->RawNode[now_node->pos.x][now_node->pos.y+1]);
 1895              		.loc 1 490 21 is_stmt 1 view .LVU525
 1896              	.LVL150:
ARM GAS  C:\Users\leopi\AppData\Local\Temp\ccMCNSog.s 			page 47


 491:C:/Users/leopi/Documents/vs/S-Reo/MazeLibrary\Searching.c ****                     flag = true;
 1897              		.loc 1 491 21 view .LVU526
 491:C:/Users/leopi/Documents/vs/S-Reo/MazeLibrary\Searching.c ****                     flag = true;
 1898              		.loc 1 491 31 is_stmt 0 view .LVU527
 1899 0214 02EB421E 		add	lr, r2, r2, lsl #5
 1900              	.LVL151:
 491:C:/Users/leopi/Documents/vs/S-Reo/MazeLibrary\Searching.c ****                     flag = true;
 1901              		.loc 1 491 31 view .LVU528
 1902 0218 C644     		add	lr, lr, r8
 1903 021a 05EBCE0E 		add	lr, r5, lr, lsl #3
 1904              	.LVL152:
 492:C:/Users/leopi/Documents/vs/S-Reo/MazeLibrary\Searching.c ****                 }
 1905              		.loc 1 492 21 is_stmt 1 view .LVU529
 492:C:/Users/leopi/Documents/vs/S-Reo/MazeLibrary\Searching.c ****                 }
 1906              		.loc 1 492 26 is_stmt 0 view .LVU530
 1907 021e 0F46     		mov	r7, r1
 490:C:/Users/leopi/Documents/vs/S-Reo/MazeLibrary\Searching.c ****                     next_node = &(maze->RawNode[now_node->pos.x][now_node->pos.y+1]);
 1908              		.loc 1 490 36 view .LVU531
 1909 0220 B446     		mov	ip, r6
 1910              	.LVL153:
 1911              	.L103:
 497:C:/Users/leopi/Documents/vs/S-Reo/MazeLibrary\Searching.c ****             {
 1912              		.loc 1 497 13 is_stmt 1 view .LVU532
 497:C:/Users/leopi/Documents/vs/S-Reo/MazeLibrary\Searching.c ****             {
 1913              		.loc 1 497 47 is_stmt 0 view .LVU533
 1914 0222 561E     		subs	r6, r2, #1
 497:C:/Users/leopi/Documents/vs/S-Reo/MazeLibrary\Searching.c ****             {
 1915              		.loc 1 497 69 view .LVU534
 1916 0224 06EB4619 		add	r9, r6, r6, lsl #5
 1917 0228 C144     		add	r9, r9, r8
 1918 022a 15F83990 		ldrb	r9, [r5, r9, lsl #3]	@ zero_extendqisi2
 497:C:/Users/leopi/Documents/vs/S-Reo/MazeLibrary\Searching.c ****             {
 1919              		.loc 1 497 15 view .LVU535
 1920 022e 19EA030F 		tst	r9, r3
 1921 0232 10D1     		bne	.L102
 500:C:/Users/leopi/Documents/vs/S-Reo/MazeLibrary\Searching.c ****                 {
 1922              		.loc 1 500 17 is_stmt 1 view .LVU536
 500:C:/Users/leopi/Documents/vs/S-Reo/MazeLibrary\Searching.c ****                 {
 1923              		.loc 1 500 88 is_stmt 0 view .LVU537
 1924 0234 06EB4619 		add	r9, r6, r6, lsl #5
 1925 0238 C144     		add	r9, r9, r8
 1926 023a 05EBC909 		add	r9, r5, r9, lsl #3
 1927 023e B9F80290 		ldrh	r9, [r9, #2]
 500:C:/Users/leopi/Documents/vs/S-Reo/MazeLibrary\Searching.c ****                 {
 1928              		.loc 1 500 19 view .LVU538
 1929 0242 E145     		cmp	r9, ip
 1930 0244 07D2     		bcs	.L102
 506:C:/Users/leopi/Documents/vs/S-Reo/MazeLibrary\Searching.c ****                     next_node = &(maze->RawNode[now_node->pos.x-1][now_node->pos.y+1]);
 1931              		.loc 1 506 21 is_stmt 1 view .LVU539
 1932              	.LVL154:
 507:C:/Users/leopi/Documents/vs/S-Reo/MazeLibrary\Searching.c ****                     flag = true;
 1933              		.loc 1 507 21 view .LVU540
 507:C:/Users/leopi/Documents/vs/S-Reo/MazeLibrary\Searching.c ****                     flag = true;
 1934              		.loc 1 507 31 is_stmt 0 view .LVU541
 1935 0246 06EB4616 		add	r6, r6, r6, lsl #5
 1936 024a 06EB080E 		add	lr, r6, r8
 1937              	.LVL155:
ARM GAS  C:\Users\leopi\AppData\Local\Temp\ccMCNSog.s 			page 48


 507:C:/Users/leopi/Documents/vs/S-Reo/MazeLibrary\Searching.c ****                     flag = true;
 1938              		.loc 1 507 31 view .LVU542
 1939 024e 05EBCE0E 		add	lr, r5, lr, lsl #3
 1940              	.LVL156:
 508:C:/Users/leopi/Documents/vs/S-Reo/MazeLibrary\Searching.c ****                 }
 1941              		.loc 1 508 21 is_stmt 1 view .LVU543
 508:C:/Users/leopi/Documents/vs/S-Reo/MazeLibrary\Searching.c ****                 }
 1942              		.loc 1 508 26 is_stmt 0 view .LVU544
 1943 0252 0F46     		mov	r7, r1
 506:C:/Users/leopi/Documents/vs/S-Reo/MazeLibrary\Searching.c ****                     next_node = &(maze->RawNode[now_node->pos.x-1][now_node->pos.y+1]);
 1944              		.loc 1 506 36 view .LVU545
 1945 0254 CC46     		mov	ip, r9
 1946              	.LVL157:
 1947              	.L102:
 514:C:/Users/leopi/Documents/vs/S-Reo/MazeLibrary\Searching.c ****         {
 1948              		.loc 1 514 9 is_stmt 1 view .LVU546
 514:C:/Users/leopi/Documents/vs/S-Reo/MazeLibrary\Searching.c ****         {
 1949              		.loc 1 514 11 is_stmt 0 view .LVU547
 1950 0256 94B3     		cbz	r4, .L109
 517:C:/Users/leopi/Documents/vs/S-Reo/MazeLibrary\Searching.c ****             {
 1951              		.loc 1 517 13 is_stmt 1 view .LVU548
 517:C:/Users/leopi/Documents/vs/S-Reo/MazeLibrary\Searching.c ****             {
 1952              		.loc 1 517 65 is_stmt 0 view .LVU549
 1953 0258 02EB4216 		add	r6, r2, r2, lsl #5
 1954 025c 2644     		add	r6, r6, r4
 1955 025e 15F83660 		ldrb	r6, [r5, r6, lsl #3]	@ zero_extendqisi2
 517:C:/Users/leopi/Documents/vs/S-Reo/MazeLibrary\Searching.c ****             {
 1956              		.loc 1 517 15 view .LVU550
 1957 0262 1E42     		tst	r6, r3
 1958 0264 12D1     		bne	.L110
 520:C:/Users/leopi/Documents/vs/S-Reo/MazeLibrary\Searching.c ****                 {
 1959              		.loc 1 520 17 is_stmt 1 view .LVU551
 520:C:/Users/leopi/Documents/vs/S-Reo/MazeLibrary\Searching.c ****                 {
 1960              		.loc 1 520 84 is_stmt 0 view .LVU552
 1961 0266 02EB4216 		add	r6, r2, r2, lsl #5
 1962 026a 2644     		add	r6, r6, r4
 1963 026c 05EBC606 		add	r6, r5, r6, lsl #3
 1964 0270 7688     		ldrh	r6, [r6, #2]
 520:C:/Users/leopi/Documents/vs/S-Reo/MazeLibrary\Searching.c ****                 {
 1965              		.loc 1 520 19 view .LVU553
 1966 0272 6645     		cmp	r6, ip
 1967 0274 21D2     		bcs	.L111
 527:C:/Users/leopi/Documents/vs/S-Reo/MazeLibrary\Searching.c ****                     next_node = &(maze->RawNode[now_node->pos.x][now_node->pos.y]);
 1968              		.loc 1 527 21 is_stmt 1 view .LVU554
 1969              	.LVL158:
 528:C:/Users/leopi/Documents/vs/S-Reo/MazeLibrary\Searching.c ****                     flag = true;
 1970              		.loc 1 528 21 view .LVU555
 528:C:/Users/leopi/Documents/vs/S-Reo/MazeLibrary\Searching.c ****                     flag = true;
 1971              		.loc 1 528 31 is_stmt 0 view .LVU556
 1972 0276 02EB421E 		add	lr, r2, r2, lsl #5
 1973              	.LVL159:
 528:C:/Users/leopi/Documents/vs/S-Reo/MazeLibrary\Searching.c ****                     flag = true;
 1974              		.loc 1 528 31 view .LVU557
 1975 027a A644     		add	lr, lr, r4
 1976 027c 05EBCE0E 		add	lr, r5, lr, lsl #3
 1977              	.LVL160:
 529:C:/Users/leopi/Documents/vs/S-Reo/MazeLibrary\Searching.c ****                 }
ARM GAS  C:\Users\leopi\AppData\Local\Temp\ccMCNSog.s 			page 49


 1978              		.loc 1 529 21 is_stmt 1 view .LVU558
 527:C:/Users/leopi/Documents/vs/S-Reo/MazeLibrary\Searching.c ****                     next_node = &(maze->RawNode[now_node->pos.x][now_node->pos.y]);
 1979              		.loc 1 527 36 is_stmt 0 view .LVU559
 1980 0280 B446     		mov	ip, r6
 1981 0282 04E0     		b	.L104
 1982              	.LVL161:
 1983              	.L107:
 312:C:/Users/leopi/Documents/vs/S-Reo/MazeLibrary\Searching.c ****     //printf("マイノードが01のどちらか:%d\r\n",now_node->rc);
 1984              		.loc 1 312 11 view .LVU560
 1985 0284 0027     		movs	r7, #0
 1986 0286 93E7     		b	.L100
 1987              	.L108:
 1988 0288 0027     		movs	r7, #0
 1989 028a 91E7     		b	.L100
 1990              	.LVL162:
 1991              	.L110:
 312:C:/Users/leopi/Documents/vs/S-Reo/MazeLibrary\Searching.c ****     //printf("マイノードが01のどちらか:%d\r\n",now_node->rc);
 1992              		.loc 1 312 11 view .LVU561
 1993 028c 3946     		mov	r1, r7
 1994              	.LVL163:
 1995              	.L104:
 533:C:/Users/leopi/Documents/vs/S-Reo/MazeLibrary\Searching.c ****             {
 1996              		.loc 1 533 13 is_stmt 1 view .LVU562
 533:C:/Users/leopi/Documents/vs/S-Reo/MazeLibrary\Searching.c ****             {
 1997              		.loc 1 533 47 is_stmt 0 view .LVU563
 1998 028e 013A     		subs	r2, r2, #1
 533:C:/Users/leopi/Documents/vs/S-Reo/MazeLibrary\Searching.c ****             {
 1999              		.loc 1 533 67 view .LVU564
 2000 0290 02EB4216 		add	r6, r2, r2, lsl #5
 2001 0294 2644     		add	r6, r6, r4
 2002 0296 15F83660 		ldrb	r6, [r5, r6, lsl #3]	@ zero_extendqisi2
 533:C:/Users/leopi/Documents/vs/S-Reo/MazeLibrary\Searching.c ****             {
 2003              		.loc 1 533 15 view .LVU565
 2004 029a 1E42     		tst	r6, r3
 2005 029c 10D1     		bne	.L97
 536:C:/Users/leopi/Documents/vs/S-Reo/MazeLibrary\Searching.c ****                 {
 2006              		.loc 1 536 17 is_stmt 1 view .LVU566
 536:C:/Users/leopi/Documents/vs/S-Reo/MazeLibrary\Searching.c ****                 {
 2007              		.loc 1 536 86 is_stmt 0 view .LVU567
 2008 029e 02EB4213 		add	r3, r2, r2, lsl #5
 2009              	.LVL164:
 536:C:/Users/leopi/Documents/vs/S-Reo/MazeLibrary\Searching.c ****                 {
 2010              		.loc 1 536 86 view .LVU568
 2011 02a2 2344     		add	r3, r3, r4
 2012 02a4 05EBC303 		add	r3, r5, r3, lsl #3
 2013 02a8 5B88     		ldrh	r3, [r3, #2]
 536:C:/Users/leopi/Documents/vs/S-Reo/MazeLibrary\Searching.c ****                 {
 2014              		.loc 1 536 19 view .LVU569
 2015 02aa 6345     		cmp	r3, ip
 2016 02ac 08D2     		bcs	.L97
 541:C:/Users/leopi/Documents/vs/S-Reo/MazeLibrary\Searching.c ****                     next_node = &(maze->RawNode[now_node->pos.x-1][now_node->pos.y]);
 2017              		.loc 1 541 21 is_stmt 1 view .LVU570
 2018              	.LVL165:
 542:C:/Users/leopi/Documents/vs/S-Reo/MazeLibrary\Searching.c ****                     flag = true;
 2019              		.loc 1 542 21 view .LVU571
 542:C:/Users/leopi/Documents/vs/S-Reo/MazeLibrary\Searching.c ****                     flag = true;
 2020              		.loc 1 542 31 is_stmt 0 view .LVU572
ARM GAS  C:\Users\leopi\AppData\Local\Temp\ccMCNSog.s 			page 50


 2021 02ae 02EB4212 		add	r2, r2, r2, lsl #5
 2022 02b2 1444     		add	r4, r4, r2
 2023 02b4 05EBC40E 		add	lr, r5, r4, lsl #3
 2024              	.LVL166:
 543:C:/Users/leopi/Documents/vs/S-Reo/MazeLibrary\Searching.c ****                 }
 2025              		.loc 1 543 21 is_stmt 1 view .LVU573
 550:C:/Users/leopi/Documents/vs/S-Reo/MazeLibrary\Searching.c ****     {
 2026              		.loc 1 550 5 view .LVU574
 2027 02b8 58E7     		b	.L99
 2028              	.LVL167:
 2029              	.L111:
 550:C:/Users/leopi/Documents/vs/S-Reo/MazeLibrary\Searching.c ****     {
 2030              		.loc 1 550 5 is_stmt 0 view .LVU575
 2031 02ba 3946     		mov	r1, r7
 2032 02bc E7E7     		b	.L104
 2033              	.L109:
 550:C:/Users/leopi/Documents/vs/S-Reo/MazeLibrary\Searching.c ****     {
 2034              		.loc 1 550 5 view .LVU576
 2035 02be 3946     		mov	r1, r7
 2036              	.LVL168:
 2037              	.L97:
 550:C:/Users/leopi/Documents/vs/S-Reo/MazeLibrary\Searching.c ****     {
 2038              		.loc 1 550 5 is_stmt 1 view .LVU577
 550:C:/Users/leopi/Documents/vs/S-Reo/MazeLibrary\Searching.c ****     {
 2039              		.loc 1 550 7 is_stmt 0 view .LVU578
 2040 02c0 0029     		cmp	r1, #0
 2041 02c2 7FF453AF 		bne	.L99
 2042              	.LVL169:
 2043              	.L105:
 557:C:/Users/leopi/Documents/vs/S-Reo/MazeLibrary\Searching.c ****     }
 558:C:/Users/leopi/Documents/vs/S-Reo/MazeLibrary\Searching.c ****     if(flag == false)
 559:C:/Users/leopi/Documents/vs/S-Reo/MazeLibrary\Searching.c ****     {
 560:C:/Users/leopi/Documents/vs/S-Reo/MazeLibrary\Searching.c **** 
 561:C:/Users/leopi/Documents/vs/S-Reo/MazeLibrary\Searching.c **** //    	ChangeLED(1);
 562:C:/Users/leopi/Documents/vs/S-Reo/MazeLibrary\Searching.c **** #if DEBUG_ON
 563:C:/Users/leopi/Documents/vs/S-Reo/MazeLibrary\Searching.c ****     	printf("ノード更新無し\r\n\r\n");
 564:C:/Users/leopi/Documents/vs/S-Reo/MazeLibrary\Searching.c **** #endif
 565:C:/Users/leopi/Documents/vs/S-Reo/MazeLibrary\Searching.c **** 
 566:C:/Users/leopi/Documents/vs/S-Reo/MazeLibrary\Searching.c ****         return now_node;//万が一更新されなかったら、今いるノードが目標ノー
 567:C:/Users/leopi/Documents/vs/S-Reo/MazeLibrary\Searching.c ****         //停止しなかった。前回の情報がそのまま反映されるだけ
 568:C:/Users/leopi/Documents/vs/S-Reo/MazeLibrary\Searching.c ****     }
 569:C:/Users/leopi/Documents/vs/S-Reo/MazeLibrary\Searching.c ****     return now_node; //
 570:C:/Users/leopi/Documents/vs/S-Reo/MazeLibrary\Searching.c **** 
 571:C:/Users/leopi/Documents/vs/S-Reo/MazeLibrary\Searching.c **** }
 2044              		.loc 1 571 1 view .LVU579
 2045 02c6 BDE8F083 		pop	{r4, r5, r6, r7, r8, r9, pc}
 2046              	.LVL170:
 2047              	.L114:
 2048              		.loc 1 571 1 view .LVU580
 2049 02ca 00BF     		.align	2
 2050              	.L113:
 2051 02cc 00000000 		.word	.LANCHOR1
 2052              		.cfi_endproc
 2053              	.LFE24:
 2055              		.section	.text.judgeAccelorNot,"ax",%progbits
 2056              		.align	1
 2057              		.global	judgeAccelorNot
ARM GAS  C:\Users\leopi\AppData\Local\Temp\ccMCNSog.s 			page 51


 2058              		.syntax unified
 2059              		.thumb
 2060              		.thumb_func
 2062              	judgeAccelorNot:
 2063              	.LVL171:
 2064              	.LFB25:
 572:C:/Users/leopi/Documents/vs/S-Reo/MazeLibrary\Searching.c **** _Bool judgeAccelorNot(maze_node *maze, cardinal car, node *now_node)
 573:C:/Users/leopi/Documents/vs/S-Reo/MazeLibrary\Searching.c **** {
 2065              		.loc 1 573 1 is_stmt 1 view -0
 2066              		.cfi_startproc
 2067              		@ args = 0, pretend = 0, frame = 0
 2068              		@ frame_needed = 0, uses_anonymous_args = 0
 2069              		.loc 1 573 1 is_stmt 0 view .LVU582
 2070 0000 70B5     		push	{r4, r5, r6, lr}
 2071              	.LCFI21:
 2072              		.cfi_def_cfa_offset 16
 2073              		.cfi_offset 4, -16
 2074              		.cfi_offset 5, -12
 2075              		.cfi_offset 6, -8
 2076              		.cfi_offset 14, -4
 2077 0002 0346     		mov	r3, r0
 574:C:/Users/leopi/Documents/vs/S-Reo/MazeLibrary\Searching.c **** 	uint16_t compare_weight=0;
 2078              		.loc 1 574 2 is_stmt 1 view .LVU583
 2079              	.LVL172:
 575:C:/Users/leopi/Documents/vs/S-Reo/MazeLibrary\Searching.c **** 
 576:C:/Users/leopi/Documents/vs/S-Reo/MazeLibrary\Searching.c **** 	compare_weight = now_node->weight;
 2080              		.loc 1 576 2 view .LVU584
 2081              		.loc 1 576 17 is_stmt 0 view .LVU585
 2082 0004 B2F802C0 		ldrh	ip, [r2, #2]
 2083              	.LVL173:
 577:C:/Users/leopi/Documents/vs/S-Reo/MazeLibrary\Searching.c **** 
 578:C:/Users/leopi/Documents/vs/S-Reo/MazeLibrary\Searching.c **** 	_Bool flag=false;
 2084              		.loc 1 578 2 is_stmt 1 view .LVU586
 579:C:/Users/leopi/Documents/vs/S-Reo/MazeLibrary\Searching.c **** 	//現ノードから3方向ノードを見て、未知なら即return
 580:C:/Users/leopi/Documents/vs/S-Reo/MazeLibrary\Searching.c **** 	if(now_node->rc == 0)
 2085              		.loc 1 580 2 view .LVU587
 2086              		.loc 1 580 13 is_stmt 0 view .LVU588
 2087 0008 5079     		ldrb	r0, [r2, #5]	@ zero_extendqisi2
 2088              	.LVL174:
 2089              		.loc 1 580 4 view .LVU589
 2090 000a 0028     		cmp	r0, #0
 2091 000c 40F0AE80 		bne	.L116
 581:C:/Users/leopi/Documents/vs/S-Reo/MazeLibrary\Searching.c **** 	{
 582:C:/Users/leopi/Documents/vs/S-Reo/MazeLibrary\Searching.c **** 		switch(car%8)
 2092              		.loc 1 582 3 is_stmt 1 view .LVU590
 2093 0010 11F00701 		ands	r1, r1, #7
 2094              	.LVL175:
 2095              		.loc 1 582 3 is_stmt 0 view .LVU591
 2096 0014 02D0     		beq	.L117
 2097 0016 0429     		cmp	r1, #4
 2098 0018 52D0     		beq	.L118
 2099              	.LVL176:
 2100              	.L119:
 583:C:/Users/leopi/Documents/vs/S-Reo/MazeLibrary\Searching.c **** 		{
 584:C:/Users/leopi/Documents/vs/S-Reo/MazeLibrary\Searching.c **** 		case north:
 585:C:/Users/leopi/Documents/vs/S-Reo/MazeLibrary\Searching.c **** 		//行にいるとき
 586:C:/Users/leopi/Documents/vs/S-Reo/MazeLibrary\Searching.c **** 	        //北側ノード
ARM GAS  C:\Users\leopi\AppData\Local\Temp\ccMCNSog.s 			page 52


 587:C:/Users/leopi/Documents/vs/S-Reo/MazeLibrary\Searching.c **** 	        if(now_node->pos.y < NUMBER_OF_SQUARES_Y-1)					//範囲チェック
 588:C:/Users/leopi/Documents/vs/S-Reo/MazeLibrary\Searching.c **** 	        {
 589:C:/Users/leopi/Documents/vs/S-Reo/MazeLibrary\Searching.c **** 	            //printf("%u\r\n",now_node->pos.y);
 590:C:/Users/leopi/Documents/vs/S-Reo/MazeLibrary\Searching.c **** 	            if( (maze->RawNode[now_node->pos.x][now_node->pos.y+1].existence ) == UNKNOWN)	//壁
 591:C:/Users/leopi/Documents/vs/S-Reo/MazeLibrary\Searching.c **** 	            {
 592:C:/Users/leopi/Documents/vs/S-Reo/MazeLibrary\Searching.c **** 	            	//UNKNOWNなら即return.
 593:C:/Users/leopi/Documents/vs/S-Reo/MazeLibrary\Searching.c **** 	            	return false;
 594:C:/Users/leopi/Documents/vs/S-Reo/MazeLibrary\Searching.c **** 	            }
 595:C:/Users/leopi/Documents/vs/S-Reo/MazeLibrary\Searching.c **** 	            else if((maze->RawNode[now_node->pos.x][now_node->pos.y+1].existence ) == NOWALL)
 596:C:/Users/leopi/Documents/vs/S-Reo/MazeLibrary\Searching.c **** 	            {
 597:C:/Users/leopi/Documents/vs/S-Reo/MazeLibrary\Searching.c **** 	            	// 壁が既知なら、あるかないかなので、無いときは、候補にな
 598:C:/Users/leopi/Documents/vs/S-Reo/MazeLibrary\Searching.c **** 	            	// UNKNOWNでなければ、重みを比較しておく. 一個もアンノウンで
 599:C:/Users/leopi/Documents/vs/S-Reo/MazeLibrary\Searching.c **** 	                // printf("%d\r\n", maze->RawNode[now_node->pos.x][now_node->pos.y+1].existence);/
 600:C:/Users/leopi/Documents/vs/S-Reo/MazeLibrary\Searching.c **** 	                if(compare_weight > maze->RawNode[now_node->pos.x][now_node->pos.y+1].weight)
 601:C:/Users/leopi/Documents/vs/S-Reo/MazeLibrary\Searching.c **** 	                {
 602:C:/Users/leopi/Documents/vs/S-Reo/MazeLibrary\Searching.c **** 	                    compare_weight = maze->RawNode[now_node->pos.x][now_node->pos.y+1].weight;
 603:C:/Users/leopi/Documents/vs/S-Reo/MazeLibrary\Searching.c **** //	                    next_node = &(maze->RawNode[now_node->pos.x][now_node->pos.y+1]);
 604:C:/Users/leopi/Documents/vs/S-Reo/MazeLibrary\Searching.c **** 	                    flag = true;
 605:C:/Users/leopi/Documents/vs/S-Reo/MazeLibrary\Searching.c **** 	                }
 606:C:/Users/leopi/Documents/vs/S-Reo/MazeLibrary\Searching.c **** 	            }
 607:C:/Users/leopi/Documents/vs/S-Reo/MazeLibrary\Searching.c **** 	        }
 608:C:/Users/leopi/Documents/vs/S-Reo/MazeLibrary\Searching.c **** 
 609:C:/Users/leopi/Documents/vs/S-Reo/MazeLibrary\Searching.c **** 	        //北東
 610:C:/Users/leopi/Documents/vs/S-Reo/MazeLibrary\Searching.c **** 	        if(now_node->pos.x < NUMBER_OF_SQUARES_X-1)					//範囲チェック
 611:C:/Users/leopi/Documents/vs/S-Reo/MazeLibrary\Searching.c **** 	        {
 612:C:/Users/leopi/Documents/vs/S-Reo/MazeLibrary\Searching.c **** 	            //北東へ
 613:C:/Users/leopi/Documents/vs/S-Reo/MazeLibrary\Searching.c **** 	            if( (maze->ColumnNode[now_node->pos.x+1][now_node->pos.y].existence ) == UNKNOWN)
 614:C:/Users/leopi/Documents/vs/S-Reo/MazeLibrary\Searching.c **** 	            {
 615:C:/Users/leopi/Documents/vs/S-Reo/MazeLibrary\Searching.c **** 	            	return false;
 616:C:/Users/leopi/Documents/vs/S-Reo/MazeLibrary\Searching.c **** 	            }
 617:C:/Users/leopi/Documents/vs/S-Reo/MazeLibrary\Searching.c **** 	            else if( (maze->ColumnNode[now_node->pos.x+1][now_node->pos.y].existence ) == NOWALL)
 618:C:/Users/leopi/Documents/vs/S-Reo/MazeLibrary\Searching.c **** 	            {//重みを比較して更新
 619:C:/Users/leopi/Documents/vs/S-Reo/MazeLibrary\Searching.c **** 	                if(compare_weight > maze->ColumnNode[now_node->pos.x+1][now_node->pos.y].weight)
 620:C:/Users/leopi/Documents/vs/S-Reo/MazeLibrary\Searching.c **** 	                {
 621:C:/Users/leopi/Documents/vs/S-Reo/MazeLibrary\Searching.c **** 	                    compare_weight = maze->ColumnNode[now_node->pos.x+1][now_node->pos.y].weight;
 622:C:/Users/leopi/Documents/vs/S-Reo/MazeLibrary\Searching.c **** //	                    next_node = &(maze->ColumnNode[now_node->pos.x+1][now_node->pos.y]);
 623:C:/Users/leopi/Documents/vs/S-Reo/MazeLibrary\Searching.c **** 	                    flag = false;
 624:C:/Users/leopi/Documents/vs/S-Reo/MazeLibrary\Searching.c **** 	                }
 625:C:/Users/leopi/Documents/vs/S-Reo/MazeLibrary\Searching.c **** 	            }
 626:C:/Users/leopi/Documents/vs/S-Reo/MazeLibrary\Searching.c **** 	        }
 627:C:/Users/leopi/Documents/vs/S-Reo/MazeLibrary\Searching.c **** 
 628:C:/Users/leopi/Documents/vs/S-Reo/MazeLibrary\Searching.c **** 	        //北西
 629:C:/Users/leopi/Documents/vs/S-Reo/MazeLibrary\Searching.c **** 	        if(now_node->pos.x > 0)						//範囲チェック
 630:C:/Users/leopi/Documents/vs/S-Reo/MazeLibrary\Searching.c **** 	        {
 631:C:/Users/leopi/Documents/vs/S-Reo/MazeLibrary\Searching.c **** 	            //北西へ
 632:C:/Users/leopi/Documents/vs/S-Reo/MazeLibrary\Searching.c **** 	            if( (maze->ColumnNode[now_node->pos.x][now_node->pos.y].existence ) == UNKNOWN)		//壁
 633:C:/Users/leopi/Documents/vs/S-Reo/MazeLibrary\Searching.c **** 	            {
 634:C:/Users/leopi/Documents/vs/S-Reo/MazeLibrary\Searching.c **** 	            	return false;
 635:C:/Users/leopi/Documents/vs/S-Reo/MazeLibrary\Searching.c **** 	            }
 636:C:/Users/leopi/Documents/vs/S-Reo/MazeLibrary\Searching.c **** 	                //重みを比較して更新
 637:C:/Users/leopi/Documents/vs/S-Reo/MazeLibrary\Searching.c **** 	            else if( (maze->ColumnNode[now_node->pos.x][now_node->pos.y].existence) == NOWALL)		//
 638:C:/Users/leopi/Documents/vs/S-Reo/MazeLibrary\Searching.c **** 	            {
 639:C:/Users/leopi/Documents/vs/S-Reo/MazeLibrary\Searching.c **** 	                if(compare_weight > maze->ColumnNode[now_node->pos.x][now_node->pos.y].weight)
 640:C:/Users/leopi/Documents/vs/S-Reo/MazeLibrary\Searching.c **** 	                {
 641:C:/Users/leopi/Documents/vs/S-Reo/MazeLibrary\Searching.c **** 	                    compare_weight = maze->ColumnNode[now_node->pos.x][now_node->pos.y].weight;
 642:C:/Users/leopi/Documents/vs/S-Reo/MazeLibrary\Searching.c **** //	                    next_node = &(maze->ColumnNode[now_node->pos.x][now_node->pos.y]);
 643:C:/Users/leopi/Documents/vs/S-Reo/MazeLibrary\Searching.c **** 	                    flag = false;
ARM GAS  C:\Users\leopi\AppData\Local\Temp\ccMCNSog.s 			page 53


 644:C:/Users/leopi/Documents/vs/S-Reo/MazeLibrary\Searching.c **** 	                }
 645:C:/Users/leopi/Documents/vs/S-Reo/MazeLibrary\Searching.c **** 	            }
 646:C:/Users/leopi/Documents/vs/S-Reo/MazeLibrary\Searching.c **** 	        }
 647:C:/Users/leopi/Documents/vs/S-Reo/MazeLibrary\Searching.c **** 	        break;
 648:C:/Users/leopi/Documents/vs/S-Reo/MazeLibrary\Searching.c **** 		case south:
 649:C:/Users/leopi/Documents/vs/S-Reo/MazeLibrary\Searching.c **** 			//南へ
 650:C:/Users/leopi/Documents/vs/S-Reo/MazeLibrary\Searching.c **** 			if(now_node->pos.y > 1)						//範囲チェック
 651:C:/Users/leopi/Documents/vs/S-Reo/MazeLibrary\Searching.c **** 			{
 652:C:/Users/leopi/Documents/vs/S-Reo/MazeLibrary\Searching.c **** 				if( (maze->RawNode[now_node->pos.x][now_node->pos.y-1].existence ) == UNKNOWN)	//壁がなけ
 653:C:/Users/leopi/Documents/vs/S-Reo/MazeLibrary\Searching.c **** 				{
 654:C:/Users/leopi/Documents/vs/S-Reo/MazeLibrary\Searching.c **** 					return false;
 655:C:/Users/leopi/Documents/vs/S-Reo/MazeLibrary\Searching.c **** 				}
 656:C:/Users/leopi/Documents/vs/S-Reo/MazeLibrary\Searching.c **** 					//重みを比較して更新
 657:C:/Users/leopi/Documents/vs/S-Reo/MazeLibrary\Searching.c **** 				else if( (maze->RawNode[now_node->pos.x][now_node->pos.y-1].existence ) == NOWALL)
 658:C:/Users/leopi/Documents/vs/S-Reo/MazeLibrary\Searching.c **** 				{
 659:C:/Users/leopi/Documents/vs/S-Reo/MazeLibrary\Searching.c **** 					if(compare_weight > maze->RawNode[now_node->pos.x][now_node->pos.y-1].weight)
 660:C:/Users/leopi/Documents/vs/S-Reo/MazeLibrary\Searching.c **** 					{
 661:C:/Users/leopi/Documents/vs/S-Reo/MazeLibrary\Searching.c **** 						compare_weight = maze->RawNode[now_node->pos.x][now_node->pos.y-1].weight;
 662:C:/Users/leopi/Documents/vs/S-Reo/MazeLibrary\Searching.c **** //						next_node = &(maze->RawNode[now_node->pos.x][now_node->pos.y-1]);
 663:C:/Users/leopi/Documents/vs/S-Reo/MazeLibrary\Searching.c **** 						flag = true;
 664:C:/Users/leopi/Documents/vs/S-Reo/MazeLibrary\Searching.c **** 					}
 665:C:/Users/leopi/Documents/vs/S-Reo/MazeLibrary\Searching.c **** 				}
 666:C:/Users/leopi/Documents/vs/S-Reo/MazeLibrary\Searching.c **** 			}
 667:C:/Users/leopi/Documents/vs/S-Reo/MazeLibrary\Searching.c **** 			if(now_node->pos.x < NUMBER_OF_SQUARES_X-1)					//範囲チェック
 668:C:/Users/leopi/Documents/vs/S-Reo/MazeLibrary\Searching.c **** 			{
 669:C:/Users/leopi/Documents/vs/S-Reo/MazeLibrary\Searching.c **** 				//南へ東へ
 670:C:/Users/leopi/Documents/vs/S-Reo/MazeLibrary\Searching.c **** 				if( (maze->ColumnNode[now_node->pos.x+1][now_node->pos.y-1].existence ) == UNKNOWN)		//壁が
 671:C:/Users/leopi/Documents/vs/S-Reo/MazeLibrary\Searching.c **** 				{
 672:C:/Users/leopi/Documents/vs/S-Reo/MazeLibrary\Searching.c **** 					return false;
 673:C:/Users/leopi/Documents/vs/S-Reo/MazeLibrary\Searching.c **** 				}
 674:C:/Users/leopi/Documents/vs/S-Reo/MazeLibrary\Searching.c **** 				else if( (maze->ColumnNode[now_node->pos.x+1][now_node->pos.y-1].existence ) == NOWALL)		//壁
 675:C:/Users/leopi/Documents/vs/S-Reo/MazeLibrary\Searching.c **** 				{
 676:C:/Users/leopi/Documents/vs/S-Reo/MazeLibrary\Searching.c **** 					//重みを比較して更新
 677:C:/Users/leopi/Documents/vs/S-Reo/MazeLibrary\Searching.c **** 					if(compare_weight > maze->ColumnNode[now_node->pos.x+1][now_node->pos.y-1].weight)
 678:C:/Users/leopi/Documents/vs/S-Reo/MazeLibrary\Searching.c **** 					{
 679:C:/Users/leopi/Documents/vs/S-Reo/MazeLibrary\Searching.c **** 						compare_weight = maze->ColumnNode[now_node->pos.x+1][now_node->pos.y-1].weight;
 680:C:/Users/leopi/Documents/vs/S-Reo/MazeLibrary\Searching.c **** //						next_node = &(maze->ColumnNode[now_node->pos.x+1][now_node->pos.y-1]);
 681:C:/Users/leopi/Documents/vs/S-Reo/MazeLibrary\Searching.c **** 						flag = false;
 682:C:/Users/leopi/Documents/vs/S-Reo/MazeLibrary\Searching.c **** 					}
 683:C:/Users/leopi/Documents/vs/S-Reo/MazeLibrary\Searching.c **** 				}
 684:C:/Users/leopi/Documents/vs/S-Reo/MazeLibrary\Searching.c **** 			}
 685:C:/Users/leopi/Documents/vs/S-Reo/MazeLibrary\Searching.c **** 			if(now_node->pos.x > 0)						//範囲チェック
 686:C:/Users/leopi/Documents/vs/S-Reo/MazeLibrary\Searching.c **** 			{
 687:C:/Users/leopi/Documents/vs/S-Reo/MazeLibrary\Searching.c **** 				//南へ西へ
 688:C:/Users/leopi/Documents/vs/S-Reo/MazeLibrary\Searching.c **** 				if( (maze->ColumnNode[now_node->pos.x][now_node->pos.y-1].existence ) == UNKNOWN)		//壁がな
 689:C:/Users/leopi/Documents/vs/S-Reo/MazeLibrary\Searching.c **** 				{
 690:C:/Users/leopi/Documents/vs/S-Reo/MazeLibrary\Searching.c **** 					return false;
 691:C:/Users/leopi/Documents/vs/S-Reo/MazeLibrary\Searching.c **** 				}
 692:C:/Users/leopi/Documents/vs/S-Reo/MazeLibrary\Searching.c **** 				else if( (maze->ColumnNode[now_node->pos.x][now_node->pos.y-1].existence ) == NOWALL)		//壁が
 693:C:/Users/leopi/Documents/vs/S-Reo/MazeLibrary\Searching.c **** 				{
 694:C:/Users/leopi/Documents/vs/S-Reo/MazeLibrary\Searching.c **** 					//重みを比較して更新
 695:C:/Users/leopi/Documents/vs/S-Reo/MazeLibrary\Searching.c **** 					if(compare_weight > maze->ColumnNode[now_node->pos.x][now_node->pos.y-1].weight)
 696:C:/Users/leopi/Documents/vs/S-Reo/MazeLibrary\Searching.c **** 					{
 697:C:/Users/leopi/Documents/vs/S-Reo/MazeLibrary\Searching.c **** 						compare_weight = maze->ColumnNode[now_node->pos.x][now_node->pos.y-1].weight;
 698:C:/Users/leopi/Documents/vs/S-Reo/MazeLibrary\Searching.c **** //						next_node = &(maze->ColumnNode[now_node->pos.x][now_node->pos.y-1]);
 699:C:/Users/leopi/Documents/vs/S-Reo/MazeLibrary\Searching.c **** 						//このノードあやしい
 700:C:/Users/leopi/Documents/vs/S-Reo/MazeLibrary\Searching.c **** 						flag = false;
ARM GAS  C:\Users\leopi\AppData\Local\Temp\ccMCNSog.s 			page 54


 701:C:/Users/leopi/Documents/vs/S-Reo/MazeLibrary\Searching.c **** 					}
 702:C:/Users/leopi/Documents/vs/S-Reo/MazeLibrary\Searching.c **** 				}
 703:C:/Users/leopi/Documents/vs/S-Reo/MazeLibrary\Searching.c **** 			}
 704:C:/Users/leopi/Documents/vs/S-Reo/MazeLibrary\Searching.c **** 			break;
 705:C:/Users/leopi/Documents/vs/S-Reo/MazeLibrary\Searching.c **** 		default :
 706:C:/Users/leopi/Documents/vs/S-Reo/MazeLibrary\Searching.c **** 			//斜め向きは未定義
 707:C:/Users/leopi/Documents/vs/S-Reo/MazeLibrary\Searching.c **** 			break;
 708:C:/Users/leopi/Documents/vs/S-Reo/MazeLibrary\Searching.c **** 		}
 709:C:/Users/leopi/Documents/vs/S-Reo/MazeLibrary\Searching.c **** 	        //6つのうち最小ノードを選ぶ
 710:C:/Users/leopi/Documents/vs/S-Reo/MazeLibrary\Searching.c **** 	}
 711:C:/Users/leopi/Documents/vs/S-Reo/MazeLibrary\Searching.c **** 	else if(now_node->rc == 1)
 712:C:/Users/leopi/Documents/vs/S-Reo/MazeLibrary\Searching.c **** 	{
 713:C:/Users/leopi/Documents/vs/S-Reo/MazeLibrary\Searching.c **** 		//列にいるとき
 714:C:/Users/leopi/Documents/vs/S-Reo/MazeLibrary\Searching.c **** 		//東を向いているか、西を向いているか
 715:C:/Users/leopi/Documents/vs/S-Reo/MazeLibrary\Searching.c **** 		switch(car%8)
 716:C:/Users/leopi/Documents/vs/S-Reo/MazeLibrary\Searching.c **** 		{
 717:C:/Users/leopi/Documents/vs/S-Reo/MazeLibrary\Searching.c **** 		case east:
 718:C:/Users/leopi/Documents/vs/S-Reo/MazeLibrary\Searching.c **** 
 719:C:/Users/leopi/Documents/vs/S-Reo/MazeLibrary\Searching.c **** 			//東側ノード
 720:C:/Users/leopi/Documents/vs/S-Reo/MazeLibrary\Searching.c **** 			if(now_node->pos.x < NUMBER_OF_SQUARES_X-1)					//範囲チェック
 721:C:/Users/leopi/Documents/vs/S-Reo/MazeLibrary\Searching.c **** 			{
 722:C:/Users/leopi/Documents/vs/S-Reo/MazeLibrary\Searching.c **** 				if( (maze->ColumnNode[now_node->pos.x+1][now_node->pos.y].existence ) == UNKNOWN)	//壁がな
 723:C:/Users/leopi/Documents/vs/S-Reo/MazeLibrary\Searching.c **** 				{
 724:C:/Users/leopi/Documents/vs/S-Reo/MazeLibrary\Searching.c **** 					return false;
 725:C:/Users/leopi/Documents/vs/S-Reo/MazeLibrary\Searching.c **** 				}
 726:C:/Users/leopi/Documents/vs/S-Reo/MazeLibrary\Searching.c **** 				else if( (maze->ColumnNode[now_node->pos.x+1][now_node->pos.y].existence ) == NOWALL)	//壁が
 727:C:/Users/leopi/Documents/vs/S-Reo/MazeLibrary\Searching.c **** 				{
 728:C:/Users/leopi/Documents/vs/S-Reo/MazeLibrary\Searching.c **** 					if(compare_weight > maze->ColumnNode[now_node->pos.x+1][now_node->pos.y].weight)
 729:C:/Users/leopi/Documents/vs/S-Reo/MazeLibrary\Searching.c **** 					{
 730:C:/Users/leopi/Documents/vs/S-Reo/MazeLibrary\Searching.c **** 						compare_weight = maze->ColumnNode[now_node->pos.x+1][now_node->pos.y].weight;
 731:C:/Users/leopi/Documents/vs/S-Reo/MazeLibrary\Searching.c **** //							next_node = &(maze->ColumnNode[now_node->pos.x+1][now_node->pos.y]);
 732:C:/Users/leopi/Documents/vs/S-Reo/MazeLibrary\Searching.c **** 						flag = true;
 733:C:/Users/leopi/Documents/vs/S-Reo/MazeLibrary\Searching.c **** 					}
 734:C:/Users/leopi/Documents/vs/S-Reo/MazeLibrary\Searching.c **** 				}
 735:C:/Users/leopi/Documents/vs/S-Reo/MazeLibrary\Searching.c **** 			}
 736:C:/Users/leopi/Documents/vs/S-Reo/MazeLibrary\Searching.c **** 
 737:C:/Users/leopi/Documents/vs/S-Reo/MazeLibrary\Searching.c **** 			//北東
 738:C:/Users/leopi/Documents/vs/S-Reo/MazeLibrary\Searching.c **** 			if(now_node->pos.y < NUMBER_OF_SQUARES_Y-1)					//範囲チェック
 739:C:/Users/leopi/Documents/vs/S-Reo/MazeLibrary\Searching.c **** 			{
 740:C:/Users/leopi/Documents/vs/S-Reo/MazeLibrary\Searching.c **** 				//北東へ
 741:C:/Users/leopi/Documents/vs/S-Reo/MazeLibrary\Searching.c **** 				if( (maze->RawNode[now_node->pos.x][now_node->pos.y+1].existence ) == UNKNOWN)		//壁がなけ
 742:C:/Users/leopi/Documents/vs/S-Reo/MazeLibrary\Searching.c **** 				{
 743:C:/Users/leopi/Documents/vs/S-Reo/MazeLibrary\Searching.c **** 					return false;
 744:C:/Users/leopi/Documents/vs/S-Reo/MazeLibrary\Searching.c **** 				}
 745:C:/Users/leopi/Documents/vs/S-Reo/MazeLibrary\Searching.c **** 				else if( (maze->RawNode[now_node->pos.x][now_node->pos.y+1].existence ) == NOWALL)		//壁がな
 746:C:/Users/leopi/Documents/vs/S-Reo/MazeLibrary\Searching.c **** 				{
 747:C:/Users/leopi/Documents/vs/S-Reo/MazeLibrary\Searching.c **** 					//重みを比較して更新
 748:C:/Users/leopi/Documents/vs/S-Reo/MazeLibrary\Searching.c **** 					if(compare_weight > maze->RawNode[now_node->pos.x][now_node->pos.y+1].weight)
 749:C:/Users/leopi/Documents/vs/S-Reo/MazeLibrary\Searching.c **** 					{
 750:C:/Users/leopi/Documents/vs/S-Reo/MazeLibrary\Searching.c **** 						compare_weight = maze->RawNode[now_node->pos.x][now_node->pos.y+1].weight;
 751:C:/Users/leopi/Documents/vs/S-Reo/MazeLibrary\Searching.c **** //							next_node = &(maze->RawNode[now_node->pos.x][now_node->pos.y+1]);
 752:C:/Users/leopi/Documents/vs/S-Reo/MazeLibrary\Searching.c **** 						flag = false;
 753:C:/Users/leopi/Documents/vs/S-Reo/MazeLibrary\Searching.c **** 					}
 754:C:/Users/leopi/Documents/vs/S-Reo/MazeLibrary\Searching.c **** 				}
 755:C:/Users/leopi/Documents/vs/S-Reo/MazeLibrary\Searching.c **** 			}
 756:C:/Users/leopi/Documents/vs/S-Reo/MazeLibrary\Searching.c **** 
 757:C:/Users/leopi/Documents/vs/S-Reo/MazeLibrary\Searching.c **** 			//南東
ARM GAS  C:\Users\leopi\AppData\Local\Temp\ccMCNSog.s 			page 55


 758:C:/Users/leopi/Documents/vs/S-Reo/MazeLibrary\Searching.c **** 			if(now_node->pos.y > 0)						//範囲チェック
 759:C:/Users/leopi/Documents/vs/S-Reo/MazeLibrary\Searching.c **** 			{
 760:C:/Users/leopi/Documents/vs/S-Reo/MazeLibrary\Searching.c **** 				//南東へ
 761:C:/Users/leopi/Documents/vs/S-Reo/MazeLibrary\Searching.c **** 				if( (maze->RawNode[now_node->pos.x][now_node->pos.y].existence ) == UNKNOWN)		//壁がなけれ
 762:C:/Users/leopi/Documents/vs/S-Reo/MazeLibrary\Searching.c **** 				{
 763:C:/Users/leopi/Documents/vs/S-Reo/MazeLibrary\Searching.c **** 					return false;
 764:C:/Users/leopi/Documents/vs/S-Reo/MazeLibrary\Searching.c **** 				}
 765:C:/Users/leopi/Documents/vs/S-Reo/MazeLibrary\Searching.c **** 				else if( (maze->RawNode[now_node->pos.x][now_node->pos.y].existence ) == NOWALL)		//壁がな
 766:C:/Users/leopi/Documents/vs/S-Reo/MazeLibrary\Searching.c **** 				{
 767:C:/Users/leopi/Documents/vs/S-Reo/MazeLibrary\Searching.c **** 					//重みを比較して更新
 768:C:/Users/leopi/Documents/vs/S-Reo/MazeLibrary\Searching.c **** 					if(compare_weight > maze->RawNode[now_node->pos.x][now_node->pos.y].weight)
 769:C:/Users/leopi/Documents/vs/S-Reo/MazeLibrary\Searching.c **** 					{
 770:C:/Users/leopi/Documents/vs/S-Reo/MazeLibrary\Searching.c **** 						compare_weight = maze->RawNode[now_node->pos.x][now_node->pos.y].weight;
 771:C:/Users/leopi/Documents/vs/S-Reo/MazeLibrary\Searching.c **** //							next_node = &(maze->RawNode[now_node->pos.x][now_node->pos.y]);
 772:C:/Users/leopi/Documents/vs/S-Reo/MazeLibrary\Searching.c **** 						flag = false;
 773:C:/Users/leopi/Documents/vs/S-Reo/MazeLibrary\Searching.c **** 					}
 774:C:/Users/leopi/Documents/vs/S-Reo/MazeLibrary\Searching.c **** 				}
 775:C:/Users/leopi/Documents/vs/S-Reo/MazeLibrary\Searching.c **** 			}
 776:C:/Users/leopi/Documents/vs/S-Reo/MazeLibrary\Searching.c **** 			break;
 777:C:/Users/leopi/Documents/vs/S-Reo/MazeLibrary\Searching.c **** 
 778:C:/Users/leopi/Documents/vs/S-Reo/MazeLibrary\Searching.c **** 		case west:
 779:C:/Users/leopi/Documents/vs/S-Reo/MazeLibrary\Searching.c **** 			//西側ノード
 780:C:/Users/leopi/Documents/vs/S-Reo/MazeLibrary\Searching.c **** 			if(now_node->pos.x > 1)						//範囲チェック
 781:C:/Users/leopi/Documents/vs/S-Reo/MazeLibrary\Searching.c **** 			{
 782:C:/Users/leopi/Documents/vs/S-Reo/MazeLibrary\Searching.c **** 				if( (maze->ColumnNode[now_node->pos.x-1][now_node->pos.y].existence ) ==UNKNOWN)	//壁がなけ
 783:C:/Users/leopi/Documents/vs/S-Reo/MazeLibrary\Searching.c **** 				{
 784:C:/Users/leopi/Documents/vs/S-Reo/MazeLibrary\Searching.c **** 					return false;
 785:C:/Users/leopi/Documents/vs/S-Reo/MazeLibrary\Searching.c **** 				}
 786:C:/Users/leopi/Documents/vs/S-Reo/MazeLibrary\Searching.c **** 				else if( (maze->ColumnNode[now_node->pos.x-1][now_node->pos.y].existence ) == NOWALL)	//壁が
 787:C:/Users/leopi/Documents/vs/S-Reo/MazeLibrary\Searching.c **** 				{
 788:C:/Users/leopi/Documents/vs/S-Reo/MazeLibrary\Searching.c **** 					//重みを比較して更新
 789:C:/Users/leopi/Documents/vs/S-Reo/MazeLibrary\Searching.c **** 					if(compare_weight > maze->ColumnNode[now_node->pos.x-1][now_node->pos.y].weight)
 790:C:/Users/leopi/Documents/vs/S-Reo/MazeLibrary\Searching.c **** 					{
 791:C:/Users/leopi/Documents/vs/S-Reo/MazeLibrary\Searching.c **** 						compare_weight = maze->ColumnNode[now_node->pos.x-1][now_node->pos.y].weight;
 792:C:/Users/leopi/Documents/vs/S-Reo/MazeLibrary\Searching.c **** //							next_node = &(maze->ColumnNode[now_node->pos.x-1][now_node->pos.y]);
 793:C:/Users/leopi/Documents/vs/S-Reo/MazeLibrary\Searching.c **** 						flag = true;
 794:C:/Users/leopi/Documents/vs/S-Reo/MazeLibrary\Searching.c **** 					}
 795:C:/Users/leopi/Documents/vs/S-Reo/MazeLibrary\Searching.c **** 				}
 796:C:/Users/leopi/Documents/vs/S-Reo/MazeLibrary\Searching.c **** 			}
 797:C:/Users/leopi/Documents/vs/S-Reo/MazeLibrary\Searching.c **** 			if(now_node->pos.y < NUMBER_OF_SQUARES_Y-1)					//範囲チェック
 798:C:/Users/leopi/Documents/vs/S-Reo/MazeLibrary\Searching.c **** 			{
 799:C:/Users/leopi/Documents/vs/S-Reo/MazeLibrary\Searching.c **** 				//北西へ
 800:C:/Users/leopi/Documents/vs/S-Reo/MazeLibrary\Searching.c **** 				if( (maze->RawNode[now_node->pos.x-1][now_node->pos.y+1].existence ) == UNKNOWN)		//壁がな
 801:C:/Users/leopi/Documents/vs/S-Reo/MazeLibrary\Searching.c **** 				{
 802:C:/Users/leopi/Documents/vs/S-Reo/MazeLibrary\Searching.c **** 					return false;
 803:C:/Users/leopi/Documents/vs/S-Reo/MazeLibrary\Searching.c **** 				}
 804:C:/Users/leopi/Documents/vs/S-Reo/MazeLibrary\Searching.c **** 				else if( (maze->RawNode[now_node->pos.x-1][now_node->pos.y+1].existence ) == NOWALL)		//壁が
 805:C:/Users/leopi/Documents/vs/S-Reo/MazeLibrary\Searching.c **** 				{
 806:C:/Users/leopi/Documents/vs/S-Reo/MazeLibrary\Searching.c **** 					//重みを比較して更新
 807:C:/Users/leopi/Documents/vs/S-Reo/MazeLibrary\Searching.c **** 					if(compare_weight > maze->RawNode[now_node->pos.x-1][now_node->pos.y+1].weight)
 808:C:/Users/leopi/Documents/vs/S-Reo/MazeLibrary\Searching.c **** 					{
 809:C:/Users/leopi/Documents/vs/S-Reo/MazeLibrary\Searching.c **** 						compare_weight = maze->RawNode[now_node->pos.x-1][now_node->pos.y+1].weight;
 810:C:/Users/leopi/Documents/vs/S-Reo/MazeLibrary\Searching.c **** //							next_node = &(maze->RawNode[now_node->pos.x-1][now_node->pos.y+1]);
 811:C:/Users/leopi/Documents/vs/S-Reo/MazeLibrary\Searching.c **** 						flag = false;
 812:C:/Users/leopi/Documents/vs/S-Reo/MazeLibrary\Searching.c **** 					}
 813:C:/Users/leopi/Documents/vs/S-Reo/MazeLibrary\Searching.c **** 				}
 814:C:/Users/leopi/Documents/vs/S-Reo/MazeLibrary\Searching.c **** 			}
ARM GAS  C:\Users\leopi\AppData\Local\Temp\ccMCNSog.s 			page 56


 815:C:/Users/leopi/Documents/vs/S-Reo/MazeLibrary\Searching.c **** 			if(now_node->pos.y > 0)						//範囲チェック
 816:C:/Users/leopi/Documents/vs/S-Reo/MazeLibrary\Searching.c **** 			{
 817:C:/Users/leopi/Documents/vs/S-Reo/MazeLibrary\Searching.c **** 				//南へ西へ
 818:C:/Users/leopi/Documents/vs/S-Reo/MazeLibrary\Searching.c **** 				if( (maze->RawNode[now_node->pos.x-1][now_node->pos.y].existence ) == UNKNOWN)		//壁がなけ
 819:C:/Users/leopi/Documents/vs/S-Reo/MazeLibrary\Searching.c **** 				{
 820:C:/Users/leopi/Documents/vs/S-Reo/MazeLibrary\Searching.c **** 					return false;
 821:C:/Users/leopi/Documents/vs/S-Reo/MazeLibrary\Searching.c **** 				}
 822:C:/Users/leopi/Documents/vs/S-Reo/MazeLibrary\Searching.c **** 				else if( (maze->RawNode[now_node->pos.x-1][now_node->pos.y].existence ) == NOWALL)		//壁がな
 823:C:/Users/leopi/Documents/vs/S-Reo/MazeLibrary\Searching.c **** 				{
 824:C:/Users/leopi/Documents/vs/S-Reo/MazeLibrary\Searching.c **** 					//重みを比較して更新
 825:C:/Users/leopi/Documents/vs/S-Reo/MazeLibrary\Searching.c **** 					if(compare_weight > maze->RawNode[now_node->pos.x-1][now_node->pos.y].weight)
 826:C:/Users/leopi/Documents/vs/S-Reo/MazeLibrary\Searching.c **** 					{
 827:C:/Users/leopi/Documents/vs/S-Reo/MazeLibrary\Searching.c **** 						compare_weight = maze->RawNode[now_node->pos.x-1][now_node->pos.y].weight;
 828:C:/Users/leopi/Documents/vs/S-Reo/MazeLibrary\Searching.c **** //							next_node = &(maze->RawNode[now_node->pos.x-1][now_node->pos.y]);
 829:C:/Users/leopi/Documents/vs/S-Reo/MazeLibrary\Searching.c **** 						flag = false;
 830:C:/Users/leopi/Documents/vs/S-Reo/MazeLibrary\Searching.c **** 					}
 831:C:/Users/leopi/Documents/vs/S-Reo/MazeLibrary\Searching.c **** 				}
 832:C:/Users/leopi/Documents/vs/S-Reo/MazeLibrary\Searching.c **** 
 833:C:/Users/leopi/Documents/vs/S-Reo/MazeLibrary\Searching.c **** 			}
 834:C:/Users/leopi/Documents/vs/S-Reo/MazeLibrary\Searching.c **** 			break;
 835:C:/Users/leopi/Documents/vs/S-Reo/MazeLibrary\Searching.c **** 		default :
 836:C:/Users/leopi/Documents/vs/S-Reo/MazeLibrary\Searching.c **** 			break;
 837:C:/Users/leopi/Documents/vs/S-Reo/MazeLibrary\Searching.c **** 		}
 838:C:/Users/leopi/Documents/vs/S-Reo/MazeLibrary\Searching.c **** 	}
 839:C:/Users/leopi/Documents/vs/S-Reo/MazeLibrary\Searching.c **** 	return flag; //壁が全部あるときもfalseになっている
 840:C:/Users/leopi/Documents/vs/S-Reo/MazeLibrary\Searching.c **** 	//未知があった時点でreturn false
 841:C:/Users/leopi/Documents/vs/S-Reo/MazeLibrary\Searching.c **** 	//直進かどうかまで見て、直進でなければfalse
 842:C:/Users/leopi/Documents/vs/S-Reo/MazeLibrary\Searching.c **** 	//既知でかつ直進ならtrue
 843:C:/Users/leopi/Documents/vs/S-Reo/MazeLibrary\Searching.c **** }
 2101              		.loc 1 843 1 view .LVU592
 2102 001a 70BD     		pop	{r4, r5, r6, pc}
 2103              	.LVL177:
 2104              	.L117:
 587:C:/Users/leopi/Documents/vs/S-Reo/MazeLibrary\Searching.c **** 	        {
 2105              		.loc 1 587 10 is_stmt 1 view .LVU593
 587:C:/Users/leopi/Documents/vs/S-Reo/MazeLibrary\Searching.c **** 	        {
 2106              		.loc 1 587 26 is_stmt 0 view .LVU594
 2107 001c D179     		ldrb	r1, [r2, #7]	@ zero_extendqisi2
 587:C:/Users/leopi/Documents/vs/S-Reo/MazeLibrary\Searching.c **** 	        {
 2108              		.loc 1 587 12 view .LVU595
 2109 001e 1E29     		cmp	r1, #30
 2110 0020 16D8     		bhi	.L130
 590:C:/Users/leopi/Documents/vs/S-Reo/MazeLibrary\Searching.c **** 	            {
 2111              		.loc 1 590 14 is_stmt 1 view .LVU596
 590:C:/Users/leopi/Documents/vs/S-Reo/MazeLibrary\Searching.c **** 	            {
 2112              		.loc 1 590 46 is_stmt 0 view .LVU597
 2113 0022 92F806E0 		ldrb	lr, [r2, #6]	@ zero_extendqisi2
 590:C:/Users/leopi/Documents/vs/S-Reo/MazeLibrary\Searching.c **** 	            {
 2114              		.loc 1 590 65 view .LVU598
 2115 0026 4D1C     		adds	r5, r1, #1
 590:C:/Users/leopi/Documents/vs/S-Reo/MazeLibrary\Searching.c **** 	            {
 2116              		.loc 1 590 68 view .LVU599
 2117 0028 0EEB4E14 		add	r4, lr, lr, lsl #5
 2118 002c 2C44     		add	r4, r4, r5
 2119 002e 13F83440 		ldrb	r4, [r3, r4, lsl #3]	@ zero_extendqisi2
 590:C:/Users/leopi/Documents/vs/S-Reo/MazeLibrary\Searching.c **** 	            {
 2120              		.loc 1 590 16 view .LVU600
ARM GAS  C:\Users\leopi\AppData\Local\Temp\ccMCNSog.s 			page 57


 2121 0032 022C     		cmp	r4, #2
 2122 0034 F1D0     		beq	.L119
 595:C:/Users/leopi/Documents/vs/S-Reo/MazeLibrary\Searching.c **** 	            {
 2123              		.loc 1 595 19 is_stmt 1 view .LVU601
 595:C:/Users/leopi/Documents/vs/S-Reo/MazeLibrary\Searching.c **** 	            {
 2124              		.loc 1 595 21 is_stmt 0 view .LVU602
 2125 0036 002C     		cmp	r4, #0
 2126 0038 3CD1     		bne	.L131
 600:C:/Users/leopi/Documents/vs/S-Reo/MazeLibrary\Searching.c **** 	                {
 2127              		.loc 1 600 18 is_stmt 1 view .LVU603
 600:C:/Users/leopi/Documents/vs/S-Reo/MazeLibrary\Searching.c **** 	                {
 2128              		.loc 1 600 87 is_stmt 0 view .LVU604
 2129 003a 0EEB4E1E 		add	lr, lr, lr, lsl #5
 2130 003e AE44     		add	lr, lr, r5
 2131 0040 03EBCE0E 		add	lr, r3, lr, lsl #3
 2132 0044 BEF80240 		ldrh	r4, [lr, #2]
 600:C:/Users/leopi/Documents/vs/S-Reo/MazeLibrary\Searching.c **** 	                {
 2133              		.loc 1 600 20 view .LVU605
 2134 0048 6445     		cmp	r4, ip
 2135 004a 35D3     		bcc	.L132
 578:C:/Users/leopi/Documents/vs/S-Reo/MazeLibrary\Searching.c **** 	//現ノードから3方向ノードを見て、未知なら即return
 2136              		.loc 1 578 8 view .LVU606
 2137 004c 8646     		mov	lr, r0
 2138 004e 00E0     		b	.L120
 2139              	.L130:
 578:C:/Users/leopi/Documents/vs/S-Reo/MazeLibrary\Searching.c **** 	//現ノードから3方向ノードを見て、未知なら即return
 2140              		.loc 1 578 8 view .LVU607
 2141 0050 8646     		mov	lr, r0
 2142              	.LVL178:
 2143              	.L120:
 610:C:/Users/leopi/Documents/vs/S-Reo/MazeLibrary\Searching.c **** 	        {
 2144              		.loc 1 610 10 is_stmt 1 view .LVU608
 610:C:/Users/leopi/Documents/vs/S-Reo/MazeLibrary\Searching.c **** 	        {
 2145              		.loc 1 610 26 is_stmt 0 view .LVU609
 2146 0052 9279     		ldrb	r2, [r2, #6]	@ zero_extendqisi2
 2147              	.LVL179:
 610:C:/Users/leopi/Documents/vs/S-Reo/MazeLibrary\Searching.c **** 	        {
 2148              		.loc 1 610 12 view .LVU610
 2149 0054 1E2A     		cmp	r2, #30
 2150 0056 14D8     		bhi	.L121
 613:C:/Users/leopi/Documents/vs/S-Reo/MazeLibrary\Searching.c **** 	            {
 2151              		.loc 1 613 14 is_stmt 1 view .LVU611
 613:C:/Users/leopi/Documents/vs/S-Reo/MazeLibrary\Searching.c **** 	            {
 2152              		.loc 1 613 51 is_stmt 0 view .LVU612
 2153 0058 541C     		adds	r4, r2, #1
 613:C:/Users/leopi/Documents/vs/S-Reo/MazeLibrary\Searching.c **** 	            {
 2154              		.loc 1 613 71 view .LVU613
 2155 005a 01EB4415 		add	r5, r1, r4, lsl #5
 2156 005e 05F58465 		add	r5, r5, #1056
 2157 0062 13F83550 		ldrb	r5, [r3, r5, lsl #3]	@ zero_extendqisi2
 613:C:/Users/leopi/Documents/vs/S-Reo/MazeLibrary\Searching.c **** 	            {
 2158              		.loc 1 613 16 view .LVU614
 2159 0066 022D     		cmp	r5, #2
 2160 0068 D7D0     		beq	.L119
 617:C:/Users/leopi/Documents/vs/S-Reo/MazeLibrary\Searching.c **** 	            {//重みを比較して更新
 2161              		.loc 1 617 19 is_stmt 1 view .LVU615
 617:C:/Users/leopi/Documents/vs/S-Reo/MazeLibrary\Searching.c **** 	            {//重みを比較して更新
ARM GAS  C:\Users\leopi\AppData\Local\Temp\ccMCNSog.s 			page 58


 2162              		.loc 1 617 21 is_stmt 0 view .LVU616
 2163 006a 55B9     		cbnz	r5, .L121
 619:C:/Users/leopi/Documents/vs/S-Reo/MazeLibrary\Searching.c **** 	                {
 2164              		.loc 1 619 18 is_stmt 1 view .LVU617
 619:C:/Users/leopi/Documents/vs/S-Reo/MazeLibrary\Searching.c **** 	                {
 2165              		.loc 1 619 90 is_stmt 0 view .LVU618
 2166 006c 01EB4414 		add	r4, r1, r4, lsl #5
 2167 0070 04F58464 		add	r4, r4, #1056
 2168 0074 03EBC404 		add	r4, r3, r4, lsl #3
 2169 0078 6488     		ldrh	r4, [r4, #2]
 619:C:/Users/leopi/Documents/vs/S-Reo/MazeLibrary\Searching.c **** 	                {
 2170              		.loc 1 619 20 view .LVU619
 2171 007a 6445     		cmp	r4, ip
 2172 007c 01D2     		bcs	.L121
 623:C:/Users/leopi/Documents/vs/S-Reo/MazeLibrary\Searching.c **** 	                }
 2173              		.loc 1 623 27 view .LVU620
 2174 007e 8646     		mov	lr, r0
 2175              	.LVL180:
 621:C:/Users/leopi/Documents/vs/S-Reo/MazeLibrary\Searching.c **** //	                    next_node = &(maze->ColumnNode[now_node->pos.x+1][now_node->pos.y]);
 2176              		.loc 1 621 37 view .LVU621
 2177 0080 A446     		mov	ip, r4
 2178              	.LVL181:
 2179              	.L121:
 629:C:/Users/leopi/Documents/vs/S-Reo/MazeLibrary\Searching.c **** 	        {
 2180              		.loc 1 629 10 is_stmt 1 view .LVU622
 629:C:/Users/leopi/Documents/vs/S-Reo/MazeLibrary\Searching.c **** 	        {
 2181              		.loc 1 629 12 is_stmt 0 view .LVU623
 2182 0082 002A     		cmp	r2, #0
 2183 0084 00F01781 		beq	.L134
 632:C:/Users/leopi/Documents/vs/S-Reo/MazeLibrary\Searching.c **** 	            {
 2184              		.loc 1 632 14 is_stmt 1 view .LVU624
 632:C:/Users/leopi/Documents/vs/S-Reo/MazeLibrary\Searching.c **** 	            {
 2185              		.loc 1 632 69 is_stmt 0 view .LVU625
 2186 0088 01EB4214 		add	r4, r1, r2, lsl #5
 2187 008c 04F58464 		add	r4, r4, #1056
 2188 0090 13F83440 		ldrb	r4, [r3, r4, lsl #3]	@ zero_extendqisi2
 632:C:/Users/leopi/Documents/vs/S-Reo/MazeLibrary\Searching.c **** 	            {
 2189              		.loc 1 632 16 view .LVU626
 2190 0094 022C     		cmp	r4, #2
 2191 0096 C0D0     		beq	.L119
 637:C:/Users/leopi/Documents/vs/S-Reo/MazeLibrary\Searching.c **** 	            {
 2192              		.loc 1 637 19 is_stmt 1 view .LVU627
 637:C:/Users/leopi/Documents/vs/S-Reo/MazeLibrary\Searching.c **** 	            {
 2193              		.loc 1 637 21 is_stmt 0 view .LVU628
 2194 0098 002C     		cmp	r4, #0
 2195 009a 40F00E81 		bne	.L135
 639:C:/Users/leopi/Documents/vs/S-Reo/MazeLibrary\Searching.c **** 	                {
 2196              		.loc 1 639 18 is_stmt 1 view .LVU629
 639:C:/Users/leopi/Documents/vs/S-Reo/MazeLibrary\Searching.c **** 	                {
 2197              		.loc 1 639 88 is_stmt 0 view .LVU630
 2198 009e 01EB4211 		add	r1, r1, r2, lsl #5
 2199 00a2 01F58461 		add	r1, r1, #1056
 2200 00a6 03EBC103 		add	r3, r3, r1, lsl #3
 2201              	.LVL182:
 639:C:/Users/leopi/Documents/vs/S-Reo/MazeLibrary\Searching.c **** 	                {
 2202              		.loc 1 639 88 view .LVU631
 2203 00aa 5B88     		ldrh	r3, [r3, #2]
ARM GAS  C:\Users\leopi\AppData\Local\Temp\ccMCNSog.s 			page 59


 639:C:/Users/leopi/Documents/vs/S-Reo/MazeLibrary\Searching.c **** 	                {
 2204              		.loc 1 639 20 view .LVU632
 2205 00ac 6345     		cmp	r3, ip
 2206 00ae B4D3     		bcc	.L119
 2207 00b0 7046     		mov	r0, lr
 2208 00b2 B2E7     		b	.L119
 2209              	.LVL183:
 2210              	.L131:
 578:C:/Users/leopi/Documents/vs/S-Reo/MazeLibrary\Searching.c **** 	//現ノードから3方向ノードを見て、未知なら即return
 2211              		.loc 1 578 8 view .LVU633
 2212 00b4 8646     		mov	lr, r0
 2213 00b6 CCE7     		b	.L120
 2214              	.L132:
 602:C:/Users/leopi/Documents/vs/S-Reo/MazeLibrary\Searching.c **** //	                    next_node = &(maze->RawNode[now_node->pos.x][now_node->pos.y+1]);
 2215              		.loc 1 602 37 view .LVU634
 2216 00b8 A446     		mov	ip, r4
 2217              	.LVL184:
 604:C:/Users/leopi/Documents/vs/S-Reo/MazeLibrary\Searching.c **** 	                }
 2218              		.loc 1 604 27 view .LVU635
 2219 00ba 4FF0010E 		mov	lr, #1
 2220 00be C8E7     		b	.L120
 2221              	.LVL185:
 2222              	.L118:
 650:C:/Users/leopi/Documents/vs/S-Reo/MazeLibrary\Searching.c **** 			{
 2223              		.loc 1 650 4 is_stmt 1 view .LVU636
 650:C:/Users/leopi/Documents/vs/S-Reo/MazeLibrary\Searching.c **** 			{
 2224              		.loc 1 650 20 is_stmt 0 view .LVU637
 2225 00c0 D179     		ldrb	r1, [r2, #7]	@ zero_extendqisi2
 650:C:/Users/leopi/Documents/vs/S-Reo/MazeLibrary\Searching.c **** 			{
 2226              		.loc 1 650 6 view .LVU638
 2227 00c2 0129     		cmp	r1, #1
 2228 00c4 16D9     		bls	.L136
 652:C:/Users/leopi/Documents/vs/S-Reo/MazeLibrary\Searching.c **** 				{
 2229              		.loc 1 652 5 is_stmt 1 view .LVU639
 652:C:/Users/leopi/Documents/vs/S-Reo/MazeLibrary\Searching.c **** 				{
 2230              		.loc 1 652 37 is_stmt 0 view .LVU640
 2231 00c6 92F806E0 		ldrb	lr, [r2, #6]	@ zero_extendqisi2
 652:C:/Users/leopi/Documents/vs/S-Reo/MazeLibrary\Searching.c **** 				{
 2232              		.loc 1 652 56 view .LVU641
 2233 00ca 4D1E     		subs	r5, r1, #1
 652:C:/Users/leopi/Documents/vs/S-Reo/MazeLibrary\Searching.c **** 				{
 2234              		.loc 1 652 59 view .LVU642
 2235 00cc 0EEB4E14 		add	r4, lr, lr, lsl #5
 2236 00d0 2C44     		add	r4, r4, r5
 2237 00d2 13F83440 		ldrb	r4, [r3, r4, lsl #3]	@ zero_extendqisi2
 652:C:/Users/leopi/Documents/vs/S-Reo/MazeLibrary\Searching.c **** 				{
 2238              		.loc 1 652 7 view .LVU643
 2239 00d6 022C     		cmp	r4, #2
 2240 00d8 9FD0     		beq	.L119
 657:C:/Users/leopi/Documents/vs/S-Reo/MazeLibrary\Searching.c **** 				{
 2241              		.loc 1 657 10 is_stmt 1 view .LVU644
 657:C:/Users/leopi/Documents/vs/S-Reo/MazeLibrary\Searching.c **** 				{
 2242              		.loc 1 657 12 is_stmt 0 view .LVU645
 2243 00da 002C     		cmp	r4, #0
 2244 00dc 40D1     		bne	.L137
 659:C:/Users/leopi/Documents/vs/S-Reo/MazeLibrary\Searching.c **** 					{
 2245              		.loc 1 659 6 is_stmt 1 view .LVU646
ARM GAS  C:\Users\leopi\AppData\Local\Temp\ccMCNSog.s 			page 60


 659:C:/Users/leopi/Documents/vs/S-Reo/MazeLibrary\Searching.c **** 					{
 2246              		.loc 1 659 75 is_stmt 0 view .LVU647
 2247 00de 0EEB4E1E 		add	lr, lr, lr, lsl #5
 2248 00e2 AE44     		add	lr, lr, r5
 2249 00e4 03EBCE0E 		add	lr, r3, lr, lsl #3
 2250 00e8 BEF80240 		ldrh	r4, [lr, #2]
 659:C:/Users/leopi/Documents/vs/S-Reo/MazeLibrary\Searching.c **** 					{
 2251              		.loc 1 659 8 view .LVU648
 2252 00ec 6445     		cmp	r4, ip
 2253 00ee 39D3     		bcc	.L138
 578:C:/Users/leopi/Documents/vs/S-Reo/MazeLibrary\Searching.c **** 	//現ノードから3方向ノードを見て、未知なら即return
 2254              		.loc 1 578 8 view .LVU649
 2255 00f0 8646     		mov	lr, r0
 2256 00f2 00E0     		b	.L122
 2257              	.L136:
 578:C:/Users/leopi/Documents/vs/S-Reo/MazeLibrary\Searching.c **** 	//現ノードから3方向ノードを見て、未知なら即return
 2258              		.loc 1 578 8 view .LVU650
 2259 00f4 8646     		mov	lr, r0
 2260              	.LVL186:
 2261              	.L122:
 667:C:/Users/leopi/Documents/vs/S-Reo/MazeLibrary\Searching.c **** 			{
 2262              		.loc 1 667 4 is_stmt 1 view .LVU651
 667:C:/Users/leopi/Documents/vs/S-Reo/MazeLibrary\Searching.c **** 			{
 2263              		.loc 1 667 20 is_stmt 0 view .LVU652
 2264 00f6 9279     		ldrb	r2, [r2, #6]	@ zero_extendqisi2
 2265              	.LVL187:
 667:C:/Users/leopi/Documents/vs/S-Reo/MazeLibrary\Searching.c **** 			{
 2266              		.loc 1 667 6 view .LVU653
 2267 00f8 1E2A     		cmp	r2, #30
 2268 00fa 15D8     		bhi	.L123
 670:C:/Users/leopi/Documents/vs/S-Reo/MazeLibrary\Searching.c **** 				{
 2269              		.loc 1 670 5 is_stmt 1 view .LVU654
 670:C:/Users/leopi/Documents/vs/S-Reo/MazeLibrary\Searching.c **** 				{
 2270              		.loc 1 670 42 is_stmt 0 view .LVU655
 2271 00fc 561C     		adds	r6, r2, #1
 670:C:/Users/leopi/Documents/vs/S-Reo/MazeLibrary\Searching.c **** 				{
 2272              		.loc 1 670 61 view .LVU656
 2273 00fe 4C1E     		subs	r4, r1, #1
 670:C:/Users/leopi/Documents/vs/S-Reo/MazeLibrary\Searching.c **** 				{
 2274              		.loc 1 670 64 view .LVU657
 2275 0100 04EB4615 		add	r5, r4, r6, lsl #5
 2276 0104 05F58465 		add	r5, r5, #1056
 2277 0108 13F83550 		ldrb	r5, [r3, r5, lsl #3]	@ zero_extendqisi2
 670:C:/Users/leopi/Documents/vs/S-Reo/MazeLibrary\Searching.c **** 				{
 2278              		.loc 1 670 7 view .LVU658
 2279 010c 022D     		cmp	r5, #2
 2280 010e 84D0     		beq	.L119
 674:C:/Users/leopi/Documents/vs/S-Reo/MazeLibrary\Searching.c **** 				{
 2281              		.loc 1 674 10 is_stmt 1 view .LVU659
 674:C:/Users/leopi/Documents/vs/S-Reo/MazeLibrary\Searching.c **** 				{
 2282              		.loc 1 674 12 is_stmt 0 view .LVU660
 2283 0110 55B9     		cbnz	r5, .L123
 677:C:/Users/leopi/Documents/vs/S-Reo/MazeLibrary\Searching.c **** 					{
 2284              		.loc 1 677 6 is_stmt 1 view .LVU661
 677:C:/Users/leopi/Documents/vs/S-Reo/MazeLibrary\Searching.c **** 					{
 2285              		.loc 1 677 80 is_stmt 0 view .LVU662
 2286 0112 04EB4614 		add	r4, r4, r6, lsl #5
ARM GAS  C:\Users\leopi\AppData\Local\Temp\ccMCNSog.s 			page 61


 2287 0116 04F58464 		add	r4, r4, #1056
 2288 011a 03EBC404 		add	r4, r3, r4, lsl #3
 2289 011e 6488     		ldrh	r4, [r4, #2]
 677:C:/Users/leopi/Documents/vs/S-Reo/MazeLibrary\Searching.c **** 					{
 2290              		.loc 1 677 8 view .LVU663
 2291 0120 6445     		cmp	r4, ip
 2292 0122 01D2     		bcs	.L123
 681:C:/Users/leopi/Documents/vs/S-Reo/MazeLibrary\Searching.c **** 					}
 2293              		.loc 1 681 12 view .LVU664
 2294 0124 8646     		mov	lr, r0
 2295              	.LVL188:
 679:C:/Users/leopi/Documents/vs/S-Reo/MazeLibrary\Searching.c **** //						next_node = &(maze->ColumnNode[now_node->pos.x+1][now_node->pos.y-1]);
 2296              		.loc 1 679 22 view .LVU665
 2297 0126 A446     		mov	ip, r4
 2298              	.LVL189:
 2299              	.L123:
 685:C:/Users/leopi/Documents/vs/S-Reo/MazeLibrary\Searching.c **** 			{
 2300              		.loc 1 685 4 is_stmt 1 view .LVU666
 685:C:/Users/leopi/Documents/vs/S-Reo/MazeLibrary\Searching.c **** 			{
 2301              		.loc 1 685 6 is_stmt 0 view .LVU667
 2302 0128 002A     		cmp	r2, #0
 2303 012a 00F0C880 		beq	.L140
 688:C:/Users/leopi/Documents/vs/S-Reo/MazeLibrary\Searching.c **** 				{
 2304              		.loc 1 688 5 is_stmt 1 view .LVU668
 688:C:/Users/leopi/Documents/vs/S-Reo/MazeLibrary\Searching.c **** 				{
 2305              		.loc 1 688 59 is_stmt 0 view .LVU669
 2306 012e 0139     		subs	r1, r1, #1
 688:C:/Users/leopi/Documents/vs/S-Reo/MazeLibrary\Searching.c **** 				{
 2307              		.loc 1 688 62 view .LVU670
 2308 0130 01EB4214 		add	r4, r1, r2, lsl #5
 2309 0134 04F58464 		add	r4, r4, #1056
 2310 0138 13F83440 		ldrb	r4, [r3, r4, lsl #3]	@ zero_extendqisi2
 688:C:/Users/leopi/Documents/vs/S-Reo/MazeLibrary\Searching.c **** 				{
 2311              		.loc 1 688 7 view .LVU671
 2312 013c 022C     		cmp	r4, #2
 2313 013e 3FF46CAF 		beq	.L119
 692:C:/Users/leopi/Documents/vs/S-Reo/MazeLibrary\Searching.c **** 				{
 2314              		.loc 1 692 10 is_stmt 1 view .LVU672
 692:C:/Users/leopi/Documents/vs/S-Reo/MazeLibrary\Searching.c **** 				{
 2315              		.loc 1 692 12 is_stmt 0 view .LVU673
 2316 0142 002C     		cmp	r4, #0
 2317 0144 40F0BD80 		bne	.L141
 695:C:/Users/leopi/Documents/vs/S-Reo/MazeLibrary\Searching.c **** 					{
 2318              		.loc 1 695 6 is_stmt 1 view .LVU674
 695:C:/Users/leopi/Documents/vs/S-Reo/MazeLibrary\Searching.c **** 					{
 2319              		.loc 1 695 78 is_stmt 0 view .LVU675
 2320 0148 01EB4211 		add	r1, r1, r2, lsl #5
 2321 014c 01F58461 		add	r1, r1, #1056
 2322 0150 03EBC103 		add	r3, r3, r1, lsl #3
 2323              	.LVL190:
 695:C:/Users/leopi/Documents/vs/S-Reo/MazeLibrary\Searching.c **** 					{
 2324              		.loc 1 695 78 view .LVU676
 2325 0154 5B88     		ldrh	r3, [r3, #2]
 695:C:/Users/leopi/Documents/vs/S-Reo/MazeLibrary\Searching.c **** 					{
 2326              		.loc 1 695 8 view .LVU677
 2327 0156 6345     		cmp	r3, ip
 2328 0158 FFF45FAF 		bcc	.L119
ARM GAS  C:\Users\leopi\AppData\Local\Temp\ccMCNSog.s 			page 62


 2329 015c 7046     		mov	r0, lr
 2330 015e 5CE7     		b	.L119
 2331              	.LVL191:
 2332              	.L137:
 578:C:/Users/leopi/Documents/vs/S-Reo/MazeLibrary\Searching.c **** 	//現ノードから3方向ノードを見て、未知なら即return
 2333              		.loc 1 578 8 view .LVU678
 2334 0160 8646     		mov	lr, r0
 2335 0162 C8E7     		b	.L122
 2336              	.L138:
 661:C:/Users/leopi/Documents/vs/S-Reo/MazeLibrary\Searching.c **** //						next_node = &(maze->RawNode[now_node->pos.x][now_node->pos.y-1]);
 2337              		.loc 1 661 22 view .LVU679
 2338 0164 A446     		mov	ip, r4
 2339              	.LVL192:
 663:C:/Users/leopi/Documents/vs/S-Reo/MazeLibrary\Searching.c **** 					}
 2340              		.loc 1 663 12 view .LVU680
 2341 0166 4FF0010E 		mov	lr, #1
 2342 016a C4E7     		b	.L122
 2343              	.LVL193:
 2344              	.L116:
 711:C:/Users/leopi/Documents/vs/S-Reo/MazeLibrary\Searching.c **** 	{
 2345              		.loc 1 711 7 is_stmt 1 view .LVU681
 715:C:/Users/leopi/Documents/vs/S-Reo/MazeLibrary\Searching.c **** 		{
 2346              		.loc 1 715 3 view .LVU682
 2347 016c 01F00701 		and	r1, r1, #7
 2348              	.LVL194:
 715:C:/Users/leopi/Documents/vs/S-Reo/MazeLibrary\Searching.c **** 		{
 2349              		.loc 1 715 3 is_stmt 0 view .LVU683
 2350 0170 0229     		cmp	r1, #2
 2351 0172 03D0     		beq	.L124
 2352 0174 0629     		cmp	r1, #6
 2353 0176 4BD0     		beq	.L125
 2354 0178 0020     		movs	r0, #0
 2355 017a 4EE7     		b	.L119
 2356              	.L124:
 720:C:/Users/leopi/Documents/vs/S-Reo/MazeLibrary\Searching.c **** 			{
 2357              		.loc 1 720 4 is_stmt 1 view .LVU684
 720:C:/Users/leopi/Documents/vs/S-Reo/MazeLibrary\Searching.c **** 			{
 2358              		.loc 1 720 20 is_stmt 0 view .LVU685
 2359 017c 9179     		ldrb	r1, [r2, #6]	@ zero_extendqisi2
 720:C:/Users/leopi/Documents/vs/S-Reo/MazeLibrary\Searching.c **** 			{
 2360              		.loc 1 720 6 view .LVU686
 2361 017e 1E29     		cmp	r1, #30
 2362 0180 12D8     		bhi	.L142
 722:C:/Users/leopi/Documents/vs/S-Reo/MazeLibrary\Searching.c **** 				{
 2363              		.loc 1 722 5 is_stmt 1 view .LVU687
 722:C:/Users/leopi/Documents/vs/S-Reo/MazeLibrary\Searching.c **** 				{
 2364              		.loc 1 722 42 is_stmt 0 view .LVU688
 2365 0182 4E1C     		adds	r6, r1, #1
 722:C:/Users/leopi/Documents/vs/S-Reo/MazeLibrary\Searching.c **** 				{
 2366              		.loc 1 722 59 view .LVU689
 2367 0184 D479     		ldrb	r4, [r2, #7]	@ zero_extendqisi2
 722:C:/Users/leopi/Documents/vs/S-Reo/MazeLibrary\Searching.c **** 				{
 2368              		.loc 1 722 62 view .LVU690
 2369 0186 04EB461E 		add	lr, r4, r6, lsl #5
 2370 018a 0EF5846E 		add	lr, lr, #1056
 2371 018e 13F83E50 		ldrb	r5, [r3, lr, lsl #3]	@ zero_extendqisi2
 722:C:/Users/leopi/Documents/vs/S-Reo/MazeLibrary\Searching.c **** 				{
ARM GAS  C:\Users\leopi\AppData\Local\Temp\ccMCNSog.s 			page 63


 2372              		.loc 1 722 7 view .LVU691
 2373 0192 022D     		cmp	r5, #2
 2374 0194 00F09780 		beq	.L143
 726:C:/Users/leopi/Documents/vs/S-Reo/MazeLibrary\Searching.c **** 				{
 2375              		.loc 1 726 10 is_stmt 1 view .LVU692
 726:C:/Users/leopi/Documents/vs/S-Reo/MazeLibrary\Searching.c **** 				{
 2376              		.loc 1 726 12 is_stmt 0 view .LVU693
 2377 0198 B5BB     		cbnz	r5, .L144
 728:C:/Users/leopi/Documents/vs/S-Reo/MazeLibrary\Searching.c **** 					{
 2378              		.loc 1 728 6 is_stmt 1 view .LVU694
 728:C:/Users/leopi/Documents/vs/S-Reo/MazeLibrary\Searching.c **** 					{
 2379              		.loc 1 728 78 is_stmt 0 view .LVU695
 2380 019a 03EBCE04 		add	r4, r3, lr, lsl #3
 2381 019e 6488     		ldrh	r4, [r4, #2]
 728:C:/Users/leopi/Documents/vs/S-Reo/MazeLibrary\Searching.c **** 					{
 2382              		.loc 1 728 8 view .LVU696
 2383 01a0 6445     		cmp	r4, ip
 2384 01a2 33D3     		bcc	.L145
 578:C:/Users/leopi/Documents/vs/S-Reo/MazeLibrary\Searching.c **** 	//現ノードから3方向ノードを見て、未知なら即return
 2385              		.loc 1 578 8 view .LVU697
 2386 01a4 0020     		movs	r0, #0
 2387 01a6 00E0     		b	.L126
 2388              	.L142:
 578:C:/Users/leopi/Documents/vs/S-Reo/MazeLibrary\Searching.c **** 	//現ノードから3方向ノードを見て、未知なら即return
 2389              		.loc 1 578 8 view .LVU698
 2390 01a8 0020     		movs	r0, #0
 2391              	.LVL195:
 2392              	.L126:
 738:C:/Users/leopi/Documents/vs/S-Reo/MazeLibrary\Searching.c **** 			{
 2393              		.loc 1 738 4 is_stmt 1 view .LVU699
 738:C:/Users/leopi/Documents/vs/S-Reo/MazeLibrary\Searching.c **** 			{
 2394              		.loc 1 738 20 is_stmt 0 view .LVU700
 2395 01aa D279     		ldrb	r2, [r2, #7]	@ zero_extendqisi2
 2396              	.LVL196:
 738:C:/Users/leopi/Documents/vs/S-Reo/MazeLibrary\Searching.c **** 			{
 2397              		.loc 1 738 6 view .LVU701
 2398 01ac 1E2A     		cmp	r2, #30
 2399 01ae 13D8     		bhi	.L127
 741:C:/Users/leopi/Documents/vs/S-Reo/MazeLibrary\Searching.c **** 				{
 2400              		.loc 1 741 5 is_stmt 1 view .LVU702
 741:C:/Users/leopi/Documents/vs/S-Reo/MazeLibrary\Searching.c **** 				{
 2401              		.loc 1 741 56 is_stmt 0 view .LVU703
 2402 01b0 551C     		adds	r5, r2, #1
 741:C:/Users/leopi/Documents/vs/S-Reo/MazeLibrary\Searching.c **** 				{
 2403              		.loc 1 741 59 view .LVU704
 2404 01b2 01EB4114 		add	r4, r1, r1, lsl #5
 2405 01b6 2C44     		add	r4, r4, r5
 2406 01b8 13F83440 		ldrb	r4, [r3, r4, lsl #3]	@ zero_extendqisi2
 741:C:/Users/leopi/Documents/vs/S-Reo/MazeLibrary\Searching.c **** 				{
 2407              		.loc 1 741 7 view .LVU705
 2408 01bc 022C     		cmp	r4, #2
 2409 01be 00F08480 		beq	.L146
 745:C:/Users/leopi/Documents/vs/S-Reo/MazeLibrary\Searching.c **** 				{
 2410              		.loc 1 745 10 is_stmt 1 view .LVU706
 745:C:/Users/leopi/Documents/vs/S-Reo/MazeLibrary\Searching.c **** 				{
 2411              		.loc 1 745 12 is_stmt 0 view .LVU707
 2412 01c2 4CB9     		cbnz	r4, .L127
ARM GAS  C:\Users\leopi\AppData\Local\Temp\ccMCNSog.s 			page 64


 748:C:/Users/leopi/Documents/vs/S-Reo/MazeLibrary\Searching.c **** 					{
 2413              		.loc 1 748 6 is_stmt 1 view .LVU708
 748:C:/Users/leopi/Documents/vs/S-Reo/MazeLibrary\Searching.c **** 					{
 2414              		.loc 1 748 75 is_stmt 0 view .LVU709
 2415 01c4 01EB4114 		add	r4, r1, r1, lsl #5
 2416 01c8 2544     		add	r5, r5, r4
 2417 01ca 03EBC505 		add	r5, r3, r5, lsl #3
 2418 01ce 6C88     		ldrh	r4, [r5, #2]
 748:C:/Users/leopi/Documents/vs/S-Reo/MazeLibrary\Searching.c **** 					{
 2419              		.loc 1 748 8 view .LVU710
 2420 01d0 6445     		cmp	r4, ip
 2421 01d2 01D2     		bcs	.L127
 750:C:/Users/leopi/Documents/vs/S-Reo/MazeLibrary\Searching.c **** //							next_node = &(maze->RawNode[now_node->pos.x][now_node->pos.y+1]);
 2422              		.loc 1 750 22 view .LVU711
 2423 01d4 A446     		mov	ip, r4
 2424              	.LVL197:
 752:C:/Users/leopi/Documents/vs/S-Reo/MazeLibrary\Searching.c **** 					}
 2425              		.loc 1 752 12 view .LVU712
 2426 01d6 0020     		movs	r0, #0
 2427              	.LVL198:
 2428              	.L127:
 758:C:/Users/leopi/Documents/vs/S-Reo/MazeLibrary\Searching.c **** 			{
 2429              		.loc 1 758 4 is_stmt 1 view .LVU713
 758:C:/Users/leopi/Documents/vs/S-Reo/MazeLibrary\Searching.c **** 			{
 2430              		.loc 1 758 6 is_stmt 0 view .LVU714
 2431 01d8 002A     		cmp	r2, #0
 2432 01da 3FF41EAF 		beq	.L119
 761:C:/Users/leopi/Documents/vs/S-Reo/MazeLibrary\Searching.c **** 				{
 2433              		.loc 1 761 5 is_stmt 1 view .LVU715
 761:C:/Users/leopi/Documents/vs/S-Reo/MazeLibrary\Searching.c **** 				{
 2434              		.loc 1 761 57 is_stmt 0 view .LVU716
 2435 01de 01EB4114 		add	r4, r1, r1, lsl #5
 2436 01e2 1444     		add	r4, r4, r2
 2437 01e4 13F83440 		ldrb	r4, [r3, r4, lsl #3]	@ zero_extendqisi2
 761:C:/Users/leopi/Documents/vs/S-Reo/MazeLibrary\Searching.c **** 				{
 2438              		.loc 1 761 7 view .LVU717
 2439 01e8 022C     		cmp	r4, #2
 2440 01ea 70D0     		beq	.L148
 765:C:/Users/leopi/Documents/vs/S-Reo/MazeLibrary\Searching.c **** 				{
 2441              		.loc 1 765 10 is_stmt 1 view .LVU718
 765:C:/Users/leopi/Documents/vs/S-Reo/MazeLibrary\Searching.c **** 				{
 2442              		.loc 1 765 12 is_stmt 0 view .LVU719
 2443 01ec 002C     		cmp	r4, #0
 2444 01ee 7FF414AF 		bne	.L119
 768:C:/Users/leopi/Documents/vs/S-Reo/MazeLibrary\Searching.c **** 					{
 2445              		.loc 1 768 6 is_stmt 1 view .LVU720
 768:C:/Users/leopi/Documents/vs/S-Reo/MazeLibrary\Searching.c **** 					{
 2446              		.loc 1 768 73 is_stmt 0 view .LVU721
 2447 01f2 01EB4111 		add	r1, r1, r1, lsl #5
 2448 01f6 1144     		add	r1, r1, r2
 2449 01f8 03EBC103 		add	r3, r3, r1, lsl #3
 2450              	.LVL199:
 768:C:/Users/leopi/Documents/vs/S-Reo/MazeLibrary\Searching.c **** 					{
 2451              		.loc 1 768 73 view .LVU722
 2452 01fc 5B88     		ldrh	r3, [r3, #2]
 768:C:/Users/leopi/Documents/vs/S-Reo/MazeLibrary\Searching.c **** 					{
 2453              		.loc 1 768 8 view .LVU723
ARM GAS  C:\Users\leopi\AppData\Local\Temp\ccMCNSog.s 			page 65


 2454 01fe 6345     		cmp	r3, ip
 2455 0200 BFF40BAF 		bcs	.L119
 772:C:/Users/leopi/Documents/vs/S-Reo/MazeLibrary\Searching.c **** 					}
 2456              		.loc 1 772 12 view .LVU724
 2457 0204 0020     		movs	r0, #0
 2458              	.LVL200:
 772:C:/Users/leopi/Documents/vs/S-Reo/MazeLibrary\Searching.c **** 					}
 2459              		.loc 1 772 12 view .LVU725
 2460 0206 08E7     		b	.L119
 2461              	.LVL201:
 2462              	.L144:
 578:C:/Users/leopi/Documents/vs/S-Reo/MazeLibrary\Searching.c **** 	//現ノードから3方向ノードを見て、未知なら即return
 2463              		.loc 1 578 8 view .LVU726
 2464 0208 0020     		movs	r0, #0
 2465 020a CEE7     		b	.L126
 2466              	.L145:
 730:C:/Users/leopi/Documents/vs/S-Reo/MazeLibrary\Searching.c **** //							next_node = &(maze->ColumnNode[now_node->pos.x+1][now_node->pos.y]);
 2467              		.loc 1 730 22 view .LVU727
 2468 020c A446     		mov	ip, r4
 2469              	.LVL202:
 730:C:/Users/leopi/Documents/vs/S-Reo/MazeLibrary\Searching.c **** //							next_node = &(maze->ColumnNode[now_node->pos.x+1][now_node->pos.y]);
 2470              		.loc 1 730 22 view .LVU728
 2471 020e CCE7     		b	.L126
 2472              	.LVL203:
 2473              	.L125:
 780:C:/Users/leopi/Documents/vs/S-Reo/MazeLibrary\Searching.c **** 			{
 2474              		.loc 1 780 4 is_stmt 1 view .LVU729
 780:C:/Users/leopi/Documents/vs/S-Reo/MazeLibrary\Searching.c **** 			{
 2475              		.loc 1 780 20 is_stmt 0 view .LVU730
 2476 0210 9179     		ldrb	r1, [r2, #6]	@ zero_extendqisi2
 780:C:/Users/leopi/Documents/vs/S-Reo/MazeLibrary\Searching.c **** 			{
 2477              		.loc 1 780 6 view .LVU731
 2478 0212 0129     		cmp	r1, #1
 2479 0214 18D9     		bls	.L150
 782:C:/Users/leopi/Documents/vs/S-Reo/MazeLibrary\Searching.c **** 				{
 2480              		.loc 1 782 5 is_stmt 1 view .LVU732
 782:C:/Users/leopi/Documents/vs/S-Reo/MazeLibrary\Searching.c **** 				{
 2481              		.loc 1 782 42 is_stmt 0 view .LVU733
 2482 0216 4D1E     		subs	r5, r1, #1
 782:C:/Users/leopi/Documents/vs/S-Reo/MazeLibrary\Searching.c **** 				{
 2483              		.loc 1 782 59 view .LVU734
 2484 0218 92F807E0 		ldrb	lr, [r2, #7]	@ zero_extendqisi2
 782:C:/Users/leopi/Documents/vs/S-Reo/MazeLibrary\Searching.c **** 				{
 2485              		.loc 1 782 62 view .LVU735
 2486 021c 0EEB4514 		add	r4, lr, r5, lsl #5
 2487 0220 04F58464 		add	r4, r4, #1056
 2488 0224 13F83440 		ldrb	r4, [r3, r4, lsl #3]	@ zero_extendqisi2
 782:C:/Users/leopi/Documents/vs/S-Reo/MazeLibrary\Searching.c **** 				{
 2489              		.loc 1 782 7 view .LVU736
 2490 0228 022C     		cmp	r4, #2
 2491 022a 52D0     		beq	.L151
 786:C:/Users/leopi/Documents/vs/S-Reo/MazeLibrary\Searching.c **** 				{
 2492              		.loc 1 786 10 is_stmt 1 view .LVU737
 786:C:/Users/leopi/Documents/vs/S-Reo/MazeLibrary\Searching.c **** 				{
 2493              		.loc 1 786 12 is_stmt 0 view .LVU738
 2494 022c 002C     		cmp	r4, #0
 2495 022e 3ED1     		bne	.L152
ARM GAS  C:\Users\leopi\AppData\Local\Temp\ccMCNSog.s 			page 66


 789:C:/Users/leopi/Documents/vs/S-Reo/MazeLibrary\Searching.c **** 					{
 2496              		.loc 1 789 6 is_stmt 1 view .LVU739
 789:C:/Users/leopi/Documents/vs/S-Reo/MazeLibrary\Searching.c **** 					{
 2497              		.loc 1 789 78 is_stmt 0 view .LVU740
 2498 0230 0EEB451E 		add	lr, lr, r5, lsl #5
 2499 0234 0EF5846E 		add	lr, lr, #1056
 2500 0238 03EBCE0E 		add	lr, r3, lr, lsl #3
 2501 023c BEF80240 		ldrh	r4, [lr, #2]
 789:C:/Users/leopi/Documents/vs/S-Reo/MazeLibrary\Searching.c **** 					{
 2502              		.loc 1 789 8 view .LVU741
 2503 0240 6445     		cmp	r4, ip
 2504 0242 36D3     		bcc	.L153
 578:C:/Users/leopi/Documents/vs/S-Reo/MazeLibrary\Searching.c **** 	//現ノードから3方向ノードを見て、未知なら即return
 2505              		.loc 1 578 8 view .LVU742
 2506 0244 0020     		movs	r0, #0
 2507 0246 00E0     		b	.L128
 2508              	.L150:
 578:C:/Users/leopi/Documents/vs/S-Reo/MazeLibrary\Searching.c **** 	//現ノードから3方向ノードを見て、未知なら即return
 2509              		.loc 1 578 8 view .LVU743
 2510 0248 0020     		movs	r0, #0
 2511              	.LVL204:
 2512              	.L128:
 797:C:/Users/leopi/Documents/vs/S-Reo/MazeLibrary\Searching.c **** 			{
 2513              		.loc 1 797 4 is_stmt 1 view .LVU744
 797:C:/Users/leopi/Documents/vs/S-Reo/MazeLibrary\Searching.c **** 			{
 2514              		.loc 1 797 20 is_stmt 0 view .LVU745
 2515 024a D279     		ldrb	r2, [r2, #7]	@ zero_extendqisi2
 2516              	.LVL205:
 797:C:/Users/leopi/Documents/vs/S-Reo/MazeLibrary\Searching.c **** 			{
 2517              		.loc 1 797 6 view .LVU746
 2518 024c 1E2A     		cmp	r2, #30
 2519 024e 15D8     		bhi	.L129
 800:C:/Users/leopi/Documents/vs/S-Reo/MazeLibrary\Searching.c **** 				{
 2520              		.loc 1 800 5 is_stmt 1 view .LVU747
 800:C:/Users/leopi/Documents/vs/S-Reo/MazeLibrary\Searching.c **** 				{
 2521              		.loc 1 800 39 is_stmt 0 view .LVU748
 2522 0250 01F1FF3E 		add	lr, r1, #-1
 800:C:/Users/leopi/Documents/vs/S-Reo/MazeLibrary\Searching.c **** 				{
 2523              		.loc 1 800 58 view .LVU749
 2524 0254 551C     		adds	r5, r2, #1
 800:C:/Users/leopi/Documents/vs/S-Reo/MazeLibrary\Searching.c **** 				{
 2525              		.loc 1 800 61 view .LVU750
 2526 0256 0EEB4E14 		add	r4, lr, lr, lsl #5
 2527 025a 2C44     		add	r4, r4, r5
 2528 025c 13F83440 		ldrb	r4, [r3, r4, lsl #3]	@ zero_extendqisi2
 800:C:/Users/leopi/Documents/vs/S-Reo/MazeLibrary\Searching.c **** 				{
 2529              		.loc 1 800 7 view .LVU751
 2530 0260 022C     		cmp	r4, #2
 2531 0262 38D0     		beq	.L154
 804:C:/Users/leopi/Documents/vs/S-Reo/MazeLibrary\Searching.c **** 				{
 2532              		.loc 1 804 10 is_stmt 1 view .LVU752
 804:C:/Users/leopi/Documents/vs/S-Reo/MazeLibrary\Searching.c **** 				{
 2533              		.loc 1 804 12 is_stmt 0 view .LVU753
 2534 0264 54B9     		cbnz	r4, .L129
 807:C:/Users/leopi/Documents/vs/S-Reo/MazeLibrary\Searching.c **** 					{
 2535              		.loc 1 807 6 is_stmt 1 view .LVU754
 807:C:/Users/leopi/Documents/vs/S-Reo/MazeLibrary\Searching.c **** 					{
ARM GAS  C:\Users\leopi\AppData\Local\Temp\ccMCNSog.s 			page 67


 2536              		.loc 1 807 77 is_stmt 0 view .LVU755
 2537 0266 0EEB4E1E 		add	lr, lr, lr, lsl #5
 2538 026a AE44     		add	lr, lr, r5
 2539 026c 03EBCE0E 		add	lr, r3, lr, lsl #3
 2540 0270 BEF80240 		ldrh	r4, [lr, #2]
 807:C:/Users/leopi/Documents/vs/S-Reo/MazeLibrary\Searching.c **** 					{
 2541              		.loc 1 807 8 view .LVU756
 2542 0274 6445     		cmp	r4, ip
 2543 0276 01D2     		bcs	.L129
 809:C:/Users/leopi/Documents/vs/S-Reo/MazeLibrary\Searching.c **** //							next_node = &(maze->RawNode[now_node->pos.x-1][now_node->pos.y+1]);
 2544              		.loc 1 809 22 view .LVU757
 2545 0278 A446     		mov	ip, r4
 2546              	.LVL206:
 811:C:/Users/leopi/Documents/vs/S-Reo/MazeLibrary\Searching.c **** 					}
 2547              		.loc 1 811 12 view .LVU758
 2548 027a 0020     		movs	r0, #0
 2549              	.LVL207:
 2550              	.L129:
 815:C:/Users/leopi/Documents/vs/S-Reo/MazeLibrary\Searching.c **** 			{
 2551              		.loc 1 815 4 is_stmt 1 view .LVU759
 815:C:/Users/leopi/Documents/vs/S-Reo/MazeLibrary\Searching.c **** 			{
 2552              		.loc 1 815 6 is_stmt 0 view .LVU760
 2553 027c 002A     		cmp	r2, #0
 2554 027e 3FF4CCAE 		beq	.L119
 818:C:/Users/leopi/Documents/vs/S-Reo/MazeLibrary\Searching.c **** 				{
 2555              		.loc 1 818 5 is_stmt 1 view .LVU761
 818:C:/Users/leopi/Documents/vs/S-Reo/MazeLibrary\Searching.c **** 				{
 2556              		.loc 1 818 39 is_stmt 0 view .LVU762
 2557 0282 0139     		subs	r1, r1, #1
 818:C:/Users/leopi/Documents/vs/S-Reo/MazeLibrary\Searching.c **** 				{
 2558              		.loc 1 818 59 view .LVU763
 2559 0284 01EB4114 		add	r4, r1, r1, lsl #5
 2560 0288 1444     		add	r4, r4, r2
 2561 028a 13F83440 		ldrb	r4, [r3, r4, lsl #3]	@ zero_extendqisi2
 818:C:/Users/leopi/Documents/vs/S-Reo/MazeLibrary\Searching.c **** 				{
 2562              		.loc 1 818 7 view .LVU764
 2563 028e 022C     		cmp	r4, #2
 2564 0290 23D0     		beq	.L156
 822:C:/Users/leopi/Documents/vs/S-Reo/MazeLibrary\Searching.c **** 				{
 2565              		.loc 1 822 10 is_stmt 1 view .LVU765
 822:C:/Users/leopi/Documents/vs/S-Reo/MazeLibrary\Searching.c **** 				{
 2566              		.loc 1 822 12 is_stmt 0 view .LVU766
 2567 0292 002C     		cmp	r4, #0
 2568 0294 7FF4C1AE 		bne	.L119
 825:C:/Users/leopi/Documents/vs/S-Reo/MazeLibrary\Searching.c **** 					{
 2569              		.loc 1 825 6 is_stmt 1 view .LVU767
 825:C:/Users/leopi/Documents/vs/S-Reo/MazeLibrary\Searching.c **** 					{
 2570              		.loc 1 825 75 is_stmt 0 view .LVU768
 2571 0298 01EB4111 		add	r1, r1, r1, lsl #5
 2572 029c 1144     		add	r1, r1, r2
 2573 029e 03EBC103 		add	r3, r3, r1, lsl #3
 2574              	.LVL208:
 825:C:/Users/leopi/Documents/vs/S-Reo/MazeLibrary\Searching.c **** 					{
 2575              		.loc 1 825 75 view .LVU769
 2576 02a2 5B88     		ldrh	r3, [r3, #2]
 825:C:/Users/leopi/Documents/vs/S-Reo/MazeLibrary\Searching.c **** 					{
 2577              		.loc 1 825 8 view .LVU770
ARM GAS  C:\Users\leopi\AppData\Local\Temp\ccMCNSog.s 			page 68


 2578 02a4 6345     		cmp	r3, ip
 2579 02a6 BFF4B8AE 		bcs	.L119
 829:C:/Users/leopi/Documents/vs/S-Reo/MazeLibrary\Searching.c **** 					}
 2580              		.loc 1 829 12 view .LVU771
 2581 02aa 0020     		movs	r0, #0
 2582              	.LVL209:
 829:C:/Users/leopi/Documents/vs/S-Reo/MazeLibrary\Searching.c **** 					}
 2583              		.loc 1 829 12 view .LVU772
 2584 02ac B5E6     		b	.L119
 2585              	.LVL210:
 2586              	.L152:
 578:C:/Users/leopi/Documents/vs/S-Reo/MazeLibrary\Searching.c **** 	//現ノードから3方向ノードを見て、未知なら即return
 2587              		.loc 1 578 8 view .LVU773
 2588 02ae 0020     		movs	r0, #0
 2589 02b0 CBE7     		b	.L128
 2590              	.L153:
 791:C:/Users/leopi/Documents/vs/S-Reo/MazeLibrary\Searching.c **** //							next_node = &(maze->ColumnNode[now_node->pos.x-1][now_node->pos.y]);
 2591              		.loc 1 791 22 view .LVU774
 2592 02b2 A446     		mov	ip, r4
 2593              	.LVL211:
 791:C:/Users/leopi/Documents/vs/S-Reo/MazeLibrary\Searching.c **** //							next_node = &(maze->ColumnNode[now_node->pos.x-1][now_node->pos.y]);
 2594              		.loc 1 791 22 view .LVU775
 2595 02b4 C9E7     		b	.L128
 2596              	.LVL212:
 2597              	.L134:
 791:C:/Users/leopi/Documents/vs/S-Reo/MazeLibrary\Searching.c **** //							next_node = &(maze->ColumnNode[now_node->pos.x-1][now_node->pos.y]);
 2598              		.loc 1 791 22 view .LVU776
 2599 02b6 7046     		mov	r0, lr
 2600 02b8 AFE6     		b	.L119
 2601              	.L135:
 791:C:/Users/leopi/Documents/vs/S-Reo/MazeLibrary\Searching.c **** //							next_node = &(maze->ColumnNode[now_node->pos.x-1][now_node->pos.y]);
 2602              		.loc 1 791 22 view .LVU777
 2603 02ba 7046     		mov	r0, lr
 2604 02bc ADE6     		b	.L119
 2605              	.L140:
 791:C:/Users/leopi/Documents/vs/S-Reo/MazeLibrary\Searching.c **** //							next_node = &(maze->ColumnNode[now_node->pos.x-1][now_node->pos.y]);
 2606              		.loc 1 791 22 view .LVU778
 2607 02be 7046     		mov	r0, lr
 2608 02c0 ABE6     		b	.L119
 2609              	.L141:
 791:C:/Users/leopi/Documents/vs/S-Reo/MazeLibrary\Searching.c **** //							next_node = &(maze->ColumnNode[now_node->pos.x-1][now_node->pos.y]);
 2610              		.loc 1 791 22 view .LVU779
 2611 02c2 7046     		mov	r0, lr
 2612 02c4 A9E6     		b	.L119
 2613              	.LVL213:
 2614              	.L143:
 724:C:/Users/leopi/Documents/vs/S-Reo/MazeLibrary\Searching.c **** 				}
 2615              		.loc 1 724 13 view .LVU780
 2616 02c6 0020     		movs	r0, #0
 2617 02c8 A7E6     		b	.L119
 2618              	.LVL214:
 2619              	.L146:
 743:C:/Users/leopi/Documents/vs/S-Reo/MazeLibrary\Searching.c **** 				}
 2620              		.loc 1 743 13 view .LVU781
 2621 02ca 0020     		movs	r0, #0
 2622              	.LVL215:
 743:C:/Users/leopi/Documents/vs/S-Reo/MazeLibrary\Searching.c **** 				}
ARM GAS  C:\Users\leopi\AppData\Local\Temp\ccMCNSog.s 			page 69


 2623              		.loc 1 743 13 view .LVU782
 2624 02cc A5E6     		b	.L119
 2625              	.LVL216:
 2626              	.L148:
 763:C:/Users/leopi/Documents/vs/S-Reo/MazeLibrary\Searching.c **** 				}
 2627              		.loc 1 763 13 view .LVU783
 2628 02ce 0020     		movs	r0, #0
 2629              	.LVL217:
 763:C:/Users/leopi/Documents/vs/S-Reo/MazeLibrary\Searching.c **** 				}
 2630              		.loc 1 763 13 view .LVU784
 2631 02d0 A3E6     		b	.L119
 2632              	.LVL218:
 2633              	.L151:
 784:C:/Users/leopi/Documents/vs/S-Reo/MazeLibrary\Searching.c **** 				}
 2634              		.loc 1 784 13 view .LVU785
 2635 02d2 0020     		movs	r0, #0
 2636 02d4 A1E6     		b	.L119
 2637              	.LVL219:
 2638              	.L154:
 802:C:/Users/leopi/Documents/vs/S-Reo/MazeLibrary\Searching.c **** 				}
 2639              		.loc 1 802 13 view .LVU786
 2640 02d6 0020     		movs	r0, #0
 2641              	.LVL220:
 802:C:/Users/leopi/Documents/vs/S-Reo/MazeLibrary\Searching.c **** 				}
 2642              		.loc 1 802 13 view .LVU787
 2643 02d8 9FE6     		b	.L119
 2644              	.LVL221:
 2645              	.L156:
 820:C:/Users/leopi/Documents/vs/S-Reo/MazeLibrary\Searching.c **** 				}
 2646              		.loc 1 820 13 view .LVU788
 2647 02da 0020     		movs	r0, #0
 2648              	.LVL222:
 820:C:/Users/leopi/Documents/vs/S-Reo/MazeLibrary\Searching.c **** 				}
 2649              		.loc 1 820 13 view .LVU789
 2650 02dc 9DE6     		b	.L119
 2651              		.cfi_endproc
 2652              	.LFE25:
 2654              		.section	.text.getNextState,"ax",%progbits
 2655              		.align	1
 2656              		.global	getNextState
 2657              		.syntax unified
 2658              		.thumb
 2659              		.thumb_func
 2661              	getNextState:
 2662              	.LVL223:
 2663              	.LFB26:
 844:C:/Users/leopi/Documents/vs/S-Reo/MazeLibrary\Searching.c **** inline state *getNextState(state *now_state, state *next_state, node *next_node)
 845:C:/Users/leopi/Documents/vs/S-Reo/MazeLibrary\Searching.c **** {
 2664              		.loc 1 845 1 is_stmt 1 view -0
 2665              		.cfi_startproc
 2666              		@ args = 0, pretend = 0, frame = 0
 2667              		@ frame_needed = 0, uses_anonymous_args = 0
 2668              		.loc 1 845 1 is_stmt 0 view .LVU791
 2669 0000 70B5     		push	{r4, r5, r6, lr}
 2670              	.LCFI22:
 2671              		.cfi_def_cfa_offset 16
 2672              		.cfi_offset 4, -16
ARM GAS  C:\Users\leopi\AppData\Local\Temp\ccMCNSog.s 			page 70


 2673              		.cfi_offset 5, -12
 2674              		.cfi_offset 6, -8
 2675              		.cfi_offset 14, -4
 2676 0002 0346     		mov	r3, r0
 2677 0004 0846     		mov	r0, r1
 2678              	.LVL224:
 846:C:/Users/leopi/Documents/vs/S-Reo/MazeLibrary\Searching.c ****     //state *next_state;
 847:C:/Users/leopi/Documents/vs/S-Reo/MazeLibrary\Searching.c ****     //差分を見て、次の状態を定義
 848:C:/Users/leopi/Documents/vs/S-Reo/MazeLibrary\Searching.c ****     //状態の種類に応じて後で追加:探索時と最短時、既知区間走行でうま
 849:C:/Users/leopi/Documents/vs/S-Reo/MazeLibrary\Searching.c ****     //ノードと方角と座標を使って、次の方角と座標を得る
 850:C:/Users/leopi/Documents/vs/S-Reo/MazeLibrary\Searching.c **** 
 851:C:/Users/leopi/Documents/vs/S-Reo/MazeLibrary\Searching.c ****     uint8_t now_x = now_state->node->pos.x;
 2679              		.loc 1 851 5 is_stmt 1 view .LVU792
 2680              		.loc 1 851 30 is_stmt 0 view .LVU793
 2681 0006 9968     		ldr	r1, [r3, #8]
 2682              	.LVL225:
 2683              		.loc 1 851 13 view .LVU794
 2684 0008 91F806E0 		ldrb	lr, [r1, #6]	@ zero_extendqisi2
 2685              	.LVL226:
 852:C:/Users/leopi/Documents/vs/S-Reo/MazeLibrary\Searching.c ****     uint8_t now_y = now_state->node->pos.y;
 2686              		.loc 1 852 5 is_stmt 1 view .LVU795
 2687              		.loc 1 852 13 is_stmt 0 view .LVU796
 2688 000c CC79     		ldrb	r4, [r1, #7]	@ zero_extendqisi2
 2689              	.LVL227:
 853:C:/Users/leopi/Documents/vs/S-Reo/MazeLibrary\Searching.c ****     uint8_t next_x = next_node->pos.x;
 2690              		.loc 1 853 5 is_stmt 1 view .LVU797
 2691              		.loc 1 853 13 is_stmt 0 view .LVU798
 2692 000e 9179     		ldrb	r1, [r2, #6]	@ zero_extendqisi2
 2693              	.LVL228:
 854:C:/Users/leopi/Documents/vs/S-Reo/MazeLibrary\Searching.c ****     uint8_t next_y = next_node->pos.y;
 2694              		.loc 1 854 5 is_stmt 1 view .LVU799
 2695              		.loc 1 854 13 is_stmt 0 view .LVU800
 2696 0010 D579     		ldrb	r5, [r2, #7]	@ zero_extendqisi2
 2697              	.LVL229:
 855:C:/Users/leopi/Documents/vs/S-Reo/MazeLibrary\Searching.c **** 
 856:C:/Users/leopi/Documents/vs/S-Reo/MazeLibrary\Searching.c ****     switch(now_state->car%8)
 2698              		.loc 1 856 5 is_stmt 1 view .LVU801
 2699              		.loc 1 856 21 is_stmt 0 view .LVU802
 2700 0012 93F802C0 		ldrb	ip, [r3, #2]	@ zero_extendqisi2
 2701              		.loc 1 856 5 view .LVU803
 2702 0016 0CF0070C 		and	ip, ip, #7
 2703 001a BCF1060F 		cmp	ip, #6
 2704 001e 19D8     		bhi	.L160
 2705 0020 DFE81CF0 		tbh	[pc, ip, lsl #1]
 2706              	.L162:
 2707 0024 0700     		.2byte	(.L165-.L162)/2
 2708 0026 1800     		.2byte	(.L160-.L162)/2
 2709 0028 5E00     		.2byte	(.L164-.L162)/2
 2710 002a 1800     		.2byte	(.L160-.L162)/2
 2711 002c B800     		.2byte	(.L163-.L162)/2
 2712 002e 1800     		.2byte	(.L160-.L162)/2
 2713 0030 1601     		.2byte	(.L161-.L162)/2
 2714              		.p2align 1
 2715              	.L165:
 857:C:/Users/leopi/Documents/vs/S-Reo/MazeLibrary\Searching.c ****     {
 858:C:/Users/leopi/Documents/vs/S-Reo/MazeLibrary\Searching.c ****         case north://行から、列に行くのか行に行くのかで、差分の取り方を変
 859:C:/Users/leopi/Documents/vs/S-Reo/MazeLibrary\Searching.c ****             if(next_node->rc == 0)
ARM GAS  C:\Users\leopi\AppData\Local\Temp\ccMCNSog.s 			page 71


 2716              		.loc 1 859 13 is_stmt 1 view .LVU804
 2717              		.loc 1 859 25 is_stmt 0 view .LVU805
 2718 0032 5279     		ldrb	r2, [r2, #5]	@ zero_extendqisi2
 2719              	.LVL230:
 2720              		.loc 1 859 15 view .LVU806
 2721 0034 1AB9     		cbnz	r2, .L166
 860:C:/Users/leopi/Documents/vs/S-Reo/MazeLibrary\Searching.c ****             {
 861:C:/Users/leopi/Documents/vs/S-Reo/MazeLibrary\Searching.c ****                 //行から行
 862:C:/Users/leopi/Documents/vs/S-Reo/MazeLibrary\Searching.c ****                 //直進かUターンのどちらか。とりあえず1方向
 863:C:/Users/leopi/Documents/vs/S-Reo/MazeLibrary\Searching.c ****                 //隣接するノードしか見ていない
 864:C:/Users/leopi/Documents/vs/S-Reo/MazeLibrary\Searching.c ****                 //直進
 865:C:/Users/leopi/Documents/vs/S-Reo/MazeLibrary\Searching.c ****                 //北向きから北向き
 866:C:/Users/leopi/Documents/vs/S-Reo/MazeLibrary\Searching.c ****                 if( __RAW_TO_RAW_NORTH__(now_x, now_y, next_x, next_y) )
 2722              		.loc 1 866 17 is_stmt 1 view .LVU807
 2723              		.loc 1 866 19 is_stmt 0 view .LVU808
 2724 0036 8E45     		cmp	lr, r1
 2725 0038 0DD0     		beq	.L187
 2726              	.L167:
 867:C:/Users/leopi/Documents/vs/S-Reo/MazeLibrary\Searching.c ****                 {
 868:C:/Users/leopi/Documents/vs/S-Reo/MazeLibrary\Searching.c ****                     next_state->car = north;
 869:C:/Users/leopi/Documents/vs/S-Reo/MazeLibrary\Searching.c ****                     next_state->pos.y = now_state->pos.y + 1;
 870:C:/Users/leopi/Documents/vs/S-Reo/MazeLibrary\Searching.c ****                     now_state->dir = front;
 871:C:/Users/leopi/Documents/vs/S-Reo/MazeLibrary\Searching.c ****                     return next_state;
 872:C:/Users/leopi/Documents/vs/S-Reo/MazeLibrary\Searching.c ****                 }
 873:C:/Users/leopi/Documents/vs/S-Reo/MazeLibrary\Searching.c ****                 //後ろ
 874:C:/Users/leopi/Documents/vs/S-Reo/MazeLibrary\Searching.c ****                 //北向きから南向き
 875:C:/Users/leopi/Documents/vs/S-Reo/MazeLibrary\Searching.c ****                 if( __RAW_TO_RAW_SOUTH__(now_x, now_y, next_x, next_y) )
 2727              		.loc 1 875 17 is_stmt 1 view .LVU809
 2728              		.loc 1 875 19 is_stmt 0 view .LVU810
 2729 003a 8E45     		cmp	lr, r1
 2730 003c 16D0     		beq	.L188
 2731              	.L166:
 876:C:/Users/leopi/Documents/vs/S-Reo/MazeLibrary\Searching.c ****                 {
 877:C:/Users/leopi/Documents/vs/S-Reo/MazeLibrary\Searching.c ****                     next_state->car = south;
 878:C:/Users/leopi/Documents/vs/S-Reo/MazeLibrary\Searching.c ****                     next_state->pos.y = now_state->pos.y - 2; //次に壁を更新するタイミ
 879:C:/Users/leopi/Documents/vs/S-Reo/MazeLibrary\Searching.c ****                     now_state->dir = back;
 880:C:/Users/leopi/Documents/vs/S-Reo/MazeLibrary\Searching.c ****                     return next_state;
 881:C:/Users/leopi/Documents/vs/S-Reo/MazeLibrary\Searching.c ****                 }
 882:C:/Users/leopi/Documents/vs/S-Reo/MazeLibrary\Searching.c **** 
 883:C:/Users/leopi/Documents/vs/S-Reo/MazeLibrary\Searching.c ****             }
 884:C:/Users/leopi/Documents/vs/S-Reo/MazeLibrary\Searching.c **** 
 885:C:/Users/leopi/Documents/vs/S-Reo/MazeLibrary\Searching.c **** 
 886:C:/Users/leopi/Documents/vs/S-Reo/MazeLibrary\Searching.c ****             if(next_node->rc == 1)
 2732              		.loc 1 886 13 is_stmt 1 view .LVU811
 2733              		.loc 1 886 15 is_stmt 0 view .LVU812
 2734 003e 4AB1     		cbz	r2, .L160
 887:C:/Users/leopi/Documents/vs/S-Reo/MazeLibrary\Searching.c ****             {
 888:C:/Users/leopi/Documents/vs/S-Reo/MazeLibrary\Searching.c ****                 //行から列.左右のどちらか判断.あとで後ろも候補にあげる
 889:C:/Users/leopi/Documents/vs/S-Reo/MazeLibrary\Searching.c ****                 //右旋回
 890:C:/Users/leopi/Documents/vs/S-Reo/MazeLibrary\Searching.c ****                 //北向きから北東
 891:C:/Users/leopi/Documents/vs/S-Reo/MazeLibrary\Searching.c ****                 if( __RAW_TO_COLUMN_NE__(now_x, now_y, next_x, next_y) )
 2735              		.loc 1 891 17 is_stmt 1 view .LVU813
 2736              		.loc 1 891 21 is_stmt 0 view .LVU814
 2737 0040 0EF10102 		add	r2, lr, #1
 2738              		.loc 1 891 19 view .LVU815
 2739 0044 8A42     		cmp	r2, r1
 2740 0046 1CD0     		beq	.L189
ARM GAS  C:\Users\leopi\AppData\Local\Temp\ccMCNSog.s 			page 72


 2741              	.L168:
 892:C:/Users/leopi/Documents/vs/S-Reo/MazeLibrary\Searching.c ****                 {
 893:C:/Users/leopi/Documents/vs/S-Reo/MazeLibrary\Searching.c ****                     next_state->car = east;
 894:C:/Users/leopi/Documents/vs/S-Reo/MazeLibrary\Searching.c ****                     next_state->pos.x = now_state->pos.x + 1;
 895:C:/Users/leopi/Documents/vs/S-Reo/MazeLibrary\Searching.c ****                     now_state->dir = right;
 896:C:/Users/leopi/Documents/vs/S-Reo/MazeLibrary\Searching.c **** //                    ChangeLED(6);
 897:C:/Users/leopi/Documents/vs/S-Reo/MazeLibrary\Searching.c ****                     return next_state;
 898:C:/Users/leopi/Documents/vs/S-Reo/MazeLibrary\Searching.c ****                 }
 899:C:/Users/leopi/Documents/vs/S-Reo/MazeLibrary\Searching.c **** 
 900:C:/Users/leopi/Documents/vs/S-Reo/MazeLibrary\Searching.c ****                 //左旋回
 901:C:/Users/leopi/Documents/vs/S-Reo/MazeLibrary\Searching.c ****                 //北向きから北西
 902:C:/Users/leopi/Documents/vs/S-Reo/MazeLibrary\Searching.c ****                 if( __RAW_TO_COLUMN_NW__(now_x, now_y, next_x, next_y) )
 2742              		.loc 1 902 17 is_stmt 1 view .LVU816
 2743              		.loc 1 902 19 is_stmt 0 view .LVU817
 2744 0048 8E45     		cmp	lr, r1
 2745 004a 23D0     		beq	.L190
 2746              	.L169:
 903:C:/Users/leopi/Documents/vs/S-Reo/MazeLibrary\Searching.c ****                 {
 904:C:/Users/leopi/Documents/vs/S-Reo/MazeLibrary\Searching.c ****                     next_state->car = west;
 905:C:/Users/leopi/Documents/vs/S-Reo/MazeLibrary\Searching.c ****                     next_state->pos.x = now_state->pos.x - 1;
 906:C:/Users/leopi/Documents/vs/S-Reo/MazeLibrary\Searching.c ****                     now_state->dir = left;
 907:C:/Users/leopi/Documents/vs/S-Reo/MazeLibrary\Searching.c ****                     return next_state;
 908:C:/Users/leopi/Documents/vs/S-Reo/MazeLibrary\Searching.c ****                 }
 909:C:/Users/leopi/Documents/vs/S-Reo/MazeLibrary\Searching.c **** 
 910:C:/Users/leopi/Documents/vs/S-Reo/MazeLibrary\Searching.c ****                 //Uターンして右旋回
 911:C:/Users/leopi/Documents/vs/S-Reo/MazeLibrary\Searching.c ****                 //北向きから南西
 912:C:/Users/leopi/Documents/vs/S-Reo/MazeLibrary\Searching.c ****                 if( __RAW_TO_COLUMN_SW__(now_x, now_y, next_x, next_y) )
 2747              		.loc 1 912 17 is_stmt 1 view .LVU818
 2748              		.loc 1 912 19 is_stmt 0 view .LVU819
 2749 004c 8E45     		cmp	lr, r1
 2750 004e 2AD0     		beq	.L191
 2751              	.L170:
 913:C:/Users/leopi/Documents/vs/S-Reo/MazeLibrary\Searching.c ****                 {
 914:C:/Users/leopi/Documents/vs/S-Reo/MazeLibrary\Searching.c ****                     next_state->car = west;
 915:C:/Users/leopi/Documents/vs/S-Reo/MazeLibrary\Searching.c ****                     next_state->pos.x = now_state->pos.x - 1;
 916:C:/Users/leopi/Documents/vs/S-Reo/MazeLibrary\Searching.c ****                     next_state->pos.y = now_state->pos.y - 1;
 917:C:/Users/leopi/Documents/vs/S-Reo/MazeLibrary\Searching.c ****                     now_state->dir = backright;
 918:C:/Users/leopi/Documents/vs/S-Reo/MazeLibrary\Searching.c ****                     return next_state;
 919:C:/Users/leopi/Documents/vs/S-Reo/MazeLibrary\Searching.c ****                 }
 920:C:/Users/leopi/Documents/vs/S-Reo/MazeLibrary\Searching.c ****                 //Uターンして左旋回
 921:C:/Users/leopi/Documents/vs/S-Reo/MazeLibrary\Searching.c ****                 //北向きから南東
 922:C:/Users/leopi/Documents/vs/S-Reo/MazeLibrary\Searching.c ****                 if( __RAW_TO_COLUMN_SE__(now_x, now_y, next_x, next_y) )
 2752              		.loc 1 922 17 is_stmt 1 view .LVU820
 2753              		.loc 1 922 19 is_stmt 0 view .LVU821
 2754 0050 8A42     		cmp	r2, r1
 2755 0052 37D0     		beq	.L192
 2756              	.LVL231:
 2757              	.L160:
 923:C:/Users/leopi/Documents/vs/S-Reo/MazeLibrary\Searching.c ****                 {
 924:C:/Users/leopi/Documents/vs/S-Reo/MazeLibrary\Searching.c ****                     next_state->car = east;
 925:C:/Users/leopi/Documents/vs/S-Reo/MazeLibrary\Searching.c ****                     next_state->pos.x = now_state->pos.x + 1;
 926:C:/Users/leopi/Documents/vs/S-Reo/MazeLibrary\Searching.c ****                     next_state->pos.y = now_state->pos.y - 1;
 927:C:/Users/leopi/Documents/vs/S-Reo/MazeLibrary\Searching.c ****                     now_state->dir = backleft;
 928:C:/Users/leopi/Documents/vs/S-Reo/MazeLibrary\Searching.c ****                     return next_state;
 929:C:/Users/leopi/Documents/vs/S-Reo/MazeLibrary\Searching.c ****                 }
 930:C:/Users/leopi/Documents/vs/S-Reo/MazeLibrary\Searching.c ****             }
 931:C:/Users/leopi/Documents/vs/S-Reo/MazeLibrary\Searching.c ****             break;
ARM GAS  C:\Users\leopi\AppData\Local\Temp\ccMCNSog.s 			page 73


 932:C:/Users/leopi/Documents/vs/S-Reo/MazeLibrary\Searching.c **** 
 933:C:/Users/leopi/Documents/vs/S-Reo/MazeLibrary\Searching.c ****         case east:
 934:C:/Users/leopi/Documents/vs/S-Reo/MazeLibrary\Searching.c ****             if(next_node->rc == 1)
 935:C:/Users/leopi/Documents/vs/S-Reo/MazeLibrary\Searching.c ****             {
 936:C:/Users/leopi/Documents/vs/S-Reo/MazeLibrary\Searching.c ****                 //列から列
 937:C:/Users/leopi/Documents/vs/S-Reo/MazeLibrary\Searching.c ****                 //直進かUターンのどちらか。とりあえず1方向
 938:C:/Users/leopi/Documents/vs/S-Reo/MazeLibrary\Searching.c ****                 //隣接するノードしか見ていない
 939:C:/Users/leopi/Documents/vs/S-Reo/MazeLibrary\Searching.c ****                 //直進
 940:C:/Users/leopi/Documents/vs/S-Reo/MazeLibrary\Searching.c ****                 //東向きから東向き
 941:C:/Users/leopi/Documents/vs/S-Reo/MazeLibrary\Searching.c ****                 if( __COLUMN_TO_COLUMN_EAST__(now_x, now_y, next_x, next_y) )
 942:C:/Users/leopi/Documents/vs/S-Reo/MazeLibrary\Searching.c ****                 {
 943:C:/Users/leopi/Documents/vs/S-Reo/MazeLibrary\Searching.c ****                     next_state->car = east;
 944:C:/Users/leopi/Documents/vs/S-Reo/MazeLibrary\Searching.c ****                     next_state->pos.x = now_state->pos.x + 1;
 945:C:/Users/leopi/Documents/vs/S-Reo/MazeLibrary\Searching.c ****                     now_state->dir = front;
 946:C:/Users/leopi/Documents/vs/S-Reo/MazeLibrary\Searching.c **** //                    ChangeLED(4);
 947:C:/Users/leopi/Documents/vs/S-Reo/MazeLibrary\Searching.c ****                     return next_state;
 948:C:/Users/leopi/Documents/vs/S-Reo/MazeLibrary\Searching.c ****                 }
 949:C:/Users/leopi/Documents/vs/S-Reo/MazeLibrary\Searching.c ****                 //後ろ
 950:C:/Users/leopi/Documents/vs/S-Reo/MazeLibrary\Searching.c ****                 //東向きから西向き
 951:C:/Users/leopi/Documents/vs/S-Reo/MazeLibrary\Searching.c ****                 if( __COLUMN_TO_COLUMN_WEST__(now_x, now_y, next_x, next_y) )
 952:C:/Users/leopi/Documents/vs/S-Reo/MazeLibrary\Searching.c ****                 {
 953:C:/Users/leopi/Documents/vs/S-Reo/MazeLibrary\Searching.c ****                     next_state->car = west;
 954:C:/Users/leopi/Documents/vs/S-Reo/MazeLibrary\Searching.c ****                     next_state->pos.x = now_state->pos.x - 2; //次に壁を更新するタイミ
 955:C:/Users/leopi/Documents/vs/S-Reo/MazeLibrary\Searching.c ****                     now_state->dir = back;
 956:C:/Users/leopi/Documents/vs/S-Reo/MazeLibrary\Searching.c ****                     return next_state;
 957:C:/Users/leopi/Documents/vs/S-Reo/MazeLibrary\Searching.c ****                 }
 958:C:/Users/leopi/Documents/vs/S-Reo/MazeLibrary\Searching.c **** 
 959:C:/Users/leopi/Documents/vs/S-Reo/MazeLibrary\Searching.c ****             }
 960:C:/Users/leopi/Documents/vs/S-Reo/MazeLibrary\Searching.c **** 
 961:C:/Users/leopi/Documents/vs/S-Reo/MazeLibrary\Searching.c **** 
 962:C:/Users/leopi/Documents/vs/S-Reo/MazeLibrary\Searching.c ****             if(next_node->rc == 0)
 963:C:/Users/leopi/Documents/vs/S-Reo/MazeLibrary\Searching.c ****             {
 964:C:/Users/leopi/Documents/vs/S-Reo/MazeLibrary\Searching.c ****                 //列から行.左右のどちらか判断.あとで後ろも候補にあげる
 965:C:/Users/leopi/Documents/vs/S-Reo/MazeLibrary\Searching.c ****                 //右旋回
 966:C:/Users/leopi/Documents/vs/S-Reo/MazeLibrary\Searching.c ****                 //東向きから南東
 967:C:/Users/leopi/Documents/vs/S-Reo/MazeLibrary\Searching.c ****                 if( __COLUMN_TO_RAW_SE__(now_x, now_y, next_x, next_y) )
 968:C:/Users/leopi/Documents/vs/S-Reo/MazeLibrary\Searching.c ****                 {
 969:C:/Users/leopi/Documents/vs/S-Reo/MazeLibrary\Searching.c ****                     next_state->car = south;
 970:C:/Users/leopi/Documents/vs/S-Reo/MazeLibrary\Searching.c ****                     next_state->pos.y = now_state->pos.y - 1;
 971:C:/Users/leopi/Documents/vs/S-Reo/MazeLibrary\Searching.c ****                     now_state->dir = right;
 972:C:/Users/leopi/Documents/vs/S-Reo/MazeLibrary\Searching.c **** //                    ChangeLED(5);
 973:C:/Users/leopi/Documents/vs/S-Reo/MazeLibrary\Searching.c ****                     return next_state;
 974:C:/Users/leopi/Documents/vs/S-Reo/MazeLibrary\Searching.c ****                 }
 975:C:/Users/leopi/Documents/vs/S-Reo/MazeLibrary\Searching.c **** 
 976:C:/Users/leopi/Documents/vs/S-Reo/MazeLibrary\Searching.c ****                 //左旋回
 977:C:/Users/leopi/Documents/vs/S-Reo/MazeLibrary\Searching.c ****                 //東向きから北東
 978:C:/Users/leopi/Documents/vs/S-Reo/MazeLibrary\Searching.c ****                 if( __COLUMN_TO_RAW_NE__(now_x, now_y, next_x, next_y) )
 979:C:/Users/leopi/Documents/vs/S-Reo/MazeLibrary\Searching.c ****                 {
 980:C:/Users/leopi/Documents/vs/S-Reo/MazeLibrary\Searching.c ****                     next_state->car = north;
 981:C:/Users/leopi/Documents/vs/S-Reo/MazeLibrary\Searching.c ****                     next_state->pos.y = now_state->pos.y + 1;
 982:C:/Users/leopi/Documents/vs/S-Reo/MazeLibrary\Searching.c ****                     now_state->dir = left;
 983:C:/Users/leopi/Documents/vs/S-Reo/MazeLibrary\Searching.c ****                     return next_state;
 984:C:/Users/leopi/Documents/vs/S-Reo/MazeLibrary\Searching.c ****                 }
 985:C:/Users/leopi/Documents/vs/S-Reo/MazeLibrary\Searching.c ****                 //Uターンして右旋回
 986:C:/Users/leopi/Documents/vs/S-Reo/MazeLibrary\Searching.c ****                 //東向きから北西
 987:C:/Users/leopi/Documents/vs/S-Reo/MazeLibrary\Searching.c ****                 if( __COLUMN_TO_RAW_NW__(now_x, now_y, next_x, next_y) )
 988:C:/Users/leopi/Documents/vs/S-Reo/MazeLibrary\Searching.c ****                 {
ARM GAS  C:\Users\leopi\AppData\Local\Temp\ccMCNSog.s 			page 74


 989:C:/Users/leopi/Documents/vs/S-Reo/MazeLibrary\Searching.c ****                     next_state->car = north;
 990:C:/Users/leopi/Documents/vs/S-Reo/MazeLibrary\Searching.c ****                     next_state->pos.x = now_state->pos.x - 1;
 991:C:/Users/leopi/Documents/vs/S-Reo/MazeLibrary\Searching.c ****                     next_state->pos.y = now_state->pos.y + 1;
 992:C:/Users/leopi/Documents/vs/S-Reo/MazeLibrary\Searching.c ****                     now_state->dir = backright;
 993:C:/Users/leopi/Documents/vs/S-Reo/MazeLibrary\Searching.c ****                     return next_state;
 994:C:/Users/leopi/Documents/vs/S-Reo/MazeLibrary\Searching.c ****                 }
 995:C:/Users/leopi/Documents/vs/S-Reo/MazeLibrary\Searching.c **** 
 996:C:/Users/leopi/Documents/vs/S-Reo/MazeLibrary\Searching.c ****                 //Uターンして左旋回
 997:C:/Users/leopi/Documents/vs/S-Reo/MazeLibrary\Searching.c ****                 //東向きから南西
 998:C:/Users/leopi/Documents/vs/S-Reo/MazeLibrary\Searching.c ****                 if( __COLUMN_TO_RAW_SW__(now_x, now_y, next_x, next_y) )
 999:C:/Users/leopi/Documents/vs/S-Reo/MazeLibrary\Searching.c ****                 {
1000:C:/Users/leopi/Documents/vs/S-Reo/MazeLibrary\Searching.c ****                     next_state->car = south;
1001:C:/Users/leopi/Documents/vs/S-Reo/MazeLibrary\Searching.c ****                     next_state->pos.x = now_state->pos.x - 1;
1002:C:/Users/leopi/Documents/vs/S-Reo/MazeLibrary\Searching.c ****                     next_state->pos.y = now_state->pos.y - 1;
1003:C:/Users/leopi/Documents/vs/S-Reo/MazeLibrary\Searching.c ****                     now_state->dir = backleft;
1004:C:/Users/leopi/Documents/vs/S-Reo/MazeLibrary\Searching.c ****                     return next_state;
1005:C:/Users/leopi/Documents/vs/S-Reo/MazeLibrary\Searching.c ****                 }
1006:C:/Users/leopi/Documents/vs/S-Reo/MazeLibrary\Searching.c ****             }
1007:C:/Users/leopi/Documents/vs/S-Reo/MazeLibrary\Searching.c ****             break;
1008:C:/Users/leopi/Documents/vs/S-Reo/MazeLibrary\Searching.c ****         case south:
1009:C:/Users/leopi/Documents/vs/S-Reo/MazeLibrary\Searching.c ****             if(next_node->rc == 0)
1010:C:/Users/leopi/Documents/vs/S-Reo/MazeLibrary\Searching.c ****             {
1011:C:/Users/leopi/Documents/vs/S-Reo/MazeLibrary\Searching.c ****                 //行から行
1012:C:/Users/leopi/Documents/vs/S-Reo/MazeLibrary\Searching.c ****                 //直進かUターンのどちらか。とりあえず1方向
1013:C:/Users/leopi/Documents/vs/S-Reo/MazeLibrary\Searching.c ****                 //隣接するノードしか見ていない
1014:C:/Users/leopi/Documents/vs/S-Reo/MazeLibrary\Searching.c ****                 //直進
1015:C:/Users/leopi/Documents/vs/S-Reo/MazeLibrary\Searching.c ****                 //南向きから南
1016:C:/Users/leopi/Documents/vs/S-Reo/MazeLibrary\Searching.c ****                 if( __RAW_TO_RAW_SOUTH__(now_x, now_y, next_x, next_y) )
1017:C:/Users/leopi/Documents/vs/S-Reo/MazeLibrary\Searching.c ****                 {
1018:C:/Users/leopi/Documents/vs/S-Reo/MazeLibrary\Searching.c ****                     next_state->car = south;
1019:C:/Users/leopi/Documents/vs/S-Reo/MazeLibrary\Searching.c ****                     next_state->pos.y = now_state->pos.y - 1; //次に壁を更新するタイミ
1020:C:/Users/leopi/Documents/vs/S-Reo/MazeLibrary\Searching.c ****                     now_state->dir = front;
1021:C:/Users/leopi/Documents/vs/S-Reo/MazeLibrary\Searching.c ****                     return next_state;
1022:C:/Users/leopi/Documents/vs/S-Reo/MazeLibrary\Searching.c ****                 }
1023:C:/Users/leopi/Documents/vs/S-Reo/MazeLibrary\Searching.c ****                 //Uターン
1024:C:/Users/leopi/Documents/vs/S-Reo/MazeLibrary\Searching.c ****                 if( __RAW_TO_RAW_NORTH__(now_x, now_y, next_x, next_y) )
1025:C:/Users/leopi/Documents/vs/S-Reo/MazeLibrary\Searching.c ****                 {
1026:C:/Users/leopi/Documents/vs/S-Reo/MazeLibrary\Searching.c ****                     next_state->car = north;
1027:C:/Users/leopi/Documents/vs/S-Reo/MazeLibrary\Searching.c ****                     next_state->pos.y = now_state->pos.y + 2;
1028:C:/Users/leopi/Documents/vs/S-Reo/MazeLibrary\Searching.c ****                     now_state->dir = back;
1029:C:/Users/leopi/Documents/vs/S-Reo/MazeLibrary\Searching.c ****                     return next_state;
1030:C:/Users/leopi/Documents/vs/S-Reo/MazeLibrary\Searching.c ****                 }
1031:C:/Users/leopi/Documents/vs/S-Reo/MazeLibrary\Searching.c **** 
1032:C:/Users/leopi/Documents/vs/S-Reo/MazeLibrary\Searching.c ****             }
1033:C:/Users/leopi/Documents/vs/S-Reo/MazeLibrary\Searching.c **** 
1034:C:/Users/leopi/Documents/vs/S-Reo/MazeLibrary\Searching.c ****             if(next_node->rc == 1)
1035:C:/Users/leopi/Documents/vs/S-Reo/MazeLibrary\Searching.c ****             {
1036:C:/Users/leopi/Documents/vs/S-Reo/MazeLibrary\Searching.c ****                 //行から列.左右のどちらか判断.あとで後ろも候補にあげる
1037:C:/Users/leopi/Documents/vs/S-Reo/MazeLibrary\Searching.c ****                 //右旋回
1038:C:/Users/leopi/Documents/vs/S-Reo/MazeLibrary\Searching.c ****                 //南向きから南西
1039:C:/Users/leopi/Documents/vs/S-Reo/MazeLibrary\Searching.c ****                 if( __RAW_TO_COLUMN_SW__(now_x, now_y, next_x, next_y) )
1040:C:/Users/leopi/Documents/vs/S-Reo/MazeLibrary\Searching.c ****                 {
1041:C:/Users/leopi/Documents/vs/S-Reo/MazeLibrary\Searching.c ****                     next_state->car = west;
1042:C:/Users/leopi/Documents/vs/S-Reo/MazeLibrary\Searching.c ****                     next_state->pos.x = now_state->pos.x - 1;
1043:C:/Users/leopi/Documents/vs/S-Reo/MazeLibrary\Searching.c ****                     now_state->dir = right;
1044:C:/Users/leopi/Documents/vs/S-Reo/MazeLibrary\Searching.c **** //                    ChangeLED(4);
1045:C:/Users/leopi/Documents/vs/S-Reo/MazeLibrary\Searching.c ****                     //printf("南向きから南西:%u, %u\r\n",next_state->pos.y, now_state->pos.x
ARM GAS  C:\Users\leopi\AppData\Local\Temp\ccMCNSog.s 			page 75


1046:C:/Users/leopi/Documents/vs/S-Reo/MazeLibrary\Searching.c ****                     return next_state;
1047:C:/Users/leopi/Documents/vs/S-Reo/MazeLibrary\Searching.c ****                 }
1048:C:/Users/leopi/Documents/vs/S-Reo/MazeLibrary\Searching.c ****                 //左旋回
1049:C:/Users/leopi/Documents/vs/S-Reo/MazeLibrary\Searching.c ****                 //南向きから南東
1050:C:/Users/leopi/Documents/vs/S-Reo/MazeLibrary\Searching.c ****                 if( __RAW_TO_COLUMN_SE__(now_x, now_y, next_x, next_y) )
1051:C:/Users/leopi/Documents/vs/S-Reo/MazeLibrary\Searching.c ****                 {
1052:C:/Users/leopi/Documents/vs/S-Reo/MazeLibrary\Searching.c ****                     next_state->car = east;
1053:C:/Users/leopi/Documents/vs/S-Reo/MazeLibrary\Searching.c ****                     next_state->pos.x = now_state->pos.x + 1;
1054:C:/Users/leopi/Documents/vs/S-Reo/MazeLibrary\Searching.c ****                     now_state->dir = left;
1055:C:/Users/leopi/Documents/vs/S-Reo/MazeLibrary\Searching.c ****                     return next_state;
1056:C:/Users/leopi/Documents/vs/S-Reo/MazeLibrary\Searching.c ****                 }
1057:C:/Users/leopi/Documents/vs/S-Reo/MazeLibrary\Searching.c **** 
1058:C:/Users/leopi/Documents/vs/S-Reo/MazeLibrary\Searching.c ****                 //Uターンして直進して右旋回
1059:C:/Users/leopi/Documents/vs/S-Reo/MazeLibrary\Searching.c ****                 //南向きから北東
1060:C:/Users/leopi/Documents/vs/S-Reo/MazeLibrary\Searching.c ****                 if( __RAW_TO_COLUMN_NE__(now_x, now_y, next_x, next_y) )
1061:C:/Users/leopi/Documents/vs/S-Reo/MazeLibrary\Searching.c ****                 {
1062:C:/Users/leopi/Documents/vs/S-Reo/MazeLibrary\Searching.c ****                     next_state->car = east;
1063:C:/Users/leopi/Documents/vs/S-Reo/MazeLibrary\Searching.c ****                     next_state->pos.x = now_state->pos.x + 1;
1064:C:/Users/leopi/Documents/vs/S-Reo/MazeLibrary\Searching.c ****                     next_state->pos.y = now_state->pos.y + 1;
1065:C:/Users/leopi/Documents/vs/S-Reo/MazeLibrary\Searching.c ****                     now_state->dir = backright;
1066:C:/Users/leopi/Documents/vs/S-Reo/MazeLibrary\Searching.c ****                     return next_state;
1067:C:/Users/leopi/Documents/vs/S-Reo/MazeLibrary\Searching.c ****                 }
1068:C:/Users/leopi/Documents/vs/S-Reo/MazeLibrary\Searching.c ****                 //Uターンして直進して左旋回
1069:C:/Users/leopi/Documents/vs/S-Reo/MazeLibrary\Searching.c ****                 //南向きから北西
1070:C:/Users/leopi/Documents/vs/S-Reo/MazeLibrary\Searching.c ****                 if( __RAW_TO_COLUMN_NW__(now_x, now_y, next_x, next_y) )
1071:C:/Users/leopi/Documents/vs/S-Reo/MazeLibrary\Searching.c ****                 {
1072:C:/Users/leopi/Documents/vs/S-Reo/MazeLibrary\Searching.c ****                     next_state->car = west;
1073:C:/Users/leopi/Documents/vs/S-Reo/MazeLibrary\Searching.c ****                     next_state->pos.x = now_state->pos.x - 1;
1074:C:/Users/leopi/Documents/vs/S-Reo/MazeLibrary\Searching.c ****                     next_state->pos.y = now_state->pos.y + 1;
1075:C:/Users/leopi/Documents/vs/S-Reo/MazeLibrary\Searching.c ****                     now_state->dir = backleft;
1076:C:/Users/leopi/Documents/vs/S-Reo/MazeLibrary\Searching.c ****                     return next_state;
1077:C:/Users/leopi/Documents/vs/S-Reo/MazeLibrary\Searching.c ****                 }
1078:C:/Users/leopi/Documents/vs/S-Reo/MazeLibrary\Searching.c ****             }
1079:C:/Users/leopi/Documents/vs/S-Reo/MazeLibrary\Searching.c ****             break;
1080:C:/Users/leopi/Documents/vs/S-Reo/MazeLibrary\Searching.c ****         case west:
1081:C:/Users/leopi/Documents/vs/S-Reo/MazeLibrary\Searching.c ****             if(next_node->rc == 1)
1082:C:/Users/leopi/Documents/vs/S-Reo/MazeLibrary\Searching.c ****             {
1083:C:/Users/leopi/Documents/vs/S-Reo/MazeLibrary\Searching.c ****                 //列から列
1084:C:/Users/leopi/Documents/vs/S-Reo/MazeLibrary\Searching.c ****                 //直進かUターンのどちらか。とりあえず1方向
1085:C:/Users/leopi/Documents/vs/S-Reo/MazeLibrary\Searching.c ****                 //隣接するノードしか見ていない
1086:C:/Users/leopi/Documents/vs/S-Reo/MazeLibrary\Searching.c ****                 //直進
1087:C:/Users/leopi/Documents/vs/S-Reo/MazeLibrary\Searching.c ****                 //西向きから西向き
1088:C:/Users/leopi/Documents/vs/S-Reo/MazeLibrary\Searching.c ****                 if( __COLUMN_TO_COLUMN_WEST__(now_x, now_y, next_x, next_y) )
1089:C:/Users/leopi/Documents/vs/S-Reo/MazeLibrary\Searching.c ****                 {
1090:C:/Users/leopi/Documents/vs/S-Reo/MazeLibrary\Searching.c ****                     next_state->car = west;
1091:C:/Users/leopi/Documents/vs/S-Reo/MazeLibrary\Searching.c ****                     next_state->pos.x = now_state->pos.x - 1; //次に壁を更新するタイミ
1092:C:/Users/leopi/Documents/vs/S-Reo/MazeLibrary\Searching.c ****                     now_state->dir = front;
1093:C:/Users/leopi/Documents/vs/S-Reo/MazeLibrary\Searching.c ****                     return next_state;
1094:C:/Users/leopi/Documents/vs/S-Reo/MazeLibrary\Searching.c ****                 }
1095:C:/Users/leopi/Documents/vs/S-Reo/MazeLibrary\Searching.c ****                 //Uターンして直進
1096:C:/Users/leopi/Documents/vs/S-Reo/MazeLibrary\Searching.c ****                 //西向きから東向き
1097:C:/Users/leopi/Documents/vs/S-Reo/MazeLibrary\Searching.c ****                 if( __COLUMN_TO_COLUMN_EAST__(now_x, now_y, next_x, next_y) )
1098:C:/Users/leopi/Documents/vs/S-Reo/MazeLibrary\Searching.c ****                 {
1099:C:/Users/leopi/Documents/vs/S-Reo/MazeLibrary\Searching.c ****                     next_state->car = east;
1100:C:/Users/leopi/Documents/vs/S-Reo/MazeLibrary\Searching.c ****                     next_state->pos.x = now_state->pos.x + 2;
1101:C:/Users/leopi/Documents/vs/S-Reo/MazeLibrary\Searching.c ****                     now_state->dir = back;
1102:C:/Users/leopi/Documents/vs/S-Reo/MazeLibrary\Searching.c ****                     return next_state;
ARM GAS  C:\Users\leopi\AppData\Local\Temp\ccMCNSog.s 			page 76


1103:C:/Users/leopi/Documents/vs/S-Reo/MazeLibrary\Searching.c ****                 }
1104:C:/Users/leopi/Documents/vs/S-Reo/MazeLibrary\Searching.c **** 
1105:C:/Users/leopi/Documents/vs/S-Reo/MazeLibrary\Searching.c ****             }
1106:C:/Users/leopi/Documents/vs/S-Reo/MazeLibrary\Searching.c **** 
1107:C:/Users/leopi/Documents/vs/S-Reo/MazeLibrary\Searching.c **** 
1108:C:/Users/leopi/Documents/vs/S-Reo/MazeLibrary\Searching.c ****             if(next_node->rc == 0)
1109:C:/Users/leopi/Documents/vs/S-Reo/MazeLibrary\Searching.c ****             {
1110:C:/Users/leopi/Documents/vs/S-Reo/MazeLibrary\Searching.c ****                 //列から行.左右のどちらか判断.あとで後ろも候補にあげる
1111:C:/Users/leopi/Documents/vs/S-Reo/MazeLibrary\Searching.c ****                 //右旋回
1112:C:/Users/leopi/Documents/vs/S-Reo/MazeLibrary\Searching.c ****                 //西向きから北西
1113:C:/Users/leopi/Documents/vs/S-Reo/MazeLibrary\Searching.c ****                 if( __COLUMN_TO_RAW_NW__(now_x, now_y, next_x, next_y) )
1114:C:/Users/leopi/Documents/vs/S-Reo/MazeLibrary\Searching.c ****                 {
1115:C:/Users/leopi/Documents/vs/S-Reo/MazeLibrary\Searching.c ****                     next_state->car = north;
1116:C:/Users/leopi/Documents/vs/S-Reo/MazeLibrary\Searching.c ****                     next_state->pos.y = now_state->pos.y + 1;
1117:C:/Users/leopi/Documents/vs/S-Reo/MazeLibrary\Searching.c ****                     now_state->dir = right;
1118:C:/Users/leopi/Documents/vs/S-Reo/MazeLibrary\Searching.c **** //                    ChangeLED(3);
1119:C:/Users/leopi/Documents/vs/S-Reo/MazeLibrary\Searching.c ****                     return next_state;
1120:C:/Users/leopi/Documents/vs/S-Reo/MazeLibrary\Searching.c ****                 }
1121:C:/Users/leopi/Documents/vs/S-Reo/MazeLibrary\Searching.c **** 
1122:C:/Users/leopi/Documents/vs/S-Reo/MazeLibrary\Searching.c ****                 //左旋回
1123:C:/Users/leopi/Documents/vs/S-Reo/MazeLibrary\Searching.c ****                 //西向きから南西
1124:C:/Users/leopi/Documents/vs/S-Reo/MazeLibrary\Searching.c ****                 if( __COLUMN_TO_RAW_SW__(now_x, now_y, next_x, next_y) )
1125:C:/Users/leopi/Documents/vs/S-Reo/MazeLibrary\Searching.c ****                 {
1126:C:/Users/leopi/Documents/vs/S-Reo/MazeLibrary\Searching.c ****                     next_state->car = south;
1127:C:/Users/leopi/Documents/vs/S-Reo/MazeLibrary\Searching.c ****                     next_state->pos.y = now_state->pos.y - 1;
1128:C:/Users/leopi/Documents/vs/S-Reo/MazeLibrary\Searching.c ****                     now_state->dir = left;
1129:C:/Users/leopi/Documents/vs/S-Reo/MazeLibrary\Searching.c ****                     return next_state;
1130:C:/Users/leopi/Documents/vs/S-Reo/MazeLibrary\Searching.c ****                 }
1131:C:/Users/leopi/Documents/vs/S-Reo/MazeLibrary\Searching.c **** 
1132:C:/Users/leopi/Documents/vs/S-Reo/MazeLibrary\Searching.c ****                 //Uターンして右旋回
1133:C:/Users/leopi/Documents/vs/S-Reo/MazeLibrary\Searching.c ****                 //西向きから南東
1134:C:/Users/leopi/Documents/vs/S-Reo/MazeLibrary\Searching.c ****                 if( __COLUMN_TO_RAW_SE__(now_x, now_y, next_x, next_y) )
1135:C:/Users/leopi/Documents/vs/S-Reo/MazeLibrary\Searching.c ****                 {
1136:C:/Users/leopi/Documents/vs/S-Reo/MazeLibrary\Searching.c ****                     next_state->car = south;
1137:C:/Users/leopi/Documents/vs/S-Reo/MazeLibrary\Searching.c ****                     next_state->pos.x = now_state->pos.x + 1;
1138:C:/Users/leopi/Documents/vs/S-Reo/MazeLibrary\Searching.c ****                     next_state->pos.y = now_state->pos.y - 1;
1139:C:/Users/leopi/Documents/vs/S-Reo/MazeLibrary\Searching.c ****                     now_state->dir = backright;
1140:C:/Users/leopi/Documents/vs/S-Reo/MazeLibrary\Searching.c ****                     return next_state;
1141:C:/Users/leopi/Documents/vs/S-Reo/MazeLibrary\Searching.c ****                 }
1142:C:/Users/leopi/Documents/vs/S-Reo/MazeLibrary\Searching.c ****                 //Uターンして左旋回
1143:C:/Users/leopi/Documents/vs/S-Reo/MazeLibrary\Searching.c ****                 //西向きから北東
1144:C:/Users/leopi/Documents/vs/S-Reo/MazeLibrary\Searching.c ****                 if( __COLUMN_TO_RAW_NE__(now_x, now_y, next_x, next_y) )
1145:C:/Users/leopi/Documents/vs/S-Reo/MazeLibrary\Searching.c ****                 {
1146:C:/Users/leopi/Documents/vs/S-Reo/MazeLibrary\Searching.c ****                     next_state->car = north;
1147:C:/Users/leopi/Documents/vs/S-Reo/MazeLibrary\Searching.c ****                     next_state->pos.x = now_state->pos.x + 1;
1148:C:/Users/leopi/Documents/vs/S-Reo/MazeLibrary\Searching.c ****                     next_state->pos.y = now_state->pos.y + 1;
1149:C:/Users/leopi/Documents/vs/S-Reo/MazeLibrary\Searching.c ****                     now_state->dir = backleft;
1150:C:/Users/leopi/Documents/vs/S-Reo/MazeLibrary\Searching.c ****                     return next_state;
1151:C:/Users/leopi/Documents/vs/S-Reo/MazeLibrary\Searching.c ****                 }
1152:C:/Users/leopi/Documents/vs/S-Reo/MazeLibrary\Searching.c ****             }
1153:C:/Users/leopi/Documents/vs/S-Reo/MazeLibrary\Searching.c ****             break;
1154:C:/Users/leopi/Documents/vs/S-Reo/MazeLibrary\Searching.c ****         default:
1155:C:/Users/leopi/Documents/vs/S-Reo/MazeLibrary\Searching.c ****             break;
1156:C:/Users/leopi/Documents/vs/S-Reo/MazeLibrary\Searching.c ****     }
1157:C:/Users/leopi/Documents/vs/S-Reo/MazeLibrary\Searching.c **** #if DEBUG_ON
1158:C:/Users/leopi/Documents/vs/S-Reo/MazeLibrary\Searching.c ****     printf("エラー in function 'getNextState'.\r\n");
1159:C:/Users/leopi/Documents/vs/S-Reo/MazeLibrary\Searching.c **** #endif
ARM GAS  C:\Users\leopi\AppData\Local\Temp\ccMCNSog.s 			page 77


1160:C:/Users/leopi/Documents/vs/S-Reo/MazeLibrary\Searching.c **** 
1161:C:/Users/leopi/Documents/vs/S-Reo/MazeLibrary\Searching.c ****     return next_state; //ここまで来てしまったらエラー
1162:C:/Users/leopi/Documents/vs/S-Reo/MazeLibrary\Searching.c **** }
 2758              		.loc 1 1162 1 view .LVU822
 2759 0054 70BD     		pop	{r4, r5, r6, pc}
 2760              	.LVL232:
 2761              	.L187:
 866:C:/Users/leopi/Documents/vs/S-Reo/MazeLibrary\Searching.c ****                 {
 2762              		.loc 1 866 21 discriminator 1 view .LVU823
 2763 0056 04F1010C 		add	ip, r4, #1
 2764 005a AC45     		cmp	ip, r5
 2765 005c EDD1     		bne	.L167
 868:C:/Users/leopi/Documents/vs/S-Reo/MazeLibrary\Searching.c ****                     next_state->pos.y = now_state->pos.y + 1;
 2766              		.loc 1 868 21 is_stmt 1 view .LVU824
 868:C:/Users/leopi/Documents/vs/S-Reo/MazeLibrary\Searching.c ****                     next_state->pos.y = now_state->pos.y + 1;
 2767              		.loc 1 868 37 is_stmt 0 view .LVU825
 2768 005e 0021     		movs	r1, #0
 2769              	.LVL233:
 868:C:/Users/leopi/Documents/vs/S-Reo/MazeLibrary\Searching.c ****                     next_state->pos.y = now_state->pos.y + 1;
 2770              		.loc 1 868 37 view .LVU826
 2771 0060 8170     		strb	r1, [r0, #2]
 2772              	.LVL234:
 869:C:/Users/leopi/Documents/vs/S-Reo/MazeLibrary\Searching.c ****                     now_state->dir = front;
 2773              		.loc 1 869 21 is_stmt 1 view .LVU827
 869:C:/Users/leopi/Documents/vs/S-Reo/MazeLibrary\Searching.c ****                     now_state->dir = front;
 2774              		.loc 1 869 55 is_stmt 0 view .LVU828
 2775 0062 5A78     		ldrb	r2, [r3, #1]	@ zero_extendqisi2
 869:C:/Users/leopi/Documents/vs/S-Reo/MazeLibrary\Searching.c ****                     now_state->dir = front;
 2776              		.loc 1 869 58 view .LVU829
 2777 0064 0132     		adds	r2, r2, #1
 869:C:/Users/leopi/Documents/vs/S-Reo/MazeLibrary\Searching.c ****                     now_state->dir = front;
 2778              		.loc 1 869 39 view .LVU830
 2779 0066 4270     		strb	r2, [r0, #1]
 870:C:/Users/leopi/Documents/vs/S-Reo/MazeLibrary\Searching.c ****                     return next_state;
 2780              		.loc 1 870 21 is_stmt 1 view .LVU831
 870:C:/Users/leopi/Documents/vs/S-Reo/MazeLibrary\Searching.c ****                     return next_state;
 2781              		.loc 1 870 36 is_stmt 0 view .LVU832
 2782 0068 D970     		strb	r1, [r3, #3]
 871:C:/Users/leopi/Documents/vs/S-Reo/MazeLibrary\Searching.c ****                 }
 2783              		.loc 1 871 21 is_stmt 1 view .LVU833
 871:C:/Users/leopi/Documents/vs/S-Reo/MazeLibrary\Searching.c ****                 }
 2784              		.loc 1 871 28 is_stmt 0 view .LVU834
 2785 006a F3E7     		b	.L160
 2786              	.LVL235:
 2787              	.L188:
 875:C:/Users/leopi/Documents/vs/S-Reo/MazeLibrary\Searching.c ****                 {
 2788              		.loc 1 875 21 discriminator 1 view .LVU835
 2789 006c 04F1FF3C 		add	ip, r4, #-1
 2790 0070 AC45     		cmp	ip, r5
 2791 0072 E4D1     		bne	.L166
 877:C:/Users/leopi/Documents/vs/S-Reo/MazeLibrary\Searching.c ****                     next_state->pos.y = now_state->pos.y - 2; //次に壁を更新するタイミ
 2792              		.loc 1 877 21 is_stmt 1 view .LVU836
 877:C:/Users/leopi/Documents/vs/S-Reo/MazeLibrary\Searching.c ****                     next_state->pos.y = now_state->pos.y - 2; //次に壁を更新するタイミ
 2793              		.loc 1 877 37 is_stmt 0 view .LVU837
 2794 0074 0421     		movs	r1, #4
 2795              	.LVL236:
 877:C:/Users/leopi/Documents/vs/S-Reo/MazeLibrary\Searching.c ****                     next_state->pos.y = now_state->pos.y - 2; //次に壁を更新するタイミ
ARM GAS  C:\Users\leopi\AppData\Local\Temp\ccMCNSog.s 			page 78


 2796              		.loc 1 877 37 view .LVU838
 2797 0076 8170     		strb	r1, [r0, #2]
 2798              	.LVL237:
 878:C:/Users/leopi/Documents/vs/S-Reo/MazeLibrary\Searching.c ****                     now_state->dir = back;
 2799              		.loc 1 878 21 is_stmt 1 view .LVU839
 878:C:/Users/leopi/Documents/vs/S-Reo/MazeLibrary\Searching.c ****                     now_state->dir = back;
 2800              		.loc 1 878 55 is_stmt 0 view .LVU840
 2801 0078 5A78     		ldrb	r2, [r3, #1]	@ zero_extendqisi2
 878:C:/Users/leopi/Documents/vs/S-Reo/MazeLibrary\Searching.c ****                     now_state->dir = back;
 2802              		.loc 1 878 58 view .LVU841
 2803 007a 023A     		subs	r2, r2, #2
 878:C:/Users/leopi/Documents/vs/S-Reo/MazeLibrary\Searching.c ****                     now_state->dir = back;
 2804              		.loc 1 878 39 view .LVU842
 2805 007c 4270     		strb	r2, [r0, #1]
 879:C:/Users/leopi/Documents/vs/S-Reo/MazeLibrary\Searching.c ****                     return next_state;
 2806              		.loc 1 879 21 is_stmt 1 view .LVU843
 879:C:/Users/leopi/Documents/vs/S-Reo/MazeLibrary\Searching.c ****                     return next_state;
 2807              		.loc 1 879 36 is_stmt 0 view .LVU844
 2808 007e D970     		strb	r1, [r3, #3]
 880:C:/Users/leopi/Documents/vs/S-Reo/MazeLibrary\Searching.c ****                 }
 2809              		.loc 1 880 21 is_stmt 1 view .LVU845
 880:C:/Users/leopi/Documents/vs/S-Reo/MazeLibrary\Searching.c ****                 }
 2810              		.loc 1 880 28 is_stmt 0 view .LVU846
 2811 0080 E8E7     		b	.L160
 2812              	.LVL238:
 2813              	.L189:
 891:C:/Users/leopi/Documents/vs/S-Reo/MazeLibrary\Searching.c ****                 {
 2814              		.loc 1 891 21 discriminator 1 view .LVU847
 2815 0082 AC42     		cmp	r4, r5
 2816 0084 E0D1     		bne	.L168
 893:C:/Users/leopi/Documents/vs/S-Reo/MazeLibrary\Searching.c ****                     next_state->pos.x = now_state->pos.x + 1;
 2817              		.loc 1 893 21 is_stmt 1 view .LVU848
 893:C:/Users/leopi/Documents/vs/S-Reo/MazeLibrary\Searching.c ****                     next_state->pos.x = now_state->pos.x + 1;
 2818              		.loc 1 893 37 is_stmt 0 view .LVU849
 2819 0086 0221     		movs	r1, #2
 2820              	.LVL239:
 893:C:/Users/leopi/Documents/vs/S-Reo/MazeLibrary\Searching.c ****                     next_state->pos.x = now_state->pos.x + 1;
 2821              		.loc 1 893 37 view .LVU850
 2822 0088 8170     		strb	r1, [r0, #2]
 2823              	.LVL240:
 894:C:/Users/leopi/Documents/vs/S-Reo/MazeLibrary\Searching.c ****                     now_state->dir = right;
 2824              		.loc 1 894 21 is_stmt 1 view .LVU851
 894:C:/Users/leopi/Documents/vs/S-Reo/MazeLibrary\Searching.c ****                     now_state->dir = right;
 2825              		.loc 1 894 55 is_stmt 0 view .LVU852
 2826 008a 1A78     		ldrb	r2, [r3]	@ zero_extendqisi2
 894:C:/Users/leopi/Documents/vs/S-Reo/MazeLibrary\Searching.c ****                     now_state->dir = right;
 2827              		.loc 1 894 58 view .LVU853
 2828 008c 0132     		adds	r2, r2, #1
 894:C:/Users/leopi/Documents/vs/S-Reo/MazeLibrary\Searching.c ****                     now_state->dir = right;
 2829              		.loc 1 894 39 view .LVU854
 2830 008e 0270     		strb	r2, [r0]
 895:C:/Users/leopi/Documents/vs/S-Reo/MazeLibrary\Searching.c **** //                    ChangeLED(6);
 2831              		.loc 1 895 21 is_stmt 1 view .LVU855
 895:C:/Users/leopi/Documents/vs/S-Reo/MazeLibrary\Searching.c **** //                    ChangeLED(6);
 2832              		.loc 1 895 36 is_stmt 0 view .LVU856
 2833 0090 D970     		strb	r1, [r3, #3]
 897:C:/Users/leopi/Documents/vs/S-Reo/MazeLibrary\Searching.c ****                 }
ARM GAS  C:\Users\leopi\AppData\Local\Temp\ccMCNSog.s 			page 79


 2834              		.loc 1 897 21 is_stmt 1 view .LVU857
 897:C:/Users/leopi/Documents/vs/S-Reo/MazeLibrary\Searching.c ****                 }
 2835              		.loc 1 897 28 is_stmt 0 view .LVU858
 2836 0092 DFE7     		b	.L160
 2837              	.LVL241:
 2838              	.L190:
 902:C:/Users/leopi/Documents/vs/S-Reo/MazeLibrary\Searching.c ****                 {
 2839              		.loc 1 902 21 discriminator 1 view .LVU859
 2840 0094 AC42     		cmp	r4, r5
 2841 0096 D9D1     		bne	.L169
 904:C:/Users/leopi/Documents/vs/S-Reo/MazeLibrary\Searching.c ****                     next_state->pos.x = now_state->pos.x - 1;
 2842              		.loc 1 904 21 is_stmt 1 view .LVU860
 904:C:/Users/leopi/Documents/vs/S-Reo/MazeLibrary\Searching.c ****                     next_state->pos.x = now_state->pos.x - 1;
 2843              		.loc 1 904 37 is_stmt 0 view .LVU861
 2844 0098 0621     		movs	r1, #6
 2845              	.LVL242:
 904:C:/Users/leopi/Documents/vs/S-Reo/MazeLibrary\Searching.c ****                     next_state->pos.x = now_state->pos.x - 1;
 2846              		.loc 1 904 37 view .LVU862
 2847 009a 8170     		strb	r1, [r0, #2]
 2848              	.LVL243:
 905:C:/Users/leopi/Documents/vs/S-Reo/MazeLibrary\Searching.c ****                     now_state->dir = left;
 2849              		.loc 1 905 21 is_stmt 1 view .LVU863
 905:C:/Users/leopi/Documents/vs/S-Reo/MazeLibrary\Searching.c ****                     now_state->dir = left;
 2850              		.loc 1 905 55 is_stmt 0 view .LVU864
 2851 009c 1A78     		ldrb	r2, [r3]	@ zero_extendqisi2
 905:C:/Users/leopi/Documents/vs/S-Reo/MazeLibrary\Searching.c ****                     now_state->dir = left;
 2852              		.loc 1 905 58 view .LVU865
 2853 009e 013A     		subs	r2, r2, #1
 905:C:/Users/leopi/Documents/vs/S-Reo/MazeLibrary\Searching.c ****                     now_state->dir = left;
 2854              		.loc 1 905 39 view .LVU866
 2855 00a0 0270     		strb	r2, [r0]
 906:C:/Users/leopi/Documents/vs/S-Reo/MazeLibrary\Searching.c ****                     return next_state;
 2856              		.loc 1 906 21 is_stmt 1 view .LVU867
 906:C:/Users/leopi/Documents/vs/S-Reo/MazeLibrary\Searching.c ****                     return next_state;
 2857              		.loc 1 906 36 is_stmt 0 view .LVU868
 2858 00a2 D970     		strb	r1, [r3, #3]
 907:C:/Users/leopi/Documents/vs/S-Reo/MazeLibrary\Searching.c ****                 }
 2859              		.loc 1 907 21 is_stmt 1 view .LVU869
 907:C:/Users/leopi/Documents/vs/S-Reo/MazeLibrary\Searching.c ****                 }
 2860              		.loc 1 907 28 is_stmt 0 view .LVU870
 2861 00a4 D6E7     		b	.L160
 2862              	.LVL244:
 2863              	.L191:
 912:C:/Users/leopi/Documents/vs/S-Reo/MazeLibrary\Searching.c ****                 {
 2864              		.loc 1 912 21 discriminator 1 view .LVU871
 2865 00a6 04F1FF3C 		add	ip, r4, #-1
 2866 00aa AC45     		cmp	ip, r5
 2867 00ac D0D1     		bne	.L170
 914:C:/Users/leopi/Documents/vs/S-Reo/MazeLibrary\Searching.c ****                     next_state->pos.x = now_state->pos.x - 1;
 2868              		.loc 1 914 21 is_stmt 1 view .LVU872
 914:C:/Users/leopi/Documents/vs/S-Reo/MazeLibrary\Searching.c ****                     next_state->pos.x = now_state->pos.x - 1;
 2869              		.loc 1 914 37 is_stmt 0 view .LVU873
 2870 00ae 0622     		movs	r2, #6
 2871 00b0 8270     		strb	r2, [r0, #2]
 915:C:/Users/leopi/Documents/vs/S-Reo/MazeLibrary\Searching.c ****                     next_state->pos.y = now_state->pos.y - 1;
 2872              		.loc 1 915 21 is_stmt 1 view .LVU874
 915:C:/Users/leopi/Documents/vs/S-Reo/MazeLibrary\Searching.c ****                     next_state->pos.y = now_state->pos.y - 1;
ARM GAS  C:\Users\leopi\AppData\Local\Temp\ccMCNSog.s 			page 80


 2873              		.loc 1 915 55 is_stmt 0 view .LVU875
 2874 00b2 1A78     		ldrb	r2, [r3]	@ zero_extendqisi2
 915:C:/Users/leopi/Documents/vs/S-Reo/MazeLibrary\Searching.c ****                     next_state->pos.y = now_state->pos.y - 1;
 2875              		.loc 1 915 58 view .LVU876
 2876 00b4 013A     		subs	r2, r2, #1
 915:C:/Users/leopi/Documents/vs/S-Reo/MazeLibrary\Searching.c ****                     next_state->pos.y = now_state->pos.y - 1;
 2877              		.loc 1 915 39 view .LVU877
 2878 00b6 0270     		strb	r2, [r0]
 916:C:/Users/leopi/Documents/vs/S-Reo/MazeLibrary\Searching.c ****                     now_state->dir = backright;
 2879              		.loc 1 916 21 is_stmt 1 view .LVU878
 916:C:/Users/leopi/Documents/vs/S-Reo/MazeLibrary\Searching.c ****                     now_state->dir = backright;
 2880              		.loc 1 916 55 is_stmt 0 view .LVU879
 2881 00b8 5A78     		ldrb	r2, [r3, #1]	@ zero_extendqisi2
 916:C:/Users/leopi/Documents/vs/S-Reo/MazeLibrary\Searching.c ****                     now_state->dir = backright;
 2882              		.loc 1 916 58 view .LVU880
 2883 00ba 013A     		subs	r2, r2, #1
 916:C:/Users/leopi/Documents/vs/S-Reo/MazeLibrary\Searching.c ****                     now_state->dir = backright;
 2884              		.loc 1 916 39 view .LVU881
 2885 00bc 4270     		strb	r2, [r0, #1]
 917:C:/Users/leopi/Documents/vs/S-Reo/MazeLibrary\Searching.c ****                     return next_state;
 2886              		.loc 1 917 21 is_stmt 1 view .LVU882
 917:C:/Users/leopi/Documents/vs/S-Reo/MazeLibrary\Searching.c ****                     return next_state;
 2887              		.loc 1 917 36 is_stmt 0 view .LVU883
 2888 00be 0322     		movs	r2, #3
 2889 00c0 DA70     		strb	r2, [r3, #3]
 918:C:/Users/leopi/Documents/vs/S-Reo/MazeLibrary\Searching.c ****                 }
 2890              		.loc 1 918 21 is_stmt 1 view .LVU884
 918:C:/Users/leopi/Documents/vs/S-Reo/MazeLibrary\Searching.c ****                 }
 2891              		.loc 1 918 28 is_stmt 0 view .LVU885
 2892 00c2 C7E7     		b	.L160
 2893              	.L192:
 922:C:/Users/leopi/Documents/vs/S-Reo/MazeLibrary\Searching.c ****                 {
 2894              		.loc 1 922 21 discriminator 1 view .LVU886
 2895 00c4 013C     		subs	r4, r4, #1
 2896              	.LVL245:
 922:C:/Users/leopi/Documents/vs/S-Reo/MazeLibrary\Searching.c ****                 {
 2897              		.loc 1 922 21 discriminator 1 view .LVU887
 2898 00c6 AC42     		cmp	r4, r5
 2899 00c8 C4D1     		bne	.L160
 924:C:/Users/leopi/Documents/vs/S-Reo/MazeLibrary\Searching.c ****                     next_state->pos.x = now_state->pos.x + 1;
 2900              		.loc 1 924 21 is_stmt 1 view .LVU888
 924:C:/Users/leopi/Documents/vs/S-Reo/MazeLibrary\Searching.c ****                     next_state->pos.x = now_state->pos.x + 1;
 2901              		.loc 1 924 37 is_stmt 0 view .LVU889
 2902 00ca 0222     		movs	r2, #2
 2903 00cc 8270     		strb	r2, [r0, #2]
 925:C:/Users/leopi/Documents/vs/S-Reo/MazeLibrary\Searching.c ****                     next_state->pos.y = now_state->pos.y - 1;
 2904              		.loc 1 925 21 is_stmt 1 view .LVU890
 925:C:/Users/leopi/Documents/vs/S-Reo/MazeLibrary\Searching.c ****                     next_state->pos.y = now_state->pos.y - 1;
 2905              		.loc 1 925 55 is_stmt 0 view .LVU891
 2906 00ce 1A78     		ldrb	r2, [r3]	@ zero_extendqisi2
 925:C:/Users/leopi/Documents/vs/S-Reo/MazeLibrary\Searching.c ****                     next_state->pos.y = now_state->pos.y - 1;
 2907              		.loc 1 925 58 view .LVU892
 2908 00d0 0132     		adds	r2, r2, #1
 925:C:/Users/leopi/Documents/vs/S-Reo/MazeLibrary\Searching.c ****                     next_state->pos.y = now_state->pos.y - 1;
 2909              		.loc 1 925 39 view .LVU893
 2910 00d2 0270     		strb	r2, [r0]
 926:C:/Users/leopi/Documents/vs/S-Reo/MazeLibrary\Searching.c ****                     now_state->dir = backleft;
ARM GAS  C:\Users\leopi\AppData\Local\Temp\ccMCNSog.s 			page 81


 2911              		.loc 1 926 21 is_stmt 1 view .LVU894
 926:C:/Users/leopi/Documents/vs/S-Reo/MazeLibrary\Searching.c ****                     now_state->dir = backleft;
 2912              		.loc 1 926 55 is_stmt 0 view .LVU895
 2913 00d4 5A78     		ldrb	r2, [r3, #1]	@ zero_extendqisi2
 926:C:/Users/leopi/Documents/vs/S-Reo/MazeLibrary\Searching.c ****                     now_state->dir = backleft;
 2914              		.loc 1 926 58 view .LVU896
 2915 00d6 013A     		subs	r2, r2, #1
 926:C:/Users/leopi/Documents/vs/S-Reo/MazeLibrary\Searching.c ****                     now_state->dir = backleft;
 2916              		.loc 1 926 39 view .LVU897
 2917 00d8 4270     		strb	r2, [r0, #1]
 927:C:/Users/leopi/Documents/vs/S-Reo/MazeLibrary\Searching.c ****                     return next_state;
 2918              		.loc 1 927 21 is_stmt 1 view .LVU898
 927:C:/Users/leopi/Documents/vs/S-Reo/MazeLibrary\Searching.c ****                     return next_state;
 2919              		.loc 1 927 36 is_stmt 0 view .LVU899
 2920 00da 0522     		movs	r2, #5
 2921 00dc DA70     		strb	r2, [r3, #3]
 928:C:/Users/leopi/Documents/vs/S-Reo/MazeLibrary\Searching.c ****                 }
 2922              		.loc 1 928 21 is_stmt 1 view .LVU900
 928:C:/Users/leopi/Documents/vs/S-Reo/MazeLibrary\Searching.c ****                 }
 2923              		.loc 1 928 28 is_stmt 0 view .LVU901
 2924 00de B9E7     		b	.L160
 2925              	.LVL246:
 2926              	.L164:
 934:C:/Users/leopi/Documents/vs/S-Reo/MazeLibrary\Searching.c ****             {
 2927              		.loc 1 934 13 is_stmt 1 view .LVU902
 934:C:/Users/leopi/Documents/vs/S-Reo/MazeLibrary\Searching.c ****             {
 2928              		.loc 1 934 25 is_stmt 0 view .LVU903
 2929 00e0 5279     		ldrb	r2, [r2, #5]	@ zero_extendqisi2
 2930              	.LVL247:
 934:C:/Users/leopi/Documents/vs/S-Reo/MazeLibrary\Searching.c ****             {
 2931              		.loc 1 934 15 view .LVU904
 2932 00e2 3AB1     		cbz	r2, .L171
 941:C:/Users/leopi/Documents/vs/S-Reo/MazeLibrary\Searching.c ****                 {
 2933              		.loc 1 941 17 is_stmt 1 view .LVU905
 941:C:/Users/leopi/Documents/vs/S-Reo/MazeLibrary\Searching.c ****                 {
 2934              		.loc 1 941 21 is_stmt 0 view .LVU906
 2935 00e4 0EF1010C 		add	ip, lr, #1
 941:C:/Users/leopi/Documents/vs/S-Reo/MazeLibrary\Searching.c ****                 {
 2936              		.loc 1 941 19 view .LVU907
 2937 00e8 8C45     		cmp	ip, r1
 2938 00ea 1CD0     		beq	.L193
 2939              	.L172:
 951:C:/Users/leopi/Documents/vs/S-Reo/MazeLibrary\Searching.c ****                 {
 2940              		.loc 1 951 17 is_stmt 1 view .LVU908
 951:C:/Users/leopi/Documents/vs/S-Reo/MazeLibrary\Searching.c ****                 {
 2941              		.loc 1 951 21 is_stmt 0 view .LVU909
 2942 00ec 0EF1FF3C 		add	ip, lr, #-1
 951:C:/Users/leopi/Documents/vs/S-Reo/MazeLibrary\Searching.c ****                 {
 2943              		.loc 1 951 19 view .LVU910
 2944 00f0 6145     		cmp	r1, ip
 2945 00f2 22D0     		beq	.L194
 2946              	.L171:
 962:C:/Users/leopi/Documents/vs/S-Reo/MazeLibrary\Searching.c ****             {
 2947              		.loc 1 962 13 is_stmt 1 view .LVU911
 962:C:/Users/leopi/Documents/vs/S-Reo/MazeLibrary\Searching.c ****             {
 2948              		.loc 1 962 15 is_stmt 0 view .LVU912
 2949 00f4 002A     		cmp	r2, #0
ARM GAS  C:\Users\leopi\AppData\Local\Temp\ccMCNSog.s 			page 82


 2950 00f6 ADD1     		bne	.L160
 967:C:/Users/leopi/Documents/vs/S-Reo/MazeLibrary\Searching.c ****                 {
 2951              		.loc 1 967 17 is_stmt 1 view .LVU913
 967:C:/Users/leopi/Documents/vs/S-Reo/MazeLibrary\Searching.c ****                 {
 2952              		.loc 1 967 19 is_stmt 0 view .LVU914
 2953 00f8 8E45     		cmp	lr, r1
 2954 00fa 28D0     		beq	.L195
 2955              	.L173:
 978:C:/Users/leopi/Documents/vs/S-Reo/MazeLibrary\Searching.c ****                 {
 2956              		.loc 1 978 17 is_stmt 1 view .LVU915
 978:C:/Users/leopi/Documents/vs/S-Reo/MazeLibrary\Searching.c ****                 {
 2957              		.loc 1 978 19 is_stmt 0 view .LVU916
 2958 00fc 8E45     		cmp	lr, r1
 2959 00fe 30D0     		beq	.L196
 2960              	.L174:
 987:C:/Users/leopi/Documents/vs/S-Reo/MazeLibrary\Searching.c ****                 {
 2961              		.loc 1 987 17 is_stmt 1 view .LVU917
 987:C:/Users/leopi/Documents/vs/S-Reo/MazeLibrary\Searching.c ****                 {
 2962              		.loc 1 987 21 is_stmt 0 view .LVU918
 2963 0100 0EF1FF3E 		add	lr, lr, #-1
 2964              	.LVL248:
 987:C:/Users/leopi/Documents/vs/S-Reo/MazeLibrary\Searching.c ****                 {
 2965              		.loc 1 987 19 view .LVU919
 2966 0104 8E45     		cmp	lr, r1
 2967 0106 37D0     		beq	.L197
 2968              	.L175:
 998:C:/Users/leopi/Documents/vs/S-Reo/MazeLibrary\Searching.c ****                 {
 2969              		.loc 1 998 17 is_stmt 1 view .LVU920
 998:C:/Users/leopi/Documents/vs/S-Reo/MazeLibrary\Searching.c ****                 {
 2970              		.loc 1 998 19 is_stmt 0 view .LVU921
 2971 0108 8E45     		cmp	lr, r1
 2972 010a A3D1     		bne	.L160
 998:C:/Users/leopi/Documents/vs/S-Reo/MazeLibrary\Searching.c ****                 {
 2973              		.loc 1 998 21 discriminator 1 view .LVU922
 2974 010c AC42     		cmp	r4, r5
 2975 010e A1D1     		bne	.L160
1000:C:/Users/leopi/Documents/vs/S-Reo/MazeLibrary\Searching.c ****                     next_state->pos.x = now_state->pos.x - 1;
 2976              		.loc 1 1000 21 is_stmt 1 view .LVU923
1000:C:/Users/leopi/Documents/vs/S-Reo/MazeLibrary\Searching.c ****                     next_state->pos.x = now_state->pos.x - 1;
 2977              		.loc 1 1000 37 is_stmt 0 view .LVU924
 2978 0110 0422     		movs	r2, #4
 2979 0112 8270     		strb	r2, [r0, #2]
1001:C:/Users/leopi/Documents/vs/S-Reo/MazeLibrary\Searching.c ****                     next_state->pos.y = now_state->pos.y - 1;
 2980              		.loc 1 1001 21 is_stmt 1 view .LVU925
1001:C:/Users/leopi/Documents/vs/S-Reo/MazeLibrary\Searching.c ****                     next_state->pos.y = now_state->pos.y - 1;
 2981              		.loc 1 1001 55 is_stmt 0 view .LVU926
 2982 0114 1A78     		ldrb	r2, [r3]	@ zero_extendqisi2
1001:C:/Users/leopi/Documents/vs/S-Reo/MazeLibrary\Searching.c ****                     next_state->pos.y = now_state->pos.y - 1;
 2983              		.loc 1 1001 58 view .LVU927
 2984 0116 013A     		subs	r2, r2, #1
1001:C:/Users/leopi/Documents/vs/S-Reo/MazeLibrary\Searching.c ****                     next_state->pos.y = now_state->pos.y - 1;
 2985              		.loc 1 1001 39 view .LVU928
 2986 0118 0270     		strb	r2, [r0]
1002:C:/Users/leopi/Documents/vs/S-Reo/MazeLibrary\Searching.c ****                     now_state->dir = backleft;
 2987              		.loc 1 1002 21 is_stmt 1 view .LVU929
1002:C:/Users/leopi/Documents/vs/S-Reo/MazeLibrary\Searching.c ****                     now_state->dir = backleft;
 2988              		.loc 1 1002 55 is_stmt 0 view .LVU930
ARM GAS  C:\Users\leopi\AppData\Local\Temp\ccMCNSog.s 			page 83


 2989 011a 5A78     		ldrb	r2, [r3, #1]	@ zero_extendqisi2
1002:C:/Users/leopi/Documents/vs/S-Reo/MazeLibrary\Searching.c ****                     now_state->dir = backleft;
 2990              		.loc 1 1002 58 view .LVU931
 2991 011c 013A     		subs	r2, r2, #1
1002:C:/Users/leopi/Documents/vs/S-Reo/MazeLibrary\Searching.c ****                     now_state->dir = backleft;
 2992              		.loc 1 1002 39 view .LVU932
 2993 011e 4270     		strb	r2, [r0, #1]
1003:C:/Users/leopi/Documents/vs/S-Reo/MazeLibrary\Searching.c ****                     return next_state;
 2994              		.loc 1 1003 21 is_stmt 1 view .LVU933
1003:C:/Users/leopi/Documents/vs/S-Reo/MazeLibrary\Searching.c ****                     return next_state;
 2995              		.loc 1 1003 36 is_stmt 0 view .LVU934
 2996 0120 0522     		movs	r2, #5
 2997 0122 DA70     		strb	r2, [r3, #3]
1004:C:/Users/leopi/Documents/vs/S-Reo/MazeLibrary\Searching.c ****                 }
 2998              		.loc 1 1004 21 is_stmt 1 view .LVU935
1004:C:/Users/leopi/Documents/vs/S-Reo/MazeLibrary\Searching.c ****                 }
 2999              		.loc 1 1004 28 is_stmt 0 view .LVU936
 3000 0124 96E7     		b	.L160
 3001              	.LVL249:
 3002              	.L193:
 941:C:/Users/leopi/Documents/vs/S-Reo/MazeLibrary\Searching.c ****                 {
 3003              		.loc 1 941 21 discriminator 1 view .LVU937
 3004 0126 AC42     		cmp	r4, r5
 3005 0128 E0D1     		bne	.L172
 943:C:/Users/leopi/Documents/vs/S-Reo/MazeLibrary\Searching.c ****                     next_state->pos.x = now_state->pos.x + 1;
 3006              		.loc 1 943 21 is_stmt 1 view .LVU938
 943:C:/Users/leopi/Documents/vs/S-Reo/MazeLibrary\Searching.c ****                     next_state->pos.x = now_state->pos.x + 1;
 3007              		.loc 1 943 37 is_stmt 0 view .LVU939
 3008 012a 0222     		movs	r2, #2
 3009 012c 8270     		strb	r2, [r0, #2]
 944:C:/Users/leopi/Documents/vs/S-Reo/MazeLibrary\Searching.c ****                     now_state->dir = front;
 3010              		.loc 1 944 21 is_stmt 1 view .LVU940
 944:C:/Users/leopi/Documents/vs/S-Reo/MazeLibrary\Searching.c ****                     now_state->dir = front;
 3011              		.loc 1 944 55 is_stmt 0 view .LVU941
 3012 012e 1A78     		ldrb	r2, [r3]	@ zero_extendqisi2
 944:C:/Users/leopi/Documents/vs/S-Reo/MazeLibrary\Searching.c ****                     now_state->dir = front;
 3013              		.loc 1 944 58 view .LVU942
 3014 0130 0132     		adds	r2, r2, #1
 944:C:/Users/leopi/Documents/vs/S-Reo/MazeLibrary\Searching.c ****                     now_state->dir = front;
 3015              		.loc 1 944 39 view .LVU943
 3016 0132 0270     		strb	r2, [r0]
 945:C:/Users/leopi/Documents/vs/S-Reo/MazeLibrary\Searching.c **** //                    ChangeLED(4);
 3017              		.loc 1 945 21 is_stmt 1 view .LVU944
 945:C:/Users/leopi/Documents/vs/S-Reo/MazeLibrary\Searching.c **** //                    ChangeLED(4);
 3018              		.loc 1 945 36 is_stmt 0 view .LVU945
 3019 0134 0022     		movs	r2, #0
 3020 0136 DA70     		strb	r2, [r3, #3]
 947:C:/Users/leopi/Documents/vs/S-Reo/MazeLibrary\Searching.c ****                 }
 3021              		.loc 1 947 21 is_stmt 1 view .LVU946
 947:C:/Users/leopi/Documents/vs/S-Reo/MazeLibrary\Searching.c ****                 }
 3022              		.loc 1 947 28 is_stmt 0 view .LVU947
 3023 0138 8CE7     		b	.L160
 3024              	.L194:
 951:C:/Users/leopi/Documents/vs/S-Reo/MazeLibrary\Searching.c ****                 {
 3025              		.loc 1 951 21 discriminator 1 view .LVU948
 3026 013a AC42     		cmp	r4, r5
 3027 013c DAD1     		bne	.L171
ARM GAS  C:\Users\leopi\AppData\Local\Temp\ccMCNSog.s 			page 84


 953:C:/Users/leopi/Documents/vs/S-Reo/MazeLibrary\Searching.c ****                     next_state->pos.x = now_state->pos.x - 2; //次に壁を更新するタイミ
 3028              		.loc 1 953 21 is_stmt 1 view .LVU949
 953:C:/Users/leopi/Documents/vs/S-Reo/MazeLibrary\Searching.c ****                     next_state->pos.x = now_state->pos.x - 2; //次に壁を更新するタイミ
 3029              		.loc 1 953 37 is_stmt 0 view .LVU950
 3030 013e 0622     		movs	r2, #6
 3031 0140 8270     		strb	r2, [r0, #2]
 954:C:/Users/leopi/Documents/vs/S-Reo/MazeLibrary\Searching.c ****                     now_state->dir = back;
 3032              		.loc 1 954 21 is_stmt 1 view .LVU951
 954:C:/Users/leopi/Documents/vs/S-Reo/MazeLibrary\Searching.c ****                     now_state->dir = back;
 3033              		.loc 1 954 55 is_stmt 0 view .LVU952
 3034 0142 1A78     		ldrb	r2, [r3]	@ zero_extendqisi2
 954:C:/Users/leopi/Documents/vs/S-Reo/MazeLibrary\Searching.c ****                     now_state->dir = back;
 3035              		.loc 1 954 58 view .LVU953
 3036 0144 023A     		subs	r2, r2, #2
 954:C:/Users/leopi/Documents/vs/S-Reo/MazeLibrary\Searching.c ****                     now_state->dir = back;
 3037              		.loc 1 954 39 view .LVU954
 3038 0146 0270     		strb	r2, [r0]
 955:C:/Users/leopi/Documents/vs/S-Reo/MazeLibrary\Searching.c ****                     return next_state;
 3039              		.loc 1 955 21 is_stmt 1 view .LVU955
 955:C:/Users/leopi/Documents/vs/S-Reo/MazeLibrary\Searching.c ****                     return next_state;
 3040              		.loc 1 955 36 is_stmt 0 view .LVU956
 3041 0148 0422     		movs	r2, #4
 3042 014a DA70     		strb	r2, [r3, #3]
 956:C:/Users/leopi/Documents/vs/S-Reo/MazeLibrary\Searching.c ****                 }
 3043              		.loc 1 956 21 is_stmt 1 view .LVU957
 956:C:/Users/leopi/Documents/vs/S-Reo/MazeLibrary\Searching.c ****                 }
 3044              		.loc 1 956 28 is_stmt 0 view .LVU958
 3045 014c 82E7     		b	.L160
 3046              	.L195:
 967:C:/Users/leopi/Documents/vs/S-Reo/MazeLibrary\Searching.c ****                 {
 3047              		.loc 1 967 21 discriminator 1 view .LVU959
 3048 014e AC42     		cmp	r4, r5
 3049 0150 D4D1     		bne	.L173
 969:C:/Users/leopi/Documents/vs/S-Reo/MazeLibrary\Searching.c ****                     next_state->pos.y = now_state->pos.y - 1;
 3050              		.loc 1 969 21 is_stmt 1 view .LVU960
 969:C:/Users/leopi/Documents/vs/S-Reo/MazeLibrary\Searching.c ****                     next_state->pos.y = now_state->pos.y - 1;
 3051              		.loc 1 969 37 is_stmt 0 view .LVU961
 3052 0152 0422     		movs	r2, #4
 3053 0154 8270     		strb	r2, [r0, #2]
 970:C:/Users/leopi/Documents/vs/S-Reo/MazeLibrary\Searching.c ****                     now_state->dir = right;
 3054              		.loc 1 970 21 is_stmt 1 view .LVU962
 970:C:/Users/leopi/Documents/vs/S-Reo/MazeLibrary\Searching.c ****                     now_state->dir = right;
 3055              		.loc 1 970 55 is_stmt 0 view .LVU963
 3056 0156 5A78     		ldrb	r2, [r3, #1]	@ zero_extendqisi2
 970:C:/Users/leopi/Documents/vs/S-Reo/MazeLibrary\Searching.c ****                     now_state->dir = right;
 3057              		.loc 1 970 58 view .LVU964
 3058 0158 013A     		subs	r2, r2, #1
 970:C:/Users/leopi/Documents/vs/S-Reo/MazeLibrary\Searching.c ****                     now_state->dir = right;
 3059              		.loc 1 970 39 view .LVU965
 3060 015a 4270     		strb	r2, [r0, #1]
 971:C:/Users/leopi/Documents/vs/S-Reo/MazeLibrary\Searching.c **** //                    ChangeLED(5);
 3061              		.loc 1 971 21 is_stmt 1 view .LVU966
 971:C:/Users/leopi/Documents/vs/S-Reo/MazeLibrary\Searching.c **** //                    ChangeLED(5);
 3062              		.loc 1 971 36 is_stmt 0 view .LVU967
 3063 015c 0222     		movs	r2, #2
 3064 015e DA70     		strb	r2, [r3, #3]
 973:C:/Users/leopi/Documents/vs/S-Reo/MazeLibrary\Searching.c ****                 }
ARM GAS  C:\Users\leopi\AppData\Local\Temp\ccMCNSog.s 			page 85


 3065              		.loc 1 973 21 is_stmt 1 view .LVU968
 973:C:/Users/leopi/Documents/vs/S-Reo/MazeLibrary\Searching.c ****                 }
 3066              		.loc 1 973 28 is_stmt 0 view .LVU969
 3067 0160 78E7     		b	.L160
 3068              	.L196:
 978:C:/Users/leopi/Documents/vs/S-Reo/MazeLibrary\Searching.c ****                 {
 3069              		.loc 1 978 21 discriminator 1 view .LVU970
 3070 0162 621C     		adds	r2, r4, #1
 3071 0164 AA42     		cmp	r2, r5
 3072 0166 CBD1     		bne	.L174
 980:C:/Users/leopi/Documents/vs/S-Reo/MazeLibrary\Searching.c ****                     next_state->pos.y = now_state->pos.y + 1;
 3073              		.loc 1 980 21 is_stmt 1 view .LVU971
 980:C:/Users/leopi/Documents/vs/S-Reo/MazeLibrary\Searching.c ****                     next_state->pos.y = now_state->pos.y + 1;
 3074              		.loc 1 980 37 is_stmt 0 view .LVU972
 3075 0168 0022     		movs	r2, #0
 3076 016a 8270     		strb	r2, [r0, #2]
 981:C:/Users/leopi/Documents/vs/S-Reo/MazeLibrary\Searching.c ****                     now_state->dir = left;
 3077              		.loc 1 981 21 is_stmt 1 view .LVU973
 981:C:/Users/leopi/Documents/vs/S-Reo/MazeLibrary\Searching.c ****                     now_state->dir = left;
 3078              		.loc 1 981 55 is_stmt 0 view .LVU974
 3079 016c 5A78     		ldrb	r2, [r3, #1]	@ zero_extendqisi2
 981:C:/Users/leopi/Documents/vs/S-Reo/MazeLibrary\Searching.c ****                     now_state->dir = left;
 3080              		.loc 1 981 58 view .LVU975
 3081 016e 0132     		adds	r2, r2, #1
 981:C:/Users/leopi/Documents/vs/S-Reo/MazeLibrary\Searching.c ****                     now_state->dir = left;
 3082              		.loc 1 981 39 view .LVU976
 3083 0170 4270     		strb	r2, [r0, #1]
 982:C:/Users/leopi/Documents/vs/S-Reo/MazeLibrary\Searching.c ****                     return next_state;
 3084              		.loc 1 982 21 is_stmt 1 view .LVU977
 982:C:/Users/leopi/Documents/vs/S-Reo/MazeLibrary\Searching.c ****                     return next_state;
 3085              		.loc 1 982 36 is_stmt 0 view .LVU978
 3086 0172 0622     		movs	r2, #6
 3087 0174 DA70     		strb	r2, [r3, #3]
 983:C:/Users/leopi/Documents/vs/S-Reo/MazeLibrary\Searching.c ****                 }
 3088              		.loc 1 983 21 is_stmt 1 view .LVU979
 983:C:/Users/leopi/Documents/vs/S-Reo/MazeLibrary\Searching.c ****                 }
 3089              		.loc 1 983 28 is_stmt 0 view .LVU980
 3090 0176 6DE7     		b	.L160
 3091              	.LVL250:
 3092              	.L197:
 987:C:/Users/leopi/Documents/vs/S-Reo/MazeLibrary\Searching.c ****                 {
 3093              		.loc 1 987 21 discriminator 1 view .LVU981
 3094 0178 621C     		adds	r2, r4, #1
 3095 017a AA42     		cmp	r2, r5
 3096 017c C4D1     		bne	.L175
 989:C:/Users/leopi/Documents/vs/S-Reo/MazeLibrary\Searching.c ****                     next_state->pos.x = now_state->pos.x - 1;
 3097              		.loc 1 989 21 is_stmt 1 view .LVU982
 989:C:/Users/leopi/Documents/vs/S-Reo/MazeLibrary\Searching.c ****                     next_state->pos.x = now_state->pos.x - 1;
 3098              		.loc 1 989 37 is_stmt 0 view .LVU983
 3099 017e 0022     		movs	r2, #0
 3100 0180 8270     		strb	r2, [r0, #2]
 990:C:/Users/leopi/Documents/vs/S-Reo/MazeLibrary\Searching.c ****                     next_state->pos.y = now_state->pos.y + 1;
 3101              		.loc 1 990 21 is_stmt 1 view .LVU984
 990:C:/Users/leopi/Documents/vs/S-Reo/MazeLibrary\Searching.c ****                     next_state->pos.y = now_state->pos.y + 1;
 3102              		.loc 1 990 55 is_stmt 0 view .LVU985
 3103 0182 1A78     		ldrb	r2, [r3]	@ zero_extendqisi2
 990:C:/Users/leopi/Documents/vs/S-Reo/MazeLibrary\Searching.c ****                     next_state->pos.y = now_state->pos.y + 1;
ARM GAS  C:\Users\leopi\AppData\Local\Temp\ccMCNSog.s 			page 86


 3104              		.loc 1 990 58 view .LVU986
 3105 0184 013A     		subs	r2, r2, #1
 990:C:/Users/leopi/Documents/vs/S-Reo/MazeLibrary\Searching.c ****                     next_state->pos.y = now_state->pos.y + 1;
 3106              		.loc 1 990 39 view .LVU987
 3107 0186 0270     		strb	r2, [r0]
 991:C:/Users/leopi/Documents/vs/S-Reo/MazeLibrary\Searching.c ****                     now_state->dir = backright;
 3108              		.loc 1 991 21 is_stmt 1 view .LVU988
 991:C:/Users/leopi/Documents/vs/S-Reo/MazeLibrary\Searching.c ****                     now_state->dir = backright;
 3109              		.loc 1 991 55 is_stmt 0 view .LVU989
 3110 0188 5A78     		ldrb	r2, [r3, #1]	@ zero_extendqisi2
 991:C:/Users/leopi/Documents/vs/S-Reo/MazeLibrary\Searching.c ****                     now_state->dir = backright;
 3111              		.loc 1 991 58 view .LVU990
 3112 018a 0132     		adds	r2, r2, #1
 991:C:/Users/leopi/Documents/vs/S-Reo/MazeLibrary\Searching.c ****                     now_state->dir = backright;
 3113              		.loc 1 991 39 view .LVU991
 3114 018c 4270     		strb	r2, [r0, #1]
 992:C:/Users/leopi/Documents/vs/S-Reo/MazeLibrary\Searching.c ****                     return next_state;
 3115              		.loc 1 992 21 is_stmt 1 view .LVU992
 992:C:/Users/leopi/Documents/vs/S-Reo/MazeLibrary\Searching.c ****                     return next_state;
 3116              		.loc 1 992 36 is_stmt 0 view .LVU993
 3117 018e 0322     		movs	r2, #3
 3118 0190 DA70     		strb	r2, [r3, #3]
 993:C:/Users/leopi/Documents/vs/S-Reo/MazeLibrary\Searching.c ****                 }
 3119              		.loc 1 993 21 is_stmt 1 view .LVU994
 993:C:/Users/leopi/Documents/vs/S-Reo/MazeLibrary\Searching.c ****                 }
 3120              		.loc 1 993 28 is_stmt 0 view .LVU995
 3121 0192 5FE7     		b	.L160
 3122              	.LVL251:
 3123              	.L163:
1009:C:/Users/leopi/Documents/vs/S-Reo/MazeLibrary\Searching.c ****             {
 3124              		.loc 1 1009 13 is_stmt 1 view .LVU996
1009:C:/Users/leopi/Documents/vs/S-Reo/MazeLibrary\Searching.c ****             {
 3125              		.loc 1 1009 25 is_stmt 0 view .LVU997
 3126 0194 5279     		ldrb	r2, [r2, #5]	@ zero_extendqisi2
 3127              	.LVL252:
1009:C:/Users/leopi/Documents/vs/S-Reo/MazeLibrary\Searching.c ****             {
 3128              		.loc 1 1009 15 view .LVU998
 3129 0196 1AB9     		cbnz	r2, .L176
1016:C:/Users/leopi/Documents/vs/S-Reo/MazeLibrary\Searching.c ****                 {
 3130              		.loc 1 1016 17 is_stmt 1 view .LVU999
1016:C:/Users/leopi/Documents/vs/S-Reo/MazeLibrary\Searching.c ****                 {
 3131              		.loc 1 1016 19 is_stmt 0 view .LVU1000
 3132 0198 8E45     		cmp	lr, r1
 3133 019a 1DD0     		beq	.L198
 3134              	.L177:
1024:C:/Users/leopi/Documents/vs/S-Reo/MazeLibrary\Searching.c ****                 {
 3135              		.loc 1 1024 17 is_stmt 1 view .LVU1001
1024:C:/Users/leopi/Documents/vs/S-Reo/MazeLibrary\Searching.c ****                 {
 3136              		.loc 1 1024 19 is_stmt 0 view .LVU1002
 3137 019c 8E45     		cmp	lr, r1
 3138 019e 27D0     		beq	.L199
 3139              	.L176:
1034:C:/Users/leopi/Documents/vs/S-Reo/MazeLibrary\Searching.c ****             {
 3140              		.loc 1 1034 13 is_stmt 1 view .LVU1003
1034:C:/Users/leopi/Documents/vs/S-Reo/MazeLibrary\Searching.c ****             {
 3141              		.loc 1 1034 15 is_stmt 0 view .LVU1004
 3142 01a0 002A     		cmp	r2, #0
ARM GAS  C:\Users\leopi\AppData\Local\Temp\ccMCNSog.s 			page 87


 3143 01a2 3FF457AF 		beq	.L160
1039:C:/Users/leopi/Documents/vs/S-Reo/MazeLibrary\Searching.c ****                 {
 3144              		.loc 1 1039 17 is_stmt 1 view .LVU1005
1039:C:/Users/leopi/Documents/vs/S-Reo/MazeLibrary\Searching.c ****                 {
 3145              		.loc 1 1039 19 is_stmt 0 view .LVU1006
 3146 01a6 8E45     		cmp	lr, r1
 3147 01a8 2ED0     		beq	.L200
 3148              	.L178:
1050:C:/Users/leopi/Documents/vs/S-Reo/MazeLibrary\Searching.c ****                 {
 3149              		.loc 1 1050 17 is_stmt 1 view .LVU1007
1050:C:/Users/leopi/Documents/vs/S-Reo/MazeLibrary\Searching.c ****                 {
 3150              		.loc 1 1050 21 is_stmt 0 view .LVU1008
 3151 01aa 0EF10102 		add	r2, lr, #1
1050:C:/Users/leopi/Documents/vs/S-Reo/MazeLibrary\Searching.c ****                 {
 3152              		.loc 1 1050 19 view .LVU1009
 3153 01ae 8A42     		cmp	r2, r1
 3154 01b0 35D0     		beq	.L201
 3155              	.L179:
1060:C:/Users/leopi/Documents/vs/S-Reo/MazeLibrary\Searching.c ****                 {
 3156              		.loc 1 1060 17 is_stmt 1 view .LVU1010
1060:C:/Users/leopi/Documents/vs/S-Reo/MazeLibrary\Searching.c ****                 {
 3157              		.loc 1 1060 19 is_stmt 0 view .LVU1011
 3158 01b2 8A42     		cmp	r2, r1
 3159 01b4 3FD0     		beq	.L202
 3160              	.L180:
1070:C:/Users/leopi/Documents/vs/S-Reo/MazeLibrary\Searching.c ****                 {
 3161              		.loc 1 1070 17 is_stmt 1 view .LVU1012
1070:C:/Users/leopi/Documents/vs/S-Reo/MazeLibrary\Searching.c ****                 {
 3162              		.loc 1 1070 19 is_stmt 0 view .LVU1013
 3163 01b6 8E45     		cmp	lr, r1
 3164 01b8 7FF44CAF 		bne	.L160
1070:C:/Users/leopi/Documents/vs/S-Reo/MazeLibrary\Searching.c ****                 {
 3165              		.loc 1 1070 21 discriminator 1 view .LVU1014
 3166 01bc AC42     		cmp	r4, r5
 3167 01be 7FF449AF 		bne	.L160
1072:C:/Users/leopi/Documents/vs/S-Reo/MazeLibrary\Searching.c ****                     next_state->pos.x = now_state->pos.x - 1;
 3168              		.loc 1 1072 21 is_stmt 1 view .LVU1015
1072:C:/Users/leopi/Documents/vs/S-Reo/MazeLibrary\Searching.c ****                     next_state->pos.x = now_state->pos.x - 1;
 3169              		.loc 1 1072 37 is_stmt 0 view .LVU1016
 3170 01c2 0622     		movs	r2, #6
 3171 01c4 8270     		strb	r2, [r0, #2]
1073:C:/Users/leopi/Documents/vs/S-Reo/MazeLibrary\Searching.c ****                     next_state->pos.y = now_state->pos.y + 1;
 3172              		.loc 1 1073 21 is_stmt 1 view .LVU1017
1073:C:/Users/leopi/Documents/vs/S-Reo/MazeLibrary\Searching.c ****                     next_state->pos.y = now_state->pos.y + 1;
 3173              		.loc 1 1073 55 is_stmt 0 view .LVU1018
 3174 01c6 1A78     		ldrb	r2, [r3]	@ zero_extendqisi2
1073:C:/Users/leopi/Documents/vs/S-Reo/MazeLibrary\Searching.c ****                     next_state->pos.y = now_state->pos.y + 1;
 3175              		.loc 1 1073 58 view .LVU1019
 3176 01c8 013A     		subs	r2, r2, #1
1073:C:/Users/leopi/Documents/vs/S-Reo/MazeLibrary\Searching.c ****                     next_state->pos.y = now_state->pos.y + 1;
 3177              		.loc 1 1073 39 view .LVU1020
 3178 01ca 0270     		strb	r2, [r0]
1074:C:/Users/leopi/Documents/vs/S-Reo/MazeLibrary\Searching.c ****                     now_state->dir = backleft;
 3179              		.loc 1 1074 21 is_stmt 1 view .LVU1021
1074:C:/Users/leopi/Documents/vs/S-Reo/MazeLibrary\Searching.c ****                     now_state->dir = backleft;
 3180              		.loc 1 1074 55 is_stmt 0 view .LVU1022
 3181 01cc 5A78     		ldrb	r2, [r3, #1]	@ zero_extendqisi2
ARM GAS  C:\Users\leopi\AppData\Local\Temp\ccMCNSog.s 			page 88


1074:C:/Users/leopi/Documents/vs/S-Reo/MazeLibrary\Searching.c ****                     now_state->dir = backleft;
 3182              		.loc 1 1074 58 view .LVU1023
 3183 01ce 0132     		adds	r2, r2, #1
1074:C:/Users/leopi/Documents/vs/S-Reo/MazeLibrary\Searching.c ****                     now_state->dir = backleft;
 3184              		.loc 1 1074 39 view .LVU1024
 3185 01d0 4270     		strb	r2, [r0, #1]
1075:C:/Users/leopi/Documents/vs/S-Reo/MazeLibrary\Searching.c ****                     return next_state;
 3186              		.loc 1 1075 21 is_stmt 1 view .LVU1025
1075:C:/Users/leopi/Documents/vs/S-Reo/MazeLibrary\Searching.c ****                     return next_state;
 3187              		.loc 1 1075 36 is_stmt 0 view .LVU1026
 3188 01d2 0522     		movs	r2, #5
 3189 01d4 DA70     		strb	r2, [r3, #3]
1076:C:/Users/leopi/Documents/vs/S-Reo/MazeLibrary\Searching.c ****                 }
 3190              		.loc 1 1076 21 is_stmt 1 view .LVU1027
1076:C:/Users/leopi/Documents/vs/S-Reo/MazeLibrary\Searching.c ****                 }
 3191              		.loc 1 1076 28 is_stmt 0 view .LVU1028
 3192 01d6 3DE7     		b	.L160
 3193              	.L198:
1016:C:/Users/leopi/Documents/vs/S-Reo/MazeLibrary\Searching.c ****                 {
 3194              		.loc 1 1016 21 discriminator 1 view .LVU1029
 3195 01d8 04F1FF3C 		add	ip, r4, #-1
 3196 01dc AC45     		cmp	ip, r5
 3197 01de DDD1     		bne	.L177
1018:C:/Users/leopi/Documents/vs/S-Reo/MazeLibrary\Searching.c ****                     next_state->pos.y = now_state->pos.y - 1; //次に壁を更新するタイミ
 3198              		.loc 1 1018 21 is_stmt 1 view .LVU1030
1018:C:/Users/leopi/Documents/vs/S-Reo/MazeLibrary\Searching.c ****                     next_state->pos.y = now_state->pos.y - 1; //次に壁を更新するタイミ
 3199              		.loc 1 1018 37 is_stmt 0 view .LVU1031
 3200 01e0 0422     		movs	r2, #4
 3201 01e2 8270     		strb	r2, [r0, #2]
1019:C:/Users/leopi/Documents/vs/S-Reo/MazeLibrary\Searching.c ****                     now_state->dir = front;
 3202              		.loc 1 1019 21 is_stmt 1 view .LVU1032
1019:C:/Users/leopi/Documents/vs/S-Reo/MazeLibrary\Searching.c ****                     now_state->dir = front;
 3203              		.loc 1 1019 55 is_stmt 0 view .LVU1033
 3204 01e4 5A78     		ldrb	r2, [r3, #1]	@ zero_extendqisi2
1019:C:/Users/leopi/Documents/vs/S-Reo/MazeLibrary\Searching.c ****                     now_state->dir = front;
 3205              		.loc 1 1019 58 view .LVU1034
 3206 01e6 013A     		subs	r2, r2, #1
1019:C:/Users/leopi/Documents/vs/S-Reo/MazeLibrary\Searching.c ****                     now_state->dir = front;
 3207              		.loc 1 1019 39 view .LVU1035
 3208 01e8 4270     		strb	r2, [r0, #1]
1020:C:/Users/leopi/Documents/vs/S-Reo/MazeLibrary\Searching.c ****                     return next_state;
 3209              		.loc 1 1020 21 is_stmt 1 view .LVU1036
1020:C:/Users/leopi/Documents/vs/S-Reo/MazeLibrary\Searching.c ****                     return next_state;
 3210              		.loc 1 1020 36 is_stmt 0 view .LVU1037
 3211 01ea 0022     		movs	r2, #0
 3212 01ec DA70     		strb	r2, [r3, #3]
1021:C:/Users/leopi/Documents/vs/S-Reo/MazeLibrary\Searching.c ****                 }
 3213              		.loc 1 1021 21 is_stmt 1 view .LVU1038
1021:C:/Users/leopi/Documents/vs/S-Reo/MazeLibrary\Searching.c ****                 }
 3214              		.loc 1 1021 28 is_stmt 0 view .LVU1039
 3215 01ee 31E7     		b	.L160
 3216              	.L199:
1024:C:/Users/leopi/Documents/vs/S-Reo/MazeLibrary\Searching.c ****                 {
 3217              		.loc 1 1024 21 discriminator 1 view .LVU1040
 3218 01f0 04F1010C 		add	ip, r4, #1
 3219 01f4 AC45     		cmp	ip, r5
 3220 01f6 D3D1     		bne	.L176
ARM GAS  C:\Users\leopi\AppData\Local\Temp\ccMCNSog.s 			page 89


1026:C:/Users/leopi/Documents/vs/S-Reo/MazeLibrary\Searching.c ****                     next_state->pos.y = now_state->pos.y + 2;
 3221              		.loc 1 1026 21 is_stmt 1 view .LVU1041
1026:C:/Users/leopi/Documents/vs/S-Reo/MazeLibrary\Searching.c ****                     next_state->pos.y = now_state->pos.y + 2;
 3222              		.loc 1 1026 37 is_stmt 0 view .LVU1042
 3223 01f8 0022     		movs	r2, #0
 3224 01fa 8270     		strb	r2, [r0, #2]
1027:C:/Users/leopi/Documents/vs/S-Reo/MazeLibrary\Searching.c ****                     now_state->dir = back;
 3225              		.loc 1 1027 21 is_stmt 1 view .LVU1043
1027:C:/Users/leopi/Documents/vs/S-Reo/MazeLibrary\Searching.c ****                     now_state->dir = back;
 3226              		.loc 1 1027 55 is_stmt 0 view .LVU1044
 3227 01fc 5A78     		ldrb	r2, [r3, #1]	@ zero_extendqisi2
1027:C:/Users/leopi/Documents/vs/S-Reo/MazeLibrary\Searching.c ****                     now_state->dir = back;
 3228              		.loc 1 1027 58 view .LVU1045
 3229 01fe 0232     		adds	r2, r2, #2
1027:C:/Users/leopi/Documents/vs/S-Reo/MazeLibrary\Searching.c ****                     now_state->dir = back;
 3230              		.loc 1 1027 39 view .LVU1046
 3231 0200 4270     		strb	r2, [r0, #1]
1028:C:/Users/leopi/Documents/vs/S-Reo/MazeLibrary\Searching.c ****                     return next_state;
 3232              		.loc 1 1028 21 is_stmt 1 view .LVU1047
1028:C:/Users/leopi/Documents/vs/S-Reo/MazeLibrary\Searching.c ****                     return next_state;
 3233              		.loc 1 1028 36 is_stmt 0 view .LVU1048
 3234 0202 0422     		movs	r2, #4
 3235 0204 DA70     		strb	r2, [r3, #3]
1029:C:/Users/leopi/Documents/vs/S-Reo/MazeLibrary\Searching.c ****                 }
 3236              		.loc 1 1029 21 is_stmt 1 view .LVU1049
1029:C:/Users/leopi/Documents/vs/S-Reo/MazeLibrary\Searching.c ****                 }
 3237              		.loc 1 1029 28 is_stmt 0 view .LVU1050
 3238 0206 25E7     		b	.L160
 3239              	.L200:
1039:C:/Users/leopi/Documents/vs/S-Reo/MazeLibrary\Searching.c ****                 {
 3240              		.loc 1 1039 21 discriminator 1 view .LVU1051
 3241 0208 621E     		subs	r2, r4, #1
 3242 020a AA42     		cmp	r2, r5
 3243 020c CDD1     		bne	.L178
1041:C:/Users/leopi/Documents/vs/S-Reo/MazeLibrary\Searching.c ****                     next_state->pos.x = now_state->pos.x - 1;
 3244              		.loc 1 1041 21 is_stmt 1 view .LVU1052
1041:C:/Users/leopi/Documents/vs/S-Reo/MazeLibrary\Searching.c ****                     next_state->pos.x = now_state->pos.x - 1;
 3245              		.loc 1 1041 37 is_stmt 0 view .LVU1053
 3246 020e 0622     		movs	r2, #6
 3247 0210 8270     		strb	r2, [r0, #2]
1042:C:/Users/leopi/Documents/vs/S-Reo/MazeLibrary\Searching.c ****                     now_state->dir = right;
 3248              		.loc 1 1042 21 is_stmt 1 view .LVU1054
1042:C:/Users/leopi/Documents/vs/S-Reo/MazeLibrary\Searching.c ****                     now_state->dir = right;
 3249              		.loc 1 1042 55 is_stmt 0 view .LVU1055
 3250 0212 1A78     		ldrb	r2, [r3]	@ zero_extendqisi2
1042:C:/Users/leopi/Documents/vs/S-Reo/MazeLibrary\Searching.c ****                     now_state->dir = right;
 3251              		.loc 1 1042 58 view .LVU1056
 3252 0214 013A     		subs	r2, r2, #1
1042:C:/Users/leopi/Documents/vs/S-Reo/MazeLibrary\Searching.c ****                     now_state->dir = right;
 3253              		.loc 1 1042 39 view .LVU1057
 3254 0216 0270     		strb	r2, [r0]
1043:C:/Users/leopi/Documents/vs/S-Reo/MazeLibrary\Searching.c **** //                    ChangeLED(4);
 3255              		.loc 1 1043 21 is_stmt 1 view .LVU1058
1043:C:/Users/leopi/Documents/vs/S-Reo/MazeLibrary\Searching.c **** //                    ChangeLED(4);
 3256              		.loc 1 1043 36 is_stmt 0 view .LVU1059
 3257 0218 0222     		movs	r2, #2
 3258 021a DA70     		strb	r2, [r3, #3]
ARM GAS  C:\Users\leopi\AppData\Local\Temp\ccMCNSog.s 			page 90


1046:C:/Users/leopi/Documents/vs/S-Reo/MazeLibrary\Searching.c ****                 }
 3259              		.loc 1 1046 21 is_stmt 1 view .LVU1060
1046:C:/Users/leopi/Documents/vs/S-Reo/MazeLibrary\Searching.c ****                 }
 3260              		.loc 1 1046 28 is_stmt 0 view .LVU1061
 3261 021c 1AE7     		b	.L160
 3262              	.L201:
1050:C:/Users/leopi/Documents/vs/S-Reo/MazeLibrary\Searching.c ****                 {
 3263              		.loc 1 1050 21 discriminator 1 view .LVU1062
 3264 021e 04F1FF3C 		add	ip, r4, #-1
 3265 0222 AC45     		cmp	ip, r5
 3266 0224 C5D1     		bne	.L179
1052:C:/Users/leopi/Documents/vs/S-Reo/MazeLibrary\Searching.c ****                     next_state->pos.x = now_state->pos.x + 1;
 3267              		.loc 1 1052 21 is_stmt 1 view .LVU1063
1052:C:/Users/leopi/Documents/vs/S-Reo/MazeLibrary\Searching.c ****                     next_state->pos.x = now_state->pos.x + 1;
 3268              		.loc 1 1052 37 is_stmt 0 view .LVU1064
 3269 0226 0222     		movs	r2, #2
 3270 0228 8270     		strb	r2, [r0, #2]
1053:C:/Users/leopi/Documents/vs/S-Reo/MazeLibrary\Searching.c ****                     now_state->dir = left;
 3271              		.loc 1 1053 21 is_stmt 1 view .LVU1065
1053:C:/Users/leopi/Documents/vs/S-Reo/MazeLibrary\Searching.c ****                     now_state->dir = left;
 3272              		.loc 1 1053 55 is_stmt 0 view .LVU1066
 3273 022a 1A78     		ldrb	r2, [r3]	@ zero_extendqisi2
1053:C:/Users/leopi/Documents/vs/S-Reo/MazeLibrary\Searching.c ****                     now_state->dir = left;
 3274              		.loc 1 1053 58 view .LVU1067
 3275 022c 0132     		adds	r2, r2, #1
1053:C:/Users/leopi/Documents/vs/S-Reo/MazeLibrary\Searching.c ****                     now_state->dir = left;
 3276              		.loc 1 1053 39 view .LVU1068
 3277 022e 0270     		strb	r2, [r0]
1054:C:/Users/leopi/Documents/vs/S-Reo/MazeLibrary\Searching.c ****                     return next_state;
 3278              		.loc 1 1054 21 is_stmt 1 view .LVU1069
1054:C:/Users/leopi/Documents/vs/S-Reo/MazeLibrary\Searching.c ****                     return next_state;
 3279              		.loc 1 1054 36 is_stmt 0 view .LVU1070
 3280 0230 0622     		movs	r2, #6
 3281 0232 DA70     		strb	r2, [r3, #3]
1055:C:/Users/leopi/Documents/vs/S-Reo/MazeLibrary\Searching.c ****                 }
 3282              		.loc 1 1055 21 is_stmt 1 view .LVU1071
1055:C:/Users/leopi/Documents/vs/S-Reo/MazeLibrary\Searching.c ****                 }
 3283              		.loc 1 1055 28 is_stmt 0 view .LVU1072
 3284 0234 0EE7     		b	.L160
 3285              	.L202:
1060:C:/Users/leopi/Documents/vs/S-Reo/MazeLibrary\Searching.c ****                 {
 3286              		.loc 1 1060 21 discriminator 1 view .LVU1073
 3287 0236 AC42     		cmp	r4, r5
 3288 0238 BDD1     		bne	.L180
1062:C:/Users/leopi/Documents/vs/S-Reo/MazeLibrary\Searching.c ****                     next_state->pos.x = now_state->pos.x + 1;
 3289              		.loc 1 1062 21 is_stmt 1 view .LVU1074
1062:C:/Users/leopi/Documents/vs/S-Reo/MazeLibrary\Searching.c ****                     next_state->pos.x = now_state->pos.x + 1;
 3290              		.loc 1 1062 37 is_stmt 0 view .LVU1075
 3291 023a 0222     		movs	r2, #2
 3292 023c 8270     		strb	r2, [r0, #2]
1063:C:/Users/leopi/Documents/vs/S-Reo/MazeLibrary\Searching.c ****                     next_state->pos.y = now_state->pos.y + 1;
 3293              		.loc 1 1063 21 is_stmt 1 view .LVU1076
1063:C:/Users/leopi/Documents/vs/S-Reo/MazeLibrary\Searching.c ****                     next_state->pos.y = now_state->pos.y + 1;
 3294              		.loc 1 1063 55 is_stmt 0 view .LVU1077
 3295 023e 1A78     		ldrb	r2, [r3]	@ zero_extendqisi2
1063:C:/Users/leopi/Documents/vs/S-Reo/MazeLibrary\Searching.c ****                     next_state->pos.y = now_state->pos.y + 1;
 3296              		.loc 1 1063 58 view .LVU1078
ARM GAS  C:\Users\leopi\AppData\Local\Temp\ccMCNSog.s 			page 91


 3297 0240 0132     		adds	r2, r2, #1
1063:C:/Users/leopi/Documents/vs/S-Reo/MazeLibrary\Searching.c ****                     next_state->pos.y = now_state->pos.y + 1;
 3298              		.loc 1 1063 39 view .LVU1079
 3299 0242 0270     		strb	r2, [r0]
1064:C:/Users/leopi/Documents/vs/S-Reo/MazeLibrary\Searching.c ****                     now_state->dir = backright;
 3300              		.loc 1 1064 21 is_stmt 1 view .LVU1080
1064:C:/Users/leopi/Documents/vs/S-Reo/MazeLibrary\Searching.c ****                     now_state->dir = backright;
 3301              		.loc 1 1064 55 is_stmt 0 view .LVU1081
 3302 0244 5A78     		ldrb	r2, [r3, #1]	@ zero_extendqisi2
1064:C:/Users/leopi/Documents/vs/S-Reo/MazeLibrary\Searching.c ****                     now_state->dir = backright;
 3303              		.loc 1 1064 58 view .LVU1082
 3304 0246 0132     		adds	r2, r2, #1
1064:C:/Users/leopi/Documents/vs/S-Reo/MazeLibrary\Searching.c ****                     now_state->dir = backright;
 3305              		.loc 1 1064 39 view .LVU1083
 3306 0248 4270     		strb	r2, [r0, #1]
1065:C:/Users/leopi/Documents/vs/S-Reo/MazeLibrary\Searching.c ****                     return next_state;
 3307              		.loc 1 1065 21 is_stmt 1 view .LVU1084
1065:C:/Users/leopi/Documents/vs/S-Reo/MazeLibrary\Searching.c ****                     return next_state;
 3308              		.loc 1 1065 36 is_stmt 0 view .LVU1085
 3309 024a 0322     		movs	r2, #3
 3310 024c DA70     		strb	r2, [r3, #3]
1066:C:/Users/leopi/Documents/vs/S-Reo/MazeLibrary\Searching.c ****                 }
 3311              		.loc 1 1066 21 is_stmt 1 view .LVU1086
1066:C:/Users/leopi/Documents/vs/S-Reo/MazeLibrary\Searching.c ****                 }
 3312              		.loc 1 1066 28 is_stmt 0 view .LVU1087
 3313 024e 01E7     		b	.L160
 3314              	.LVL253:
 3315              	.L161:
1081:C:/Users/leopi/Documents/vs/S-Reo/MazeLibrary\Searching.c ****             {
 3316              		.loc 1 1081 13 is_stmt 1 view .LVU1088
1081:C:/Users/leopi/Documents/vs/S-Reo/MazeLibrary\Searching.c ****             {
 3317              		.loc 1 1081 25 is_stmt 0 view .LVU1089
 3318 0250 5279     		ldrb	r2, [r2, #5]	@ zero_extendqisi2
 3319              	.LVL254:
1081:C:/Users/leopi/Documents/vs/S-Reo/MazeLibrary\Searching.c ****             {
 3320              		.loc 1 1081 15 view .LVU1090
 3321 0252 3AB1     		cbz	r2, .L181
1088:C:/Users/leopi/Documents/vs/S-Reo/MazeLibrary\Searching.c ****                 {
 3322              		.loc 1 1088 17 is_stmt 1 view .LVU1091
1088:C:/Users/leopi/Documents/vs/S-Reo/MazeLibrary\Searching.c ****                 {
 3323              		.loc 1 1088 21 is_stmt 0 view .LVU1092
 3324 0254 0EF1FF3C 		add	ip, lr, #-1
1088:C:/Users/leopi/Documents/vs/S-Reo/MazeLibrary\Searching.c ****                 {
 3325              		.loc 1 1088 19 view .LVU1093
 3326 0258 8C45     		cmp	ip, r1
 3327 025a 20D0     		beq	.L203
 3328              	.L182:
1097:C:/Users/leopi/Documents/vs/S-Reo/MazeLibrary\Searching.c ****                 {
 3329              		.loc 1 1097 17 is_stmt 1 view .LVU1094
1097:C:/Users/leopi/Documents/vs/S-Reo/MazeLibrary\Searching.c ****                 {
 3330              		.loc 1 1097 21 is_stmt 0 view .LVU1095
 3331 025c 0EF1010C 		add	ip, lr, #1
1097:C:/Users/leopi/Documents/vs/S-Reo/MazeLibrary\Searching.c ****                 {
 3332              		.loc 1 1097 19 view .LVU1096
 3333 0260 6145     		cmp	r1, ip
 3334 0262 26D0     		beq	.L204
 3335              	.L181:
ARM GAS  C:\Users\leopi\AppData\Local\Temp\ccMCNSog.s 			page 92


1108:C:/Users/leopi/Documents/vs/S-Reo/MazeLibrary\Searching.c ****             {
 3336              		.loc 1 1108 13 is_stmt 1 view .LVU1097
1108:C:/Users/leopi/Documents/vs/S-Reo/MazeLibrary\Searching.c ****             {
 3337              		.loc 1 1108 15 is_stmt 0 view .LVU1098
 3338 0264 002A     		cmp	r2, #0
 3339 0266 7FF4F5AE 		bne	.L160
1113:C:/Users/leopi/Documents/vs/S-Reo/MazeLibrary\Searching.c ****                 {
 3340              		.loc 1 1113 17 is_stmt 1 view .LVU1099
1113:C:/Users/leopi/Documents/vs/S-Reo/MazeLibrary\Searching.c ****                 {
 3341              		.loc 1 1113 21 is_stmt 0 view .LVU1100
 3342 026a 0EF1FF32 		add	r2, lr, #-1
1113:C:/Users/leopi/Documents/vs/S-Reo/MazeLibrary\Searching.c ****                 {
 3343              		.loc 1 1113 19 view .LVU1101
 3344 026e 8A42     		cmp	r2, r1
 3345 0270 29D0     		beq	.L205
 3346              	.L183:
1124:C:/Users/leopi/Documents/vs/S-Reo/MazeLibrary\Searching.c ****                 {
 3347              		.loc 1 1124 17 is_stmt 1 view .LVU1102
1124:C:/Users/leopi/Documents/vs/S-Reo/MazeLibrary\Searching.c ****                 {
 3348              		.loc 1 1124 19 is_stmt 0 view .LVU1103
 3349 0272 8A42     		cmp	r2, r1
 3350 0274 33D0     		beq	.L206
 3351              	.L184:
1134:C:/Users/leopi/Documents/vs/S-Reo/MazeLibrary\Searching.c ****                 {
 3352              		.loc 1 1134 17 is_stmt 1 view .LVU1104
1134:C:/Users/leopi/Documents/vs/S-Reo/MazeLibrary\Searching.c ****                 {
 3353              		.loc 1 1134 19 is_stmt 0 view .LVU1105
 3354 0276 8E45     		cmp	lr, r1
 3355 0278 3BD0     		beq	.L207
 3356              	.L185:
1144:C:/Users/leopi/Documents/vs/S-Reo/MazeLibrary\Searching.c ****                 {
 3357              		.loc 1 1144 17 is_stmt 1 view .LVU1106
1144:C:/Users/leopi/Documents/vs/S-Reo/MazeLibrary\Searching.c ****                 {
 3358              		.loc 1 1144 19 is_stmt 0 view .LVU1107
 3359 027a 8E45     		cmp	lr, r1
 3360 027c 7FF4EAAE 		bne	.L160
1144:C:/Users/leopi/Documents/vs/S-Reo/MazeLibrary\Searching.c ****                 {
 3361              		.loc 1 1144 21 discriminator 1 view .LVU1108
 3362 0280 0134     		adds	r4, r4, #1
 3363              	.LVL255:
1144:C:/Users/leopi/Documents/vs/S-Reo/MazeLibrary\Searching.c ****                 {
 3364              		.loc 1 1144 21 discriminator 1 view .LVU1109
 3365 0282 AC42     		cmp	r4, r5
 3366 0284 7FF4E6AE 		bne	.L160
1146:C:/Users/leopi/Documents/vs/S-Reo/MazeLibrary\Searching.c ****                     next_state->pos.x = now_state->pos.x + 1;
 3367              		.loc 1 1146 21 is_stmt 1 view .LVU1110
1146:C:/Users/leopi/Documents/vs/S-Reo/MazeLibrary\Searching.c ****                     next_state->pos.x = now_state->pos.x + 1;
 3368              		.loc 1 1146 37 is_stmt 0 view .LVU1111
 3369 0288 0022     		movs	r2, #0
 3370 028a 8270     		strb	r2, [r0, #2]
1147:C:/Users/leopi/Documents/vs/S-Reo/MazeLibrary\Searching.c ****                     next_state->pos.y = now_state->pos.y + 1;
 3371              		.loc 1 1147 21 is_stmt 1 view .LVU1112
1147:C:/Users/leopi/Documents/vs/S-Reo/MazeLibrary\Searching.c ****                     next_state->pos.y = now_state->pos.y + 1;
 3372              		.loc 1 1147 55 is_stmt 0 view .LVU1113
 3373 028c 1A78     		ldrb	r2, [r3]	@ zero_extendqisi2
1147:C:/Users/leopi/Documents/vs/S-Reo/MazeLibrary\Searching.c ****                     next_state->pos.y = now_state->pos.y + 1;
 3374              		.loc 1 1147 58 view .LVU1114
ARM GAS  C:\Users\leopi\AppData\Local\Temp\ccMCNSog.s 			page 93


 3375 028e 0132     		adds	r2, r2, #1
1147:C:/Users/leopi/Documents/vs/S-Reo/MazeLibrary\Searching.c ****                     next_state->pos.y = now_state->pos.y + 1;
 3376              		.loc 1 1147 39 view .LVU1115
 3377 0290 0270     		strb	r2, [r0]
1148:C:/Users/leopi/Documents/vs/S-Reo/MazeLibrary\Searching.c ****                     now_state->dir = backleft;
 3378              		.loc 1 1148 21 is_stmt 1 view .LVU1116
1148:C:/Users/leopi/Documents/vs/S-Reo/MazeLibrary\Searching.c ****                     now_state->dir = backleft;
 3379              		.loc 1 1148 55 is_stmt 0 view .LVU1117
 3380 0292 5A78     		ldrb	r2, [r3, #1]	@ zero_extendqisi2
1148:C:/Users/leopi/Documents/vs/S-Reo/MazeLibrary\Searching.c ****                     now_state->dir = backleft;
 3381              		.loc 1 1148 58 view .LVU1118
 3382 0294 0132     		adds	r2, r2, #1
1148:C:/Users/leopi/Documents/vs/S-Reo/MazeLibrary\Searching.c ****                     now_state->dir = backleft;
 3383              		.loc 1 1148 39 view .LVU1119
 3384 0296 4270     		strb	r2, [r0, #1]
1149:C:/Users/leopi/Documents/vs/S-Reo/MazeLibrary\Searching.c ****                     return next_state;
 3385              		.loc 1 1149 21 is_stmt 1 view .LVU1120
1149:C:/Users/leopi/Documents/vs/S-Reo/MazeLibrary\Searching.c ****                     return next_state;
 3386              		.loc 1 1149 36 is_stmt 0 view .LVU1121
 3387 0298 0522     		movs	r2, #5
 3388 029a DA70     		strb	r2, [r3, #3]
1150:C:/Users/leopi/Documents/vs/S-Reo/MazeLibrary\Searching.c ****                 }
 3389              		.loc 1 1150 21 is_stmt 1 view .LVU1122
1150:C:/Users/leopi/Documents/vs/S-Reo/MazeLibrary\Searching.c ****                 }
 3390              		.loc 1 1150 28 is_stmt 0 view .LVU1123
 3391 029c DAE6     		b	.L160
 3392              	.LVL256:
 3393              	.L203:
1088:C:/Users/leopi/Documents/vs/S-Reo/MazeLibrary\Searching.c ****                 {
 3394              		.loc 1 1088 21 discriminator 1 view .LVU1124
 3395 029e AC42     		cmp	r4, r5
 3396 02a0 DCD1     		bne	.L182
1090:C:/Users/leopi/Documents/vs/S-Reo/MazeLibrary\Searching.c ****                     next_state->pos.x = now_state->pos.x - 1; //次に壁を更新するタイミ
 3397              		.loc 1 1090 21 is_stmt 1 view .LVU1125
1090:C:/Users/leopi/Documents/vs/S-Reo/MazeLibrary\Searching.c ****                     next_state->pos.x = now_state->pos.x - 1; //次に壁を更新するタイミ
 3398              		.loc 1 1090 37 is_stmt 0 view .LVU1126
 3399 02a2 0622     		movs	r2, #6
 3400 02a4 8270     		strb	r2, [r0, #2]
1091:C:/Users/leopi/Documents/vs/S-Reo/MazeLibrary\Searching.c ****                     now_state->dir = front;
 3401              		.loc 1 1091 21 is_stmt 1 view .LVU1127
1091:C:/Users/leopi/Documents/vs/S-Reo/MazeLibrary\Searching.c ****                     now_state->dir = front;
 3402              		.loc 1 1091 55 is_stmt 0 view .LVU1128
 3403 02a6 1A78     		ldrb	r2, [r3]	@ zero_extendqisi2
1091:C:/Users/leopi/Documents/vs/S-Reo/MazeLibrary\Searching.c ****                     now_state->dir = front;
 3404              		.loc 1 1091 58 view .LVU1129
 3405 02a8 013A     		subs	r2, r2, #1
1091:C:/Users/leopi/Documents/vs/S-Reo/MazeLibrary\Searching.c ****                     now_state->dir = front;
 3406              		.loc 1 1091 39 view .LVU1130
 3407 02aa 0270     		strb	r2, [r0]
1092:C:/Users/leopi/Documents/vs/S-Reo/MazeLibrary\Searching.c ****                     return next_state;
 3408              		.loc 1 1092 21 is_stmt 1 view .LVU1131
1092:C:/Users/leopi/Documents/vs/S-Reo/MazeLibrary\Searching.c ****                     return next_state;
 3409              		.loc 1 1092 36 is_stmt 0 view .LVU1132
 3410 02ac 0022     		movs	r2, #0
 3411 02ae DA70     		strb	r2, [r3, #3]
1093:C:/Users/leopi/Documents/vs/S-Reo/MazeLibrary\Searching.c ****                 }
 3412              		.loc 1 1093 21 is_stmt 1 view .LVU1133
ARM GAS  C:\Users\leopi\AppData\Local\Temp\ccMCNSog.s 			page 94


1093:C:/Users/leopi/Documents/vs/S-Reo/MazeLibrary\Searching.c ****                 }
 3413              		.loc 1 1093 28 is_stmt 0 view .LVU1134
 3414 02b0 D0E6     		b	.L160
 3415              	.L204:
1097:C:/Users/leopi/Documents/vs/S-Reo/MazeLibrary\Searching.c ****                 {
 3416              		.loc 1 1097 21 discriminator 1 view .LVU1135
 3417 02b2 AC42     		cmp	r4, r5
 3418 02b4 D6D1     		bne	.L181
1099:C:/Users/leopi/Documents/vs/S-Reo/MazeLibrary\Searching.c ****                     next_state->pos.x = now_state->pos.x + 2;
 3419              		.loc 1 1099 21 is_stmt 1 view .LVU1136
1099:C:/Users/leopi/Documents/vs/S-Reo/MazeLibrary\Searching.c ****                     next_state->pos.x = now_state->pos.x + 2;
 3420              		.loc 1 1099 37 is_stmt 0 view .LVU1137
 3421 02b6 0222     		movs	r2, #2
 3422 02b8 8270     		strb	r2, [r0, #2]
1100:C:/Users/leopi/Documents/vs/S-Reo/MazeLibrary\Searching.c ****                     now_state->dir = back;
 3423              		.loc 1 1100 21 is_stmt 1 view .LVU1138
1100:C:/Users/leopi/Documents/vs/S-Reo/MazeLibrary\Searching.c ****                     now_state->dir = back;
 3424              		.loc 1 1100 55 is_stmt 0 view .LVU1139
 3425 02ba 1A78     		ldrb	r2, [r3]	@ zero_extendqisi2
1100:C:/Users/leopi/Documents/vs/S-Reo/MazeLibrary\Searching.c ****                     now_state->dir = back;
 3426              		.loc 1 1100 58 view .LVU1140
 3427 02bc 0232     		adds	r2, r2, #2
1100:C:/Users/leopi/Documents/vs/S-Reo/MazeLibrary\Searching.c ****                     now_state->dir = back;
 3428              		.loc 1 1100 39 view .LVU1141
 3429 02be 0270     		strb	r2, [r0]
1101:C:/Users/leopi/Documents/vs/S-Reo/MazeLibrary\Searching.c ****                     return next_state;
 3430              		.loc 1 1101 21 is_stmt 1 view .LVU1142
1101:C:/Users/leopi/Documents/vs/S-Reo/MazeLibrary\Searching.c ****                     return next_state;
 3431              		.loc 1 1101 36 is_stmt 0 view .LVU1143
 3432 02c0 0422     		movs	r2, #4
 3433 02c2 DA70     		strb	r2, [r3, #3]
1102:C:/Users/leopi/Documents/vs/S-Reo/MazeLibrary\Searching.c ****                 }
 3434              		.loc 1 1102 21 is_stmt 1 view .LVU1144
1102:C:/Users/leopi/Documents/vs/S-Reo/MazeLibrary\Searching.c ****                 }
 3435              		.loc 1 1102 28 is_stmt 0 view .LVU1145
 3436 02c4 C6E6     		b	.L160
 3437              	.L205:
1113:C:/Users/leopi/Documents/vs/S-Reo/MazeLibrary\Searching.c ****                 {
 3438              		.loc 1 1113 21 discriminator 1 view .LVU1146
 3439 02c6 04F1010C 		add	ip, r4, #1
 3440 02ca AC45     		cmp	ip, r5
 3441 02cc D1D1     		bne	.L183
1115:C:/Users/leopi/Documents/vs/S-Reo/MazeLibrary\Searching.c ****                     next_state->pos.y = now_state->pos.y + 1;
 3442              		.loc 1 1115 21 is_stmt 1 view .LVU1147
1115:C:/Users/leopi/Documents/vs/S-Reo/MazeLibrary\Searching.c ****                     next_state->pos.y = now_state->pos.y + 1;
 3443              		.loc 1 1115 37 is_stmt 0 view .LVU1148
 3444 02ce 0022     		movs	r2, #0
 3445 02d0 8270     		strb	r2, [r0, #2]
1116:C:/Users/leopi/Documents/vs/S-Reo/MazeLibrary\Searching.c ****                     now_state->dir = right;
 3446              		.loc 1 1116 21 is_stmt 1 view .LVU1149
1116:C:/Users/leopi/Documents/vs/S-Reo/MazeLibrary\Searching.c ****                     now_state->dir = right;
 3447              		.loc 1 1116 55 is_stmt 0 view .LVU1150
 3448 02d2 5A78     		ldrb	r2, [r3, #1]	@ zero_extendqisi2
1116:C:/Users/leopi/Documents/vs/S-Reo/MazeLibrary\Searching.c ****                     now_state->dir = right;
 3449              		.loc 1 1116 58 view .LVU1151
 3450 02d4 0132     		adds	r2, r2, #1
1116:C:/Users/leopi/Documents/vs/S-Reo/MazeLibrary\Searching.c ****                     now_state->dir = right;
ARM GAS  C:\Users\leopi\AppData\Local\Temp\ccMCNSog.s 			page 95


 3451              		.loc 1 1116 39 view .LVU1152
 3452 02d6 4270     		strb	r2, [r0, #1]
1117:C:/Users/leopi/Documents/vs/S-Reo/MazeLibrary\Searching.c **** //                    ChangeLED(3);
 3453              		.loc 1 1117 21 is_stmt 1 view .LVU1153
1117:C:/Users/leopi/Documents/vs/S-Reo/MazeLibrary\Searching.c **** //                    ChangeLED(3);
 3454              		.loc 1 1117 36 is_stmt 0 view .LVU1154
 3455 02d8 0222     		movs	r2, #2
 3456 02da DA70     		strb	r2, [r3, #3]
1119:C:/Users/leopi/Documents/vs/S-Reo/MazeLibrary\Searching.c ****                 }
 3457              		.loc 1 1119 21 is_stmt 1 view .LVU1155
1119:C:/Users/leopi/Documents/vs/S-Reo/MazeLibrary\Searching.c ****                 }
 3458              		.loc 1 1119 28 is_stmt 0 view .LVU1156
 3459 02dc BAE6     		b	.L160
 3460              	.L206:
1124:C:/Users/leopi/Documents/vs/S-Reo/MazeLibrary\Searching.c ****                 {
 3461              		.loc 1 1124 21 discriminator 1 view .LVU1157
 3462 02de AC42     		cmp	r4, r5
 3463 02e0 C9D1     		bne	.L184
1126:C:/Users/leopi/Documents/vs/S-Reo/MazeLibrary\Searching.c ****                     next_state->pos.y = now_state->pos.y - 1;
 3464              		.loc 1 1126 21 is_stmt 1 view .LVU1158
1126:C:/Users/leopi/Documents/vs/S-Reo/MazeLibrary\Searching.c ****                     next_state->pos.y = now_state->pos.y - 1;
 3465              		.loc 1 1126 37 is_stmt 0 view .LVU1159
 3466 02e2 0422     		movs	r2, #4
 3467 02e4 8270     		strb	r2, [r0, #2]
1127:C:/Users/leopi/Documents/vs/S-Reo/MazeLibrary\Searching.c ****                     now_state->dir = left;
 3468              		.loc 1 1127 21 is_stmt 1 view .LVU1160
1127:C:/Users/leopi/Documents/vs/S-Reo/MazeLibrary\Searching.c ****                     now_state->dir = left;
 3469              		.loc 1 1127 55 is_stmt 0 view .LVU1161
 3470 02e6 5A78     		ldrb	r2, [r3, #1]	@ zero_extendqisi2
1127:C:/Users/leopi/Documents/vs/S-Reo/MazeLibrary\Searching.c ****                     now_state->dir = left;
 3471              		.loc 1 1127 58 view .LVU1162
 3472 02e8 013A     		subs	r2, r2, #1
1127:C:/Users/leopi/Documents/vs/S-Reo/MazeLibrary\Searching.c ****                     now_state->dir = left;
 3473              		.loc 1 1127 39 view .LVU1163
 3474 02ea 4270     		strb	r2, [r0, #1]
1128:C:/Users/leopi/Documents/vs/S-Reo/MazeLibrary\Searching.c ****                     return next_state;
 3475              		.loc 1 1128 21 is_stmt 1 view .LVU1164
1128:C:/Users/leopi/Documents/vs/S-Reo/MazeLibrary\Searching.c ****                     return next_state;
 3476              		.loc 1 1128 36 is_stmt 0 view .LVU1165
 3477 02ec 0622     		movs	r2, #6
 3478 02ee DA70     		strb	r2, [r3, #3]
1129:C:/Users/leopi/Documents/vs/S-Reo/MazeLibrary\Searching.c ****                 }
 3479              		.loc 1 1129 21 is_stmt 1 view .LVU1166
1129:C:/Users/leopi/Documents/vs/S-Reo/MazeLibrary\Searching.c ****                 }
 3480              		.loc 1 1129 28 is_stmt 0 view .LVU1167
 3481 02f0 B0E6     		b	.L160
 3482              	.L207:
1134:C:/Users/leopi/Documents/vs/S-Reo/MazeLibrary\Searching.c ****                 {
 3483              		.loc 1 1134 21 discriminator 1 view .LVU1168
 3484 02f2 AC42     		cmp	r4, r5
 3485 02f4 C1D1     		bne	.L185
1136:C:/Users/leopi/Documents/vs/S-Reo/MazeLibrary\Searching.c ****                     next_state->pos.x = now_state->pos.x + 1;
 3486              		.loc 1 1136 21 is_stmt 1 view .LVU1169
1136:C:/Users/leopi/Documents/vs/S-Reo/MazeLibrary\Searching.c ****                     next_state->pos.x = now_state->pos.x + 1;
 3487              		.loc 1 1136 37 is_stmt 0 view .LVU1170
 3488 02f6 0422     		movs	r2, #4
 3489 02f8 8270     		strb	r2, [r0, #2]
ARM GAS  C:\Users\leopi\AppData\Local\Temp\ccMCNSog.s 			page 96


1137:C:/Users/leopi/Documents/vs/S-Reo/MazeLibrary\Searching.c ****                     next_state->pos.y = now_state->pos.y - 1;
 3490              		.loc 1 1137 21 is_stmt 1 view .LVU1171
1137:C:/Users/leopi/Documents/vs/S-Reo/MazeLibrary\Searching.c ****                     next_state->pos.y = now_state->pos.y - 1;
 3491              		.loc 1 1137 55 is_stmt 0 view .LVU1172
 3492 02fa 1A78     		ldrb	r2, [r3]	@ zero_extendqisi2
1137:C:/Users/leopi/Documents/vs/S-Reo/MazeLibrary\Searching.c ****                     next_state->pos.y = now_state->pos.y - 1;
 3493              		.loc 1 1137 58 view .LVU1173
 3494 02fc 0132     		adds	r2, r2, #1
1137:C:/Users/leopi/Documents/vs/S-Reo/MazeLibrary\Searching.c ****                     next_state->pos.y = now_state->pos.y - 1;
 3495              		.loc 1 1137 39 view .LVU1174
 3496 02fe 0270     		strb	r2, [r0]
1138:C:/Users/leopi/Documents/vs/S-Reo/MazeLibrary\Searching.c ****                     now_state->dir = backright;
 3497              		.loc 1 1138 21 is_stmt 1 view .LVU1175
1138:C:/Users/leopi/Documents/vs/S-Reo/MazeLibrary\Searching.c ****                     now_state->dir = backright;
 3498              		.loc 1 1138 55 is_stmt 0 view .LVU1176
 3499 0300 5A78     		ldrb	r2, [r3, #1]	@ zero_extendqisi2
1138:C:/Users/leopi/Documents/vs/S-Reo/MazeLibrary\Searching.c ****                     now_state->dir = backright;
 3500              		.loc 1 1138 58 view .LVU1177
 3501 0302 013A     		subs	r2, r2, #1
1138:C:/Users/leopi/Documents/vs/S-Reo/MazeLibrary\Searching.c ****                     now_state->dir = backright;
 3502              		.loc 1 1138 39 view .LVU1178
 3503 0304 4270     		strb	r2, [r0, #1]
1139:C:/Users/leopi/Documents/vs/S-Reo/MazeLibrary\Searching.c ****                     return next_state;
 3504              		.loc 1 1139 21 is_stmt 1 view .LVU1179
1139:C:/Users/leopi/Documents/vs/S-Reo/MazeLibrary\Searching.c ****                     return next_state;
 3505              		.loc 1 1139 36 is_stmt 0 view .LVU1180
 3506 0306 0322     		movs	r2, #3
 3507 0308 DA70     		strb	r2, [r3, #3]
1140:C:/Users/leopi/Documents/vs/S-Reo/MazeLibrary\Searching.c ****                 }
 3508              		.loc 1 1140 21 is_stmt 1 view .LVU1181
1140:C:/Users/leopi/Documents/vs/S-Reo/MazeLibrary\Searching.c ****                 }
 3509              		.loc 1 1140 28 is_stmt 0 view .LVU1182
 3510 030a A3E6     		b	.L160
 3511              		.cfi_endproc
 3512              	.LFE26:
 3514              		.section	.text.getNextDirection,"ax",%progbits
 3515              		.align	1
 3516              		.global	getNextDirection
 3517              		.syntax unified
 3518              		.thumb
 3519              		.thumb_func
 3521              	getNextDirection:
 3522              	.LVL257:
 3523              	.LFB22:
 248:C:/Users/leopi/Documents/vs/S-Reo/MazeLibrary\Searching.c **** 	Mouse->next.node = getNextNode(maze, Mouse->now.car, Mouse->now.node, mask); // 次のノードを
 3524              		.loc 1 248 1 is_stmt 1 view -0
 3525              		.cfi_startproc
 3526              		@ args = 0, pretend = 0, frame = 0
 3527              		@ frame_needed = 0, uses_anonymous_args = 0
 248:C:/Users/leopi/Documents/vs/S-Reo/MazeLibrary\Searching.c **** 	Mouse->next.node = getNextNode(maze, Mouse->now.car, Mouse->now.node, mask); // 次のノードを
 3528              		.loc 1 248 1 is_stmt 0 view .LVU1184
 3529 0000 10B5     		push	{r4, lr}
 3530              	.LCFI23:
 3531              		.cfi_def_cfa_offset 8
 3532              		.cfi_offset 4, -8
 3533              		.cfi_offset 14, -4
 3534 0002 0C46     		mov	r4, r1
ARM GAS  C:\Users\leopi\AppData\Local\Temp\ccMCNSog.s 			page 97


 249:C:/Users/leopi/Documents/vs/S-Reo/MazeLibrary\Searching.c **** 	
 3535              		.loc 1 249 2 is_stmt 1 view .LVU1185
 249:C:/Users/leopi/Documents/vs/S-Reo/MazeLibrary\Searching.c **** 	
 3536              		.loc 1 249 21 is_stmt 0 view .LVU1186
 3537 0004 CA68     		ldr	r2, [r1, #12]
 3538              	.LVL258:
 249:C:/Users/leopi/Documents/vs/S-Reo/MazeLibrary\Searching.c **** 	
 3539              		.loc 1 249 21 view .LVU1187
 3540 0006 8979     		ldrb	r1, [r1, #6]	@ zero_extendqisi2
 3541              	.LVL259:
 249:C:/Users/leopi/Documents/vs/S-Reo/MazeLibrary\Searching.c **** 	
 3542              		.loc 1 249 21 view .LVU1188
 3543 0008 FFF7FEFF 		bl	getNextNode
 3544              	.LVL260:
 249:C:/Users/leopi/Documents/vs/S-Reo/MazeLibrary\Searching.c **** 	
 3545              		.loc 1 249 21 view .LVU1189
 3546 000c 0246     		mov	r2, r0
 249:C:/Users/leopi/Documents/vs/S-Reo/MazeLibrary\Searching.c **** 	
 3547              		.loc 1 249 19 view .LVU1190
 3548 000e A061     		str	r0, [r4, #24]
 251:C:/Users/leopi/Documents/vs/S-Reo/MazeLibrary\Searching.c **** }
 3549              		.loc 1 251 2 is_stmt 1 view .LVU1191
 3550 0010 04F11001 		add	r1, r4, #16
 3551 0014 201D     		adds	r0, r4, #4
 3552 0016 FFF7FEFF 		bl	getNextState
 3553              	.LVL261:
 252:C:/Users/leopi/Documents/vs/S-Reo/MazeLibrary\Searching.c **** 
 3554              		.loc 1 252 1 is_stmt 0 view .LVU1192
 3555 001a 10BD     		pop	{r4, pc}
 252:C:/Users/leopi/Documents/vs/S-Reo/MazeLibrary\Searching.c **** 
 3556              		.loc 1 252 1 view .LVU1193
 3557              		.cfi_endproc
 3558              	.LFE22:
 3560              		.section	.text.getWallFRLfromMaze,"ax",%progbits
 3561              		.align	1
 3562              		.global	getWallFRLfromMaze
 3563              		.syntax unified
 3564              		.thumb
 3565              		.thumb_func
 3567              	getWallFRLfromMaze:
 3568              	.LVL262:
 3569              	.LFB27:
1163:C:/Users/leopi/Documents/vs/S-Reo/MazeLibrary\Searching.c **** 
1164:C:/Users/leopi/Documents/vs/S-Reo/MazeLibrary\Searching.c **** _Bool getWallFRLfromMaze(maze_node *mz, state *st, wall_state *wall_st) //simulation *simu, 
1165:C:/Users/leopi/Documents/vs/S-Reo/MazeLibrary\Searching.c **** {
 3570              		.loc 1 1165 1 is_stmt 1 view -0
 3571              		.cfi_startproc
 3572              		@ args = 0, pretend = 0, frame = 0
 3573              		@ frame_needed = 0, uses_anonymous_args = 0
 3574              		@ link register save eliminated.
1166:C:/Users/leopi/Documents/vs/S-Reo/MazeLibrary\Searching.c ****     //4方角の壁があるか無いかを返す
1167:C:/Users/leopi/Documents/vs/S-Reo/MazeLibrary\Searching.c ****     switch (st->car%8)
 3575              		.loc 1 1167 5 view .LVU1195
 3576              		.loc 1 1167 15 is_stmt 0 view .LVU1196
 3577 0000 8B78     		ldrb	r3, [r1, #2]	@ zero_extendqisi2
 3578              		.loc 1 1167 5 view .LVU1197
 3579 0002 03F00703 		and	r3, r3, #7
ARM GAS  C:\Users\leopi\AppData\Local\Temp\ccMCNSog.s 			page 98


 3580 0006 062B     		cmp	r3, #6
 3581 0008 00F29080 		bhi	.L217
 3582 000c DFE803F0 		tbb	[pc, r3]
 3583              	.L213:
 3584 0010 04       		.byte	(.L216-.L213)/2
 3585 0011 8E       		.byte	(.L217-.L213)/2
 3586 0012 28       		.byte	(.L215-.L213)/2
 3587 0013 8E       		.byte	(.L217-.L213)/2
 3588 0014 4A       		.byte	(.L214-.L213)/2
 3589 0015 8E       		.byte	(.L217-.L213)/2
 3590 0016 6C       		.byte	(.L212-.L213)/2
 3591 0017 00       		.p2align 1
 3592              	.L216:
1168:C:/Users/leopi/Documents/vs/S-Reo/MazeLibrary\Searching.c ****     {
1169:C:/Users/leopi/Documents/vs/S-Reo/MazeLibrary\Searching.c ****     case north:
1170:C:/Users/leopi/Documents/vs/S-Reo/MazeLibrary\Searching.c ****         wall_st[0] = mz->RawNode[st->pos.x][(st->pos.y)+1].existence;    //北
 3593              		.loc 1 1170 9 is_stmt 1 view .LVU1198
 3594              		.loc 1 1170 41 is_stmt 0 view .LVU1199
 3595 0018 0B78     		ldrb	r3, [r1]	@ zero_extendqisi2
 3596              		.loc 1 1170 53 view .LVU1200
 3597 001a 91F801C0 		ldrb	ip, [r1, #1]	@ zero_extendqisi2
 3598              		.loc 1 1170 56 view .LVU1201
 3599 001e 0CF1010C 		add	ip, ip, #1
 3600              		.loc 1 1170 59 view .LVU1202
 3601 0022 03EB4313 		add	r3, r3, r3, lsl #5
 3602 0026 6344     		add	r3, r3, ip
 3603 0028 10F83330 		ldrb	r3, [r0, r3, lsl #3]	@ zero_extendqisi2
 3604              		.loc 1 1170 20 view .LVU1203
 3605 002c 1370     		strb	r3, [r2]
1171:C:/Users/leopi/Documents/vs/S-Reo/MazeLibrary\Searching.c ****         wall_st[1] = mz->ColumnNode[(st->pos.x)+1][st->pos.y].existence; //東
 3606              		.loc 1 1171 9 is_stmt 1 view .LVU1204
 3607              		.loc 1 1171 45 is_stmt 0 view .LVU1205
 3608 002e 0B78     		ldrb	r3, [r1]	@ zero_extendqisi2
 3609              		.loc 1 1171 48 view .LVU1206
 3610 0030 03F1010C 		add	ip, r3, #1
 3611              		.loc 1 1171 59 view .LVU1207
 3612 0034 4B78     		ldrb	r3, [r1, #1]	@ zero_extendqisi2
 3613              		.loc 1 1171 62 view .LVU1208
 3614 0036 03EB4C13 		add	r3, r3, ip, lsl #5
 3615 003a 03F58463 		add	r3, r3, #1056
 3616 003e 10F83330 		ldrb	r3, [r0, r3, lsl #3]	@ zero_extendqisi2
 3617              		.loc 1 1171 20 view .LVU1209
 3618 0042 5370     		strb	r3, [r2, #1]
1172:C:/Users/leopi/Documents/vs/S-Reo/MazeLibrary\Searching.c ****         wall_st[2] = 0;                                                                 //南
 3619              		.loc 1 1172 9 is_stmt 1 view .LVU1210
 3620              		.loc 1 1172 20 is_stmt 0 view .LVU1211
 3621 0044 0023     		movs	r3, #0
 3622 0046 9370     		strb	r3, [r2, #2]
1173:C:/Users/leopi/Documents/vs/S-Reo/MazeLibrary\Searching.c ****         wall_st[3] = mz->ColumnNode[st->pos.x][st->pos.y].existence;     //西
 3623              		.loc 1 1173 9 is_stmt 1 view .LVU1212
 3624              		.loc 1 1173 44 is_stmt 0 view .LVU1213
 3625 0048 91F800C0 		ldrb	ip, [r1]	@ zero_extendqisi2
 3626              		.loc 1 1173 55 view .LVU1214
 3627 004c 4B78     		ldrb	r3, [r1, #1]	@ zero_extendqisi2
 3628              		.loc 1 1173 58 view .LVU1215
 3629 004e 03EB4C13 		add	r3, r3, ip, lsl #5
 3630 0052 03F58463 		add	r3, r3, #1056
ARM GAS  C:\Users\leopi\AppData\Local\Temp\ccMCNSog.s 			page 99


 3631 0056 10F83330 		ldrb	r3, [r0, r3, lsl #3]	@ zero_extendqisi2
 3632              		.loc 1 1173 20 view .LVU1216
 3633 005a D370     		strb	r3, [r2, #3]
1174:C:/Users/leopi/Documents/vs/S-Reo/MazeLibrary\Searching.c ****         break;
 3634              		.loc 1 1174 9 is_stmt 1 view .LVU1217
1175:C:/Users/leopi/Documents/vs/S-Reo/MazeLibrary\Searching.c ****     case east:
1176:C:/Users/leopi/Documents/vs/S-Reo/MazeLibrary\Searching.c ****         wall_st[3] = mz->RawNode[st->pos.x][(st->pos.y)+1].existence;    //北
1177:C:/Users/leopi/Documents/vs/S-Reo/MazeLibrary\Searching.c ****         wall_st[0] = mz->ColumnNode[(st->pos.x)+1][st->pos.y].existence; //東
1178:C:/Users/leopi/Documents/vs/S-Reo/MazeLibrary\Searching.c ****         wall_st[1] = mz->RawNode[st->pos.x][st->pos.y].existence;        //南
1179:C:/Users/leopi/Documents/vs/S-Reo/MazeLibrary\Searching.c ****         wall_st[2] = 0;                                                                 //西
1180:C:/Users/leopi/Documents/vs/S-Reo/MazeLibrary\Searching.c ****         break;
1181:C:/Users/leopi/Documents/vs/S-Reo/MazeLibrary\Searching.c ****     case south:
1182:C:/Users/leopi/Documents/vs/S-Reo/MazeLibrary\Searching.c ****         wall_st[2] = 0;                                                                 //北
1183:C:/Users/leopi/Documents/vs/S-Reo/MazeLibrary\Searching.c ****         wall_st[3] = mz->ColumnNode[(st->pos.x)+1][st->pos.y].existence; //東
1184:C:/Users/leopi/Documents/vs/S-Reo/MazeLibrary\Searching.c ****         wall_st[0] = mz->RawNode[st->pos.x][st->pos.y].existence;        //南
1185:C:/Users/leopi/Documents/vs/S-Reo/MazeLibrary\Searching.c ****         wall_st[1] = mz->ColumnNode[st->pos.x][st->pos.y].existence;     //西
1186:C:/Users/leopi/Documents/vs/S-Reo/MazeLibrary\Searching.c ****         break;
1187:C:/Users/leopi/Documents/vs/S-Reo/MazeLibrary\Searching.c ****     case west:
1188:C:/Users/leopi/Documents/vs/S-Reo/MazeLibrary\Searching.c ****         wall_st[1] = mz->RawNode[st->pos.x][(st->pos.y)+1].existence;    //北
1189:C:/Users/leopi/Documents/vs/S-Reo/MazeLibrary\Searching.c ****         wall_st[2] = 0;                                                                 //東
1190:C:/Users/leopi/Documents/vs/S-Reo/MazeLibrary\Searching.c ****         wall_st[3] = mz->RawNode[st->pos.x][st->pos.y].existence;        //南
1191:C:/Users/leopi/Documents/vs/S-Reo/MazeLibrary\Searching.c ****         wall_st[0] = mz->ColumnNode[st->pos.x][st->pos.y].existence;     //西
1192:C:/Users/leopi/Documents/vs/S-Reo/MazeLibrary\Searching.c ****         break;
1193:C:/Users/leopi/Documents/vs/S-Reo/MazeLibrary\Searching.c ****     default:
1194:C:/Users/leopi/Documents/vs/S-Reo/MazeLibrary\Searching.c ****         //万が一斜めの方角を向いているときに呼び出してしまったら、
1195:C:/Users/leopi/Documents/vs/S-Reo/MazeLibrary\Searching.c ****         return false;
1196:C:/Users/leopi/Documents/vs/S-Reo/MazeLibrary\Searching.c ****         break;
1197:C:/Users/leopi/Documents/vs/S-Reo/MazeLibrary\Searching.c ****     }
1198:C:/Users/leopi/Documents/vs/S-Reo/MazeLibrary\Searching.c ****     return true;
 3635              		.loc 1 1198 12 is_stmt 0 view .LVU1218
 3636 005c 0120     		movs	r0, #1
 3637              	.LVL263:
1174:C:/Users/leopi/Documents/vs/S-Reo/MazeLibrary\Searching.c ****         break;
 3638              		.loc 1 1174 9 view .LVU1219
 3639 005e 7047     		bx	lr
 3640              	.LVL264:
 3641              	.L215:
1176:C:/Users/leopi/Documents/vs/S-Reo/MazeLibrary\Searching.c ****         wall_st[0] = mz->ColumnNode[(st->pos.x)+1][st->pos.y].existence; //東
 3642              		.loc 1 1176 9 is_stmt 1 view .LVU1220
1176:C:/Users/leopi/Documents/vs/S-Reo/MazeLibrary\Searching.c ****         wall_st[0] = mz->ColumnNode[(st->pos.x)+1][st->pos.y].existence; //東
 3643              		.loc 1 1176 41 is_stmt 0 view .LVU1221
 3644 0060 0B78     		ldrb	r3, [r1]	@ zero_extendqisi2
1176:C:/Users/leopi/Documents/vs/S-Reo/MazeLibrary\Searching.c ****         wall_st[0] = mz->ColumnNode[(st->pos.x)+1][st->pos.y].existence; //東
 3645              		.loc 1 1176 53 view .LVU1222
 3646 0062 91F801C0 		ldrb	ip, [r1, #1]	@ zero_extendqisi2
1176:C:/Users/leopi/Documents/vs/S-Reo/MazeLibrary\Searching.c ****         wall_st[0] = mz->ColumnNode[(st->pos.x)+1][st->pos.y].existence; //東
 3647              		.loc 1 1176 56 view .LVU1223
 3648 0066 0CF1010C 		add	ip, ip, #1
1176:C:/Users/leopi/Documents/vs/S-Reo/MazeLibrary\Searching.c ****         wall_st[0] = mz->ColumnNode[(st->pos.x)+1][st->pos.y].existence; //東
 3649              		.loc 1 1176 59 view .LVU1224
 3650 006a 03EB4313 		add	r3, r3, r3, lsl #5
 3651 006e 6344     		add	r3, r3, ip
 3652 0070 10F83330 		ldrb	r3, [r0, r3, lsl #3]	@ zero_extendqisi2
1176:C:/Users/leopi/Documents/vs/S-Reo/MazeLibrary\Searching.c ****         wall_st[0] = mz->ColumnNode[(st->pos.x)+1][st->pos.y].existence; //東
 3653              		.loc 1 1176 20 view .LVU1225
 3654 0074 D370     		strb	r3, [r2, #3]
1177:C:/Users/leopi/Documents/vs/S-Reo/MazeLibrary\Searching.c ****         wall_st[1] = mz->RawNode[st->pos.x][st->pos.y].existence;        //南
ARM GAS  C:\Users\leopi\AppData\Local\Temp\ccMCNSog.s 			page 100


 3655              		.loc 1 1177 9 is_stmt 1 view .LVU1226
1177:C:/Users/leopi/Documents/vs/S-Reo/MazeLibrary\Searching.c ****         wall_st[1] = mz->RawNode[st->pos.x][st->pos.y].existence;        //南
 3656              		.loc 1 1177 45 is_stmt 0 view .LVU1227
 3657 0076 0B78     		ldrb	r3, [r1]	@ zero_extendqisi2
1177:C:/Users/leopi/Documents/vs/S-Reo/MazeLibrary\Searching.c ****         wall_st[1] = mz->RawNode[st->pos.x][st->pos.y].existence;        //南
 3658              		.loc 1 1177 48 view .LVU1228
 3659 0078 03F1010C 		add	ip, r3, #1
1177:C:/Users/leopi/Documents/vs/S-Reo/MazeLibrary\Searching.c ****         wall_st[1] = mz->RawNode[st->pos.x][st->pos.y].existence;        //南
 3660              		.loc 1 1177 59 view .LVU1229
 3661 007c 4B78     		ldrb	r3, [r1, #1]	@ zero_extendqisi2
1177:C:/Users/leopi/Documents/vs/S-Reo/MazeLibrary\Searching.c ****         wall_st[1] = mz->RawNode[st->pos.x][st->pos.y].existence;        //南
 3662              		.loc 1 1177 62 view .LVU1230
 3663 007e 03EB4C13 		add	r3, r3, ip, lsl #5
 3664 0082 03F58463 		add	r3, r3, #1056
 3665 0086 10F83330 		ldrb	r3, [r0, r3, lsl #3]	@ zero_extendqisi2
1177:C:/Users/leopi/Documents/vs/S-Reo/MazeLibrary\Searching.c ****         wall_st[1] = mz->RawNode[st->pos.x][st->pos.y].existence;        //南
 3666              		.loc 1 1177 20 view .LVU1231
 3667 008a 1370     		strb	r3, [r2]
1178:C:/Users/leopi/Documents/vs/S-Reo/MazeLibrary\Searching.c ****         wall_st[2] = 0;                                                                 //西
 3668              		.loc 1 1178 9 is_stmt 1 view .LVU1232
1178:C:/Users/leopi/Documents/vs/S-Reo/MazeLibrary\Searching.c ****         wall_st[2] = 0;                                                                 //西
 3669              		.loc 1 1178 41 is_stmt 0 view .LVU1233
 3670 008c 0B78     		ldrb	r3, [r1]	@ zero_extendqisi2
1178:C:/Users/leopi/Documents/vs/S-Reo/MazeLibrary\Searching.c ****         wall_st[2] = 0;                                                                 //西
 3671              		.loc 1 1178 52 view .LVU1234
 3672 008e 4978     		ldrb	r1, [r1, #1]	@ zero_extendqisi2
 3673              	.LVL265:
1178:C:/Users/leopi/Documents/vs/S-Reo/MazeLibrary\Searching.c ****         wall_st[2] = 0;                                                                 //西
 3674              		.loc 1 1178 55 view .LVU1235
 3675 0090 03EB4313 		add	r3, r3, r3, lsl #5
 3676 0094 0B44     		add	r3, r3, r1
 3677 0096 10F83330 		ldrb	r3, [r0, r3, lsl #3]	@ zero_extendqisi2
1178:C:/Users/leopi/Documents/vs/S-Reo/MazeLibrary\Searching.c ****         wall_st[2] = 0;                                                                 //西
 3678              		.loc 1 1178 20 view .LVU1236
 3679 009a 5370     		strb	r3, [r2, #1]
1179:C:/Users/leopi/Documents/vs/S-Reo/MazeLibrary\Searching.c ****         break;
 3680              		.loc 1 1179 9 is_stmt 1 view .LVU1237
1179:C:/Users/leopi/Documents/vs/S-Reo/MazeLibrary\Searching.c ****         break;
 3681              		.loc 1 1179 20 is_stmt 0 view .LVU1238
 3682 009c 0023     		movs	r3, #0
 3683 009e 9370     		strb	r3, [r2, #2]
1180:C:/Users/leopi/Documents/vs/S-Reo/MazeLibrary\Searching.c ****     case south:
 3684              		.loc 1 1180 9 is_stmt 1 view .LVU1239
 3685              		.loc 1 1198 12 is_stmt 0 view .LVU1240
 3686 00a0 0120     		movs	r0, #1
 3687              	.LVL266:
1180:C:/Users/leopi/Documents/vs/S-Reo/MazeLibrary\Searching.c ****     case south:
 3688              		.loc 1 1180 9 view .LVU1241
 3689 00a2 7047     		bx	lr
 3690              	.LVL267:
 3691              	.L214:
1182:C:/Users/leopi/Documents/vs/S-Reo/MazeLibrary\Searching.c ****         wall_st[3] = mz->ColumnNode[(st->pos.x)+1][st->pos.y].existence; //東
 3692              		.loc 1 1182 9 is_stmt 1 view .LVU1242
1182:C:/Users/leopi/Documents/vs/S-Reo/MazeLibrary\Searching.c ****         wall_st[3] = mz->ColumnNode[(st->pos.x)+1][st->pos.y].existence; //東
 3693              		.loc 1 1182 20 is_stmt 0 view .LVU1243
 3694 00a4 0023     		movs	r3, #0
 3695 00a6 9370     		strb	r3, [r2, #2]
ARM GAS  C:\Users\leopi\AppData\Local\Temp\ccMCNSog.s 			page 101


1183:C:/Users/leopi/Documents/vs/S-Reo/MazeLibrary\Searching.c ****         wall_st[0] = mz->RawNode[st->pos.x][st->pos.y].existence;        //南
 3696              		.loc 1 1183 9 is_stmt 1 view .LVU1244
1183:C:/Users/leopi/Documents/vs/S-Reo/MazeLibrary\Searching.c ****         wall_st[0] = mz->RawNode[st->pos.x][st->pos.y].existence;        //南
 3697              		.loc 1 1183 45 is_stmt 0 view .LVU1245
 3698 00a8 0B78     		ldrb	r3, [r1]	@ zero_extendqisi2
1183:C:/Users/leopi/Documents/vs/S-Reo/MazeLibrary\Searching.c ****         wall_st[0] = mz->RawNode[st->pos.x][st->pos.y].existence;        //南
 3699              		.loc 1 1183 48 view .LVU1246
 3700 00aa 03F1010C 		add	ip, r3, #1
1183:C:/Users/leopi/Documents/vs/S-Reo/MazeLibrary\Searching.c ****         wall_st[0] = mz->RawNode[st->pos.x][st->pos.y].existence;        //南
 3701              		.loc 1 1183 59 view .LVU1247
 3702 00ae 4B78     		ldrb	r3, [r1, #1]	@ zero_extendqisi2
1183:C:/Users/leopi/Documents/vs/S-Reo/MazeLibrary\Searching.c ****         wall_st[0] = mz->RawNode[st->pos.x][st->pos.y].existence;        //南
 3703              		.loc 1 1183 62 view .LVU1248
 3704 00b0 03EB4C13 		add	r3, r3, ip, lsl #5
 3705 00b4 03F58463 		add	r3, r3, #1056
 3706 00b8 10F83330 		ldrb	r3, [r0, r3, lsl #3]	@ zero_extendqisi2
1183:C:/Users/leopi/Documents/vs/S-Reo/MazeLibrary\Searching.c ****         wall_st[0] = mz->RawNode[st->pos.x][st->pos.y].existence;        //南
 3707              		.loc 1 1183 20 view .LVU1249
 3708 00bc D370     		strb	r3, [r2, #3]
1184:C:/Users/leopi/Documents/vs/S-Reo/MazeLibrary\Searching.c ****         wall_st[1] = mz->ColumnNode[st->pos.x][st->pos.y].existence;     //西
 3709              		.loc 1 1184 9 is_stmt 1 view .LVU1250
1184:C:/Users/leopi/Documents/vs/S-Reo/MazeLibrary\Searching.c ****         wall_st[1] = mz->ColumnNode[st->pos.x][st->pos.y].existence;     //西
 3710              		.loc 1 1184 41 is_stmt 0 view .LVU1251
 3711 00be 0B78     		ldrb	r3, [r1]	@ zero_extendqisi2
1184:C:/Users/leopi/Documents/vs/S-Reo/MazeLibrary\Searching.c ****         wall_st[1] = mz->ColumnNode[st->pos.x][st->pos.y].existence;     //西
 3712              		.loc 1 1184 52 view .LVU1252
 3713 00c0 91F801C0 		ldrb	ip, [r1, #1]	@ zero_extendqisi2
1184:C:/Users/leopi/Documents/vs/S-Reo/MazeLibrary\Searching.c ****         wall_st[1] = mz->ColumnNode[st->pos.x][st->pos.y].existence;     //西
 3714              		.loc 1 1184 55 view .LVU1253
 3715 00c4 03EB4313 		add	r3, r3, r3, lsl #5
 3716 00c8 6344     		add	r3, r3, ip
 3717 00ca 10F83330 		ldrb	r3, [r0, r3, lsl #3]	@ zero_extendqisi2
1184:C:/Users/leopi/Documents/vs/S-Reo/MazeLibrary\Searching.c ****         wall_st[1] = mz->ColumnNode[st->pos.x][st->pos.y].existence;     //西
 3718              		.loc 1 1184 20 view .LVU1254
 3719 00ce 1370     		strb	r3, [r2]
1185:C:/Users/leopi/Documents/vs/S-Reo/MazeLibrary\Searching.c ****         break;
 3720              		.loc 1 1185 9 is_stmt 1 view .LVU1255
1185:C:/Users/leopi/Documents/vs/S-Reo/MazeLibrary\Searching.c ****         break;
 3721              		.loc 1 1185 44 is_stmt 0 view .LVU1256
 3722 00d0 91F800C0 		ldrb	ip, [r1]	@ zero_extendqisi2
1185:C:/Users/leopi/Documents/vs/S-Reo/MazeLibrary\Searching.c ****         break;
 3723              		.loc 1 1185 55 view .LVU1257
 3724 00d4 4B78     		ldrb	r3, [r1, #1]	@ zero_extendqisi2
1185:C:/Users/leopi/Documents/vs/S-Reo/MazeLibrary\Searching.c ****         break;
 3725              		.loc 1 1185 58 view .LVU1258
 3726 00d6 03EB4C13 		add	r3, r3, ip, lsl #5
 3727 00da 03F58463 		add	r3, r3, #1056
 3728 00de 10F83330 		ldrb	r3, [r0, r3, lsl #3]	@ zero_extendqisi2
1185:C:/Users/leopi/Documents/vs/S-Reo/MazeLibrary\Searching.c ****         break;
 3729              		.loc 1 1185 20 view .LVU1259
 3730 00e2 5370     		strb	r3, [r2, #1]
1186:C:/Users/leopi/Documents/vs/S-Reo/MazeLibrary\Searching.c ****     case west:
 3731              		.loc 1 1186 9 is_stmt 1 view .LVU1260
 3732              		.loc 1 1198 12 is_stmt 0 view .LVU1261
 3733 00e4 0120     		movs	r0, #1
 3734              	.LVL268:
1186:C:/Users/leopi/Documents/vs/S-Reo/MazeLibrary\Searching.c ****     case west:
ARM GAS  C:\Users\leopi\AppData\Local\Temp\ccMCNSog.s 			page 102


 3735              		.loc 1 1186 9 view .LVU1262
 3736 00e6 7047     		bx	lr
 3737              	.LVL269:
 3738              	.L212:
1188:C:/Users/leopi/Documents/vs/S-Reo/MazeLibrary\Searching.c ****         wall_st[2] = 0;                                                                 //東
 3739              		.loc 1 1188 9 is_stmt 1 view .LVU1263
1188:C:/Users/leopi/Documents/vs/S-Reo/MazeLibrary\Searching.c ****         wall_st[2] = 0;                                                                 //東
 3740              		.loc 1 1188 41 is_stmt 0 view .LVU1264
 3741 00e8 0B78     		ldrb	r3, [r1]	@ zero_extendqisi2
1188:C:/Users/leopi/Documents/vs/S-Reo/MazeLibrary\Searching.c ****         wall_st[2] = 0;                                                                 //東
 3742              		.loc 1 1188 53 view .LVU1265
 3743 00ea 91F801C0 		ldrb	ip, [r1, #1]	@ zero_extendqisi2
1188:C:/Users/leopi/Documents/vs/S-Reo/MazeLibrary\Searching.c ****         wall_st[2] = 0;                                                                 //東
 3744              		.loc 1 1188 56 view .LVU1266
 3745 00ee 0CF1010C 		add	ip, ip, #1
1188:C:/Users/leopi/Documents/vs/S-Reo/MazeLibrary\Searching.c ****         wall_st[2] = 0;                                                                 //東
 3746              		.loc 1 1188 59 view .LVU1267
 3747 00f2 03EB4313 		add	r3, r3, r3, lsl #5
 3748 00f6 6344     		add	r3, r3, ip
 3749 00f8 10F83330 		ldrb	r3, [r0, r3, lsl #3]	@ zero_extendqisi2
1188:C:/Users/leopi/Documents/vs/S-Reo/MazeLibrary\Searching.c ****         wall_st[2] = 0;                                                                 //東
 3750              		.loc 1 1188 20 view .LVU1268
 3751 00fc 5370     		strb	r3, [r2, #1]
1189:C:/Users/leopi/Documents/vs/S-Reo/MazeLibrary\Searching.c ****         wall_st[3] = mz->RawNode[st->pos.x][st->pos.y].existence;        //南
 3752              		.loc 1 1189 9 is_stmt 1 view .LVU1269
1189:C:/Users/leopi/Documents/vs/S-Reo/MazeLibrary\Searching.c ****         wall_st[3] = mz->RawNode[st->pos.x][st->pos.y].existence;        //南
 3753              		.loc 1 1189 20 is_stmt 0 view .LVU1270
 3754 00fe 0023     		movs	r3, #0
 3755 0100 9370     		strb	r3, [r2, #2]
1190:C:/Users/leopi/Documents/vs/S-Reo/MazeLibrary\Searching.c ****         wall_st[0] = mz->ColumnNode[st->pos.x][st->pos.y].existence;     //西
 3756              		.loc 1 1190 9 is_stmt 1 view .LVU1271
1190:C:/Users/leopi/Documents/vs/S-Reo/MazeLibrary\Searching.c ****         wall_st[0] = mz->ColumnNode[st->pos.x][st->pos.y].existence;     //西
 3757              		.loc 1 1190 41 is_stmt 0 view .LVU1272
 3758 0102 0B78     		ldrb	r3, [r1]	@ zero_extendqisi2
1190:C:/Users/leopi/Documents/vs/S-Reo/MazeLibrary\Searching.c ****         wall_st[0] = mz->ColumnNode[st->pos.x][st->pos.y].existence;     //西
 3759              		.loc 1 1190 52 view .LVU1273
 3760 0104 91F801C0 		ldrb	ip, [r1, #1]	@ zero_extendqisi2
1190:C:/Users/leopi/Documents/vs/S-Reo/MazeLibrary\Searching.c ****         wall_st[0] = mz->ColumnNode[st->pos.x][st->pos.y].existence;     //西
 3761              		.loc 1 1190 55 view .LVU1274
 3762 0108 03EB4313 		add	r3, r3, r3, lsl #5
 3763 010c 6344     		add	r3, r3, ip
 3764 010e 10F83330 		ldrb	r3, [r0, r3, lsl #3]	@ zero_extendqisi2
1190:C:/Users/leopi/Documents/vs/S-Reo/MazeLibrary\Searching.c ****         wall_st[0] = mz->ColumnNode[st->pos.x][st->pos.y].existence;     //西
 3765              		.loc 1 1190 20 view .LVU1275
 3766 0112 D370     		strb	r3, [r2, #3]
1191:C:/Users/leopi/Documents/vs/S-Reo/MazeLibrary\Searching.c ****         break;
 3767              		.loc 1 1191 9 is_stmt 1 view .LVU1276
1191:C:/Users/leopi/Documents/vs/S-Reo/MazeLibrary\Searching.c ****         break;
 3768              		.loc 1 1191 44 is_stmt 0 view .LVU1277
 3769 0114 91F800C0 		ldrb	ip, [r1]	@ zero_extendqisi2
1191:C:/Users/leopi/Documents/vs/S-Reo/MazeLibrary\Searching.c ****         break;
 3770              		.loc 1 1191 55 view .LVU1278
 3771 0118 4B78     		ldrb	r3, [r1, #1]	@ zero_extendqisi2
1191:C:/Users/leopi/Documents/vs/S-Reo/MazeLibrary\Searching.c ****         break;
 3772              		.loc 1 1191 58 view .LVU1279
 3773 011a 03EB4C13 		add	r3, r3, ip, lsl #5
 3774 011e 03F58463 		add	r3, r3, #1056
ARM GAS  C:\Users\leopi\AppData\Local\Temp\ccMCNSog.s 			page 103


 3775 0122 10F83330 		ldrb	r3, [r0, r3, lsl #3]	@ zero_extendqisi2
1191:C:/Users/leopi/Documents/vs/S-Reo/MazeLibrary\Searching.c ****         break;
 3776              		.loc 1 1191 20 view .LVU1280
 3777 0126 1370     		strb	r3, [r2]
1192:C:/Users/leopi/Documents/vs/S-Reo/MazeLibrary\Searching.c ****     default:
 3778              		.loc 1 1192 9 is_stmt 1 view .LVU1281
 3779              		.loc 1 1198 12 is_stmt 0 view .LVU1282
 3780 0128 0120     		movs	r0, #1
 3781              	.LVL270:
1192:C:/Users/leopi/Documents/vs/S-Reo/MazeLibrary\Searching.c ****     default:
 3782              		.loc 1 1192 9 view .LVU1283
 3783 012a 7047     		bx	lr
 3784              	.LVL271:
 3785              	.L217:
1167:C:/Users/leopi/Documents/vs/S-Reo/MazeLibrary\Searching.c ****     {
 3786              		.loc 1 1167 5 view .LVU1284
 3787 012c 0020     		movs	r0, #0
 3788              	.LVL272:
1199:C:/Users/leopi/Documents/vs/S-Reo/MazeLibrary\Searching.c **** 
1200:C:/Users/leopi/Documents/vs/S-Reo/MazeLibrary\Searching.c **** }
 3789              		.loc 1 1200 1 view .LVU1285
 3790 012e 7047     		bx	lr
 3791              		.cfi_endproc
 3792              	.LFE27:
 3794              		.section	.text.getWallNow,"ax",%progbits
 3795              		.align	1
 3796              		.global	getWallNow
 3797              		.syntax unified
 3798              		.thumb
 3799              		.thumb_func
 3801              	getWallNow:
 3802              	.LVL273:
 3803              	.LFB28:
1201:C:/Users/leopi/Documents/vs/S-Reo/MazeLibrary\Searching.c **** //引数のwall_stが前右左
1202:C:/Users/leopi/Documents/vs/S-Reo/MazeLibrary\Searching.c **** _Bool getWallNow(state *st, wall_state *wall_st)//wall_existence *wall[4])(
1203:C:/Users/leopi/Documents/vs/S-Reo/MazeLibrary\Searching.c **** {
 3804              		.loc 1 1203 1 is_stmt 1 view -0
 3805              		.cfi_startproc
 3806              		@ args = 0, pretend = 0, frame = 0
 3807              		@ frame_needed = 0, uses_anonymous_args = 0
 3808              		@ link register save eliminated.
1204:C:/Users/leopi/Documents/vs/S-Reo/MazeLibrary\Searching.c ****     switch (st->car)
 3809              		.loc 1 1204 5 view .LVU1287
 3810              		.loc 1 1204 15 is_stmt 0 view .LVU1288
 3811 0000 8378     		ldrb	r3, [r0, #2]	@ zero_extendqisi2
 3812              		.loc 1 1204 5 view .LVU1289
 3813 0002 062B     		cmp	r3, #6
 3814 0004 5DD8     		bhi	.L225
 3815 0006 DFE803F0 		tbb	[pc, r3]
 3816              	.L221:
 3817 000a 04       		.byte	(.L224-.L221)/2
 3818 000b 5C       		.byte	(.L225-.L221)/2
 3819 000c 1A       		.byte	(.L223-.L221)/2
 3820 000d 5C       		.byte	(.L225-.L221)/2
 3821 000e 30       		.byte	(.L222-.L221)/2
 3822 000f 5C       		.byte	(.L225-.L221)/2
 3823 0010 46       		.byte	(.L220-.L221)/2
ARM GAS  C:\Users\leopi\AppData\Local\Temp\ccMCNSog.s 			page 104


 3824 0011 00       		.p2align 1
 3825              	.L224:
1205:C:/Users/leopi/Documents/vs/S-Reo/MazeLibrary\Searching.c ****     {
1206:C:/Users/leopi/Documents/vs/S-Reo/MazeLibrary\Searching.c ****     case north:
1207:C:/Users/leopi/Documents/vs/S-Reo/MazeLibrary\Searching.c ****         st->wall.north = wall_st[0];    //北
 3826              		.loc 1 1207 9 is_stmt 1 view .LVU1290
 3827              		.loc 1 1207 33 is_stmt 0 view .LVU1291
 3828 0012 0A78     		ldrb	r2, [r1]	@ zero_extendqisi2
 3829              		.loc 1 1207 24 view .LVU1292
 3830 0014 0379     		ldrb	r3, [r0, #4]	@ zero_extendqisi2
 3831 0016 62F30103 		bfi	r3, r2, #0, #2
 3832 001a 0371     		strb	r3, [r0, #4]
1208:C:/Users/leopi/Documents/vs/S-Reo/MazeLibrary\Searching.c ****         st->wall.east = wall_st[1];     //東
 3833              		.loc 1 1208 9 is_stmt 1 view .LVU1293
 3834              		.loc 1 1208 32 is_stmt 0 view .LVU1294
 3835 001c 4A78     		ldrb	r2, [r1, #1]	@ zero_extendqisi2
 3836              		.loc 1 1208 23 view .LVU1295
 3837 001e DBB2     		uxtb	r3, r3
 3838 0020 62F38303 		bfi	r3, r2, #2, #2
 3839 0024 0371     		strb	r3, [r0, #4]
1209:C:/Users/leopi/Documents/vs/S-Reo/MazeLibrary\Searching.c ****         st->wall.south = wall_st[2];    //南
 3840              		.loc 1 1209 9 is_stmt 1 view .LVU1296
 3841              		.loc 1 1209 33 is_stmt 0 view .LVU1297
 3842 0026 8A78     		ldrb	r2, [r1, #2]	@ zero_extendqisi2
 3843              		.loc 1 1209 24 view .LVU1298
 3844 0028 DBB2     		uxtb	r3, r3
 3845 002a 62F30513 		bfi	r3, r2, #4, #2
 3846 002e 0371     		strb	r3, [r0, #4]
1210:C:/Users/leopi/Documents/vs/S-Reo/MazeLibrary\Searching.c ****         st->wall.west = wall_st[3];     //西
 3847              		.loc 1 1210 9 is_stmt 1 view .LVU1299
 3848              		.loc 1 1210 32 is_stmt 0 view .LVU1300
 3849 0030 CA78     		ldrb	r2, [r1, #3]	@ zero_extendqisi2
 3850              		.loc 1 1210 23 view .LVU1301
 3851 0032 DBB2     		uxtb	r3, r3
 3852 0034 62F38713 		bfi	r3, r2, #6, #2
 3853 0038 0371     		strb	r3, [r0, #4]
1211:C:/Users/leopi/Documents/vs/S-Reo/MazeLibrary\Searching.c ****         break;
 3854              		.loc 1 1211 9 is_stmt 1 view .LVU1302
1212:C:/Users/leopi/Documents/vs/S-Reo/MazeLibrary\Searching.c ****     case east:
1213:C:/Users/leopi/Documents/vs/S-Reo/MazeLibrary\Searching.c ****         st->wall.north = wall_st[3];    //北
1214:C:/Users/leopi/Documents/vs/S-Reo/MazeLibrary\Searching.c ****         st->wall.east = wall_st[0];     //東
1215:C:/Users/leopi/Documents/vs/S-Reo/MazeLibrary\Searching.c ****         st->wall.south = wall_st[1];    //南
1216:C:/Users/leopi/Documents/vs/S-Reo/MazeLibrary\Searching.c ****         st->wall.west = wall_st[2];     //西
1217:C:/Users/leopi/Documents/vs/S-Reo/MazeLibrary\Searching.c ****         break;
1218:C:/Users/leopi/Documents/vs/S-Reo/MazeLibrary\Searching.c ****     case south:
1219:C:/Users/leopi/Documents/vs/S-Reo/MazeLibrary\Searching.c ****         st->wall.north = wall_st[2];    //北
1220:C:/Users/leopi/Documents/vs/S-Reo/MazeLibrary\Searching.c ****         st->wall.east = wall_st[3];     //東
1221:C:/Users/leopi/Documents/vs/S-Reo/MazeLibrary\Searching.c ****         st->wall.south = wall_st[0];    //南
1222:C:/Users/leopi/Documents/vs/S-Reo/MazeLibrary\Searching.c ****         st->wall.west = wall_st[1];     //西
1223:C:/Users/leopi/Documents/vs/S-Reo/MazeLibrary\Searching.c ****         break;
1224:C:/Users/leopi/Documents/vs/S-Reo/MazeLibrary\Searching.c ****     case west:
1225:C:/Users/leopi/Documents/vs/S-Reo/MazeLibrary\Searching.c ****         st->wall.north = wall_st[1];    //北
1226:C:/Users/leopi/Documents/vs/S-Reo/MazeLibrary\Searching.c ****         st->wall.east = wall_st[2];     //東
1227:C:/Users/leopi/Documents/vs/S-Reo/MazeLibrary\Searching.c ****         st->wall.south = wall_st[3];    //南
1228:C:/Users/leopi/Documents/vs/S-Reo/MazeLibrary\Searching.c ****         st->wall.west = wall_st[0];     //西
1229:C:/Users/leopi/Documents/vs/S-Reo/MazeLibrary\Searching.c ****         break;
1230:C:/Users/leopi/Documents/vs/S-Reo/MazeLibrary\Searching.c ****     default:
ARM GAS  C:\Users\leopi\AppData\Local\Temp\ccMCNSog.s 			page 105


1231:C:/Users/leopi/Documents/vs/S-Reo/MazeLibrary\Searching.c ****         //万が一斜めの方角を向いているときに呼び出してしまったら、
1232:C:/Users/leopi/Documents/vs/S-Reo/MazeLibrary\Searching.c ****         return false;
1233:C:/Users/leopi/Documents/vs/S-Reo/MazeLibrary\Searching.c ****         break;
1234:C:/Users/leopi/Documents/vs/S-Reo/MazeLibrary\Searching.c ****     }
1235:C:/Users/leopi/Documents/vs/S-Reo/MazeLibrary\Searching.c ****     return true;
 3855              		.loc 1 1235 12 is_stmt 0 view .LVU1303
 3856 003a 0120     		movs	r0, #1
 3857              	.LVL274:
1211:C:/Users/leopi/Documents/vs/S-Reo/MazeLibrary\Searching.c ****         break;
 3858              		.loc 1 1211 9 view .LVU1304
 3859 003c 7047     		bx	lr
 3860              	.LVL275:
 3861              	.L223:
1213:C:/Users/leopi/Documents/vs/S-Reo/MazeLibrary\Searching.c ****         st->wall.east = wall_st[0];     //東
 3862              		.loc 1 1213 9 is_stmt 1 view .LVU1305
1213:C:/Users/leopi/Documents/vs/S-Reo/MazeLibrary\Searching.c ****         st->wall.east = wall_st[0];     //東
 3863              		.loc 1 1213 33 is_stmt 0 view .LVU1306
 3864 003e CA78     		ldrb	r2, [r1, #3]	@ zero_extendqisi2
1213:C:/Users/leopi/Documents/vs/S-Reo/MazeLibrary\Searching.c ****         st->wall.east = wall_st[0];     //東
 3865              		.loc 1 1213 24 view .LVU1307
 3866 0040 0379     		ldrb	r3, [r0, #4]	@ zero_extendqisi2
 3867 0042 62F30103 		bfi	r3, r2, #0, #2
 3868 0046 0371     		strb	r3, [r0, #4]
1214:C:/Users/leopi/Documents/vs/S-Reo/MazeLibrary\Searching.c ****         st->wall.south = wall_st[1];    //南
 3869              		.loc 1 1214 9 is_stmt 1 view .LVU1308
1214:C:/Users/leopi/Documents/vs/S-Reo/MazeLibrary\Searching.c ****         st->wall.south = wall_st[1];    //南
 3870              		.loc 1 1214 32 is_stmt 0 view .LVU1309
 3871 0048 0A78     		ldrb	r2, [r1]	@ zero_extendqisi2
1214:C:/Users/leopi/Documents/vs/S-Reo/MazeLibrary\Searching.c ****         st->wall.south = wall_st[1];    //南
 3872              		.loc 1 1214 23 view .LVU1310
 3873 004a DBB2     		uxtb	r3, r3
 3874 004c 62F38303 		bfi	r3, r2, #2, #2
 3875 0050 0371     		strb	r3, [r0, #4]
1215:C:/Users/leopi/Documents/vs/S-Reo/MazeLibrary\Searching.c ****         st->wall.west = wall_st[2];     //西
 3876              		.loc 1 1215 9 is_stmt 1 view .LVU1311
1215:C:/Users/leopi/Documents/vs/S-Reo/MazeLibrary\Searching.c ****         st->wall.west = wall_st[2];     //西
 3877              		.loc 1 1215 33 is_stmt 0 view .LVU1312
 3878 0052 4A78     		ldrb	r2, [r1, #1]	@ zero_extendqisi2
1215:C:/Users/leopi/Documents/vs/S-Reo/MazeLibrary\Searching.c ****         st->wall.west = wall_st[2];     //西
 3879              		.loc 1 1215 24 view .LVU1313
 3880 0054 DBB2     		uxtb	r3, r3
 3881 0056 62F30513 		bfi	r3, r2, #4, #2
 3882 005a 0371     		strb	r3, [r0, #4]
1216:C:/Users/leopi/Documents/vs/S-Reo/MazeLibrary\Searching.c ****         break;
 3883              		.loc 1 1216 9 is_stmt 1 view .LVU1314
1216:C:/Users/leopi/Documents/vs/S-Reo/MazeLibrary\Searching.c ****         break;
 3884              		.loc 1 1216 32 is_stmt 0 view .LVU1315
 3885 005c 8A78     		ldrb	r2, [r1, #2]	@ zero_extendqisi2
1216:C:/Users/leopi/Documents/vs/S-Reo/MazeLibrary\Searching.c ****         break;
 3886              		.loc 1 1216 23 view .LVU1316
 3887 005e DBB2     		uxtb	r3, r3
 3888 0060 62F38713 		bfi	r3, r2, #6, #2
 3889 0064 0371     		strb	r3, [r0, #4]
1217:C:/Users/leopi/Documents/vs/S-Reo/MazeLibrary\Searching.c ****     case south:
 3890              		.loc 1 1217 9 is_stmt 1 view .LVU1317
 3891              		.loc 1 1235 12 is_stmt 0 view .LVU1318
 3892 0066 0120     		movs	r0, #1
ARM GAS  C:\Users\leopi\AppData\Local\Temp\ccMCNSog.s 			page 106


 3893              	.LVL276:
1217:C:/Users/leopi/Documents/vs/S-Reo/MazeLibrary\Searching.c ****     case south:
 3894              		.loc 1 1217 9 view .LVU1319
 3895 0068 7047     		bx	lr
 3896              	.LVL277:
 3897              	.L222:
1219:C:/Users/leopi/Documents/vs/S-Reo/MazeLibrary\Searching.c ****         st->wall.east = wall_st[3];     //東
 3898              		.loc 1 1219 9 is_stmt 1 view .LVU1320
1219:C:/Users/leopi/Documents/vs/S-Reo/MazeLibrary\Searching.c ****         st->wall.east = wall_st[3];     //東
 3899              		.loc 1 1219 33 is_stmt 0 view .LVU1321
 3900 006a 8A78     		ldrb	r2, [r1, #2]	@ zero_extendqisi2
1219:C:/Users/leopi/Documents/vs/S-Reo/MazeLibrary\Searching.c ****         st->wall.east = wall_st[3];     //東
 3901              		.loc 1 1219 24 view .LVU1322
 3902 006c 0379     		ldrb	r3, [r0, #4]	@ zero_extendqisi2
 3903 006e 62F30103 		bfi	r3, r2, #0, #2
 3904 0072 0371     		strb	r3, [r0, #4]
1220:C:/Users/leopi/Documents/vs/S-Reo/MazeLibrary\Searching.c ****         st->wall.south = wall_st[0];    //南
 3905              		.loc 1 1220 9 is_stmt 1 view .LVU1323
1220:C:/Users/leopi/Documents/vs/S-Reo/MazeLibrary\Searching.c ****         st->wall.south = wall_st[0];    //南
 3906              		.loc 1 1220 32 is_stmt 0 view .LVU1324
 3907 0074 CA78     		ldrb	r2, [r1, #3]	@ zero_extendqisi2
1220:C:/Users/leopi/Documents/vs/S-Reo/MazeLibrary\Searching.c ****         st->wall.south = wall_st[0];    //南
 3908              		.loc 1 1220 23 view .LVU1325
 3909 0076 DBB2     		uxtb	r3, r3
 3910 0078 62F38303 		bfi	r3, r2, #2, #2
 3911 007c 0371     		strb	r3, [r0, #4]
1221:C:/Users/leopi/Documents/vs/S-Reo/MazeLibrary\Searching.c ****         st->wall.west = wall_st[1];     //西
 3912              		.loc 1 1221 9 is_stmt 1 view .LVU1326
1221:C:/Users/leopi/Documents/vs/S-Reo/MazeLibrary\Searching.c ****         st->wall.west = wall_st[1];     //西
 3913              		.loc 1 1221 33 is_stmt 0 view .LVU1327
 3914 007e 0A78     		ldrb	r2, [r1]	@ zero_extendqisi2
1221:C:/Users/leopi/Documents/vs/S-Reo/MazeLibrary\Searching.c ****         st->wall.west = wall_st[1];     //西
 3915              		.loc 1 1221 24 view .LVU1328
 3916 0080 DBB2     		uxtb	r3, r3
 3917 0082 62F30513 		bfi	r3, r2, #4, #2
 3918 0086 0371     		strb	r3, [r0, #4]
1222:C:/Users/leopi/Documents/vs/S-Reo/MazeLibrary\Searching.c ****         break;
 3919              		.loc 1 1222 9 is_stmt 1 view .LVU1329
1222:C:/Users/leopi/Documents/vs/S-Reo/MazeLibrary\Searching.c ****         break;
 3920              		.loc 1 1222 32 is_stmt 0 view .LVU1330
 3921 0088 4A78     		ldrb	r2, [r1, #1]	@ zero_extendqisi2
1222:C:/Users/leopi/Documents/vs/S-Reo/MazeLibrary\Searching.c ****         break;
 3922              		.loc 1 1222 23 view .LVU1331
 3923 008a DBB2     		uxtb	r3, r3
 3924 008c 62F38713 		bfi	r3, r2, #6, #2
 3925 0090 0371     		strb	r3, [r0, #4]
1223:C:/Users/leopi/Documents/vs/S-Reo/MazeLibrary\Searching.c ****     case west:
 3926              		.loc 1 1223 9 is_stmt 1 view .LVU1332
 3927              		.loc 1 1235 12 is_stmt 0 view .LVU1333
 3928 0092 0120     		movs	r0, #1
 3929              	.LVL278:
1223:C:/Users/leopi/Documents/vs/S-Reo/MazeLibrary\Searching.c ****     case west:
 3930              		.loc 1 1223 9 view .LVU1334
 3931 0094 7047     		bx	lr
 3932              	.LVL279:
 3933              	.L220:
1225:C:/Users/leopi/Documents/vs/S-Reo/MazeLibrary\Searching.c ****         st->wall.east = wall_st[2];     //東
ARM GAS  C:\Users\leopi\AppData\Local\Temp\ccMCNSog.s 			page 107


 3934              		.loc 1 1225 9 is_stmt 1 view .LVU1335
1225:C:/Users/leopi/Documents/vs/S-Reo/MazeLibrary\Searching.c ****         st->wall.east = wall_st[2];     //東
 3935              		.loc 1 1225 33 is_stmt 0 view .LVU1336
 3936 0096 4A78     		ldrb	r2, [r1, #1]	@ zero_extendqisi2
1225:C:/Users/leopi/Documents/vs/S-Reo/MazeLibrary\Searching.c ****         st->wall.east = wall_st[2];     //東
 3937              		.loc 1 1225 24 view .LVU1337
 3938 0098 0379     		ldrb	r3, [r0, #4]	@ zero_extendqisi2
 3939 009a 62F30103 		bfi	r3, r2, #0, #2
 3940 009e 0371     		strb	r3, [r0, #4]
1226:C:/Users/leopi/Documents/vs/S-Reo/MazeLibrary\Searching.c ****         st->wall.south = wall_st[3];    //南
 3941              		.loc 1 1226 9 is_stmt 1 view .LVU1338
1226:C:/Users/leopi/Documents/vs/S-Reo/MazeLibrary\Searching.c ****         st->wall.south = wall_st[3];    //南
 3942              		.loc 1 1226 32 is_stmt 0 view .LVU1339
 3943 00a0 8A78     		ldrb	r2, [r1, #2]	@ zero_extendqisi2
1226:C:/Users/leopi/Documents/vs/S-Reo/MazeLibrary\Searching.c ****         st->wall.south = wall_st[3];    //南
 3944              		.loc 1 1226 23 view .LVU1340
 3945 00a2 DBB2     		uxtb	r3, r3
 3946 00a4 62F38303 		bfi	r3, r2, #2, #2
 3947 00a8 0371     		strb	r3, [r0, #4]
1227:C:/Users/leopi/Documents/vs/S-Reo/MazeLibrary\Searching.c ****         st->wall.west = wall_st[0];     //西
 3948              		.loc 1 1227 9 is_stmt 1 view .LVU1341
1227:C:/Users/leopi/Documents/vs/S-Reo/MazeLibrary\Searching.c ****         st->wall.west = wall_st[0];     //西
 3949              		.loc 1 1227 33 is_stmt 0 view .LVU1342
 3950 00aa CA78     		ldrb	r2, [r1, #3]	@ zero_extendqisi2
1227:C:/Users/leopi/Documents/vs/S-Reo/MazeLibrary\Searching.c ****         st->wall.west = wall_st[0];     //西
 3951              		.loc 1 1227 24 view .LVU1343
 3952 00ac DBB2     		uxtb	r3, r3
 3953 00ae 62F30513 		bfi	r3, r2, #4, #2
 3954 00b2 0371     		strb	r3, [r0, #4]
1228:C:/Users/leopi/Documents/vs/S-Reo/MazeLibrary\Searching.c ****         break;
 3955              		.loc 1 1228 9 is_stmt 1 view .LVU1344
1228:C:/Users/leopi/Documents/vs/S-Reo/MazeLibrary\Searching.c ****         break;
 3956              		.loc 1 1228 32 is_stmt 0 view .LVU1345
 3957 00b4 0A78     		ldrb	r2, [r1]	@ zero_extendqisi2
1228:C:/Users/leopi/Documents/vs/S-Reo/MazeLibrary\Searching.c ****         break;
 3958              		.loc 1 1228 23 view .LVU1346
 3959 00b6 DBB2     		uxtb	r3, r3
 3960 00b8 62F38713 		bfi	r3, r2, #6, #2
 3961 00bc 0371     		strb	r3, [r0, #4]
1229:C:/Users/leopi/Documents/vs/S-Reo/MazeLibrary\Searching.c ****     default:
 3962              		.loc 1 1229 9 is_stmt 1 view .LVU1347
 3963              		.loc 1 1235 12 is_stmt 0 view .LVU1348
 3964 00be 0120     		movs	r0, #1
 3965              	.LVL280:
1229:C:/Users/leopi/Documents/vs/S-Reo/MazeLibrary\Searching.c ****     default:
 3966              		.loc 1 1229 9 view .LVU1349
 3967 00c0 7047     		bx	lr
 3968              	.LVL281:
 3969              	.L225:
1204:C:/Users/leopi/Documents/vs/S-Reo/MazeLibrary\Searching.c ****     {
 3970              		.loc 1 1204 5 view .LVU1350
 3971 00c2 0020     		movs	r0, #0
 3972              	.LVL282:
1236:C:/Users/leopi/Documents/vs/S-Reo/MazeLibrary\Searching.c **** }
 3973              		.loc 1 1236 1 view .LVU1351
 3974 00c4 7047     		bx	lr
 3975              		.cfi_endproc
ARM GAS  C:\Users\leopi\AppData\Local\Temp\ccMCNSog.s 			page 108


 3976              	.LFE28:
 3978              		.section	.text.getNowWallVirtual,"ax",%progbits
 3979              		.align	1
 3980              		.global	getNowWallVirtual
 3981              		.syntax unified
 3982              		.thumb
 3983              		.thumb_func
 3985              	getNowWallVirtual:
 3986              	.LVL283:
 3987              	.LFB29:
1237:C:/Users/leopi/Documents/vs/S-Reo/MazeLibrary\Searching.c **** //座標から壁の有無を取得
1238:C:/Users/leopi/Documents/vs/S-Reo/MazeLibrary\Searching.c **** void getNowWallVirtual(maze_node *maze, profile *mouse, uint8_t now_x, uint8_t now_y)
1239:C:/Users/leopi/Documents/vs/S-Reo/MazeLibrary\Searching.c **** {
 3988              		.loc 1 1239 1 is_stmt 1 view -0
 3989              		.cfi_startproc
 3990              		@ args = 0, pretend = 0, frame = 0
 3991              		@ frame_needed = 0, uses_anonymous_args = 0
 3992              		.loc 1 1239 1 is_stmt 0 view .LVU1353
 3993 0000 10B5     		push	{r4, lr}
 3994              	.LCFI24:
 3995              		.cfi_def_cfa_offset 8
 3996              		.cfi_offset 4, -8
 3997              		.cfi_offset 14, -4
1240:C:/Users/leopi/Documents/vs/S-Reo/MazeLibrary\Searching.c **** 	mouse->now.wall.north = maze->RawNode[now_x][now_y+1].existence;//北
 3998              		.loc 1 1240 2 is_stmt 1 view .LVU1354
 3999              		.loc 1 1240 52 is_stmt 0 view .LVU1355
 4000 0002 03F1010C 		add	ip, r3, #1
 4001              		.loc 1 1240 55 view .LVU1356
 4002 0006 02EB421E 		add	lr, r2, r2, lsl #5
 4003 000a F444     		add	ip, ip, lr
 4004 000c 10F83C40 		ldrb	r4, [r0, ip, lsl #3]	@ zero_extendqisi2
 4005              		.loc 1 1240 24 view .LVU1357
 4006 0010 91F808C0 		ldrb	ip, [r1, #8]	@ zero_extendqisi2
 4007 0014 64F3010C 		bfi	ip, r4, #0, #2
 4008 0018 81F808C0 		strb	ip, [r1, #8]
1241:C:/Users/leopi/Documents/vs/S-Reo/MazeLibrary\Searching.c **** 	mouse->now.wall.east = maze->ColumnNode[now_x+1][now_y].existence;//東
 4009              		.loc 1 1241 2 is_stmt 1 view .LVU1358
 4010              		.loc 1 1241 47 is_stmt 0 view .LVU1359
 4011 001c 02F1010C 		add	ip, r2, #1
 4012              		.loc 1 1241 57 view .LVU1360
 4013 0020 03EB4C1C 		add	ip, r3, ip, lsl #5
 4014 0024 0CF5846C 		add	ip, ip, #1056
 4015 0028 10F83C40 		ldrb	r4, [r0, ip, lsl #3]	@ zero_extendqisi2
 4016              		.loc 1 1241 23 view .LVU1361
 4017 002c 91F808C0 		ldrb	ip, [r1, #8]	@ zero_extendqisi2
 4018 0030 64F3830C 		bfi	ip, r4, #2, #2
 4019 0034 81F808C0 		strb	ip, [r1, #8]
1242:C:/Users/leopi/Documents/vs/S-Reo/MazeLibrary\Searching.c **** 	mouse->now.wall.south = maze->RawNode[now_x][now_y].existence;//南
 4020              		.loc 1 1242 2 is_stmt 1 view .LVU1362
 4021              		.loc 1 1242 53 is_stmt 0 view .LVU1363
 4022 0038 9E44     		add	lr, lr, r3
 4023 003a 10F83EE0 		ldrb	lr, [r0, lr, lsl #3]	@ zero_extendqisi2
 4024              		.loc 1 1242 24 view .LVU1364
 4025 003e 5FFA8CFC 		uxtb	ip, ip
 4026 0042 6EF3051C 		bfi	ip, lr, #4, #2
 4027 0046 81F808C0 		strb	ip, [r1, #8]
1243:C:/Users/leopi/Documents/vs/S-Reo/MazeLibrary\Searching.c **** 	mouse->now.wall.west = maze->ColumnNode[now_x][now_y].existence;//西
ARM GAS  C:\Users\leopi\AppData\Local\Temp\ccMCNSog.s 			page 109


 4028              		.loc 1 1243 2 is_stmt 1 view .LVU1365
 4029              		.loc 1 1243 55 is_stmt 0 view .LVU1366
 4030 004a 03EB4213 		add	r3, r3, r2, lsl #5
 4031              	.LVL284:
 4032              		.loc 1 1243 55 view .LVU1367
 4033 004e 03F58463 		add	r3, r3, #1056
 4034 0052 10F83320 		ldrb	r2, [r0, r3, lsl #3]	@ zero_extendqisi2
 4035              	.LVL285:
 4036              		.loc 1 1243 23 view .LVU1368
 4037 0056 5FFA8CF3 		uxtb	r3, ip
 4038 005a 62F38713 		bfi	r3, r2, #6, #2
 4039 005e 0B72     		strb	r3, [r1, #8]
1244:C:/Users/leopi/Documents/vs/S-Reo/MazeLibrary\Searching.c **** }
 4040              		.loc 1 1244 1 view .LVU1369
 4041 0060 10BD     		pop	{r4, pc}
 4042              		.cfi_endproc
 4043              	.LFE29:
 4045              		.section	.text.getNextWallVirtual,"ax",%progbits
 4046              		.align	1
 4047              		.global	getNextWallVirtual
 4048              		.syntax unified
 4049              		.thumb
 4050              		.thumb_func
 4052              	getNextWallVirtual:
 4053              	.LVL286:
 4054              	.LFB30:
1245:C:/Users/leopi/Documents/vs/S-Reo/MazeLibrary\Searching.c **** void getNextWallVirtual(maze_node *maze, profile *mouse, uint8_t next_x, uint8_t next_y)
1246:C:/Users/leopi/Documents/vs/S-Reo/MazeLibrary\Searching.c **** {
 4055              		.loc 1 1246 1 is_stmt 1 view -0
 4056              		.cfi_startproc
 4057              		@ args = 0, pretend = 0, frame = 0
 4058              		@ frame_needed = 0, uses_anonymous_args = 0
 4059              		.loc 1 1246 1 is_stmt 0 view .LVU1371
 4060 0000 10B5     		push	{r4, lr}
 4061              	.LCFI25:
 4062              		.cfi_def_cfa_offset 8
 4063              		.cfi_offset 4, -8
 4064              		.cfi_offset 14, -4
1247:C:/Users/leopi/Documents/vs/S-Reo/MazeLibrary\Searching.c **** 	mouse->next.wall.north = maze->RawNode[next_x][next_y+1].existence;//北
 4065              		.loc 1 1247 2 is_stmt 1 view .LVU1372
 4066              		.loc 1 1247 55 is_stmt 0 view .LVU1373
 4067 0002 03F1010C 		add	ip, r3, #1
 4068              		.loc 1 1247 58 view .LVU1374
 4069 0006 02EB421E 		add	lr, r2, r2, lsl #5
 4070 000a F444     		add	ip, ip, lr
 4071 000c 10F83C40 		ldrb	r4, [r0, ip, lsl #3]	@ zero_extendqisi2
 4072              		.loc 1 1247 25 view .LVU1375
 4073 0010 91F814C0 		ldrb	ip, [r1, #20]	@ zero_extendqisi2
 4074 0014 64F3010C 		bfi	ip, r4, #0, #2
 4075 0018 81F814C0 		strb	ip, [r1, #20]
1248:C:/Users/leopi/Documents/vs/S-Reo/MazeLibrary\Searching.c **** 	mouse->next.wall.east = maze->ColumnNode[next_x+1][next_y].existence;//東
 4076              		.loc 1 1248 2 is_stmt 1 view .LVU1376
 4077              		.loc 1 1248 49 is_stmt 0 view .LVU1377
 4078 001c 02F1010C 		add	ip, r2, #1
 4079              		.loc 1 1248 60 view .LVU1378
 4080 0020 03EB4C1C 		add	ip, r3, ip, lsl #5
 4081 0024 0CF5846C 		add	ip, ip, #1056
ARM GAS  C:\Users\leopi\AppData\Local\Temp\ccMCNSog.s 			page 110


 4082 0028 10F83C40 		ldrb	r4, [r0, ip, lsl #3]	@ zero_extendqisi2
 4083              		.loc 1 1248 24 view .LVU1379
 4084 002c 91F814C0 		ldrb	ip, [r1, #20]	@ zero_extendqisi2
 4085 0030 64F3830C 		bfi	ip, r4, #2, #2
 4086 0034 81F814C0 		strb	ip, [r1, #20]
1249:C:/Users/leopi/Documents/vs/S-Reo/MazeLibrary\Searching.c **** 	mouse->next.wall.south = maze->RawNode[next_x][next_y].existence;//南
 4087              		.loc 1 1249 2 is_stmt 1 view .LVU1380
 4088              		.loc 1 1249 56 is_stmt 0 view .LVU1381
 4089 0038 9E44     		add	lr, lr, r3
 4090 003a 10F83EE0 		ldrb	lr, [r0, lr, lsl #3]	@ zero_extendqisi2
 4091              		.loc 1 1249 25 view .LVU1382
 4092 003e 5FFA8CFC 		uxtb	ip, ip
 4093 0042 6EF3051C 		bfi	ip, lr, #4, #2
 4094 0046 81F814C0 		strb	ip, [r1, #20]
1250:C:/Users/leopi/Documents/vs/S-Reo/MazeLibrary\Searching.c **** 	mouse->next.wall.west = maze->ColumnNode[next_x][next_y].existence;//西
 4095              		.loc 1 1250 2 is_stmt 1 view .LVU1383
 4096              		.loc 1 1250 58 is_stmt 0 view .LVU1384
 4097 004a 03EB4213 		add	r3, r3, r2, lsl #5
 4098              	.LVL287:
 4099              		.loc 1 1250 58 view .LVU1385
 4100 004e 03F58463 		add	r3, r3, #1056
 4101 0052 10F83320 		ldrb	r2, [r0, r3, lsl #3]	@ zero_extendqisi2
 4102              	.LVL288:
 4103              		.loc 1 1250 24 view .LVU1386
 4104 0056 5FFA8CF3 		uxtb	r3, ip
 4105 005a 62F38713 		bfi	r3, r2, #6, #2
 4106 005e 0B75     		strb	r3, [r1, #20]
1251:C:/Users/leopi/Documents/vs/S-Reo/MazeLibrary\Searching.c **** }
 4107              		.loc 1 1251 1 view .LVU1387
 4108 0060 10BD     		pop	{r4, pc}
 4109              		.cfi_endproc
 4110              	.LFE30:
 4112              		.section	.text.initSearchData,"ax",%progbits
 4113              		.align	1
 4114              		.global	initSearchData
 4115              		.syntax unified
 4116              		.thumb
 4117              		.thumb_func
 4119              	initSearchData:
 4120              	.LVL289:
 4121              	.LFB31:
1252:C:/Users/leopi/Documents/vs/S-Reo/MazeLibrary\Searching.c **** 
1253:C:/Users/leopi/Documents/vs/S-Reo/MazeLibrary\Searching.c **** 
1254:C:/Users/leopi/Documents/vs/S-Reo/MazeLibrary\Searching.c **** 
1255:C:/Users/leopi/Documents/vs/S-Reo/MazeLibrary\Searching.c **** void initSearchData(maze_node *my_maze, profile *Mouse)
1256:C:/Users/leopi/Documents/vs/S-Reo/MazeLibrary\Searching.c **** {
 4122              		.loc 1 1256 1 is_stmt 1 view -0
 4123              		.cfi_startproc
 4124              		@ args = 0, pretend = 0, frame = 8
 4125              		@ frame_needed = 0, uses_anonymous_args = 0
 4126              		.loc 1 1256 1 is_stmt 0 view .LVU1389
 4127 0000 30B5     		push	{r4, r5, lr}
 4128              	.LCFI26:
 4129              		.cfi_def_cfa_offset 12
 4130              		.cfi_offset 4, -12
 4131              		.cfi_offset 5, -8
 4132              		.cfi_offset 14, -4
ARM GAS  C:\Users\leopi\AppData\Local\Temp\ccMCNSog.s 			page 111


 4133 0002 83B0     		sub	sp, sp, #12
 4134              	.LCFI27:
 4135              		.cfi_def_cfa_offset 24
 4136 0004 0446     		mov	r4, r0
 4137 0006 0D46     		mov	r5, r1
1257:C:/Users/leopi/Documents/vs/S-Reo/MazeLibrary\Searching.c ****     initMaze(my_maze);
 4138              		.loc 1 1257 5 is_stmt 1 view .LVU1390
 4139 0008 FFF7FEFF 		bl	initMaze
 4140              	.LVL290:
1258:C:/Users/leopi/Documents/vs/S-Reo/MazeLibrary\Searching.c ****     initWeight(my_maze); //3/20ms
 4141              		.loc 1 1258 5 view .LVU1391
 4142 000c 2046     		mov	r0, r4
 4143 000e FFF7FEFF 		bl	initWeight
 4144              	.LVL291:
1259:C:/Users/leopi/Documents/vs/S-Reo/MazeLibrary\Searching.c ****     //状態の初期化
1260:C:/Users/leopi/Documents/vs/S-Reo/MazeLibrary\Searching.c ****     initProfile(Mouse, my_maze);
 4145              		.loc 1 1260 5 view .LVU1392
 4146 0012 2146     		mov	r1, r4
 4147 0014 2846     		mov	r0, r5
 4148 0016 FFF7FEFF 		bl	initProfile
 4149              	.LVL292:
1261:C:/Users/leopi/Documents/vs/S-Reo/MazeLibrary\Searching.c **** 
1262:C:/Users/leopi/Documents/vs/S-Reo/MazeLibrary\Searching.c ****     Mouse->now.node = &(my_maze->RawNode[0][0]);
 4150              		.loc 1 1262 5 view .LVU1393
 4151              		.loc 1 1262 21 is_stmt 0 view .LVU1394
 4152 001a EC60     		str	r4, [r5, #12]
1263:C:/Users/leopi/Documents/vs/S-Reo/MazeLibrary\Searching.c ****     Mouse->next.node = &(my_maze->RawNode[0][1]);
 4153              		.loc 1 1263 5 is_stmt 1 view .LVU1395
 4154              		.loc 1 1263 24 is_stmt 0 view .LVU1396
 4155 001c 04F10803 		add	r3, r4, #8
 4156              		.loc 1 1263 22 view .LVU1397
 4157 0020 AB61     		str	r3, [r5, #24]
1264:C:/Users/leopi/Documents/vs/S-Reo/MazeLibrary\Searching.c **** 
1265:C:/Users/leopi/Documents/vs/S-Reo/MazeLibrary\Searching.c ****     //スタート座標にいる状態で、現在の重みを更新
1266:C:/Users/leopi/Documents/vs/S-Reo/MazeLibrary\Searching.c ****     
1267:C:/Users/leopi/Documents/vs/S-Reo/MazeLibrary\Searching.c ****     position goal_size = {
 4158              		.loc 1 1267 5 is_stmt 1 view .LVU1398
 4159              		.loc 1 1267 14 is_stmt 0 view .LVU1399
 4160 0022 074B     		ldr	r3, .L232
 4161 0024 1B89     		ldrh	r3, [r3, #8]
 4162 0026 ADF80430 		strh	r3, [sp, #4]	@ movhi
1268:C:/Users/leopi/Documents/vs/S-Reo/MazeLibrary\Searching.c ****         GOAL_SIZE_X,
1269:C:/Users/leopi/Documents/vs/S-Reo/MazeLibrary\Searching.c ****         GOAL_SIZE_Y
1270:C:/Users/leopi/Documents/vs/S-Reo/MazeLibrary\Searching.c ****     };
1271:C:/Users/leopi/Documents/vs/S-Reo/MazeLibrary\Searching.c ****     Mouse->target_size = goal_size;
 4163              		.loc 1 1271 5 is_stmt 1 view .LVU1400
 4164              		.loc 1 1271 24 is_stmt 0 view .LVU1401
 4165 002a 2A46     		mov	r2, r5
 4166 002c 22F8023F 		strh	r3, [r2, #2]!	@ movhi
1272:C:/Users/leopi/Documents/vs/S-Reo/MazeLibrary\Searching.c ****      updateAllNodeWeight(my_maze, &(Mouse->target_pos), &(Mouse->target_size), 0x01);
 4167              		.loc 1 1272 6 is_stmt 1 view .LVU1402
 4168 0030 0123     		movs	r3, #1
 4169 0032 2946     		mov	r1, r5
 4170 0034 2046     		mov	r0, r4
 4171 0036 FFF7FEFF 		bl	updateAllNodeWeight
 4172              	.LVL293:
1273:C:/Users/leopi/Documents/vs/S-Reo/MazeLibrary\Searching.c **** //     updateAllNodeWeight(&my_map, my_mouse.goal_lesser.x, my_mouse.goal_lesser.y, GOAL_SIZE_X, GO
ARM GAS  C:\Users\leopi\AppData\Local\Temp\ccMCNSog.s 			page 112


1274:C:/Users/leopi/Documents/vs/S-Reo/MazeLibrary\Searching.c **** }
 4173              		.loc 1 1274 1 is_stmt 0 view .LVU1403
 4174 003a 03B0     		add	sp, sp, #12
 4175              	.LCFI28:
 4176              		.cfi_def_cfa_offset 12
 4177              		@ sp needed
 4178 003c 30BD     		pop	{r4, r5, pc}
 4179              	.LVL294:
 4180              	.L233:
 4181              		.loc 1 1274 1 view .LVU1404
 4182 003e 00BF     		.align	2
 4183              	.L232:
 4184 0040 00000000 		.word	.LANCHOR0
 4185              		.cfi_endproc
 4186              	.LFE31:
 4188              		.section	.rodata
 4189              		.align	2
 4190              		.set	.LANCHOR0,. + 0
 4191              	.LC0:
 4192 0000 00       		.byte	0
 4193 0001 01       		.byte	1
 4194 0002 01       		.byte	1
 4195 0003 01       		.byte	1
 4196              	.LC1:
 4197 0004 02       		.byte	2
 4198 0005 02       		.byte	2
 4199 0006 00       		.byte	0
 4200 0007 01       		.byte	1
 4201              	.LC2:
 4202 0008 02       		.byte	2
 4203 0009 02       		.byte	2
 4204              		.section	.data.cnt.0,"aw"
 4205              		.align	2
 4206              		.set	.LANCHOR1,. + 0
 4209              	cnt.0:
 4210 0000 01000000 		.word	1
 4211              		.text
 4212              	.Letext0:
 4213              		.file 2 "c:\\tools\\gcc-arm-none-eabi-10_2021.10\\lib\\gcc\\arm-none-eabi\\10.3.1\\include\\stdint
 4214              		.file 3 "C:/Users/leopi/Documents/vs/S-Reo/MazeLibrary/MazeLib.h"
 4215              		.file 4 "C:/Users/leopi/Documents/vs/S-Reo/MazeLibrary/Searching.h"
 4216              		.file 5 "C:/Users/leopi/Documents/vs/S-Reo/MazeLibrary/dfs.h"
 4217              		.file 6 "c:\\tools\\gcc-arm-none-eabi-10_2021.10\\arm-none-eabi\\include\\stdio.h"
 4218              		.file 7 "<built-in>"
ARM GAS  C:\Users\leopi\AppData\Local\Temp\ccMCNSog.s 			page 113


DEFINED SYMBOLS
                            *ABS*:00000000 Searching.c
C:\Users\leopi\AppData\Local\Temp\ccMCNSog.s:20     .text.getTimFlag:00000000 $t
C:\Users\leopi\AppData\Local\Temp\ccMCNSog.s:26     .text.getTimFlag:00000000 getTimFlag
C:\Users\leopi\AppData\Local\Temp\ccMCNSog.s:45     .text.setTimFlag:00000000 $t
C:\Users\leopi\AppData\Local\Temp\ccMCNSog.s:51     .text.setTimFlag:00000000 setTimFlag
C:\Users\leopi\AppData\Local\Temp\ccMCNSog.s:68     .text.getTimElapsed:00000000 $t
C:\Users\leopi\AppData\Local\Temp\ccMCNSog.s:74     .text.getTimElapsed:00000000 getTimElapsed
C:\Users\leopi\AppData\Local\Temp\ccMCNSog.s:92     .text.countTimElapsed:00000000 $t
C:\Users\leopi\AppData\Local\Temp\ccMCNSog.s:98     .text.countTimElapsed:00000000 countTimElapsed
C:\Users\leopi\AppData\Local\Temp\ccMCNSog.s:128    .text.resetTimMember:00000000 $t
C:\Users\leopi\AppData\Local\Temp\ccMCNSog.s:134    .text.resetTimMember:00000000 resetTimMember
C:\Users\leopi\AppData\Local\Temp\ccMCNSog.s:158    .text.updateNodeThree:00000000 $t
C:\Users\leopi\AppData\Local\Temp\ccMCNSog.s:164    .text.updateNodeThree:00000000 updateNodeThree
C:\Users\leopi\AppData\Local\Temp\ccMCNSog.s:310    .text.updateNodeDraw:00000000 $t
C:\Users\leopi\AppData\Local\Temp\ccMCNSog.s:316    .text.updateNodeDraw:00000000 updateNodeDraw
C:\Users\leopi\AppData\Local\Temp\ccMCNSog.s:385    .rodata.setNextPosition.str1.4:00000000 $d
C:\Users\leopi\AppData\Local\Temp\ccMCNSog.s:390    .text.setNextPosition:00000000 $t
C:\Users\leopi\AppData\Local\Temp\ccMCNSog.s:396    .text.setNextPosition:00000000 setNextPosition
C:\Users\leopi\AppData\Local\Temp\ccMCNSog.s:417    .text.setNextPosition:0000000c $d
C:\Users\leopi\AppData\Local\Temp\ccMCNSog.s:495    .text.setNextPosition:0000004c $d
C:\Users\leopi\AppData\Local\Temp\ccMCNSog.s:500    .text.setPosition:00000000 $t
C:\Users\leopi\AppData\Local\Temp\ccMCNSog.s:506    .text.setPosition:00000000 setPosition
C:\Users\leopi\AppData\Local\Temp\ccMCNSog.s:526    .text.setGoal:00000000 $t
C:\Users\leopi\AppData\Local\Temp\ccMCNSog.s:532    .text.setGoal:00000000 setGoal
C:\Users\leopi\AppData\Local\Temp\ccMCNSog.s:564    .text.setCardinal:00000000 $t
C:\Users\leopi\AppData\Local\Temp\ccMCNSog.s:570    .text.setCardinal:00000000 setCardinal
C:\Users\leopi\AppData\Local\Temp\ccMCNSog.s:587    .text.setWallExistence:00000000 $t
C:\Users\leopi\AppData\Local\Temp\ccMCNSog.s:593    .text.setWallExistence:00000000 setWallExistence
C:\Users\leopi\AppData\Local\Temp\ccMCNSog.s:635    .rodata.initState.str1.4:00000000 $d
C:\Users\leopi\AppData\Local\Temp\ccMCNSog.s:642    .text.initState:00000000 $t
C:\Users\leopi\AppData\Local\Temp\ccMCNSog.s:648    .text.initState:00000000 initState
C:\Users\leopi\AppData\Local\Temp\ccMCNSog.s:710    .text.initState:0000002c $d
C:\Users\leopi\AppData\Local\Temp\ccMCNSog.s:716    .text.initProfile:00000000 $t
C:\Users\leopi\AppData\Local\Temp\ccMCNSog.s:722    .text.initProfile:00000000 initProfile
C:\Users\leopi\AppData\Local\Temp\ccMCNSog.s:815    .text.initProfile:00000068 $d
C:\Users\leopi\AppData\Local\Temp\ccMCNSog.s:820    .text.shiftState:00000000 $t
C:\Users\leopi\AppData\Local\Temp\ccMCNSog.s:826    .text.shiftState:00000000 shiftState
C:\Users\leopi\AppData\Local\Temp\ccMCNSog.s:863    .rodata.printState.str1.4:00000000 $d
C:\Users\leopi\AppData\Local\Temp\ccMCNSog.s:887    .text.printState:00000000 $t
C:\Users\leopi\AppData\Local\Temp\ccMCNSog.s:893    .text.printState:00000000 printState
C:\Users\leopi\AppData\Local\Temp\ccMCNSog.s:974    .text.printState:00000058 $d
C:\Users\leopi\AppData\Local\Temp\ccMCNSog.s:984    .rodata.printGoal.str1.4:00000000 $d
C:\Users\leopi\AppData\Local\Temp\ccMCNSog.s:989    .text.printGoal:00000000 $t
C:\Users\leopi\AppData\Local\Temp\ccMCNSog.s:995    .text.printGoal:00000000 printGoal
C:\Users\leopi\AppData\Local\Temp\ccMCNSog.s:1050   .text.printGoal:00000024 $d
C:\Users\leopi\AppData\Local\Temp\ccMCNSog.s:1055   .rodata.printProfile.str1.4:00000000 $d
C:\Users\leopi\AppData\Local\Temp\ccMCNSog.s:1062   .text.printProfile:00000000 $t
C:\Users\leopi\AppData\Local\Temp\ccMCNSog.s:1068   .text.printProfile:00000000 printProfile
C:\Users\leopi\AppData\Local\Temp\ccMCNSog.s:1112   .text.printProfile:0000002c $d
C:\Users\leopi\AppData\Local\Temp\ccMCNSog.s:1119   .text.FindUnwantedSquares:00000000 $t
C:\Users\leopi\AppData\Local\Temp\ccMCNSog.s:1125   .text.FindUnwantedSquares:00000000 FindUnwantedSquares
C:\Users\leopi\AppData\Local\Temp\ccMCNSog.s:1356   .text.FindUnwantedSquares:000000c0 $d
C:\Users\leopi\AppData\Local\Temp\ccMCNSog.s:1363   .text.getNodeInfo:00000000 $t
C:\Users\leopi\AppData\Local\Temp\ccMCNSog.s:1369   .text.getNodeInfo:00000000 getNodeInfo
C:\Users\leopi\AppData\Local\Temp\ccMCNSog.s:1392   .text.getNodeInfo:0000000e $d
C:\Users\leopi\AppData\Local\Temp\ccMCNSog.s:1486   .text.getNextNode:00000000 $t
ARM GAS  C:\Users\leopi\AppData\Local\Temp\ccMCNSog.s 			page 114


C:\Users\leopi\AppData\Local\Temp\ccMCNSog.s:1492   .text.getNextNode:00000000 getNextNode
C:\Users\leopi\AppData\Local\Temp\ccMCNSog.s:2051   .text.getNextNode:000002cc $d
C:\Users\leopi\AppData\Local\Temp\ccMCNSog.s:2056   .text.judgeAccelorNot:00000000 $t
C:\Users\leopi\AppData\Local\Temp\ccMCNSog.s:2062   .text.judgeAccelorNot:00000000 judgeAccelorNot
C:\Users\leopi\AppData\Local\Temp\ccMCNSog.s:2655   .text.getNextState:00000000 $t
C:\Users\leopi\AppData\Local\Temp\ccMCNSog.s:2661   .text.getNextState:00000000 getNextState
C:\Users\leopi\AppData\Local\Temp\ccMCNSog.s:2707   .text.getNextState:00000024 $d
C:\Users\leopi\AppData\Local\Temp\ccMCNSog.s:2714   .text.getNextState:00000032 $t
C:\Users\leopi\AppData\Local\Temp\ccMCNSog.s:3515   .text.getNextDirection:00000000 $t
C:\Users\leopi\AppData\Local\Temp\ccMCNSog.s:3521   .text.getNextDirection:00000000 getNextDirection
C:\Users\leopi\AppData\Local\Temp\ccMCNSog.s:3561   .text.getWallFRLfromMaze:00000000 $t
C:\Users\leopi\AppData\Local\Temp\ccMCNSog.s:3567   .text.getWallFRLfromMaze:00000000 getWallFRLfromMaze
C:\Users\leopi\AppData\Local\Temp\ccMCNSog.s:3584   .text.getWallFRLfromMaze:00000010 $d
C:\Users\leopi\AppData\Local\Temp\ccMCNSog.s:3795   .text.getWallNow:00000000 $t
C:\Users\leopi\AppData\Local\Temp\ccMCNSog.s:3801   .text.getWallNow:00000000 getWallNow
C:\Users\leopi\AppData\Local\Temp\ccMCNSog.s:3817   .text.getWallNow:0000000a $d
C:\Users\leopi\AppData\Local\Temp\ccMCNSog.s:3979   .text.getNowWallVirtual:00000000 $t
C:\Users\leopi\AppData\Local\Temp\ccMCNSog.s:3985   .text.getNowWallVirtual:00000000 getNowWallVirtual
C:\Users\leopi\AppData\Local\Temp\ccMCNSog.s:4046   .text.getNextWallVirtual:00000000 $t
C:\Users\leopi\AppData\Local\Temp\ccMCNSog.s:4052   .text.getNextWallVirtual:00000000 getNextWallVirtual
C:\Users\leopi\AppData\Local\Temp\ccMCNSog.s:4113   .text.initSearchData:00000000 $t
C:\Users\leopi\AppData\Local\Temp\ccMCNSog.s:4119   .text.initSearchData:00000000 initSearchData
C:\Users\leopi\AppData\Local\Temp\ccMCNSog.s:4184   .text.initSearchData:00000040 $d
C:\Users\leopi\AppData\Local\Temp\ccMCNSog.s:4189   .rodata:00000000 $d
C:\Users\leopi\AppData\Local\Temp\ccMCNSog.s:4205   .data.cnt.0:00000000 $d
C:\Users\leopi\AppData\Local\Temp\ccMCNSog.s:4209   .data.cnt.0:00000000 cnt.0
C:\Users\leopi\AppData\Local\Temp\ccMCNSog.s:424    .text.setNextPosition:00000013 $d
C:\Users\leopi\AppData\Local\Temp\ccMCNSog.s:424    .text.setNextPosition:00000014 $t
C:\Users\leopi\AppData\Local\Temp\ccMCNSog.s:1399   .text.getNodeInfo:00000015 $d
C:\Users\leopi\AppData\Local\Temp\ccMCNSog.s:1399   .text.getNodeInfo:00000016 $t
C:\Users\leopi\AppData\Local\Temp\ccMCNSog.s:3591   .text.getWallFRLfromMaze:00000017 $d
C:\Users\leopi\AppData\Local\Temp\ccMCNSog.s:3591   .text.getWallFRLfromMaze:00000018 $t
C:\Users\leopi\AppData\Local\Temp\ccMCNSog.s:3824   .text.getWallNow:00000011 $d
C:\Users\leopi\AppData\Local\Temp\ccMCNSog.s:3824   .text.getWallNow:00000012 $t

UNDEFINED SYMBOLS
puts
printf
InitVisit
Visit
initMaze
initWeight
updateAllNodeWeight
