ARM GAS  /var/folders/v_/kwz_t0cs68g1q1d733r227b80000gn/T//ccGToiUD.s 			page 1


   1              		.cpu cortex-m4
   2              		.eabi_attribute 27, 1
   3              		.eabi_attribute 28, 1
   4              		.eabi_attribute 20, 1
   5              		.eabi_attribute 21, 1
   6              		.eabi_attribute 23, 3
   7              		.eabi_attribute 24, 1
   8              		.eabi_attribute 25, 1
   9              		.eabi_attribute 26, 1
  10              		.eabi_attribute 30, 1
  11              		.eabi_attribute 34, 1
  12              		.eabi_attribute 18, 4
  13              		.file	"test.c"
  14              		.text
  15              	.Ltext0:
  16              		.cfi_sections	.debug_frame
  17              		.section	.rodata.Search.str1.4,"aMS",%progbits,1
  18              		.align	2
  19              	.LC0:
  20 0000 62726561 		.ascii	"break; \344\270\200\345\221\250\343\201\253\343\201"
  20      6B3B20E4 
  20      B880E591 
  20      A8E381AB 
  20      E381
  21 0012 8BE3818B 		.ascii	"\213\343\201\213\343\201\243\343\201\237\346\255\251"
  21      E381A3E3 
  21      819FE6AD 
  21      A9
  22 001f E695B020 		.ascii	"\346\225\260 : %d\015\012\000"
  22      3A202564 
  22      0D0A00
  23 002a 0000     		.align	2
  24              	.LC1:
  25 002c E7B582E4 		.ascii	"\347\265\202\344\272\206\015\000"
  25      BA860D00 
  26              		.section	.text.Search,"ax",%progbits
  27              		.align	1
  28              		.global	Search
  29              		.arch armv7e-m
  30              		.syntax unified
  31              		.thumb
  32              		.thumb_func
  33              		.fpu fpv4-sp-d16
  35              	Search:
  36              	.LVL0:
  37              	.LFB3:
  38              		.file 1 "Core/Src/test.c"
   1:Core/Src/test.c **** #include <stdio.h>
   2:Core/Src/test.c **** #include <stdbool.h>
   3:Core/Src/test.c **** #include <stdint-gcc.h>
   4:Core/Src/test.c **** 
   5:Core/Src/test.c **** 
   6:Core/Src/test.c **** #include "test.h"
   7:Core/Src/test.c **** #include "MazeLib.h"
   8:Core/Src/test.c **** #include "PID_Control.h"
   9:Core/Src/test.c **** // ã‚·ãƒŸãƒ¥ãƒ¬ãƒ¼ã‚·ãƒ§ãƒ³ã—ãŸã„ãƒ­ã‚¸ãƒƒã‚¯ãŒå¢—ãˆãŸã‚‰ã€é©å®œãƒ•ã‚¡ã‚¤ãƒ«ã«è¿½åŠ 
  10:Core/Src/test.c **** // ãƒ™ãƒ¼ã‚¹ã¨ãªã‚‹ãƒ­ã‚¸ãƒƒã‚¯ã¯MazeLibã§è¨˜è¿°
ARM GAS  /var/folders/v_/kwz_t0cs68g1q1d733r227b80000gn/T//ccGToiUD.s 			page 2


  11:Core/Src/test.c **** // testå†…ã§æ¢ç´¢ã¨ã—ã¦çµ„ã¿ã€ãƒ†ã‚¹ãƒˆ
  12:Core/Src/test.c **** 
  13:Core/Src/test.c **** // #include <main.h>
  14:Core/Src/test.c **** // #include "Micromouse.h"
  15:Core/Src/test.c **** // #include "Search.h"
  16:Core/Src/test.c **** //#include "Interrupt.h"
  17:Core/Src/test.c **** //#include "Action.h"
  18:Core/Src/test.c **** 
  19:Core/Src/test.c **** #define DEBUG_ON    0
  20:Core/Src/test.c **** #define SIMULATION  0
  21:Core/Src/test.c **** 
  22:Core/Src/test.c **** #if SIMULATION
  23:Core/Src/test.c ****     #include "MazeSimulation.h"
  24:Core/Src/test.c **** simulation test;
  25:Core/Src/test.c **** #endif
  26:Core/Src/test.c **** 
  27:Core/Src/test.c **** //ãƒ¢ãƒ¼ãƒ‰åˆ‡æ›¿ : ã‚·ãƒŸãƒ¥ãƒ¬ãƒ¼ã‚·ãƒ§ãƒ³ã®é–¢æ•°ã‚’åŸ‹ã‚è¾¼ã¿ã€ã‚³ãƒ¡ãƒ³ãƒˆã‚¢ã‚¦ãƒˆåˆ‡ã‚Šæ
  28:Core/Src/test.c **** #define LEFTHAND_SEARCH 0
  29:Core/Src/test.c **** #define RIGHTHAND_SEARCH 0
  30:Core/Src/test.c **** #define ADACHI_SEARCH   1
  31:Core/Src/test.c **** 
  32:Core/Src/test.c **** 
  33:Core/Src/test.c **** //æœªçŸ¥å£æ¢ç´¢ç”¨ã®æ¬¡ãƒãƒ¼ãƒ‰æ±ºå®šå‡¦ç†.
  34:Core/Src/test.c **** 	//æœ€çŸ­çµŒè·¯ã«ãªã‚Šãˆãªã„ã¨ã„ãˆã‚‹ãƒãƒ¼ãƒ‰ã‚’ã¤ã¶ã—ã¦ãŠã
  35:Core/Src/test.c **** //ã‚´ãƒ¼ãƒ«å¾Œã«ã‚‚ã†ä¸€ã‹æ‰€ç©ºããŒã‚ã‚Œã°ãã£ã¡ã‹ã‚‰å‡ºã¦(0,1)ã‚’ç›®æ¨™åº§æ¨™ã«ã—ã
  36:Core/Src/test.c **** //è¶³ç«‹æ³•æ¢ç´¢æ™‚ã«æ®‹ã—ã¦ã„ãŸåˆ†å²ã‚’è¿½ã£ã¦ã„ãã®ã¯ã©ã†ã‹
  37:Core/Src/test.c **** //åˆ†å²ã‚’ã‚¹ã‚¿ãƒƒã‚¯ã—ã¦ã„ãã¤ã¤ã€è¿‘ã¥ãæ–¹ã«å„ªå…ˆã—ã¦æ›²ãŒã‚‹
  38:Core/Src/test.c **** //æ¬¡ã®æœªçŸ¥å£ã¾ã§ã®æ­©æ•°ãŒä¸€ç•ªè¿‘ã„ã¨ã“ã‚ã€ã¨ã„ã†ã¨ã€ã‚´ãƒ¼ãƒ«å†…ã«ãªã‚Šãã
  39:Core/Src/test.c **** //ã‚´ãƒ¼ãƒ«ã‚’ã™ã¹ã¦çŸ¥ã£ãŸæ™‚ç‚¹ã‹ã‚‰ã€æœ€ã‚‚è¿‘ã„æœªçŸ¥ãƒãƒ¼ãƒ‰ï¼ˆæœ€åˆã®åˆ†å²ï¼‰ã¸å
  40:Core/Src/test.c **** //æ—¢ã«é€šã£ãŸãƒãƒ¼ãƒ‰ã®å‘¨ã‚Šã¯å£ã®æœ‰ç„¡ãŒã‚ã‹ã‚‹ãŒã€æ®‹ã‚Šã®æ–¹å‘ã¯ã‚ã‹ã‚‰ãªã
  41:Core/Src/test.c **** //ã‚¢ãƒ«ã‚´ãƒªã‚ºãƒ ãŒã†ã‹ã°ãªã„...
  42:Core/Src/test.c **** //è‚å¿ƒã®å…¨é¢æ¢ç´¢ã¨ã€æ–œã‚æœ€çŸ­ãŒæµ®ã‹ã°ãªã„...
  43:Core/Src/test.c **** 
  44:Core/Src/test.c **** #define IS_GOAL(less_x, less_y, large_x, large_y, next_x, next_y) ( (less_x <= next_x && next_x <= 
  45:Core/Src/test.c **** 
  46:Core/Src/test.c **** void Search(maze_node *maze, profile *mouse){   
  39              		.loc 1 46 45 view -0
  40              		.cfi_startproc
  41              		@ args = 0, pretend = 0, frame = 8
  42              		@ frame_needed = 0, uses_anonymous_args = 0
  43              		.loc 1 46 45 is_stmt 0 view .LVU1
  44 0000 F0B5     		push	{r4, r5, r6, r7, lr}
  45              	.LCFI0:
  46              		.cfi_def_cfa_offset 20
  47              		.cfi_offset 4, -20
  48              		.cfi_offset 5, -16
  49              		.cfi_offset 6, -12
  50              		.cfi_offset 7, -8
  51              		.cfi_offset 14, -4
  52 0002 83B0     		sub	sp, sp, #12
  53              	.LCFI1:
  54              		.cfi_def_cfa_offset 32
  55 0004 0746     		mov	r7, r0
  56 0006 0C46     		mov	r4, r1
  47:Core/Src/test.c ****     initSearchData(maze, mouse);//åå‰è‰¯ããªã„
  57              		.loc 1 47 5 is_stmt 1 view .LVU2
  58 0008 FFF7FEFF 		bl	initSearchData
ARM GAS  /var/folders/v_/kwz_t0cs68g1q1d733r227b80000gn/T//ccGToiUD.s 			page 3


  59              	.LVL1:
  48:Core/Src/test.c **** //        printf("è‡ªåˆ†ã®è¿·è·¯ã®åˆæœŸåŒ–ã®ç¢ºèª");
  49:Core/Src/test.c **** //        printMatrix16ValueFromNode(maze);
  50:Core/Src/test.c **** //        printf("%ld\r\n",sizeof(*maze));
  51:Core/Src/test.c **** //        printAllNode(maze);
  52:Core/Src/test.c **** //        printAllWeight(maze, &(mouse->now.pos));
  53:Core/Src/test.c ****         //printProfile(&mouse);
  54:Core/Src/test.c ****     //printf("2\r\n");
  55:Core/Src/test.c **** 
  56:Core/Src/test.c ****      //ãƒãƒ¼ãƒ‰ã‚¦ã‚§ã‚¢å‡¦ç†
  57:Core/Src/test.c **** 
  58:Core/Src/test.c ****     //èµ°ã‚‰ã›ã‚‹
  59:Core/Src/test.c ****     #if SIMULATION 
  60:Core/Src/test.c ****         //æœ€åˆã®åŠ é€Ÿ
  61:Core/Src/test.c ****     #else 
  62:Core/Src/test.c ****         //å®Ÿç’°å¢ƒèµ°è¡Œ : //æœ€åˆã®61.5mmã®åŠ é€Ÿã‚³ãƒãƒ³ãƒ‰ã‚’ç™ºè¡Œ
  63:Core/Src/test.c ****     #endif
  64:Core/Src/test.c **** 
  65:Core/Src/test.c **** //        printAllWeight(maze, &(mouse->now.pos));
  66:Core/Src/test.c **** //        printProfile(mouse);
  67:Core/Src/test.c **** //        printf("0,0ã®å—ãƒãƒ¼ãƒ‰ã®é‡ã¿ï¼ˆã‚¹ã‚¿ãƒ¼ãƒˆï¼‰:%x\r\n",mouse->now.node->weight);
  68:Core/Src/test.c **** //        printf("0,0ã‹ã‚‰è¦‹ãŸåŒ—ã®ãƒãƒ¼ãƒ‰ã®é‡ã¿ï¼ˆã‚¹ã‚¿ãƒ¼ãƒˆï¼‰:%x\r\n",mouse->next.nod
  69:Core/Src/test.c ****         int count=0;
  60              		.loc 1 69 9 view .LVU3
  70:Core/Src/test.c ****         while( ! IS_GOAL(mouse->goal_lesser.x, mouse->goal_lesser.y, mouse->goal_larger.x, mouse->g
  61              		.loc 1 70 9 view .LVU4
  69:Core/Src/test.c ****         while( ! IS_GOAL(mouse->goal_lesser.x, mouse->goal_lesser.y, mouse->goal_larger.x, mouse->g
  62              		.loc 1 69 13 is_stmt 0 view .LVU5
  63 000c 0026     		movs	r6, #0
  64              		.loc 1 70 14 view .LVU6
  65 000e 13E0     		b	.L2
  66              	.LVL2:
  67              	.L5:
  68              	.LBB2:
  71:Core/Src/test.c ****         {
  72:Core/Src/test.c ****             //printf("%d, %d, %d, %d, %d, %d\r\n",mouse->goal_lesser.x, mouse->goal_lesser.y, mouse
  73:Core/Src/test.c ****             
  74:Core/Src/test.c ****             #if ADACHI_SEARCH
  75:Core/Src/test.c ****                 if(mouse->next.pos.x == 0 && mouse->next.pos.y == 0)
  69              		.loc 1 75 17 is_stmt 1 view .LVU7
  70              		.loc 1 75 43 is_stmt 0 view .LVU8
  71 0010 A38A     		ldrh	r3, [r4, #20]	@ unaligned
  72              		.loc 1 75 19 view .LVU9
  73 0012 03B3     		cbz	r3, .L7
  76:Core/Src/test.c ****                 {
  77:Core/Src/test.c ****                     printf("break; ä¸€å‘¨ã«ã‹ã‹ã£ãŸæ­©æ•° : %d\r\n",count);
  78:Core/Src/test.c ****                     break;
  79:Core/Src/test.c ****                 }
  80:Core/Src/test.c ****             #endif
  81:Core/Src/test.c ****                 shiftState(mouse);
  74              		.loc 1 81 17 is_stmt 1 view .LVU10
  75 0014 2046     		mov	r0, r4
  76 0016 FFF7FEFF 		bl	shiftState
  77              	.LVL3:
  82:Core/Src/test.c **** #if DEBUG_ON
  83:Core/Src/test.c ****                 //æ–°ã—ã„ãƒãƒ¼ãƒ‰ã«å…¥ã£ãŸã“ã¨ã«ãªã£ã¦ã„ã‚‹
  84:Core/Src/test.c ****                 printf("ç¾åœ¨ãƒãƒ¼ãƒ‰ã®é‡ã¿:%x\r\n",mouse->now.node->weight);
ARM GAS  /var/folders/v_/kwz_t0cs68g1q1d733r227b80000gn/T//ccGToiUD.s 			page 4


  85:Core/Src/test.c ****                 printf("æ¬¡ã®ãƒãƒ¼ãƒ‰ã®é‡ã¿:%x\r\n",mouse->next.node->weight);//nowã‚’ãƒã‚¯ã‚
  86:Core/Src/test.c ****                 //printf("4\r\n");
  87:Core/Src/test.c **** #endif
  88:Core/Src/test.c ****             //2. å£ã®æ›´æ–°
  89:Core/Src/test.c ****                 //ä»Šå‘ã„ã¦ã„ã‚‹æ–¹å‘ã«å¿œã˜ã¦ã€å‰å³å·¦ã‚’ã¨ã‚‹ï¼ˆå¾Œã‚ã¯ã‹ãªã‚‰ãš
  90:Core/Src/test.c ****                 wall_state wall[4]={0};
  78              		.loc 1 90 17 view .LVU11
  79              		.loc 1 90 28 is_stmt 0 view .LVU12
  80 001a 0023     		movs	r3, #0
  81 001c 0193     		str	r3, [sp, #4]
  91:Core/Src/test.c ****                 /*ï¼ˆã‚·ãƒŸãƒ¥ãƒ¬ãƒ¼ã‚·ãƒ§ãƒ³ã¨å®Ÿç’°å¢ƒèµ°è¡Œã‚’åˆ‡ã‚Šæ›¿ãˆï¼‰*/
  92:Core/Src/test.c ****                 #if SIMULATION 
  93:Core/Src/test.c ****                     //é…åˆ—ã¨ç¾åœ¨æƒ…å ±ã‹ã‚‰ã€æ±è¥¿å—åŒ—ã®é…åˆ—ã‚’æ±‚ã‚ã¦æ¸¡ã™
  94:Core/Src/test.c ****                     #if DEBUG_ON
  95:Core/Src/test.c ****                         printf("å£ã®çŠ¶æ…‹0 %d, %d, %d, %d\r\n", wall[0], wall[1], wall[2], wall[
  96:Core/Src/test.c ****                         printf("ãƒã‚§ãƒƒã‚¯: %d\r\n",convert16ValueToWallDirection_Simulation(&tes
  97:Core/Src/test.c ****                         printf("å£ã®çŠ¶æ…‹1 %d, %d, %d, %d\r\n", wall[0], wall[1], wall[2], wall[
  98:Core/Src/test.c ****                     #else
  99:Core/Src/test.c ****                         convert16ValueToWallDirection_Simulation(&test, &(mouse->now), &wall[0]);
 100:Core/Src/test.c ****                     #endif
 101:Core/Src/test.c ****                 #else 
 102:Core/Src/test.c ****                     //å®Ÿç’°å¢ƒèµ°è¡Œ : ã‚»ãƒ³ã‚µãƒ‡ãƒ¼ã‚¿ã‚’æŒã£ã¦ãã¦ã€é–¾å€¤ã§åˆ¤æ–­ã—ã
 103:Core/Src/test.c **** 
 104:Core/Src/test.c ****                     //Photo[]ã‚’å¾—ã‚‹ãŸã‚ã®WallDetectãƒ©ã‚¤ãƒ–ãƒ©ãƒªã‚’ä½¿ã†
 105:Core/Src/test.c ****                     //ã‚³ãƒãƒ³ãƒ‰ã‚­ãƒ¥ãƒ¼æ‰‹æ³•ã§ãªã„é–“ã¯ã€ã‚»ãƒ³ã‚µãƒ‡ãƒ¼ã‚¿ã‚’æ¯”è¼ƒã™ã‚
 106:Core/Src/test.c **** 
 107:Core/Src/test.c ****                 #endif
 108:Core/Src/test.c **** 
 109:Core/Src/test.c ****                 //ã‚³ãƒãƒ³ãƒ‰ã‚­ãƒ¥ãƒ¼æ‰‹æ³•ã‚’ä½¿ã‚ãªã„ã¨ãã¯ã€ä»¥ä¸‹ã‚’ã‚¢ã‚¯ã‚·ãƒ§ãƒ³ã®
 110:Core/Src/test.c ****                 //å‰å³å·¦ã®æƒ…å ±ã‚’é…åˆ—ã«å…¥ã‚Œã¦æŒã£ã¦ãã‚‹
 111:Core/Src/test.c ****                 getWallNow(&(mouse->now), &wall[0]);    //å‰å¾Œå·¦å³ã®ãƒ‡ãƒ¼ã‚¿ã‚’è‡ªåˆ†ã®ç¾åœ
  82              		.loc 1 111 17 is_stmt 1 view .LVU13
  83 001e 04F10805 		add	r5, r4, #8
  84 0022 01A9     		add	r1, sp, #4
  85 0024 2846     		mov	r0, r5
  86 0026 FFF7FEFF 		bl	getWallNow
  87              	.LVL4:
 112:Core/Src/test.c ****                 #if DEBUG_ON
 113:Core/Src/test.c ****                     printf("å£ã®çŠ¶æ…‹2 %d, %d, %d, %d\r\n", wall[0], wall[1], wall[2], wall[3]);
 114:Core/Src/test.c ****                 #endif
 115:Core/Src/test.c ****                 //2. ç¾åœ¨å£æƒ…å ±ã‚’ã€Mazeã«åæ˜ 
 116:Core/Src/test.c ****                 updateNodeThree(maze, &(mouse->now), mouse->now.pos.x, mouse->now.pos.y);
  88              		.loc 1 116 17 view .LVU14
  89 002a 637A     		ldrb	r3, [r4, #9]	@ zero_extendqisi2
  90 002c 227A     		ldrb	r2, [r4, #8]	@ zero_extendqisi2
  91 002e 2946     		mov	r1, r5
  92 0030 3846     		mov	r0, r7
  93 0032 FFF7FEFF 		bl	updateNodeThree
  94              	.LVL5:
 117:Core/Src/test.c ****             #if SIMULATION 
 118:Core/Src/test.c ****                     //æ©Ÿä½“ã‹ã‚‰å‡ºåŠ›ã™ã‚‹ãŸã‚ã«ãƒ‡ãƒ¼ã‚¿ã‚’ã‚»ãƒƒãƒˆã™ã‚‹å‡¦ç†ã‚’å‘¼ã¶
 119:Core/Src/test.c ****                     //flagã˜ã‚ƒãªãã¦ã€drawã«å…¥ã‚Œã‚‹
 120:Core/Src/test.c ****                     //updateNodeDraw(maze, mouse->now.pos.x, mouse->now.pos.y);
 121:Core/Src/test.c ****             #endif
 122:Core/Src/test.c **** 
 123:Core/Src/test.c ****             #if DEBUG_ON
 124:Core/Src/test.c ****                 printf("å£ã®çŠ¶æ…‹3 %d, %d, %d, %d\r\n", wall[0], wall[1], wall[2], wall[3]);
ARM GAS  /var/folders/v_/kwz_t0cs68g1q1d733r227b80000gn/T//ccGToiUD.s 			page 5


 125:Core/Src/test.c ****             #endif
 126:Core/Src/test.c ****             //ã“ã“ã‹ã‚‰è‚å¿ƒã®ã‚¢ãƒ«ã‚´ãƒªã‚ºãƒ  : é€²è¡Œæ–¹å‘ã®æ±ºå®š
 127:Core/Src/test.c ****             
 128:Core/Src/test.c **** 
 129:Core/Src/test.c ****             #if ADACHI_SEARCH
 130:Core/Src/test.c **** 
 131:Core/Src/test.c **** 
 132:Core/Src/test.c **** #if SIMULATION
 133:Core/Src/test.c ****                                 updateAllNodeWeight(maze, mouse->goal_lesser.x, mouse->goal_lesser.
 134:Core/Src/test.c **** 
 135:Core/Src/test.c ****                                                 mouse->now.node = getNodeInfo(maze,mouse->now.pos.x
 136:Core/Src/test.c ****                                 #if DEBUG_ON
 137:Core/Src/test.c ****                                                 printf("ç¾åœ¨ãƒãƒ¼ãƒ‰ã®é‡ã¿:%x, ä¾µå…¥æ–¹è§’:%
 138:Core/Src/test.c ****                                 #endif
 139:Core/Src/test.c ****                                                 //updateAllNodeWeight(maze, mouse->goal_lesser.x, m
 140:Core/Src/test.c ****                                                 mouse->next.node = getNextNode(maze,mouse->now.car,
 141:Core/Src/test.c ****                                                 getNextState(&(mouse->now),&(mouse->next), mouse->n
 142:Core/Src/test.c **** #else
 143:Core/Src/test.c ****                 //å®Ÿç’°å¢ƒã§ã®ç¾çŠ¶æ…‹ã‹ã‚‰æ¬¡çŠ¶æ…‹ã¸ã®é€²è¡Œæ–¹å‘ã‚’å¾—ã‚‹
 144:Core/Src/test.c ****                 //å®Ÿç’°å¢ƒã§ã®é€²è¡Œæ–¹å‘ã”ã¨ã®å‹•ä½œ
 145:Core/Src/test.c **** 
 146:Core/Src/test.c ****                 //ãƒ«ãƒ¼ãƒ—ã®å…ˆé ­ã§çŠ¶æ…‹ã®æ›´æ–°
 147:Core/Src/test.c **** #endif
 148:Core/Src/test.c ****                 //ãƒãƒ¼ãƒ‰ã§ã¯ãƒãƒƒãƒ—ä¸Šã®ãƒãƒ¼ãƒ‰ã®ã‚¢ãƒ‰ãƒ¬ã‚¹ã‚’è¦‹ã¦ã„ã‚‹ãŒã€è‡ªåˆ†
 149:Core/Src/test.c ****                 //æ¬¡ã®ãƒãƒ¼ãƒ‰ã‚’æ±ºå®š
 150:Core/Src/test.c ****                 //æœ€å¤§3ã¤ã®ãƒãƒ¼ãƒ‰ã‚’æ¯”è¼ƒã€‚è¡Œã‘ã‚‹ã¨ã“ã‚ãŒãªã‘ã‚Œã°Uã‚¿ãƒ¼ãƒ³
 151:Core/Src/test.c ****                 //ç¾åœ¨ãƒãƒ¼ãƒ‰ã‹ã‚‰è¡Œã‘ã‚‹ãƒãƒ¼ãƒ‰ã®ã†ã¡ã€ã‚‚ã£ã¨ã‚‚é‡ã¿ãŒå°ã•ã„
 152:Core/Src/test.c ****                 //ç¾ãƒãƒ¼ãƒ‰ã¨æ¬¡ãƒãƒ¼ãƒ‰ã®æƒ…å ±ã‹ã‚‰ã€é€²è¡Œæ–¹å‘ã‚’æ±ºå®š
 153:Core/Src/test.c **** 
 154:Core/Src/test.c ****                 //æ–œã‚ã‚’è€ƒãˆã‚‹ã®ã¯ã“ã“.
 155:Core/Src/test.c ****                 //ç´°ã‹ã„å‹•ä½œç”Ÿæˆã®ãŸã‚ã®æƒ…å ±ã¯æŠœãã«ã—ã¦ã€4æ–¹è§’ã ã‘ã‚’è€ƒã
 156:Core/Src/test.c ****                 //ç¾åœ¨ãƒãƒ¼ãƒ‰ã‹ã‚‰
 157:Core/Src/test.c **** 
 158:Core/Src/test.c ****                 //ã‚³ãƒãƒ³ãƒ‰ã®ç™ºè¡Œã¾ã§
 159:Core/Src/test.c ****             
 160:Core/Src/test.c ****             #endif
 161:Core/Src/test.c **** 
 162:Core/Src/test.c **** 
 163:Core/Src/test.c ****             #if DEPTH_SEARCH
 164:Core/Src/test.c **** 
 165:Core/Src/test.c ****                 //æ·±ã•å„ªå…ˆæ¢ç´¢
 166:Core/Src/test.c ****                 printf("æ·±ã•å„ªå…ˆæ¢ç´¢");
 167:Core/Src/test.c **** 
 168:Core/Src/test.c ****             #endif
 169:Core/Src/test.c **** 
 170:Core/Src/test.c ****             #if WIDTH_SEARCH
 171:Core/Src/test.c ****                 //å¹…å„ªå…ˆæ¢ç´¢ 
 172:Core/Src/test.c ****             #endif
 173:Core/Src/test.c ****         
 174:Core/Src/test.c ****         #if DEBUG_ON
 175:Core/Src/test.c ****             printf("x,%u, y,%u\r\n",mouse->goal_lesser.x, mouse->goal_lesser.y);
 176:Core/Src/test.c ****             printf("ã‚¢ãƒƒãƒ—ãƒ‡ãƒ¼ãƒˆå®Œäº†\r\n");
 177:Core/Src/test.c ****             printf("8\r\n");
 178:Core/Src/test.c ****         #endif
 179:Core/Src/test.c ****         
 180:Core/Src/test.c ****         
 181:Core/Src/test.c ****         #if SIMULATION
ARM GAS  /var/folders/v_/kwz_t0cs68g1q1d733r227b80000gn/T//ccGToiUD.s 			page 6


 182:Core/Src/test.c ****             printProfile(mouse);
 183:Core/Src/test.c ****             //getNextState(&(mouse->now),&(mouse->next), mouse->next.node);
 184:Core/Src/test.c ****             printf("æ¬¡ã®ãƒãƒ¼ãƒ‰ã®é‡ã¿:%x, ä¾µå…¥æ–¹è§’:%d, x:%d, y:%d, ãƒãƒ¼ãƒ‰xy:%u,%u\r\n
 185:Core/Src/test.c ****         #endif
 186:Core/Src/test.c ****         count ++;
  95              		.loc 1 186 9 view .LVU15
  96              		.loc 1 186 15 is_stmt 0 view .LVU16
  97 0036 0136     		adds	r6, r6, #1
  98              	.LVL6:
  99              	.L2:
 100              		.loc 1 186 15 view .LVU17
 101              	.LBE2:
  70:Core/Src/test.c ****         {
 102              		.loc 1 70 14 is_stmt 1 view .LVU18
  70:Core/Src/test.c ****         {
 103              		.loc 1 70 18 is_stmt 0 view .LVU19
 104 0038 2278     		ldrb	r2, [r4]	@ zero_extendqisi2
 105 003a 237A     		ldrb	r3, [r4, #8]	@ zero_extendqisi2
  70:Core/Src/test.c ****         {
 106              		.loc 1 70 14 view .LVU20
 107 003c 9A42     		cmp	r2, r3
 108 003e E7D8     		bhi	.L5
  70:Core/Src/test.c ****         {
 109              		.loc 1 70 18 discriminator 1 view .LVU21
 110 0040 A278     		ldrb	r2, [r4, #2]	@ zero_extendqisi2
 111 0042 9342     		cmp	r3, r2
 112 0044 E4D8     		bhi	.L5
  70:Core/Src/test.c ****         {
 113              		.loc 1 70 18 discriminator 2 view .LVU22
 114 0046 6278     		ldrb	r2, [r4, #1]	@ zero_extendqisi2
 115 0048 637A     		ldrb	r3, [r4, #9]	@ zero_extendqisi2
  70:Core/Src/test.c ****         {
 116              		.loc 1 70 16 discriminator 2 view .LVU23
 117 004a 9A42     		cmp	r2, r3
 118 004c E0D8     		bhi	.L5
  70:Core/Src/test.c ****         {
 119              		.loc 1 70 18 discriminator 3 view .LVU24
 120 004e E278     		ldrb	r2, [r4, #3]	@ zero_extendqisi2
 121 0050 9342     		cmp	r3, r2
 122 0052 DDD8     		bhi	.L5
 123 0054 03E0     		b	.L4
 124              	.L7:
 125              	.LBB3:
  77:Core/Src/test.c ****                     break;
 126              		.loc 1 77 21 is_stmt 1 view .LVU25
 127 0056 3146     		mov	r1, r6
 128 0058 0548     		ldr	r0, .L8
 129 005a FFF7FEFF 		bl	printf
 130              	.LVL7:
  78:Core/Src/test.c ****                 }
 131              		.loc 1 78 21 view .LVU26
 132              	.L4:
  78:Core/Src/test.c ****                 }
 133              		.loc 1 78 21 is_stmt 0 view .LVU27
 134              	.LBE3:
 187:Core/Src/test.c ****         }
 188:Core/Src/test.c **** 
ARM GAS  /var/folders/v_/kwz_t0cs68g1q1d733r227b80000gn/T//ccGToiUD.s 			page 7


 189:Core/Src/test.c ****     #if SIMULATION 
 190:Core/Src/test.c ****         //å‡ºæ¥ä¸ŠãŒã£ãŸè¿·è·¯ã‚’å‡ºåŠ›ã™ã‚‹
 191:Core/Src/test.c ****         //
 192:Core/Src/test.c ****         printf("æ¢ç´¢ã«è¦ã—ãŸæ­©æ•° : %u, ã‚¹ã‚¿ãƒ¼ãƒˆãƒãƒ¼ãƒ‰ã®é‡ã¿ : %u\r\n", count, maz
 193:Core/Src/test.c ****         printf("å¾—ã‚‰ã‚ŒãŸè¿·è·¯\r\n");
 194:Core/Src/test.c ****         printAllNode((maze));
 195:Core/Src/test.c ****         printAllWeight((maze), &(mouse->now.pos));
 196:Core/Src/test.c ****         //printf("9\r\n");
 197:Core/Src/test.c ****         printMatrix16ValueFromNode((maze)); //è‡ªåˆ†ã®è¿·è·¯ã‚’æ›´æ–°ã—ã¦ã„ãªã‹ã£ãŸ
 198:Core/Src/test.c ****         outputDataToFile(maze);
 199:Core/Src/test.c ****         //printf("10\r\n");
 200:Core/Src/test.c ****     #else 
 201:Core/Src/test.c ****         //å®Ÿç’°å¢ƒèµ°è¡Œ : //æœ€åˆã®61.5mmã®åŠ é€Ÿã‚³ãƒãƒ³ãƒ‰ã‚’ç™ºè¡Œ
 202:Core/Src/test.c ****         //ãƒ•ãƒ©ãƒƒã‚·ãƒ¥
 203:Core/Src/test.c ****         //åˆå›³
 204:Core/Src/test.c **** 
 205:Core/Src/test.c ****         //å¾…æ©Ÿ
 206:Core/Src/test.c ****         //è¿·è·¯å‡ºåŠ›
 207:Core/Src/test.c ****         printMatrix16ValueFromNode(maze);
 135              		.loc 1 207 9 is_stmt 1 view .LVU28
 136 005e 3846     		mov	r0, r7
 137 0060 FFF7FEFF 		bl	printMatrix16ValueFromNode
 138              	.LVL8:
 208:Core/Src/test.c ****     #endif
 209:Core/Src/test.c ****     printf("çµ‚äº†\r\n");
 139              		.loc 1 209 5 view .LVU29
 140 0064 0348     		ldr	r0, .L8+4
 141 0066 FFF7FEFF 		bl	puts
 142              	.LVL9:
 210:Core/Src/test.c ****     //break;
 211:Core/Src/test.c ****     //return true;
 212:Core/Src/test.c **** }
 143              		.loc 1 212 1 is_stmt 0 view .LVU30
 144 006a 03B0     		add	sp, sp, #12
 145              	.LCFI2:
 146              		.cfi_def_cfa_offset 20
 147              		@ sp needed
 148 006c F0BD     		pop	{r4, r5, r6, r7, pc}
 149              	.LVL10:
 150              	.L9:
 151              		.loc 1 212 1 view .LVU31
 152 006e 00BF     		.align	2
 153              	.L8:
 154 0070 00000000 		.word	.LC0
 155 0074 2C000000 		.word	.LC1
 156              		.cfi_endproc
 157              	.LFE3:
 159              		.section	.rodata.Fastest_Run.str1.4,"aMS",%progbits,1
 160              		.align	2
 161              	.LC2:
 162 0000 E78FBEE3 		.ascii	"\347\217\276\343\203\216\343\203\274\343\203\211   "
 162      838EE383 
 162      BCE38389 
 162      202020
 163 000f 20E9878D 		.ascii	" \351\207\215\343\201\277:%x\015\012            %s "
 163      E381BF3A 
 163      25780D0A 
ARM GAS  /var/folders/v_/kwz_t0cs68g1q1d733r227b80000gn/T//ccGToiUD.s 			page 8


 163      20202020 
 163      20202020 
 164 002a 783A2575 		.ascii	"x:%u, y:%u\015\012            \344\276\265\345\205\245"
 164      2C20793A 
 164      25750D0A 
 164      20202020 
 164      20202020 
 165 0048 E696B9E8 		.ascii	"\346\226\271\350\247\222:%d, x:%d, y:%d\015\012\000"
 165      A7923A25 
 165      642C2078 
 165      3A25642C 
 165      20793A25 
 166              		.align	2
 167              	.LC3:
 168 0060 E6ACA1E3 		.ascii	"\346\254\241\343\203\216\343\203\274\343\203\211   "
 168      838EE383 
 168      BCE38389 
 168      202020
 169 006f 20E9878D 		.ascii	" \351\207\215\343\201\277:%x\015\012            %s "
 169      E381BF3A 
 169      25780D0A 
 169      20202020 
 169      20202020 
 170 008a 783A2575 		.ascii	"x:%u, y:%u\015\012            \000"
 170      2C20793A 
 170      25750D0A 
 170      20202020 
 170      20202020 
 171 00a3 00       		.align	2
 172              	.LC4:
 173 00a4 E4BEB5E5 		.ascii	"\344\276\265\345\205\245\346\226\271\350\247\222:%d"
 173      85A5E696 
 173      B9E8A792 
 173      3A2564
 174 00b3 2C20783A 		.ascii	", x:%d, y:%d\015\012\015\012\000"
 174      25642C20 
 174      793A2564 
 174      0D0A0D0A 
 174      00
 175              		.align	2
 176              	.LC5:
 177 00c4 E69C80E7 		.ascii	"\346\234\200\347\237\255\350\265\260\350\241\214\347"
 177      9FADE8B5 
 177      B0E8A18C 
 177      E7
 178 00d1 B582E4BA 		.ascii	"\265\202\344\272\206: \343\201\213\343\201\213\343\201"
 178      863A20E3 
 178      818BE381 
 178      8BE381
 179 00e0 A3E3819F 		.ascii	"\243\343\201\237\346\255\251\346\225\260: %d, \343\202"
 179      E6ADA9E6 
 179      95B03A20 
 179      25642C20 
 179      E382
 180 00f2 B9E382BF 		.ascii	"\271\343\202\277\343\203\274\343\203\210\343\203\216"
 180      E383BCE3 
 180      8388E383 
ARM GAS  /var/folders/v_/kwz_t0cs68g1q1d733r227b80000gn/T//ccGToiUD.s 			page 9


 180      8E
 181 00ff E383BCE3 		.ascii	"\343\203\274\343\203\211\343\201\256\351\207\215\343"
 181      8389E381 
 181      AEE9878D 
 181      E3
 182 010c 81BF3A20 		.ascii	"\201\277: %d\015\012\000"
 182      25640D0A 
 182      00
 183              		.section	.text.Fastest_Run,"ax",%progbits
 184              		.align	1
 185              		.global	Fastest_Run
 186              		.syntax unified
 187              		.thumb
 188              		.thumb_func
 189              		.fpu fpv4-sp-d16
 191              	Fastest_Run:
 192              	.LVL11:
 193              	.LFB4:
 213:Core/Src/test.c **** void Fastest_Run(maze_node *maze, profile *mouse, state *route_log)
 214:Core/Src/test.c **** {
 194              		.loc 1 214 1 is_stmt 1 view -0
 195              		.cfi_startproc
 196              		@ args = 0, pretend = 0, frame = 8
 197              		@ frame_needed = 0, uses_anonymous_args = 0
 198              		.loc 1 214 1 is_stmt 0 view .LVU33
 199 0000 2DE9F041 		push	{r4, r5, r6, r7, r8, lr}
 200              	.LCFI3:
 201              		.cfi_def_cfa_offset 24
 202              		.cfi_offset 4, -24
 203              		.cfi_offset 5, -20
 204              		.cfi_offset 6, -16
 205              		.cfi_offset 7, -12
 206              		.cfi_offset 8, -8
 207              		.cfi_offset 14, -4
 208 0004 86B0     		sub	sp, sp, #24
 209              	.LCFI4:
 210              		.cfi_def_cfa_offset 48
 211 0006 0546     		mov	r5, r0
 212 0008 0C46     		mov	r4, r1
 213 000a 1746     		mov	r7, r2
 215:Core/Src/test.c ****     
 216:Core/Src/test.c ****     //maze
 217:Core/Src/test.c ****     //å£æƒ…å ±ã®å…¥ã£ãŸè¿·è·¯ã‚’å–å¾—
 218:Core/Src/test.c ****     //è©•ä¾¡å€¤ãƒãƒƒãƒ—ã ã‘åˆæœŸåŒ–
 219:Core/Src/test.c ****     updateAllNodeWeight(maze,GOAL_X,GOAL_Y,GOAL_SIZE_X,GOAL_SIZE_Y,0x03);
 214              		.loc 1 219 5 is_stmt 1 view .LVU34
 215 000c 0323     		movs	r3, #3
 216 000e 0193     		str	r3, [sp, #4]
 217 0010 0223     		movs	r3, #2
 218 0012 0093     		str	r3, [sp]
 219 0014 0922     		movs	r2, #9
 220              	.LVL12:
 221              		.loc 1 219 5 is_stmt 0 view .LVU35
 222 0016 1146     		mov	r1, r2
 223              	.LVL13:
 224              		.loc 1 219 5 view .LVU36
 225 0018 FFF7FEFF 		bl	updateAllNodeWeight
ARM GAS  /var/folders/v_/kwz_t0cs68g1q1d733r227b80000gn/T//ccGToiUD.s 			page 10


 226              	.LVL14:
 220:Core/Src/test.c ****     //mouse
 221:Core/Src/test.c ****     //ãƒ—ãƒ­ãƒ•ã‚£ãƒ¼ãƒ«ã®åˆæœŸåŒ–
 222:Core/Src/test.c ****     initProfile(mouse, maze);
 227              		.loc 1 222 5 is_stmt 1 view .LVU37
 228 001c 2946     		mov	r1, r5
 229 001e 2046     		mov	r0, r4
 230 0020 FFF7FEFF 		bl	initProfile
 231              	.LVL15:
 223:Core/Src/test.c ****     //ç†æƒ³ã¯ã€ã‚´ãƒ¼ãƒ«ã¾ã§é‡ã¿æ›´æ–°ãªã—ã§ã€ã‚³ãƒãƒ³ãƒ‰ã«ã‚ˆã‚‹ãƒ¢ãƒ¼ã‚¿åˆ¶å¾¡ã®ã¿
 224:Core/Src/test.c ****     //ã‚·ãƒŸãƒ¥ãƒ¬ãƒ¼ã‚·ãƒ§ãƒ³ã®1stã‚¹ãƒ†ãƒƒãƒ—ã¨ã—ã¦ã¯ã€é‡ã¿æ›´æ–°ç„¡ã—ã§ãƒãƒ¼ãƒ‰é¸æŠ
 225:Core/Src/test.c ****     
 226:Core/Src/test.c ****     //æœ€åˆã®åŠ é€Ÿã‚³ãƒãƒ³ãƒ‰
 227:Core/Src/test.c ****     int cnt=0;
 232              		.loc 1 227 5 view .LVU38
 228:Core/Src/test.c ****     
 229:Core/Src/test.c ****     
 230:Core/Src/test.c ****     while(! ((mouse->goal_lesser.x <= mouse->next.pos.x && mouse->next.pos.x <= mouse->goal_larger.
 233              		.loc 1 230 5 view .LVU39
 227:Core/Src/test.c ****     
 234              		.loc 1 227 9 is_stmt 0 view .LVU40
 235 0024 0026     		movs	r6, #0
 236              		.loc 1 230 10 view .LVU41
 237 0026 56E0     		b	.L11
 238              	.LVL16:
 239              	.L14:
 240              	.LBB4:
 231:Core/Src/test.c ****     {
 232:Core/Src/test.c ****         shiftState(mouse);
 241              		.loc 1 232 9 is_stmt 1 view .LVU42
 242 0028 2046     		mov	r0, r4
 243 002a FFF7FEFF 		bl	shiftState
 244              	.LVL17:
 233:Core/Src/test.c ****         updateAllNodeWeight(maze, mouse->goal_lesser.x, mouse->goal_lesser.y, GOAL_SIZE_X, GOAL_SIZ
 245              		.loc 1 233 9 view .LVU43
 246 002e 0323     		movs	r3, #3
 247 0030 0193     		str	r3, [sp, #4]
 248 0032 0223     		movs	r3, #2
 249 0034 0093     		str	r3, [sp]
 250 0036 6278     		ldrb	r2, [r4, #1]	@ zero_extendqisi2
 251 0038 2178     		ldrb	r1, [r4]	@ zero_extendqisi2
 252 003a 2846     		mov	r0, r5
 253 003c FFF7FEFF 		bl	updateAllNodeWeight
 254              	.LVL18:
 234:Core/Src/test.c ****         mouse->now.node = getNodeInfo(maze,mouse->now.pos.x,mouse->now.pos.y, mouse->now.car);
 255              		.loc 1 234 9 view .LVU44
 256              		.loc 1 234 27 is_stmt 0 view .LVU45
 257 0040 A37A     		ldrb	r3, [r4, #10]	@ zero_extendqisi2
 258 0042 627A     		ldrb	r2, [r4, #9]	@ zero_extendqisi2
 259 0044 217A     		ldrb	r1, [r4, #8]	@ zero_extendqisi2
 260 0046 2846     		mov	r0, r5
 261 0048 FFF7FEFF 		bl	getNodeInfo
 262              	.LVL19:
 263              		.loc 1 234 25 view .LVU46
 264 004c 2061     		str	r0, [r4, #16]
 235:Core/Src/test.c ****         //é¸ã‚“ã ãƒãƒ¼ãƒ‰ã¨ã€è¿·è·¯ä¸Šã®ãƒãƒ¼ãƒ‰ã®ã€ã‚¢ãƒ‰ãƒ¬ã‚¹ãŒä¸€è‡´ã—ã¦ã„ã‚Œã°OK
 236:Core/Src/test.c ****         char r[]="è¡Œ";
ARM GAS  /var/folders/v_/kwz_t0cs68g1q1d733r227b80000gn/T//ccGToiUD.s 			page 11


 265              		.loc 1 236 9 is_stmt 1 view .LVU47
 266              		.loc 1 236 14 is_stmt 0 view .LVU48
 267 004e 334B     		ldr	r3, .L18
 268 0050 0493     		str	r3, [sp, #16]
 237:Core/Src/test.c ****         char c[]="åˆ—";
 269              		.loc 1 237 9 is_stmt 1 view .LVU49
 270              		.loc 1 237 14 is_stmt 0 view .LVU50
 271 0052 03F52E23 		add	r3, r3, #712704
 272 0056 03F2FD63 		addw	r3, r3, #1789
 273 005a 0593     		str	r3, [sp, #20]
 238:Core/Src/test.c ****          
 239:Core/Src/test.c ****         
 240:Core/Src/test.c **** 
 241:Core/Src/test.c ****         
 242:Core/Src/test.c ****         printf("ç¾ãƒãƒ¼ãƒ‰    é‡ã¿:%x\r\n            %s x:%u, y:%u\r\n            ä¾µå…¥æ–¹è§’:
 274              		.loc 1 242 9 is_stmt 1 view .LVU51
 275              		.loc 1 242 135 is_stmt 0 view .LVU52
 276 005c 4188     		ldrh	r1, [r0, #2]
 277              		.loc 1 242 161 view .LVU53
 278 005e 4379     		ldrb	r3, [r0, #5]	@ zero_extendqisi2
 279              		.loc 1 242 9 view .LVU54
 280 0060 002B     		cmp	r3, #0
 281 0062 56D0     		beq	.L15
 282 0064 05AA     		add	r2, sp, #20
 283              	.L12:
 284              		.loc 1 242 199 discriminator 4 view .LVU55
 285 0066 8379     		ldrb	r3, [r0, #6]	@ zero_extendqisi2
 286              		.loc 1 242 223 discriminator 4 view .LVU56
 287 0068 C079     		ldrb	r0, [r0, #7]	@ zero_extendqisi2
 288              		.loc 1 242 237 discriminator 4 view .LVU57
 289 006a 94F80AC0 		ldrb	ip, [r4, #10]	@ zero_extendqisi2
 290              		.loc 1 242 257 discriminator 4 view .LVU58
 291 006e 94F808E0 		ldrb	lr, [r4, #8]	@ zero_extendqisi2
 292              		.loc 1 242 274 discriminator 4 view .LVU59
 293 0072 94F80980 		ldrb	r8, [r4, #9]	@ zero_extendqisi2
 294              		.loc 1 242 9 discriminator 4 view .LVU60
 295 0076 CDF80C80 		str	r8, [sp, #12]
 296 007a CDF808E0 		str	lr, [sp, #8]
 297 007e CDF804C0 		str	ip, [sp, #4]
 298 0082 0090     		str	r0, [sp]
 299 0084 2648     		ldr	r0, .L18+4
 300 0086 FFF7FEFF 		bl	printf
 301              	.LVL20:
 243:Core/Src/test.c ****         //updateAllNodeWeight(&maze, mouse->goal_lesser.x, mouse->goal_lesser.y, GOAL_SIZE_X, GOAL_
 244:Core/Src/test.c ****         mouse->next.node = getNextNode(maze, mouse->now.car, mouse->now.node, 0x03);//ã“ã‚Œã‚‰ã®å
 302              		.loc 1 244 9 is_stmt 1 discriminator 4 view .LVU61
 303              		.loc 1 244 28 is_stmt 0 discriminator 4 view .LVU62
 304 008a 0323     		movs	r3, #3
 305 008c 2269     		ldr	r2, [r4, #16]
 306 008e A17A     		ldrb	r1, [r4, #10]	@ zero_extendqisi2
 307 0090 2846     		mov	r0, r5
 308 0092 FFF7FEFF 		bl	getNextNode
 309              	.LVL21:
 310              		.loc 1 244 26 discriminator 4 view .LVU63
 311 0096 E061     		str	r0, [r4, #28]
 245:Core/Src/test.c ****         //char rcnext[2] = (mouse->next.node->rc == 1) ? "åˆ—" : "è¡Œ";
 246:Core/Src/test.c ****         printf("æ¬¡ãƒãƒ¼ãƒ‰    é‡ã¿:%x\r\n            %s x:%u, y:%u\r\n            ", mouse->nex
ARM GAS  /var/folders/v_/kwz_t0cs68g1q1d733r227b80000gn/T//ccGToiUD.s 			page 12


 312              		.loc 1 246 9 is_stmt 1 discriminator 4 view .LVU64
 313              		.loc 1 246 106 is_stmt 0 discriminator 4 view .LVU65
 314 0098 4188     		ldrh	r1, [r0, #2]
 315              		.loc 1 246 133 discriminator 4 view .LVU66
 316 009a 4379     		ldrb	r3, [r0, #5]	@ zero_extendqisi2
 317              		.loc 1 246 9 discriminator 4 view .LVU67
 318 009c 002B     		cmp	r3, #0
 319 009e 3AD0     		beq	.L16
 320              		.loc 1 246 9 view .LVU68
 321 00a0 05AA     		add	r2, sp, #20
 322              	.L13:
 323              		.loc 1 246 173 discriminator 4 view .LVU69
 324 00a2 8379     		ldrb	r3, [r0, #6]	@ zero_extendqisi2
 325              		.loc 1 246 198 discriminator 4 view .LVU70
 326 00a4 C079     		ldrb	r0, [r0, #7]	@ zero_extendqisi2
 327              		.loc 1 246 9 discriminator 4 view .LVU71
 328 00a6 0090     		str	r0, [sp]
 329 00a8 1E48     		ldr	r0, .L18+8
 330 00aa FFF7FEFF 		bl	printf
 331              	.LVL22:
 247:Core/Src/test.c ****         
 248:Core/Src/test.c ****         getNextState(&(mouse->now),&(mouse->next),mouse->next.node);
 332              		.loc 1 248 9 is_stmt 1 discriminator 4 view .LVU72
 333 00ae 04F10808 		add	r8, r4, #8
 334 00b2 E269     		ldr	r2, [r4, #28]
 335 00b4 04F11401 		add	r1, r4, #20
 336 00b8 4046     		mov	r0, r8
 337 00ba FFF7FEFF 		bl	getNextState
 338              	.LVL23:
 249:Core/Src/test.c ****         printf("ä¾µå…¥æ–¹è§’:%d, x:%d, y:%d\r\n\r\n",mouse->next.car, mouse->next.pos.x,mouse->next
 339              		.loc 1 249 9 discriminator 4 view .LVU73
 340 00be 637D     		ldrb	r3, [r4, #21]	@ zero_extendqisi2
 341 00c0 227D     		ldrb	r2, [r4, #20]	@ zero_extendqisi2
 342 00c2 A17D     		ldrb	r1, [r4, #22]	@ zero_extendqisi2
 343 00c4 1848     		ldr	r0, .L18+12
 344 00c6 FFF7FEFF 		bl	printf
 345              	.LVL24:
 250:Core/Src/test.c ****         //ãƒ‡ãƒãƒƒã‚°ç”¨
 251:Core/Src/test.c ****         //route_log[cnt].node = mouse->now.node;
 252:Core/Src/test.c ****         //printf("ã‚: %p\r\n", route_log[cnt].node);
 253:Core/Src/test.c ****         getRouteFastRun( route_log, &(mouse->now), cnt);
 346              		.loc 1 253 9 discriminator 4 view .LVU74
 347 00ca 3246     		mov	r2, r6
 348 00cc 4146     		mov	r1, r8
 349 00ce 3846     		mov	r0, r7
 350 00d0 FFF7FEFF 		bl	getRouteFastRun
 351              	.LVL25:
 254:Core/Src/test.c ****         cnt++;
 352              		.loc 1 254 9 discriminator 4 view .LVU75
 353              		.loc 1 254 12 is_stmt 0 discriminator 4 view .LVU76
 354 00d4 0136     		adds	r6, r6, #1
 355              	.LVL26:
 356              	.L11:
 357              		.loc 1 254 12 discriminator 4 view .LVU77
 358              	.LBE4:
 230:Core/Src/test.c ****     {
 359              		.loc 1 230 10 is_stmt 1 view .LVU78
ARM GAS  /var/folders/v_/kwz_t0cs68g1q1d733r227b80000gn/T//ccGToiUD.s 			page 13


 230:Core/Src/test.c ****     {
 360              		.loc 1 230 33 is_stmt 0 view .LVU79
 361 00d6 2278     		ldrb	r2, [r4]	@ zero_extendqisi2
 230:Core/Src/test.c ****     {
 362              		.loc 1 230 54 view .LVU80
 363 00d8 237D     		ldrb	r3, [r4, #20]	@ zero_extendqisi2
 230:Core/Src/test.c ****     {
 364              		.loc 1 230 10 view .LVU81
 365 00da 9A42     		cmp	r2, r3
 366 00dc A4D8     		bhi	.L14
 230:Core/Src/test.c ****     {
 367              		.loc 1 230 99 discriminator 1 view .LVU82
 368 00de A278     		ldrb	r2, [r4, #2]	@ zero_extendqisi2
 230:Core/Src/test.c ****     {
 369              		.loc 1 230 57 discriminator 1 view .LVU83
 370 00e0 9342     		cmp	r3, r2
 371 00e2 A1D8     		bhi	.L14
 230:Core/Src/test.c ****     {
 372              		.loc 1 230 125 discriminator 2 view .LVU84
 373 00e4 6278     		ldrb	r2, [r4, #1]	@ zero_extendqisi2
 230:Core/Src/test.c ****     {
 374              		.loc 1 230 146 discriminator 2 view .LVU85
 375 00e6 637D     		ldrb	r3, [r4, #21]	@ zero_extendqisi2
 230:Core/Src/test.c ****     {
 376              		.loc 1 230 11 discriminator 2 view .LVU86
 377 00e8 9A42     		cmp	r2, r3
 378 00ea 9DD8     		bhi	.L14
 230:Core/Src/test.c ****     {
 379              		.loc 1 230 191 discriminator 3 view .LVU87
 380 00ec E278     		ldrb	r2, [r4, #3]	@ zero_extendqisi2
 230:Core/Src/test.c ****     {
 381              		.loc 1 230 149 discriminator 3 view .LVU88
 382 00ee 9342     		cmp	r3, r2
 383 00f0 9AD8     		bhi	.L14
 255:Core/Src/test.c ****         // if(cnt == 5) break;
 256:Core/Src/test.c ****     }
 257:Core/Src/test.c ****     printAllWeight(maze, &(mouse->now.pos));
 384              		.loc 1 257 5 is_stmt 1 view .LVU89
 385 00f2 04F10801 		add	r1, r4, #8
 386 00f6 2846     		mov	r0, r5
 387 00f8 FFF7FEFF 		bl	printAllWeight
 388              	.LVL27:
 258:Core/Src/test.c ****     outputDataToFile(maze);
 389              		.loc 1 258 5 view .LVU90
 390 00fc 2846     		mov	r0, r5
 391 00fe FFF7FEFF 		bl	outputDataToFile
 392              	.LVL28:
 259:Core/Src/test.c ****     printf("æœ€çŸ­èµ°è¡Œçµ‚äº†: ã‹ã‹ã£ãŸæ­©æ•°: %d, ã‚¹ã‚¿ãƒ¼ãƒˆãƒãƒ¼ãƒ‰ã®é‡ã¿: %d\r\n",cnt
 393              		.loc 1 259 5 view .LVU91
 394 0102 6A89     		ldrh	r2, [r5, #10]
 395 0104 3146     		mov	r1, r6
 396 0106 0948     		ldr	r0, .L18+16
 397 0108 FFF7FEFF 		bl	printf
 398              	.LVL29:
 260:Core/Src/test.c **** 
 261:Core/Src/test.c **** }
 399              		.loc 1 261 1 is_stmt 0 view .LVU92
ARM GAS  /var/folders/v_/kwz_t0cs68g1q1d733r227b80000gn/T//ccGToiUD.s 			page 14


 400 010c 06B0     		add	sp, sp, #24
 401              	.LCFI5:
 402              		.cfi_remember_state
 403              		.cfi_def_cfa_offset 24
 404              		@ sp needed
 405 010e BDE8F081 		pop	{r4, r5, r6, r7, r8, pc}
 406              	.LVL30:
 407              	.L15:
 408              	.LCFI6:
 409              		.cfi_restore_state
 410              	.LBB5:
 242:Core/Src/test.c ****         //updateAllNodeWeight(&maze, mouse->goal_lesser.x, mouse->goal_lesser.y, GOAL_SIZE_X, GOAL_
 411              		.loc 1 242 9 view .LVU93
 412 0112 04AA     		add	r2, sp, #16
 413 0114 A7E7     		b	.L12
 414              	.L16:
 246:Core/Src/test.c ****         
 415              		.loc 1 246 9 view .LVU94
 416 0116 04AA     		add	r2, sp, #16
 417 0118 C3E7     		b	.L13
 418              	.L19:
 419 011a 00BF     		.align	2
 420              	.L18:
 421 011c E8A18C00 		.word	9216488
 422 0120 00000000 		.word	.LC2
 423 0124 60000000 		.word	.LC3
 424 0128 A4000000 		.word	.LC4
 425 012c C4000000 		.word	.LC5
 426              	.LBE5:
 427              		.cfi_endproc
 428              	.LFE4:
 430              		.text
 431              	.Letext0:
 432              		.file 2 "/usr/local/Cellar/arm-none-eabi-gcc/10.3-2021.07/gcc/arm-none-eabi/include/machine/_defau
 433              		.file 3 "/usr/local/Cellar/arm-none-eabi-gcc/10.3-2021.07/gcc/arm-none-eabi/include/sys/_stdint.h"
 434              		.file 4 "Core/Inc/MazeLib.h"
 435              		.file 5 "/usr/local/Cellar/arm-none-eabi-gcc/10.3-2021.07/gcc/arm-none-eabi/include/stdio.h"
 436              		.file 6 "<built-in>"
ARM GAS  /var/folders/v_/kwz_t0cs68g1q1d733r227b80000gn/T//ccGToiUD.s 			page 15

