ARM GAS  C:\Users\leopi\AppData\Local\Temp\ccOTCwLg.s 			page 1


   1              		.cpu cortex-m4
   2              		.arch armv7e-m
   3              		.fpu fpv4-sp-d16
   4              		.eabi_attribute 27, 1
   5              		.eabi_attribute 28, 1
   6              		.eabi_attribute 20, 1
   7              		.eabi_attribute 21, 1
   8              		.eabi_attribute 23, 3
   9              		.eabi_attribute 24, 1
  10              		.eabi_attribute 25, 1
  11              		.eabi_attribute 26, 1
  12              		.eabi_attribute 30, 1
  13              		.eabi_attribute 34, 1
  14              		.eabi_attribute 18, 4
  15              		.file	"UI.c"
  16              		.text
  17              	.Ltext0:
  18              		.cfi_sections	.debug_frame
  19              		.section	.text.HAL_GPIO_EXTI_Callback,"ax",%progbits
  20              		.align	1
  21              		.global	HAL_GPIO_EXTI_Callback
  22              		.syntax unified
  23              		.thumb
  24              		.thumb_func
  26              	HAL_GPIO_EXTI_Callback:
  27              	.LVL0:
  28              	.LFB238:
  29              		.file 1 "Core/Src/Tools/UI.c"
   1:Core/Src/Tools/UI.c **** /*
   2:Core/Src/Tools/UI.c ****  * UI.c
   3:Core/Src/Tools/UI.c ****  *
   4:Core/Src/Tools/UI.c ****  *  Created on: Feb 12, 2022
   5:Core/Src/Tools/UI.c ****  *      Author: leopi
   6:Core/Src/Tools/UI.c ****  */
   7:Core/Src/Tools/UI.c **** 
   8:Core/Src/Tools/UI.c **** //„Åì„ÅÆ„Éï„Ç°„Ç§„É´„ÇíÂà•„ÅÆ„Éû„Ç¶„Çπ„Åß‰Ωø„ÅÜ„Å®„Åç„Å´„Å©„Åì„ÇíÂ§â„Åà„Çã„Åì„Å®„Å´„Å™„Çã„ÅÆ„Åã„Å®„
   9:Core/Src/Tools/UI.c **** #include <MicroMouse.h>
  10:Core/Src/Tools/UI.c **** #include "UI.h"
  11:Core/Src/Tools/UI.c **** 
  12:Core/Src/Tools/UI.c **** //„Éè„Éº„Éâ„Ç¶„Çß„Ç¢„ÇíÊìç‰Ωú„Åô„ÇãÂá¶ÁêÜ„Åã„Çâ„É¶„Éº„Ç∂„Ç§„É≥„Çø„Éï„Çß„Éº„Çπ„ÇíÁµÑ„ÅøÁ´ã„Å¶„Çã
  13:Core/Src/Tools/UI.c **** 
  14:Core/Src/Tools/UI.c **** 
  15:Core/Src/Tools/UI.c **** 
  16:Core/Src/Tools/UI.c **** #include "IEH2_4096.h"		//„Ç®„É≥„Ç≥„Éº„ÉÄ
  17:Core/Src/Tools/UI.c **** #include "mouse_ADC.h"
  18:Core/Src/Tools/UI.c **** #include "LED_Driver.h"
  19:Core/Src/Tools/UI.c **** #include "IR_Emitter.h"	//Áô∫ÂÖâÂÅ¥„ÅÆÂá¶ÁêÜ„ÄÇ„Çø„Ç§„Éû„Çπ„Çø„Éº„Éà„Å†„Åë„Åã„Å™„Éº„ÄÇ
  20:Core/Src/Tools/UI.c **** #include "Motor_Driver.h"//„É¢„Éº„Çø„ÅÆË®≠ÂÆö„Éò„ÉÉ„ÉÄ
  21:Core/Src/Tools/UI.c **** 
  22:Core/Src/Tools/UI.c **** #include <stdio.h>
  23:Core/Src/Tools/UI.c **** #include <math.h>
  24:Core/Src/Tools/UI.c **** //‰∏≠Èñì„É¢„Ç∏„É•„Éº„É´„ÄÇ
  25:Core/Src/Tools/UI.c **** int gpio_callback_count=0;
  26:Core/Src/Tools/UI.c **** void HAL_GPIO_EXTI_Callback(uint16_t GPIO_Pin){
  30              		.loc 1 26 47 view -0
  31              		.cfi_startproc
  32              		@ args = 0, pretend = 0, frame = 0
ARM GAS  C:\Users\leopi\AppData\Local\Temp\ccOTCwLg.s 			page 2


  33              		@ frame_needed = 0, uses_anonymous_args = 0
  34              		@ link register save eliminated.
  27:Core/Src/Tools/UI.c **** 	if(GPIO_Pin == GPIO_PIN_12)
  35              		.loc 1 27 2 view .LVU1
  36              		.loc 1 27 4 is_stmt 0 view .LVU2
  37 0000 B0F5805F 		cmp	r0, #4096
  38 0004 00D0     		beq	.L3
  39              	.L1:
  28:Core/Src/Tools/UI.c **** 	{
  29:Core/Src/Tools/UI.c **** 	  gpio_callback_count++;
  30:Core/Src/Tools/UI.c **** 	  //ChangeLED(gpio_callback_count);
  31:Core/Src/Tools/UI.c **** 
  32:Core/Src/Tools/UI.c **** 	  if(gpio_callback_count > 1) gpio_callback_count=0;
  33:Core/Src/Tools/UI.c **** 	}
  34:Core/Src/Tools/UI.c **** }
  40              		.loc 1 34 1 view .LVU3
  41 0006 7047     		bx	lr
  42              	.L3:
  29:Core/Src/Tools/UI.c **** 	  //ChangeLED(gpio_callback_count);
  43              		.loc 1 29 4 is_stmt 1 view .LVU4
  29:Core/Src/Tools/UI.c **** 	  //ChangeLED(gpio_callback_count);
  44              		.loc 1 29 23 is_stmt 0 view .LVU5
  45 0008 044A     		ldr	r2, .L4
  46 000a 1368     		ldr	r3, [r2]
  47 000c 0133     		adds	r3, r3, #1
  48 000e 1360     		str	r3, [r2]
  32:Core/Src/Tools/UI.c **** 	}
  49              		.loc 1 32 4 is_stmt 1 view .LVU6
  32:Core/Src/Tools/UI.c **** 	}
  50              		.loc 1 32 6 is_stmt 0 view .LVU7
  51 0010 012B     		cmp	r3, #1
  52 0012 F8DD     		ble	.L1
  32:Core/Src/Tools/UI.c **** 	}
  53              		.loc 1 32 32 is_stmt 1 discriminator 1 view .LVU8
  32:Core/Src/Tools/UI.c **** 	}
  54              		.loc 1 32 51 is_stmt 0 discriminator 1 view .LVU9
  55 0014 1346     		mov	r3, r2
  56 0016 0022     		movs	r2, #0
  57 0018 1A60     		str	r2, [r3]
  58              		.loc 1 34 1 discriminator 1 view .LVU10
  59 001a F4E7     		b	.L1
  60              	.L5:
  61              		.align	2
  62              	.L4:
  63 001c 00000000 		.word	.LANCHOR0
  64              		.cfi_endproc
  65              	.LFE238:
  67              		.section	.text.Signal,"ax",%progbits
  68              		.align	1
  69              		.global	Signal
  70              		.syntax unified
  71              		.thumb
  72              		.thumb_func
  74              	Signal:
  75              	.LVL1:
  76              	.LFB239:
  35:Core/Src/Tools/UI.c **** //„Ç®„É≥„Ç≥„Éº„ÉÄ„ÅØ„É¢„Éº„ÉâÈÅ∏ÊäûÊôÇ„Å´„ÅØÁõ¥„ÅßÂèñÂæó„Åó„Å°„ÇÉ„Å£„Å¶„Çà„ÅÑ„ÅÆ„ÅßÂºïÊï∞„Å´„Åó„Å™„
ARM GAS  C:\Users\leopi\AppData\Local\Temp\ccOTCwLg.s 			page 3


  36:Core/Src/Tools/UI.c **** //float Photo[4];
  37:Core/Src/Tools/UI.c **** 
  38:Core/Src/Tools/UI.c **** //led_driver
  39:Core/Src/Tools/UI.c **** void Signal(int8_t mode)
  40:Core/Src/Tools/UI.c **** {
  77              		.loc 1 40 1 is_stmt 1 view -0
  78              		.cfi_startproc
  79              		@ args = 0, pretend = 0, frame = 0
  80              		@ frame_needed = 0, uses_anonymous_args = 0
  81              		.loc 1 40 1 is_stmt 0 view .LVU12
  82 0000 38B5     		push	{r3, r4, r5, lr}
  83              	.LCFI0:
  84              		.cfi_def_cfa_offset 16
  85              		.cfi_offset 3, -16
  86              		.cfi_offset 4, -12
  87              		.cfi_offset 5, -8
  88              		.cfi_offset 14, -4
  89 0002 0546     		mov	r5, r0
  41:Core/Src/Tools/UI.c **** 	for(int i=0; i < 5; i++)
  90              		.loc 1 41 2 is_stmt 1 view .LVU13
  91              	.LBB2:
  92              		.loc 1 41 6 view .LVU14
  93              	.LVL2:
  94              		.loc 1 41 10 is_stmt 0 view .LVU15
  95 0004 0024     		movs	r4, #0
  96              		.loc 1 41 2 view .LVU16
  97 0006 0CE0     		b	.L7
  98              	.LVL3:
  99              	.L8:
  42:Core/Src/Tools/UI.c **** 	{
  43:Core/Src/Tools/UI.c **** 		ChangeLED(mode);
 100              		.loc 1 43 3 is_stmt 1 discriminator 3 view .LVU17
 101 0008 2846     		mov	r0, r5
 102 000a FFF7FEFF 		bl	ChangeLED
 103              	.LVL4:
  44:Core/Src/Tools/UI.c **** 		HAL_Delay(100);
 104              		.loc 1 44 3 discriminator 3 view .LVU18
 105 000e 6420     		movs	r0, #100
 106 0010 FFF7FEFF 		bl	HAL_Delay
 107              	.LVL5:
  45:Core/Src/Tools/UI.c **** 		ChangeLED(0);
 108              		.loc 1 45 3 discriminator 3 view .LVU19
 109 0014 0020     		movs	r0, #0
 110 0016 FFF7FEFF 		bl	ChangeLED
 111              	.LVL6:
  46:Core/Src/Tools/UI.c **** 		HAL_Delay(100);
 112              		.loc 1 46 3 discriminator 3 view .LVU20
 113 001a 6420     		movs	r0, #100
 114 001c FFF7FEFF 		bl	HAL_Delay
 115              	.LVL7:
  41:Core/Src/Tools/UI.c **** 	{
 116              		.loc 1 41 22 discriminator 3 view .LVU21
  41:Core/Src/Tools/UI.c **** 	{
 117              		.loc 1 41 23 is_stmt 0 discriminator 3 view .LVU22
 118 0020 0134     		adds	r4, r4, #1
 119              	.LVL8:
 120              	.L7:
ARM GAS  C:\Users\leopi\AppData\Local\Temp\ccOTCwLg.s 			page 4


  41:Core/Src/Tools/UI.c **** 	{
 121              		.loc 1 41 15 is_stmt 1 discriminator 1 view .LVU23
  41:Core/Src/Tools/UI.c **** 	{
 122              		.loc 1 41 2 is_stmt 0 discriminator 1 view .LVU24
 123 0022 042C     		cmp	r4, #4
 124 0024 F0DD     		ble	.L8
 125              	.LBE2:
  47:Core/Src/Tools/UI.c **** 	}
  48:Core/Src/Tools/UI.c **** }
 126              		.loc 1 48 1 view .LVU25
 127 0026 38BD     		pop	{r3, r4, r5, pc}
 128              		.loc 1 48 1 view .LVU26
 129              		.cfi_endproc
 130              	.LFE239:
 132              		.section	.rodata.BatteryCheck.str1.4,"aMS",%progbits,1
 133              		.align	2
 134              	.LC0:
 135 0000 25640D0A 		.ascii	"%d\015\012\000"
 135      00
 136              		.section	.text.BatteryCheck,"ax",%progbits
 137              		.align	1
 138              		.global	BatteryCheck
 139              		.syntax unified
 140              		.thumb
 141              		.thumb_func
 143              	BatteryCheck:
 144              	.LVL9:
 145              	.LFB240:
  49:Core/Src/Tools/UI.c **** 
  50:Core/Src/Tools/UI.c **** //battery_adc
  51:Core/Src/Tools/UI.c **** void BatteryCheck(int adc_data)
  52:Core/Src/Tools/UI.c **** {
 146              		.loc 1 52 1 is_stmt 1 view -0
 147              		.cfi_startproc
 148              		@ args = 0, pretend = 0, frame = 0
 149              		@ frame_needed = 0, uses_anonymous_args = 0
 150              		.loc 1 52 1 is_stmt 0 view .LVU28
 151 0000 10B5     		push	{r4, lr}
 152              	.LCFI1:
 153              		.cfi_def_cfa_offset 8
 154              		.cfi_offset 4, -8
 155              		.cfi_offset 14, -4
 156 0002 2DED028B 		vpush.64	{d8}
 157              	.LCFI2:
 158              		.cfi_def_cfa_offset 16
 159              		.cfi_offset 80, -16
 160              		.cfi_offset 81, -12
  53:Core/Src/Tools/UI.c **** 
  54:Core/Src/Tools/UI.c **** 	//„Åì„ÅÆ„ÅÇ„Åü„Çä„ÅÆ„Éè„Éº„Éâ„Ç¶„Çß„Ç¢ÊÉÖÂ†±„Çí‰∏ÄÊã¨„ÅßÊõ∏„ÅÑ„Å¶„Åó„Åæ„ÅÜ„ÄÇ
  55:Core/Src/Tools/UI.c **** 	float battery_voltage;//adc1[2] „Ç∞„É≠„Éº„Éê„É´„Å™ÂÄ§„ÅØ„Å©„Åì„Åã‰∏Ä„ÅãÊâÄ„ÅßÂëº„Å≥Âá∫„Åô
 161              		.loc 1 55 2 is_stmt 1 view .LVU29
  56:Core/Src/Tools/UI.c **** 	battery_voltage = ADCToBatteryVoltage( adc_data, V_SPLIT_NUM, PIN_V_MAX ,ADC_RESOLUTION );
 162              		.loc 1 56 2 view .LVU30
 163              		.loc 1 56 20 is_stmt 0 view .LVU31
 164 0006 9FED101A 		vldr.32	s2, .L12
 165 000a DFED100A 		vldr.32	s1, .L12+4
 166 000e B0EE080A 		vmov.f32	s0, #3.0e+0
ARM GAS  C:\Users\leopi\AppData\Local\Temp\ccOTCwLg.s 			page 5


 167 0012 FFF7FEFF 		bl	ADCToBatteryVoltage
 168              	.LVL10:
 169              		.loc 1 56 20 view .LVU32
 170 0016 B0EE408A 		vmov.f32	s16, s0
 171              	.LVL11:
  57:Core/Src/Tools/UI.c **** 
  58:Core/Src/Tools/UI.c **** 	int led_pattern_num = IntegerPower(2, LED_NUM); //led
 172              		.loc 1 58 2 is_stmt 1 view .LVU33
 173              		.loc 1 58 24 is_stmt 0 view .LVU34
 174 001a 0321     		movs	r1, #3
 175 001c 0220     		movs	r0, #2
 176 001e FFF7FEFF 		bl	IntegerPower
 177              	.LVL12:
  59:Core/Src/Tools/UI.c **** 
  60:Core/Src/Tools/UI.c **** 	int battery_level = GetBatteryLevel( battery_voltage, BATTERY_MIN, BATTERY_MAX, led_pattern_num);
 178              		.loc 1 60 2 is_stmt 1 view .LVU35
 179              		.loc 1 60 22 is_stmt 0 view .LVU36
 180 0022 9FED0B1A 		vldr.32	s2, .L12+8
 181 0026 DFED0B0A 		vldr.32	s1, .L12+12
 182 002a B0EE480A 		vmov.f32	s0, s16
 183 002e FFF7FEFF 		bl	GetBatteryLevel
 184              	.LVL13:
 185              		.loc 1 60 22 view .LVU37
 186 0032 0446     		mov	r4, r0
 187              	.LVL14:
  61:Core/Src/Tools/UI.c **** 
  62:Core/Src/Tools/UI.c **** 	printf("%d\r\n", battery_level);
 188              		.loc 1 62 2 is_stmt 1 view .LVU38
 189 0034 0146     		mov	r1, r0
 190 0036 0848     		ldr	r0, .L12+16
 191              	.LVL15:
 192              		.loc 1 62 2 is_stmt 0 view .LVU39
 193 0038 FFF7FEFF 		bl	printf
 194              	.LVL16:
  63:Core/Src/Tools/UI.c **** 	Signal( battery_level );
 195              		.loc 1 63 2 is_stmt 1 view .LVU40
 196 003c 60B2     		sxtb	r0, r4
 197 003e FFF7FEFF 		bl	Signal
 198              	.LVL17:
  64:Core/Src/Tools/UI.c **** }
 199              		.loc 1 64 1 is_stmt 0 view .LVU41
 200 0042 BDEC028B 		vldm	sp!, {d8}
 201              	.LCFI3:
 202              		.cfi_restore 80
 203              		.cfi_restore 81
 204              		.cfi_def_cfa_offset 8
 205              	.LVL18:
 206              		.loc 1 64 1 view .LVU42
 207 0046 10BD     		pop	{r4, pc}
 208              	.LVL19:
 209              	.L13:
 210              		.loc 1 64 1 view .LVU43
 211              		.align	2
 212              	.L12:
 213 0048 00008045 		.word	1166016512
 214 004c 33335340 		.word	1079194419
 215 0050 66660641 		.word	1090938470
ARM GAS  C:\Users\leopi\AppData\Local\Temp\ccOTCwLg.s 			page 6


 216 0054 6666E640 		.word	1088841318
 217 0058 00000000 		.word	.LC0
 218              		.cfi_endproc
 219              	.LFE240:
 221              		.section	.rodata.PhotoSwitch.str1.4,"aMS",%progbits,1
 222              		.align	2
 223              	.LC1:
 224 0000 61646332 		.ascii	"adc2[1] : %lu\015\012\000"
 224      5B315D20 
 224      3A20256C 
 224      750D0A00 
 225              		.section	.text.PhotoSwitch,"ax",%progbits
 226              		.align	1
 227              		.global	PhotoSwitch
 228              		.syntax unified
 229              		.thumb
 230              		.thumb_func
 232              	PhotoSwitch:
 233              	.LFB241:
  65:Core/Src/Tools/UI.c **** 
  66:Core/Src/Tools/UI.c **** //„Åì„ÅìÊõ∏„ÅÑ„Åü„ÇâÂ§ß‰∫ã„Å™Âá¶ÁêÜ„ÇíÊõ∏„ÅçÂßã„ÇÅ„Çâ„Çå„Çã
  67:Core/Src/Tools/UI.c **** //enc, emitter,receiver
  68:Core/Src/Tools/UI.c **** //Â£Å„Çª„É≥„Çµ„ÅÆ„Éá„Éº„Çø„Çí„Å©„ÅÜ„ÇÑ„Å£„Å¶„ÇÇ„Å£„Å¶„Åè„Çã„Åã„ÄÇÊßãÈÄ†‰Ωì„Å´„Åó„Å¶„Åä„ÅÑ„Å¶„Ç¢„É≠„
  69:Core/Src/Tools/UI.c **** void PhotoSwitch()
  70:Core/Src/Tools/UI.c **** {
 234              		.loc 1 70 1 is_stmt 1 view -0
 235              		.cfi_startproc
 236              		@ args = 0, pretend = 0, frame = 0
 237              		@ frame_needed = 0, uses_anonymous_args = 0
 238 0000 08B5     		push	{r3, lr}
 239              	.LCFI4:
 240              		.cfi_def_cfa_offset 8
 241              		.cfi_offset 3, -8
 242              		.cfi_offset 14, -4
  71:Core/Src/Tools/UI.c **** 	HAL_ADC_Start_DMA(&hadc2, (uint32_t *) adc2, 2);
 243              		.loc 1 71 2 view .LVU45
 244 0002 0222     		movs	r2, #2
 245 0004 0D49     		ldr	r1, .L18
 246 0006 0E48     		ldr	r0, .L18+4
 247 0008 FFF7FEFF 		bl	HAL_ADC_Start_DMA
 248              	.LVL20:
  72:Core/Src/Tools/UI.c **** 	//tim8„ÅÆdutyÊØî„Çí‰∏ã„Åí„Å¶ÈõªÊµÅÊ∂àË≤ª„ÇíÂâäÊ∏õ
  73:Core/Src/Tools/UI.c **** 	HAL_TIMEx_OCN_Start_IT(&htim8, TIM_CHANNEL_1);
 249              		.loc 1 73 2 view .LVU46
 250 000c 0021     		movs	r1, #0
 251 000e 0D48     		ldr	r0, .L18+8
 252 0010 FFF7FEFF 		bl	HAL_TIMEx_OCN_Start_IT
 253              	.LVL21:
  74:Core/Src/Tools/UI.c **** 
  75:Core/Src/Tools/UI.c **** 	while(adc2[1] < 200)
 254              		.loc 1 75 2 view .LVU47
 255              		.loc 1 75 7 is_stmt 0 view .LVU48
 256 0014 02E0     		b	.L15
 257              	.L16:
  76:Core/Src/Tools/UI.c **** 	{
  77:Core/Src/Tools/UI.c **** 		printf("adc2[1] : %lu\r\n", adc2[1]);
 258              		.loc 1 77 3 is_stmt 1 view .LVU49
ARM GAS  C:\Users\leopi\AppData\Local\Temp\ccOTCwLg.s 			page 7


 259 0016 0C48     		ldr	r0, .L18+12
 260 0018 FFF7FEFF 		bl	printf
 261              	.LVL22:
 262              	.L15:
  75:Core/Src/Tools/UI.c **** 	{
 263              		.loc 1 75 7 view .LVU50
  75:Core/Src/Tools/UI.c **** 	{
 264              		.loc 1 75 12 is_stmt 0 view .LVU51
 265 001c 074B     		ldr	r3, .L18
 266 001e 5968     		ldr	r1, [r3, #4]
  75:Core/Src/Tools/UI.c **** 	{
 267              		.loc 1 75 7 view .LVU52
 268 0020 C729     		cmp	r1, #199
 269 0022 F8D9     		bls	.L16
  78:Core/Src/Tools/UI.c **** 
  79:Core/Src/Tools/UI.c **** 	}
  80:Core/Src/Tools/UI.c **** 	HAL_ADC_Stop_DMA(&hadc2);
 270              		.loc 1 80 2 is_stmt 1 view .LVU53
 271 0024 0648     		ldr	r0, .L18+4
 272 0026 FFF7FEFF 		bl	HAL_ADC_Stop_DMA
 273              	.LVL23:
  81:Core/Src/Tools/UI.c **** 	HAL_TIMEx_OCN_Stop_IT(&htim8, TIM_CHANNEL_1);
 274              		.loc 1 81 2 view .LVU54
 275 002a 0021     		movs	r1, #0
 276 002c 0548     		ldr	r0, .L18+8
 277 002e FFF7FEFF 		bl	HAL_TIMEx_OCN_Stop_IT
 278              	.LVL24:
  82:Core/Src/Tools/UI.c **** 	Signal( 7 );
 279              		.loc 1 82 2 view .LVU55
 280 0032 0720     		movs	r0, #7
 281 0034 FFF7FEFF 		bl	Signal
 282              	.LVL25:
  83:Core/Src/Tools/UI.c **** }
 283              		.loc 1 83 1 is_stmt 0 view .LVU56
 284 0038 08BD     		pop	{r3, pc}
 285              	.L19:
 286 003a 00BF     		.align	2
 287              	.L18:
 288 003c 00000000 		.word	adc2
 289 0040 00000000 		.word	hadc2
 290 0044 00000000 		.word	htim8
 291 0048 00000000 		.word	.LC1
 292              		.cfi_endproc
 293              	.LFE241:
 295              		.section	.text.ModeSelect,"ax",%progbits
 296              		.align	1
 297              		.global	ModeSelect
 298              		.syntax unified
 299              		.thumb
 300              		.thumb_func
 302              	ModeSelect:
 303              	.LVL26:
 304              	.LFB242:
  84:Core/Src/Tools/UI.c **** 
  85:Core/Src/Tools/UI.c **** void ModeSelect(int8_t min, int8_t max, int8_t *pMode)
  86:Core/Src/Tools/UI.c **** {
 305              		.loc 1 86 1 is_stmt 1 view -0
ARM GAS  C:\Users\leopi\AppData\Local\Temp\ccOTCwLg.s 			page 8


 306              		.cfi_startproc
 307              		@ args = 0, pretend = 0, frame = 0
 308              		@ frame_needed = 0, uses_anonymous_args = 0
 309              		.loc 1 86 1 is_stmt 0 view .LVU58
 310 0000 F8B5     		push	{r3, r4, r5, r6, r7, lr}
 311              	.LCFI5:
 312              		.cfi_def_cfa_offset 24
 313              		.cfi_offset 3, -24
 314              		.cfi_offset 4, -20
 315              		.cfi_offset 5, -16
 316              		.cfi_offset 6, -12
 317              		.cfi_offset 7, -8
 318              		.cfi_offset 14, -4
 319 0002 2DED028B 		vpush.64	{d8}
 320              	.LCFI6:
 321              		.cfi_def_cfa_offset 32
 322              		.cfi_offset 80, -32
 323              		.cfi_offset 81, -28
 324 0006 0646     		mov	r6, r0
 325 0008 0D46     		mov	r5, r1
 326 000a 1446     		mov	r4, r2
  87:Core/Src/Tools/UI.c **** 	//„É°„Ç§„É≥„Éï„É≠„Éº„ÅßÂëº„Å≥Âá∫„Åô
  88:Core/Src/Tools/UI.c **** 	//0-7Áï™„ÅßË®≠ÂÆö
  89:Core/Src/Tools/UI.c **** 	//Ëµ∑ÂãïÊôÇ„Å´Âëº„Å∂
  90:Core/Src/Tools/UI.c **** 
  91:Core/Src/Tools/UI.c **** 	//„Ç®„É≥„Ç≥„Éº„ÉÄÈñãÂßã„ÄÇÂàùÊúüÂÄ§„Çª„ÉÉ„ÉàËæº„Åø
  92:Core/Src/Tools/UI.c **** 	HAL_TIM_Encoder_Start(&htim3,TIM_CHANNEL_1);
 327              		.loc 1 92 2 is_stmt 1 view .LVU59
 328 000c 2A4F     		ldr	r7, .L34
 329 000e 0021     		movs	r1, #0
 330              	.LVL27:
 331              		.loc 1 92 2 is_stmt 0 view .LVU60
 332 0010 3846     		mov	r0, r7
 333              	.LVL28:
 334              		.loc 1 92 2 view .LVU61
 335 0012 FFF7FEFF 		bl	HAL_TIM_Encoder_Start
 336              	.LVL29:
  93:Core/Src/Tools/UI.c **** 	HAL_TIM_Encoder_Start(&htim3,TIM_CHANNEL_2);
 337              		.loc 1 93 2 is_stmt 1 view .LVU62
 338 0016 0421     		movs	r1, #4
 339 0018 3846     		mov	r0, r7
 340 001a FFF7FEFF 		bl	HAL_TIM_Encoder_Start
 341              	.LVL30:
  94:Core/Src/Tools/UI.c **** 	//while‰∏≠„ÅßÈÅ∏Êäû
  95:Core/Src/Tools/UI.c **** 	*pMode=min;
 342              		.loc 1 95 2 view .LVU63
 343              		.loc 1 95 8 is_stmt 0 view .LVU64
 344 001e 2670     		strb	r6, [r4]
  96:Core/Src/Tools/UI.c **** 
  97:Core/Src/Tools/UI.c **** 	//Â£Å„Çª„É≥„Çµ„Éá„Éº„Çø„Çí„Å©„ÅÜ„ÇÇ„Å£„Å¶„Åè„Çã„Åã„ÄÇadc„ÅÆÁîüÂÄ§„ÇíÂÖ•„Çå„ÄÅÂùá„Åó„Å¶‰Ωø„ÅÜ„ÄÇÈñ¢
  98:Core/Src/Tools/UI.c **** 
  99:Core/Src/Tools/UI.c **** 	TIM3->CNT = INITIAL_PULSE;
 345              		.loc 1 99 2 is_stmt 1 view .LVU65
 346              		.loc 1 99 12 is_stmt 0 view .LVU66
 347 0020 264B     		ldr	r3, .L34+4
 348 0022 47F22F52 		movw	r2, #29999
 349 0026 5A62     		str	r2, [r3, #36]
ARM GAS  C:\Users\leopi\AppData\Local\Temp\ccOTCwLg.s 			page 9


 100:Core/Src/Tools/UI.c **** 	gpio_callback_count = 0;
 350              		.loc 1 100 2 is_stmt 1 view .LVU67
 351              		.loc 1 100 22 is_stmt 0 view .LVU68
 352 0028 254B     		ldr	r3, .L34+8
 353 002a 0022     		movs	r2, #0
 354 002c 1A60     		str	r2, [r3]
 101:Core/Src/Tools/UI.c **** 	int ENC3_LEFT;
 355              		.loc 1 101 2 is_stmt 1 view .LVU69
 102:Core/Src/Tools/UI.c **** 	while(gpio_callback_count == 0/**/) //ÂâçÂêë„Åç„ÅÆ
 356              		.loc 1 102 2 view .LVU70
 357              		.loc 1 102 7 is_stmt 0 view .LVU71
 358 002e 0EE0     		b	.L25
 359              	.LVL31:
 360              	.L24:
 103:Core/Src/Tools/UI.c **** 	{
 104:Core/Src/Tools/UI.c **** 		//printf("Photo[FR] : %f, ENC3 : %d\r\n", Photo[FR], ENC3_LEFT);
 105:Core/Src/Tools/UI.c **** 		//„Çª„É≥„Çµ„Éá„Éº„Çø„Çí‰∏ÄÂÄãÂèñÂæó„Åó„Å¶Êàª„ÇäÂÄ§„ÅßËøî„ÅôÈñ¢Êï∞„Çí‰Ωø„ÅÜ„ÄÇ
 106:Core/Src/Tools/UI.c **** 		  ENC3_LEFT = TIM3 -> CNT;	//„Åì„ÅÆ„Ç¢„É≠„Éº„Åå„Åô„Åß„Å´„Ç∞„É≠„Éº„Éê„É´ÁöÑ„Å™ÂÄ§„Å™„ÅÆ„Åß„ÄÅ„Çª„É
 107:Core/Src/Tools/UI.c **** 
 108:Core/Src/Tools/UI.c **** 		  if(INITIAL_PULSE + (ENCODER_PULSE * REDUCATION_RATIO) /4 <= ENC3_LEFT )
 109:Core/Src/Tools/UI.c **** 		  {
 110:Core/Src/Tools/UI.c **** 		  	  *pMode += 1;
 111:Core/Src/Tools/UI.c **** 		  	  if(*pMode > max)
 112:Core/Src/Tools/UI.c **** 		  	  {
 113:Core/Src/Tools/UI.c **** 		  		  *pMode = min;
 114:Core/Src/Tools/UI.c **** 		  	  }
 115:Core/Src/Tools/UI.c **** 		  	  ChangeLED(*pMode);
 361              		.loc 1 115 8 is_stmt 1 view .LVU72
 362 0030 94F90000 		ldrsb	r0, [r4]
 363 0034 FFF7FEFF 		bl	ChangeLED
 364              	.LVL32:
 116:Core/Src/Tools/UI.c **** 		  	  TIM3->CNT = INITIAL_PULSE;
 365              		.loc 1 116 8 view .LVU73
 366              		.loc 1 116 18 is_stmt 0 view .LVU74
 367 0038 204B     		ldr	r3, .L34+4
 368 003a 47F22F52 		movw	r2, #29999
 369 003e 5A62     		str	r2, [r3, #36]
 370              	.L22:
 117:Core/Src/Tools/UI.c **** 
 118:Core/Src/Tools/UI.c **** 		  }
 119:Core/Src/Tools/UI.c **** 		  if(INITIAL_PULSE - (ENCODER_PULSE * REDUCATION_RATIO) /4 >= ENC3_LEFT)
 371              		.loc 1 119 5 is_stmt 1 view .LVU75
 372              		.loc 1 119 7 is_stmt 0 view .LVU76
 373 0040 DFED207A 		vldr.32	s15, .L34+12
 374 0044 B4EEE78A 		vcmpe.f32	s16, s15
 375 0048 F1EE10FA 		vmrs	APSR_nzcv, FPSCR
 376 004c 16D9     		bls	.L32
 377              	.L25:
 102:Core/Src/Tools/UI.c **** 	{
 378              		.loc 1 102 7 is_stmt 1 view .LVU77
 102:Core/Src/Tools/UI.c **** 	{
 379              		.loc 1 102 28 is_stmt 0 view .LVU78
 380 004e 1C4B     		ldr	r3, .L34+8
 381 0050 1B68     		ldr	r3, [r3]
 102:Core/Src/Tools/UI.c **** 	{
 382              		.loc 1 102 7 view .LVU79
 383 0052 1BBB     		cbnz	r3, .L33
ARM GAS  C:\Users\leopi\AppData\Local\Temp\ccOTCwLg.s 			page 10


 106:Core/Src/Tools/UI.c **** 
 384              		.loc 1 106 5 is_stmt 1 view .LVU80
 106:Core/Src/Tools/UI.c **** 
 385              		.loc 1 106 22 is_stmt 0 view .LVU81
 386 0054 194B     		ldr	r3, .L34+4
 387 0056 93ED098A 		vldr.32	s16, [r3, #36]	@ int
 388              	.LVL33:
 108:Core/Src/Tools/UI.c **** 		  {
 389              		.loc 1 108 5 is_stmt 1 view .LVU82
 108:Core/Src/Tools/UI.c **** 		  {
 390              		.loc 1 108 62 is_stmt 0 view .LVU83
 391 005a B8EEC88A 		vcvt.f32.s32	s16, s16
 392              	.LVL34:
 108:Core/Src/Tools/UI.c **** 		  {
 393              		.loc 1 108 7 view .LVU84
 394 005e DFED1A7A 		vldr.32	s15, .L34+16
 395 0062 B4EEE78A 		vcmpe.f32	s16, s15
 396 0066 F1EE10FA 		vmrs	APSR_nzcv, FPSCR
 397 006a E9DB     		blt	.L22
 110:Core/Src/Tools/UI.c **** 		  	  if(*pMode > max)
 398              		.loc 1 110 8 is_stmt 1 view .LVU85
 110:Core/Src/Tools/UI.c **** 		  	  if(*pMode > max)
 399              		.loc 1 110 15 is_stmt 0 view .LVU86
 400 006c 2378     		ldrb	r3, [r4]	@ zero_extendqisi2
 401 006e 0133     		adds	r3, r3, #1
 402 0070 5BB2     		sxtb	r3, r3
 403 0072 2370     		strb	r3, [r4]
 111:Core/Src/Tools/UI.c **** 		  	  {
 404              		.loc 1 111 8 is_stmt 1 view .LVU87
 111:Core/Src/Tools/UI.c **** 		  	  {
 405              		.loc 1 111 10 is_stmt 0 view .LVU88
 406 0074 AB42     		cmp	r3, r5
 407 0076 DBDD     		ble	.L24
 113:Core/Src/Tools/UI.c **** 		  	  }
 408              		.loc 1 113 9 is_stmt 1 view .LVU89
 113:Core/Src/Tools/UI.c **** 		  	  }
 409              		.loc 1 113 16 is_stmt 0 view .LVU90
 410 0078 2670     		strb	r6, [r4]
 411 007a D9E7     		b	.L24
 412              	.L32:
 120:Core/Src/Tools/UI.c **** 		  {
 121:Core/Src/Tools/UI.c **** 		  	  *pMode -= 1;
 413              		.loc 1 121 8 is_stmt 1 view .LVU91
 414              		.loc 1 121 15 is_stmt 0 view .LVU92
 415 007c 2378     		ldrb	r3, [r4]	@ zero_extendqisi2
 416 007e 013B     		subs	r3, r3, #1
 417 0080 5BB2     		sxtb	r3, r3
 418 0082 2370     		strb	r3, [r4]
 122:Core/Src/Tools/UI.c **** 		  	  if(*pMode < min)
 419              		.loc 1 122 8 is_stmt 1 view .LVU93
 420              		.loc 1 122 10 is_stmt 0 view .LVU94
 421 0084 B342     		cmp	r3, r6
 422 0086 00DA     		bge	.L27
 123:Core/Src/Tools/UI.c **** 		  	  {
 124:Core/Src/Tools/UI.c **** 		  	  		  *pMode = max;
 423              		.loc 1 124 12 is_stmt 1 view .LVU95
 424              		.loc 1 124 19 is_stmt 0 view .LVU96
ARM GAS  C:\Users\leopi\AppData\Local\Temp\ccOTCwLg.s 			page 11


 425 0088 2570     		strb	r5, [r4]
 426              	.L27:
 125:Core/Src/Tools/UI.c **** 		  	  }
 126:Core/Src/Tools/UI.c **** 		  	  ChangeLED(*pMode);
 427              		.loc 1 126 8 is_stmt 1 view .LVU97
 428 008a 94F90000 		ldrsb	r0, [r4]
 429 008e FFF7FEFF 		bl	ChangeLED
 430              	.LVL35:
 127:Core/Src/Tools/UI.c **** 		  	  TIM3->CNT = INITIAL_PULSE;
 431              		.loc 1 127 8 view .LVU98
 432              		.loc 1 127 18 is_stmt 0 view .LVU99
 433 0092 0A4B     		ldr	r3, .L34+4
 434 0094 47F22F52 		movw	r2, #29999
 435 0098 5A62     		str	r2, [r3, #36]
 436 009a D8E7     		b	.L25
 437              	.L33:
 128:Core/Src/Tools/UI.c **** 		  }
 129:Core/Src/Tools/UI.c **** 	}
 130:Core/Src/Tools/UI.c **** 	gpio_callback_count = 0;
 438              		.loc 1 130 2 is_stmt 1 view .LVU100
 439              		.loc 1 130 22 is_stmt 0 view .LVU101
 440 009c 0021     		movs	r1, #0
 441 009e 084B     		ldr	r3, .L34+8
 442 00a0 1960     		str	r1, [r3]
 131:Core/Src/Tools/UI.c **** 	HAL_TIM_Encoder_Stop(&htim3,TIM_CHANNEL_1);
 443              		.loc 1 131 2 is_stmt 1 view .LVU102
 444 00a2 054C     		ldr	r4, .L34
 445              	.LVL36:
 446              		.loc 1 131 2 is_stmt 0 view .LVU103
 447 00a4 2046     		mov	r0, r4
 448 00a6 FFF7FEFF 		bl	HAL_TIM_Encoder_Stop
 449              	.LVL37:
 132:Core/Src/Tools/UI.c **** 	HAL_TIM_Encoder_Stop(&htim3,TIM_CHANNEL_2);
 450              		.loc 1 132 2 is_stmt 1 view .LVU104
 451 00aa 0421     		movs	r1, #4
 452 00ac 2046     		mov	r0, r4
 453 00ae FFF7FEFF 		bl	HAL_TIM_Encoder_Stop
 454              	.LVL38:
 133:Core/Src/Tools/UI.c **** }
 455              		.loc 1 133 1 is_stmt 0 view .LVU105
 456 00b2 BDEC028B 		vldm	sp!, {d8}
 457              	.LCFI7:
 458              		.cfi_restore 80
 459              		.cfi_restore 81
 460              		.cfi_def_cfa_offset 24
 461 00b6 F8BD     		pop	{r3, r4, r5, r6, r7, pc}
 462              	.L35:
 463              		.align	2
 464              	.L34:
 465 00b8 00000000 		.word	htim3
 466 00bc 00040040 		.word	1073742848
 467 00c0 00000000 		.word	.LANCHOR0
 468 00c4 00BC5446 		.word	1179958272
 469 00c8 002F3547 		.word	1194667776
 470              		.cfi_endproc
 471              	.LFE242:
 473              		.global	gpio_callback_count
ARM GAS  C:\Users\leopi\AppData\Local\Temp\ccOTCwLg.s 			page 12


 474              		.section	.bss.gpio_callback_count,"aw",%nobits
 475              		.align	2
 476              		.set	.LANCHOR0,. + 0
 479              	gpio_callback_count:
 480 0000 00000000 		.space	4
 481              		.text
 482              	.Letext0:
 483              		.file 2 "c:\\tools\\gcc-arm-none-eabi-10_2021.10\\arm-none-eabi\\include\\machine\\_default_types.
 484              		.file 3 "c:\\tools\\gcc-arm-none-eabi-10_2021.10\\arm-none-eabi\\include\\sys\\_stdint.h"
 485              		.file 4 "Drivers/CMSIS/Device/ST/STM32F4xx/Include/stm32f405xx.h"
 486              		.file 5 "Drivers/CMSIS/Device/ST/STM32F4xx/Include/stm32f4xx.h"
 487              		.file 6 "Drivers/STM32F4xx_HAL_Driver/Inc/stm32f4xx_hal_def.h"
 488              		.file 7 "Drivers/STM32F4xx_HAL_Driver/Inc/stm32f4xx_hal_dma.h"
 489              		.file 8 "Drivers/STM32F4xx_HAL_Driver/Inc/stm32f4xx_hal_adc.h"
 490              		.file 9 "Drivers/STM32F4xx_HAL_Driver/Inc/stm32f4xx_hal_tim.h"
 491              		.file 10 "Core/Inc/Tools/UI.h"
 492              		.file 11 "Core/Inc/HardWare/IEH2_4096.h"
 493              		.file 12 "Core/Inc/HardWare/mouse_ADC.h"
 494              		.file 13 "Core/Inc/HardWare/IR_Emitter.h"
 495              		.file 14 "Core/Inc/HardWare/LED_Driver.h"
 496              		.file 15 "Drivers/STM32F4xx_HAL_Driver/Inc/stm32f4xx_hal_tim_ex.h"
 497              		.file 16 "c:\\tools\\gcc-arm-none-eabi-10_2021.10\\arm-none-eabi\\include\\stdio.h"
 498              		.file 17 "Core/Inc/Tools/Convert.h"
 499              		.file 18 "Drivers/STM32F4xx_HAL_Driver/Inc/stm32f4xx_hal.h"
ARM GAS  C:\Users\leopi\AppData\Local\Temp\ccOTCwLg.s 			page 13

